Certificate:
    Data:
        Version: 3 (0x2)
        Serial Number: 1 (0x1)
        Signature Algorithm: rsassaPss        
        Hash Algorithm: sha384
        Mask Algorithm: mgf1 with sha384
         Salt Length: 0x014E
        Trailer Field: 0x01 (default)
        Issuer: C = US, ST = Montana, L = Bozeman, O = wolfSSL_RSA-PSS, OU = Root-RSA-PSS, CN = www.wolfssl.com, emailAddress = info@wolfssl.com
        Validity
            Not Before: Dec 18 21:25:30 2024 GMT
            Not After : Sep 14 21:25:30 2027 GMT
        Subject: C = US, ST = Montana, L = Bozeman, O = wolfSSL_RSAPSS, OU = CA-RSAPSS, CN = www.wolfssl.com, emailAddress = info@wolfssl.com, UID = wolfSSL
        Subject Public Key Info:
            Public Key Algorithm: rsassaPss
                Public-Key: (3072 bit)
                Modulus:
                    00:c8:2a:40:c8:eb:ae:7c:18:33:cb:38:51:e6:b7:
                    7b:11:4f:cd:ea:35:87:64:d9:b2:ca:cf:4b:21:c4:
                    86:2a:c7:a3:6f:15:3e:1e:c4:9b:03:81:4b:3a:5d:
                    53:62:11:e2:08:df:97:4d:37:3d:78:62:50:40:31:
                    2a:70:44:1a:6d:69:49:fc:77:b8:f2:42:09:86:9a:
                    5d:39:cd:84:7b:32:8a:3b:b0:4f:bf:3d:d4:05:7e:
                    c0:aa:28:a5:ce:b1:28:3a:59:d9:19:10:3a:d4:1f:
                    91:07:07:73:50:a4:2b:d8:18:1f:22:f8:f4:64:3f:
                    13:a0:d8:60:7e:53:4c:3b:97:70:bc:36:e5:be:31:
                    97:45:55:ed:a2:5b:87:b5:1b:8e:65:3d:b7:15:08:
                    d1:12:1a:aa:ec:4e:56:35:70:a7:3e:50:65:f7:3e:
                    30:9c:32:db:b2:24:7b:87:02:29:27:12:35:ad:8e:
                    c3:02:22:13:c2:6e:53:45:f0:16:21:81:e5:d5:b5:
                    91:60:8b:d7:5c:bb:c2:70:06:f6:50:41:45:36:7f:
                    41:44:89:b6:97:23:be:76:d7:7c:72:7f:ea:f4:19:
                    10:17:c3:df:8f:cd:97:20:04:cb:1d:03:6b:09:8f:
                    d7:7b:84:7d:22:c5:e2:10:cb:cc:11:aa:a1:f5:66:
                    85:0e:35:5a:8c:c3:89:61:29:d0:5c:53:2f:09:4b:
                    91:7e:ce:e0:12:d3:ce:eb:c9:50:3c:36:f0:a6:b4:
                    fb:b5:c2:de:61:a0:ac:6f:bc:7e:ef:53:08:9f:b1:
                    18:ad:5b:e3:01:23:de:11:a5:1f:7d:d5:b6:f4:72:
                    1d:53:75:66:8c:db:61:1e:e9:eb:3c:f3:49:69:82:
                    b6:20:6b:29:03:a1:be:55:e4:4c:f8:25:a7:a8:a3:
                    e3:3f:32:1f:ae:a7:2a:9b:6b:56:dd:c9:5a:b1:1a:
                    01:a0:13:d2:8e:9a:2c:db:7e:fd:5b:0e:2e:ef:92:
                    69:ce:f2:de:ef:d0:2f:09:0e:67
                Exponent: 65537 (0x10001)
                No PSS parameter restrictions
        X509v3 extensions:
            X509v3 Subject Key Identifier: 
                F8:42:CC:88:C9:C8:18:F9:D3:B0:24:65:06:4C:FF:55:AB:BF:0E:7F
            X509v3 Authority Key Identifier: 
                AA:71:D3:B1:8A:4B:BB:47:15:47:5F:9B:D0:2B:69:D1:6F:85:5E:F6
            X509v3 Basic Constraints: critical
                CA:TRUE
            X509v3 Key Usage: critical
                Digital Signature, Certificate Sign, CRL Sign
    Signature Algorithm: rsassaPss
    Signature Value:        
        Hash Algorithm: sha384
        Mask Algorithm: mgf1 with sha384
         Salt Length: 0x014E
        Trailer Field: 0x01 (default)
        7e:3f:73:07:e2:0f:7e:e8:7c:7f:81:03:e7:e2:78:c2:f8:45:
        27:e6:42:5a:21:35:26:17:31:aa:9e:65:05:84:47:46:cb:bd:
        c0:30:32:a0:06:f1:a1:a7:68:89:0f:e7:a0:83:31:8f:d9:b4:
        ad:2d:1e:82:e6:ba:bc:0c:a8:98:a6:75:97:8e:b1:bc:33:77:
        f5:9c:f6:0b:39:f8:6f:d9:bb:35:75:80:e9:22:a4:75:cb:1a:
        24:55:f7:96:bf:73:d2:6b:93:87:a7:c1:3c:97:75:ef:6a:9e:
        51:12:43:60:fe:6c:46:01:ab:5a:a2:72:b5:cf:a9:47:8b:3c:
        9d:d2:5b:c7:e1:f4:25:94:c4:3d:a3:62:10:0d:19:4e:72:66:
        85:1e:7b:24:a6:93:46:be:5e:a6:f4:c9:52:4d:dd:2d:d4:15:
        ef:f7:cb:75:90:2b:ba:6f:7d:84:90:26:f6:5a:92:e9:d0:b0:
        c6:05:2e:10:d5:b5:12:da:cb:92:ed:6f:12:27:3a:cd:08:94:
        f0:52:9b:08:52:47:77:e2:de:ce:51:20:6f:e7:b3:1a:21:ea:
        2f:d5:8c:10:15:9c:e4:61:74:d4:c3:8f:4e:47:df:a2:3c:60:
        da:61:60:a8:67:2b:40:30:4e:a3:5f:7b:f6:3d:7e:5f:0d:ce:
        c8:2b:de:17:b0:dd:a9:9c:3d:b7:dc:7f:60:b9:4e:4a:24:cf:
        75:b1:d3:ce:83:5e:6d:f3:28:78:fd:6e:3f:f5:69:50:08:57:
        58:76:98:d6:86:ce:2d:42:0b:66:60:7f:fa:20:0d:4e:d6:0d:
        ed:9a:2d:95:3e:d0:df:72:53:56:1e:d5:f5:60:ab:d9:eb:f1:
        f3:76:9b:4f:04:13:5a:92:6c:af:93:23:cb:87:ec:ad:ef:f5:
        e5:df:0c:e5:14:70:a9:ca:43:f9:aa:83:4f:bf:aa:de:21:75:
        3f:70:6e:7b:fe:2e:ba:72:7e:3b:e2:88:70:b4:17:5a:bd:38:
        f3:37:f0:f7:1d:99
-----BEGIN CERTIFICATE-----
MIIFlzCCA8qgAwIBAgIBATBCBgkqhkiG9w0BAQowNaAPMA0GCWCGSAFlAwQCAgUA
oRwwGgYJKoZIhvcNAQEIMA0GCWCGSAFlAwQCAgUAogQCAgFOMIGdMQswCQYDVQQG
EwJVUzEQMA4GA1UECAwHTW9udGFuYTEQMA4GA1UEBwwHQm96ZW1hbjEYMBYGA1UE
CgwPd29sZlNTTF9SU0EtUFNTMRUwEwYDVQQLDAxSb290LVJTQS1QU1MxGDAWBgNV
BAMMD3d3dy53b2xmc3NsLmNvbTEfMB0GCSqGSIb3DQEJARYQaW5mb0B3b2xmc3Ns
LmNvbTAeFw0yNDEyMTgyMTI1MzBaFw0yNzA5MTQyMTI1MzBaMIGyMQswCQYDVQQG
EwJVUzEQMA4GA1UECAwHTW9udGFuYTEQMA4GA1UEBwwHQm96ZW1hbjEXMBUGA1UE
CgwOd29sZlNTTF9SU0FQU1MxEjAQBgNVBAsMCUNBLVJTQVBTUzEYMBYGA1UEAwwP
d3d3LndvbGZzc2wuY29tMR8wHQYJKoZIhvcNAQkBFhBpbmZvQHdvbGZzc2wuY29t
MRcwFQYKCZImiZPyLGQBAQwHd29sZlNTTDCCAaAwCwYJKoZIhvcNAQEKA4IBjwAw
ggGKAoIBgQDIKkDI6658GDPLOFHmt3sRT83qNYdk2bLKz0shxIYqx6NvFT4exJsD
gUs6XVNiEeII35dNNz14YlBAMSpwRBptaUn8d7jyQgmGml05zYR7Moo7sE+/PdQF
fsCqKKXOsSg6WdkZEDrUH5EHB3NQpCvYGB8i+PRkPxOg2GB+U0w7l3C8NuW+MZdF
Ve2iW4e1G45lPbcVCNESGqrsTlY1cKc+UGX3PjCcMtuyJHuHAiknEjWtjsMCIhPC
blNF8BYhgeXVtZFgi9dcu8JwBvZQQUU2f0FEibaXI75213xyf+r0GRAXw9+PzZcg
BMsdA2sJj9d7hH0ixeIQy8wRqqH1ZoUONVqMw4lhKdBcUy8JS5F+zuAS087ryVA8
NvCmtPu1wt5hoKxvvH7vUwifsRitW+MBI94RpR991bb0ch1TdWaM22Ee6es880lp
grYgaykDob5V5Ez4Jaeoo+M/Mh+upyqba1bdyVqxGgGgE9KOmizbfv1bDi7vkmnO
8t7v0C8JDmcCAwEAAaNjMGEwHQYDVR0OBBYEFPhCzIjJyBj507AkZQZM/1Wrvw5/
MB8GA1UdIwQYMBaAFKpx07GKS7tHFUdfm9AradFvhV72MA8GA1UdEwEB/wQFMAMB
Af8wDgYDVR0PAQH/BAQDAgGGMEIGCSqGSIb3DQEBCjA1oA8wDQYJYIZIAWUDBAIC
BQChHDAaBgkqhkiG9w0BAQgwDQYJYIZIAWUDBAICBQCiBAICAU4DggGBAH4/cwfi
D37ofH+BA+fieML4RSfmQlohNSYXMaqeZQWER0bLvcAwMqAG8aGnaIkP56CDMY/Z
tK0tHoLmurwMqJimdZeOsbwzd/Wc9gs5+G/ZuzV1gOkipHXLGiRV95a/c9Jrk4en
wTyXde9qnlESQ2D+bEYBq1qicrXPqUeLPJ3SW8fh9CWUxD2jYhANGU5yZoUeeySm
k0a+Xqb0yVJN3S3UFe/3y3WQK7pvfYSQJvZakunQsMYFLhDVtRLay5LtbxInOs0I
lPBSmwhSR3fi3s5RIG/nsxoh6i/VjBAVnORhdNTDj05H36I8YNphYKhnK0AwTqNf
e/Y9fl8Nzsgr3hew3amcPbfcf2C5Tkokz3Wx086DXm3zKHj9bj/1aVAIV1h2mNaG
zi1CC2Zgf/ogDU7WDe2aLZU+0N9yU1Ye1fVgq9nr8fN2m08EE1qSbK+TI8uH7K3v
9eXfDOUUcKnKQ/mqg0+/qt4hdT9wbnv+LrpyfjviiHC0F1q9OPM38PcdmQ==
-----END CERTIFICATE-----
