Certificate:
    Data:
        Version: 3 (0x2)
        Serial Number: 1 (0x1)
        Signature Algorithm: rsassaPss         
         Hash Algorithm: sha384
         Mask Algorithm: mgf1 with sha384
          Salt Length: 0x014E
         Trailer Field: 0xBC (default)
        Issuer: C = US, ST = Montana, L = Bozeman, O = wolfSSL_RSA-PSS, OU = Root-RSA-PSS, CN = www.wolfssl.com, emailAddress = info@wolfssl.com
        Validity
            Not Before: Jul 25 02:27:55 2022 GMT
            Not After : Apr 20 02:27:55 2025 GMT
        Subject: C = US, ST = Montana, L = Bozeman, O = wolfSSL_RSAPSS, OU = CA-RSAPSS, CN = www.wolfssl.com, emailAddress = info@wolfssl.com, UID = wolfSSL
        Subject Public Key Info:
            Public Key Algorithm: rsassaPss
                RSA-PSS Public-Key: (3072 bit)
                Modulus:
                    00:c8:2a:40:c8:eb:ae:7c:18:33:cb:38:51:e6:b7:
                    7b:11:4f:cd:ea:35:87:64:d9:b2:ca:cf:4b:21:c4:
                    86:2a:c7:a3:6f:15:3e:1e:c4:9b:03:81:4b:3a:5d:
                    53:62:11:e2:08:df:97:4d:37:3d:78:62:50:40:31:
                    2a:70:44:1a:6d:69:49:fc:77:b8:f2:42:09:86:9a:
                    5d:39:cd:84:7b:32:8a:3b:b0:4f:bf:3d:d4:05:7e:
                    c0:aa:28:a5:ce:b1:28:3a:59:d9:19:10:3a:d4:1f:
                    91:07:07:73:50:a4:2b:d8:18:1f:22:f8:f4:64:3f:
                    13:a0:d8:60:7e:53:4c:3b:97:70:bc:36:e5:be:31:
                    97:45:55:ed:a2:5b:87:b5:1b:8e:65:3d:b7:15:08:
                    d1:12:1a:aa:ec:4e:56:35:70:a7:3e:50:65:f7:3e:
                    30:9c:32:db:b2:24:7b:87:02:29:27:12:35:ad:8e:
                    c3:02:22:13:c2:6e:53:45:f0:16:21:81:e5:d5:b5:
                    91:60:8b:d7:5c:bb:c2:70:06:f6:50:41:45:36:7f:
                    41:44:89:b6:97:23:be:76:d7:7c:72:7f:ea:f4:19:
                    10:17:c3:df:8f:cd:97:20:04:cb:1d:03:6b:09:8f:
                    d7:7b:84:7d:22:c5:e2:10:cb:cc:11:aa:a1:f5:66:
                    85:0e:35:5a:8c:c3:89:61:29:d0:5c:53:2f:09:4b:
                    91:7e:ce:e0:12:d3:ce:eb:c9:50:3c:36:f0:a6:b4:
                    fb:b5:c2:de:61:a0:ac:6f:bc:7e:ef:53:08:9f:b1:
                    18:ad:5b:e3:01:23:de:11:a5:1f:7d:d5:b6:f4:72:
                    1d:53:75:66:8c:db:61:1e:e9:eb:3c:f3:49:69:82:
                    b6:20:6b:29:03:a1:be:55:e4:4c:f8:25:a7:a8:a3:
                    e3:3f:32:1f:ae:a7:2a:9b:6b:56:dd:c9:5a:b1:1a:
                    01:a0:13:d2:8e:9a:2c:db:7e:fd:5b:0e:2e:ef:92:
                    69:ce:f2:de:ef:d0:2f:09:0e:67
                Exponent: 65537 (0x10001)
                No PSS parameter restrictions
        X509v3 extensions:
            X509v3 Subject Key Identifier: 
                F8:42:CC:88:C9:C8:18:F9:D3:B0:24:65:06:4C:FF:55:AB:BF:0E:7F
            X509v3 Authority Key Identifier: 
                keyid:AA:71:D3:B1:8A:4B:BB:47:15:47:5F:9B:D0:2B:69:D1:6F:85:5E:F6

            X509v3 Basic Constraints: critical
                CA:TRUE
            X509v3 Key Usage: critical
                Digital Signature, Certificate Sign, CRL Sign
    Signature Algorithm: rsassaPss         
         Hash Algorithm: sha384
         Mask Algorithm: mgf1 with sha384
          Salt Length: 0x014E
         Trailer Field: 0xBC (default)

         39:a8:ef:b1:66:08:50:0b:5e:cb:b2:29:8c:9b:b1:be:21:44:
         d6:d8:97:1d:45:dc:52:70:f1:de:ac:74:65:03:6b:af:a0:f0:
         21:61:ce:23:39:33:c8:cb:1e:8f:77:12:1e:5b:99:0c:e1:1b:
         75:cf:1d:d7:12:86:cc:fc:86:90:0f:45:ea:8b:08:47:08:ac:
         56:44:31:f2:c9:23:6b:d5:30:ca:5f:49:b0:4b:8b:36:bd:5c:
         92:fa:86:34:57:80:30:93:29:59:19:a4:dd:f9:91:26:8a:49:
         b4:ee:93:aa:e1:b2:06:f6:2f:2a:d9:5b:6d:f9:7c:04:4f:1c:
         7a:cc:8e:39:c2:98:3a:bd:b9:a2:24:82:8f:e4:d8:80:47:73:
         84:6e:bc:20:5c:ac:79:72:a7:6f:e3:c8:3a:9c:cc:83:b1:1f:
         e2:65:3b:a1:f5:86:1a:33:53:bc:05:ba:6a:b1:bc:a7:b4:c1:
         44:8c:0a:cc:c2:15:da:c1:dd:dc:31:91:46:5b:48:d8:ea:03:
         78:e1:1f:ce:79:19:c8:6e:d6:3f:4c:f5:3b:b3:e7:2e:b7:46:
         0c:58:cd:ca:56:a6:88:fb:fd:12:d1:27:80:5a:a2:51:96:f8:
         4c:65:8d:71:0b:84:ca:94:f9:9f:c9:38:62:a3:64:cd:91:44:
         50:ed:bb:c0:1d:9b:b8:a4:57:b1:7a:2e:44:57:a5:15:ba:cc:
         b3:62:f5:46:aa:cd:fb:53:d3:ed:ef:e3:f4:b2:9b:3f:29:d0:
         00:8c:19:61:48:b6:da:74:27:05:69:7b:df:04:0e:e2:f1:0f:
         1a:fa:92:70:79:78:86:52:60:e1:4d:4e:66:14:ba:86:e2:4e:
         dd:e0:d0:f3:c0:2d:6d:3a:16:00:1d:c6:9c:27:6f:a6:5f:21:
         4c:e4:82:14:95:d1:a7:4a:15:13:ba:d8:65:ad:34:a2:93:3a:
         d1:49:12:4d:f2:97:f3:e2:8a:83:d2:bf:84:84:c6:87:70:c9:
         38:e0:5f:fe:7f:38
-----BEGIN CERTIFICATE-----
MIIFjzCCA8agAwIBAgIBATA+BgkqhkiG9w0BAQowMaANMAsGCWCGSAFlAwQCAqEa
MBgGCSqGSIb3DQEBCDALBglghkgBZQMEAgKiBAICAU4wgZ0xCzAJBgNVBAYTAlVT
MRAwDgYDVQQIDAdNb250YW5hMRAwDgYDVQQHDAdCb3plbWFuMRgwFgYDVQQKDA93
b2xmU1NMX1JTQS1QU1MxFTATBgNVBAsMDFJvb3QtUlNBLVBTUzEYMBYGA1UEAwwP
d3d3LndvbGZzc2wuY29tMR8wHQYJKoZIhvcNAQkBFhBpbmZvQHdvbGZzc2wuY29t
MB4XDTIyMDcyNTAyMjc1NVoXDTI1MDQyMDAyMjc1NVowgbIxCzAJBgNVBAYTAlVT
MRAwDgYDVQQIDAdNb250YW5hMRAwDgYDVQQHDAdCb3plbWFuMRcwFQYDVQQKDA53
b2xmU1NMX1JTQVBTUzESMBAGA1UECwwJQ0EtUlNBUFNTMRgwFgYDVQQDDA93d3cu
d29sZnNzbC5jb20xHzAdBgkqhkiG9w0BCQEWEGluZm9Ad29sZnNzbC5jb20xFzAV
BgoJkiaJk/IsZAEBDAd3b2xmU1NMMIIBoDALBgkqhkiG9w0BAQoDggGPADCCAYoC
ggGBAMgqQMjrrnwYM8s4Uea3exFPzeo1h2TZssrPSyHEhirHo28VPh7EmwOBSzpd
U2IR4gjfl003PXhiUEAxKnBEGm1pSfx3uPJCCYaaXTnNhHsyijuwT7891AV+wKoo
pc6xKDpZ2RkQOtQfkQcHc1CkK9gYHyL49GQ/E6DYYH5TTDuXcLw25b4xl0VV7aJb
h7UbjmU9txUI0RIaquxOVjVwpz5QZfc+MJwy27Ike4cCKScSNa2OwwIiE8JuU0Xw
FiGB5dW1kWCL11y7wnAG9lBBRTZ/QUSJtpcjvnbXfHJ/6vQZEBfD34/NlyAEyx0D
awmP13uEfSLF4hDLzBGqofVmhQ41WozDiWEp0FxTLwlLkX7O4BLTzuvJUDw28Ka0
+7XC3mGgrG+8fu9TCJ+xGK1b4wEj3hGlH33VtvRyHVN1ZozbYR7p6zzzSWmCtiBr
KQOhvlXkTPglp6ij4z8yH66nKptrVt3JWrEaAaAT0o6aLNt+/VsOLu+Sac7y3u/Q
LwkOZwIDAQABo2MwYTAdBgNVHQ4EFgQU+ELMiMnIGPnTsCRlBkz/Vau/Dn8wHwYD
VR0jBBgwFoAUqnHTsYpLu0cVR1+b0Ctp0W+FXvYwDwYDVR0TAQH/BAUwAwEB/zAO
BgNVHQ8BAf8EBAMCAYYwPgYJKoZIhvcNAQEKMDGgDTALBglghkgBZQMEAgKhGjAY
BgkqhkiG9w0BAQgwCwYJYIZIAWUDBAICogQCAgFOA4IBgQA5qO+xZghQC17LsimM
m7G+IUTW2JcdRdxScPHerHRlA2uvoPAhYc4jOTPIyx6PdxIeW5kM4Rt1zx3XEobM
/IaQD0XqiwhHCKxWRDHyySNr1TDKX0mwS4s2vVyS+oY0V4AwkylZGaTd+ZEmikm0
7pOq4bIG9i8q2Vtt+XwETxx6zI45wpg6vbmiJIKP5NiAR3OEbrwgXKx5cqdv48g6
nMyDsR/iZTuh9YYaM1O8BbpqsbyntMFEjArMwhXawd3cMZFGW0jY6gN44R/OeRnI
btY/TPU7s+cut0YMWM3KVqaI+/0S0SeAWqJRlvhMZY1xC4TKlPmfyThio2TNkURQ
7bvAHZu4pFexei5EV6UVusyzYvVGqs37U9Pt7+P0sps/KdAAjBlhSLbadCcFaXvf
BA7i8Q8a+pJweXiGUmDhTU5mFLqG4k7d4NDzwC1tOhYAHcacJ2+mXyFM5IIUldGn
ShUTuthlrTSikzrRSRJN8pfz4oqD0r+EhMaHcMk44F/+fzg=
-----END CERTIFICATE-----
