Certificate:
    Data:
        Version: 3 (0x2)
        Serial Number: 1 (0x1)
        Signature Algorithm: rsassaPss         
         Hash Algorithm: sha384
         Mask Algorithm: mgf1 with sha384
          Salt Length: 0x014E
         Trailer Field: 0xBC (default)
        Issuer: C = US, ST = Montana, L = Bozeman, O = wolfSSL_RSA-PSS, OU = Root-RSA-PSS, CN = www.wolfssl.com, emailAddress = info@wolfssl.com
        Validity
            Not Before: Dec 13 22:19:29 2023 GMT
            Not After : Sep  8 22:19:29 2026 GMT
        Subject: C = US, ST = Montana, L = Bozeman, O = wolfSSL_RSAPSS, OU = CA-RSAPSS, CN = www.wolfssl.com, emailAddress = info@wolfssl.com, UID = wolfSSL
        Subject Public Key Info:
            Public Key Algorithm: rsassaPss
                RSA-PSS Public-Key: (3072 bit)
                Modulus:
                    00:c8:2a:40:c8:eb:ae:7c:18:33:cb:38:51:e6:b7:
                    7b:11:4f:cd:ea:35:87:64:d9:b2:ca:cf:4b:21:c4:
                    86:2a:c7:a3:6f:15:3e:1e:c4:9b:03:81:4b:3a:5d:
                    53:62:11:e2:08:df:97:4d:37:3d:78:62:50:40:31:
                    2a:70:44:1a:6d:69:49:fc:77:b8:f2:42:09:86:9a:
                    5d:39:cd:84:7b:32:8a:3b:b0:4f:bf:3d:d4:05:7e:
                    c0:aa:28:a5:ce:b1:28:3a:59:d9:19:10:3a:d4:1f:
                    91:07:07:73:50:a4:2b:d8:18:1f:22:f8:f4:64:3f:
                    13:a0:d8:60:7e:53:4c:3b:97:70:bc:36:e5:be:31:
                    97:45:55:ed:a2:5b:87:b5:1b:8e:65:3d:b7:15:08:
                    d1:12:1a:aa:ec:4e:56:35:70:a7:3e:50:65:f7:3e:
                    30:9c:32:db:b2:24:7b:87:02:29:27:12:35:ad:8e:
                    c3:02:22:13:c2:6e:53:45:f0:16:21:81:e5:d5:b5:
                    91:60:8b:d7:5c:bb:c2:70:06:f6:50:41:45:36:7f:
                    41:44:89:b6:97:23:be:76:d7:7c:72:7f:ea:f4:19:
                    10:17:c3:df:8f:cd:97:20:04:cb:1d:03:6b:09:8f:
                    d7:7b:84:7d:22:c5:e2:10:cb:cc:11:aa:a1:f5:66:
                    85:0e:35:5a:8c:c3:89:61:29:d0:5c:53:2f:09:4b:
                    91:7e:ce:e0:12:d3:ce:eb:c9:50:3c:36:f0:a6:b4:
                    fb:b5:c2:de:61:a0:ac:6f:bc:7e:ef:53:08:9f:b1:
                    18:ad:5b:e3:01:23:de:11:a5:1f:7d:d5:b6:f4:72:
                    1d:53:75:66:8c:db:61:1e:e9:eb:3c:f3:49:69:82:
                    b6:20:6b:29:03:a1:be:55:e4:4c:f8:25:a7:a8:a3:
                    e3:3f:32:1f:ae:a7:2a:9b:6b:56:dd:c9:5a:b1:1a:
                    01:a0:13:d2:8e:9a:2c:db:7e:fd:5b:0e:2e:ef:92:
                    69:ce:f2:de:ef:d0:2f:09:0e:67
                Exponent: 65537 (0x10001)
                No PSS parameter restrictions
        X509v3 extensions:
            X509v3 Subject Key Identifier: 
                F8:42:CC:88:C9:C8:18:F9:D3:B0:24:65:06:4C:FF:55:AB:BF:0E:7F
            X509v3 Authority Key Identifier: 
                keyid:AA:71:D3:B1:8A:4B:BB:47:15:47:5F:9B:D0:2B:69:D1:6F:85:5E:F6

            X509v3 Basic Constraints: critical
                CA:TRUE
            X509v3 Key Usage: critical
                Digital Signature, Certificate Sign, CRL Sign
    Signature Algorithm: rsassaPss         
         Hash Algorithm: sha384
         Mask Algorithm: mgf1 with sha384
          Salt Length: 0x014E
         Trailer Field: 0xBC (default)

         1f:c0:ae:b2:47:af:ec:86:67:3a:b6:8f:44:65:4a:af:29:fc:
         17:92:a4:8f:03:6a:76:63:8d:65:4a:f6:52:23:a2:08:46:17:
         c6:2c:87:76:2b:05:21:c1:70:2d:4d:65:ef:de:af:87:21:7e:
         88:98:45:8b:06:8f:f8:56:4f:6a:29:f3:f4:72:5d:c3:f4:5a:
         ee:6c:52:dc:40:72:4a:1a:4c:3b:84:b0:5a:64:cc:3a:62:c3:
         d3:56:a9:e3:fd:4e:a2:3b:57:22:b7:f9:71:f7:5c:80:aa:4c:
         26:ef:d5:10:e5:d9:ae:89:ff:90:82:2e:0a:ad:1c:da:a6:9c:
         99:44:d5:fc:a0:3c:42:ad:e7:dd:8a:d0:c7:b8:d0:83:bb:4b:
         00:e2:50:e5:81:6f:03:b8:bc:4d:d2:86:4d:8a:33:79:ca:e8:
         a0:df:70:c1:3a:c3:55:05:f0:ac:d8:ab:55:0b:cf:44:60:b4:
         af:03:f4:88:d9:49:81:7c:78:6a:af:5f:cd:28:e2:e1:37:f3:
         28:b8:0e:05:5d:72:b3:b5:5b:f4:72:52:a3:7e:99:99:23:95:
         26:17:cb:9c:66:83:21:d6:ac:f8:c8:b2:49:22:dc:32:9b:f2:
         fc:5d:f7:fe:c0:a6:81:62:1c:43:25:2a:d3:66:37:76:db:15:
         31:c4:6b:df:e8:70:a9:f9:96:8c:ec:94:d1:b2:fb:73:03:1b:
         5d:7f:2b:1b:ab:47:72:ea:1b:9d:2d:43:d4:90:df:ca:c5:98:
         9a:a2:01:6a:d3:55:1c:ad:d1:37:46:93:fe:e8:56:8c:6a:1c:
         45:bf:cb:12:d1:aa:1c:98:08:af:f7:67:ed:41:65:3b:98:d0:
         42:29:b0:68:ab:94:52:6e:72:e2:f4:df:8a:68:b5:1b:6d:3f:
         35:d5:01:b8:60:eb:fe:f2:e9:33:90:db:59:5a:c4:d6:52:c6:
         c7:1b:a8:a1:ef:64:db:96:ac:ce:fc:8d:e2:ac:75:f4:0d:bc:
         49:36:8a:12:36:83
-----BEGIN CERTIFICATE-----
MIIFjzCCA8agAwIBAgIBATA+BgkqhkiG9w0BAQowMaANMAsGCWCGSAFlAwQCAqEa
MBgGCSqGSIb3DQEBCDALBglghkgBZQMEAgKiBAICAU4wgZ0xCzAJBgNVBAYTAlVT
MRAwDgYDVQQIDAdNb250YW5hMRAwDgYDVQQHDAdCb3plbWFuMRgwFgYDVQQKDA93
b2xmU1NMX1JTQS1QU1MxFTATBgNVBAsMDFJvb3QtUlNBLVBTUzEYMBYGA1UEAwwP
d3d3LndvbGZzc2wuY29tMR8wHQYJKoZIhvcNAQkBFhBpbmZvQHdvbGZzc2wuY29t
MB4XDTIzMTIxMzIyMTkyOVoXDTI2MDkwODIyMTkyOVowgbIxCzAJBgNVBAYTAlVT
MRAwDgYDVQQIDAdNb250YW5hMRAwDgYDVQQHDAdCb3plbWFuMRcwFQYDVQQKDA53
b2xmU1NMX1JTQVBTUzESMBAGA1UECwwJQ0EtUlNBUFNTMRgwFgYDVQQDDA93d3cu
d29sZnNzbC5jb20xHzAdBgkqhkiG9w0BCQEWEGluZm9Ad29sZnNzbC5jb20xFzAV
BgoJkiaJk/IsZAEBDAd3b2xmU1NMMIIBoDALBgkqhkiG9w0BAQoDggGPADCCAYoC
ggGBAMgqQMjrrnwYM8s4Uea3exFPzeo1h2TZssrPSyHEhirHo28VPh7EmwOBSzpd
U2IR4gjfl003PXhiUEAxKnBEGm1pSfx3uPJCCYaaXTnNhHsyijuwT7891AV+wKoo
pc6xKDpZ2RkQOtQfkQcHc1CkK9gYHyL49GQ/E6DYYH5TTDuXcLw25b4xl0VV7aJb
h7UbjmU9txUI0RIaquxOVjVwpz5QZfc+MJwy27Ike4cCKScSNa2OwwIiE8JuU0Xw
FiGB5dW1kWCL11y7wnAG9lBBRTZ/QUSJtpcjvnbXfHJ/6vQZEBfD34/NlyAEyx0D
awmP13uEfSLF4hDLzBGqofVmhQ41WozDiWEp0FxTLwlLkX7O4BLTzuvJUDw28Ka0
+7XC3mGgrG+8fu9TCJ+xGK1b4wEj3hGlH33VtvRyHVN1ZozbYR7p6zzzSWmCtiBr
KQOhvlXkTPglp6ij4z8yH66nKptrVt3JWrEaAaAT0o6aLNt+/VsOLu+Sac7y3u/Q
LwkOZwIDAQABo2MwYTAdBgNVHQ4EFgQU+ELMiMnIGPnTsCRlBkz/Vau/Dn8wHwYD
VR0jBBgwFoAUqnHTsYpLu0cVR1+b0Ctp0W+FXvYwDwYDVR0TAQH/BAUwAwEB/zAO
BgNVHQ8BAf8EBAMCAYYwPgYJKoZIhvcNAQEKMDGgDTALBglghkgBZQMEAgKhGjAY
BgkqhkiG9w0BAQgwCwYJYIZIAWUDBAICogQCAgFOA4IBgQAfwK6yR6/shmc6to9E
ZUqvKfwXkqSPA2p2Y41lSvZSI6IIRhfGLId2KwUhwXAtTWXv3q+HIX6ImEWLBo/4
Vk9qKfP0cl3D9FrubFLcQHJKGkw7hLBaZMw6YsPTVqnj/U6iO1cit/lx91yAqkwm
79UQ5dmuif+Qgi4KrRzappyZRNX8oDxCrefditDHuNCDu0sA4lDlgW8DuLxN0oZN
ijN5yuig33DBOsNVBfCs2KtVC89EYLSvA/SI2UmBfHhqr1/NKOLhN/MouA4FXXKz
tVv0clKjfpmZI5UmF8ucZoMh1qz4yLJJItwym/L8Xff+wKaBYhxDJSrTZjd22xUx
xGvf6HCp+ZaM7JTRsvtzAxtdfysbq0dy6hudLUPUkN/KxZiaogFq01UcrdE3RpP+
6FaMahxFv8sS0aocmAiv92ftQWU7mNBCKbBoq5RSbnLi9N+KaLUbbT811QG4YOv+
8ukzkNtZWsTWUsbHG6ih72TblqzO/I3irHX0DbxJNooSNoM=
-----END CERTIFICATE-----
