Certificate:
    Data:
        Version: 3 (0x2)
        Serial Number: 1 (0x1)
        Signature Algorithm: rsassaPss        
        Hash Algorithm: sha384
        Mask Algorithm: mgf1 with sha384
         Salt Length: 0x30
        Trailer Field: 0x01 (default)
        Issuer: C=US, ST=Montana, L=Bozeman, O=wolfSSL_RSA-PSS, OU=Root-RSA-PSS, CN=www.wolfssl.com, emailAddress=facts@wolfssl.com
        Validity
            Not Before: Jun 11 21:44:30 2026 GMT
            Not After : Mar  7 21:44:30 2029 GMT
        Subject: C=US, ST=Montana, L=Bozeman, O=wolfSSL_RSAPSS, OU=CA-RSAPSS, CN=www.wolfssl.com, emailAddress=facts@wolfssl.com, UID=wolfSSL
        Subject Public Key Info:
            Public Key Algorithm: rsassaPss
                Public-Key: (3072 bit)
                Modulus:
                    00:c8:2a:40:c8:eb:ae:7c:18:33:cb:38:51:e6:b7:
                    7b:11:4f:cd:ea:35:87:64:d9:b2:ca:cf:4b:21:c4:
                    86:2a:c7:a3:6f:15:3e:1e:c4:9b:03:81:4b:3a:5d:
                    53:62:11:e2:08:df:97:4d:37:3d:78:62:50:40:31:
                    2a:70:44:1a:6d:69:49:fc:77:b8:f2:42:09:86:9a:
                    5d:39:cd:84:7b:32:8a:3b:b0:4f:bf:3d:d4:05:7e:
                    c0:aa:28:a5:ce:b1:28:3a:59:d9:19:10:3a:d4:1f:
                    91:07:07:73:50:a4:2b:d8:18:1f:22:f8:f4:64:3f:
                    13:a0:d8:60:7e:53:4c:3b:97:70:bc:36:e5:be:31:
                    97:45:55:ed:a2:5b:87:b5:1b:8e:65:3d:b7:15:08:
                    d1:12:1a:aa:ec:4e:56:35:70:a7:3e:50:65:f7:3e:
                    30:9c:32:db:b2:24:7b:87:02:29:27:12:35:ad:8e:
                    c3:02:22:13:c2:6e:53:45:f0:16:21:81:e5:d5:b5:
                    91:60:8b:d7:5c:bb:c2:70:06:f6:50:41:45:36:7f:
                    41:44:89:b6:97:23:be:76:d7:7c:72:7f:ea:f4:19:
                    10:17:c3:df:8f:cd:97:20:04:cb:1d:03:6b:09:8f:
                    d7:7b:84:7d:22:c5:e2:10:cb:cc:11:aa:a1:f5:66:
                    85:0e:35:5a:8c:c3:89:61:29:d0:5c:53:2f:09:4b:
                    91:7e:ce:e0:12:d3:ce:eb:c9:50:3c:36:f0:a6:b4:
                    fb:b5:c2:de:61:a0:ac:6f:bc:7e:ef:53:08:9f:b1:
                    18:ad:5b:e3:01:23:de:11:a5:1f:7d:d5:b6:f4:72:
                    1d:53:75:66:8c:db:61:1e:e9:eb:3c:f3:49:69:82:
                    b6:20:6b:29:03:a1:be:55:e4:4c:f8:25:a7:a8:a3:
                    e3:3f:32:1f:ae:a7:2a:9b:6b:56:dd:c9:5a:b1:1a:
                    01:a0:13:d2:8e:9a:2c:db:7e:fd:5b:0e:2e:ef:92:
                    69:ce:f2:de:ef:d0:2f:09:0e:67
                Exponent: 65537 (0x10001)
                No PSS parameter restrictions
        X509v3 extensions:
            X509v3 Subject Key Identifier: 
                F8:42:CC:88:C9:C8:18:F9:D3:B0:24:65:06:4C:FF:55:AB:BF:0E:7F
            X509v3 Authority Key Identifier: 
                AA:71:D3:B1:8A:4B:BB:47:15:47:5F:9B:D0:2B:69:D1:6F:85:5E:F6
            X509v3 Basic Constraints: critical
                CA:TRUE
            X509v3 Key Usage: critical
                Digital Signature, Certificate Sign, CRL Sign
    Signature Algorithm: rsassaPss
    Signature Value:        
        Hash Algorithm: sha384
        Mask Algorithm: mgf1 with sha384
         Salt Length: 0x30
        Trailer Field: 0x01 (default)
        73:1f:72:01:ab:68:db:8f:8a:07:a3:00:98:15:52:b2:4c:83:
        7a:d1:c1:71:2e:11:87:a3:31:cf:2a:44:a0:a3:20:02:a7:85:
        4f:a4:1d:a6:c9:93:b5:d7:4b:0c:85:ee:e7:b2:43:5a:cc:50:
        6a:e5:5d:e9:2b:10:c0:b8:30:58:db:88:f1:fe:92:47:56:32:
        93:00:dd:dd:59:36:e6:5a:8d:6d:85:a9:45:ce:fd:02:09:fb:
        50:58:d9:32:76:d8:24:ca:58:d0:73:49:9e:10:bb:90:4a:50:
        a8:a3:e4:19:24:d2:b7:8a:fc:39:3d:d2:87:0b:50:17:fa:a9:
        2d:1b:bc:f3:d2:c0:0a:72:40:21:50:86:5f:e9:78:d0:b0:70:
        a4:48:a2:4a:0a:10:d2:15:ce:a5:0a:a8:fa:2f:bc:c4:f2:61:
        b2:fd:da:03:15:52:3f:60:0f:c3:8a:b4:3e:20:18:45:54:07:
        f7:95:fe:28:89:18:db:01:7a:6d:35:c8:d9:ee:39:73:f5:10:
        e2:38:2e:35:26:65:0b:cd:7f:35:24:ad:6b:82:11:ec:d0:ca:
        61:3f:6c:a9:09:96:36:b5:57:2d:b0:33:77:c1:4a:03:33:e2:
        30:e8:85:bf:6f:28:ee:0a:3a:4b:09:55:86:f3:66:ad:6d:a0:
        b0:85:9c:81:63:ea:7c:b5:5c:14:b7:43:26:ca:52:60:e5:33:
        7e:f1:fc:80:6d:f5:0d:86:e0:1d:3b:8b:24:f0:a3:53:78:ab:
        7a:ee:28:b6:41:ef:00:83:06:a5:ed:e7:fc:71:a9:2a:55:ba:
        03:f4:93:a9:88:17:1d:5d:5d:b7:9c:48:fc:32:b4:a2:8d:73:
        f8:4c:4f:33:8b:c5:e2:ac:c7:92:75:8c:73:cc:a5:5b:30:3b:
        07:63:ee:00:ef:17:ce:1e:7a:9c:87:3e:e4:d1:43:80:58:ea:
        fa:4e:17:59:2f:ea:88:00:bf:df:30:37:c7:9f:e5:f8:6f:75:
        1b:17:e1:b2:85:51
-----BEGIN CERTIFICATE-----
MIIFlzCCA8ugAwIBAgIBATBBBgkqhkiG9w0BAQowNKAPMA0GCWCGSAFlAwQCAgUA
oRwwGgYJKoZIhvcNAQEIMA0GCWCGSAFlAwQCAgUAogMCATAwgZ4xCzAJBgNVBAYT
AlVTMRAwDgYDVQQIDAdNb250YW5hMRAwDgYDVQQHDAdCb3plbWFuMRgwFgYDVQQK
DA93b2xmU1NMX1JTQS1QU1MxFTATBgNVBAsMDFJvb3QtUlNBLVBTUzEYMBYGA1UE
AwwPd3d3LndvbGZzc2wuY29tMSAwHgYJKoZIhvcNAQkBFhFmYWN0c0B3b2xmc3Ns
LmNvbTAeFw0yNjA2MTEyMTQ0MzBaFw0yOTAzMDcyMTQ0MzBaMIGzMQswCQYDVQQG
EwJVUzEQMA4GA1UECAwHTW9udGFuYTEQMA4GA1UEBwwHQm96ZW1hbjEXMBUGA1UE
CgwOd29sZlNTTF9SU0FQU1MxEjAQBgNVBAsMCUNBLVJTQVBTUzEYMBYGA1UEAwwP
d3d3LndvbGZzc2wuY29tMSAwHgYJKoZIhvcNAQkBFhFmYWN0c0B3b2xmc3NsLmNv
bTEXMBUGCgmSJomT8ixkAQEMB3dvbGZTU0wwggGgMAsGCSqGSIb3DQEBCgOCAY8A
MIIBigKCAYEAyCpAyOuufBgzyzhR5rd7EU/N6jWHZNmyys9LIcSGKsejbxU+HsSb
A4FLOl1TYhHiCN+XTTc9eGJQQDEqcEQabWlJ/He48kIJhppdOc2EezKKO7BPvz3U
BX7AqiilzrEoOlnZGRA61B+RBwdzUKQr2BgfIvj0ZD8ToNhgflNMO5dwvDblvjGX
RVXtoluHtRuOZT23FQjREhqq7E5WNXCnPlBl9z4wnDLbsiR7hwIpJxI1rY7DAiIT
wm5TRfAWIYHl1bWRYIvXXLvCcAb2UEFFNn9BRIm2lyO+dtd8cn/q9BkQF8Pfj82X
IATLHQNrCY/Xe4R9IsXiEMvMEaqh9WaFDjVajMOJYSnQXFMvCUuRfs7gEtPO68lQ
PDbwprT7tcLeYaCsb7x+71MIn7EYrVvjASPeEaUffdW29HIdU3VmjNthHunrPPNJ
aYK2IGspA6G+VeRM+CWnqKPjPzIfrqcqm2tW3clasRoBoBPSjpos2379Ww4u75Jp
zvLe79AvCQ5nAgMBAAGjYzBhMB0GA1UdDgQWBBT4QsyIycgY+dOwJGUGTP9Vq78O
fzAfBgNVHSMEGDAWgBSqcdOxiku7RxVHX5vQK2nRb4Ve9jAPBgNVHRMBAf8EBTAD
AQH/MA4GA1UdDwEB/wQEAwIBhjBBBgkqhkiG9w0BAQowNKAPMA0GCWCGSAFlAwQC
AgUAoRwwGgYJKoZIhvcNAQEIMA0GCWCGSAFlAwQCAgUAogMCATADggGBAHMfcgGr
aNuPigejAJgVUrJMg3rRwXEuEYejMc8qRKCjIAKnhU+kHabJk7XXSwyF7ueyQ1rM
UGrlXekrEMC4MFjbiPH+kkdWMpMA3d1ZNuZajW2FqUXO/QIJ+1BY2TJ22CTKWNBz
SZ4Qu5BKUKij5Bkk0reK/Dk90ocLUBf6qS0bvPPSwApyQCFQhl/peNCwcKRIokoK
ENIVzqUKqPovvMTyYbL92gMVUj9gD8OKtD4gGEVUB/eV/iiJGNsBem01yNnuOXP1
EOI4LjUmZQvNfzUkrWuCEezQymE/bKkJlja1Vy2wM3fBSgMz4jDohb9vKO4KOksJ
VYbzZq1toLCFnIFj6ny1XBS3QybKUmDlM37x/IBt9Q2G4B07iyTwo1N4q3ruKLZB
7wCDBqXt5/xxqSpVugP0k6mIFx1dXbecSPwytKKNc/hMTzOLxeKsx5J1jHPMpVsw
Owdj7gDvF84eepyHPuTRQ4BY6vpOF1kv6ogAv98wN8ef5fhvdRsX4bKFUQ==
-----END CERTIFICATE-----
