Certificate:
    Data:
        Version: 3 (0x2)
        Serial Number: 1 (0x1)
        Signature Algorithm: rsassaPss        
        Hash Algorithm: sha384
        Mask Algorithm: mgf1 with sha384
         Salt Length: 0x014E
        Trailer Field: 0x01 (default)
        Issuer: C = US, ST = Montana, L = Bozeman, O = wolfSSL_RSA-PSS, OU = Root-RSA-PSS, CN = www.wolfssl.com, emailAddress = info@wolfssl.com
        Validity
            Not Before: Sep 26 17:22:43 2023 GMT
            Not After : Jun 22 17:22:43 2026 GMT
        Subject: C = US, ST = Montana, L = Bozeman, O = wolfSSL_RSAPSS, OU = CA-RSAPSS, CN = www.wolfssl.com, emailAddress = info@wolfssl.com, UID = wolfSSL
        Subject Public Key Info:
            Public Key Algorithm: rsassaPss
                Public-Key: (3072 bit)
                Modulus:
                    00:c8:2a:40:c8:eb:ae:7c:18:33:cb:38:51:e6:b7:
                    7b:11:4f:cd:ea:35:87:64:d9:b2:ca:cf:4b:21:c4:
                    86:2a:c7:a3:6f:15:3e:1e:c4:9b:03:81:4b:3a:5d:
                    53:62:11:e2:08:df:97:4d:37:3d:78:62:50:40:31:
                    2a:70:44:1a:6d:69:49:fc:77:b8:f2:42:09:86:9a:
                    5d:39:cd:84:7b:32:8a:3b:b0:4f:bf:3d:d4:05:7e:
                    c0:aa:28:a5:ce:b1:28:3a:59:d9:19:10:3a:d4:1f:
                    91:07:07:73:50:a4:2b:d8:18:1f:22:f8:f4:64:3f:
                    13:a0:d8:60:7e:53:4c:3b:97:70:bc:36:e5:be:31:
                    97:45:55:ed:a2:5b:87:b5:1b:8e:65:3d:b7:15:08:
                    d1:12:1a:aa:ec:4e:56:35:70:a7:3e:50:65:f7:3e:
                    30:9c:32:db:b2:24:7b:87:02:29:27:12:35:ad:8e:
                    c3:02:22:13:c2:6e:53:45:f0:16:21:81:e5:d5:b5:
                    91:60:8b:d7:5c:bb:c2:70:06:f6:50:41:45:36:7f:
                    41:44:89:b6:97:23:be:76:d7:7c:72:7f:ea:f4:19:
                    10:17:c3:df:8f:cd:97:20:04:cb:1d:03:6b:09:8f:
                    d7:7b:84:7d:22:c5:e2:10:cb:cc:11:aa:a1:f5:66:
                    85:0e:35:5a:8c:c3:89:61:29:d0:5c:53:2f:09:4b:
                    91:7e:ce:e0:12:d3:ce:eb:c9:50:3c:36:f0:a6:b4:
                    fb:b5:c2:de:61:a0:ac:6f:bc:7e:ef:53:08:9f:b1:
                    18:ad:5b:e3:01:23:de:11:a5:1f:7d:d5:b6:f4:72:
                    1d:53:75:66:8c:db:61:1e:e9:eb:3c:f3:49:69:82:
                    b6:20:6b:29:03:a1:be:55:e4:4c:f8:25:a7:a8:a3:
                    e3:3f:32:1f:ae:a7:2a:9b:6b:56:dd:c9:5a:b1:1a:
                    01:a0:13:d2:8e:9a:2c:db:7e:fd:5b:0e:2e:ef:92:
                    69:ce:f2:de:ef:d0:2f:09:0e:67
                Exponent: 65537 (0x10001)
                No PSS parameter restrictions
        X509v3 extensions:
            X509v3 Subject Key Identifier: 
                F8:42:CC:88:C9:C8:18:F9:D3:B0:24:65:06:4C:FF:55:AB:BF:0E:7F
            X509v3 Authority Key Identifier: 
                AA:71:D3:B1:8A:4B:BB:47:15:47:5F:9B:D0:2B:69:D1:6F:85:5E:F6
            X509v3 Basic Constraints: critical
                CA:TRUE
            X509v3 Key Usage: critical
                Digital Signature, Certificate Sign, CRL Sign
    Signature Algorithm: rsassaPss
    Signature Value:        
        Hash Algorithm: sha384
        Mask Algorithm: mgf1 with sha384
         Salt Length: 0x014E
        Trailer Field: 0x01 (default)
        0c:0d:6f:5f:af:ef:68:f4:34:4e:cc:fb:d1:82:00:cc:a4:b9:
        cd:a6:13:b7:c5:81:34:df:b6:7a:46:1b:bd:e9:56:1f:c0:8a:
        2d:e9:c2:96:ff:57:0b:b6:76:5a:d7:cc:8e:59:17:c3:77:5c:
        27:fd:ed:b0:f7:18:2e:8e:09:a2:c8:72:b7:05:c8:6d:73:6d:
        ee:c0:33:cc:24:66:e1:76:12:80:05:eb:f0:a2:70:6e:3d:68:
        90:15:63:1d:27:30:6d:dc:a4:10:35:1d:9a:13:8e:95:17:01:
        39:7c:8a:04:04:6d:f6:b7:81:15:87:e6:32:06:53:71:76:0c:
        c2:dc:28:ba:dd:4d:4a:76:e7:24:bd:78:d5:c9:48:64:40:e8:
        bc:10:44:a9:96:c2:17:2f:7a:2b:0b:5e:df:bf:9f:d8:b1:f7:
        8b:27:98:35:c1:85:8f:b1:ef:75:74:4e:14:96:2f:f5:a3:01:
        e9:35:4e:05:ea:0c:61:38:33:10:e1:d9:fb:89:77:c5:da:95:
        3a:02:9c:db:a6:b6:ba:d7:16:43:ce:ba:74:2c:3d:dd:8e:45:
        51:01:52:79:73:3f:1c:2b:4a:52:44:1f:d7:e4:7a:cf:b3:1a:
        91:90:2b:2d:68:0a:d2:de:c5:37:33:18:96:ef:2c:b4:67:d0:
        88:d5:27:32:88:91:d2:75:58:28:a2:70:db:1e:2d:5a:54:37:
        d1:36:0c:6c:40:07:7a:a7:c1:a2:5b:27:9b:c5:fc:f1:2f:da:
        6d:63:8b:7f:10:2d:45:bc:be:a6:f5:e5:5c:e8:e5:ac:7b:ff:
        0a:cd:83:06:2a:cc:4a:05:37:00:cf:2d:d4:42:b6:af:b6:b8:
        dc:bc:c5:28:8d:b7:e4:42:f1:0e:0f:2e:4c:bb:73:5e:6b:df:
        9d:5e:c0:4d:31:44:1c:a9:42:db:da:db:39:78:fb:29:9e:f2:
        92:45:31:1b:55:72:83:9b:f7:4e:3b:84:37:19:b9:30:f9:79:
        be:3c:30:53:de:83
-----BEGIN CERTIFICATE-----
MIIFlzCCA8qgAwIBAgIBATBCBgkqhkiG9w0BAQowNaAPMA0GCWCGSAFlAwQCAgUA
oRwwGgYJKoZIhvcNAQEIMA0GCWCGSAFlAwQCAgUAogQCAgFOMIGdMQswCQYDVQQG
EwJVUzEQMA4GA1UECAwHTW9udGFuYTEQMA4GA1UEBwwHQm96ZW1hbjEYMBYGA1UE
CgwPd29sZlNTTF9SU0EtUFNTMRUwEwYDVQQLDAxSb290LVJTQS1QU1MxGDAWBgNV
BAMMD3d3dy53b2xmc3NsLmNvbTEfMB0GCSqGSIb3DQEJARYQaW5mb0B3b2xmc3Ns
LmNvbTAeFw0yMzA5MjYxNzIyNDNaFw0yNjA2MjIxNzIyNDNaMIGyMQswCQYDVQQG
EwJVUzEQMA4GA1UECAwHTW9udGFuYTEQMA4GA1UEBwwHQm96ZW1hbjEXMBUGA1UE
CgwOd29sZlNTTF9SU0FQU1MxEjAQBgNVBAsMCUNBLVJTQVBTUzEYMBYGA1UEAwwP
d3d3LndvbGZzc2wuY29tMR8wHQYJKoZIhvcNAQkBFhBpbmZvQHdvbGZzc2wuY29t
MRcwFQYKCZImiZPyLGQBAQwHd29sZlNTTDCCAaAwCwYJKoZIhvcNAQEKA4IBjwAw
ggGKAoIBgQDIKkDI6658GDPLOFHmt3sRT83qNYdk2bLKz0shxIYqx6NvFT4exJsD
gUs6XVNiEeII35dNNz14YlBAMSpwRBptaUn8d7jyQgmGml05zYR7Moo7sE+/PdQF
fsCqKKXOsSg6WdkZEDrUH5EHB3NQpCvYGB8i+PRkPxOg2GB+U0w7l3C8NuW+MZdF
Ve2iW4e1G45lPbcVCNESGqrsTlY1cKc+UGX3PjCcMtuyJHuHAiknEjWtjsMCIhPC
blNF8BYhgeXVtZFgi9dcu8JwBvZQQUU2f0FEibaXI75213xyf+r0GRAXw9+PzZcg
BMsdA2sJj9d7hH0ixeIQy8wRqqH1ZoUONVqMw4lhKdBcUy8JS5F+zuAS087ryVA8
NvCmtPu1wt5hoKxvvH7vUwifsRitW+MBI94RpR991bb0ch1TdWaM22Ee6es880lp
grYgaykDob5V5Ez4Jaeoo+M/Mh+upyqba1bdyVqxGgGgE9KOmizbfv1bDi7vkmnO
8t7v0C8JDmcCAwEAAaNjMGEwHQYDVR0OBBYEFPhCzIjJyBj507AkZQZM/1Wrvw5/
MB8GA1UdIwQYMBaAFKpx07GKS7tHFUdfm9AradFvhV72MA8GA1UdEwEB/wQFMAMB
Af8wDgYDVR0PAQH/BAQDAgGGMEIGCSqGSIb3DQEBCjA1oA8wDQYJYIZIAWUDBAIC
BQChHDAaBgkqhkiG9w0BAQgwDQYJYIZIAWUDBAICBQCiBAICAU4DggGBAAwNb1+v
72j0NE7M+9GCAMykuc2mE7fFgTTftnpGG73pVh/Aii3pwpb/Vwu2dlrXzI5ZF8N3
XCf97bD3GC6OCaLIcrcFyG1zbe7AM8wkZuF2EoAF6/CicG49aJAVYx0nMG3cpBA1
HZoTjpUXATl8igQEbfa3gRWH5jIGU3F2DMLcKLrdTUp25yS9eNXJSGRA6LwQRKmW
whcveisLXt+/n9ix94snmDXBhY+x73V0ThSWL/WjAek1TgXqDGE4MxDh2fuJd8Xa
lToCnNumtrrXFkPOunQsPd2ORVEBUnlzPxwrSlJEH9fkes+zGpGQKy1oCtLexTcz
GJbvLLRn0IjVJzKIkdJ1WCiicNseLVpUN9E2DGxAB3qnwaJbJ5vF/PEv2m1ji38Q
LUW8vqb15Vzo5ax7/wrNgwYqzEoFNwDPLdRCtq+2uNy8xSiNt+RC8Q4PLky7c15r
351ewE0xRBypQtva2zl4+yme8pJFMRtVcoOb9047hDcZuTD5eb48MFPegw==
-----END CERTIFICATE-----
