Certificate:
    Data:
        Version: 3 (0x2)
        Serial Number: 1 (0x1)
        Signature Algorithm: rsassaPss        
        Hash Algorithm: sha384
        Mask Algorithm: mgf1 with sha384
         Salt Length: 0x30
        Trailer Field: 0x01 (default)
        Issuer: C=US, ST=Montana, L=Bozeman, O=wolfSSL_RSA-PSS, OU=Root-RSA-PSS, CN=www.wolfssl.com, emailAddress=info@wolfssl.com
        Validity
            Not Before: Nov 13 20:41:19 2025 GMT
            Not After : Aug  9 20:41:19 2028 GMT
        Subject: C=US, ST=Montana, L=Bozeman, O=wolfSSL_RSAPSS, OU=CA-RSAPSS, CN=www.wolfssl.com, emailAddress=info@wolfssl.com, UID=wolfSSL
        Subject Public Key Info:
            Public Key Algorithm: rsassaPss
                Public-Key: (3072 bit)
                Modulus:
                    00:c8:2a:40:c8:eb:ae:7c:18:33:cb:38:51:e6:b7:
                    7b:11:4f:cd:ea:35:87:64:d9:b2:ca:cf:4b:21:c4:
                    86:2a:c7:a3:6f:15:3e:1e:c4:9b:03:81:4b:3a:5d:
                    53:62:11:e2:08:df:97:4d:37:3d:78:62:50:40:31:
                    2a:70:44:1a:6d:69:49:fc:77:b8:f2:42:09:86:9a:
                    5d:39:cd:84:7b:32:8a:3b:b0:4f:bf:3d:d4:05:7e:
                    c0:aa:28:a5:ce:b1:28:3a:59:d9:19:10:3a:d4:1f:
                    91:07:07:73:50:a4:2b:d8:18:1f:22:f8:f4:64:3f:
                    13:a0:d8:60:7e:53:4c:3b:97:70:bc:36:e5:be:31:
                    97:45:55:ed:a2:5b:87:b5:1b:8e:65:3d:b7:15:08:
                    d1:12:1a:aa:ec:4e:56:35:70:a7:3e:50:65:f7:3e:
                    30:9c:32:db:b2:24:7b:87:02:29:27:12:35:ad:8e:
                    c3:02:22:13:c2:6e:53:45:f0:16:21:81:e5:d5:b5:
                    91:60:8b:d7:5c:bb:c2:70:06:f6:50:41:45:36:7f:
                    41:44:89:b6:97:23:be:76:d7:7c:72:7f:ea:f4:19:
                    10:17:c3:df:8f:cd:97:20:04:cb:1d:03:6b:09:8f:
                    d7:7b:84:7d:22:c5:e2:10:cb:cc:11:aa:a1:f5:66:
                    85:0e:35:5a:8c:c3:89:61:29:d0:5c:53:2f:09:4b:
                    91:7e:ce:e0:12:d3:ce:eb:c9:50:3c:36:f0:a6:b4:
                    fb:b5:c2:de:61:a0:ac:6f:bc:7e:ef:53:08:9f:b1:
                    18:ad:5b:e3:01:23:de:11:a5:1f:7d:d5:b6:f4:72:
                    1d:53:75:66:8c:db:61:1e:e9:eb:3c:f3:49:69:82:
                    b6:20:6b:29:03:a1:be:55:e4:4c:f8:25:a7:a8:a3:
                    e3:3f:32:1f:ae:a7:2a:9b:6b:56:dd:c9:5a:b1:1a:
                    01:a0:13:d2:8e:9a:2c:db:7e:fd:5b:0e:2e:ef:92:
                    69:ce:f2:de:ef:d0:2f:09:0e:67
                Exponent: 65537 (0x10001)
                No PSS parameter restrictions
        X509v3 extensions:
            X509v3 Subject Key Identifier: 
                F8:42:CC:88:C9:C8:18:F9:D3:B0:24:65:06:4C:FF:55:AB:BF:0E:7F
            X509v3 Authority Key Identifier: 
                AA:71:D3:B1:8A:4B:BB:47:15:47:5F:9B:D0:2B:69:D1:6F:85:5E:F6
            X509v3 Basic Constraints: critical
                CA:TRUE
            X509v3 Key Usage: critical
                Digital Signature, Certificate Sign, CRL Sign
    Signature Algorithm: rsassaPss
    Signature Value:        
        Hash Algorithm: sha384
        Mask Algorithm: mgf1 with sha384
         Salt Length: 0x30
        Trailer Field: 0x01 (default)
        48:d6:71:a8:56:c7:79:14:f9:77:aa:a7:5c:c7:6e:a8:61:10:
        55:97:52:d3:ca:91:59:30:d0:e6:81:f4:7e:d4:95:88:f2:85:
        9d:64:cd:fc:72:42:41:30:c3:d0:ef:d2:1e:a5:42:58:1f:4c:
        50:4a:2f:30:48:18:a1:28:4e:de:96:dc:9e:15:77:2b:f2:87:
        fd:13:6d:2a:82:bf:6b:61:37:37:79:48:5c:68:5e:91:2b:f9:
        e9:e5:e5:7a:91:55:f8:29:3f:af:8f:db:a1:35:17:d7:ff:e0:
        d2:9a:31:83:b0:79:c4:86:eb:b9:fb:f3:45:11:bc:44:d0:e2:
        75:81:5d:76:3b:72:cd:a4:b5:41:24:41:70:2c:9c:7f:fa:f8:
        80:e9:fd:ac:1d:0e:3d:d3:90:4d:aa:7f:de:54:f4:94:10:e5:
        6d:16:10:11:2c:1e:d9:8e:28:9d:ec:03:08:db:74:c0:9d:61:
        a0:44:35:86:6d:2e:56:91:19:aa:8b:53:3c:5b:01:25:5b:a0:
        ec:10:50:56:f4:a7:c1:1a:59:92:1d:a1:86:2a:21:52:c7:22:
        9b:5b:63:92:5e:f0:47:a7:e5:13:72:1a:98:7b:7a:f8:7e:6c:
        fc:45:e6:7b:e9:8c:41:c4:ff:c2:2a:3a:f4:ce:35:bc:38:ec:
        9e:df:1c:d6:8d:01:f9:cd:cc:9b:69:4a:86:d1:af:ef:6e:79:
        78:ac:bb:e1:d0:b7:c3:18:7a:1a:6b:a1:5e:48:9b:f5:44:d7:
        25:05:5f:5c:c5:8e:58:7e:da:ad:8f:ea:9f:18:5d:77:62:bf:
        6e:ab:da:6c:bf:35:49:04:c2:8e:d4:99:16:80:60:6d:bf:28:
        04:5c:c3:0c:36:5c:f5:b7:28:7a:3b:02:20:91:a4:6b:94:85:
        ab:76:1d:9c:42:17:86:13:d3:5d:60:a8:7a:d8:28:b7:34:83:
        b6:2a:a5:ae:22:c0:69:4f:0e:a9:59:8b:19:29:6d:20:cd:87:
        a0:31:c7:42:23:43
-----BEGIN CERTIFICATE-----
MIIFlTCCA8mgAwIBAgIBATBBBgkqhkiG9w0BAQowNKAPMA0GCWCGSAFlAwQCAgUA
oRwwGgYJKoZIhvcNAQEIMA0GCWCGSAFlAwQCAgUAogMCATAwgZ0xCzAJBgNVBAYT
AlVTMRAwDgYDVQQIDAdNb250YW5hMRAwDgYDVQQHDAdCb3plbWFuMRgwFgYDVQQK
DA93b2xmU1NMX1JTQS1QU1MxFTATBgNVBAsMDFJvb3QtUlNBLVBTUzEYMBYGA1UE
AwwPd3d3LndvbGZzc2wuY29tMR8wHQYJKoZIhvcNAQkBFhBpbmZvQHdvbGZzc2wu
Y29tMB4XDTI1MTExMzIwNDExOVoXDTI4MDgwOTIwNDExOVowgbIxCzAJBgNVBAYT
AlVTMRAwDgYDVQQIDAdNb250YW5hMRAwDgYDVQQHDAdCb3plbWFuMRcwFQYDVQQK
DA53b2xmU1NMX1JTQVBTUzESMBAGA1UECwwJQ0EtUlNBUFNTMRgwFgYDVQQDDA93
d3cud29sZnNzbC5jb20xHzAdBgkqhkiG9w0BCQEWEGluZm9Ad29sZnNzbC5jb20x
FzAVBgoJkiaJk/IsZAEBDAd3b2xmU1NMMIIBoDALBgkqhkiG9w0BAQoDggGPADCC
AYoCggGBAMgqQMjrrnwYM8s4Uea3exFPzeo1h2TZssrPSyHEhirHo28VPh7EmwOB
SzpdU2IR4gjfl003PXhiUEAxKnBEGm1pSfx3uPJCCYaaXTnNhHsyijuwT7891AV+
wKoopc6xKDpZ2RkQOtQfkQcHc1CkK9gYHyL49GQ/E6DYYH5TTDuXcLw25b4xl0VV
7aJbh7UbjmU9txUI0RIaquxOVjVwpz5QZfc+MJwy27Ike4cCKScSNa2OwwIiE8Ju
U0XwFiGB5dW1kWCL11y7wnAG9lBBRTZ/QUSJtpcjvnbXfHJ/6vQZEBfD34/NlyAE
yx0DawmP13uEfSLF4hDLzBGqofVmhQ41WozDiWEp0FxTLwlLkX7O4BLTzuvJUDw2
8Ka0+7XC3mGgrG+8fu9TCJ+xGK1b4wEj3hGlH33VtvRyHVN1ZozbYR7p6zzzSWmC
tiBrKQOhvlXkTPglp6ij4z8yH66nKptrVt3JWrEaAaAT0o6aLNt+/VsOLu+Sac7y
3u/QLwkOZwIDAQABo2MwYTAdBgNVHQ4EFgQU+ELMiMnIGPnTsCRlBkz/Vau/Dn8w
HwYDVR0jBBgwFoAUqnHTsYpLu0cVR1+b0Ctp0W+FXvYwDwYDVR0TAQH/BAUwAwEB
/zAOBgNVHQ8BAf8EBAMCAYYwQQYJKoZIhvcNAQEKMDSgDzANBglghkgBZQMEAgIF
AKEcMBoGCSqGSIb3DQEBCDANBglghkgBZQMEAgIFAKIDAgEwA4IBgQBI1nGoVsd5
FPl3qqdcx26oYRBVl1LTypFZMNDmgfR+1JWI8oWdZM38ckJBMMPQ79IepUJYH0xQ
Si8wSBihKE7eltyeFXcr8of9E20qgr9rYTc3eUhcaF6RK/np5eV6kVX4KT+vj9uh
NRfX/+DSmjGDsHnEhuu5+/NFEbxE0OJ1gV12O3LNpLVBJEFwLJx/+viA6f2sHQ49
05BNqn/eVPSUEOVtFhARLB7Zjiid7AMI23TAnWGgRDWGbS5WkRmqi1M8WwElW6Ds
EFBW9KfBGlmSHaGGKiFSxyKbW2OSXvBHp+UTchqYe3r4fmz8ReZ76YxBxP/CKjr0
zjW8OOye3xzWjQH5zcybaUqG0a/vbnl4rLvh0LfDGHoaa6FeSJv1RNclBV9cxY5Y
ftqtj+qfGF13Yr9uq9psvzVJBMKO1JkWgGBtvygEXMMMNlz1tyh6OwIgkaRrlIWr
dh2cQheGE9NdYKh62Ci3NIO2KqWuIsBpTw6pWYsZKW0gzYegMcdCI0M=
-----END CERTIFICATE-----
