Certificate:
    Data:
        Version: 3 (0x2)
        Serial Number: 1 (0x1)
        Signature Algorithm: rsassaPss         
         Hash Algorithm: sha256
         Mask Algorithm: mgf1 with sha256
          Salt Length: 0x20
         Trailer Field: 0xBC (default)
        Issuer: C = US, ST = Montana, L = Bozeman, O = wolfSSL_RSA-PSS, OU = Root-RSA-PSS, CN = www.wolfssl.com, emailAddress = info@wolfssl.com
        Validity
            Not Before: Dec 13 22:19:28 2023 GMT
            Not After : Sep  8 22:19:28 2026 GMT
        Subject: C = US, ST = Montana, L = Bozeman, O = wolfSSL_RSAPSS, OU = CA-RSAPSS, CN = www.wolfssl.com, emailAddress = info@wolfssl.com, UID = wolfSSL
        Subject Public Key Info:
            Public Key Algorithm: rsassaPss
                RSA-PSS Public-Key: (2048 bit)
                Modulus:
                    00:d6:0e:c7:50:4d:29:f5:a8:a2:d4:29:5b:58:f2:
                    bc:2d:27:de:88:49:1a:84:19:2b:84:8d:94:d1:78:
                    12:d6:7b:14:d8:d2:82:24:95:ab:fe:4f:55:fb:e0:
                    55:fc:39:37:7b:41:80:b4:98:6f:7f:c5:b7:3e:37:
                    f8:5f:1d:2f:12:31:88:f9:8b:3b:00:85:e6:36:a5:
                    17:3f:9a:a4:be:48:ff:7a:36:22:2c:23:d4:9f:5b:
                    52:d1:17:d1:c1:f2:69:19:d8:32:c5:f7:79:ec:83:
                    19:87:e3:13:a0:43:5e:b1:e9:03:ed:b4:08:cd:7b:
                    14:68:0f:25:4f:90:f0:04:a7:bb:08:89:08:dc:76:
                    4e:70:49:04:41:4d:bf:b7:7f:77:79:6a:ef:68:4b:
                    62:97:8e:33:91:32:2a:e3:63:15:47:f6:61:a4:26:
                    db:02:04:b6:57:c0:a7:f0:aa:ec:20:72:91:c3:32:
                    ab:98:7f:84:c6:e8:5f:d6:e0:1a:d2:24:b1:c7:50:
                    bb:73:87:de:2a:c3:e2:c4:60:32:b8:e4:5a:5b:b5:
                    e4:29:8c:8b:28:6b:bb:1a:dc:3c:fe:b9:ef:9e:89:
                    28:60:ba:a4:40:66:d5:bb:e0:62:7f:a7:2b:e1:0f:
                    38:e6:33:ea:b2:10:0e:14:c8:3f:87:9f:ff:8b:28:
                    cc:1d
                Exponent: 65537 (0x10001)
                PSS parameter restrictions:
                  Hash Algorithm: sha256
                  Mask Algorithm: mgf1 with sha256
                  Minimum Salt Length: 0x20
                  Trailer Field: 0xBC (default)
        X509v3 extensions:
            X509v3 Subject Key Identifier: 
                9E:0C:E0:D3:DF:B6:4B:F3:19:63:5C:CA:6C:93:86:A2:14:53:91:31
            X509v3 Authority Key Identifier: 
                keyid:64:D5:EC:82:87:80:DE:5A:ED:49:98:D8:0C:54:7D:46:9E:A5:3C:D6

            X509v3 Basic Constraints: critical
                CA:TRUE
            X509v3 Key Usage: critical
                Digital Signature, Certificate Sign, CRL Sign
    Signature Algorithm: rsassaPss         
         Hash Algorithm: sha256
         Mask Algorithm: mgf1 with sha256
          Salt Length: 0x20
         Trailer Field: 0xBC (default)

         6c:79:0e:40:30:74:f6:02:08:61:df:c0:89:25:10:30:ea:e4:
         e9:14:c8:c6:47:01:55:a4:f2:ed:ee:3f:55:da:62:39:04:cb:
         3d:a1:78:56:76:30:fd:14:ea:b3:d8:21:99:c6:ca:ed:9f:18:
         7d:15:4d:d2:cf:db:c3:a1:b4:56:0d:04:b1:72:9c:68:81:1f:
         01:02:b8:8f:d6:d8:ed:47:3a:72:f2:e0:a5:9b:7b:50:75:00:
         a4:ab:23:62:48:1f:bc:f4:50:86:ef:06:b3:f8:8b:6e:e0:39:
         d1:8c:3b:8f:1f:ef:c5:ff:8c:2d:b2:1b:5d:82:32:b1:81:92:
         02:7c:c9:ad:16:86:63:6c:95:41:ed:80:70:96:41:13:11:03:
         9a:c1:41:d4:ca:e0:fd:7f:2d:d9:5b:60:d6:42:fe:aa:ac:73:
         4e:6d:26:67:03:ec:53:e9:97:2f:73:3a:f5:c4:ba:cf:dc:db:
         6c:f0:79:80:b1:52:f4:bf:12:c9:a7:ce:b1:2f:8d:6a:6a:a8:
         9e:27:e9:d1:55:26:6b:20:8c:1f:90:57:6d:5e:dc:9e:ca:4c:
         76:fc:35:76:dc:5a:06:90:50:88:7e:ad:9f:58:e3:39:10:e3:
         64:19:9f:ea:fb:86:04:84:79:d6:20:ac:c8:45:8b:03:8c:eb:
         b6:d4:e7:e4
-----BEGIN CERTIFICATE-----
MIIEvzCCA3egAwIBAgIBATA9BgkqhkiG9w0BAQowMKANMAsGCWCGSAFlAwQCAaEa
MBgGCSqGSIb3DQEBCDALBglghkgBZQMEAgGiAwIBIDCBnTELMAkGA1UEBhMCVVMx
EDAOBgNVBAgMB01vbnRhbmExEDAOBgNVBAcMB0JvemVtYW4xGDAWBgNVBAoMD3dv
bGZTU0xfUlNBLVBTUzEVMBMGA1UECwwMUm9vdC1SU0EtUFNTMRgwFgYDVQQDDA93
d3cud29sZnNzbC5jb20xHzAdBgkqhkiG9w0BCQEWEGluZm9Ad29sZnNzbC5jb20w
HhcNMjMxMjEzMjIxOTI4WhcNMjYwOTA4MjIxOTI4WjCBsjELMAkGA1UEBhMCVVMx
EDAOBgNVBAgMB01vbnRhbmExEDAOBgNVBAcMB0JvemVtYW4xFzAVBgNVBAoMDndv
bGZTU0xfUlNBUFNTMRIwEAYDVQQLDAlDQS1SU0FQU1MxGDAWBgNVBAMMD3d3dy53
b2xmc3NsLmNvbTEfMB0GCSqGSIb3DQEJARYQaW5mb0B3b2xmc3NsLmNvbTEXMBUG
CgmSJomT8ixkAQEMB3dvbGZTU0wwggFSMD0GCSqGSIb3DQEBCjAwoA0wCwYJYIZI
AWUDBAIBoRowGAYJKoZIhvcNAQEIMAsGCWCGSAFlAwQCAaIDAgEgA4IBDwAwggEK
AoIBAQDWDsdQTSn1qKLUKVtY8rwtJ96ISRqEGSuEjZTReBLWexTY0oIklav+T1X7
4FX8OTd7QYC0mG9/xbc+N/hfHS8SMYj5izsAheY2pRc/mqS+SP96NiIsI9SfW1LR
F9HB8mkZ2DLF93nsgxmH4xOgQ16x6QPttAjNexRoDyVPkPAEp7sIiQjcdk5wSQRB
Tb+3f3d5au9oS2KXjjORMirjYxVH9mGkJtsCBLZXwKfwquwgcpHDMquYf4TG6F/W
4BrSJLHHULtzh94qw+LEYDK45FpbteQpjIsoa7sa3Dz+ue+eiShguqRAZtW74GJ/
pyvhDzjmM+qyEA4UyD+Hn/+LKMwdAgMBAAGjYzBhMB0GA1UdDgQWBBSeDODT37ZL
8xljXMpsk4aiFFORMTAfBgNVHSMEGDAWgBRk1eyCh4DeWu1JmNgMVH1GnqU81jAP
BgNVHRMBAf8EBTADAQH/MA4GA1UdDwEB/wQEAwIBhjA9BgkqhkiG9w0BAQowMKAN
MAsGCWCGSAFlAwQCAaEaMBgGCSqGSIb3DQEBCDALBglghkgBZQMEAgGiAwIBIAOC
AQEAbHkOQDB09gIIYd/AiSUQMOrk6RTIxkcBVaTy7e4/VdpiOQTLPaF4VnYw/RTq
s9ghmcbK7Z8YfRVN0s/bw6G0Vg0EsXKcaIEfAQK4j9bY7Uc6cvLgpZt7UHUApKsj
YkgfvPRQhu8Gs/iLbuA50Yw7jx/vxf+MLbIbXYIysYGSAnzJrRaGY2yVQe2AcJZB
ExEDmsFB1Mrg/X8t2Vtg1kL+qqxzTm0mZwPsU+mXL3M69cS6z9zbbPB5gLFS9L8S
yafOsS+Namqonifp0VUmayCMH5BXbV7cnspMdvw1dtxaBpBQiH6tn1jjORDjZBmf
6vuGBIR51iCsyEWLA4zrttTn5A==
-----END CERTIFICATE-----
