Certificate:
    Data:
        Version: 3 (0x2)
        Serial Number: 1 (0x1)
        Signature Algorithm: rsassaPss        
        Hash Algorithm: sha256
        Mask Algorithm: mgf1 with sha256
         Salt Length: 0x20
        Trailer Field: 0x01 (default)
        Issuer: C = US, ST = Montana, L = Bozeman, O = wolfSSL_RSA-PSS, OU = Root-RSA-PSS, CN = www.wolfssl.com, emailAddress = info@wolfssl.com
        Validity
            Not Before: Dec 18 21:25:30 2024 GMT
            Not After : Sep 14 21:25:30 2027 GMT
        Subject: C = US, ST = Montana, L = Bozeman, O = wolfSSL_RSAPSS, OU = CA-RSAPSS, CN = www.wolfssl.com, emailAddress = info@wolfssl.com, UID = wolfSSL
        Subject Public Key Info:
            Public Key Algorithm: rsassaPss
                Public-Key: (2048 bit)
                Modulus:
                    00:d6:0e:c7:50:4d:29:f5:a8:a2:d4:29:5b:58:f2:
                    bc:2d:27:de:88:49:1a:84:19:2b:84:8d:94:d1:78:
                    12:d6:7b:14:d8:d2:82:24:95:ab:fe:4f:55:fb:e0:
                    55:fc:39:37:7b:41:80:b4:98:6f:7f:c5:b7:3e:37:
                    f8:5f:1d:2f:12:31:88:f9:8b:3b:00:85:e6:36:a5:
                    17:3f:9a:a4:be:48:ff:7a:36:22:2c:23:d4:9f:5b:
                    52:d1:17:d1:c1:f2:69:19:d8:32:c5:f7:79:ec:83:
                    19:87:e3:13:a0:43:5e:b1:e9:03:ed:b4:08:cd:7b:
                    14:68:0f:25:4f:90:f0:04:a7:bb:08:89:08:dc:76:
                    4e:70:49:04:41:4d:bf:b7:7f:77:79:6a:ef:68:4b:
                    62:97:8e:33:91:32:2a:e3:63:15:47:f6:61:a4:26:
                    db:02:04:b6:57:c0:a7:f0:aa:ec:20:72:91:c3:32:
                    ab:98:7f:84:c6:e8:5f:d6:e0:1a:d2:24:b1:c7:50:
                    bb:73:87:de:2a:c3:e2:c4:60:32:b8:e4:5a:5b:b5:
                    e4:29:8c:8b:28:6b:bb:1a:dc:3c:fe:b9:ef:9e:89:
                    28:60:ba:a4:40:66:d5:bb:e0:62:7f:a7:2b:e1:0f:
                    38:e6:33:ea:b2:10:0e:14:c8:3f:87:9f:ff:8b:28:
                    cc:1d
                Exponent: 65537 (0x10001)
                PSS parameter restrictions:
                  Hash Algorithm: SHA2-256
                  Mask Algorithm: MGF1 with SHA2-256
                  Minimum Salt Length: 32
                  Trailer Field: 0x1 (default)
        X509v3 extensions:
            X509v3 Subject Key Identifier: 
                9E:0C:E0:D3:DF:B6:4B:F3:19:63:5C:CA:6C:93:86:A2:14:53:91:31
            X509v3 Authority Key Identifier: 
                64:D5:EC:82:87:80:DE:5A:ED:49:98:D8:0C:54:7D:46:9E:A5:3C:D6
            X509v3 Basic Constraints: critical
                CA:TRUE
            X509v3 Key Usage: critical
                Digital Signature, Certificate Sign, CRL Sign
    Signature Algorithm: rsassaPss
    Signature Value:        
        Hash Algorithm: sha256
        Mask Algorithm: mgf1 with sha256
         Salt Length: 0x20
        Trailer Field: 0x01 (default)
        78:31:94:fd:94:b9:31:68:97:cc:3b:60:8e:1b:4b:0b:c6:1b:
        d4:64:d9:dd:ef:81:f2:fd:a0:18:a5:f4:92:47:07:84:55:f7:
        f0:1d:25:45:15:cb:df:df:9c:d2:5a:db:f2:e9:1a:8e:98:5b:
        7c:73:ea:13:3d:02:c2:89:06:50:3e:dd:4e:79:3a:86:1d:cc:
        7c:04:09:d7:ed:53:86:d7:8a:2a:11:0a:84:14:da:47:d4:92:
        0a:7f:e7:86:b9:08:a7:7c:da:e4:97:d7:04:25:22:98:0e:e7:
        72:05:39:ac:57:18:22:76:26:13:8b:29:4d:b8:38:a4:17:8b:
        fb:2e:bf:61:7a:34:94:09:f0:3f:1d:4a:61:75:ab:b8:31:42:
        37:b2:47:a0:d9:cf:23:9f:da:61:e2:bf:39:dd:0d:e4:bf:b9:
        ba:7d:22:ca:f0:53:ad:71:95:4f:1c:05:86:b9:30:63:b9:80:
        20:0e:e3:4d:32:e0:e8:33:3e:64:27:f5:ae:f5:07:f1:a8:68:
        3a:49:12:e5:b0:38:bc:d1:96:d2:de:60:02:eb:79:ca:2c:e8:
        f2:39:09:91:6b:9a:a2:13:b9:01:c5:7f:36:dc:a3:e7:86:b4:
        72:23:a7:38:26:2b:9a:6e:3c:99:69:f1:8e:cc:68:10:14:50:
        a2:e9:2b:b1
-----BEGIN CERTIFICATE-----
MIIEyzCCA3+gAwIBAgIBATBBBgkqhkiG9w0BAQowNKAPMA0GCWCGSAFlAwQCAQUA
oRwwGgYJKoZIhvcNAQEIMA0GCWCGSAFlAwQCAQUAogMCASAwgZ0xCzAJBgNVBAYT
AlVTMRAwDgYDVQQIDAdNb250YW5hMRAwDgYDVQQHDAdCb3plbWFuMRgwFgYDVQQK
DA93b2xmU1NMX1JTQS1QU1MxFTATBgNVBAsMDFJvb3QtUlNBLVBTUzEYMBYGA1UE
AwwPd3d3LndvbGZzc2wuY29tMR8wHQYJKoZIhvcNAQkBFhBpbmZvQHdvbGZzc2wu
Y29tMB4XDTI0MTIxODIxMjUzMFoXDTI3MDkxNDIxMjUzMFowgbIxCzAJBgNVBAYT
AlVTMRAwDgYDVQQIDAdNb250YW5hMRAwDgYDVQQHDAdCb3plbWFuMRcwFQYDVQQK
DA53b2xmU1NMX1JTQVBTUzESMBAGA1UECwwJQ0EtUlNBUFNTMRgwFgYDVQQDDA93
d3cud29sZnNzbC5jb20xHzAdBgkqhkiG9w0BCQEWEGluZm9Ad29sZnNzbC5jb20x
FzAVBgoJkiaJk/IsZAEBDAd3b2xmU1NMMIIBVjBBBgkqhkiG9w0BAQowNKAPMA0G
CWCGSAFlAwQCAQUAoRwwGgYJKoZIhvcNAQEIMA0GCWCGSAFlAwQCAQUAogMCASAD
ggEPADCCAQoCggEBANYOx1BNKfWootQpW1jyvC0n3ohJGoQZK4SNlNF4EtZ7FNjS
giSVq/5PVfvgVfw5N3tBgLSYb3/Ftz43+F8dLxIxiPmLOwCF5jalFz+apL5I/3o2
Iiwj1J9bUtEX0cHyaRnYMsX3eeyDGYfjE6BDXrHpA+20CM17FGgPJU+Q8ASnuwiJ
CNx2TnBJBEFNv7d/d3lq72hLYpeOM5EyKuNjFUf2YaQm2wIEtlfAp/Cq7CBykcMy
q5h/hMboX9bgGtIkscdQu3OH3irD4sRgMrjkWlu15CmMiyhruxrcPP65756JKGC6
pEBm1bvgYn+nK+EPOOYz6rIQDhTIP4ef/4sozB0CAwEAAaNjMGEwHQYDVR0OBBYE
FJ4M4NPftkvzGWNcymyThqIUU5ExMB8GA1UdIwQYMBaAFGTV7IKHgN5a7UmY2AxU
fUaepTzWMA8GA1UdEwEB/wQFMAMBAf8wDgYDVR0PAQH/BAQDAgGGMEEGCSqGSIb3
DQEBCjA0oA8wDQYJYIZIAWUDBAIBBQChHDAaBgkqhkiG9w0BAQgwDQYJYIZIAWUD
BAIBBQCiAwIBIAOCAQEAeDGU/ZS5MWiXzDtgjhtLC8Yb1GTZ3e+B8v2gGKX0kkcH
hFX38B0lRRXL39+c0lrb8ukajphbfHPqEz0CwokGUD7dTnk6hh3MfAQJ1+1ThteK
KhEKhBTaR9SSCn/nhrkIp3za5JfXBCUimA7ncgU5rFcYInYmE4spTbg4pBeL+y6/
YXo0lAnwPx1KYXWruDFCN7JHoNnPI5/aYeK/Od0N5L+5un0iyvBTrXGVTxwFhrkw
Y7mAIA7jTTLg6DM+ZCf1rvUH8ahoOkkS5bA4vNGW0t5gAut5yizo8jkJkWuaohO5
AcV/Ntyj54a0ciOnOCYrmm48mWnxjsxoEBRQoukrsQ==
-----END CERTIFICATE-----
