Certificate:
    Data:
        Version: 3 (0x2)
        Serial Number: 1 (0x1)
        Signature Algorithm: rsassaPss        
        Hash Algorithm: sha256
        Mask Algorithm: mgf1 with sha256
         Salt Length: 0x20
        Trailer Field: 0x01 (default)
        Issuer: C=US, ST=Montana, L=Bozeman, O=wolfSSL_RSA-PSS, OU=Root-RSA-PSS, CN=www.wolfssl.com, emailAddress=facts@wolfssl.com
        Validity
            Not Before: Jun 11 21:44:30 2026 GMT
            Not After : Mar  7 21:44:30 2029 GMT
        Subject: C=US, ST=Montana, L=Bozeman, O=wolfSSL_RSAPSS, OU=CA-RSAPSS, CN=www.wolfssl.com, emailAddress=facts@wolfssl.com, UID=wolfSSL
        Subject Public Key Info:
            Public Key Algorithm: rsassaPss
                Public-Key: (2048 bit)
                Modulus:
                    00:d6:0e:c7:50:4d:29:f5:a8:a2:d4:29:5b:58:f2:
                    bc:2d:27:de:88:49:1a:84:19:2b:84:8d:94:d1:78:
                    12:d6:7b:14:d8:d2:82:24:95:ab:fe:4f:55:fb:e0:
                    55:fc:39:37:7b:41:80:b4:98:6f:7f:c5:b7:3e:37:
                    f8:5f:1d:2f:12:31:88:f9:8b:3b:00:85:e6:36:a5:
                    17:3f:9a:a4:be:48:ff:7a:36:22:2c:23:d4:9f:5b:
                    52:d1:17:d1:c1:f2:69:19:d8:32:c5:f7:79:ec:83:
                    19:87:e3:13:a0:43:5e:b1:e9:03:ed:b4:08:cd:7b:
                    14:68:0f:25:4f:90:f0:04:a7:bb:08:89:08:dc:76:
                    4e:70:49:04:41:4d:bf:b7:7f:77:79:6a:ef:68:4b:
                    62:97:8e:33:91:32:2a:e3:63:15:47:f6:61:a4:26:
                    db:02:04:b6:57:c0:a7:f0:aa:ec:20:72:91:c3:32:
                    ab:98:7f:84:c6:e8:5f:d6:e0:1a:d2:24:b1:c7:50:
                    bb:73:87:de:2a:c3:e2:c4:60:32:b8:e4:5a:5b:b5:
                    e4:29:8c:8b:28:6b:bb:1a:dc:3c:fe:b9:ef:9e:89:
                    28:60:ba:a4:40:66:d5:bb:e0:62:7f:a7:2b:e1:0f:
                    38:e6:33:ea:b2:10:0e:14:c8:3f:87:9f:ff:8b:28:
                    cc:1d
                Exponent: 65537 (0x10001)
                PSS parameter restrictions:
                  Hash Algorithm: SHA2-256
                  Mask Algorithm: MGF1 with SHA2-256
                  Minimum Salt Length: 32
                  Trailer Field: 0x1 (default)
        X509v3 extensions:
            X509v3 Subject Key Identifier: 
                9E:0C:E0:D3:DF:B6:4B:F3:19:63:5C:CA:6C:93:86:A2:14:53:91:31
            X509v3 Authority Key Identifier: 
                64:D5:EC:82:87:80:DE:5A:ED:49:98:D8:0C:54:7D:46:9E:A5:3C:D6
            X509v3 Basic Constraints: critical
                CA:TRUE
            X509v3 Key Usage: critical
                Digital Signature, Certificate Sign, CRL Sign
    Signature Algorithm: rsassaPss
    Signature Value:        
        Hash Algorithm: sha256
        Mask Algorithm: mgf1 with sha256
         Salt Length: 0x20
        Trailer Field: 0x01 (default)
        2b:4a:4c:8f:fb:ef:cf:8c:31:14:9c:27:6a:cc:14:8d:9f:b2:
        ff:d7:6f:1d:d8:ac:6f:1a:06:04:74:0b:8d:c8:37:3a:7f:e0:
        7d:40:c7:5d:5d:81:bc:6e:7f:a4:a0:ac:04:eb:61:09:38:2d:
        0e:8e:bd:94:75:5e:96:5f:2a:64:01:b1:2b:6a:10:c0:f1:15:
        85:79:b0:56:78:f9:b7:e9:05:20:ca:e3:f7:90:f0:73:f7:03:
        ba:73:1d:e5:0b:b1:7f:d1:e0:d9:f8:44:6d:bf:73:84:2d:d5:
        e7:ce:f0:f8:0c:92:16:08:22:b5:21:26:5c:10:6f:63:39:8f:
        6e:d9:c4:20:b2:2a:74:77:1f:b1:cd:06:fd:aa:31:e8:95:19:
        95:44:15:47:6e:cc:29:34:27:d0:93:64:d3:74:f5:a5:ac:e2:
        92:a3:b5:cc:96:d6:b5:61:85:c9:15:4b:70:4d:19:51:93:99:
        b3:01:46:d7:17:04:12:27:d3:4e:00:f2:9d:d9:8a:44:34:c9:
        4c:7e:ad:47:d0:93:6a:c9:f7:e1:19:dd:95:a8:e7:2d:bd:58:
        a7:40:6a:8f:1f:4c:f3:82:7b:ad:70:8a:42:5b:14:8d:0c:21:
        e5:12:34:4e:cd:12:30:15:e4:eb:35:4f:38:4d:82:19:c7:54:
        38:ea:af:fb
-----BEGIN CERTIFICATE-----
MIIEzTCCA4GgAwIBAgIBATBBBgkqhkiG9w0BAQowNKAPMA0GCWCGSAFlAwQCAQUA
oRwwGgYJKoZIhvcNAQEIMA0GCWCGSAFlAwQCAQUAogMCASAwgZ4xCzAJBgNVBAYT
AlVTMRAwDgYDVQQIDAdNb250YW5hMRAwDgYDVQQHDAdCb3plbWFuMRgwFgYDVQQK
DA93b2xmU1NMX1JTQS1QU1MxFTATBgNVBAsMDFJvb3QtUlNBLVBTUzEYMBYGA1UE
AwwPd3d3LndvbGZzc2wuY29tMSAwHgYJKoZIhvcNAQkBFhFmYWN0c0B3b2xmc3Ns
LmNvbTAeFw0yNjA2MTEyMTQ0MzBaFw0yOTAzMDcyMTQ0MzBaMIGzMQswCQYDVQQG
EwJVUzEQMA4GA1UECAwHTW9udGFuYTEQMA4GA1UEBwwHQm96ZW1hbjEXMBUGA1UE
CgwOd29sZlNTTF9SU0FQU1MxEjAQBgNVBAsMCUNBLVJTQVBTUzEYMBYGA1UEAwwP
d3d3LndvbGZzc2wuY29tMSAwHgYJKoZIhvcNAQkBFhFmYWN0c0B3b2xmc3NsLmNv
bTEXMBUGCgmSJomT8ixkAQEMB3dvbGZTU0wwggFWMEEGCSqGSIb3DQEBCjA0oA8w
DQYJYIZIAWUDBAIBBQChHDAaBgkqhkiG9w0BAQgwDQYJYIZIAWUDBAIBBQCiAwIB
IAOCAQ8AMIIBCgKCAQEA1g7HUE0p9aii1ClbWPK8LSfeiEkahBkrhI2U0XgS1nsU
2NKCJJWr/k9V++BV/Dk3e0GAtJhvf8W3Pjf4Xx0vEjGI+Ys7AIXmNqUXP5qkvkj/
ejYiLCPUn1tS0RfRwfJpGdgyxfd57IMZh+MToENesekD7bQIzXsUaA8lT5DwBKe7
CIkI3HZOcEkEQU2/t393eWrvaEtil44zkTIq42MVR/ZhpCbbAgS2V8Cn8KrsIHKR
wzKrmH+Exuhf1uAa0iSxx1C7c4feKsPixGAyuORaW7XkKYyLKGu7Gtw8/rnvnoko
YLqkQGbVu+Bif6cr4Q845jPqshAOFMg/h5//iyjMHQIDAQABo2MwYTAdBgNVHQ4E
FgQUngzg09+2S/MZY1zKbJOGohRTkTEwHwYDVR0jBBgwFoAUZNXsgoeA3lrtSZjY
DFR9Rp6lPNYwDwYDVR0TAQH/BAUwAwEB/zAOBgNVHQ8BAf8EBAMCAYYwQQYJKoZI
hvcNAQEKMDSgDzANBglghkgBZQMEAgEFAKEcMBoGCSqGSIb3DQEBCDANBglghkgB
ZQMEAgEFAKIDAgEgA4IBAQArSkyP++/PjDEUnCdqzBSNn7L/128d2KxvGgYEdAuN
yDc6f+B9QMddXYG8bn+koKwE62EJOC0Ojr2UdV6WXypkAbErahDA8RWFebBWePm3
6QUgyuP3kPBz9wO6cx3lC7F/0eDZ+ERtv3OELdXnzvD4DJIWCCK1ISZcEG9jOY9u
2cQgsip0dx+xzQb9qjHolRmVRBVHbswpNCfQk2TTdPWlrOKSo7XMlta1YYXJFUtw
TRlRk5mzAUbXFwQSJ9NOAPKd2YpENMlMfq1H0JNqyffhGd2VqOctvVinQGqPH0zz
gnutcIpCWxSNDCHlEjROzRIwFeTrNU84TYIZx1Q46q/7
-----END CERTIFICATE-----
