Certificate:
    Data:
        Version: 3 (0x2)
        Serial Number: 1 (0x1)
        Signature Algorithm: rsassaPss         
         Hash Algorithm: sha256
         Mask Algorithm: mgf1 with sha256
          Salt Length: 0x20
         Trailer Field: 0xBC (default)
        Issuer: C = US, ST = Montana, L = Bozeman, O = wolfSSL_RSA-PSS, OU = Root-RSA-PSS, CN = www.wolfssl.com, emailAddress = info@wolfssl.com
        Validity
            Not Before: Jul 25 02:27:55 2022 GMT
            Not After : Apr 20 02:27:55 2025 GMT
        Subject: C = US, ST = Montana, L = Bozeman, O = wolfSSL_RSAPSS, OU = CA-RSAPSS, CN = www.wolfssl.com, emailAddress = info@wolfssl.com, UID = wolfSSL
        Subject Public Key Info:
            Public Key Algorithm: rsassaPss
                RSA-PSS Public-Key: (2048 bit)
                Modulus:
                    00:d6:0e:c7:50:4d:29:f5:a8:a2:d4:29:5b:58:f2:
                    bc:2d:27:de:88:49:1a:84:19:2b:84:8d:94:d1:78:
                    12:d6:7b:14:d8:d2:82:24:95:ab:fe:4f:55:fb:e0:
                    55:fc:39:37:7b:41:80:b4:98:6f:7f:c5:b7:3e:37:
                    f8:5f:1d:2f:12:31:88:f9:8b:3b:00:85:e6:36:a5:
                    17:3f:9a:a4:be:48:ff:7a:36:22:2c:23:d4:9f:5b:
                    52:d1:17:d1:c1:f2:69:19:d8:32:c5:f7:79:ec:83:
                    19:87:e3:13:a0:43:5e:b1:e9:03:ed:b4:08:cd:7b:
                    14:68:0f:25:4f:90:f0:04:a7:bb:08:89:08:dc:76:
                    4e:70:49:04:41:4d:bf:b7:7f:77:79:6a:ef:68:4b:
                    62:97:8e:33:91:32:2a:e3:63:15:47:f6:61:a4:26:
                    db:02:04:b6:57:c0:a7:f0:aa:ec:20:72:91:c3:32:
                    ab:98:7f:84:c6:e8:5f:d6:e0:1a:d2:24:b1:c7:50:
                    bb:73:87:de:2a:c3:e2:c4:60:32:b8:e4:5a:5b:b5:
                    e4:29:8c:8b:28:6b:bb:1a:dc:3c:fe:b9:ef:9e:89:
                    28:60:ba:a4:40:66:d5:bb:e0:62:7f:a7:2b:e1:0f:
                    38:e6:33:ea:b2:10:0e:14:c8:3f:87:9f:ff:8b:28:
                    cc:1d
                Exponent: 65537 (0x10001)
                PSS parameter restrictions:
                  Hash Algorithm: sha256
                  Mask Algorithm: mgf1 with sha256
                  Minimum Salt Length: 0x20
                  Trailer Field: 0xBC (default)
        X509v3 extensions:
            X509v3 Subject Key Identifier: 
                9E:0C:E0:D3:DF:B6:4B:F3:19:63:5C:CA:6C:93:86:A2:14:53:91:31
            X509v3 Authority Key Identifier: 
                keyid:64:D5:EC:82:87:80:DE:5A:ED:49:98:D8:0C:54:7D:46:9E:A5:3C:D6

            X509v3 Basic Constraints: critical
                CA:TRUE
            X509v3 Key Usage: critical
                Digital Signature, Certificate Sign, CRL Sign
    Signature Algorithm: rsassaPss         
         Hash Algorithm: sha256
         Mask Algorithm: mgf1 with sha256
          Salt Length: 0x20
         Trailer Field: 0xBC (default)

         32:66:7b:22:4b:80:fc:7a:81:5a:11:1d:1b:d8:a6:26:a9:38:
         6f:f8:c5:cb:80:47:0c:08:cc:12:a4:7a:17:8e:d6:a5:a8:cb:
         df:ea:b7:77:b4:df:e5:92:ba:7f:9b:a2:71:0d:7d:7a:36:29:
         bd:03:7b:52:65:0d:79:ae:c3:ac:e8:a4:75:c6:28:c0:05:33:
         51:f4:85:37:0e:9c:03:dc:51:3d:5d:55:88:17:da:b5:c5:b1:
         91:a5:a9:40:91:07:a3:0c:17:75:f9:fa:52:43:94:21:40:24:
         8c:31:f3:4a:5e:96:86:20:9b:37:87:a4:56:ac:4f:ac:e6:a6:
         0c:05:cc:62:b2:0a:62:63:04:5f:dc:52:46:db:12:5e:16:2b:
         62:00:fa:30:5f:04:33:28:0c:a6:6c:49:cb:35:ad:f4:d5:57:
         cb:16:7c:f4:8c:99:22:e4:e1:f4:97:e4:df:b2:1f:62:8f:50:
         2e:43:aa:cf:c7:86:ae:da:7f:b7:eb:16:cb:28:c2:bc:80:7b:
         f2:7f:16:60:88:0e:49:aa:d3:2a:92:54:38:a4:09:be:79:e1:
         1d:6f:b1:95:0c:02:f9:e7:f4:4b:b8:44:4a:e2:db:02:08:b3:
         e6:79:d5:d0:bd:34:8f:cc:8e:19:28:48:07:7b:d0:b2:31:ba:
         db:e2:e0:3f
-----BEGIN CERTIFICATE-----
MIIEvzCCA3egAwIBAgIBATA9BgkqhkiG9w0BAQowMKANMAsGCWCGSAFlAwQCAaEa
MBgGCSqGSIb3DQEBCDALBglghkgBZQMEAgGiAwIBIDCBnTELMAkGA1UEBhMCVVMx
EDAOBgNVBAgMB01vbnRhbmExEDAOBgNVBAcMB0JvemVtYW4xGDAWBgNVBAoMD3dv
bGZTU0xfUlNBLVBTUzEVMBMGA1UECwwMUm9vdC1SU0EtUFNTMRgwFgYDVQQDDA93
d3cud29sZnNzbC5jb20xHzAdBgkqhkiG9w0BCQEWEGluZm9Ad29sZnNzbC5jb20w
HhcNMjIwNzI1MDIyNzU1WhcNMjUwNDIwMDIyNzU1WjCBsjELMAkGA1UEBhMCVVMx
EDAOBgNVBAgMB01vbnRhbmExEDAOBgNVBAcMB0JvemVtYW4xFzAVBgNVBAoMDndv
bGZTU0xfUlNBUFNTMRIwEAYDVQQLDAlDQS1SU0FQU1MxGDAWBgNVBAMMD3d3dy53
b2xmc3NsLmNvbTEfMB0GCSqGSIb3DQEJARYQaW5mb0B3b2xmc3NsLmNvbTEXMBUG
CgmSJomT8ixkAQEMB3dvbGZTU0wwggFSMD0GCSqGSIb3DQEBCjAwoA0wCwYJYIZI
AWUDBAIBoRowGAYJKoZIhvcNAQEIMAsGCWCGSAFlAwQCAaIDAgEgA4IBDwAwggEK
AoIBAQDWDsdQTSn1qKLUKVtY8rwtJ96ISRqEGSuEjZTReBLWexTY0oIklav+T1X7
4FX8OTd7QYC0mG9/xbc+N/hfHS8SMYj5izsAheY2pRc/mqS+SP96NiIsI9SfW1LR
F9HB8mkZ2DLF93nsgxmH4xOgQ16x6QPttAjNexRoDyVPkPAEp7sIiQjcdk5wSQRB
Tb+3f3d5au9oS2KXjjORMirjYxVH9mGkJtsCBLZXwKfwquwgcpHDMquYf4TG6F/W
4BrSJLHHULtzh94qw+LEYDK45FpbteQpjIsoa7sa3Dz+ue+eiShguqRAZtW74GJ/
pyvhDzjmM+qyEA4UyD+Hn/+LKMwdAgMBAAGjYzBhMB0GA1UdDgQWBBSeDODT37ZL
8xljXMpsk4aiFFORMTAfBgNVHSMEGDAWgBRk1eyCh4DeWu1JmNgMVH1GnqU81jAP
BgNVHRMBAf8EBTADAQH/MA4GA1UdDwEB/wQEAwIBhjA9BgkqhkiG9w0BAQowMKAN
MAsGCWCGSAFlAwQCAaEaMBgGCSqGSIb3DQEBCDALBglghkgBZQMEAgGiAwIBIAOC
AQEAMmZ7IkuA/HqBWhEdG9imJqk4b/jFy4BHDAjMEqR6F47WpajL3+q3d7Tf5ZK6
f5uicQ19ejYpvQN7UmUNea7DrOikdcYowAUzUfSFNw6cA9xRPV1ViBfatcWxkaWp
QJEHowwXdfn6UkOUIUAkjDHzSl6WhiCbN4ekVqxPrOamDAXMYrIKYmMEX9xSRtsS
XhYrYgD6MF8EMygMpmxJyzWt9NVXyxZ89IyZIuTh9Jfk37IfYo9QLkOqz8eGrtp/
t+sWyyjCvIB78n8WYIgOSarTKpJUOKQJvnnhHW+xlQwC+ef0S7hESuLbAgiz5nnV
0L00j8yOGShIB3vQsjG62+LgPw==
-----END CERTIFICATE-----
