Certificate:
    Data:
        Version: 3 (0x2)
        Serial Number: 1 (0x1)
        Signature Algorithm: rsassaPss        
        Hash Algorithm: sha256
        Mask Algorithm: mgf1 with sha256
         Salt Length: 0x20
        Trailer Field: 0x01 (default)
        Issuer: C = US, ST = Montana, L = Bozeman, O = wolfSSL_RSA-PSS, OU = Root-RSA-PSS, CN = www.wolfssl.com, emailAddress = info@wolfssl.com
        Validity
            Not Before: Sep 26 17:22:42 2023 GMT
            Not After : Jun 22 17:22:42 2026 GMT
        Subject: C = US, ST = Montana, L = Bozeman, O = wolfSSL_RSAPSS, OU = CA-RSAPSS, CN = www.wolfssl.com, emailAddress = info@wolfssl.com, UID = wolfSSL
        Subject Public Key Info:
            Public Key Algorithm: rsassaPss
                Public-Key: (2048 bit)
                Modulus:
                    00:d6:0e:c7:50:4d:29:f5:a8:a2:d4:29:5b:58:f2:
                    bc:2d:27:de:88:49:1a:84:19:2b:84:8d:94:d1:78:
                    12:d6:7b:14:d8:d2:82:24:95:ab:fe:4f:55:fb:e0:
                    55:fc:39:37:7b:41:80:b4:98:6f:7f:c5:b7:3e:37:
                    f8:5f:1d:2f:12:31:88:f9:8b:3b:00:85:e6:36:a5:
                    17:3f:9a:a4:be:48:ff:7a:36:22:2c:23:d4:9f:5b:
                    52:d1:17:d1:c1:f2:69:19:d8:32:c5:f7:79:ec:83:
                    19:87:e3:13:a0:43:5e:b1:e9:03:ed:b4:08:cd:7b:
                    14:68:0f:25:4f:90:f0:04:a7:bb:08:89:08:dc:76:
                    4e:70:49:04:41:4d:bf:b7:7f:77:79:6a:ef:68:4b:
                    62:97:8e:33:91:32:2a:e3:63:15:47:f6:61:a4:26:
                    db:02:04:b6:57:c0:a7:f0:aa:ec:20:72:91:c3:32:
                    ab:98:7f:84:c6:e8:5f:d6:e0:1a:d2:24:b1:c7:50:
                    bb:73:87:de:2a:c3:e2:c4:60:32:b8:e4:5a:5b:b5:
                    e4:29:8c:8b:28:6b:bb:1a:dc:3c:fe:b9:ef:9e:89:
                    28:60:ba:a4:40:66:d5:bb:e0:62:7f:a7:2b:e1:0f:
                    38:e6:33:ea:b2:10:0e:14:c8:3f:87:9f:ff:8b:28:
                    cc:1d
                Exponent: 65537 (0x10001)
                PSS parameter restrictions:
                  Hash Algorithm: SHA2-256
                  Mask Algorithm: MGF1 with SHA2-256
                  Minimum Salt Length: 32
                  Trailer Field: 0x1 (default)
        X509v3 extensions:
            X509v3 Subject Key Identifier: 
                9E:0C:E0:D3:DF:B6:4B:F3:19:63:5C:CA:6C:93:86:A2:14:53:91:31
            X509v3 Authority Key Identifier: 
                64:D5:EC:82:87:80:DE:5A:ED:49:98:D8:0C:54:7D:46:9E:A5:3C:D6
            X509v3 Basic Constraints: critical
                CA:TRUE
            X509v3 Key Usage: critical
                Digital Signature, Certificate Sign, CRL Sign
    Signature Algorithm: rsassaPss
    Signature Value:        
        Hash Algorithm: sha256
        Mask Algorithm: mgf1 with sha256
         Salt Length: 0x20
        Trailer Field: 0x01 (default)
        60:aa:28:a2:07:7a:89:a8:8f:6f:cf:bc:72:ba:ae:e5:97:37:
        ee:9b:dc:df:3a:77:ac:fa:13:83:6c:2f:37:1d:4d:92:92:6b:
        8c:dd:a9:42:c2:3c:21:79:0b:34:38:fc:0b:ef:cb:a3:7a:50:
        e3:b3:88:ae:61:e0:01:1f:ba:e1:13:f8:7b:b9:a0:6a:10:31:
        65:77:6a:79:ec:29:39:a3:e7:70:37:cd:7d:aa:d8:64:09:fb:
        3d:2a:58:b9:8b:69:8a:b3:48:e0:85:d6:fb:fd:ed:66:cb:d7:
        a6:86:13:8c:43:1e:cd:51:08:28:4b:8b:b2:2d:a0:50:ea:69:
        92:13:66:17:78:34:ec:93:bc:1e:d9:00:32:15:03:3f:2a:ae:
        32:03:cc:85:7d:d9:d5:3f:dc:8d:a1:54:fa:5e:54:99:42:31:
        78:bb:eb:89:63:49:e6:24:6c:d1:5c:96:e3:62:d6:af:5e:5f:
        b0:a8:4a:0f:4a:92:b5:f8:55:a3:74:e9:1c:42:2c:35:ce:0a:
        b0:74:52:64:6c:99:db:8f:77:70:b2:80:d8:fc:eb:06:da:55:
        95:1c:62:fb:ee:8a:bf:52:ba:60:44:4b:5f:7b:70:fa:3a:67:
        65:da:ee:26:a5:62:9d:30:82:4a:27:da:92:73:e9:80:af:61:
        f4:3b:b7:c9
-----BEGIN CERTIFICATE-----
MIIEyzCCA3+gAwIBAgIBATBBBgkqhkiG9w0BAQowNKAPMA0GCWCGSAFlAwQCAQUA
oRwwGgYJKoZIhvcNAQEIMA0GCWCGSAFlAwQCAQUAogMCASAwgZ0xCzAJBgNVBAYT
AlVTMRAwDgYDVQQIDAdNb250YW5hMRAwDgYDVQQHDAdCb3plbWFuMRgwFgYDVQQK
DA93b2xmU1NMX1JTQS1QU1MxFTATBgNVBAsMDFJvb3QtUlNBLVBTUzEYMBYGA1UE
AwwPd3d3LndvbGZzc2wuY29tMR8wHQYJKoZIhvcNAQkBFhBpbmZvQHdvbGZzc2wu
Y29tMB4XDTIzMDkyNjE3MjI0MloXDTI2MDYyMjE3MjI0MlowgbIxCzAJBgNVBAYT
AlVTMRAwDgYDVQQIDAdNb250YW5hMRAwDgYDVQQHDAdCb3plbWFuMRcwFQYDVQQK
DA53b2xmU1NMX1JTQVBTUzESMBAGA1UECwwJQ0EtUlNBUFNTMRgwFgYDVQQDDA93
d3cud29sZnNzbC5jb20xHzAdBgkqhkiG9w0BCQEWEGluZm9Ad29sZnNzbC5jb20x
FzAVBgoJkiaJk/IsZAEBDAd3b2xmU1NMMIIBVjBBBgkqhkiG9w0BAQowNKAPMA0G
CWCGSAFlAwQCAQUAoRwwGgYJKoZIhvcNAQEIMA0GCWCGSAFlAwQCAQUAogMCASAD
ggEPADCCAQoCggEBANYOx1BNKfWootQpW1jyvC0n3ohJGoQZK4SNlNF4EtZ7FNjS
giSVq/5PVfvgVfw5N3tBgLSYb3/Ftz43+F8dLxIxiPmLOwCF5jalFz+apL5I/3o2
Iiwj1J9bUtEX0cHyaRnYMsX3eeyDGYfjE6BDXrHpA+20CM17FGgPJU+Q8ASnuwiJ
CNx2TnBJBEFNv7d/d3lq72hLYpeOM5EyKuNjFUf2YaQm2wIEtlfAp/Cq7CBykcMy
q5h/hMboX9bgGtIkscdQu3OH3irD4sRgMrjkWlu15CmMiyhruxrcPP65756JKGC6
pEBm1bvgYn+nK+EPOOYz6rIQDhTIP4ef/4sozB0CAwEAAaNjMGEwHQYDVR0OBBYE
FJ4M4NPftkvzGWNcymyThqIUU5ExMB8GA1UdIwQYMBaAFGTV7IKHgN5a7UmY2AxU
fUaepTzWMA8GA1UdEwEB/wQFMAMBAf8wDgYDVR0PAQH/BAQDAgGGMEEGCSqGSIb3
DQEBCjA0oA8wDQYJYIZIAWUDBAIBBQChHDAaBgkqhkiG9w0BAQgwDQYJYIZIAWUD
BAIBBQCiAwIBIAOCAQEAYKooogd6iaiPb8+8crqu5Zc37pvc3zp3rPoTg2wvNx1N
kpJrjN2pQsI8IXkLNDj8C+/Lo3pQ47OIrmHgAR+64RP4e7mgahAxZXdqeewpOaPn
cDfNfarYZAn7PSpYuYtpirNI4IXW+/3tZsvXpoYTjEMezVEIKEuLsi2gUOppkhNm
F3g07JO8HtkAMhUDPyquMgPMhX3Z1T/cjaFU+l5UmUIxeLvriWNJ5iRs0VyW42LW
r15fsKhKD0qStfhVo3TpHEIsNc4KsHRSZGyZ2493cLKA2PzrBtpVlRxi++6Kv1K6
YERLX3tw+jpnZdruJqVinTCCSifaknPpgK9h9Du3yQ==
-----END CERTIFICATE-----
