Certificate:
    Data:
        Version: 3 (0x2)
        Serial Number:
            17:02:5c:f5:8c:08:e0:6b:d9:3d:14:8f:e9:32:2e:32:b7:d0:d1:2b
        Signature Algorithm: rsassaPss        
        Hash Algorithm: sha384
        Mask Algorithm: mgf1 with sha384
         Salt Length: 0x014E
        Trailer Field: 0x01 (default)
        Issuer: C = US, ST = Montana, L = Bozeman, O = wolfSSL_RSAPSS, OU = Client-RSAPSS, CN = www.wolfssl.com, emailAddress = info@wolfssl.com, UID = wolfSSL
        Validity
            Not Before: Dec 18 21:25:30 2024 GMT
            Not After : Sep 14 21:25:30 2027 GMT
        Subject: C = US, ST = Montana, L = Bozeman, O = wolfSSL_RSAPSS, OU = Client-RSAPSS, CN = www.wolfssl.com, emailAddress = info@wolfssl.com, UID = wolfSSL
        Subject Public Key Info:
            Public Key Algorithm: rsassaPss
                Public-Key: (3072 bit)
                Modulus:
                    00:bb:06:28:e4:7f:c9:41:76:be:26:c6:a9:ba:08:
                    e6:35:9c:33:a0:3c:5b:ab:95:23:d7:6b:61:d3:2e:
                    8b:8d:ed:1c:d9:57:ae:1a:69:e2:ce:65:88:2e:65:
                    0f:cb:f1:79:cb:2c:46:96:3e:3f:5b:59:e5:b7:b5:
                    b1:3c:7c:26:e4:56:21:51:5d:04:79:d9:7f:5c:71:
                    54:e9:1e:99:c1:f7:be:6c:0f:7b:ef:46:8d:40:0e:
                    a3:6b:ce:98:9b:6c:0d:6d:d3:24:9d:9e:e8:68:25:
                    9c:46:60:92:37:62:73:21:77:1a:bd:5c:f0:11:6d:
                    ee:b9:6f:b2:8e:36:54:3e:e1:72:6b:36:c9:88:48:
                    86:18:6c:f8:d7:b1:e0:e4:d7:0c:2a:15:cc:92:33:
                    84:bd:71:1a:07:70:aa:03:24:e1:ce:c2:28:b8:e3:
                    83:ff:ba:19:50:b7:ae:22:fd:fb:eb:70:70:b0:2d:
                    17:a0:3e:aa:85:50:43:62:24:5d:00:51:b8:11:fa:
                    d8:c6:06:40:07:bd:4a:b0:42:70:52:cf:17:95:b1:
                    53:fc:68:8d:13:be:a0:0e:c4:4b:cb:17:72:cd:cd:
                    0b:2e:ff:66:42:50:cc:76:7d:70:4e:7d:63:16:e5:
                    da:e1:fb:99:6c:1d:06:6c:ab:ee:d3:36:4e:c7:34:
                    5f:f7:d0:1e:50:fd:fe:41:39:29:5c:e1:c7:bf:c4:
                    50:36:75:8a:36:4d:09:6a:ca:2a:cc:1a:b7:0d:8b:
                    16:6d:48:07:39:61:f5:c8:07:5a:9c:bf:d2:a5:f1:
                    39:3b:7e:bf:62:31:93:ba:29:5a:c9:09:d7:00:30:
                    3e:d8:18:8c:9e:a7:28:75:49:aa:89:34:de:5a:14:
                    29:5d:fc:47:05:ab:6a:84:0f:57:2c:64:ab:3b:98:
                    b3:d6:48:ba:db:f1:03:d0:20:f7:9f:ef:7d:52:50:
                    28:e3:48:ed:29:3e:fe:ff:86:a3:64:3d:7f:29:a2:
                    a3:93:52:e5:6a:c3:a9:13:44:cf
                Exponent: 65537 (0x10001)
                No PSS parameter restrictions
        X509v3 extensions:
            X509v3 Subject Key Identifier: 
                8C:01:9F:4E:11:24:28:BF:3E:EA:82:EA:54:2A:C9:0F:F5:E4:C5:47
            X509v3 Authority Key Identifier: 
                keyid:8C:01:9F:4E:11:24:28:BF:3E:EA:82:EA:54:2A:C9:0F:F5:E4:C5:47
                DirName:/C=US/ST=Montana/L=Bozeman/O=wolfSSL_RSAPSS/OU=Client-RSAPSS/CN=www.wolfssl.com/emailAddress=info@wolfssl.com/UID=wolfSSL
                serial:17:02:5C:F5:8C:08:E0:6B:D9:3D:14:8F:E9:32:2E:32:B7:D0:D1:2B
            X509v3 Basic Constraints: 
                CA:TRUE
            X509v3 Subject Alternative Name: 
                DNS:example.com, IP Address:127.0.0.1
            X509v3 Extended Key Usage: 
                TLS Web Server Authentication, TLS Web Client Authentication
    Signature Algorithm: rsassaPss
    Signature Value:        
        Hash Algorithm: sha384
        Mask Algorithm: mgf1 with sha384
         Salt Length: 0x014E
        Trailer Field: 0x01 (default)
        19:1f:82:de:2e:f8:7c:ea:fa:2f:a4:9d:1c:31:46:2b:89:fb:
        b5:b8:e3:91:4a:0f:33:e6:f8:4d:a4:f3:83:a1:25:97:8b:49:
        a6:28:8f:6a:41:53:be:fc:ac:f2:08:72:d5:74:51:3f:36:af:
        73:f7:66:55:de:e6:68:96:a9:d1:20:55:d5:f5:25:b5:8e:c7:
        d5:73:e4:90:2c:7d:f3:d3:5b:a3:cf:43:37:ea:30:56:a2:7d:
        f4:e6:5a:d7:92:a3:b9:8e:46:09:e1:cc:eb:73:2e:3d:d1:1d:
        ef:7c:64:54:0a:6d:f3:3f:1f:77:d1:1f:a6:66:31:dd:28:bf:
        61:25:81:05:18:ab:8a:87:5a:d6:68:bf:f4:a1:44:e4:01:8e:
        84:66:cb:d8:cc:b8:b7:b3:50:fb:02:37:02:00:04:19:f5:80:
        72:2f:f4:9f:e9:30:b9:0d:62:fb:56:5e:d9:ec:47:f3:ee:12:
        31:9b:eb:a9:d1:2d:7d:40:31:3a:a0:ce:c7:84:c8:3d:3e:9a:
        a2:9b:22:5e:80:86:96:48:71:17:5e:ca:d2:95:3e:c6:cc:12:
        aa:16:ca:a7:e8:87:52:ea:e9:b0:6c:4c:c9:0b:26:7e:6c:8b:
        82:dc:09:5c:82:05:96:0f:99:82:07:58:e5:f0:85:10:c7:57:
        c6:e7:ad:49:fd:8d:5d:6b:48:92:4f:50:e4:d4:31:ef:f3:8b:
        9b:15:e0:de:5e:d3:0c:3f:96:19:3c:2f:f2:93:e8:03:0b:dd:
        a6:4d:0a:b5:fd:5c:af:df:4e:bc:e6:fc:90:8b:7a:31:9b:69:
        00:bc:11:02:49:4b:bb:2f:4d:d9:74:6f:4c:5a:0c:b7:54:e9:
        cd:97:50:7f:01:d4:16:8e:c7:8f:26:62:b5:6b:33:ef:b8:02:
        5b:39:00:4e:63:a7:47:11:4a:ed:43:de:d0:73:ed:92:fc:2e:
        6c:a4:80:56:c9:52:c2:05:0b:07:fe:63:f2:a0:68:4d:9c:b5:
        6e:1b:6e:df:b3:ee
-----BEGIN CERTIFICATE-----
MIIGzTCCBQCgAwIBAgIUFwJc9YwI4GvZPRSP6TIuMrfQ0SswQgYJKoZIhvcNAQEK
MDWgDzANBglghkgBZQMEAgIFAKEcMBoGCSqGSIb3DQEBCDANBglghkgBZQMEAgIF
AKIEAgIBTjCBtjELMAkGA1UEBhMCVVMxEDAOBgNVBAgMB01vbnRhbmExEDAOBgNV
BAcMB0JvemVtYW4xFzAVBgNVBAoMDndvbGZTU0xfUlNBUFNTMRYwFAYDVQQLDA1D
bGllbnQtUlNBUFNTMRgwFgYDVQQDDA93d3cud29sZnNzbC5jb20xHzAdBgkqhkiG
9w0BCQEWEGluZm9Ad29sZnNzbC5jb20xFzAVBgoJkiaJk/IsZAEBDAd3b2xmU1NM
MB4XDTI0MTIxODIxMjUzMFoXDTI3MDkxNDIxMjUzMFowgbYxCzAJBgNVBAYTAlVT
MRAwDgYDVQQIDAdNb250YW5hMRAwDgYDVQQHDAdCb3plbWFuMRcwFQYDVQQKDA53
b2xmU1NMX1JTQVBTUzEWMBQGA1UECwwNQ2xpZW50LVJTQVBTUzEYMBYGA1UEAwwP
d3d3LndvbGZzc2wuY29tMR8wHQYJKoZIhvcNAQkBFhBpbmZvQHdvbGZzc2wuY29t
MRcwFQYKCZImiZPyLGQBAQwHd29sZlNTTDCCAaAwCwYJKoZIhvcNAQEKA4IBjwAw
ggGKAoIBgQC7Bijkf8lBdr4mxqm6COY1nDOgPFurlSPXa2HTLouN7RzZV64aaeLO
ZYguZQ/L8XnLLEaWPj9bWeW3tbE8fCbkViFRXQR52X9ccVTpHpnB975sD3vvRo1A
DqNrzpibbA1t0ySdnuhoJZxGYJI3YnMhdxq9XPARbe65b7KONlQ+4XJrNsmISIYY
bPjXseDk1wwqFcySM4S9cRoHcKoDJOHOwii444P/uhlQt64i/fvrcHCwLRegPqqF
UENiJF0AUbgR+tjGBkAHvUqwQnBSzxeVsVP8aI0TvqAOxEvLF3LNzQsu/2ZCUMx2
fXBOfWMW5drh+5lsHQZsq+7TNk7HNF/30B5Q/f5BOSlc4ce/xFA2dYo2TQlqyirM
GrcNixZtSAc5YfXIB1qcv9Kl8Tk7fr9iMZO6KVrJCdcAMD7YGIyepyh1SaqJNN5a
FCld/EcFq2qED1csZKs7mLPWSLrb8QPQIPef731SUCjjSO0pPv7/hqNkPX8poqOT
UuVqw6kTRM8CAwEAAaOCAWcwggFjMB0GA1UdDgQWBBSMAZ9OESQovz7qgupUKskP
9eTFRzCB9gYDVR0jBIHuMIHrgBSMAZ9OESQovz7qgupUKskP9eTFR6GBvKSBuTCB
tjELMAkGA1UEBhMCVVMxEDAOBgNVBAgMB01vbnRhbmExEDAOBgNVBAcMB0JvemVt
YW4xFzAVBgNVBAoMDndvbGZTU0xfUlNBUFNTMRYwFAYDVQQLDA1DbGllbnQtUlNB
UFNTMRgwFgYDVQQDDA93d3cud29sZnNzbC5jb20xHzAdBgkqhkiG9w0BCQEWEGlu
Zm9Ad29sZnNzbC5jb20xFzAVBgoJkiaJk/IsZAEBDAd3b2xmU1NMghQXAlz1jAjg
a9k9FI/pMi4yt9DRKzAMBgNVHRMEBTADAQH/MBwGA1UdEQQVMBOCC2V4YW1wbGUu
Y29thwR/AAABMB0GA1UdJQQWMBQGCCsGAQUFBwMBBggrBgEFBQcDAjBCBgkqhkiG
9w0BAQowNaAPMA0GCWCGSAFlAwQCAgUAoRwwGgYJKoZIhvcNAQEIMA0GCWCGSAFl
AwQCAgUAogQCAgFOA4IBgQAZH4LeLvh86vovpJ0cMUYrifu1uOORSg8z5vhNpPOD
oSWXi0mmKI9qQVO+/KzyCHLVdFE/Nq9z92ZV3uZolqnRIFXV9SW1jsfVc+SQLH3z
01ujz0M36jBWon305lrXkqO5jkYJ4czrcy490R3vfGRUCm3zPx930R+mZjHdKL9h
JYEFGKuKh1rWaL/0oUTkAY6EZsvYzLi3s1D7AjcCAAQZ9YByL/Sf6TC5DWL7Vl7Z
7Efz7hIxm+up0S19QDE6oM7HhMg9PpqimyJegIaWSHEXXsrSlT7GzBKqFsqn6IdS
6umwbEzJCyZ+bIuC3AlcggWWD5mCB1jl8IUQx1fG561J/Y1da0iST1Dk1DHv84ub
FeDeXtMMP5YZPC/yk+gDC92mTQq1/Vyv30685vyQi3oxm2kAvBECSUu7L03ZdG9M
Wgy3VOnNl1B/AdQWjsePJmK1azPvuAJbOQBOY6dHEUrtQ97Qc+2S/C5spIBWyVLC
BQsH/mPyoGhNnLVuG27fs+4=
-----END CERTIFICATE-----
