Certificate:
    Data:
        Version: 3 (0x2)
        Serial Number:
            11:06:6c:78:58:57:5a:97:95:2a:a0:d8:b5:00:4d:e9:44:bf:49:95
        Signature Algorithm: rsassaPss        
        Hash Algorithm: sha384
        Mask Algorithm: mgf1 with sha384
         Salt Length: 0x014E
        Trailer Field: 0x01 (default)
        Issuer: C = US, ST = Montana, L = Bozeman, O = wolfSSL_RSAPSS, OU = Client-RSAPSS, CN = www.wolfssl.com, emailAddress = info@wolfssl.com, UID = wolfSSL
        Validity
            Not Before: Sep 26 17:22:43 2023 GMT
            Not After : Jun 22 17:22:43 2026 GMT
        Subject: C = US, ST = Montana, L = Bozeman, O = wolfSSL_RSAPSS, OU = Client-RSAPSS, CN = www.wolfssl.com, emailAddress = info@wolfssl.com, UID = wolfSSL
        Subject Public Key Info:
            Public Key Algorithm: rsassaPss
                Public-Key: (3072 bit)
                Modulus:
                    00:bb:06:28:e4:7f:c9:41:76:be:26:c6:a9:ba:08:
                    e6:35:9c:33:a0:3c:5b:ab:95:23:d7:6b:61:d3:2e:
                    8b:8d:ed:1c:d9:57:ae:1a:69:e2:ce:65:88:2e:65:
                    0f:cb:f1:79:cb:2c:46:96:3e:3f:5b:59:e5:b7:b5:
                    b1:3c:7c:26:e4:56:21:51:5d:04:79:d9:7f:5c:71:
                    54:e9:1e:99:c1:f7:be:6c:0f:7b:ef:46:8d:40:0e:
                    a3:6b:ce:98:9b:6c:0d:6d:d3:24:9d:9e:e8:68:25:
                    9c:46:60:92:37:62:73:21:77:1a:bd:5c:f0:11:6d:
                    ee:b9:6f:b2:8e:36:54:3e:e1:72:6b:36:c9:88:48:
                    86:18:6c:f8:d7:b1:e0:e4:d7:0c:2a:15:cc:92:33:
                    84:bd:71:1a:07:70:aa:03:24:e1:ce:c2:28:b8:e3:
                    83:ff:ba:19:50:b7:ae:22:fd:fb:eb:70:70:b0:2d:
                    17:a0:3e:aa:85:50:43:62:24:5d:00:51:b8:11:fa:
                    d8:c6:06:40:07:bd:4a:b0:42:70:52:cf:17:95:b1:
                    53:fc:68:8d:13:be:a0:0e:c4:4b:cb:17:72:cd:cd:
                    0b:2e:ff:66:42:50:cc:76:7d:70:4e:7d:63:16:e5:
                    da:e1:fb:99:6c:1d:06:6c:ab:ee:d3:36:4e:c7:34:
                    5f:f7:d0:1e:50:fd:fe:41:39:29:5c:e1:c7:bf:c4:
                    50:36:75:8a:36:4d:09:6a:ca:2a:cc:1a:b7:0d:8b:
                    16:6d:48:07:39:61:f5:c8:07:5a:9c:bf:d2:a5:f1:
                    39:3b:7e:bf:62:31:93:ba:29:5a:c9:09:d7:00:30:
                    3e:d8:18:8c:9e:a7:28:75:49:aa:89:34:de:5a:14:
                    29:5d:fc:47:05:ab:6a:84:0f:57:2c:64:ab:3b:98:
                    b3:d6:48:ba:db:f1:03:d0:20:f7:9f:ef:7d:52:50:
                    28:e3:48:ed:29:3e:fe:ff:86:a3:64:3d:7f:29:a2:
                    a3:93:52:e5:6a:c3:a9:13:44:cf
                Exponent: 65537 (0x10001)
                No PSS parameter restrictions
        X509v3 extensions:
            X509v3 Subject Key Identifier: 
                8C:01:9F:4E:11:24:28:BF:3E:EA:82:EA:54:2A:C9:0F:F5:E4:C5:47
            X509v3 Authority Key Identifier: 
                keyid:8C:01:9F:4E:11:24:28:BF:3E:EA:82:EA:54:2A:C9:0F:F5:E4:C5:47
                DirName:/C=US/ST=Montana/L=Bozeman/O=wolfSSL_RSAPSS/OU=Client-RSAPSS/CN=www.wolfssl.com/emailAddress=info@wolfssl.com/UID=wolfSSL
                serial:11:06:6C:78:58:57:5A:97:95:2A:A0:D8:B5:00:4D:E9:44:BF:49:95
            X509v3 Basic Constraints: 
                CA:TRUE
            X509v3 Subject Alternative Name: 
                DNS:example.com, IP Address:127.0.0.1
            X509v3 Extended Key Usage: 
                TLS Web Server Authentication, TLS Web Client Authentication
    Signature Algorithm: rsassaPss
    Signature Value:        
        Hash Algorithm: sha384
        Mask Algorithm: mgf1 with sha384
         Salt Length: 0x014E
        Trailer Field: 0x01 (default)
        52:1e:6e:66:7d:af:9d:31:02:1f:e9:e1:c5:7c:ee:ca:25:0f:
        27:df:66:3f:32:4c:59:37:8b:e5:e0:d2:04:6d:75:60:0e:9b:
        b3:a9:6c:da:65:ca:b9:b8:b9:13:98:ce:e4:9c:d5:fa:da:08:
        60:db:fe:0c:56:06:10:24:cf:bd:25:97:b7:ff:9d:c4:d7:42:
        a3:5f:8b:32:5e:f2:09:53:6d:fb:b1:c9:ca:8c:2e:33:16:34:
        75:bb:37:1a:34:fa:f1:6c:fc:84:78:ff:80:2b:0c:05:6f:57:
        8b:99:87:04:db:ac:02:c6:ed:c1:49:b6:c8:40:bf:9c:62:23:
        1f:a5:2e:0f:93:ce:9f:a7:9d:12:0e:f1:79:33:94:4b:59:81:
        b1:54:70:33:3c:0d:1a:3c:f6:8c:f1:8a:58:52:63:e3:4e:2f:
        f6:27:d8:4d:22:99:97:7d:b4:c2:40:fb:bf:d4:52:7b:ac:cc:
        a6:30:eb:fc:16:93:d5:6d:24:67:b0:6b:9f:10:7f:d3:c4:45:
        f0:9d:6a:ec:98:5a:8d:fb:2c:c4:41:c6:6d:ca:bd:10:e8:94:
        67:28:11:cf:d1:34:f4:17:c3:28:ac:7b:1f:7a:ae:d2:c9:f3:
        cb:e7:72:82:96:87:ac:76:f0:65:5a:4f:f1:7c:66:0f:f9:17:
        24:38:c2:d7:21:bf:64:46:eb:11:7e:80:d8:c0:97:be:a6:1d:
        ca:1b:84:9f:33:60:02:dd:8b:74:7c:80:4e:51:eb:62:c2:a9:
        5c:bc:b9:16:ef:3f:15:31:cc:70:da:0a:d8:bc:3e:3e:66:72:
        a6:e5:86:1a:13:ba:c1:1c:29:e4:15:24:ca:14:cc:f6:65:d3:
        97:e4:bf:2b:d8:4f:9e:af:7c:a4:fe:cf:56:0c:82:89:36:fb:
        26:48:82:a8:6d:45:e0:f5:9d:fb:fe:cd:aa:96:64:2d:8e:60:
        b1:8c:8d:8d:9e:d2:82:f8:f8:a5:c9:0a:b2:0a:57:98:7b:71:
        77:93:38:c8:fc:b2
-----BEGIN CERTIFICATE-----
MIIGzTCCBQCgAwIBAgIUEQZseFhXWpeVKqDYtQBN6US/SZUwQgYJKoZIhvcNAQEK
MDWgDzANBglghkgBZQMEAgIFAKEcMBoGCSqGSIb3DQEBCDANBglghkgBZQMEAgIF
AKIEAgIBTjCBtjELMAkGA1UEBhMCVVMxEDAOBgNVBAgMB01vbnRhbmExEDAOBgNV
BAcMB0JvemVtYW4xFzAVBgNVBAoMDndvbGZTU0xfUlNBUFNTMRYwFAYDVQQLDA1D
bGllbnQtUlNBUFNTMRgwFgYDVQQDDA93d3cud29sZnNzbC5jb20xHzAdBgkqhkiG
9w0BCQEWEGluZm9Ad29sZnNzbC5jb20xFzAVBgoJkiaJk/IsZAEBDAd3b2xmU1NM
MB4XDTIzMDkyNjE3MjI0M1oXDTI2MDYyMjE3MjI0M1owgbYxCzAJBgNVBAYTAlVT
MRAwDgYDVQQIDAdNb250YW5hMRAwDgYDVQQHDAdCb3plbWFuMRcwFQYDVQQKDA53
b2xmU1NMX1JTQVBTUzEWMBQGA1UECwwNQ2xpZW50LVJTQVBTUzEYMBYGA1UEAwwP
d3d3LndvbGZzc2wuY29tMR8wHQYJKoZIhvcNAQkBFhBpbmZvQHdvbGZzc2wuY29t
MRcwFQYKCZImiZPyLGQBAQwHd29sZlNTTDCCAaAwCwYJKoZIhvcNAQEKA4IBjwAw
ggGKAoIBgQC7Bijkf8lBdr4mxqm6COY1nDOgPFurlSPXa2HTLouN7RzZV64aaeLO
ZYguZQ/L8XnLLEaWPj9bWeW3tbE8fCbkViFRXQR52X9ccVTpHpnB975sD3vvRo1A
DqNrzpibbA1t0ySdnuhoJZxGYJI3YnMhdxq9XPARbe65b7KONlQ+4XJrNsmISIYY
bPjXseDk1wwqFcySM4S9cRoHcKoDJOHOwii444P/uhlQt64i/fvrcHCwLRegPqqF
UENiJF0AUbgR+tjGBkAHvUqwQnBSzxeVsVP8aI0TvqAOxEvLF3LNzQsu/2ZCUMx2
fXBOfWMW5drh+5lsHQZsq+7TNk7HNF/30B5Q/f5BOSlc4ce/xFA2dYo2TQlqyirM
GrcNixZtSAc5YfXIB1qcv9Kl8Tk7fr9iMZO6KVrJCdcAMD7YGIyepyh1SaqJNN5a
FCld/EcFq2qED1csZKs7mLPWSLrb8QPQIPef731SUCjjSO0pPv7/hqNkPX8poqOT
UuVqw6kTRM8CAwEAAaOCAWcwggFjMB0GA1UdDgQWBBSMAZ9OESQovz7qgupUKskP
9eTFRzCB9gYDVR0jBIHuMIHrgBSMAZ9OESQovz7qgupUKskP9eTFR6GBvKSBuTCB
tjELMAkGA1UEBhMCVVMxEDAOBgNVBAgMB01vbnRhbmExEDAOBgNVBAcMB0JvemVt
YW4xFzAVBgNVBAoMDndvbGZTU0xfUlNBUFNTMRYwFAYDVQQLDA1DbGllbnQtUlNB
UFNTMRgwFgYDVQQDDA93d3cud29sZnNzbC5jb20xHzAdBgkqhkiG9w0BCQEWEGlu
Zm9Ad29sZnNzbC5jb20xFzAVBgoJkiaJk/IsZAEBDAd3b2xmU1NMghQRBmx4WFda
l5UqoNi1AE3pRL9JlTAMBgNVHRMEBTADAQH/MBwGA1UdEQQVMBOCC2V4YW1wbGUu
Y29thwR/AAABMB0GA1UdJQQWMBQGCCsGAQUFBwMBBggrBgEFBQcDAjBCBgkqhkiG
9w0BAQowNaAPMA0GCWCGSAFlAwQCAgUAoRwwGgYJKoZIhvcNAQEIMA0GCWCGSAFl
AwQCAgUAogQCAgFOA4IBgQBSHm5mfa+dMQIf6eHFfO7KJQ8n32Y/MkxZN4vl4NIE
bXVgDpuzqWzaZcq5uLkTmM7knNX62ghg2/4MVgYQJM+9JZe3/53E10KjX4syXvIJ
U237scnKjC4zFjR1uzcaNPrxbPyEeP+AKwwFb1eLmYcE26wCxu3BSbbIQL+cYiMf
pS4Pk86fp50SDvF5M5RLWYGxVHAzPA0aPPaM8YpYUmPjTi/2J9hNIpmXfbTCQPu/
1FJ7rMymMOv8FpPVbSRnsGufEH/TxEXwnWrsmFqN+yzEQcZtyr0Q6JRnKBHP0TT0
F8MorHsfeq7SyfPL53KCloesdvBlWk/xfGYP+RckOMLXIb9kRusRfoDYwJe+ph3K
G4SfM2AC3Yt0fIBOUetiwqlcvLkW7z8VMcxw2grYvD4+ZnKm5YYaE7rBHCnkFSTK
FMz2ZdOX5L8r2E+er3yk/s9WDIKJNvsmSIKobUXg9Z37/s2qlmQtjmCxjI2NntKC
+PilyQqyCleYe3F3kzjI/LI=
-----END CERTIFICATE-----
