Certificate:
    Data:
        Version: 3 (0x2)
        Serial Number:
            37:58:ff:58:a9:ca:95:0e:04:64:0e:37:3b:f7:89:09:51:31:03:ac
        Signature Algorithm: rsassaPss         
         Hash Algorithm: sha256
         Mask Algorithm: mgf1 with sha256
          Salt Length: 0x20
         Trailer Field: 0xBC (default)
        Issuer: C = US, ST = Montana, L = Bozeman, O = wolfSSL_RSAPSS, OU = Client-RSAPSS, CN = www.wolfssl.com, emailAddress = info@wolfssl.com, UID = wolfSSL
        Validity
            Not Before: Jul 25 02:27:55 2022 GMT
            Not After : Apr 20 02:27:55 2025 GMT
        Subject: C = US, ST = Montana, L = Bozeman, O = wolfSSL_RSAPSS, OU = Client-RSAPSS, CN = www.wolfssl.com, emailAddress = info@wolfssl.com, UID = wolfSSL
        Subject Public Key Info:
            Public Key Algorithm: rsassaPss
                RSA-PSS Public-Key: (2048 bit)
                Modulus:
                    00:c6:87:be:60:87:43:7d:c4:ac:e4:fa:3c:12:1d:
                    c7:cf:ea:5c:c4:93:72:e2:0d:37:47:33:3d:e0:a5:
                    ec:57:16:bd:80:2a:5a:f9:a1:b7:ee:6d:46:7c:3a:
                    4e:24:e3:17:62:5a:38:97:0b:03:13:a5:7a:5e:11:
                    a1:50:fb:1b:6d:16:13:56:bb:77:0a:7b:98:cc:85:
                    11:d2:93:31:ed:74:01:38:3d:37:01:36:d6:52:c0:
                    27:fb:53:fb:ae:fd:56:bc:02:80:91:81:cc:ed:51:
                    46:16:7b:1d:8e:f3:06:48:83:28:11:4b:b8:a7:7b:
                    e8:92:8e:93:f4:8d:1d:fa:cc:7c:28:51:3d:21:98:
                    90:3f:80:2a:b9:dc:22:87:f0:8d:b9:a7:bb:cc:a4:
                    dd:25:ad:65:88:28:f1:1c:4f:dc:04:f2:5a:0f:52:
                    b6:35:84:52:18:d7:bf:de:e3:dc:f6:f0:3c:c9:db:
                    cd:b1:48:11:4b:ae:7c:1e:59:ac:b5:8c:ee:2e:83:
                    0f:f5:29:34:39:74:cb:9a:fa:a6:d3:63:d5:69:7a:
                    dc:f2:0d:43:46:03:10:a7:b0:9c:cd:15:b3:36:5e:
                    43:5e:05:4c:03:62:99:29:d0:57:05:e7:54:df:b0:
                    e5:71:39:37:f1:13:66:70:12:f3:87:98:09:8f:1f:
                    e1:e7
                Exponent: 65537 (0x10001)
                PSS parameter restrictions:
                  Hash Algorithm: sha256
                  Mask Algorithm: mgf1 with sha256
                  Minimum Salt Length: 0x20
                  Trailer Field: 0xBC (default)
        X509v3 extensions:
            X509v3 Subject Key Identifier: 
                59:71:87:88:D0:3E:C7:EE:08:4D:80:F2:C9:FC:CF:3D:76:E6:A5:62
            X509v3 Authority Key Identifier: 
                keyid:59:71:87:88:D0:3E:C7:EE:08:4D:80:F2:C9:FC:CF:3D:76:E6:A5:62
                DirName:/C=US/ST=Montana/L=Bozeman/O=wolfSSL_RSAPSS/OU=Client-RSAPSS/CN=www.wolfssl.com/emailAddress=info@wolfssl.com/UID=wolfSSL
                serial:37:58:FF:58:A9:CA:95:0E:04:64:0E:37:3B:F7:89:09:51:31:03:AC

            X509v3 Basic Constraints: 
                CA:TRUE
            X509v3 Subject Alternative Name: 
                DNS:example.com, IP Address:127.0.0.1
            X509v3 Extended Key Usage: 
                TLS Web Server Authentication, TLS Web Client Authentication
    Signature Algorithm: rsassaPss         
         Hash Algorithm: sha256
         Mask Algorithm: mgf1 with sha256
          Salt Length: 0x20
         Trailer Field: 0xBC (default)

         ae:d5:d0:0a:ba:a4:12:f1:95:99:15:c5:c6:a4:51:46:64:cb:
         ed:15:94:0a:89:5e:d0:7f:e2:cb:64:a6:d2:48:e4:52:b2:5a:
         c4:ab:d8:e5:2b:e3:72:f5:1d:de:f9:28:a6:e7:7c:29:0b:e3:
         e6:0f:f8:2a:d2:e0:25:c6:c7:54:cb:a5:26:2d:20:c4:01:e5:
         fe:9d:c6:4e:f8:ba:7a:84:e3:7c:b3:38:b0:d4:2e:47:57:a4:
         2b:5e:29:a9:73:11:93:46:2a:bf:24:11:2f:6d:ff:06:28:1f:
         05:c0:f2:4a:f0:81:29:22:d4:a4:0c:30:b4:cb:f6:51:72:76:
         4a:cf:67:b0:fb:91:1b:d1:92:fc:ad:2e:6f:f0:49:21:31:05:
         2d:ad:30:ba:fd:0b:6e:05:42:b9:a2:b8:34:3e:de:a7:a9:14:
         f3:78:14:69:c6:67:ae:4d:b9:6e:72:4c:2e:95:19:03:22:8e:
         14:bc:51:2a:18:ed:cf:f6:0b:50:25:a5:e2:e0:2e:a6:93:76:
         68:8c:9e:1a:ee:bb:24:0a:93:4f:bf:73:2d:48:e8:43:bd:08:
         a1:e2:6d:1d:00:a6:b1:78:43:36:57:8b:28:11:37:71:bb:a3:
         f7:a6:93:29:85:28:93:ef:d8:a0:4f:2a:b7:15:09:a4:21:49:
         b6:b8:c9:a0
-----BEGIN CERTIFICATE-----
MIIF9TCCBK2gAwIBAgIUN1j/WKnKlQ4EZA43O/eJCVExA6wwPQYJKoZIhvcNAQEK
MDCgDTALBglghkgBZQMEAgGhGjAYBgkqhkiG9w0BAQgwCwYJYIZIAWUDBAIBogMC
ASAwgbYxCzAJBgNVBAYTAlVTMRAwDgYDVQQIDAdNb250YW5hMRAwDgYDVQQHDAdC
b3plbWFuMRcwFQYDVQQKDA53b2xmU1NMX1JTQVBTUzEWMBQGA1UECwwNQ2xpZW50
LVJTQVBTUzEYMBYGA1UEAwwPd3d3LndvbGZzc2wuY29tMR8wHQYJKoZIhvcNAQkB
FhBpbmZvQHdvbGZzc2wuY29tMRcwFQYKCZImiZPyLGQBAQwHd29sZlNTTDAeFw0y
MjA3MjUwMjI3NTVaFw0yNTA0MjAwMjI3NTVaMIG2MQswCQYDVQQGEwJVUzEQMA4G
A1UECAwHTW9udGFuYTEQMA4GA1UEBwwHQm96ZW1hbjEXMBUGA1UECgwOd29sZlNT
TF9SU0FQU1MxFjAUBgNVBAsMDUNsaWVudC1SU0FQU1MxGDAWBgNVBAMMD3d3dy53
b2xmc3NsLmNvbTEfMB0GCSqGSIb3DQEJARYQaW5mb0B3b2xmc3NsLmNvbTEXMBUG
CgmSJomT8ixkAQEMB3dvbGZTU0wwggFSMD0GCSqGSIb3DQEBCjAwoA0wCwYJYIZI
AWUDBAIBoRowGAYJKoZIhvcNAQEIMAsGCWCGSAFlAwQCAaIDAgEgA4IBDwAwggEK
AoIBAQDGh75gh0N9xKzk+jwSHcfP6lzEk3LiDTdHMz3gpexXFr2AKlr5obfubUZ8
Ok4k4xdiWjiXCwMTpXpeEaFQ+xttFhNWu3cKe5jMhRHSkzHtdAE4PTcBNtZSwCf7
U/uu/Va8AoCRgcztUUYWex2O8wZIgygRS7ine+iSjpP0jR36zHwoUT0hmJA/gCq5
3CKH8I25p7vMpN0lrWWIKPEcT9wE8loPUrY1hFIY17/e49z28DzJ282xSBFLrnwe
Way1jO4ugw/1KTQ5dMua+qbTY9VpetzyDUNGAxCnsJzNFbM2XkNeBUwDYpkp0FcF
51TfsOVxOTfxE2ZwEvOHmAmPH+HnAgMBAAGjggFnMIIBYzAdBgNVHQ4EFgQUWXGH
iNA+x+4ITYDyyfzPPXbmpWIwgfYGA1UdIwSB7jCB64AUWXGHiNA+x+4ITYDyyfzP
PXbmpWKhgbykgbkwgbYxCzAJBgNVBAYTAlVTMRAwDgYDVQQIDAdNb250YW5hMRAw
DgYDVQQHDAdCb3plbWFuMRcwFQYDVQQKDA53b2xmU1NMX1JTQVBTUzEWMBQGA1UE
CwwNQ2xpZW50LVJTQVBTUzEYMBYGA1UEAwwPd3d3LndvbGZzc2wuY29tMR8wHQYJ
KoZIhvcNAQkBFhBpbmZvQHdvbGZzc2wuY29tMRcwFQYKCZImiZPyLGQBAQwHd29s
ZlNTTIIUN1j/WKnKlQ4EZA43O/eJCVExA6wwDAYDVR0TBAUwAwEB/zAcBgNVHREE
FTATggtleGFtcGxlLmNvbYcEfwAAATAdBgNVHSUEFjAUBggrBgEFBQcDAQYIKwYB
BQUHAwIwPQYJKoZIhvcNAQEKMDCgDTALBglghkgBZQMEAgGhGjAYBgkqhkiG9w0B
AQgwCwYJYIZIAWUDBAIBogMCASADggEBAK7V0Aq6pBLxlZkVxcakUUZky+0VlAqJ
XtB/4stkptJI5FKyWsSr2OUr43L1Hd75KKbnfCkL4+YP+CrS4CXGx1TLpSYtIMQB
5f6dxk74unqE43yzOLDULkdXpCteKalzEZNGKr8kES9t/wYoHwXA8krwgSki1KQM
MLTL9lFydkrPZ7D7kRvRkvytLm/wSSExBS2tMLr9C24FQrmiuDQ+3qepFPN4FGnG
Z65NuW5yTC6VGQMijhS8USoY7c/2C1AlpeLgLqaTdmiMnhruuyQKk0+/cy1I6EO9
CKHibR0AprF4QzZXiygRN3G7o/emkymFKJPv2KBPKrcVCaQhSba4yaA=
-----END CERTIFICATE-----
