Certificate:
    Data:
        Version: 3 (0x2)
        Serial Number:
            06:54:4f:66:0b:e2:32:6e:09:ab:a6:90:84:b3:1a:59:79:89:1a:9a
        Signature Algorithm: rsassaPss         
         Hash Algorithm: sha384
         Mask Algorithm: mgf1 with sha384
          Salt Length: 0x014E
         Trailer Field: 0xBC (default)
        Issuer: C = US, ST = Montana, L = Bozeman, O = wolfSSL_RSAPSS, OU = Client-RSAPSS, CN = www.wolfssl.com, emailAddress = info@wolfssl.com, UID = wolfSSL
        Validity
            Not Before: Dec 13 22:19:29 2023 GMT
            Not After : Sep  8 22:19:29 2026 GMT
        Subject: C = US, ST = Montana, L = Bozeman, O = wolfSSL_RSAPSS, OU = Client-RSAPSS, CN = www.wolfssl.com, emailAddress = info@wolfssl.com, UID = wolfSSL
        Subject Public Key Info:
            Public Key Algorithm: rsassaPss
                RSA-PSS Public-Key: (3072 bit)
                Modulus:
                    00:bb:06:28:e4:7f:c9:41:76:be:26:c6:a9:ba:08:
                    e6:35:9c:33:a0:3c:5b:ab:95:23:d7:6b:61:d3:2e:
                    8b:8d:ed:1c:d9:57:ae:1a:69:e2:ce:65:88:2e:65:
                    0f:cb:f1:79:cb:2c:46:96:3e:3f:5b:59:e5:b7:b5:
                    b1:3c:7c:26:e4:56:21:51:5d:04:79:d9:7f:5c:71:
                    54:e9:1e:99:c1:f7:be:6c:0f:7b:ef:46:8d:40:0e:
                    a3:6b:ce:98:9b:6c:0d:6d:d3:24:9d:9e:e8:68:25:
                    9c:46:60:92:37:62:73:21:77:1a:bd:5c:f0:11:6d:
                    ee:b9:6f:b2:8e:36:54:3e:e1:72:6b:36:c9:88:48:
                    86:18:6c:f8:d7:b1:e0:e4:d7:0c:2a:15:cc:92:33:
                    84:bd:71:1a:07:70:aa:03:24:e1:ce:c2:28:b8:e3:
                    83:ff:ba:19:50:b7:ae:22:fd:fb:eb:70:70:b0:2d:
                    17:a0:3e:aa:85:50:43:62:24:5d:00:51:b8:11:fa:
                    d8:c6:06:40:07:bd:4a:b0:42:70:52:cf:17:95:b1:
                    53:fc:68:8d:13:be:a0:0e:c4:4b:cb:17:72:cd:cd:
                    0b:2e:ff:66:42:50:cc:76:7d:70:4e:7d:63:16:e5:
                    da:e1:fb:99:6c:1d:06:6c:ab:ee:d3:36:4e:c7:34:
                    5f:f7:d0:1e:50:fd:fe:41:39:29:5c:e1:c7:bf:c4:
                    50:36:75:8a:36:4d:09:6a:ca:2a:cc:1a:b7:0d:8b:
                    16:6d:48:07:39:61:f5:c8:07:5a:9c:bf:d2:a5:f1:
                    39:3b:7e:bf:62:31:93:ba:29:5a:c9:09:d7:00:30:
                    3e:d8:18:8c:9e:a7:28:75:49:aa:89:34:de:5a:14:
                    29:5d:fc:47:05:ab:6a:84:0f:57:2c:64:ab:3b:98:
                    b3:d6:48:ba:db:f1:03:d0:20:f7:9f:ef:7d:52:50:
                    28:e3:48:ed:29:3e:fe:ff:86:a3:64:3d:7f:29:a2:
                    a3:93:52:e5:6a:c3:a9:13:44:cf
                Exponent: 65537 (0x10001)
                No PSS parameter restrictions
        X509v3 extensions:
            X509v3 Subject Key Identifier: 
                8C:01:9F:4E:11:24:28:BF:3E:EA:82:EA:54:2A:C9:0F:F5:E4:C5:47
            X509v3 Authority Key Identifier: 
                keyid:8C:01:9F:4E:11:24:28:BF:3E:EA:82:EA:54:2A:C9:0F:F5:E4:C5:47
                DirName:/C=US/ST=Montana/L=Bozeman/O=wolfSSL_RSAPSS/OU=Client-RSAPSS/CN=www.wolfssl.com/emailAddress=info@wolfssl.com/UID=wolfSSL
                serial:06:54:4F:66:0B:E2:32:6E:09:AB:A6:90:84:B3:1A:59:79:89:1A:9A

            X509v3 Basic Constraints: 
                CA:TRUE
            X509v3 Subject Alternative Name: 
                DNS:example.com, IP Address:127.0.0.1
            X509v3 Extended Key Usage: 
                TLS Web Server Authentication, TLS Web Client Authentication
    Signature Algorithm: rsassaPss         
         Hash Algorithm: sha384
         Mask Algorithm: mgf1 with sha384
          Salt Length: 0x014E
         Trailer Field: 0xBC (default)

         0b:90:18:ff:19:9d:5e:bc:34:de:1f:90:e8:27:89:1e:61:84:
         79:84:e1:e7:b5:df:dc:b8:68:6b:59:02:33:b0:c8:0c:a7:31:
         e3:95:b6:09:41:6b:e0:63:93:f5:9f:53:17:04:6d:08:e7:fe:
         38:9e:27:82:29:55:46:f7:7a:65:61:7d:1e:8f:8c:35:70:8a:
         2a:94:dc:62:c5:db:16:b8:bf:67:9c:f7:e1:09:fc:08:d7:95:
         ae:9d:9c:27:f4:7c:71:37:62:c8:09:0b:b6:06:56:37:ff:fa:
         fc:ba:c2:25:65:e5:c2:01:b4:37:8a:f5:1e:d6:d7:56:f6:df:
         77:fa:99:26:16:61:8b:b2:f6:5f:de:cc:46:97:80:e8:55:36:
         79:9a:c7:01:36:7b:73:3a:cc:ae:05:00:a1:91:2d:fb:57:0a:
         72:e8:70:ab:4d:82:df:8d:5a:c5:67:fb:17:06:d9:a1:c4:66:
         29:c6:58:d4:81:b9:89:d3:d1:8e:97:61:59:3a:be:4d:18:3a:
         21:cf:94:0e:c7:20:30:35:a6:ed:a9:a1:de:bd:b7:ee:02:5f:
         af:b0:8c:2e:57:15:7b:87:fd:d9:77:18:63:cc:d1:95:98:e2:
         bd:d2:f4:15:38:98:13:dc:f1:ae:37:35:9e:1b:74:23:a3:20:
         2a:3e:6a:d0:67:67:79:65:c0:6b:e3:08:66:8f:79:c6:1c:68:
         68:b5:c4:f5:ec:8e:bc:c3:0b:73:6d:8b:61:33:17:90:f0:cb:
         69:1c:2e:42:f1:c3:a0:4a:0d:8b:79:94:8e:40:97:c6:c0:4e:
         f1:95:42:12:d9:ad:84:d5:9c:7b:52:4a:a9:e5:82:8f:5c:9f:
         d4:c8:0e:14:0a:c2:27:33:57:1e:d9:60:5a:e6:2a:83:bb:91:
         01:85:a0:14:b8:e4:bf:4a:43:7d:4f:40:36:d9:24:8b:a7:f3:
         7c:a9:b1:cf:f0:ba:6b:d0:73:0a:aa:47:13:06:8f:ad:df:26:
         0d:47:07:27:27:8f
-----BEGIN CERTIFICATE-----
MIIGxTCCBPygAwIBAgIUBlRPZgviMm4Jq6aQhLMaWXmJGpowPgYJKoZIhvcNAQEK
MDGgDTALBglghkgBZQMEAgKhGjAYBgkqhkiG9w0BAQgwCwYJYIZIAWUDBAICogQC
AgFOMIG2MQswCQYDVQQGEwJVUzEQMA4GA1UECAwHTW9udGFuYTEQMA4GA1UEBwwH
Qm96ZW1hbjEXMBUGA1UECgwOd29sZlNTTF9SU0FQU1MxFjAUBgNVBAsMDUNsaWVu
dC1SU0FQU1MxGDAWBgNVBAMMD3d3dy53b2xmc3NsLmNvbTEfMB0GCSqGSIb3DQEJ
ARYQaW5mb0B3b2xmc3NsLmNvbTEXMBUGCgmSJomT8ixkAQEMB3dvbGZTU0wwHhcN
MjMxMjEzMjIxOTI5WhcNMjYwOTA4MjIxOTI5WjCBtjELMAkGA1UEBhMCVVMxEDAO
BgNVBAgMB01vbnRhbmExEDAOBgNVBAcMB0JvemVtYW4xFzAVBgNVBAoMDndvbGZT
U0xfUlNBUFNTMRYwFAYDVQQLDA1DbGllbnQtUlNBUFNTMRgwFgYDVQQDDA93d3cu
d29sZnNzbC5jb20xHzAdBgkqhkiG9w0BCQEWEGluZm9Ad29sZnNzbC5jb20xFzAV
BgoJkiaJk/IsZAEBDAd3b2xmU1NMMIIBoDALBgkqhkiG9w0BAQoDggGPADCCAYoC
ggGBALsGKOR/yUF2vibGqboI5jWcM6A8W6uVI9drYdMui43tHNlXrhpp4s5liC5l
D8vxecssRpY+P1tZ5be1sTx8JuRWIVFdBHnZf1xxVOkemcH3vmwPe+9GjUAOo2vO
mJtsDW3TJJ2e6GglnEZgkjdicyF3Gr1c8BFt7rlvso42VD7hcms2yYhIhhhs+Nex
4OTXDCoVzJIzhL1xGgdwqgMk4c7CKLjjg/+6GVC3riL9++twcLAtF6A+qoVQQ2Ik
XQBRuBH62MYGQAe9SrBCcFLPF5WxU/xojRO+oA7ES8sXcs3NCy7/ZkJQzHZ9cE59
Yxbl2uH7mWwdBmyr7tM2Tsc0X/fQHlD9/kE5KVzhx7/EUDZ1ijZNCWrKKswatw2L
Fm1IBzlh9cgHWpy/0qXxOTt+v2Ixk7opWskJ1wAwPtgYjJ6nKHVJqok03loUKV38
RwWraoQPVyxkqzuYs9ZIutvxA9Ag95/vfVJQKONI7Sk+/v+Go2Q9fymio5NS5WrD
qRNEzwIDAQABo4IBZzCCAWMwHQYDVR0OBBYEFIwBn04RJCi/PuqC6lQqyQ/15MVH
MIH2BgNVHSMEge4wgeuAFIwBn04RJCi/PuqC6lQqyQ/15MVHoYG8pIG5MIG2MQsw
CQYDVQQGEwJVUzEQMA4GA1UECAwHTW9udGFuYTEQMA4GA1UEBwwHQm96ZW1hbjEX
MBUGA1UECgwOd29sZlNTTF9SU0FQU1MxFjAUBgNVBAsMDUNsaWVudC1SU0FQU1Mx
GDAWBgNVBAMMD3d3dy53b2xmc3NsLmNvbTEfMB0GCSqGSIb3DQEJARYQaW5mb0B3
b2xmc3NsLmNvbTEXMBUGCgmSJomT8ixkAQEMB3dvbGZTU0yCFAZUT2YL4jJuCaum
kISzGll5iRqaMAwGA1UdEwQFMAMBAf8wHAYDVR0RBBUwE4ILZXhhbXBsZS5jb22H
BH8AAAEwHQYDVR0lBBYwFAYIKwYBBQUHAwEGCCsGAQUFBwMCMD4GCSqGSIb3DQEB
CjAxoA0wCwYJYIZIAWUDBAICoRowGAYJKoZIhvcNAQEIMAsGCWCGSAFlAwQCAqIE
AgIBTgOCAYEAC5AY/xmdXrw03h+Q6CeJHmGEeYTh57Xf3Lhoa1kCM7DIDKcx45W2
CUFr4GOT9Z9TFwRtCOf+OJ4ngilVRvd6ZWF9Ho+MNXCKKpTcYsXbFri/Z5z34Qn8
CNeVrp2cJ/R8cTdiyAkLtgZWN//6/LrCJWXlwgG0N4r1HtbXVvbfd/qZJhZhi7L2
X97MRpeA6FU2eZrHATZ7czrMrgUAoZEt+1cKcuhwq02C341axWf7FwbZocRmKcZY
1IG5idPRjpdhWTq+TRg6Ic+UDscgMDWm7amh3r237gJfr7CMLlcVe4f92XcYY8zR
lZjivdL0FTiYE9zxrjc1nht0I6MgKj5q0GdneWXAa+MIZo95xhxoaLXE9eyOvMML
c22LYTMXkPDLaRwuQvHDoEoNi3mUjkCXxsBO8ZVCEtmthNWce1JKqeWCj1yf1MgO
FArCJzNXHtlgWuYqg7uRAYWgFLjkv0pDfU9ANtkki6fzfKmxz/C6a9BzCqpHEwaP
rd8mDUcHJyeP
-----END CERTIFICATE-----
