Certificate:
    Data:
        Version: 3 (0x2)
        Serial Number:
            54:2d:53:c6:39:4c:58:e3:3d:8a:8f:a5:e9:42:92:df:7c:48:eb:21
        Signature Algorithm: rsassaPss        
        Hash Algorithm: sha256
        Mask Algorithm: mgf1 with sha256
         Salt Length: 0x20
        Trailer Field: 0x01 (default)
        Issuer: C = US, ST = Montana, L = Bozeman, O = wolfSSL_RSAPSS, OU = Client-RSAPSS, CN = www.wolfssl.com, emailAddress = info@wolfssl.com, UID = wolfSSL
        Validity
            Not Before: Sep 26 17:22:42 2023 GMT
            Not After : Jun 22 17:22:42 2026 GMT
        Subject: C = US, ST = Montana, L = Bozeman, O = wolfSSL_RSAPSS, OU = Client-RSAPSS, CN = www.wolfssl.com, emailAddress = info@wolfssl.com, UID = wolfSSL
        Subject Public Key Info:
            Public Key Algorithm: rsassaPss
                Public-Key: (2048 bit)
                Modulus:
                    00:c6:87:be:60:87:43:7d:c4:ac:e4:fa:3c:12:1d:
                    c7:cf:ea:5c:c4:93:72:e2:0d:37:47:33:3d:e0:a5:
                    ec:57:16:bd:80:2a:5a:f9:a1:b7:ee:6d:46:7c:3a:
                    4e:24:e3:17:62:5a:38:97:0b:03:13:a5:7a:5e:11:
                    a1:50:fb:1b:6d:16:13:56:bb:77:0a:7b:98:cc:85:
                    11:d2:93:31:ed:74:01:38:3d:37:01:36:d6:52:c0:
                    27:fb:53:fb:ae:fd:56:bc:02:80:91:81:cc:ed:51:
                    46:16:7b:1d:8e:f3:06:48:83:28:11:4b:b8:a7:7b:
                    e8:92:8e:93:f4:8d:1d:fa:cc:7c:28:51:3d:21:98:
                    90:3f:80:2a:b9:dc:22:87:f0:8d:b9:a7:bb:cc:a4:
                    dd:25:ad:65:88:28:f1:1c:4f:dc:04:f2:5a:0f:52:
                    b6:35:84:52:18:d7:bf:de:e3:dc:f6:f0:3c:c9:db:
                    cd:b1:48:11:4b:ae:7c:1e:59:ac:b5:8c:ee:2e:83:
                    0f:f5:29:34:39:74:cb:9a:fa:a6:d3:63:d5:69:7a:
                    dc:f2:0d:43:46:03:10:a7:b0:9c:cd:15:b3:36:5e:
                    43:5e:05:4c:03:62:99:29:d0:57:05:e7:54:df:b0:
                    e5:71:39:37:f1:13:66:70:12:f3:87:98:09:8f:1f:
                    e1:e7
                Exponent: 65537 (0x10001)
                PSS parameter restrictions:
                  Hash Algorithm: SHA2-256
                  Mask Algorithm: MGF1 with SHA2-256
                  Minimum Salt Length: 32
                  Trailer Field: 0x1 (default)
        X509v3 extensions:
            X509v3 Subject Key Identifier: 
                59:71:87:88:D0:3E:C7:EE:08:4D:80:F2:C9:FC:CF:3D:76:E6:A5:62
            X509v3 Authority Key Identifier: 
                keyid:59:71:87:88:D0:3E:C7:EE:08:4D:80:F2:C9:FC:CF:3D:76:E6:A5:62
                DirName:/C=US/ST=Montana/L=Bozeman/O=wolfSSL_RSAPSS/OU=Client-RSAPSS/CN=www.wolfssl.com/emailAddress=info@wolfssl.com/UID=wolfSSL
                serial:54:2D:53:C6:39:4C:58:E3:3D:8A:8F:A5:E9:42:92:DF:7C:48:EB:21
            X509v3 Basic Constraints: 
                CA:TRUE
            X509v3 Subject Alternative Name: 
                DNS:example.com, IP Address:127.0.0.1
            X509v3 Extended Key Usage: 
                TLS Web Server Authentication, TLS Web Client Authentication
    Signature Algorithm: rsassaPss
    Signature Value:        
        Hash Algorithm: sha256
        Mask Algorithm: mgf1 with sha256
         Salt Length: 0x20
        Trailer Field: 0x01 (default)
        10:d7:4d:5d:8d:26:56:c7:a7:6f:1e:a3:a4:7c:3e:df:d6:5b:
        0c:71:3e:81:49:04:30:af:37:80:26:42:6c:cc:ee:37:a4:1b:
        3d:62:57:fb:2f:a8:00:d0:40:23:b6:30:e9:fd:82:10:5b:d2:
        58:7a:4c:9d:d9:f9:94:ef:aa:64:2e:43:b1:f0:fb:56:4a:c1:
        67:e9:eb:79:0f:0f:a7:b3:25:b9:c1:e8:3e:97:b8:36:2b:06:
        48:17:86:d3:b0:4d:3c:65:96:c6:80:9f:d7:2e:c5:62:53:f6:
        01:fd:dd:83:cf:b7:49:7b:64:90:6e:82:8a:e2:2d:e2:8b:3d:
        1d:cf:a6:46:51:cc:2d:b7:b6:a2:18:6f:f9:67:52:d8:78:ca:
        a3:41:58:f8:1e:c5:82:a1:03:95:dc:4f:73:f0:3b:47:c9:e9:
        7e:1d:14:b1:5d:7c:06:5c:bc:b3:44:5c:b1:55:12:84:1c:c6:
        b5:24:da:58:85:b7:ce:b3:a3:ba:f3:8a:e5:a0:4c:c0:1a:f9:
        bc:60:c6:19:95:cf:f0:e3:86:03:cf:63:11:6a:41:57:9d:76:
        b1:d8:1e:f4:d9:8d:4a:49:f6:b8:13:c8:4b:07:31:11:30:20:
        dd:1a:64:e0:f5:78:f6:a2:ad:e0:c0:4c:54:5c:43:8d:f6:0f:
        15:c7:be:02
-----BEGIN CERTIFICATE-----
MIIGATCCBLWgAwIBAgIUVC1TxjlMWOM9io+l6UKS33xI6yEwQQYJKoZIhvcNAQEK
MDSgDzANBglghkgBZQMEAgEFAKEcMBoGCSqGSIb3DQEBCDANBglghkgBZQMEAgEF
AKIDAgEgMIG2MQswCQYDVQQGEwJVUzEQMA4GA1UECAwHTW9udGFuYTEQMA4GA1UE
BwwHQm96ZW1hbjEXMBUGA1UECgwOd29sZlNTTF9SU0FQU1MxFjAUBgNVBAsMDUNs
aWVudC1SU0FQU1MxGDAWBgNVBAMMD3d3dy53b2xmc3NsLmNvbTEfMB0GCSqGSIb3
DQEJARYQaW5mb0B3b2xmc3NsLmNvbTEXMBUGCgmSJomT8ixkAQEMB3dvbGZTU0ww
HhcNMjMwOTI2MTcyMjQyWhcNMjYwNjIyMTcyMjQyWjCBtjELMAkGA1UEBhMCVVMx
EDAOBgNVBAgMB01vbnRhbmExEDAOBgNVBAcMB0JvemVtYW4xFzAVBgNVBAoMDndv
bGZTU0xfUlNBUFNTMRYwFAYDVQQLDA1DbGllbnQtUlNBUFNTMRgwFgYDVQQDDA93
d3cud29sZnNzbC5jb20xHzAdBgkqhkiG9w0BCQEWEGluZm9Ad29sZnNzbC5jb20x
FzAVBgoJkiaJk/IsZAEBDAd3b2xmU1NMMIIBVjBBBgkqhkiG9w0BAQowNKAPMA0G
CWCGSAFlAwQCAQUAoRwwGgYJKoZIhvcNAQEIMA0GCWCGSAFlAwQCAQUAogMCASAD
ggEPADCCAQoCggEBAMaHvmCHQ33ErOT6PBIdx8/qXMSTcuINN0czPeCl7FcWvYAq
Wvmht+5tRnw6TiTjF2JaOJcLAxOlel4RoVD7G20WE1a7dwp7mMyFEdKTMe10ATg9
NwE21lLAJ/tT+679VrwCgJGBzO1RRhZ7HY7zBkiDKBFLuKd76JKOk/SNHfrMfChR
PSGYkD+AKrncIofwjbmnu8yk3SWtZYgo8RxP3ATyWg9StjWEUhjXv97j3PbwPMnb
zbFIEUuufB5ZrLWM7i6DD/UpNDl0y5r6ptNj1Wl63PINQ0YDEKewnM0VszZeQ14F
TANimSnQVwXnVN+w5XE5N/ETZnAS84eYCY8f4ecCAwEAAaOCAWcwggFjMB0GA1Ud
DgQWBBRZcYeI0D7H7ghNgPLJ/M89dualYjCB9gYDVR0jBIHuMIHrgBRZcYeI0D7H
7ghNgPLJ/M89dualYqGBvKSBuTCBtjELMAkGA1UEBhMCVVMxEDAOBgNVBAgMB01v
bnRhbmExEDAOBgNVBAcMB0JvemVtYW4xFzAVBgNVBAoMDndvbGZTU0xfUlNBUFNT
MRYwFAYDVQQLDA1DbGllbnQtUlNBUFNTMRgwFgYDVQQDDA93d3cud29sZnNzbC5j
b20xHzAdBgkqhkiG9w0BCQEWEGluZm9Ad29sZnNzbC5jb20xFzAVBgoJkiaJk/Is
ZAEBDAd3b2xmU1NMghRULVPGOUxY4z2Kj6XpQpLffEjrITAMBgNVHRMEBTADAQH/
MBwGA1UdEQQVMBOCC2V4YW1wbGUuY29thwR/AAABMB0GA1UdJQQWMBQGCCsGAQUF
BwMBBggrBgEFBQcDAjBBBgkqhkiG9w0BAQowNKAPMA0GCWCGSAFlAwQCAQUAoRww
GgYJKoZIhvcNAQEIMA0GCWCGSAFlAwQCAQUAogMCASADggEBABDXTV2NJlbHp28e
o6R8Pt/WWwxxPoFJBDCvN4AmQmzM7jekGz1iV/svqADQQCO2MOn9ghBb0lh6TJ3Z
+ZTvqmQuQ7Hw+1ZKwWfp63kPD6ezJbnB6D6XuDYrBkgXhtOwTTxllsaAn9cuxWJT
9gH93YPPt0l7ZJBugoriLeKLPR3PpkZRzC23tqIYb/lnUth4yqNBWPgexYKhA5Xc
T3PwO0fJ6X4dFLFdfAZcvLNEXLFVEoQcxrUk2liFt86zo7rziuWgTMAa+bxgxhmV
z/DjhgPPYxFqQVeddrHYHvTZjUpJ9rgTyEsHMREwIN0aZOD1ePaireDATFRcQ432
DxXHvgI=
-----END CERTIFICATE-----
