Certificate:
    Data:
        Version: 3 (0x2)
        Serial Number:
            02:2c:c7:b2:71:c9:1e:75:00:98:24:81:c6:28:b8:a4:f8:4c:34:4a
        Signature Algorithm: rsassaPss        
        Hash Algorithm: sha384
        Mask Algorithm: mgf1 with sha384
         Salt Length: 0x30
        Trailer Field: 0x01 (default)
        Issuer: C=US, ST=Montana, L=Bozeman, O=wolfSSL_RSAPSS, OU=Client-RSAPSS, CN=www.wolfssl.com, emailAddress=info@wolfssl.com, UID=wolfSSL
        Validity
            Not Before: Nov 13 20:41:20 2025 GMT
            Not After : Aug  9 20:41:20 2028 GMT
        Subject: C=US, ST=Montana, L=Bozeman, O=wolfSSL_RSAPSS, OU=Client-RSAPSS, CN=www.wolfssl.com, emailAddress=info@wolfssl.com, UID=wolfSSL
        Subject Public Key Info:
            Public Key Algorithm: rsassaPss
                Public-Key: (3072 bit)
                Modulus:
                    00:bb:06:28:e4:7f:c9:41:76:be:26:c6:a9:ba:08:
                    e6:35:9c:33:a0:3c:5b:ab:95:23:d7:6b:61:d3:2e:
                    8b:8d:ed:1c:d9:57:ae:1a:69:e2:ce:65:88:2e:65:
                    0f:cb:f1:79:cb:2c:46:96:3e:3f:5b:59:e5:b7:b5:
                    b1:3c:7c:26:e4:56:21:51:5d:04:79:d9:7f:5c:71:
                    54:e9:1e:99:c1:f7:be:6c:0f:7b:ef:46:8d:40:0e:
                    a3:6b:ce:98:9b:6c:0d:6d:d3:24:9d:9e:e8:68:25:
                    9c:46:60:92:37:62:73:21:77:1a:bd:5c:f0:11:6d:
                    ee:b9:6f:b2:8e:36:54:3e:e1:72:6b:36:c9:88:48:
                    86:18:6c:f8:d7:b1:e0:e4:d7:0c:2a:15:cc:92:33:
                    84:bd:71:1a:07:70:aa:03:24:e1:ce:c2:28:b8:e3:
                    83:ff:ba:19:50:b7:ae:22:fd:fb:eb:70:70:b0:2d:
                    17:a0:3e:aa:85:50:43:62:24:5d:00:51:b8:11:fa:
                    d8:c6:06:40:07:bd:4a:b0:42:70:52:cf:17:95:b1:
                    53:fc:68:8d:13:be:a0:0e:c4:4b:cb:17:72:cd:cd:
                    0b:2e:ff:66:42:50:cc:76:7d:70:4e:7d:63:16:e5:
                    da:e1:fb:99:6c:1d:06:6c:ab:ee:d3:36:4e:c7:34:
                    5f:f7:d0:1e:50:fd:fe:41:39:29:5c:e1:c7:bf:c4:
                    50:36:75:8a:36:4d:09:6a:ca:2a:cc:1a:b7:0d:8b:
                    16:6d:48:07:39:61:f5:c8:07:5a:9c:bf:d2:a5:f1:
                    39:3b:7e:bf:62:31:93:ba:29:5a:c9:09:d7:00:30:
                    3e:d8:18:8c:9e:a7:28:75:49:aa:89:34:de:5a:14:
                    29:5d:fc:47:05:ab:6a:84:0f:57:2c:64:ab:3b:98:
                    b3:d6:48:ba:db:f1:03:d0:20:f7:9f:ef:7d:52:50:
                    28:e3:48:ed:29:3e:fe:ff:86:a3:64:3d:7f:29:a2:
                    a3:93:52:e5:6a:c3:a9:13:44:cf
                Exponent: 65537 (0x10001)
                No PSS parameter restrictions
        X509v3 extensions:
            X509v3 Subject Key Identifier: 
                8C:01:9F:4E:11:24:28:BF:3E:EA:82:EA:54:2A:C9:0F:F5:E4:C5:47
            X509v3 Authority Key Identifier: 
                keyid:8C:01:9F:4E:11:24:28:BF:3E:EA:82:EA:54:2A:C9:0F:F5:E4:C5:47
                DirName:/C=US/ST=Montana/L=Bozeman/O=wolfSSL_RSAPSS/OU=Client-RSAPSS/CN=www.wolfssl.com/emailAddress=info@wolfssl.com/UID=wolfSSL
                serial:02:2C:C7:B2:71:C9:1E:75:00:98:24:81:C6:28:B8:A4:F8:4C:34:4A
            X509v3 Basic Constraints: 
                CA:TRUE
            X509v3 Subject Alternative Name: 
                DNS:example.com, IP Address:127.0.0.1
            X509v3 Extended Key Usage: 
                TLS Web Server Authentication, TLS Web Client Authentication
    Signature Algorithm: rsassaPss
    Signature Value:        
        Hash Algorithm: sha384
        Mask Algorithm: mgf1 with sha384
         Salt Length: 0x30
        Trailer Field: 0x01 (default)
        69:58:2d:8e:8e:86:55:43:70:5c:b1:bb:83:b2:8d:31:cb:04:
        21:c0:bf:96:82:a3:27:ee:d3:7a:d3:3d:99:ff:8b:37:21:d1:
        f8:b8:fa:f3:b8:19:2b:25:53:05:8a:ae:f7:36:c6:3f:ff:85:
        a0:2b:7e:1d:3b:7f:91:48:fa:8e:d2:04:e6:7e:95:1f:a8:b1:
        2a:94:c9:0d:8e:3a:e6:4e:75:62:e2:1f:03:18:db:e0:49:00:
        32:ab:cd:8c:de:d8:94:3b:a8:0c:3b:a2:d1:66:12:a9:6a:af:
        77:8e:2a:54:43:98:41:1f:41:ec:7e:76:9d:82:6d:b0:40:74:
        e1:ce:22:f7:d0:ce:24:3b:b6:a2:7c:b9:06:5f:f1:6b:fd:6d:
        67:4b:12:bc:f1:33:10:e0:41:22:96:18:a6:65:36:7c:24:fa:
        f9:96:ef:10:1f:b5:1f:c5:bf:68:a1:52:c1:bc:d5:ae:69:50:
        03:10:bf:29:8e:a6:6c:07:d3:79:b6:70:70:2a:98:fe:e7:f5:
        84:df:43:6c:a5:fa:2d:f7:53:a3:45:24:d3:8d:af:5f:94:ce:
        d0:d5:4c:8f:5f:dd:3c:fb:2a:bd:25:95:28:81:51:77:dd:8c:
        a5:78:e1:5f:39:91:74:76:8a:67:c6:5e:58:e7:5a:e5:5b:bb:
        2b:9a:c0:71:e0:01:45:3a:b4:65:b3:d5:7a:8f:a5:95:21:62:
        e8:2c:93:85:4c:27:ac:9c:d1:96:22:0d:da:b3:c7:0f:94:98:
        c0:c4:27:c2:4a:fb:f5:f2:c7:ad:62:d7:1a:0f:c1:be:9c:a8:
        b9:52:a8:e5:d1:b2:26:2f:41:8e:e3:f3:1a:0c:6e:ef:9b:91:
        c2:18:79:69:ae:c7:b3:7c:b6:88:e1:4a:c7:56:20:42:b7:a6:
        e8:f2:f9:cd:57:48:3f:30:02:0e:9d:ad:9e:d8:16:79:7d:3c:
        10:29:cf:a8:50:5c:8d:a2:03:74:51:d2:fa:31:27:e1:60:33:
        60:19:42:2f:68:18
-----BEGIN CERTIFICATE-----
MIIGyzCCBP+gAwIBAgIUAizHsnHJHnUAmCSBxii4pPhMNEowQQYJKoZIhvcNAQEK
MDSgDzANBglghkgBZQMEAgIFAKEcMBoGCSqGSIb3DQEBCDANBglghkgBZQMEAgIF
AKIDAgEwMIG2MQswCQYDVQQGEwJVUzEQMA4GA1UECAwHTW9udGFuYTEQMA4GA1UE
BwwHQm96ZW1hbjEXMBUGA1UECgwOd29sZlNTTF9SU0FQU1MxFjAUBgNVBAsMDUNs
aWVudC1SU0FQU1MxGDAWBgNVBAMMD3d3dy53b2xmc3NsLmNvbTEfMB0GCSqGSIb3
DQEJARYQaW5mb0B3b2xmc3NsLmNvbTEXMBUGCgmSJomT8ixkAQEMB3dvbGZTU0ww
HhcNMjUxMTEzMjA0MTIwWhcNMjgwODA5MjA0MTIwWjCBtjELMAkGA1UEBhMCVVMx
EDAOBgNVBAgMB01vbnRhbmExEDAOBgNVBAcMB0JvemVtYW4xFzAVBgNVBAoMDndv
bGZTU0xfUlNBUFNTMRYwFAYDVQQLDA1DbGllbnQtUlNBUFNTMRgwFgYDVQQDDA93
d3cud29sZnNzbC5jb20xHzAdBgkqhkiG9w0BCQEWEGluZm9Ad29sZnNzbC5jb20x
FzAVBgoJkiaJk/IsZAEBDAd3b2xmU1NMMIIBoDALBgkqhkiG9w0BAQoDggGPADCC
AYoCggGBALsGKOR/yUF2vibGqboI5jWcM6A8W6uVI9drYdMui43tHNlXrhpp4s5l
iC5lD8vxecssRpY+P1tZ5be1sTx8JuRWIVFdBHnZf1xxVOkemcH3vmwPe+9GjUAO
o2vOmJtsDW3TJJ2e6GglnEZgkjdicyF3Gr1c8BFt7rlvso42VD7hcms2yYhIhhhs
+Nex4OTXDCoVzJIzhL1xGgdwqgMk4c7CKLjjg/+6GVC3riL9++twcLAtF6A+qoVQ
Q2IkXQBRuBH62MYGQAe9SrBCcFLPF5WxU/xojRO+oA7ES8sXcs3NCy7/ZkJQzHZ9
cE59Yxbl2uH7mWwdBmyr7tM2Tsc0X/fQHlD9/kE5KVzhx7/EUDZ1ijZNCWrKKswa
tw2LFm1IBzlh9cgHWpy/0qXxOTt+v2Ixk7opWskJ1wAwPtgYjJ6nKHVJqok03loU
KV38RwWraoQPVyxkqzuYs9ZIutvxA9Ag95/vfVJQKONI7Sk+/v+Go2Q9fymio5NS
5WrDqRNEzwIDAQABo4IBZzCCAWMwHQYDVR0OBBYEFIwBn04RJCi/PuqC6lQqyQ/1
5MVHMIH2BgNVHSMEge4wgeuAFIwBn04RJCi/PuqC6lQqyQ/15MVHoYG8pIG5MIG2
MQswCQYDVQQGEwJVUzEQMA4GA1UECAwHTW9udGFuYTEQMA4GA1UEBwwHQm96ZW1h
bjEXMBUGA1UECgwOd29sZlNTTF9SU0FQU1MxFjAUBgNVBAsMDUNsaWVudC1SU0FQ
U1MxGDAWBgNVBAMMD3d3dy53b2xmc3NsLmNvbTEfMB0GCSqGSIb3DQEJARYQaW5m
b0B3b2xmc3NsLmNvbTEXMBUGCgmSJomT8ixkAQEMB3dvbGZTU0yCFAIsx7JxyR51
AJgkgcYouKT4TDRKMAwGA1UdEwQFMAMBAf8wHAYDVR0RBBUwE4ILZXhhbXBsZS5j
b22HBH8AAAEwHQYDVR0lBBYwFAYIKwYBBQUHAwEGCCsGAQUFBwMCMEEGCSqGSIb3
DQEBCjA0oA8wDQYJYIZIAWUDBAICBQChHDAaBgkqhkiG9w0BAQgwDQYJYIZIAWUD
BAICBQCiAwIBMAOCAYEAaVgtjo6GVUNwXLG7g7KNMcsEIcC/loKjJ+7TetM9mf+L
NyHR+Lj687gZKyVTBYqu9zbGP/+FoCt+HTt/kUj6jtIE5n6VH6ixKpTJDY465k51
YuIfAxjb4EkAMqvNjN7YlDuoDDui0WYSqWqvd44qVEOYQR9B7H52nYJtsEB04c4i
99DOJDu2ony5Bl/xa/1tZ0sSvPEzEOBBIpYYpmU2fCT6+ZbvEB+1H8W/aKFSwbzV
rmlQAxC/KY6mbAfTebZwcCqY/uf1hN9DbKX6LfdTo0Uk042vX5TO0NVMj1/dPPsq
vSWVKIFRd92MpXjhXzmRdHaKZ8ZeWOda5Vu7K5rAceABRTq0ZbPVeo+llSFi6CyT
hUwnrJzRliIN2rPHD5SYwMQnwkr79fLHrWLXGg/BvpyouVKo5dGyJi9BjuPzGgxu
75uRwhh5aa7Hs3y2iOFKx1YgQrem6PL5zVdIPzACDp2tntgWeX08ECnPqFBcjaID
dFHS+jEn4WAzYBlCL2gY
-----END CERTIFICATE-----
