Certificate:
    Data:
        Version: 3 (0x2)
        Serial Number:
            34:fb:25:ba:76:1a:4b:f9:38:2a:2b:4d:50:17:1e:7b:32:31:e3:30
        Signature Algorithm: rsassaPss         
         Hash Algorithm: sha384
         Mask Algorithm: mgf1 with sha384
          Salt Length: 0x014E
         Trailer Field: 0xBC (default)
        Issuer: C = US, ST = Montana, L = Bozeman, O = wolfSSL_RSAPSS, OU = Client-RSAPSS, CN = www.wolfssl.com, emailAddress = info@wolfssl.com, UID = wolfSSL
        Validity
            Not Before: Jul 25 02:27:55 2022 GMT
            Not After : Apr 20 02:27:55 2025 GMT
        Subject: C = US, ST = Montana, L = Bozeman, O = wolfSSL_RSAPSS, OU = Client-RSAPSS, CN = www.wolfssl.com, emailAddress = info@wolfssl.com, UID = wolfSSL
        Subject Public Key Info:
            Public Key Algorithm: rsassaPss
                RSA-PSS Public-Key: (3072 bit)
                Modulus:
                    00:bb:06:28:e4:7f:c9:41:76:be:26:c6:a9:ba:08:
                    e6:35:9c:33:a0:3c:5b:ab:95:23:d7:6b:61:d3:2e:
                    8b:8d:ed:1c:d9:57:ae:1a:69:e2:ce:65:88:2e:65:
                    0f:cb:f1:79:cb:2c:46:96:3e:3f:5b:59:e5:b7:b5:
                    b1:3c:7c:26:e4:56:21:51:5d:04:79:d9:7f:5c:71:
                    54:e9:1e:99:c1:f7:be:6c:0f:7b:ef:46:8d:40:0e:
                    a3:6b:ce:98:9b:6c:0d:6d:d3:24:9d:9e:e8:68:25:
                    9c:46:60:92:37:62:73:21:77:1a:bd:5c:f0:11:6d:
                    ee:b9:6f:b2:8e:36:54:3e:e1:72:6b:36:c9:88:48:
                    86:18:6c:f8:d7:b1:e0:e4:d7:0c:2a:15:cc:92:33:
                    84:bd:71:1a:07:70:aa:03:24:e1:ce:c2:28:b8:e3:
                    83:ff:ba:19:50:b7:ae:22:fd:fb:eb:70:70:b0:2d:
                    17:a0:3e:aa:85:50:43:62:24:5d:00:51:b8:11:fa:
                    d8:c6:06:40:07:bd:4a:b0:42:70:52:cf:17:95:b1:
                    53:fc:68:8d:13:be:a0:0e:c4:4b:cb:17:72:cd:cd:
                    0b:2e:ff:66:42:50:cc:76:7d:70:4e:7d:63:16:e5:
                    da:e1:fb:99:6c:1d:06:6c:ab:ee:d3:36:4e:c7:34:
                    5f:f7:d0:1e:50:fd:fe:41:39:29:5c:e1:c7:bf:c4:
                    50:36:75:8a:36:4d:09:6a:ca:2a:cc:1a:b7:0d:8b:
                    16:6d:48:07:39:61:f5:c8:07:5a:9c:bf:d2:a5:f1:
                    39:3b:7e:bf:62:31:93:ba:29:5a:c9:09:d7:00:30:
                    3e:d8:18:8c:9e:a7:28:75:49:aa:89:34:de:5a:14:
                    29:5d:fc:47:05:ab:6a:84:0f:57:2c:64:ab:3b:98:
                    b3:d6:48:ba:db:f1:03:d0:20:f7:9f:ef:7d:52:50:
                    28:e3:48:ed:29:3e:fe:ff:86:a3:64:3d:7f:29:a2:
                    a3:93:52:e5:6a:c3:a9:13:44:cf
                Exponent: 65537 (0x10001)
                No PSS parameter restrictions
        X509v3 extensions:
            X509v3 Subject Key Identifier: 
                8C:01:9F:4E:11:24:28:BF:3E:EA:82:EA:54:2A:C9:0F:F5:E4:C5:47
            X509v3 Authority Key Identifier: 
                keyid:8C:01:9F:4E:11:24:28:BF:3E:EA:82:EA:54:2A:C9:0F:F5:E4:C5:47
                DirName:/C=US/ST=Montana/L=Bozeman/O=wolfSSL_RSAPSS/OU=Client-RSAPSS/CN=www.wolfssl.com/emailAddress=info@wolfssl.com/UID=wolfSSL
                serial:34:FB:25:BA:76:1A:4B:F9:38:2A:2B:4D:50:17:1E:7B:32:31:E3:30

            X509v3 Basic Constraints: 
                CA:TRUE
            X509v3 Subject Alternative Name: 
                DNS:example.com, IP Address:127.0.0.1
            X509v3 Extended Key Usage: 
                TLS Web Server Authentication, TLS Web Client Authentication
    Signature Algorithm: rsassaPss         
         Hash Algorithm: sha384
         Mask Algorithm: mgf1 with sha384
          Salt Length: 0x014E
         Trailer Field: 0xBC (default)

         6a:0b:ea:2c:f1:b8:04:d9:8f:a4:a4:be:11:1b:40:2f:dd:bc:
         be:47:bb:1e:3d:ef:05:4f:a2:c4:78:59:79:ca:86:d9:d3:cf:
         f6:61:9d:a7:5c:22:48:de:e0:53:27:8a:59:e2:d7:8d:03:e2:
         0a:64:55:22:81:e9:69:b4:c4:d1:58:84:a7:85:0d:16:d2:c0:
         ee:d7:10:72:46:73:ea:98:61:85:77:a8:b6:40:d4:49:36:a1:
         e0:6f:c8:6c:ec:13:6e:e5:4b:d8:d4:e7:be:03:56:03:d4:6c:
         67:9d:30:c4:c5:78:68:cc:60:e9:88:f7:5a:6f:31:ff:26:63:
         a5:8d:d2:30:cf:a1:bc:fb:3f:d0:2f:a3:ba:d9:03:ec:fb:b8:
         b7:02:46:98:cd:77:40:ba:67:46:55:e9:e3:16:bf:a9:7a:2d:
         49:ee:19:c6:32:c4:04:b1:03:7a:7e:c5:bd:f8:b6:ac:7f:cf:
         4a:ce:af:44:ae:14:cb:c7:69:fe:7c:a3:e7:63:49:b4:3c:e6:
         8b:33:60:92:f7:cf:be:c8:94:c7:f2:3b:d2:03:6b:71:2b:d3:
         f6:e0:e9:b2:ba:e2:2b:56:5e:5b:b1:d7:23:92:53:d4:90:e9:
         64:9e:87:d6:e7:4a:74:7b:a8:78:46:1c:24:19:5b:e0:32:21:
         92:cf:69:b4:c2:4d:62:2f:b5:b9:e5:0c:d6:cc:87:45:a2:4c:
         29:a0:6d:50:60:4e:7b:c8:21:37:a0:12:1b:13:10:6e:ac:5c:
         cc:07:21:ed:0b:e2:81:eb:7c:c8:e0:dc:cb:1f:8c:7e:38:6f:
         1e:1c:ab:91:93:d0:ec:b4:ce:5e:7e:eb:7f:cf:e0:6c:f9:80:
         29:04:4c:e4:e5:ab:69:ff:b3:18:ba:54:09:cd:ef:bd:6f:b7:
         64:1f:33:ef:08:84:93:3a:2b:81:ab:60:98:9c:08:ac:5c:55:
         06:44:bb:e5:4c:92:cb:a6:2f:8f:40:92:2d:80:43:a4:97:28:
         18:17:0e:8e:54:94
-----BEGIN CERTIFICATE-----
MIIGxTCCBPygAwIBAgIUNPslunYaS/k4KitNUBceezIx4zAwPgYJKoZIhvcNAQEK
MDGgDTALBglghkgBZQMEAgKhGjAYBgkqhkiG9w0BAQgwCwYJYIZIAWUDBAICogQC
AgFOMIG2MQswCQYDVQQGEwJVUzEQMA4GA1UECAwHTW9udGFuYTEQMA4GA1UEBwwH
Qm96ZW1hbjEXMBUGA1UECgwOd29sZlNTTF9SU0FQU1MxFjAUBgNVBAsMDUNsaWVu
dC1SU0FQU1MxGDAWBgNVBAMMD3d3dy53b2xmc3NsLmNvbTEfMB0GCSqGSIb3DQEJ
ARYQaW5mb0B3b2xmc3NsLmNvbTEXMBUGCgmSJomT8ixkAQEMB3dvbGZTU0wwHhcN
MjIwNzI1MDIyNzU1WhcNMjUwNDIwMDIyNzU1WjCBtjELMAkGA1UEBhMCVVMxEDAO
BgNVBAgMB01vbnRhbmExEDAOBgNVBAcMB0JvemVtYW4xFzAVBgNVBAoMDndvbGZT
U0xfUlNBUFNTMRYwFAYDVQQLDA1DbGllbnQtUlNBUFNTMRgwFgYDVQQDDA93d3cu
d29sZnNzbC5jb20xHzAdBgkqhkiG9w0BCQEWEGluZm9Ad29sZnNzbC5jb20xFzAV
BgoJkiaJk/IsZAEBDAd3b2xmU1NMMIIBoDALBgkqhkiG9w0BAQoDggGPADCCAYoC
ggGBALsGKOR/yUF2vibGqboI5jWcM6A8W6uVI9drYdMui43tHNlXrhpp4s5liC5l
D8vxecssRpY+P1tZ5be1sTx8JuRWIVFdBHnZf1xxVOkemcH3vmwPe+9GjUAOo2vO
mJtsDW3TJJ2e6GglnEZgkjdicyF3Gr1c8BFt7rlvso42VD7hcms2yYhIhhhs+Nex
4OTXDCoVzJIzhL1xGgdwqgMk4c7CKLjjg/+6GVC3riL9++twcLAtF6A+qoVQQ2Ik
XQBRuBH62MYGQAe9SrBCcFLPF5WxU/xojRO+oA7ES8sXcs3NCy7/ZkJQzHZ9cE59
Yxbl2uH7mWwdBmyr7tM2Tsc0X/fQHlD9/kE5KVzhx7/EUDZ1ijZNCWrKKswatw2L
Fm1IBzlh9cgHWpy/0qXxOTt+v2Ixk7opWskJ1wAwPtgYjJ6nKHVJqok03loUKV38
RwWraoQPVyxkqzuYs9ZIutvxA9Ag95/vfVJQKONI7Sk+/v+Go2Q9fymio5NS5WrD
qRNEzwIDAQABo4IBZzCCAWMwHQYDVR0OBBYEFIwBn04RJCi/PuqC6lQqyQ/15MVH
MIH2BgNVHSMEge4wgeuAFIwBn04RJCi/PuqC6lQqyQ/15MVHoYG8pIG5MIG2MQsw
CQYDVQQGEwJVUzEQMA4GA1UECAwHTW9udGFuYTEQMA4GA1UEBwwHQm96ZW1hbjEX
MBUGA1UECgwOd29sZlNTTF9SU0FQU1MxFjAUBgNVBAsMDUNsaWVudC1SU0FQU1Mx
GDAWBgNVBAMMD3d3dy53b2xmc3NsLmNvbTEfMB0GCSqGSIb3DQEJARYQaW5mb0B3
b2xmc3NsLmNvbTEXMBUGCgmSJomT8ixkAQEMB3dvbGZTU0yCFDT7Jbp2Gkv5OCor
TVAXHnsyMeMwMAwGA1UdEwQFMAMBAf8wHAYDVR0RBBUwE4ILZXhhbXBsZS5jb22H
BH8AAAEwHQYDVR0lBBYwFAYIKwYBBQUHAwEGCCsGAQUFBwMCMD4GCSqGSIb3DQEB
CjAxoA0wCwYJYIZIAWUDBAICoRowGAYJKoZIhvcNAQEIMAsGCWCGSAFlAwQCAqIE
AgIBTgOCAYEAagvqLPG4BNmPpKS+ERtAL928vke7Hj3vBU+ixHhZecqG2dPP9mGd
p1wiSN7gUyeKWeLXjQPiCmRVIoHpabTE0ViEp4UNFtLA7tcQckZz6phhhXeotkDU
STah4G/IbOwTbuVL2NTnvgNWA9RsZ50wxMV4aMxg6Yj3Wm8x/yZjpY3SMM+hvPs/
0C+jutkD7Pu4twJGmM13QLpnRlXp4xa/qXotSe4ZxjLEBLEDen7Fvfi2rH/PSs6v
RK4Uy8dp/nyj52NJtDzmizNgkvfPvsiUx/I70gNrcSvT9uDpsrriK1ZeW7HXI5JT
1JDpZJ6H1udKdHuoeEYcJBlb4DIhks9ptMJNYi+1ueUM1syHRaJMKaBtUGBOe8gh
N6ASGxMQbqxczAch7Qviget8yODcyx+MfjhvHhyrkZPQ7LTOXn7rf8/gbPmAKQRM
5OWraf+zGLpUCc3vvW+3ZB8z7wiEkzorgatgmJwIrFxVBkS75UySy6Yvj0CSLYBD
pJcoGBcOjlSU
-----END CERTIFICATE-----
