Certificate:
    Data:
        Version: 3 (0x2)
        Serial Number:
            1a:41:de:87:82:95:29:6b:93:47:fc:c2:23:5d:d6:64:cb:7d:e3:5b
        Signature Algorithm: rsassaPss        
        Hash Algorithm: sha256
        Mask Algorithm: mgf1 with sha256
         Salt Length: 0x20
        Trailer Field: 0x01 (default)
        Issuer: C=US, ST=Montana, L=Bozeman, O=wolfSSL_RSAPSS, OU=Client-RSAPSS, CN=www.wolfssl.com, emailAddress=facts@wolfssl.com, UID=wolfSSL
        Validity
            Not Before: Jun 11 21:44:30 2026 GMT
            Not After : Mar  7 21:44:30 2029 GMT
        Subject: C=US, ST=Montana, L=Bozeman, O=wolfSSL_RSAPSS, OU=Client-RSAPSS, CN=www.wolfssl.com, emailAddress=facts@wolfssl.com, UID=wolfSSL
        Subject Public Key Info:
            Public Key Algorithm: rsassaPss
                Public-Key: (2048 bit)
                Modulus:
                    00:c6:87:be:60:87:43:7d:c4:ac:e4:fa:3c:12:1d:
                    c7:cf:ea:5c:c4:93:72:e2:0d:37:47:33:3d:e0:a5:
                    ec:57:16:bd:80:2a:5a:f9:a1:b7:ee:6d:46:7c:3a:
                    4e:24:e3:17:62:5a:38:97:0b:03:13:a5:7a:5e:11:
                    a1:50:fb:1b:6d:16:13:56:bb:77:0a:7b:98:cc:85:
                    11:d2:93:31:ed:74:01:38:3d:37:01:36:d6:52:c0:
                    27:fb:53:fb:ae:fd:56:bc:02:80:91:81:cc:ed:51:
                    46:16:7b:1d:8e:f3:06:48:83:28:11:4b:b8:a7:7b:
                    e8:92:8e:93:f4:8d:1d:fa:cc:7c:28:51:3d:21:98:
                    90:3f:80:2a:b9:dc:22:87:f0:8d:b9:a7:bb:cc:a4:
                    dd:25:ad:65:88:28:f1:1c:4f:dc:04:f2:5a:0f:52:
                    b6:35:84:52:18:d7:bf:de:e3:dc:f6:f0:3c:c9:db:
                    cd:b1:48:11:4b:ae:7c:1e:59:ac:b5:8c:ee:2e:83:
                    0f:f5:29:34:39:74:cb:9a:fa:a6:d3:63:d5:69:7a:
                    dc:f2:0d:43:46:03:10:a7:b0:9c:cd:15:b3:36:5e:
                    43:5e:05:4c:03:62:99:29:d0:57:05:e7:54:df:b0:
                    e5:71:39:37:f1:13:66:70:12:f3:87:98:09:8f:1f:
                    e1:e7
                Exponent: 65537 (0x10001)
                PSS parameter restrictions:
                  Hash Algorithm: SHA2-256
                  Mask Algorithm: MGF1 with SHA2-256
                  Minimum Salt Length: 32
                  Trailer Field: 0x1 (default)
        X509v3 extensions:
            X509v3 Subject Key Identifier: 
                59:71:87:88:D0:3E:C7:EE:08:4D:80:F2:C9:FC:CF:3D:76:E6:A5:62
            X509v3 Authority Key Identifier: 
                keyid:59:71:87:88:D0:3E:C7:EE:08:4D:80:F2:C9:FC:CF:3D:76:E6:A5:62
                DirName:/C=US/ST=Montana/L=Bozeman/O=wolfSSL_RSAPSS/OU=Client-RSAPSS/CN=www.wolfssl.com/emailAddress=facts@wolfssl.com/UID=wolfSSL
                serial:1A:41:DE:87:82:95:29:6B:93:47:FC:C2:23:5D:D6:64:CB:7D:E3:5B
            X509v3 Basic Constraints: 
                CA:TRUE
            X509v3 Subject Alternative Name: 
                DNS:example.com, IP Address:127.0.0.1
            X509v3 Extended Key Usage: 
                TLS Web Server Authentication, TLS Web Client Authentication
    Signature Algorithm: rsassaPss
    Signature Value:        
        Hash Algorithm: sha256
        Mask Algorithm: mgf1 with sha256
         Salt Length: 0x20
        Trailer Field: 0x01 (default)
        92:8e:f1:66:7e:db:b7:cf:3d:65:eb:f1:2c:63:39:f0:3d:eb:
        8a:6c:3a:da:7a:ff:8e:27:e4:52:74:df:e0:82:90:b0:99:ef:
        e3:66:c7:b9:aa:ad:82:2b:77:52:7a:7a:e3:3d:6b:00:49:84:
        8c:2a:7c:f0:bc:bc:74:49:18:47:4d:08:19:3f:51:77:47:21:
        b9:93:65:c0:d9:54:a0:21:be:42:b3:25:45:10:37:49:99:a6:
        ce:1a:47:c5:5b:fc:57:fd:08:ef:fa:91:83:f8:2b:d2:79:67:
        4b:77:33:fa:2e:d4:89:ae:2b:b7:84:33:f4:f3:c2:c7:d9:fc:
        4a:52:4f:a3:18:fb:71:a1:73:4e:50:92:92:53:b8:ef:68:e9:
        3a:76:1f:92:ab:42:48:d1:f1:ab:5d:c8:1e:bb:5f:41:df:6b:
        a9:b0:cc:06:04:3c:bc:47:7a:40:1e:5b:f1:73:b2:f9:2d:c1:
        ca:99:42:61:26:8e:b6:a1:97:9c:e5:d1:4d:bf:72:20:30:ae:
        56:60:87:49:bd:0c:6c:f8:76:d0:d7:ee:bd:23:d1:a7:88:80:
        91:70:3d:1e:cb:c8:e5:93:05:aa:62:86:81:17:da:22:ef:58:
        6f:87:d9:c0:72:96:99:ae:4d:b8:a9:84:32:4e:9d:32:c6:20:
        1e:46:3d:1d
-----BEGIN CERTIFICATE-----
MIIGBDCCBLigAwIBAgIUGkHeh4KVKWuTR/zCI13WZMt941swQQYJKoZIhvcNAQEK
MDSgDzANBglghkgBZQMEAgEFAKEcMBoGCSqGSIb3DQEBCDANBglghkgBZQMEAgEF
AKIDAgEgMIG3MQswCQYDVQQGEwJVUzEQMA4GA1UECAwHTW9udGFuYTEQMA4GA1UE
BwwHQm96ZW1hbjEXMBUGA1UECgwOd29sZlNTTF9SU0FQU1MxFjAUBgNVBAsMDUNs
aWVudC1SU0FQU1MxGDAWBgNVBAMMD3d3dy53b2xmc3NsLmNvbTEgMB4GCSqGSIb3
DQEJARYRZmFjdHNAd29sZnNzbC5jb20xFzAVBgoJkiaJk/IsZAEBDAd3b2xmU1NM
MB4XDTI2MDYxMTIxNDQzMFoXDTI5MDMwNzIxNDQzMFowgbcxCzAJBgNVBAYTAlVT
MRAwDgYDVQQIDAdNb250YW5hMRAwDgYDVQQHDAdCb3plbWFuMRcwFQYDVQQKDA53
b2xmU1NMX1JTQVBTUzEWMBQGA1UECwwNQ2xpZW50LVJTQVBTUzEYMBYGA1UEAwwP
d3d3LndvbGZzc2wuY29tMSAwHgYJKoZIhvcNAQkBFhFmYWN0c0B3b2xmc3NsLmNv
bTEXMBUGCgmSJomT8ixkAQEMB3dvbGZTU0wwggFWMEEGCSqGSIb3DQEBCjA0oA8w
DQYJYIZIAWUDBAIBBQChHDAaBgkqhkiG9w0BAQgwDQYJYIZIAWUDBAIBBQCiAwIB
IAOCAQ8AMIIBCgKCAQEAxoe+YIdDfcSs5Po8Eh3Hz+pcxJNy4g03RzM94KXsVxa9
gCpa+aG37m1GfDpOJOMXYlo4lwsDE6V6XhGhUPsbbRYTVrt3CnuYzIUR0pMx7XQB
OD03ATbWUsAn+1P7rv1WvAKAkYHM7VFGFnsdjvMGSIMoEUu4p3voko6T9I0d+sx8
KFE9IZiQP4Aqudwih/CNuae7zKTdJa1liCjxHE/cBPJaD1K2NYRSGNe/3uPc9vA8
ydvNsUgRS658HlmstYzuLoMP9Sk0OXTLmvqm02PVaXrc8g1DRgMQp7CczRWzNl5D
XgVMA2KZKdBXBedU37DlcTk38RNmcBLzh5gJjx/h5wIDAQABo4IBaDCCAWQwHQYD
VR0OBBYEFFlxh4jQPsfuCE2A8sn8zz125qViMIH3BgNVHSMEge8wgeyAFFlxh4jQ
PsfuCE2A8sn8zz125qVioYG9pIG6MIG3MQswCQYDVQQGEwJVUzEQMA4GA1UECAwH
TW9udGFuYTEQMA4GA1UEBwwHQm96ZW1hbjEXMBUGA1UECgwOd29sZlNTTF9SU0FQ
U1MxFjAUBgNVBAsMDUNsaWVudC1SU0FQU1MxGDAWBgNVBAMMD3d3dy53b2xmc3Ns
LmNvbTEgMB4GCSqGSIb3DQEJARYRZmFjdHNAd29sZnNzbC5jb20xFzAVBgoJkiaJ
k/IsZAEBDAd3b2xmU1NMghQaQd6HgpUpa5NH/MIjXdZky33jWzAMBgNVHRMEBTAD
AQH/MBwGA1UdEQQVMBOCC2V4YW1wbGUuY29thwR/AAABMB0GA1UdJQQWMBQGCCsG
AQUFBwMBBggrBgEFBQcDAjBBBgkqhkiG9w0BAQowNKAPMA0GCWCGSAFlAwQCAQUA
oRwwGgYJKoZIhvcNAQEIMA0GCWCGSAFlAwQCAQUAogMCASADggEBAJKO8WZ+27fP
PWXr8SxjOfA964psOtp6/44n5FJ03+CCkLCZ7+Nmx7mqrYIrd1J6euM9awBJhIwq
fPC8vHRJGEdNCBk/UXdHIbmTZcDZVKAhvkKzJUUQN0mZps4aR8Vb/Ff9CO/6kYP4
K9J5Z0t3M/ou1ImuK7eEM/TzwsfZ/EpST6MY+3Ghc05QkpJTuO9o6Tp2H5KrQkjR
8atdyB67X0Hfa6mwzAYEPLxHekAeW/FzsvktwcqZQmEmjrahl5zl0U2/ciAwrlZg
h0m9DGz4dtDX7r0j0aeIgJFwPR7LyOWTBapihoEX2iLvWG+H2cBylpmuTbiphDJO
nTLGIB5GPR0=
-----END CERTIFICATE-----
