Certificate:
    Data:
        Version: 3 (0x2)
        Serial Number:
            11:26:05:9f:3b:69:55:51:a7:bb:43:68:6f:96:08:cf:c8:05:2d:26
        Signature Algorithm: rsassaPss        
        Hash Algorithm: sha384
        Mask Algorithm: mgf1 with sha384
         Salt Length: 0x30
        Trailer Field: 0x01 (default)
        Issuer: C=US, ST=Montana, L=Bozeman, O=wolfSSL_RSAPSS, OU=Client-RSAPSS, CN=www.wolfssl.com, emailAddress=facts@wolfssl.com, UID=wolfSSL
        Validity
            Not Before: Jun 11 21:44:30 2026 GMT
            Not After : Mar  7 21:44:30 2029 GMT
        Subject: C=US, ST=Montana, L=Bozeman, O=wolfSSL_RSAPSS, OU=Client-RSAPSS, CN=www.wolfssl.com, emailAddress=facts@wolfssl.com, UID=wolfSSL
        Subject Public Key Info:
            Public Key Algorithm: rsassaPss
                Public-Key: (3072 bit)
                Modulus:
                    00:bb:06:28:e4:7f:c9:41:76:be:26:c6:a9:ba:08:
                    e6:35:9c:33:a0:3c:5b:ab:95:23:d7:6b:61:d3:2e:
                    8b:8d:ed:1c:d9:57:ae:1a:69:e2:ce:65:88:2e:65:
                    0f:cb:f1:79:cb:2c:46:96:3e:3f:5b:59:e5:b7:b5:
                    b1:3c:7c:26:e4:56:21:51:5d:04:79:d9:7f:5c:71:
                    54:e9:1e:99:c1:f7:be:6c:0f:7b:ef:46:8d:40:0e:
                    a3:6b:ce:98:9b:6c:0d:6d:d3:24:9d:9e:e8:68:25:
                    9c:46:60:92:37:62:73:21:77:1a:bd:5c:f0:11:6d:
                    ee:b9:6f:b2:8e:36:54:3e:e1:72:6b:36:c9:88:48:
                    86:18:6c:f8:d7:b1:e0:e4:d7:0c:2a:15:cc:92:33:
                    84:bd:71:1a:07:70:aa:03:24:e1:ce:c2:28:b8:e3:
                    83:ff:ba:19:50:b7:ae:22:fd:fb:eb:70:70:b0:2d:
                    17:a0:3e:aa:85:50:43:62:24:5d:00:51:b8:11:fa:
                    d8:c6:06:40:07:bd:4a:b0:42:70:52:cf:17:95:b1:
                    53:fc:68:8d:13:be:a0:0e:c4:4b:cb:17:72:cd:cd:
                    0b:2e:ff:66:42:50:cc:76:7d:70:4e:7d:63:16:e5:
                    da:e1:fb:99:6c:1d:06:6c:ab:ee:d3:36:4e:c7:34:
                    5f:f7:d0:1e:50:fd:fe:41:39:29:5c:e1:c7:bf:c4:
                    50:36:75:8a:36:4d:09:6a:ca:2a:cc:1a:b7:0d:8b:
                    16:6d:48:07:39:61:f5:c8:07:5a:9c:bf:d2:a5:f1:
                    39:3b:7e:bf:62:31:93:ba:29:5a:c9:09:d7:00:30:
                    3e:d8:18:8c:9e:a7:28:75:49:aa:89:34:de:5a:14:
                    29:5d:fc:47:05:ab:6a:84:0f:57:2c:64:ab:3b:98:
                    b3:d6:48:ba:db:f1:03:d0:20:f7:9f:ef:7d:52:50:
                    28:e3:48:ed:29:3e:fe:ff:86:a3:64:3d:7f:29:a2:
                    a3:93:52:e5:6a:c3:a9:13:44:cf
                Exponent: 65537 (0x10001)
                No PSS parameter restrictions
        X509v3 extensions:
            X509v3 Subject Key Identifier: 
                8C:01:9F:4E:11:24:28:BF:3E:EA:82:EA:54:2A:C9:0F:F5:E4:C5:47
            X509v3 Authority Key Identifier: 
                keyid:8C:01:9F:4E:11:24:28:BF:3E:EA:82:EA:54:2A:C9:0F:F5:E4:C5:47
                DirName:/C=US/ST=Montana/L=Bozeman/O=wolfSSL_RSAPSS/OU=Client-RSAPSS/CN=www.wolfssl.com/emailAddress=facts@wolfssl.com/UID=wolfSSL
                serial:11:26:05:9F:3B:69:55:51:A7:BB:43:68:6F:96:08:CF:C8:05:2D:26
            X509v3 Basic Constraints: 
                CA:TRUE
            X509v3 Subject Alternative Name: 
                DNS:example.com, IP Address:127.0.0.1
            X509v3 Extended Key Usage: 
                TLS Web Server Authentication, TLS Web Client Authentication
    Signature Algorithm: rsassaPss
    Signature Value:        
        Hash Algorithm: sha384
        Mask Algorithm: mgf1 with sha384
         Salt Length: 0x30
        Trailer Field: 0x01 (default)
        39:1e:ae:97:c4:1c:02:b5:c2:61:5d:7f:19:cb:1f:ae:5c:88:
        cc:b0:27:fa:5c:bd:39:23:8f:0f:1f:73:36:29:09:be:f3:e5:
        b0:9b:3d:5b:17:60:e1:c3:1d:4c:03:6c:bb:a0:90:9d:24:cf:
        67:c5:70:42:87:cd:95:77:da:0c:a9:fb:3f:55:e3:f3:e6:f0:
        fe:1d:31:d9:41:93:82:d2:4d:31:d9:61:84:5e:02:97:d2:a6:
        ba:29:f7:bc:b2:64:eb:73:65:b0:fa:39:b2:9a:5f:11:2d:a8:
        a5:16:17:d5:d0:f1:11:6c:66:fe:f2:7b:7b:57:6b:db:55:87:
        eb:02:3c:2b:86:20:bb:58:9e:a1:0b:36:a6:74:c2:1d:ca:2c:
        23:0d:15:b0:be:56:fb:5a:28:67:5f:23:e7:3b:92:9f:61:d5:
        3b:a8:8a:7c:15:3b:2f:df:07:38:32:68:2b:d7:e9:7d:3b:2c:
        e2:40:c8:56:35:ff:6c:1b:df:e2:f2:ee:93:20:77:3d:97:6a:
        e6:0f:9b:35:6b:b2:ba:37:cc:92:67:12:bf:94:e2:a2:87:ae:
        a3:39:7c:b2:81:a0:88:99:2a:32:5c:6f:10:0d:a4:5c:1f:6a:
        5d:c7:f2:93:0d:ff:63:41:e7:ce:e5:21:aa:aa:03:16:0b:26:
        86:6d:ce:ae:44:0d:1e:9f:4f:56:ed:a0:15:7a:25:ea:22:ea:
        96:c6:f9:4b:17:8b:58:02:11:dc:ea:72:09:29:92:54:28:30:
        16:b4:c3:d0:c3:05:c9:cf:ee:8b:b0:fb:e5:19:c6:17:d9:dd:
        5c:64:83:58:4a:f0:f2:e6:21:f7:84:99:98:6d:db:7b:a9:e3:
        6b:71:1f:5c:54:0b:f2:40:fb:d3:e0:54:9f:ad:4d:2c:30:e8:
        c8:4e:32:de:02:e2:6d:6d:a4:d4:e6:5e:ba:68:fe:66:37:03:
        11:53:2f:c3:51:ec:09:e8:ff:95:5b:ad:35:f5:2a:78:57:a3:
        0b:f1:43:5d:e4:15
-----BEGIN CERTIFICATE-----
MIIGzjCCBQKgAwIBAgIUESYFnztpVVGnu0Nob5YIz8gFLSYwQQYJKoZIhvcNAQEK
MDSgDzANBglghkgBZQMEAgIFAKEcMBoGCSqGSIb3DQEBCDANBglghkgBZQMEAgIF
AKIDAgEwMIG3MQswCQYDVQQGEwJVUzEQMA4GA1UECAwHTW9udGFuYTEQMA4GA1UE
BwwHQm96ZW1hbjEXMBUGA1UECgwOd29sZlNTTF9SU0FQU1MxFjAUBgNVBAsMDUNs
aWVudC1SU0FQU1MxGDAWBgNVBAMMD3d3dy53b2xmc3NsLmNvbTEgMB4GCSqGSIb3
DQEJARYRZmFjdHNAd29sZnNzbC5jb20xFzAVBgoJkiaJk/IsZAEBDAd3b2xmU1NM
MB4XDTI2MDYxMTIxNDQzMFoXDTI5MDMwNzIxNDQzMFowgbcxCzAJBgNVBAYTAlVT
MRAwDgYDVQQIDAdNb250YW5hMRAwDgYDVQQHDAdCb3plbWFuMRcwFQYDVQQKDA53
b2xmU1NMX1JTQVBTUzEWMBQGA1UECwwNQ2xpZW50LVJTQVBTUzEYMBYGA1UEAwwP
d3d3LndvbGZzc2wuY29tMSAwHgYJKoZIhvcNAQkBFhFmYWN0c0B3b2xmc3NsLmNv
bTEXMBUGCgmSJomT8ixkAQEMB3dvbGZTU0wwggGgMAsGCSqGSIb3DQEBCgOCAY8A
MIIBigKCAYEAuwYo5H/JQXa+JsapugjmNZwzoDxbq5Uj12th0y6Lje0c2VeuGmni
zmWILmUPy/F5yyxGlj4/W1nlt7WxPHwm5FYhUV0Eedl/XHFU6R6Zwfe+bA9770aN
QA6ja86Ym2wNbdMknZ7oaCWcRmCSN2JzIXcavVzwEW3uuW+yjjZUPuFyazbJiEiG
GGz417Hg5NcMKhXMkjOEvXEaB3CqAyThzsIouOOD/7oZULeuIv3763BwsC0XoD6q
hVBDYiRdAFG4EfrYxgZAB71KsEJwUs8XlbFT/GiNE76gDsRLyxdyzc0LLv9mQlDM
dn1wTn1jFuXa4fuZbB0GbKvu0zZOxzRf99AeUP3+QTkpXOHHv8RQNnWKNk0Jasoq
zBq3DYsWbUgHOWH1yAdanL/SpfE5O36/YjGTuilayQnXADA+2BiMnqcodUmqiTTe
WhQpXfxHBatqhA9XLGSrO5iz1ki62/ED0CD3n+99UlAo40jtKT7+/4ajZD1/KaKj
k1LlasOpE0TPAgMBAAGjggFoMIIBZDAdBgNVHQ4EFgQUjAGfThEkKL8+6oLqVCrJ
D/XkxUcwgfcGA1UdIwSB7zCB7IAUjAGfThEkKL8+6oLqVCrJD/XkxUehgb2kgbow
gbcxCzAJBgNVBAYTAlVTMRAwDgYDVQQIDAdNb250YW5hMRAwDgYDVQQHDAdCb3pl
bWFuMRcwFQYDVQQKDA53b2xmU1NMX1JTQVBTUzEWMBQGA1UECwwNQ2xpZW50LVJT
QVBTUzEYMBYGA1UEAwwPd3d3LndvbGZzc2wuY29tMSAwHgYJKoZIhvcNAQkBFhFm
YWN0c0B3b2xmc3NsLmNvbTEXMBUGCgmSJomT8ixkAQEMB3dvbGZTU0yCFBEmBZ87
aVVRp7tDaG+WCM/IBS0mMAwGA1UdEwQFMAMBAf8wHAYDVR0RBBUwE4ILZXhhbXBs
ZS5jb22HBH8AAAEwHQYDVR0lBBYwFAYIKwYBBQUHAwEGCCsGAQUFBwMCMEEGCSqG
SIb3DQEBCjA0oA8wDQYJYIZIAWUDBAICBQChHDAaBgkqhkiG9w0BAQgwDQYJYIZI
AWUDBAICBQCiAwIBMAOCAYEAOR6ul8QcArXCYV1/GcsfrlyIzLAn+ly9OSOPDx9z
NikJvvPlsJs9Wxdg4cMdTANsu6CQnSTPZ8VwQofNlXfaDKn7P1Xj8+bw/h0x2UGT
gtJNMdlhhF4Cl9Kmuin3vLJk63NlsPo5sppfES2opRYX1dDxEWxm/vJ7e1dr21WH
6wI8K4Ygu1ieoQs2pnTCHcosIw0VsL5W+1ooZ18j5zuSn2HVO6iKfBU7L98HODJo
K9fpfTss4kDIVjX/bBvf4vLukyB3PZdq5g+bNWuyujfMkmcSv5Tiooeuozl8soGg
iJkqMlxvEA2kXB9qXcfykw3/Y0HnzuUhqqoDFgsmhm3OrkQNHp9PVu2gFXol6iLq
lsb5SxeLWAIR3OpyCSmSVCgwFrTD0MMFyc/ui7D75RnGF9ndXGSDWErw8uYh94SZ
mG3be6nja3EfXFQL8kD70+BUn61NLDDoyE4y3gLibW2k1OZeumj+ZjcDEVMvw1Hs
Cej/lVutNfUqeFejC/FDXeQV
-----END CERTIFICATE-----
