Certificate:
    Data:
        Version: 3 (0x2)
        Serial Number:
            10:71:71:77:7a:99:10:aa:85:48:43:9f:0c:be:07:89:8a:3d:b3:ea
        Signature Algorithm: rsassaPss        
        Hash Algorithm: sha256
        Mask Algorithm: mgf1 with sha256
         Salt Length: 0x20
        Trailer Field: 0x01 (default)
        Issuer: C = US, ST = Montana, L = Bozeman, O = wolfSSL_RSAPSS, OU = Client-RSAPSS, CN = www.wolfssl.com, emailAddress = info@wolfssl.com, UID = wolfSSL
        Validity
            Not Before: Dec 18 21:25:30 2024 GMT
            Not After : Sep 14 21:25:30 2027 GMT
        Subject: C = US, ST = Montana, L = Bozeman, O = wolfSSL_RSAPSS, OU = Client-RSAPSS, CN = www.wolfssl.com, emailAddress = info@wolfssl.com, UID = wolfSSL
        Subject Public Key Info:
            Public Key Algorithm: rsassaPss
                Public-Key: (2048 bit)
                Modulus:
                    00:c6:87:be:60:87:43:7d:c4:ac:e4:fa:3c:12:1d:
                    c7:cf:ea:5c:c4:93:72:e2:0d:37:47:33:3d:e0:a5:
                    ec:57:16:bd:80:2a:5a:f9:a1:b7:ee:6d:46:7c:3a:
                    4e:24:e3:17:62:5a:38:97:0b:03:13:a5:7a:5e:11:
                    a1:50:fb:1b:6d:16:13:56:bb:77:0a:7b:98:cc:85:
                    11:d2:93:31:ed:74:01:38:3d:37:01:36:d6:52:c0:
                    27:fb:53:fb:ae:fd:56:bc:02:80:91:81:cc:ed:51:
                    46:16:7b:1d:8e:f3:06:48:83:28:11:4b:b8:a7:7b:
                    e8:92:8e:93:f4:8d:1d:fa:cc:7c:28:51:3d:21:98:
                    90:3f:80:2a:b9:dc:22:87:f0:8d:b9:a7:bb:cc:a4:
                    dd:25:ad:65:88:28:f1:1c:4f:dc:04:f2:5a:0f:52:
                    b6:35:84:52:18:d7:bf:de:e3:dc:f6:f0:3c:c9:db:
                    cd:b1:48:11:4b:ae:7c:1e:59:ac:b5:8c:ee:2e:83:
                    0f:f5:29:34:39:74:cb:9a:fa:a6:d3:63:d5:69:7a:
                    dc:f2:0d:43:46:03:10:a7:b0:9c:cd:15:b3:36:5e:
                    43:5e:05:4c:03:62:99:29:d0:57:05:e7:54:df:b0:
                    e5:71:39:37:f1:13:66:70:12:f3:87:98:09:8f:1f:
                    e1:e7
                Exponent: 65537 (0x10001)
                PSS parameter restrictions:
                  Hash Algorithm: SHA2-256
                  Mask Algorithm: MGF1 with SHA2-256
                  Minimum Salt Length: 32
                  Trailer Field: 0x1 (default)
        X509v3 extensions:
            X509v3 Subject Key Identifier: 
                59:71:87:88:D0:3E:C7:EE:08:4D:80:F2:C9:FC:CF:3D:76:E6:A5:62
            X509v3 Authority Key Identifier: 
                keyid:59:71:87:88:D0:3E:C7:EE:08:4D:80:F2:C9:FC:CF:3D:76:E6:A5:62
                DirName:/C=US/ST=Montana/L=Bozeman/O=wolfSSL_RSAPSS/OU=Client-RSAPSS/CN=www.wolfssl.com/emailAddress=info@wolfssl.com/UID=wolfSSL
                serial:10:71:71:77:7A:99:10:AA:85:48:43:9F:0C:BE:07:89:8A:3D:B3:EA
            X509v3 Basic Constraints: 
                CA:TRUE
            X509v3 Subject Alternative Name: 
                DNS:example.com, IP Address:127.0.0.1
            X509v3 Extended Key Usage: 
                TLS Web Server Authentication, TLS Web Client Authentication
    Signature Algorithm: rsassaPss
    Signature Value:        
        Hash Algorithm: sha256
        Mask Algorithm: mgf1 with sha256
         Salt Length: 0x20
        Trailer Field: 0x01 (default)
        c5:28:ca:e1:d5:b6:c2:b7:6e:bf:41:9b:6e:09:0f:04:70:7b:
        fc:12:ec:12:45:7b:93:c2:7b:2c:e7:f4:bd:ae:2b:72:0e:3e:
        82:a4:c5:e9:80:75:ad:df:86:2e:44:22:5a:0d:ae:79:d8:d2:
        14:bc:1d:d5:73:55:29:55:6a:33:ae:1e:4a:6e:3f:59:11:a2:
        9f:61:1f:af:46:8f:ee:0e:5e:e2:c4:cf:48:4a:f2:04:b8:2a:
        04:eb:1d:3d:7b:e2:34:a7:67:8d:57:ea:59:1a:8d:e0:22:53:
        83:7a:98:63:8d:93:e5:31:e5:8b:26:2a:56:8b:fc:57:ff:6f:
        bb:f5:92:a4:0c:f3:f6:0d:25:8d:e6:a2:be:86:91:fa:63:0c:
        c4:08:58:59:8d:44:bc:0c:a3:2c:20:07:68:43:66:dc:86:82:
        63:17:5e:1d:28:ba:a5:de:03:5a:0b:dc:10:e6:ae:7e:ce:4b:
        f2:42:41:9f:e7:7f:e9:ad:63:5d:dd:cd:8e:6c:ec:6a:2a:4f:
        97:1b:bb:95:a3:84:88:f5:ef:1e:ed:7a:7f:47:7a:a1:f5:30:
        f6:cb:7f:68:02:24:5b:be:5d:91:2a:38:1d:c7:49:32:a6:24:
        4b:70:db:94:68:3e:65:9a:7d:13:b1:3a:70:a6:e2:be:4f:70:
        b6:5e:dc:32
-----BEGIN CERTIFICATE-----
MIIGATCCBLWgAwIBAgIUEHFxd3qZEKqFSEOfDL4HiYo9s+owQQYJKoZIhvcNAQEK
MDSgDzANBglghkgBZQMEAgEFAKEcMBoGCSqGSIb3DQEBCDANBglghkgBZQMEAgEF
AKIDAgEgMIG2MQswCQYDVQQGEwJVUzEQMA4GA1UECAwHTW9udGFuYTEQMA4GA1UE
BwwHQm96ZW1hbjEXMBUGA1UECgwOd29sZlNTTF9SU0FQU1MxFjAUBgNVBAsMDUNs
aWVudC1SU0FQU1MxGDAWBgNVBAMMD3d3dy53b2xmc3NsLmNvbTEfMB0GCSqGSIb3
DQEJARYQaW5mb0B3b2xmc3NsLmNvbTEXMBUGCgmSJomT8ixkAQEMB3dvbGZTU0ww
HhcNMjQxMjE4MjEyNTMwWhcNMjcwOTE0MjEyNTMwWjCBtjELMAkGA1UEBhMCVVMx
EDAOBgNVBAgMB01vbnRhbmExEDAOBgNVBAcMB0JvemVtYW4xFzAVBgNVBAoMDndv
bGZTU0xfUlNBUFNTMRYwFAYDVQQLDA1DbGllbnQtUlNBUFNTMRgwFgYDVQQDDA93
d3cud29sZnNzbC5jb20xHzAdBgkqhkiG9w0BCQEWEGluZm9Ad29sZnNzbC5jb20x
FzAVBgoJkiaJk/IsZAEBDAd3b2xmU1NMMIIBVjBBBgkqhkiG9w0BAQowNKAPMA0G
CWCGSAFlAwQCAQUAoRwwGgYJKoZIhvcNAQEIMA0GCWCGSAFlAwQCAQUAogMCASAD
ggEPADCCAQoCggEBAMaHvmCHQ33ErOT6PBIdx8/qXMSTcuINN0czPeCl7FcWvYAq
Wvmht+5tRnw6TiTjF2JaOJcLAxOlel4RoVD7G20WE1a7dwp7mMyFEdKTMe10ATg9
NwE21lLAJ/tT+679VrwCgJGBzO1RRhZ7HY7zBkiDKBFLuKd76JKOk/SNHfrMfChR
PSGYkD+AKrncIofwjbmnu8yk3SWtZYgo8RxP3ATyWg9StjWEUhjXv97j3PbwPMnb
zbFIEUuufB5ZrLWM7i6DD/UpNDl0y5r6ptNj1Wl63PINQ0YDEKewnM0VszZeQ14F
TANimSnQVwXnVN+w5XE5N/ETZnAS84eYCY8f4ecCAwEAAaOCAWcwggFjMB0GA1Ud
DgQWBBRZcYeI0D7H7ghNgPLJ/M89dualYjCB9gYDVR0jBIHuMIHrgBRZcYeI0D7H
7ghNgPLJ/M89dualYqGBvKSBuTCBtjELMAkGA1UEBhMCVVMxEDAOBgNVBAgMB01v
bnRhbmExEDAOBgNVBAcMB0JvemVtYW4xFzAVBgNVBAoMDndvbGZTU0xfUlNBUFNT
MRYwFAYDVQQLDA1DbGllbnQtUlNBUFNTMRgwFgYDVQQDDA93d3cud29sZnNzbC5j
b20xHzAdBgkqhkiG9w0BCQEWEGluZm9Ad29sZnNzbC5jb20xFzAVBgoJkiaJk/Is
ZAEBDAd3b2xmU1NMghQQcXF3epkQqoVIQ58MvgeJij2z6jAMBgNVHRMEBTADAQH/
MBwGA1UdEQQVMBOCC2V4YW1wbGUuY29thwR/AAABMB0GA1UdJQQWMBQGCCsGAQUF
BwMBBggrBgEFBQcDAjBBBgkqhkiG9w0BAQowNKAPMA0GCWCGSAFlAwQCAQUAoRww
GgYJKoZIhvcNAQEIMA0GCWCGSAFlAwQCAQUAogMCASADggEBAMUoyuHVtsK3br9B
m24JDwRwe/wS7BJFe5PCeyzn9L2uK3IOPoKkxemAda3fhi5EIloNrnnY0hS8HdVz
VSlVajOuHkpuP1kRop9hH69Gj+4OXuLEz0hK8gS4KgTrHT174jSnZ41X6lkajeAi
U4N6mGONk+Ux5YsmKlaL/Ff/b7v1kqQM8/YNJY3mor6GkfpjDMQIWFmNRLwMoywg
B2hDZtyGgmMXXh0ouqXeA1oL3BDmrn7OS/JCQZ/nf+mtY13dzY5s7GoqT5cbu5Wj
hIj17x7ten9HeqH1MPbLf2gCJFu+XZEqOB3HSTKmJEtw25RoPmWafROxOnCm4r5P
cLZe3DI=
-----END CERTIFICATE-----
