Certificate:
    Data:
        Version: 3 (0x2)
        Serial Number:
            66:c1:2c:85:1b:16:4c:37:fa:23:50:5c:f1:4b:99:11:2f:2c:ea:e0
        Signature Algorithm: rsassaPss         
         Hash Algorithm: sha256
         Mask Algorithm: mgf1 with sha256
          Salt Length: 0x20
         Trailer Field: 0xBC (default)
        Issuer: C = US, ST = Montana, L = Bozeman, O = wolfSSL_RSAPSS, OU = Client-RSAPSS, CN = www.wolfssl.com, emailAddress = info@wolfssl.com, UID = wolfSSL
        Validity
            Not Before: Dec 13 22:19:28 2023 GMT
            Not After : Sep  8 22:19:28 2026 GMT
        Subject: C = US, ST = Montana, L = Bozeman, O = wolfSSL_RSAPSS, OU = Client-RSAPSS, CN = www.wolfssl.com, emailAddress = info@wolfssl.com, UID = wolfSSL
        Subject Public Key Info:
            Public Key Algorithm: rsassaPss
                RSA-PSS Public-Key: (2048 bit)
                Modulus:
                    00:c6:87:be:60:87:43:7d:c4:ac:e4:fa:3c:12:1d:
                    c7:cf:ea:5c:c4:93:72:e2:0d:37:47:33:3d:e0:a5:
                    ec:57:16:bd:80:2a:5a:f9:a1:b7:ee:6d:46:7c:3a:
                    4e:24:e3:17:62:5a:38:97:0b:03:13:a5:7a:5e:11:
                    a1:50:fb:1b:6d:16:13:56:bb:77:0a:7b:98:cc:85:
                    11:d2:93:31:ed:74:01:38:3d:37:01:36:d6:52:c0:
                    27:fb:53:fb:ae:fd:56:bc:02:80:91:81:cc:ed:51:
                    46:16:7b:1d:8e:f3:06:48:83:28:11:4b:b8:a7:7b:
                    e8:92:8e:93:f4:8d:1d:fa:cc:7c:28:51:3d:21:98:
                    90:3f:80:2a:b9:dc:22:87:f0:8d:b9:a7:bb:cc:a4:
                    dd:25:ad:65:88:28:f1:1c:4f:dc:04:f2:5a:0f:52:
                    b6:35:84:52:18:d7:bf:de:e3:dc:f6:f0:3c:c9:db:
                    cd:b1:48:11:4b:ae:7c:1e:59:ac:b5:8c:ee:2e:83:
                    0f:f5:29:34:39:74:cb:9a:fa:a6:d3:63:d5:69:7a:
                    dc:f2:0d:43:46:03:10:a7:b0:9c:cd:15:b3:36:5e:
                    43:5e:05:4c:03:62:99:29:d0:57:05:e7:54:df:b0:
                    e5:71:39:37:f1:13:66:70:12:f3:87:98:09:8f:1f:
                    e1:e7
                Exponent: 65537 (0x10001)
                PSS parameter restrictions:
                  Hash Algorithm: sha256
                  Mask Algorithm: mgf1 with sha256
                  Minimum Salt Length: 0x20
                  Trailer Field: 0xBC (default)
        X509v3 extensions:
            X509v3 Subject Key Identifier: 
                59:71:87:88:D0:3E:C7:EE:08:4D:80:F2:C9:FC:CF:3D:76:E6:A5:62
            X509v3 Authority Key Identifier: 
                keyid:59:71:87:88:D0:3E:C7:EE:08:4D:80:F2:C9:FC:CF:3D:76:E6:A5:62
                DirName:/C=US/ST=Montana/L=Bozeman/O=wolfSSL_RSAPSS/OU=Client-RSAPSS/CN=www.wolfssl.com/emailAddress=info@wolfssl.com/UID=wolfSSL
                serial:66:C1:2C:85:1B:16:4C:37:FA:23:50:5C:F1:4B:99:11:2F:2C:EA:E0

            X509v3 Basic Constraints: 
                CA:TRUE
            X509v3 Subject Alternative Name: 
                DNS:example.com, IP Address:127.0.0.1
            X509v3 Extended Key Usage: 
                TLS Web Server Authentication, TLS Web Client Authentication
    Signature Algorithm: rsassaPss         
         Hash Algorithm: sha256
         Mask Algorithm: mgf1 with sha256
          Salt Length: 0x20
         Trailer Field: 0xBC (default)

         b0:79:5c:92:53:67:6c:04:98:74:61:9e:10:7d:17:59:0e:a6:
         41:0b:84:df:a7:8a:2e:5e:c5:5b:2a:f9:1f:bc:34:36:94:d5:
         d4:cf:fd:91:b6:7c:ee:db:07:21:12:ef:d1:06:ba:99:d1:4c:
         e7:c5:db:96:00:dc:87:a7:40:54:0d:6a:a1:2e:31:34:59:bd:
         02:78:40:85:cb:ea:fc:8c:bc:d6:1a:89:c9:3a:5c:06:c0:b2:
         e6:cc:d2:ba:99:8a:62:81:f0:54:b6:18:56:91:2e:62:e4:16:
         83:30:68:70:1b:bd:18:49:a0:14:a1:8d:10:b5:67:22:09:7d:
         c1:f5:52:cd:9e:7b:bb:9d:64:78:fe:e9:f4:b7:9c:91:23:d5:
         eb:73:f6:64:f8:b2:ec:be:90:da:e1:f0:6e:71:e4:ec:19:91:
         3d:c4:e2:d9:f8:24:0c:93:47:16:57:03:67:1f:81:ac:d3:fb:
         0c:04:d8:20:e1:74:0d:7c:20:99:dd:c5:dc:fd:eb:1e:49:5d:
         1a:e6:7b:fc:77:b0:66:08:7c:c3:9b:9a:77:b6:b9:f7:8c:65:
         21:0c:e8:12:f7:93:a1:c7:2d:03:0e:91:e4:f9:98:68:47:d2:
         5d:c4:53:e7:96:02:76:75:63:f0:d0:67:ca:77:75:bc:1a:87:
         d3:94:99:b1
-----BEGIN CERTIFICATE-----
MIIF9TCCBK2gAwIBAgIUZsEshRsWTDf6I1Bc8UuZES8s6uAwPQYJKoZIhvcNAQEK
MDCgDTALBglghkgBZQMEAgGhGjAYBgkqhkiG9w0BAQgwCwYJYIZIAWUDBAIBogMC
ASAwgbYxCzAJBgNVBAYTAlVTMRAwDgYDVQQIDAdNb250YW5hMRAwDgYDVQQHDAdC
b3plbWFuMRcwFQYDVQQKDA53b2xmU1NMX1JTQVBTUzEWMBQGA1UECwwNQ2xpZW50
LVJTQVBTUzEYMBYGA1UEAwwPd3d3LndvbGZzc2wuY29tMR8wHQYJKoZIhvcNAQkB
FhBpbmZvQHdvbGZzc2wuY29tMRcwFQYKCZImiZPyLGQBAQwHd29sZlNTTDAeFw0y
MzEyMTMyMjE5MjhaFw0yNjA5MDgyMjE5MjhaMIG2MQswCQYDVQQGEwJVUzEQMA4G
A1UECAwHTW9udGFuYTEQMA4GA1UEBwwHQm96ZW1hbjEXMBUGA1UECgwOd29sZlNT
TF9SU0FQU1MxFjAUBgNVBAsMDUNsaWVudC1SU0FQU1MxGDAWBgNVBAMMD3d3dy53
b2xmc3NsLmNvbTEfMB0GCSqGSIb3DQEJARYQaW5mb0B3b2xmc3NsLmNvbTEXMBUG
CgmSJomT8ixkAQEMB3dvbGZTU0wwggFSMD0GCSqGSIb3DQEBCjAwoA0wCwYJYIZI
AWUDBAIBoRowGAYJKoZIhvcNAQEIMAsGCWCGSAFlAwQCAaIDAgEgA4IBDwAwggEK
AoIBAQDGh75gh0N9xKzk+jwSHcfP6lzEk3LiDTdHMz3gpexXFr2AKlr5obfubUZ8
Ok4k4xdiWjiXCwMTpXpeEaFQ+xttFhNWu3cKe5jMhRHSkzHtdAE4PTcBNtZSwCf7
U/uu/Va8AoCRgcztUUYWex2O8wZIgygRS7ine+iSjpP0jR36zHwoUT0hmJA/gCq5
3CKH8I25p7vMpN0lrWWIKPEcT9wE8loPUrY1hFIY17/e49z28DzJ282xSBFLrnwe
Way1jO4ugw/1KTQ5dMua+qbTY9VpetzyDUNGAxCnsJzNFbM2XkNeBUwDYpkp0FcF
51TfsOVxOTfxE2ZwEvOHmAmPH+HnAgMBAAGjggFnMIIBYzAdBgNVHQ4EFgQUWXGH
iNA+x+4ITYDyyfzPPXbmpWIwgfYGA1UdIwSB7jCB64AUWXGHiNA+x+4ITYDyyfzP
PXbmpWKhgbykgbkwgbYxCzAJBgNVBAYTAlVTMRAwDgYDVQQIDAdNb250YW5hMRAw
DgYDVQQHDAdCb3plbWFuMRcwFQYDVQQKDA53b2xmU1NMX1JTQVBTUzEWMBQGA1UE
CwwNQ2xpZW50LVJTQVBTUzEYMBYGA1UEAwwPd3d3LndvbGZzc2wuY29tMR8wHQYJ
KoZIhvcNAQkBFhBpbmZvQHdvbGZzc2wuY29tMRcwFQYKCZImiZPyLGQBAQwHd29s
ZlNTTIIUZsEshRsWTDf6I1Bc8UuZES8s6uAwDAYDVR0TBAUwAwEB/zAcBgNVHREE
FTATggtleGFtcGxlLmNvbYcEfwAAATAdBgNVHSUEFjAUBggrBgEFBQcDAQYIKwYB
BQUHAwIwPQYJKoZIhvcNAQEKMDCgDTALBglghkgBZQMEAgGhGjAYBgkqhkiG9w0B
AQgwCwYJYIZIAWUDBAIBogMCASADggEBALB5XJJTZ2wEmHRhnhB9F1kOpkELhN+n
ii5exVsq+R+8NDaU1dTP/ZG2fO7bByES79EGupnRTOfF25YA3IenQFQNaqEuMTRZ
vQJ4QIXL6vyMvNYaick6XAbAsubM0rqZimKB8FS2GFaRLmLkFoMwaHAbvRhJoBSh
jRC1ZyIJfcH1Us2ee7udZHj+6fS3nJEj1etz9mT4suy+kNrh8G5x5OwZkT3E4tn4
JAyTRxZXA2cfgazT+wwE2CDhdA18IJndxdz96x5JXRrme/x3sGYIfMObmne2ufeM
ZSEM6BL3k6HHLQMOkeT5mGhH0l3EU+eWAnZ1Y/DQZ8p3dbwah9OUmbE=
-----END CERTIFICATE-----
