Certificate:
    Data:
        Version: 3 (0x2)
        Serial Number:
            73:56:59:cf:75:e8:79:e0:64:40:c6:b8:5c:1b:20:91:c7:5b:be:d4
        Signature Algorithm: rsassaPss        
        Hash Algorithm: sha256
        Mask Algorithm: mgf1 with sha256
         Salt Length: 0x20
        Trailer Field: 0x01 (default)
        Issuer: C=US, ST=Montana, L=Bozeman, O=wolfSSL_RSAPSS, OU=Client-RSAPSS, CN=www.wolfssl.com, emailAddress=info@wolfssl.com, UID=wolfSSL
        Validity
            Not Before: Nov 13 20:41:19 2025 GMT
            Not After : Aug  9 20:41:19 2028 GMT
        Subject: C=US, ST=Montana, L=Bozeman, O=wolfSSL_RSAPSS, OU=Client-RSAPSS, CN=www.wolfssl.com, emailAddress=info@wolfssl.com, UID=wolfSSL
        Subject Public Key Info:
            Public Key Algorithm: rsassaPss
                Public-Key: (2048 bit)
                Modulus:
                    00:c6:87:be:60:87:43:7d:c4:ac:e4:fa:3c:12:1d:
                    c7:cf:ea:5c:c4:93:72:e2:0d:37:47:33:3d:e0:a5:
                    ec:57:16:bd:80:2a:5a:f9:a1:b7:ee:6d:46:7c:3a:
                    4e:24:e3:17:62:5a:38:97:0b:03:13:a5:7a:5e:11:
                    a1:50:fb:1b:6d:16:13:56:bb:77:0a:7b:98:cc:85:
                    11:d2:93:31:ed:74:01:38:3d:37:01:36:d6:52:c0:
                    27:fb:53:fb:ae:fd:56:bc:02:80:91:81:cc:ed:51:
                    46:16:7b:1d:8e:f3:06:48:83:28:11:4b:b8:a7:7b:
                    e8:92:8e:93:f4:8d:1d:fa:cc:7c:28:51:3d:21:98:
                    90:3f:80:2a:b9:dc:22:87:f0:8d:b9:a7:bb:cc:a4:
                    dd:25:ad:65:88:28:f1:1c:4f:dc:04:f2:5a:0f:52:
                    b6:35:84:52:18:d7:bf:de:e3:dc:f6:f0:3c:c9:db:
                    cd:b1:48:11:4b:ae:7c:1e:59:ac:b5:8c:ee:2e:83:
                    0f:f5:29:34:39:74:cb:9a:fa:a6:d3:63:d5:69:7a:
                    dc:f2:0d:43:46:03:10:a7:b0:9c:cd:15:b3:36:5e:
                    43:5e:05:4c:03:62:99:29:d0:57:05:e7:54:df:b0:
                    e5:71:39:37:f1:13:66:70:12:f3:87:98:09:8f:1f:
                    e1:e7
                Exponent: 65537 (0x10001)
                PSS parameter restrictions:
                  Hash Algorithm: SHA2-256
                  Mask Algorithm: MGF1 with SHA2-256
                  Minimum Salt Length: 32
                  Trailer Field: 0x1 (default)
        X509v3 extensions:
            X509v3 Subject Key Identifier: 
                59:71:87:88:D0:3E:C7:EE:08:4D:80:F2:C9:FC:CF:3D:76:E6:A5:62
            X509v3 Authority Key Identifier: 
                keyid:59:71:87:88:D0:3E:C7:EE:08:4D:80:F2:C9:FC:CF:3D:76:E6:A5:62
                DirName:/C=US/ST=Montana/L=Bozeman/O=wolfSSL_RSAPSS/OU=Client-RSAPSS/CN=www.wolfssl.com/emailAddress=info@wolfssl.com/UID=wolfSSL
                serial:73:56:59:CF:75:E8:79:E0:64:40:C6:B8:5C:1B:20:91:C7:5B:BE:D4
            X509v3 Basic Constraints: 
                CA:TRUE
            X509v3 Subject Alternative Name: 
                DNS:example.com, IP Address:127.0.0.1
            X509v3 Extended Key Usage: 
                TLS Web Server Authentication, TLS Web Client Authentication
    Signature Algorithm: rsassaPss
    Signature Value:        
        Hash Algorithm: sha256
        Mask Algorithm: mgf1 with sha256
         Salt Length: 0x20
        Trailer Field: 0x01 (default)
        0b:9a:f5:9e:ed:f0:d4:c5:e9:3e:e0:5c:99:84:ed:47:27:4e:
        c1:b2:db:c0:14:30:e8:f2:66:24:9e:ac:6f:be:97:68:cc:d4:
        e2:6c:fd:6d:8e:9d:45:81:90:dc:aa:bc:24:41:b2:e7:92:7c:
        73:73:6a:38:95:c8:0d:d3:ad:6a:b5:ea:aa:66:89:1f:a7:17:
        ca:8e:21:09:b9:e3:e6:bc:7a:58:1d:d0:f3:94:37:ee:53:7e:
        1c:db:02:9b:46:76:f1:35:a4:14:a5:f7:57:1d:18:21:c3:7a:
        6b:a9:35:32:d2:ee:fb:b5:e7:4d:db:49:6b:11:2d:ec:39:49:
        f4:42:95:1c:87:ac:32:3b:4b:a1:2e:24:20:ea:ce:50:0d:f9:
        51:ca:c9:fb:bc:89:4c:84:38:5d:16:c6:fb:d0:0f:62:35:65:
        dd:f4:89:57:38:93:8c:a4:b5:83:9a:e6:5a:32:77:31:f5:63:
        16:b7:18:40:d8:7f:f6:17:65:3e:4d:4d:03:d0:08:e1:07:3d:
        97:06:bb:50:62:9a:8a:4a:58:7e:b2:4e:bc:f2:4d:b9:8f:99:
        e1:6e:55:39:3d:25:ff:ea:02:5f:d2:80:3c:bc:86:62:bf:94:
        ce:f5:26:c5:6f:47:ca:ea:9b:00:af:5d:46:e5:b9:e6:d0:95:
        a6:af:ab:d2
-----BEGIN CERTIFICATE-----
MIIGATCCBLWgAwIBAgIUc1ZZz3XoeeBkQMa4XBsgkcdbvtQwQQYJKoZIhvcNAQEK
MDSgDzANBglghkgBZQMEAgEFAKEcMBoGCSqGSIb3DQEBCDANBglghkgBZQMEAgEF
AKIDAgEgMIG2MQswCQYDVQQGEwJVUzEQMA4GA1UECAwHTW9udGFuYTEQMA4GA1UE
BwwHQm96ZW1hbjEXMBUGA1UECgwOd29sZlNTTF9SU0FQU1MxFjAUBgNVBAsMDUNs
aWVudC1SU0FQU1MxGDAWBgNVBAMMD3d3dy53b2xmc3NsLmNvbTEfMB0GCSqGSIb3
DQEJARYQaW5mb0B3b2xmc3NsLmNvbTEXMBUGCgmSJomT8ixkAQEMB3dvbGZTU0ww
HhcNMjUxMTEzMjA0MTE5WhcNMjgwODA5MjA0MTE5WjCBtjELMAkGA1UEBhMCVVMx
EDAOBgNVBAgMB01vbnRhbmExEDAOBgNVBAcMB0JvemVtYW4xFzAVBgNVBAoMDndv
bGZTU0xfUlNBUFNTMRYwFAYDVQQLDA1DbGllbnQtUlNBUFNTMRgwFgYDVQQDDA93
d3cud29sZnNzbC5jb20xHzAdBgkqhkiG9w0BCQEWEGluZm9Ad29sZnNzbC5jb20x
FzAVBgoJkiaJk/IsZAEBDAd3b2xmU1NMMIIBVjBBBgkqhkiG9w0BAQowNKAPMA0G
CWCGSAFlAwQCAQUAoRwwGgYJKoZIhvcNAQEIMA0GCWCGSAFlAwQCAQUAogMCASAD
ggEPADCCAQoCggEBAMaHvmCHQ33ErOT6PBIdx8/qXMSTcuINN0czPeCl7FcWvYAq
Wvmht+5tRnw6TiTjF2JaOJcLAxOlel4RoVD7G20WE1a7dwp7mMyFEdKTMe10ATg9
NwE21lLAJ/tT+679VrwCgJGBzO1RRhZ7HY7zBkiDKBFLuKd76JKOk/SNHfrMfChR
PSGYkD+AKrncIofwjbmnu8yk3SWtZYgo8RxP3ATyWg9StjWEUhjXv97j3PbwPMnb
zbFIEUuufB5ZrLWM7i6DD/UpNDl0y5r6ptNj1Wl63PINQ0YDEKewnM0VszZeQ14F
TANimSnQVwXnVN+w5XE5N/ETZnAS84eYCY8f4ecCAwEAAaOCAWcwggFjMB0GA1Ud
DgQWBBRZcYeI0D7H7ghNgPLJ/M89dualYjCB9gYDVR0jBIHuMIHrgBRZcYeI0D7H
7ghNgPLJ/M89dualYqGBvKSBuTCBtjELMAkGA1UEBhMCVVMxEDAOBgNVBAgMB01v
bnRhbmExEDAOBgNVBAcMB0JvemVtYW4xFzAVBgNVBAoMDndvbGZTU0xfUlNBUFNT
MRYwFAYDVQQLDA1DbGllbnQtUlNBUFNTMRgwFgYDVQQDDA93d3cud29sZnNzbC5j
b20xHzAdBgkqhkiG9w0BCQEWEGluZm9Ad29sZnNzbC5jb20xFzAVBgoJkiaJk/Is
ZAEBDAd3b2xmU1NMghRzVlnPdeh54GRAxrhcGyCRx1u+1DAMBgNVHRMEBTADAQH/
MBwGA1UdEQQVMBOCC2V4YW1wbGUuY29thwR/AAABMB0GA1UdJQQWMBQGCCsGAQUF
BwMBBggrBgEFBQcDAjBBBgkqhkiG9w0BAQowNKAPMA0GCWCGSAFlAwQCAQUAoRww
GgYJKoZIhvcNAQEIMA0GCWCGSAFlAwQCAQUAogMCASADggEBAAua9Z7t8NTF6T7g
XJmE7UcnTsGy28AUMOjyZiSerG++l2jM1OJs/W2OnUWBkNyqvCRBsueSfHNzajiV
yA3TrWq16qpmiR+nF8qOIQm54+a8elgd0POUN+5TfhzbAptGdvE1pBSl91cdGCHD
emupNTLS7vu1503bSWsRLew5SfRClRyHrDI7S6EuJCDqzlAN+VHKyfu8iUyEOF0W
xvvQD2I1Zd30iVc4k4yktYOa5loydzH1Yxa3GEDYf/YXZT5NTQPQCOEHPZcGu1Bi
mopKWH6yTrzyTbmPmeFuVTk9Jf/qAl/SgDy8hmK/lM71JsVvR8rqmwCvXUbluebQ
laavq9I=
-----END CERTIFICATE-----
