Certificate:
    Data:
        Version: 3 (0x2)
        Serial Number:
            73:13:23:bb:43:e9:76:b0:ce:25:f7:d5:65:b4:8f:7a:e5:7f:be:4f
        Signature Algorithm: rsassaPss         
         Hash Algorithm: sha256
         Mask Algorithm: mgf1 with sha256
          Salt Length: 0x20
         Trailer Field: 0xBC (default)
        Issuer: C = US, ST = Montana, L = Bozeman, O = wolfSSL_RSA-PSS, OU = Root-RSA-PSS, CN = www.wolfssl.com, emailAddress = info@wolfssl.com
        Validity
            Not Before: Dec 13 22:19:28 2023 GMT
            Not After : Sep  8 22:19:28 2026 GMT
        Subject: C = US, ST = Montana, L = Bozeman, O = wolfSSL_RSA-PSS, OU = Root-RSA-PSS, CN = www.wolfssl.com, emailAddress = info@wolfssl.com
        Subject Public Key Info:
            Public Key Algorithm: rsassaPss
                RSA-PSS Public-Key: (2048 bit)
                Modulus:
                    00:99:0a:01:b6:d1:40:7b:0c:ae:17:7e:e1:5c:8d:
                    fb:6b:cc:8f:06:51:75:e6:f0:97:ce:2f:76:fa:31:
                    bd:ef:79:b2:2e:e4:b5:11:1f:cb:29:ad:17:ee:32:
                    29:04:9a:9a:15:43:4c:e7:67:b8:0e:78:cf:eb:de:
                    38:6b:42:39:65:90:19:e0:5b:94:8e:e8:e2:18:4b:
                    c5:d2:6e:d6:78:f0:89:c3:d9:b0:dc:16:7e:68:72:
                    b5:0a:1b:ce:b2:24:8c:a0:c7:fc:c6:d8:72:ac:b7:
                    78:c3:05:7a:d7:78:aa:7c:ab:ac:8c:af:0a:d7:eb:
                    4b:b5:2c:40:dd:be:5a:4a:4d:6d:93:02:69:e2:08:
                    e5:97:a9:40:6e:18:38:6d:ef:8e:27:e3:58:fb:f3:
                    9b:f1:19:f9:90:9a:46:8e:27:96:68:ff:76:c3:36:
                    e3:73:e2:eb:cd:00:97:35:e9:64:cd:3b:0d:e3:f2:
                    02:fb:80:aa:dd:55:e1:2d:10:3f:08:62:be:ab:dc:
                    48:0c:85:b5:5e:fb:12:c9:9e:c0:bb:f1:0a:18:6c:
                    15:f9:e7:44:4a:15:09:73:49:d8:0c:96:f7:dc:d0:
                    02:62:ca:91:81:f4:b2:3c:ba:25:a9:98:84:d0:75:
                    2a:b1:7f:8f:9d:f8:ca:96:e0:82:94:e3:8a:b3:f6:
                    ef:f5
                Exponent: 65537 (0x10001)
                PSS parameter restrictions:
                  Hash Algorithm: sha256
                  Mask Algorithm: mgf1 with sha256
                  Minimum Salt Length: 0x20
                  Trailer Field: 0xBC (default)
        X509v3 extensions:
            X509v3 Subject Key Identifier: 
                64:D5:EC:82:87:80:DE:5A:ED:49:98:D8:0C:54:7D:46:9E:A5:3C:D6
            X509v3 Authority Key Identifier: 
                keyid:64:D5:EC:82:87:80:DE:5A:ED:49:98:D8:0C:54:7D:46:9E:A5:3C:D6

            X509v3 Basic Constraints: critical
                CA:TRUE
            X509v3 Key Usage: critical
                Digital Signature, Certificate Sign, CRL Sign
    Signature Algorithm: rsassaPss         
         Hash Algorithm: sha256
         Mask Algorithm: mgf1 with sha256
          Salt Length: 0x20
         Trailer Field: 0xBC (default)

         0f:1c:2d:bd:46:35:3b:80:d7:d1:45:74:d4:54:8d:ff:b0:29:
         06:be:e4:c7:cc:93:06:9d:2c:0f:7d:82:2a:76:ed:36:4a:71:
         cd:6b:47:94:e9:c9:29:c7:17:4e:c4:0a:0d:4a:53:92:fb:72:
         b8:a7:a1:bb:87:fc:e1:7e:51:1b:b5:d7:34:63:7e:9f:ff:70:
         2a:45:3c:db:fc:0a:d6:59:3a:76:30:09:81:40:94:28:4b:ca:
         36:62:1f:d9:8a:58:3d:b1:3e:8e:9e:c2:01:2c:f9:aa:71:61:
         0c:6f:46:99:c8:cb:a6:c5:9e:4a:40:3d:84:af:2f:0c:45:59:
         f5:a9:c5:44:b6:4d:b7:d5:fd:5d:f3:5b:8d:0b:6a:69:e7:30:
         76:76:ef:ee:ad:80:e3:45:92:a9:fa:32:43:bc:2c:c5:51:f4:
         6e:3a:42:8e:fc:a1:eb:03:ca:3c:c5:fc:d7:62:cb:d5:34:92:
         59:2d:f7:d0:fc:f2:e1:2c:5c:c2:94:f4:9d:3b:8f:d8:46:ed:
         29:21:5c:1b:c6:da:30:71:8d:9f:00:03:82:34:33:1d:d7:20:
         e8:4f:9f:9e:bd:91:25:fa:f7:0b:6a:64:99:ad:f3:f7:66:a4:
         cd:b3:6d:e7:ec:06:9b:88:ce:a7:ef:59:e3:d0:6c:22:af:b8:
         ce:7a:3b:60
-----BEGIN CERTIFICATE-----
MIIEvTCCA3WgAwIBAgIUcxMju0PpdrDOJffVZbSPeuV/vk8wPQYJKoZIhvcNAQEK
MDCgDTALBglghkgBZQMEAgGhGjAYBgkqhkiG9w0BAQgwCwYJYIZIAWUDBAIBogMC
ASAwgZ0xCzAJBgNVBAYTAlVTMRAwDgYDVQQIDAdNb250YW5hMRAwDgYDVQQHDAdC
b3plbWFuMRgwFgYDVQQKDA93b2xmU1NMX1JTQS1QU1MxFTATBgNVBAsMDFJvb3Qt
UlNBLVBTUzEYMBYGA1UEAwwPd3d3LndvbGZzc2wuY29tMR8wHQYJKoZIhvcNAQkB
FhBpbmZvQHdvbGZzc2wuY29tMB4XDTIzMTIxMzIyMTkyOFoXDTI2MDkwODIyMTky
OFowgZ0xCzAJBgNVBAYTAlVTMRAwDgYDVQQIDAdNb250YW5hMRAwDgYDVQQHDAdC
b3plbWFuMRgwFgYDVQQKDA93b2xmU1NMX1JTQS1QU1MxFTATBgNVBAsMDFJvb3Qt
UlNBLVBTUzEYMBYGA1UEAwwPd3d3LndvbGZzc2wuY29tMR8wHQYJKoZIhvcNAQkB
FhBpbmZvQHdvbGZzc2wuY29tMIIBUjA9BgkqhkiG9w0BAQowMKANMAsGCWCGSAFl
AwQCAaEaMBgGCSqGSIb3DQEBCDALBglghkgBZQMEAgGiAwIBIAOCAQ8AMIIBCgKC
AQEAmQoBttFAewyuF37hXI37a8yPBlF15vCXzi92+jG973myLuS1ER/LKa0X7jIp
BJqaFUNM52e4DnjP6944a0I5ZZAZ4FuUjujiGEvF0m7WePCJw9mw3BZ+aHK1ChvO
siSMoMf8xthyrLd4wwV613iqfKusjK8K1+tLtSxA3b5aSk1tkwJp4gjll6lAbhg4
be+OJ+NY+/Ob8Rn5kJpGjieWaP92wzbjc+LrzQCXNelkzTsN4/IC+4Cq3VXhLRA/
CGK+q9xIDIW1XvsSyZ7Au/EKGGwV+edEShUJc0nYDJb33NACYsqRgfSyPLolqZiE
0HUqsX+PnfjKluCClOOKs/bv9QIDAQABo2MwYTAdBgNVHQ4EFgQUZNXsgoeA3lrt
SZjYDFR9Rp6lPNYwHwYDVR0jBBgwFoAUZNXsgoeA3lrtSZjYDFR9Rp6lPNYwDwYD
VR0TAQH/BAUwAwEB/zAOBgNVHQ8BAf8EBAMCAYYwPQYJKoZIhvcNAQEKMDCgDTAL
BglghkgBZQMEAgGhGjAYBgkqhkiG9w0BAQgwCwYJYIZIAWUDBAIBogMCASADggEB
AA8cLb1GNTuA19FFdNRUjf+wKQa+5MfMkwadLA99gip27TZKcc1rR5TpySnHF07E
Cg1KU5L7crinobuH/OF+URu11zRjfp//cCpFPNv8CtZZOnYwCYFAlChLyjZiH9mK
WD2xPo6ewgEs+apxYQxvRpnIy6bFnkpAPYSvLwxFWfWpxUS2TbfV/V3zW40Lamnn
MHZ27+6tgONFkqn6MkO8LMVR9G46Qo78oesDyjzF/Ndiy9U0klkt99D88uEsXMKU
9J07j9hG7SkhXBvG2jBxjZ8AA4I0Mx3XIOhPn569kSX69wtqZJmt8/dmpM2zbefs
BpuIzqfvWePQbCKvuM56O2A=
-----END CERTIFICATE-----
