Certificate:
    Data:
        Version: 3 (0x2)
        Serial Number:
            66:22:5a:47:2f:3a:53:eb:20:9d:d8:c3:4c:83:27:62:d9:b8:8b:b8
        Signature Algorithm: rsassaPss        
        Hash Algorithm: sha256
        Mask Algorithm: mgf1 with sha256
         Salt Length: 0x20
        Trailer Field: 0x01 (default)
        Issuer: C=US, ST=Montana, L=Bozeman, O=wolfSSL_RSA-PSS, OU=Root-RSA-PSS, CN=www.wolfssl.com, emailAddress=info@wolfssl.com
        Validity
            Not Before: Nov 13 20:41:18 2025 GMT
            Not After : Aug  9 20:41:18 2028 GMT
        Subject: C=US, ST=Montana, L=Bozeman, O=wolfSSL_RSA-PSS, OU=Root-RSA-PSS, CN=www.wolfssl.com, emailAddress=info@wolfssl.com
        Subject Public Key Info:
            Public Key Algorithm: rsassaPss
                Public-Key: (2048 bit)
                Modulus:
                    00:99:0a:01:b6:d1:40:7b:0c:ae:17:7e:e1:5c:8d:
                    fb:6b:cc:8f:06:51:75:e6:f0:97:ce:2f:76:fa:31:
                    bd:ef:79:b2:2e:e4:b5:11:1f:cb:29:ad:17:ee:32:
                    29:04:9a:9a:15:43:4c:e7:67:b8:0e:78:cf:eb:de:
                    38:6b:42:39:65:90:19:e0:5b:94:8e:e8:e2:18:4b:
                    c5:d2:6e:d6:78:f0:89:c3:d9:b0:dc:16:7e:68:72:
                    b5:0a:1b:ce:b2:24:8c:a0:c7:fc:c6:d8:72:ac:b7:
                    78:c3:05:7a:d7:78:aa:7c:ab:ac:8c:af:0a:d7:eb:
                    4b:b5:2c:40:dd:be:5a:4a:4d:6d:93:02:69:e2:08:
                    e5:97:a9:40:6e:18:38:6d:ef:8e:27:e3:58:fb:f3:
                    9b:f1:19:f9:90:9a:46:8e:27:96:68:ff:76:c3:36:
                    e3:73:e2:eb:cd:00:97:35:e9:64:cd:3b:0d:e3:f2:
                    02:fb:80:aa:dd:55:e1:2d:10:3f:08:62:be:ab:dc:
                    48:0c:85:b5:5e:fb:12:c9:9e:c0:bb:f1:0a:18:6c:
                    15:f9:e7:44:4a:15:09:73:49:d8:0c:96:f7:dc:d0:
                    02:62:ca:91:81:f4:b2:3c:ba:25:a9:98:84:d0:75:
                    2a:b1:7f:8f:9d:f8:ca:96:e0:82:94:e3:8a:b3:f6:
                    ef:f5
                Exponent: 65537 (0x10001)
                PSS parameter restrictions:
                  Hash Algorithm: SHA2-256
                  Mask Algorithm: MGF1 with SHA2-256
                  Minimum Salt Length: 32
                  Trailer Field: 0x1 (default)
        X509v3 extensions:
            X509v3 Subject Key Identifier: 
                64:D5:EC:82:87:80:DE:5A:ED:49:98:D8:0C:54:7D:46:9E:A5:3C:D6
            X509v3 Authority Key Identifier: 
                64:D5:EC:82:87:80:DE:5A:ED:49:98:D8:0C:54:7D:46:9E:A5:3C:D6
            X509v3 Basic Constraints: critical
                CA:TRUE
            X509v3 Key Usage: critical
                Digital Signature, Certificate Sign, CRL Sign
    Signature Algorithm: rsassaPss
    Signature Value:        
        Hash Algorithm: sha256
        Mask Algorithm: mgf1 with sha256
         Salt Length: 0x20
        Trailer Field: 0x01 (default)
        3a:bd:e2:e3:8f:c5:86:56:7d:8e:0a:f5:6c:a1:47:89:54:1a:
        0d:80:43:77:97:25:fc:ea:a1:57:f9:94:c0:04:cb:a6:87:d7:
        39:c1:c3:aa:8b:1c:fb:f6:a0:2c:9e:14:ad:a1:06:48:8d:e1:
        cb:89:85:39:5e:e9:67:c8:55:16:fa:3d:51:09:9a:b8:a1:74:
        b6:f6:46:51:27:1b:19:ce:27:29:27:3e:cd:3a:e3:92:51:f6:
        d3:50:be:4c:d6:89:db:34:77:40:35:f8:60:bc:2e:fe:7a:e7:
        61:38:d1:57:f1:0f:dd:3b:33:7e:6f:0d:fa:b2:a0:0a:c3:7f:
        0f:dc:73:ac:0c:19:62:3b:e0:85:0b:56:4b:55:a1:d5:f6:52:
        ec:4f:82:6f:a3:02:8e:6f:54:ed:f6:c9:b6:19:57:1c:2a:25:
        b1:62:c8:f5:3a:6c:22:3b:14:7f:e2:c6:4b:fb:66:a2:43:2c:
        5d:c9:1b:72:47:95:30:59:c5:81:66:b7:e3:df:87:4a:00:91:
        8d:db:2d:06:a3:c4:4d:76:20:db:d0:09:7a:48:ee:2f:ab:99:
        d0:40:e8:df:28:ec:75:da:24:4a:be:0a:e6:7c:3b:b7:ef:82:
        f2:84:77:81:30:0e:42:23:d7:d8:94:4b:0b:1d:a6:0b:01:1d:
        eb:d8:05:6b
-----BEGIN CERTIFICATE-----
MIIEyTCCA32gAwIBAgIUZiJaRy86U+sgndjDTIMnYtm4i7gwQQYJKoZIhvcNAQEK
MDSgDzANBglghkgBZQMEAgEFAKEcMBoGCSqGSIb3DQEBCDANBglghkgBZQMEAgEF
AKIDAgEgMIGdMQswCQYDVQQGEwJVUzEQMA4GA1UECAwHTW9udGFuYTEQMA4GA1UE
BwwHQm96ZW1hbjEYMBYGA1UECgwPd29sZlNTTF9SU0EtUFNTMRUwEwYDVQQLDAxS
b290LVJTQS1QU1MxGDAWBgNVBAMMD3d3dy53b2xmc3NsLmNvbTEfMB0GCSqGSIb3
DQEJARYQaW5mb0B3b2xmc3NsLmNvbTAeFw0yNTExMTMyMDQxMThaFw0yODA4MDky
MDQxMThaMIGdMQswCQYDVQQGEwJVUzEQMA4GA1UECAwHTW9udGFuYTEQMA4GA1UE
BwwHQm96ZW1hbjEYMBYGA1UECgwPd29sZlNTTF9SU0EtUFNTMRUwEwYDVQQLDAxS
b290LVJTQS1QU1MxGDAWBgNVBAMMD3d3dy53b2xmc3NsLmNvbTEfMB0GCSqGSIb3
DQEJARYQaW5mb0B3b2xmc3NsLmNvbTCCAVYwQQYJKoZIhvcNAQEKMDSgDzANBglg
hkgBZQMEAgEFAKEcMBoGCSqGSIb3DQEBCDANBglghkgBZQMEAgEFAKIDAgEgA4IB
DwAwggEKAoIBAQCZCgG20UB7DK4XfuFcjftrzI8GUXXm8JfOL3b6Mb3vebIu5LUR
H8sprRfuMikEmpoVQ0znZ7gOeM/r3jhrQjllkBngW5SO6OIYS8XSbtZ48InD2bDc
Fn5ocrUKG86yJIygx/zG2HKst3jDBXrXeKp8q6yMrwrX60u1LEDdvlpKTW2TAmni
COWXqUBuGDht744n41j785vxGfmQmkaOJ5Zo/3bDNuNz4uvNAJc16WTNOw3j8gL7
gKrdVeEtED8IYr6r3EgMhbVe+xLJnsC78QoYbBX550RKFQlzSdgMlvfc0AJiypGB
9LI8uiWpmITQdSqxf4+d+MqW4IKU44qz9u/1AgMBAAGjYzBhMB0GA1UdDgQWBBRk
1eyCh4DeWu1JmNgMVH1GnqU81jAfBgNVHSMEGDAWgBRk1eyCh4DeWu1JmNgMVH1G
nqU81jAPBgNVHRMBAf8EBTADAQH/MA4GA1UdDwEB/wQEAwIBhjBBBgkqhkiG9w0B
AQowNKAPMA0GCWCGSAFlAwQCAQUAoRwwGgYJKoZIhvcNAQEIMA0GCWCGSAFlAwQC
AQUAogMCASADggEBADq94uOPxYZWfY4K9WyhR4lUGg2AQ3eXJfzqoVf5lMAEy6aH
1znBw6qLHPv2oCyeFK2hBkiN4cuJhTle6WfIVRb6PVEJmrihdLb2RlEnGxnOJykn
Ps0645JR9tNQvkzWids0d0A1+GC8Lv5652E40VfxD907M35vDfqyoArDfw/cc6wM
GWI74IULVktVodX2UuxPgm+jAo5vVO32ybYZVxwqJbFiyPU6bCI7FH/ixkv7ZqJD
LF3JG3JHlTBZxYFmt+Pfh0oAkY3bLQajxE12INvQCXpI7i+rmdBA6N8o7HXaJEq+
CuZ8O7fvgvKEd4EwDkIj19iUSwsdpgsBHevYBWs=
-----END CERTIFICATE-----
