Certificate:
    Data:
        Version: 3 (0x2)
        Serial Number:
            6a:69:d6:c0:f5:1b:40:ef:11:ed:96:65:00:f0:75:b3:35:01:b2:a5
        Signature Algorithm: rsassaPss        
        Hash Algorithm: sha384
        Mask Algorithm: mgf1 with sha384
         Salt Length: 0x30
        Trailer Field: 0x01 (default)
        Issuer: C=US, ST=Montana, L=Bozeman, O=wolfSSL_RSA-PSS, OU=Root-RSA-PSS, CN=www.wolfssl.com, emailAddress=info@wolfssl.com
        Validity
            Not Before: Nov 13 20:41:19 2025 GMT
            Not After : Aug  9 20:41:19 2028 GMT
        Subject: C=US, ST=Montana, L=Bozeman, O=wolfSSL_RSA-PSS, OU=Root-RSA-PSS, CN=www.wolfssl.com, emailAddress=info@wolfssl.com
        Subject Public Key Info:
            Public Key Algorithm: rsassaPss
                Public-Key: (3072 bit)
                Modulus:
                    00:ad:cd:ed:4f:94:27:fa:57:28:90:bc:e5:35:b6:
                    96:36:18:25:45:e1:de:aa:87:98:88:61:2b:97:2a:
                    e4:4e:f6:06:36:1c:38:b5:5d:ae:99:59:99:70:01:
                    12:f9:02:49:7b:ae:c1:aa:78:41:26:9b:f6:31:09:
                    af:0a:6b:eb:f2:8c:39:2f:f9:fe:e0:38:a6:2f:00:
                    ee:40:6e:94:8c:be:3f:c1:3e:6b:3a:ae:91:e6:d6:
                    6c:34:1a:54:88:b6:38:b8:f8:c9:58:b4:8e:99:0c:
                    ab:37:6e:a1:50:25:f1:e4:e2:76:78:9c:95:12:7e:
                    35:7f:74:65:1d:79:b7:81:44:78:a3:53:f3:f4:1c:
                    17:80:15:b7:c1:f7:a1:b3:0b:69:5a:e7:12:6b:49:
                    1f:0a:84:88:70:19:73:16:be:1c:cd:b4:e0:e7:bf:
                    04:61:ba:da:44:eb:52:41:7a:46:b8:8e:02:83:c1:
                    75:05:60:d0:6c:0e:75:7d:52:9e:f9:38:17:de:a8:
                    cc:5c:dd:e6:02:8b:f5:30:43:1c:5a:98:8f:c3:c1:
                    d9:5f:e6:6f:6e:f1:74:d6:de:8b:5f:8b:ce:35:8a:
                    f4:58:8a:0e:6b:da:97:cd:8a:6a:b1:7f:83:4e:7c:
                    ae:b6:78:8e:51:e8:49:34:d1:68:e3:d0:bf:5b:b3:
                    17:5a:e0:d7:94:20:12:26:7b:9d:19:fa:1e:16:65:
                    65:e1:54:bb:f9:4f:9e:63:da:dc:10:dc:b0:9b:09:
                    24:d5:0b:97:83:eb:2c:b3:1e:15:50:38:93:06:5a:
                    8c:11:12:63:21:31:91:c3:7c:bf:54:ed:2c:2f:bc:
                    f7:63:a4:38:36:5c:f3:bb:71:3d:0d:15:f6:5a:bc:
                    4c:ee:78:50:31:61:40:bf:45:28:d2:b5:2f:c1:08:
                    af:be:d6:03:00:cf:19:69:e3:a0:b0:92:ec:26:42:
                    5e:02:a5:d1:2d:cf:b8:63:df:ce:b3:22:6c:1a:d3:
                    5d:89:15:9a:c4:77:98:cd:95:7f
                Exponent: 65537 (0x10001)
                No PSS parameter restrictions
        X509v3 extensions:
            X509v3 Subject Key Identifier: 
                AA:71:D3:B1:8A:4B:BB:47:15:47:5F:9B:D0:2B:69:D1:6F:85:5E:F6
            X509v3 Authority Key Identifier: 
                AA:71:D3:B1:8A:4B:BB:47:15:47:5F:9B:D0:2B:69:D1:6F:85:5E:F6
            X509v3 Basic Constraints: critical
                CA:TRUE
            X509v3 Key Usage: critical
                Digital Signature, Certificate Sign, CRL Sign
    Signature Algorithm: rsassaPss
    Signature Value:        
        Hash Algorithm: sha384
        Mask Algorithm: mgf1 with sha384
         Salt Length: 0x30
        Trailer Field: 0x01 (default)
        3a:3d:df:6f:16:12:14:15:2c:9b:9c:5e:2f:c8:23:5f:70:f4:
        36:4b:44:c4:e7:e3:45:f5:50:d4:cb:c6:00:67:b7:d0:3c:27:
        3f:80:91:34:52:cc:4f:27:0d:95:28:66:e0:40:de:1f:56:b6:
        64:fe:80:e4:43:67:38:64:2b:5b:ae:ab:c3:aa:6c:ca:19:00:
        d7:bc:7f:37:3a:26:03:5f:7b:7d:76:14:e6:ae:43:b9:b1:65:
        6f:5c:74:a7:46:e7:14:6d:29:7e:b9:50:32:33:e9:7c:c9:54:
        a3:ee:34:66:d6:3f:3e:eb:1a:19:12:b7:7c:14:e2:e8:ff:fa:
        3d:5e:52:33:13:94:a3:03:24:f6:7a:37:50:f7:d0:85:8b:c8:
        70:01:5b:95:96:85:52:0e:9c:4d:6b:af:f1:d5:10:45:76:03:
        02:08:70:78:e9:5f:c4:e0:4a:88:b2:8e:09:03:10:44:de:7c:
        44:1a:27:73:cd:22:65:08:b4:df:ff:7b:67:ab:d9:be:fc:40:
        50:df:da:fa:cb:90:0c:15:21:3b:28:bb:91:61:05:39:3b:d2:
        7a:af:14:a4:4e:dc:83:ef:3d:f4:70:f3:96:1f:d0:ec:67:88:
        da:0c:0d:0b:0e:7d:20:d1:ac:9a:8d:0b:6a:b7:0a:24:e6:96:
        ce:bf:b2:b7:10:3b:ab:fc:c2:0d:50:cf:14:aa:68:a0:3f:5c:
        43:f0:35:f5:b5:96:70:d7:54:82:88:34:10:5b:c3:72:a5:2b:
        b9:03:24:88:8d:08:4b:e2:c0:b9:25:46:bd:de:54:2c:bd:d1:
        60:b8:44:94:19:f3:b1:bd:50:50:80:7e:37:c6:ee:93:43:2e:
        e3:b9:b4:60:a2:0f:db:5e:d9:31:77:64:e9:c7:dd:f6:57:8c:
        31:22:4d:97:2a:52:6d:24:61:a7:f4:4e:d0:26:6e:b4:3c:97:
        5e:35:0e:ec:6c:8f:43:fe:69:b8:5e:ec:77:be:fc:22:f0:31:
        2d:04:69:15:e8:9a
-----BEGIN CERTIFICATE-----
MIIFkzCCA8egAwIBAgIUamnWwPUbQO8R7ZZlAPB1szUBsqUwQQYJKoZIhvcNAQEK
MDSgDzANBglghkgBZQMEAgIFAKEcMBoGCSqGSIb3DQEBCDANBglghkgBZQMEAgIF
AKIDAgEwMIGdMQswCQYDVQQGEwJVUzEQMA4GA1UECAwHTW9udGFuYTEQMA4GA1UE
BwwHQm96ZW1hbjEYMBYGA1UECgwPd29sZlNTTF9SU0EtUFNTMRUwEwYDVQQLDAxS
b290LVJTQS1QU1MxGDAWBgNVBAMMD3d3dy53b2xmc3NsLmNvbTEfMB0GCSqGSIb3
DQEJARYQaW5mb0B3b2xmc3NsLmNvbTAeFw0yNTExMTMyMDQxMTlaFw0yODA4MDky
MDQxMTlaMIGdMQswCQYDVQQGEwJVUzEQMA4GA1UECAwHTW9udGFuYTEQMA4GA1UE
BwwHQm96ZW1hbjEYMBYGA1UECgwPd29sZlNTTF9SU0EtUFNTMRUwEwYDVQQLDAxS
b290LVJTQS1QU1MxGDAWBgNVBAMMD3d3dy53b2xmc3NsLmNvbTEfMB0GCSqGSIb3
DQEJARYQaW5mb0B3b2xmc3NsLmNvbTCCAaAwCwYJKoZIhvcNAQEKA4IBjwAwggGK
AoIBgQCtze1PlCf6VyiQvOU1tpY2GCVF4d6qh5iIYSuXKuRO9gY2HDi1Xa6ZWZlw
ARL5Akl7rsGqeEEmm/YxCa8Ka+vyjDkv+f7gOKYvAO5AbpSMvj/BPms6rpHm1mw0
GlSItji4+MlYtI6ZDKs3bqFQJfHk4nZ4nJUSfjV/dGUdebeBRHijU/P0HBeAFbfB
96GzC2la5xJrSR8KhIhwGXMWvhzNtODnvwRhutpE61JBeka4jgKDwXUFYNBsDnV9
Up75OBfeqMxc3eYCi/UwQxxamI/Dwdlf5m9u8XTW3otfi841ivRYig5r2pfNimqx
f4NOfK62eI5R6Ek00Wjj0L9bsxda4NeUIBIme50Z+h4WZWXhVLv5T55j2twQ3LCb
CSTVC5eD6yyzHhVQOJMGWowREmMhMZHDfL9U7SwvvPdjpDg2XPO7cT0NFfZavEzu
eFAxYUC/RSjStS/BCK++1gMAzxlp46CwkuwmQl4CpdEtz7hj386zImwa012JFZrE
d5jNlX8CAwEAAaNjMGEwHQYDVR0OBBYEFKpx07GKS7tHFUdfm9AradFvhV72MB8G
A1UdIwQYMBaAFKpx07GKS7tHFUdfm9AradFvhV72MA8GA1UdEwEB/wQFMAMBAf8w
DgYDVR0PAQH/BAQDAgGGMEEGCSqGSIb3DQEBCjA0oA8wDQYJYIZIAWUDBAICBQCh
HDAaBgkqhkiG9w0BAQgwDQYJYIZIAWUDBAICBQCiAwIBMAOCAYEAOj3fbxYSFBUs
m5xeL8gjX3D0NktExOfjRfVQ1MvGAGe30DwnP4CRNFLMTycNlShm4EDeH1a2ZP6A
5ENnOGQrW66rw6psyhkA17x/NzomA197fXYU5q5DubFlb1x0p0bnFG0pfrlQMjPp
fMlUo+40ZtY/PusaGRK3fBTi6P/6PV5SMxOUowMk9no3UPfQhYvIcAFblZaFUg6c
TWuv8dUQRXYDAghweOlfxOBKiLKOCQMQRN58RBonc80iZQi03/97Z6vZvvxAUN/a
+suQDBUhOyi7kWEFOTvSeq8UpE7cg+899HDzlh/Q7GeI2gwNCw59INGsmo0LarcK
JOaWzr+ytxA7q/zCDVDPFKpooD9cQ/A19bWWcNdUgog0EFvDcqUruQMkiI0IS+LA
uSVGvd5ULL3RYLhElBnzsb1QUIB+N8buk0Mu47m0YKIP217ZMXdk6cfd9leMMSJN
lypSbSRhp/RO0CZutDyXXjUO7GyPQ/5puF7sd778IvAxLQRpFeia
-----END CERTIFICATE-----
