Certificate:
    Data:
        Version: 3 (0x2)
        Serial Number:
            46:2d:fc:53:20:ce:df:8e:be:08:b0:99:00:eb:46:5c:e8:0b:4b:86
        Signature Algorithm: rsassaPss        
        Hash Algorithm: sha384
        Mask Algorithm: mgf1 with sha384
         Salt Length: 0x014E
        Trailer Field: 0x01 (default)
        Issuer: C = US, ST = Montana, L = Bozeman, O = wolfSSL_RSA-PSS, OU = Root-RSA-PSS, CN = www.wolfssl.com, emailAddress = info@wolfssl.com
        Validity
            Not Before: Sep 26 17:22:42 2023 GMT
            Not After : Jun 22 17:22:42 2026 GMT
        Subject: C = US, ST = Montana, L = Bozeman, O = wolfSSL_RSA-PSS, OU = Root-RSA-PSS, CN = www.wolfssl.com, emailAddress = info@wolfssl.com
        Subject Public Key Info:
            Public Key Algorithm: rsassaPss
                Public-Key: (3072 bit)
                Modulus:
                    00:ad:cd:ed:4f:94:27:fa:57:28:90:bc:e5:35:b6:
                    96:36:18:25:45:e1:de:aa:87:98:88:61:2b:97:2a:
                    e4:4e:f6:06:36:1c:38:b5:5d:ae:99:59:99:70:01:
                    12:f9:02:49:7b:ae:c1:aa:78:41:26:9b:f6:31:09:
                    af:0a:6b:eb:f2:8c:39:2f:f9:fe:e0:38:a6:2f:00:
                    ee:40:6e:94:8c:be:3f:c1:3e:6b:3a:ae:91:e6:d6:
                    6c:34:1a:54:88:b6:38:b8:f8:c9:58:b4:8e:99:0c:
                    ab:37:6e:a1:50:25:f1:e4:e2:76:78:9c:95:12:7e:
                    35:7f:74:65:1d:79:b7:81:44:78:a3:53:f3:f4:1c:
                    17:80:15:b7:c1:f7:a1:b3:0b:69:5a:e7:12:6b:49:
                    1f:0a:84:88:70:19:73:16:be:1c:cd:b4:e0:e7:bf:
                    04:61:ba:da:44:eb:52:41:7a:46:b8:8e:02:83:c1:
                    75:05:60:d0:6c:0e:75:7d:52:9e:f9:38:17:de:a8:
                    cc:5c:dd:e6:02:8b:f5:30:43:1c:5a:98:8f:c3:c1:
                    d9:5f:e6:6f:6e:f1:74:d6:de:8b:5f:8b:ce:35:8a:
                    f4:58:8a:0e:6b:da:97:cd:8a:6a:b1:7f:83:4e:7c:
                    ae:b6:78:8e:51:e8:49:34:d1:68:e3:d0:bf:5b:b3:
                    17:5a:e0:d7:94:20:12:26:7b:9d:19:fa:1e:16:65:
                    65:e1:54:bb:f9:4f:9e:63:da:dc:10:dc:b0:9b:09:
                    24:d5:0b:97:83:eb:2c:b3:1e:15:50:38:93:06:5a:
                    8c:11:12:63:21:31:91:c3:7c:bf:54:ed:2c:2f:bc:
                    f7:63:a4:38:36:5c:f3:bb:71:3d:0d:15:f6:5a:bc:
                    4c:ee:78:50:31:61:40:bf:45:28:d2:b5:2f:c1:08:
                    af:be:d6:03:00:cf:19:69:e3:a0:b0:92:ec:26:42:
                    5e:02:a5:d1:2d:cf:b8:63:df:ce:b3:22:6c:1a:d3:
                    5d:89:15:9a:c4:77:98:cd:95:7f
                Exponent: 65537 (0x10001)
                No PSS parameter restrictions
        X509v3 extensions:
            X509v3 Subject Key Identifier: 
                AA:71:D3:B1:8A:4B:BB:47:15:47:5F:9B:D0:2B:69:D1:6F:85:5E:F6
            X509v3 Authority Key Identifier: 
                AA:71:D3:B1:8A:4B:BB:47:15:47:5F:9B:D0:2B:69:D1:6F:85:5E:F6
            X509v3 Basic Constraints: critical
                CA:TRUE
            X509v3 Key Usage: critical
                Digital Signature, Certificate Sign, CRL Sign
    Signature Algorithm: rsassaPss
    Signature Value:        
        Hash Algorithm: sha384
        Mask Algorithm: mgf1 with sha384
         Salt Length: 0x014E
        Trailer Field: 0x01 (default)
        68:08:6f:91:eb:6b:ec:0c:6e:cd:6f:38:75:c9:48:94:4a:14:
        89:e8:02:03:51:09:a0:dd:fc:c8:d1:ad:02:54:3c:82:26:2b:
        84:d3:75:31:2c:12:61:71:5e:5c:58:c2:81:14:71:82:a3:8e:
        00:c4:89:c7:62:62:64:7d:14:85:83:c8:86:90:45:cd:dd:60:
        ba:2c:5a:e2:c3:4c:e7:78:51:d1:f4:c9:03:a9:bb:ba:4c:49:
        52:49:38:d8:8f:1f:fb:00:25:86:a1:4f:01:51:90:3c:70:e7:
        e8:ad:87:6d:00:02:94:cc:f2:4c:5f:8b:f6:f7:14:9b:d2:c6:
        9a:7d:b6:e8:90:82:e8:eb:ea:af:8a:2f:48:be:d2:f4:28:a3:
        98:c0:70:10:81:f3:53:92:f6:9d:7f:c6:a1:fe:4d:f3:b6:05:
        83:07:bb:7f:56:82:24:77:e9:8e:60:d3:b8:1a:6c:49:42:21:
        93:a4:b0:27:8f:8b:62:f9:67:30:25:a5:b3:45:01:a2:5a:16:
        cb:7d:13:e2:08:66:d6:4d:d6:8b:7f:7a:c9:f0:b8:1b:9f:d4:
        ee:09:81:fd:c7:de:ae:de:f1:0b:10:a1:79:a8:01:ad:c9:84:
        3f:a3:94:44:44:df:70:ab:91:0f:8a:f0:b9:d3:fd:e0:34:8c:
        47:12:41:b3:c0:d4:73:b2:d5:83:a6:8b:b8:47:6b:89:53:ae:
        20:02:ee:3c:fe:3f:d2:97:83:ba:cd:a8:d4:8f:b8:96:39:9b:
        0f:bb:0a:fa:f7:32:3d:61:62:60:1d:c7:39:70:ba:09:0a:f9:
        39:82:1c:aa:77:9e:1a:b8:50:d1:91:45:1b:09:8d:b9:fb:d3:
        78:0f:c8:11:81:58:f4:b0:25:5e:11:73:6b:82:e4:14:2d:9d:
        55:17:c3:38:b2:04:30:58:62:af:23:5d:e1:27:ed:b7:25:b5:
        21:6a:88:1e:16:11:c9:87:6a:50:98:9e:b2:b0:cb:cb:0c:fe:
        e5:3c:44:ba:67:01
-----BEGIN CERTIFICATE-----
MIIFlTCCA8igAwIBAgIURi38UyDO346+CLCZAOtGXOgLS4YwQgYJKoZIhvcNAQEK
MDWgDzANBglghkgBZQMEAgIFAKEcMBoGCSqGSIb3DQEBCDANBglghkgBZQMEAgIF
AKIEAgIBTjCBnTELMAkGA1UEBhMCVVMxEDAOBgNVBAgMB01vbnRhbmExEDAOBgNV
BAcMB0JvemVtYW4xGDAWBgNVBAoMD3dvbGZTU0xfUlNBLVBTUzEVMBMGA1UECwwM
Um9vdC1SU0EtUFNTMRgwFgYDVQQDDA93d3cud29sZnNzbC5jb20xHzAdBgkqhkiG
9w0BCQEWEGluZm9Ad29sZnNzbC5jb20wHhcNMjMwOTI2MTcyMjQyWhcNMjYwNjIy
MTcyMjQyWjCBnTELMAkGA1UEBhMCVVMxEDAOBgNVBAgMB01vbnRhbmExEDAOBgNV
BAcMB0JvemVtYW4xGDAWBgNVBAoMD3dvbGZTU0xfUlNBLVBTUzEVMBMGA1UECwwM
Um9vdC1SU0EtUFNTMRgwFgYDVQQDDA93d3cud29sZnNzbC5jb20xHzAdBgkqhkiG
9w0BCQEWEGluZm9Ad29sZnNzbC5jb20wggGgMAsGCSqGSIb3DQEBCgOCAY8AMIIB
igKCAYEArc3tT5Qn+lcokLzlNbaWNhglReHeqoeYiGErlyrkTvYGNhw4tV2umVmZ
cAES+QJJe67BqnhBJpv2MQmvCmvr8ow5L/n+4DimLwDuQG6UjL4/wT5rOq6R5tZs
NBpUiLY4uPjJWLSOmQyrN26hUCXx5OJ2eJyVEn41f3RlHXm3gUR4o1Pz9BwXgBW3
wfehswtpWucSa0kfCoSIcBlzFr4czbTg578EYbraROtSQXpGuI4Cg8F1BWDQbA51
fVKe+TgX3qjMXN3mAov1MEMcWpiPw8HZX+ZvbvF01t6LX4vONYr0WIoOa9qXzYpq
sX+DTnyutniOUehJNNFo49C/W7MXWuDXlCASJnudGfoeFmVl4VS7+U+eY9rcENyw
mwkk1QuXg+sssx4VUDiTBlqMERJjITGRw3y/VO0sL7z3Y6Q4Nlzzu3E9DRX2WrxM
7nhQMWFAv0Uo0rUvwQivvtYDAM8ZaeOgsJLsJkJeAqXRLc+4Y9/OsyJsGtNdiRWa
xHeYzZV/AgMBAAGjYzBhMB0GA1UdDgQWBBSqcdOxiku7RxVHX5vQK2nRb4Ve9jAf
BgNVHSMEGDAWgBSqcdOxiku7RxVHX5vQK2nRb4Ve9jAPBgNVHRMBAf8EBTADAQH/
MA4GA1UdDwEB/wQEAwIBhjBCBgkqhkiG9w0BAQowNaAPMA0GCWCGSAFlAwQCAgUA
oRwwGgYJKoZIhvcNAQEIMA0GCWCGSAFlAwQCAgUAogQCAgFOA4IBgQBoCG+R62vs
DG7Nbzh1yUiUShSJ6AIDUQmg3fzI0a0CVDyCJiuE03UxLBJhcV5cWMKBFHGCo44A
xInHYmJkfRSFg8iGkEXN3WC6LFriw0zneFHR9MkDqbu6TElSSTjYjx/7ACWGoU8B
UZA8cOforYdtAAKUzPJMX4v29xSb0saafbbokILo6+qvii9IvtL0KKOYwHAQgfNT
kvadf8ah/k3ztgWDB7t/VoIkd+mOYNO4GmxJQiGTpLAnj4ti+WcwJaWzRQGiWhbL
fRPiCGbWTdaLf3rJ8Lgbn9TuCYH9x96u3vELEKF5qAGtyYQ/o5RERN9wq5EPivC5
0/3gNIxHEkGzwNRzstWDpou4R2uJU64gAu48/j/Sl4O6zajUj7iWOZsPuwr69zI9
YWJgHcc5cLoJCvk5ghyqd54auFDRkUUbCY25+9N4D8gRgVj0sCVeEXNrguQULZ1V
F8M4sgQwWGKvI13hJ+23JbUhaogeFhHJh2pQmJ6ysMvLDP7lPES6ZwE=
-----END CERTIFICATE-----
