Certificate:
    Data:
        Version: 3 (0x2)
        Serial Number:
            1e:33:3c:8c:10:e8:b9:42:ac:5f:27:9d:c5:b0:31:c3:e6:0e:c4:9d
        Signature Algorithm: rsassaPss        
        Hash Algorithm: sha384
        Mask Algorithm: mgf1 with sha384
         Salt Length: 0x30
        Trailer Field: 0x01 (default)
        Issuer: C=US, ST=Montana, L=Bozeman, O=wolfSSL_RSA-PSS, OU=Root-RSA-PSS, CN=www.wolfssl.com, emailAddress=facts@wolfssl.com
        Validity
            Not Before: Jun 11 21:44:30 2026 GMT
            Not After : Mar  7 21:44:30 2029 GMT
        Subject: C=US, ST=Montana, L=Bozeman, O=wolfSSL_RSA-PSS, OU=Root-RSA-PSS, CN=www.wolfssl.com, emailAddress=facts@wolfssl.com
        Subject Public Key Info:
            Public Key Algorithm: rsassaPss
                Public-Key: (3072 bit)
                Modulus:
                    00:ad:cd:ed:4f:94:27:fa:57:28:90:bc:e5:35:b6:
                    96:36:18:25:45:e1:de:aa:87:98:88:61:2b:97:2a:
                    e4:4e:f6:06:36:1c:38:b5:5d:ae:99:59:99:70:01:
                    12:f9:02:49:7b:ae:c1:aa:78:41:26:9b:f6:31:09:
                    af:0a:6b:eb:f2:8c:39:2f:f9:fe:e0:38:a6:2f:00:
                    ee:40:6e:94:8c:be:3f:c1:3e:6b:3a:ae:91:e6:d6:
                    6c:34:1a:54:88:b6:38:b8:f8:c9:58:b4:8e:99:0c:
                    ab:37:6e:a1:50:25:f1:e4:e2:76:78:9c:95:12:7e:
                    35:7f:74:65:1d:79:b7:81:44:78:a3:53:f3:f4:1c:
                    17:80:15:b7:c1:f7:a1:b3:0b:69:5a:e7:12:6b:49:
                    1f:0a:84:88:70:19:73:16:be:1c:cd:b4:e0:e7:bf:
                    04:61:ba:da:44:eb:52:41:7a:46:b8:8e:02:83:c1:
                    75:05:60:d0:6c:0e:75:7d:52:9e:f9:38:17:de:a8:
                    cc:5c:dd:e6:02:8b:f5:30:43:1c:5a:98:8f:c3:c1:
                    d9:5f:e6:6f:6e:f1:74:d6:de:8b:5f:8b:ce:35:8a:
                    f4:58:8a:0e:6b:da:97:cd:8a:6a:b1:7f:83:4e:7c:
                    ae:b6:78:8e:51:e8:49:34:d1:68:e3:d0:bf:5b:b3:
                    17:5a:e0:d7:94:20:12:26:7b:9d:19:fa:1e:16:65:
                    65:e1:54:bb:f9:4f:9e:63:da:dc:10:dc:b0:9b:09:
                    24:d5:0b:97:83:eb:2c:b3:1e:15:50:38:93:06:5a:
                    8c:11:12:63:21:31:91:c3:7c:bf:54:ed:2c:2f:bc:
                    f7:63:a4:38:36:5c:f3:bb:71:3d:0d:15:f6:5a:bc:
                    4c:ee:78:50:31:61:40:bf:45:28:d2:b5:2f:c1:08:
                    af:be:d6:03:00:cf:19:69:e3:a0:b0:92:ec:26:42:
                    5e:02:a5:d1:2d:cf:b8:63:df:ce:b3:22:6c:1a:d3:
                    5d:89:15:9a:c4:77:98:cd:95:7f
                Exponent: 65537 (0x10001)
                No PSS parameter restrictions
        X509v3 extensions:
            X509v3 Subject Key Identifier: 
                AA:71:D3:B1:8A:4B:BB:47:15:47:5F:9B:D0:2B:69:D1:6F:85:5E:F6
            X509v3 Authority Key Identifier: 
                AA:71:D3:B1:8A:4B:BB:47:15:47:5F:9B:D0:2B:69:D1:6F:85:5E:F6
            X509v3 Basic Constraints: critical
                CA:TRUE
            X509v3 Key Usage: critical
                Digital Signature, Certificate Sign, CRL Sign
    Signature Algorithm: rsassaPss
    Signature Value:        
        Hash Algorithm: sha384
        Mask Algorithm: mgf1 with sha384
         Salt Length: 0x30
        Trailer Field: 0x01 (default)
        5a:5e:5d:2d:25:c1:9d:a3:0e:ee:d9:dc:d9:e4:a7:f5:65:8e:
        00:d9:8f:26:14:08:dd:47:30:36:1b:79:16:1b:85:eb:48:56:
        e4:6a:f7:55:3c:21:6e:86:bd:3d:4c:6e:3b:a8:45:41:d5:01:
        44:32:32:2b:da:d3:f9:b0:7b:f0:51:fe:cc:70:24:50:75:8f:
        5c:e4:b6:40:51:44:63:3f:23:41:6b:50:ba:0c:07:e4:0d:65:
        5d:1a:cc:a6:80:67:60:7d:c3:a8:44:d7:4b:68:db:43:83:03:
        e0:ea:c0:b1:6f:0f:72:92:6a:f6:bf:36:ee:7f:06:da:ec:3e:
        d5:8e:2f:54:47:2a:88:05:7b:e5:59:17:73:19:e7:19:20:79:
        c4:9b:71:07:db:c8:50:92:78:86:da:64:de:5e:c2:6f:cf:27:
        a8:f4:3c:60:34:de:43:1b:34:fa:69:ca:aa:84:fc:0e:d4:1a:
        43:c0:bc:3b:71:b7:fd:f4:e3:a2:46:5d:90:90:4d:95:9e:c5:
        26:ed:3d:f6:02:0c:25:9f:48:b7:4c:b6:e3:be:64:79:d1:3b:
        e0:1f:17:74:d4:64:25:6a:83:9c:9b:66:42:bd:82:7f:30:bf:
        03:f9:0a:e9:fe:2b:6c:41:f4:06:4a:1f:ee:a5:92:10:8a:42:
        6d:2e:ad:a9:9f:23:33:0d:c0:14:ad:ac:09:18:ef:59:2e:01:
        72:c8:0a:9d:e2:3d:74:1c:e9:85:86:2c:90:db:b8:ad:b3:81:
        df:c8:8f:03:9e:11:19:70:33:90:54:d2:04:cf:89:42:bb:cf:
        63:35:5a:e8:f7:40:b1:6f:2d:c5:92:48:86:95:e3:d3:92:22:
        57:5e:8c:3c:49:0e:4c:5d:d8:3f:55:ee:56:80:ac:b9:34:93:
        1f:2c:9a:90:d2:eb:38:55:67:4e:e9:3b:eb:8a:54:3f:a1:ce:
        fb:1e:10:2e:54:fd:58:0f:36:ba:07:57:89:d0:18:d7:af:57:
        b6:54:b8:68:b0:13
-----BEGIN CERTIFICATE-----
MIIFlTCCA8mgAwIBAgIUHjM8jBDouUKsXyedxbAxw+YOxJ0wQQYJKoZIhvcNAQEK
MDSgDzANBglghkgBZQMEAgIFAKEcMBoGCSqGSIb3DQEBCDANBglghkgBZQMEAgIF
AKIDAgEwMIGeMQswCQYDVQQGEwJVUzEQMA4GA1UECAwHTW9udGFuYTEQMA4GA1UE
BwwHQm96ZW1hbjEYMBYGA1UECgwPd29sZlNTTF9SU0EtUFNTMRUwEwYDVQQLDAxS
b290LVJTQS1QU1MxGDAWBgNVBAMMD3d3dy53b2xmc3NsLmNvbTEgMB4GCSqGSIb3
DQEJARYRZmFjdHNAd29sZnNzbC5jb20wHhcNMjYwNjExMjE0NDMwWhcNMjkwMzA3
MjE0NDMwWjCBnjELMAkGA1UEBhMCVVMxEDAOBgNVBAgMB01vbnRhbmExEDAOBgNV
BAcMB0JvemVtYW4xGDAWBgNVBAoMD3dvbGZTU0xfUlNBLVBTUzEVMBMGA1UECwwM
Um9vdC1SU0EtUFNTMRgwFgYDVQQDDA93d3cud29sZnNzbC5jb20xIDAeBgkqhkiG
9w0BCQEWEWZhY3RzQHdvbGZzc2wuY29tMIIBoDALBgkqhkiG9w0BAQoDggGPADCC
AYoCggGBAK3N7U+UJ/pXKJC85TW2ljYYJUXh3qqHmIhhK5cq5E72BjYcOLVdrplZ
mXABEvkCSXuuwap4QSab9jEJrwpr6/KMOS/5/uA4pi8A7kBulIy+P8E+azqukebW
bDQaVIi2OLj4yVi0jpkMqzduoVAl8eTidniclRJ+NX90ZR15t4FEeKNT8/QcF4AV
t8H3obMLaVrnEmtJHwqEiHAZcxa+HM204Oe/BGG62kTrUkF6RriOAoPBdQVg0GwO
dX1Snvk4F96ozFzd5gKL9TBDHFqYj8PB2V/mb27xdNbei1+LzjWK9FiKDmval82K
arF/g058rrZ4jlHoSTTRaOPQv1uzF1rg15QgEiZ7nRn6HhZlZeFUu/lPnmPa3BDc
sJsJJNULl4PrLLMeFVA4kwZajBESYyExkcN8v1TtLC+892OkODZc87txPQ0V9lq8
TO54UDFhQL9FKNK1L8EIr77WAwDPGWnjoLCS7CZCXgKl0S3PuGPfzrMibBrTXYkV
msR3mM2VfwIDAQABo2MwYTAdBgNVHQ4EFgQUqnHTsYpLu0cVR1+b0Ctp0W+FXvYw
HwYDVR0jBBgwFoAUqnHTsYpLu0cVR1+b0Ctp0W+FXvYwDwYDVR0TAQH/BAUwAwEB
/zAOBgNVHQ8BAf8EBAMCAYYwQQYJKoZIhvcNAQEKMDSgDzANBglghkgBZQMEAgIF
AKEcMBoGCSqGSIb3DQEBCDANBglghkgBZQMEAgIFAKIDAgEwA4IBgQBaXl0tJcGd
ow7u2dzZ5Kf1ZY4A2Y8mFAjdRzA2G3kWG4XrSFbkavdVPCFuhr09TG47qEVB1QFE
MjIr2tP5sHvwUf7McCRQdY9c5LZAUURjPyNBa1C6DAfkDWVdGsymgGdgfcOoRNdL
aNtDgwPg6sCxbw9ykmr2vzbufwba7D7Vji9URyqIBXvlWRdzGecZIHnEm3EH28hQ
kniG2mTeXsJvzyeo9DxgNN5DGzT6acqqhPwO1BpDwLw7cbf99OOiRl2QkE2VnsUm
7T32Agwln0i3TLbjvmR50TvgHxd01GQlaoOcm2ZCvYJ/ML8D+Qrp/itsQfQGSh/u
pZIQikJtLq2pnyMzDcAUrawJGO9ZLgFyyAqd4j10HOmFhiyQ27its4HfyI8DnhEZ
cDOQVNIEz4lCu89jNVro90Cxby3FkkiGlePTkiJXXow8SQ5MXdg/Ve5WgKy5NJMf
LJqQ0us4VWdO6TvrilQ/oc77HhAuVP1YDza6B1eJ0BjXr1e2VLhosBM=
-----END CERTIFICATE-----
