Certificate:
    Data:
        Version: 3 (0x2)
        Serial Number:
            7e:bb:69:3f:83:e6:50:55:fa:b6:da:6f:4d:e6:2c:7f:61:22:71:27
        Signature Algorithm: rsassaPss        
        Hash Algorithm: sha256
        Mask Algorithm: mgf1 with sha256
         Salt Length: 0x20
        Trailer Field: 0x01 (default)
        Issuer: C=US, ST=Montana, L=Bozeman, O=wolfSSL_RSA-PSS, OU=Root-RSA-PSS, CN=www.wolfssl.com, emailAddress=facts@wolfssl.com
        Validity
            Not Before: Jun 11 21:44:30 2026 GMT
            Not After : Mar  7 21:44:30 2029 GMT
        Subject: C=US, ST=Montana, L=Bozeman, O=wolfSSL_RSA-PSS, OU=Root-RSA-PSS, CN=www.wolfssl.com, emailAddress=facts@wolfssl.com
        Subject Public Key Info:
            Public Key Algorithm: rsassaPss
                Public-Key: (2048 bit)
                Modulus:
                    00:99:0a:01:b6:d1:40:7b:0c:ae:17:7e:e1:5c:8d:
                    fb:6b:cc:8f:06:51:75:e6:f0:97:ce:2f:76:fa:31:
                    bd:ef:79:b2:2e:e4:b5:11:1f:cb:29:ad:17:ee:32:
                    29:04:9a:9a:15:43:4c:e7:67:b8:0e:78:cf:eb:de:
                    38:6b:42:39:65:90:19:e0:5b:94:8e:e8:e2:18:4b:
                    c5:d2:6e:d6:78:f0:89:c3:d9:b0:dc:16:7e:68:72:
                    b5:0a:1b:ce:b2:24:8c:a0:c7:fc:c6:d8:72:ac:b7:
                    78:c3:05:7a:d7:78:aa:7c:ab:ac:8c:af:0a:d7:eb:
                    4b:b5:2c:40:dd:be:5a:4a:4d:6d:93:02:69:e2:08:
                    e5:97:a9:40:6e:18:38:6d:ef:8e:27:e3:58:fb:f3:
                    9b:f1:19:f9:90:9a:46:8e:27:96:68:ff:76:c3:36:
                    e3:73:e2:eb:cd:00:97:35:e9:64:cd:3b:0d:e3:f2:
                    02:fb:80:aa:dd:55:e1:2d:10:3f:08:62:be:ab:dc:
                    48:0c:85:b5:5e:fb:12:c9:9e:c0:bb:f1:0a:18:6c:
                    15:f9:e7:44:4a:15:09:73:49:d8:0c:96:f7:dc:d0:
                    02:62:ca:91:81:f4:b2:3c:ba:25:a9:98:84:d0:75:
                    2a:b1:7f:8f:9d:f8:ca:96:e0:82:94:e3:8a:b3:f6:
                    ef:f5
                Exponent: 65537 (0x10001)
                PSS parameter restrictions:
                  Hash Algorithm: SHA2-256
                  Mask Algorithm: MGF1 with SHA2-256
                  Minimum Salt Length: 32
                  Trailer Field: 0x1 (default)
        X509v3 extensions:
            X509v3 Subject Key Identifier: 
                64:D5:EC:82:87:80:DE:5A:ED:49:98:D8:0C:54:7D:46:9E:A5:3C:D6
            X509v3 Authority Key Identifier: 
                64:D5:EC:82:87:80:DE:5A:ED:49:98:D8:0C:54:7D:46:9E:A5:3C:D6
            X509v3 Basic Constraints: critical
                CA:TRUE
            X509v3 Key Usage: critical
                Digital Signature, Certificate Sign, CRL Sign
    Signature Algorithm: rsassaPss
    Signature Value:        
        Hash Algorithm: sha256
        Mask Algorithm: mgf1 with sha256
         Salt Length: 0x20
        Trailer Field: 0x01 (default)
        02:51:0f:36:f0:c8:2d:cb:2d:d0:a7:c0:de:a7:8d:85:22:b5:
        56:ed:5e:f4:2b:d9:9b:a1:db:dd:cf:99:c7:cf:78:ef:d2:32:
        62:55:c8:64:57:5c:65:53:07:41:64:5d:68:7f:65:e4:fa:de:
        99:ee:6b:c4:e0:ef:26:96:3f:9c:6e:ee:a5:b7:a8:65:e9:6f:
        fd:3b:b4:29:d6:75:3b:f9:fc:8d:0c:f2:73:56:e9:68:72:b3:
        38:af:b3:54:d8:67:62:ed:a1:b7:1d:6e:3c:55:09:02:1e:81:
        40:7c:ae:cb:24:13:1d:41:5c:f2:a2:61:9a:07:3a:50:a9:b3:
        a4:67:4b:42:8e:1e:ce:19:88:9d:64:09:74:ec:49:4a:39:85:
        ba:a0:86:f2:1d:6f:12:8b:80:ac:97:44:c9:5a:3f:07:c8:f2:
        41:cc:05:87:5e:0a:bd:04:73:50:2c:c6:bc:33:73:68:fa:bb:
        50:0f:e6:e4:0e:fa:f7:8e:d5:ea:5d:d7:5c:b0:37:53:e0:35:
        de:62:1b:3f:24:5a:06:5f:14:0f:0b:1e:f3:ae:b9:b2:43:de:
        37:70:0a:76:3b:49:b9:96:e4:ac:da:7f:85:c6:de:fb:19:d3:
        a3:52:fc:07:c5:0a:0c:f1:9d:0f:03:5e:39:52:05:8e:89:0a:
        39:39:d3:56
-----BEGIN CERTIFICATE-----
MIIEyzCCA3+gAwIBAgIUfrtpP4PmUFX6ttpvTeYsf2EicScwQQYJKoZIhvcNAQEK
MDSgDzANBglghkgBZQMEAgEFAKEcMBoGCSqGSIb3DQEBCDANBglghkgBZQMEAgEF
AKIDAgEgMIGeMQswCQYDVQQGEwJVUzEQMA4GA1UECAwHTW9udGFuYTEQMA4GA1UE
BwwHQm96ZW1hbjEYMBYGA1UECgwPd29sZlNTTF9SU0EtUFNTMRUwEwYDVQQLDAxS
b290LVJTQS1QU1MxGDAWBgNVBAMMD3d3dy53b2xmc3NsLmNvbTEgMB4GCSqGSIb3
DQEJARYRZmFjdHNAd29sZnNzbC5jb20wHhcNMjYwNjExMjE0NDMwWhcNMjkwMzA3
MjE0NDMwWjCBnjELMAkGA1UEBhMCVVMxEDAOBgNVBAgMB01vbnRhbmExEDAOBgNV
BAcMB0JvemVtYW4xGDAWBgNVBAoMD3dvbGZTU0xfUlNBLVBTUzEVMBMGA1UECwwM
Um9vdC1SU0EtUFNTMRgwFgYDVQQDDA93d3cud29sZnNzbC5jb20xIDAeBgkqhkiG
9w0BCQEWEWZhY3RzQHdvbGZzc2wuY29tMIIBVjBBBgkqhkiG9w0BAQowNKAPMA0G
CWCGSAFlAwQCAQUAoRwwGgYJKoZIhvcNAQEIMA0GCWCGSAFlAwQCAQUAogMCASAD
ggEPADCCAQoCggEBAJkKAbbRQHsMrhd+4VyN+2vMjwZRdebwl84vdvoxve95si7k
tREfyymtF+4yKQSamhVDTOdnuA54z+veOGtCOWWQGeBblI7o4hhLxdJu1njwicPZ
sNwWfmhytQobzrIkjKDH/MbYcqy3eMMFetd4qnyrrIyvCtfrS7UsQN2+WkpNbZMC
aeII5ZepQG4YOG3vjifjWPvzm/EZ+ZCaRo4nlmj/dsM243Pi680AlzXpZM07DePy
AvuAqt1V4S0QPwhivqvcSAyFtV77EsmewLvxChhsFfnnREoVCXNJ2AyW99zQAmLK
kYH0sjy6JamYhNB1KrF/j534ypbggpTjirP27/UCAwEAAaNjMGEwHQYDVR0OBBYE
FGTV7IKHgN5a7UmY2AxUfUaepTzWMB8GA1UdIwQYMBaAFGTV7IKHgN5a7UmY2AxU
fUaepTzWMA8GA1UdEwEB/wQFMAMBAf8wDgYDVR0PAQH/BAQDAgGGMEEGCSqGSIb3
DQEBCjA0oA8wDQYJYIZIAWUDBAIBBQChHDAaBgkqhkiG9w0BAQgwDQYJYIZIAWUD
BAIBBQCiAwIBIAOCAQEAAlEPNvDILcst0KfA3qeNhSK1Vu1e9CvZm6Hb3c+Zx894
79IyYlXIZFdcZVMHQWRdaH9l5Preme5rxODvJpY/nG7upbeoZelv/Tu0KdZ1O/n8
jQzyc1bpaHKzOK+zVNhnYu2htx1uPFUJAh6BQHyuyyQTHUFc8qJhmgc6UKmzpGdL
Qo4ezhmInWQJdOxJSjmFuqCG8h1vEouArJdEyVo/B8jyQcwFh14KvQRzUCzGvDNz
aPq7UA/m5A76947V6l3XXLA3U+A13mIbPyRaBl8UDwse8665skPeN3AKdjtJuZbk
rNp/hcbe+xnTo1L8B8UKDPGdDwNeOVIFjokKOTnTVg==
-----END CERTIFICATE-----
