Certificate:
    Data:
        Version: 3 (0x2)
        Serial Number:
            34:43:a2:a0:b6:01:0c:e3:6d:0d:e8:2d:8c:75:f8:1c:71:74:0d:72
        Signature Algorithm: rsassaPss         
         Hash Algorithm: sha256
         Mask Algorithm: mgf1 with sha256
          Salt Length: 0x20
         Trailer Field: 0xBC (default)
        Issuer: C = US, ST = Montana, L = Bozeman, O = wolfSSL_RSA-PSS, OU = Root-RSA-PSS, CN = www.wolfssl.com, emailAddress = info@wolfssl.com
        Validity
            Not Before: Jul 25 02:27:55 2022 GMT
            Not After : Apr 20 02:27:55 2025 GMT
        Subject: C = US, ST = Montana, L = Bozeman, O = wolfSSL_RSA-PSS, OU = Root-RSA-PSS, CN = www.wolfssl.com, emailAddress = info@wolfssl.com
        Subject Public Key Info:
            Public Key Algorithm: rsassaPss
                RSA-PSS Public-Key: (2048 bit)
                Modulus:
                    00:99:0a:01:b6:d1:40:7b:0c:ae:17:7e:e1:5c:8d:
                    fb:6b:cc:8f:06:51:75:e6:f0:97:ce:2f:76:fa:31:
                    bd:ef:79:b2:2e:e4:b5:11:1f:cb:29:ad:17:ee:32:
                    29:04:9a:9a:15:43:4c:e7:67:b8:0e:78:cf:eb:de:
                    38:6b:42:39:65:90:19:e0:5b:94:8e:e8:e2:18:4b:
                    c5:d2:6e:d6:78:f0:89:c3:d9:b0:dc:16:7e:68:72:
                    b5:0a:1b:ce:b2:24:8c:a0:c7:fc:c6:d8:72:ac:b7:
                    78:c3:05:7a:d7:78:aa:7c:ab:ac:8c:af:0a:d7:eb:
                    4b:b5:2c:40:dd:be:5a:4a:4d:6d:93:02:69:e2:08:
                    e5:97:a9:40:6e:18:38:6d:ef:8e:27:e3:58:fb:f3:
                    9b:f1:19:f9:90:9a:46:8e:27:96:68:ff:76:c3:36:
                    e3:73:e2:eb:cd:00:97:35:e9:64:cd:3b:0d:e3:f2:
                    02:fb:80:aa:dd:55:e1:2d:10:3f:08:62:be:ab:dc:
                    48:0c:85:b5:5e:fb:12:c9:9e:c0:bb:f1:0a:18:6c:
                    15:f9:e7:44:4a:15:09:73:49:d8:0c:96:f7:dc:d0:
                    02:62:ca:91:81:f4:b2:3c:ba:25:a9:98:84:d0:75:
                    2a:b1:7f:8f:9d:f8:ca:96:e0:82:94:e3:8a:b3:f6:
                    ef:f5
                Exponent: 65537 (0x10001)
                PSS parameter restrictions:
                  Hash Algorithm: sha256
                  Mask Algorithm: mgf1 with sha256
                  Minimum Salt Length: 0x20
                  Trailer Field: 0xBC (default)
        X509v3 extensions:
            X509v3 Subject Key Identifier: 
                64:D5:EC:82:87:80:DE:5A:ED:49:98:D8:0C:54:7D:46:9E:A5:3C:D6
            X509v3 Authority Key Identifier: 
                keyid:64:D5:EC:82:87:80:DE:5A:ED:49:98:D8:0C:54:7D:46:9E:A5:3C:D6

            X509v3 Basic Constraints: critical
                CA:TRUE
            X509v3 Key Usage: critical
                Digital Signature, Certificate Sign, CRL Sign
    Signature Algorithm: rsassaPss         
         Hash Algorithm: sha256
         Mask Algorithm: mgf1 with sha256
          Salt Length: 0x20
         Trailer Field: 0xBC (default)

         8c:4f:b2:a8:12:6c:80:56:78:44:ac:27:38:26:96:a3:e0:58:
         34:81:48:5f:cd:34:28:bd:b7:f6:6e:95:b4:8d:9a:5a:5a:9e:
         a5:40:e4:67:b8:53:db:00:ab:81:db:c8:de:77:0e:1b:a7:30:
         74:b8:8f:4b:05:5d:12:5c:f5:7a:40:ed:ba:3a:58:05:99:7b:
         72:a7:f1:c4:0a:4a:c4:fa:44:ef:5b:7e:8f:70:95:bc:3e:bb:
         ab:e5:4a:db:7a:d0:a9:82:2d:0c:c8:a0:64:0a:9a:d9:8c:23:
         d9:a5:3a:ea:80:ae:47:c0:31:7a:21:3c:4b:5d:9e:22:e1:34:
         c8:bb:0c:d5:77:65:6b:c0:76:77:67:41:56:23:33:e2:a6:e9:
         5f:8d:9d:af:73:92:e0:4e:2d:3f:c6:3a:ab:99:67:c5:5a:3e:
         a2:50:bb:ca:26:5f:6d:be:f9:71:1f:63:6e:d8:41:ca:96:bc:
         3d:1c:67:00:a1:78:d4:fe:a6:43:64:cf:20:ca:7b:ee:fa:65:
         72:39:ff:9a:8b:99:9c:9c:2d:4e:1d:b0:dc:07:8a:f2:12:81:
         78:d9:d4:55:aa:c5:d1:fb:73:36:71:01:4e:d6:e9:ea:e0:01:
         5c:95:ee:aa:16:cd:1a:d3:00:31:6f:48:7d:b7:52:7c:53:40:
         fd:c5:58:a1
-----BEGIN CERTIFICATE-----
MIIEvTCCA3WgAwIBAgIUNEOioLYBDONtDegtjHX4HHF0DXIwPQYJKoZIhvcNAQEK
MDCgDTALBglghkgBZQMEAgGhGjAYBgkqhkiG9w0BAQgwCwYJYIZIAWUDBAIBogMC
ASAwgZ0xCzAJBgNVBAYTAlVTMRAwDgYDVQQIDAdNb250YW5hMRAwDgYDVQQHDAdC
b3plbWFuMRgwFgYDVQQKDA93b2xmU1NMX1JTQS1QU1MxFTATBgNVBAsMDFJvb3Qt
UlNBLVBTUzEYMBYGA1UEAwwPd3d3LndvbGZzc2wuY29tMR8wHQYJKoZIhvcNAQkB
FhBpbmZvQHdvbGZzc2wuY29tMB4XDTIyMDcyNTAyMjc1NVoXDTI1MDQyMDAyMjc1
NVowgZ0xCzAJBgNVBAYTAlVTMRAwDgYDVQQIDAdNb250YW5hMRAwDgYDVQQHDAdC
b3plbWFuMRgwFgYDVQQKDA93b2xmU1NMX1JTQS1QU1MxFTATBgNVBAsMDFJvb3Qt
UlNBLVBTUzEYMBYGA1UEAwwPd3d3LndvbGZzc2wuY29tMR8wHQYJKoZIhvcNAQkB
FhBpbmZvQHdvbGZzc2wuY29tMIIBUjA9BgkqhkiG9w0BAQowMKANMAsGCWCGSAFl
AwQCAaEaMBgGCSqGSIb3DQEBCDALBglghkgBZQMEAgGiAwIBIAOCAQ8AMIIBCgKC
AQEAmQoBttFAewyuF37hXI37a8yPBlF15vCXzi92+jG973myLuS1ER/LKa0X7jIp
BJqaFUNM52e4DnjP6944a0I5ZZAZ4FuUjujiGEvF0m7WePCJw9mw3BZ+aHK1ChvO
siSMoMf8xthyrLd4wwV613iqfKusjK8K1+tLtSxA3b5aSk1tkwJp4gjll6lAbhg4
be+OJ+NY+/Ob8Rn5kJpGjieWaP92wzbjc+LrzQCXNelkzTsN4/IC+4Cq3VXhLRA/
CGK+q9xIDIW1XvsSyZ7Au/EKGGwV+edEShUJc0nYDJb33NACYsqRgfSyPLolqZiE
0HUqsX+PnfjKluCClOOKs/bv9QIDAQABo2MwYTAdBgNVHQ4EFgQUZNXsgoeA3lrt
SZjYDFR9Rp6lPNYwHwYDVR0jBBgwFoAUZNXsgoeA3lrtSZjYDFR9Rp6lPNYwDwYD
VR0TAQH/BAUwAwEB/zAOBgNVHQ8BAf8EBAMCAYYwPQYJKoZIhvcNAQEKMDCgDTAL
BglghkgBZQMEAgGhGjAYBgkqhkiG9w0BAQgwCwYJYIZIAWUDBAIBogMCASADggEB
AIxPsqgSbIBWeESsJzgmlqPgWDSBSF/NNCi9t/ZulbSNmlpanqVA5Ge4U9sAq4Hb
yN53DhunMHS4j0sFXRJc9XpA7bo6WAWZe3Kn8cQKSsT6RO9bfo9wlbw+u6vlStt6
0KmCLQzIoGQKmtmMI9mlOuqArkfAMXohPEtdniLhNMi7DNV3ZWvAdndnQVYjM+Km
6V+Nna9zkuBOLT/GOquZZ8VaPqJQu8omX22++XEfY27YQcqWvD0cZwCheNT+pkNk
zyDKe+76ZXI5/5qLmZycLU4dsNwHivISgXjZ1FWqxdH7czZxAU7W6ergAVyV7qoW
zRrTADFvSH23UnxTQP3FWKE=
-----END CERTIFICATE-----
