Certificate:
    Data:
        Version: 3 (0x2)
        Serial Number:
            49:11:5c:6b:2a:d6:cc:28:df:24:40:1b:9f:b4:a9:ac:a6:40:9f:be
        Signature Algorithm: rsassaPss        
        Hash Algorithm: sha256
        Mask Algorithm: mgf1 with sha256
         Salt Length: 0x20
        Trailer Field: 0x01 (default)
        Issuer: C = US, ST = Montana, L = Bozeman, O = wolfSSL_RSA-PSS, OU = Root-RSA-PSS, CN = www.wolfssl.com, emailAddress = info@wolfssl.com
        Validity
            Not Before: Dec 18 21:25:30 2024 GMT
            Not After : Sep 14 21:25:30 2027 GMT
        Subject: C = US, ST = Montana, L = Bozeman, O = wolfSSL_RSA-PSS, OU = Root-RSA-PSS, CN = www.wolfssl.com, emailAddress = info@wolfssl.com
        Subject Public Key Info:
            Public Key Algorithm: rsassaPss
                Public-Key: (2048 bit)
                Modulus:
                    00:99:0a:01:b6:d1:40:7b:0c:ae:17:7e:e1:5c:8d:
                    fb:6b:cc:8f:06:51:75:e6:f0:97:ce:2f:76:fa:31:
                    bd:ef:79:b2:2e:e4:b5:11:1f:cb:29:ad:17:ee:32:
                    29:04:9a:9a:15:43:4c:e7:67:b8:0e:78:cf:eb:de:
                    38:6b:42:39:65:90:19:e0:5b:94:8e:e8:e2:18:4b:
                    c5:d2:6e:d6:78:f0:89:c3:d9:b0:dc:16:7e:68:72:
                    b5:0a:1b:ce:b2:24:8c:a0:c7:fc:c6:d8:72:ac:b7:
                    78:c3:05:7a:d7:78:aa:7c:ab:ac:8c:af:0a:d7:eb:
                    4b:b5:2c:40:dd:be:5a:4a:4d:6d:93:02:69:e2:08:
                    e5:97:a9:40:6e:18:38:6d:ef:8e:27:e3:58:fb:f3:
                    9b:f1:19:f9:90:9a:46:8e:27:96:68:ff:76:c3:36:
                    e3:73:e2:eb:cd:00:97:35:e9:64:cd:3b:0d:e3:f2:
                    02:fb:80:aa:dd:55:e1:2d:10:3f:08:62:be:ab:dc:
                    48:0c:85:b5:5e:fb:12:c9:9e:c0:bb:f1:0a:18:6c:
                    15:f9:e7:44:4a:15:09:73:49:d8:0c:96:f7:dc:d0:
                    02:62:ca:91:81:f4:b2:3c:ba:25:a9:98:84:d0:75:
                    2a:b1:7f:8f:9d:f8:ca:96:e0:82:94:e3:8a:b3:f6:
                    ef:f5
                Exponent: 65537 (0x10001)
                PSS parameter restrictions:
                  Hash Algorithm: SHA2-256
                  Mask Algorithm: MGF1 with SHA2-256
                  Minimum Salt Length: 32
                  Trailer Field: 0x1 (default)
        X509v3 extensions:
            X509v3 Subject Key Identifier: 
                64:D5:EC:82:87:80:DE:5A:ED:49:98:D8:0C:54:7D:46:9E:A5:3C:D6
            X509v3 Authority Key Identifier: 
                64:D5:EC:82:87:80:DE:5A:ED:49:98:D8:0C:54:7D:46:9E:A5:3C:D6
            X509v3 Basic Constraints: critical
                CA:TRUE
            X509v3 Key Usage: critical
                Digital Signature, Certificate Sign, CRL Sign
    Signature Algorithm: rsassaPss
    Signature Value:        
        Hash Algorithm: sha256
        Mask Algorithm: mgf1 with sha256
         Salt Length: 0x20
        Trailer Field: 0x01 (default)
        62:9f:f5:04:3b:f8:a2:c2:9c:57:1c:9f:db:2d:6a:07:e1:0a:
        c0:84:65:06:3c:a1:64:f4:1b:f0:ae:d3:a3:29:b1:26:ef:9f:
        cb:e2:d9:ab:04:11:81:e1:f2:ef:18:5f:4d:c5:0f:e7:d0:6b:
        02:d4:d8:32:1d:81:90:85:cf:aa:59:cc:fe:e2:9a:66:1c:80:
        e8:5a:59:f2:d6:e7:1e:6e:de:64:96:bb:d5:75:8c:02:b5:53:
        eb:71:18:d1:44:08:c4:7e:a9:de:c0:cf:54:ce:2f:ba:4e:6b:
        a3:5c:1d:75:66:de:9c:6f:12:8c:80:e5:e0:3a:89:46:bd:fe:
        3b:39:31:f3:b4:12:2b:5b:68:7f:b5:9b:4c:27:d4:c1:3c:5c:
        89:12:e3:04:ba:26:3b:60:5a:0c:1e:18:26:8f:07:5c:ae:32:
        e7:54:3e:c3:64:ce:22:28:e4:05:a4:94:e8:2c:9e:37:60:91:
        b5:fa:96:66:e5:cc:6e:a1:25:a7:72:eb:69:49:78:93:51:0f:
        d6:1e:51:c3:70:0b:86:18:61:ed:95:46:17:1b:56:bb:9a:45:
        0d:58:ce:4a:4e:8d:92:fb:53:16:88:a6:d5:c8:38:4d:e7:eb:
        3d:32:d7:5d:bd:9b:fa:c6:0a:57:ea:9e:d9:7b:54:84:38:7a:
        14:30:ff:5f
-----BEGIN CERTIFICATE-----
MIIEyTCCA32gAwIBAgIUSRFcayrWzCjfJEAbn7SprKZAn74wQQYJKoZIhvcNAQEK
MDSgDzANBglghkgBZQMEAgEFAKEcMBoGCSqGSIb3DQEBCDANBglghkgBZQMEAgEF
AKIDAgEgMIGdMQswCQYDVQQGEwJVUzEQMA4GA1UECAwHTW9udGFuYTEQMA4GA1UE
BwwHQm96ZW1hbjEYMBYGA1UECgwPd29sZlNTTF9SU0EtUFNTMRUwEwYDVQQLDAxS
b290LVJTQS1QU1MxGDAWBgNVBAMMD3d3dy53b2xmc3NsLmNvbTEfMB0GCSqGSIb3
DQEJARYQaW5mb0B3b2xmc3NsLmNvbTAeFw0yNDEyMTgyMTI1MzBaFw0yNzA5MTQy
MTI1MzBaMIGdMQswCQYDVQQGEwJVUzEQMA4GA1UECAwHTW9udGFuYTEQMA4GA1UE
BwwHQm96ZW1hbjEYMBYGA1UECgwPd29sZlNTTF9SU0EtUFNTMRUwEwYDVQQLDAxS
b290LVJTQS1QU1MxGDAWBgNVBAMMD3d3dy53b2xmc3NsLmNvbTEfMB0GCSqGSIb3
DQEJARYQaW5mb0B3b2xmc3NsLmNvbTCCAVYwQQYJKoZIhvcNAQEKMDSgDzANBglg
hkgBZQMEAgEFAKEcMBoGCSqGSIb3DQEBCDANBglghkgBZQMEAgEFAKIDAgEgA4IB
DwAwggEKAoIBAQCZCgG20UB7DK4XfuFcjftrzI8GUXXm8JfOL3b6Mb3vebIu5LUR
H8sprRfuMikEmpoVQ0znZ7gOeM/r3jhrQjllkBngW5SO6OIYS8XSbtZ48InD2bDc
Fn5ocrUKG86yJIygx/zG2HKst3jDBXrXeKp8q6yMrwrX60u1LEDdvlpKTW2TAmni
COWXqUBuGDht744n41j785vxGfmQmkaOJ5Zo/3bDNuNz4uvNAJc16WTNOw3j8gL7
gKrdVeEtED8IYr6r3EgMhbVe+xLJnsC78QoYbBX550RKFQlzSdgMlvfc0AJiypGB
9LI8uiWpmITQdSqxf4+d+MqW4IKU44qz9u/1AgMBAAGjYzBhMB0GA1UdDgQWBBRk
1eyCh4DeWu1JmNgMVH1GnqU81jAfBgNVHSMEGDAWgBRk1eyCh4DeWu1JmNgMVH1G
nqU81jAPBgNVHRMBAf8EBTADAQH/MA4GA1UdDwEB/wQEAwIBhjBBBgkqhkiG9w0B
AQowNKAPMA0GCWCGSAFlAwQCAQUAoRwwGgYJKoZIhvcNAQEIMA0GCWCGSAFlAwQC
AQUAogMCASADggEBAGKf9QQ7+KLCnFccn9stagfhCsCEZQY8oWT0G/Cu06MpsSbv
n8vi2asEEYHh8u8YX03FD+fQawLU2DIdgZCFz6pZzP7immYcgOhaWfLW5x5u3mSW
u9V1jAK1U+txGNFECMR+qd7Az1TOL7pOa6NcHXVm3pxvEoyA5eA6iUa9/js5MfO0
EitbaH+1m0wn1ME8XIkS4wS6JjtgWgweGCaPB1yuMudUPsNkziIo5AWklOgsnjdg
kbX6lmblzG6hJady62lJeJNRD9YeUcNwC4YYYe2VRhcbVruaRQ1YzkpOjZL7UxaI
ptXIOE3n6z0y1129m/rGClfqntl7VIQ4ehQw/18=
-----END CERTIFICATE-----
