Certificate:
    Data:
        Version: 3 (0x2)
        Serial Number:
            75:27:2f:d2:00:87:86:ea:5e:7b:ba:7e:78:f6:fb:0a:7f:c1:bc:c2
        Signature Algorithm: rsassaPss        
        Hash Algorithm: sha256
        Mask Algorithm: mgf1 with sha256
         Salt Length: 0x20
        Trailer Field: 0x01 (default)
        Issuer: C = US, ST = Montana, L = Bozeman, O = wolfSSL_RSA-PSS, OU = Root-RSA-PSS, CN = www.wolfssl.com, emailAddress = info@wolfssl.com
        Validity
            Not Before: Sep 26 17:22:42 2023 GMT
            Not After : Jun 22 17:22:42 2026 GMT
        Subject: C = US, ST = Montana, L = Bozeman, O = wolfSSL_RSA-PSS, OU = Root-RSA-PSS, CN = www.wolfssl.com, emailAddress = info@wolfssl.com
        Subject Public Key Info:
            Public Key Algorithm: rsassaPss
                Public-Key: (2048 bit)
                Modulus:
                    00:99:0a:01:b6:d1:40:7b:0c:ae:17:7e:e1:5c:8d:
                    fb:6b:cc:8f:06:51:75:e6:f0:97:ce:2f:76:fa:31:
                    bd:ef:79:b2:2e:e4:b5:11:1f:cb:29:ad:17:ee:32:
                    29:04:9a:9a:15:43:4c:e7:67:b8:0e:78:cf:eb:de:
                    38:6b:42:39:65:90:19:e0:5b:94:8e:e8:e2:18:4b:
                    c5:d2:6e:d6:78:f0:89:c3:d9:b0:dc:16:7e:68:72:
                    b5:0a:1b:ce:b2:24:8c:a0:c7:fc:c6:d8:72:ac:b7:
                    78:c3:05:7a:d7:78:aa:7c:ab:ac:8c:af:0a:d7:eb:
                    4b:b5:2c:40:dd:be:5a:4a:4d:6d:93:02:69:e2:08:
                    e5:97:a9:40:6e:18:38:6d:ef:8e:27:e3:58:fb:f3:
                    9b:f1:19:f9:90:9a:46:8e:27:96:68:ff:76:c3:36:
                    e3:73:e2:eb:cd:00:97:35:e9:64:cd:3b:0d:e3:f2:
                    02:fb:80:aa:dd:55:e1:2d:10:3f:08:62:be:ab:dc:
                    48:0c:85:b5:5e:fb:12:c9:9e:c0:bb:f1:0a:18:6c:
                    15:f9:e7:44:4a:15:09:73:49:d8:0c:96:f7:dc:d0:
                    02:62:ca:91:81:f4:b2:3c:ba:25:a9:98:84:d0:75:
                    2a:b1:7f:8f:9d:f8:ca:96:e0:82:94:e3:8a:b3:f6:
                    ef:f5
                Exponent: 65537 (0x10001)
                PSS parameter restrictions:
                  Hash Algorithm: SHA2-256
                  Mask Algorithm: MGF1 with SHA2-256
                  Minimum Salt Length: 32
                  Trailer Field: 0x1 (default)
        X509v3 extensions:
            X509v3 Subject Key Identifier: 
                64:D5:EC:82:87:80:DE:5A:ED:49:98:D8:0C:54:7D:46:9E:A5:3C:D6
            X509v3 Authority Key Identifier: 
                64:D5:EC:82:87:80:DE:5A:ED:49:98:D8:0C:54:7D:46:9E:A5:3C:D6
            X509v3 Basic Constraints: critical
                CA:TRUE
            X509v3 Key Usage: critical
                Digital Signature, Certificate Sign, CRL Sign
    Signature Algorithm: rsassaPss
    Signature Value:        
        Hash Algorithm: sha256
        Mask Algorithm: mgf1 with sha256
         Salt Length: 0x20
        Trailer Field: 0x01 (default)
        45:bc:b4:1b:4c:18:cf:a1:d9:72:36:97:1d:26:d2:09:b0:da:
        69:c5:49:0e:9c:8c:2e:f1:4e:0d:24:e4:ab:33:89:21:a7:50:
        84:94:61:61:cf:9a:3e:05:d2:68:27:4e:4f:21:4e:28:86:97:
        ea:67:fc:73:d6:57:6e:6a:b6:17:08:c2:0e:51:b3:64:f5:4d:
        e3:fe:2f:36:9c:f9:f3:e4:c8:38:76:0f:64:28:a7:e8:3f:e3:
        f5:02:50:2d:ba:39:d7:a3:da:85:ac:96:93:1f:75:50:74:51:
        70:eb:74:a0:45:10:59:49:55:98:8a:55:db:fb:bd:ec:4c:18:
        a5:5f:aa:82:6e:40:3f:7e:47:a3:75:bb:6a:a6:d6:12:2c:94:
        b6:41:a7:6d:86:04:c4:fe:92:e5:12:12:94:0d:c8:fd:61:87:
        a0:61:52:2a:3c:10:5e:32:f7:26:f3:dd:90:96:b3:86:33:78:
        49:35:7a:4e:b6:88:91:45:fe:38:d0:a0:e1:c9:44:09:e8:54:
        39:1e:82:fe:38:8f:77:25:20:d3:8e:83:6c:2f:f6:23:78:ab:
        a8:12:92:8c:bb:28:a2:f4:2e:eb:ad:58:8f:68:d1:d9:84:37:
        86:ad:f7:ea:bf:ca:a6:bf:b6:08:2a:33:74:38:37:39:ca:7d:
        6d:ad:a9:8f
-----BEGIN CERTIFICATE-----
MIIEyTCCA32gAwIBAgIUdScv0gCHhupee7p+ePb7Cn/BvMIwQQYJKoZIhvcNAQEK
MDSgDzANBglghkgBZQMEAgEFAKEcMBoGCSqGSIb3DQEBCDANBglghkgBZQMEAgEF
AKIDAgEgMIGdMQswCQYDVQQGEwJVUzEQMA4GA1UECAwHTW9udGFuYTEQMA4GA1UE
BwwHQm96ZW1hbjEYMBYGA1UECgwPd29sZlNTTF9SU0EtUFNTMRUwEwYDVQQLDAxS
b290LVJTQS1QU1MxGDAWBgNVBAMMD3d3dy53b2xmc3NsLmNvbTEfMB0GCSqGSIb3
DQEJARYQaW5mb0B3b2xmc3NsLmNvbTAeFw0yMzA5MjYxNzIyNDJaFw0yNjA2MjIx
NzIyNDJaMIGdMQswCQYDVQQGEwJVUzEQMA4GA1UECAwHTW9udGFuYTEQMA4GA1UE
BwwHQm96ZW1hbjEYMBYGA1UECgwPd29sZlNTTF9SU0EtUFNTMRUwEwYDVQQLDAxS
b290LVJTQS1QU1MxGDAWBgNVBAMMD3d3dy53b2xmc3NsLmNvbTEfMB0GCSqGSIb3
DQEJARYQaW5mb0B3b2xmc3NsLmNvbTCCAVYwQQYJKoZIhvcNAQEKMDSgDzANBglg
hkgBZQMEAgEFAKEcMBoGCSqGSIb3DQEBCDANBglghkgBZQMEAgEFAKIDAgEgA4IB
DwAwggEKAoIBAQCZCgG20UB7DK4XfuFcjftrzI8GUXXm8JfOL3b6Mb3vebIu5LUR
H8sprRfuMikEmpoVQ0znZ7gOeM/r3jhrQjllkBngW5SO6OIYS8XSbtZ48InD2bDc
Fn5ocrUKG86yJIygx/zG2HKst3jDBXrXeKp8q6yMrwrX60u1LEDdvlpKTW2TAmni
COWXqUBuGDht744n41j785vxGfmQmkaOJ5Zo/3bDNuNz4uvNAJc16WTNOw3j8gL7
gKrdVeEtED8IYr6r3EgMhbVe+xLJnsC78QoYbBX550RKFQlzSdgMlvfc0AJiypGB
9LI8uiWpmITQdSqxf4+d+MqW4IKU44qz9u/1AgMBAAGjYzBhMB0GA1UdDgQWBBRk
1eyCh4DeWu1JmNgMVH1GnqU81jAfBgNVHSMEGDAWgBRk1eyCh4DeWu1JmNgMVH1G
nqU81jAPBgNVHRMBAf8EBTADAQH/MA4GA1UdDwEB/wQEAwIBhjBBBgkqhkiG9w0B
AQowNKAPMA0GCWCGSAFlAwQCAQUAoRwwGgYJKoZIhvcNAQEIMA0GCWCGSAFlAwQC
AQUAogMCASADggEBAEW8tBtMGM+h2XI2lx0m0gmw2mnFSQ6cjC7xTg0k5KsziSGn
UISUYWHPmj4F0mgnTk8hTiiGl+pn/HPWV25qthcIwg5Rs2T1TeP+Lzac+fPkyDh2
D2Qop+g/4/UCUC26Odej2oWslpMfdVB0UXDrdKBFEFlJVZiKVdv7vexMGKVfqoJu
QD9+R6N1u2qm1hIslLZBp22GBMT+kuUSEpQNyP1hh6BhUio8EF4y9ybz3ZCWs4Yz
eEk1ek62iJFF/jjQoOHJRAnoVDkegv44j3clINOOg2wv9iN4q6gSkoy7KKL0Luut
WI9o0dmEN4at9+q/yqa/tggqM3Q4NznKfW2tqY8=
-----END CERTIFICATE-----
