Certificate:
    Data:
        Version: 3 (0x2)
        Serial Number:
            25:af:7b:c5:57:c8:31:42:fc:85:76:76:7a:01:a9:ca:68:a3:6a:d7
        Signature Algorithm: rsassaPss         
         Hash Algorithm: sha384
         Mask Algorithm: mgf1 with sha384
          Salt Length: 0x014E
         Trailer Field: 0xBC (default)
        Issuer: C = US, ST = Montana, L = Bozeman, O = wolfSSL_RSA-PSS, OU = Root-RSA-PSS, CN = www.wolfssl.com, emailAddress = info@wolfssl.com
        Validity
            Not Before: Dec 13 22:19:28 2023 GMT
            Not After : Sep  8 22:19:28 2026 GMT
        Subject: C = US, ST = Montana, L = Bozeman, O = wolfSSL_RSA-PSS, OU = Root-RSA-PSS, CN = www.wolfssl.com, emailAddress = info@wolfssl.com
        Subject Public Key Info:
            Public Key Algorithm: rsassaPss
                RSA-PSS Public-Key: (3072 bit)
                Modulus:
                    00:ad:cd:ed:4f:94:27:fa:57:28:90:bc:e5:35:b6:
                    96:36:18:25:45:e1:de:aa:87:98:88:61:2b:97:2a:
                    e4:4e:f6:06:36:1c:38:b5:5d:ae:99:59:99:70:01:
                    12:f9:02:49:7b:ae:c1:aa:78:41:26:9b:f6:31:09:
                    af:0a:6b:eb:f2:8c:39:2f:f9:fe:e0:38:a6:2f:00:
                    ee:40:6e:94:8c:be:3f:c1:3e:6b:3a:ae:91:e6:d6:
                    6c:34:1a:54:88:b6:38:b8:f8:c9:58:b4:8e:99:0c:
                    ab:37:6e:a1:50:25:f1:e4:e2:76:78:9c:95:12:7e:
                    35:7f:74:65:1d:79:b7:81:44:78:a3:53:f3:f4:1c:
                    17:80:15:b7:c1:f7:a1:b3:0b:69:5a:e7:12:6b:49:
                    1f:0a:84:88:70:19:73:16:be:1c:cd:b4:e0:e7:bf:
                    04:61:ba:da:44:eb:52:41:7a:46:b8:8e:02:83:c1:
                    75:05:60:d0:6c:0e:75:7d:52:9e:f9:38:17:de:a8:
                    cc:5c:dd:e6:02:8b:f5:30:43:1c:5a:98:8f:c3:c1:
                    d9:5f:e6:6f:6e:f1:74:d6:de:8b:5f:8b:ce:35:8a:
                    f4:58:8a:0e:6b:da:97:cd:8a:6a:b1:7f:83:4e:7c:
                    ae:b6:78:8e:51:e8:49:34:d1:68:e3:d0:bf:5b:b3:
                    17:5a:e0:d7:94:20:12:26:7b:9d:19:fa:1e:16:65:
                    65:e1:54:bb:f9:4f:9e:63:da:dc:10:dc:b0:9b:09:
                    24:d5:0b:97:83:eb:2c:b3:1e:15:50:38:93:06:5a:
                    8c:11:12:63:21:31:91:c3:7c:bf:54:ed:2c:2f:bc:
                    f7:63:a4:38:36:5c:f3:bb:71:3d:0d:15:f6:5a:bc:
                    4c:ee:78:50:31:61:40:bf:45:28:d2:b5:2f:c1:08:
                    af:be:d6:03:00:cf:19:69:e3:a0:b0:92:ec:26:42:
                    5e:02:a5:d1:2d:cf:b8:63:df:ce:b3:22:6c:1a:d3:
                    5d:89:15:9a:c4:77:98:cd:95:7f
                Exponent: 65537 (0x10001)
                No PSS parameter restrictions
        X509v3 extensions:
            X509v3 Subject Key Identifier: 
                AA:71:D3:B1:8A:4B:BB:47:15:47:5F:9B:D0:2B:69:D1:6F:85:5E:F6
            X509v3 Authority Key Identifier: 
                keyid:AA:71:D3:B1:8A:4B:BB:47:15:47:5F:9B:D0:2B:69:D1:6F:85:5E:F6

            X509v3 Basic Constraints: critical
                CA:TRUE
            X509v3 Key Usage: critical
                Digital Signature, Certificate Sign, CRL Sign
    Signature Algorithm: rsassaPss         
         Hash Algorithm: sha384
         Mask Algorithm: mgf1 with sha384
          Salt Length: 0x014E
         Trailer Field: 0xBC (default)

         8f:d2:c7:8f:7f:7d:4e:ca:13:59:51:bb:2d:51:c7:bc:70:3c:
         2d:a7:44:e2:b7:14:f2:1f:6f:9e:81:92:8d:f4:65:45:7d:72:
         91:37:8f:21:b2:cf:aa:94:a2:cc:fe:63:a5:96:a3:a4:9c:f4:
         ae:da:bd:b0:33:61:0b:54:05:da:7b:5a:7b:cc:5d:1a:59:a7:
         59:ad:29:73:e2:ec:e8:ac:f4:89:f4:3b:4d:17:a8:72:ae:d0:
         78:a1:f2:57:2a:15:e1:07:6c:c1:69:92:6a:a4:ea:24:30:bc:
         fb:d4:95:6f:b9:dc:0e:4f:3e:a3:1f:e5:2e:2e:b0:5a:0a:1a:
         39:e3:a8:7a:2c:03:32:c2:f7:b5:55:a6:2b:dc:6c:de:13:fc:
         fa:bd:5f:ee:fe:af:a8:4b:c1:2e:2b:da:c1:29:d3:92:a6:3a:
         dc:04:84:67:84:63:f8:b0:f0:4b:8f:5e:16:cd:97:22:32:28:
         2d:bb:2d:07:74:49:1b:78:ce:4e:4b:ac:57:f8:21:f2:f6:2a:
         0d:ad:ea:2a:3f:ed:c1:fc:9e:dc:62:b3:f3:43:bd:1d:14:e3:
         97:51:1b:ef:df:0d:b4:04:b4:7a:8b:7a:16:be:d5:40:77:07:
         cf:87:e3:2e:5e:df:ee:a2:bd:3c:50:af:a7:d1:34:84:50:9f:
         73:2d:89:12:4b:8f:34:d6:6b:80:94:36:16:16:b0:5c:bc:36:
         36:12:44:8b:f4:20:ef:08:3d:8c:d6:81:66:61:0e:57:85:54:
         82:b3:f8:e3:98:21:44:ea:4a:a6:ff:ec:aa:b5:58:23:6a:03:
         ed:c2:8c:22:f5:3d:14:7e:ff:f6:16:76:2e:20:2e:1a:1b:9c:
         4c:6c:8d:f5:de:1c:09:59:67:ce:73:47:11:c7:ed:43:df:05:
         07:75:e0:8e:15:96:61:4a:e9:32:0d:35:86:cc:1b:a1:7a:3a:
         a3:8f:58:e2:21:fd:4b:d9:62:82:83:56:ed:dc:61:c2:13:79:
         80:1c:89:f7:fc:02
-----BEGIN CERTIFICATE-----
MIIFjTCCA8SgAwIBAgIUJa97xVfIMUL8hXZ2egGpymijatcwPgYJKoZIhvcNAQEK
MDGgDTALBglghkgBZQMEAgKhGjAYBgkqhkiG9w0BAQgwCwYJYIZIAWUDBAICogQC
AgFOMIGdMQswCQYDVQQGEwJVUzEQMA4GA1UECAwHTW9udGFuYTEQMA4GA1UEBwwH
Qm96ZW1hbjEYMBYGA1UECgwPd29sZlNTTF9SU0EtUFNTMRUwEwYDVQQLDAxSb290
LVJTQS1QU1MxGDAWBgNVBAMMD3d3dy53b2xmc3NsLmNvbTEfMB0GCSqGSIb3DQEJ
ARYQaW5mb0B3b2xmc3NsLmNvbTAeFw0yMzEyMTMyMjE5MjhaFw0yNjA5MDgyMjE5
MjhaMIGdMQswCQYDVQQGEwJVUzEQMA4GA1UECAwHTW9udGFuYTEQMA4GA1UEBwwH
Qm96ZW1hbjEYMBYGA1UECgwPd29sZlNTTF9SU0EtUFNTMRUwEwYDVQQLDAxSb290
LVJTQS1QU1MxGDAWBgNVBAMMD3d3dy53b2xmc3NsLmNvbTEfMB0GCSqGSIb3DQEJ
ARYQaW5mb0B3b2xmc3NsLmNvbTCCAaAwCwYJKoZIhvcNAQEKA4IBjwAwggGKAoIB
gQCtze1PlCf6VyiQvOU1tpY2GCVF4d6qh5iIYSuXKuRO9gY2HDi1Xa6ZWZlwARL5
Akl7rsGqeEEmm/YxCa8Ka+vyjDkv+f7gOKYvAO5AbpSMvj/BPms6rpHm1mw0GlSI
tji4+MlYtI6ZDKs3bqFQJfHk4nZ4nJUSfjV/dGUdebeBRHijU/P0HBeAFbfB96Gz
C2la5xJrSR8KhIhwGXMWvhzNtODnvwRhutpE61JBeka4jgKDwXUFYNBsDnV9Up75
OBfeqMxc3eYCi/UwQxxamI/Dwdlf5m9u8XTW3otfi841ivRYig5r2pfNimqxf4NO
fK62eI5R6Ek00Wjj0L9bsxda4NeUIBIme50Z+h4WZWXhVLv5T55j2twQ3LCbCSTV
C5eD6yyzHhVQOJMGWowREmMhMZHDfL9U7SwvvPdjpDg2XPO7cT0NFfZavEzueFAx
YUC/RSjStS/BCK++1gMAzxlp46CwkuwmQl4CpdEtz7hj386zImwa012JFZrEd5jN
lX8CAwEAAaNjMGEwHQYDVR0OBBYEFKpx07GKS7tHFUdfm9AradFvhV72MB8GA1Ud
IwQYMBaAFKpx07GKS7tHFUdfm9AradFvhV72MA8GA1UdEwEB/wQFMAMBAf8wDgYD
VR0PAQH/BAQDAgGGMD4GCSqGSIb3DQEBCjAxoA0wCwYJYIZIAWUDBAICoRowGAYJ
KoZIhvcNAQEIMAsGCWCGSAFlAwQCAqIEAgIBTgOCAYEAj9LHj399TsoTWVG7LVHH
vHA8LadE4rcU8h9vnoGSjfRlRX1ykTePIbLPqpSizP5jpZajpJz0rtq9sDNhC1QF
2ntae8xdGlmnWa0pc+Ls6Kz0ifQ7TReocq7QeKHyVyoV4QdswWmSaqTqJDC8+9SV
b7ncDk8+ox/lLi6wWgoaOeOoeiwDMsL3tVWmK9xs3hP8+r1f7v6vqEvBLivawSnT
kqY63ASEZ4Rj+LDwS49eFs2XIjIoLbstB3RJG3jOTkusV/gh8vYqDa3qKj/twfye
3GKz80O9HRTjl1Eb798NtAS0eot6Fr7VQHcHz4fjLl7f7qK9PFCvp9E0hFCfcy2J
EkuPNNZrgJQ2FhawXLw2NhJEi/Qg7wg9jNaBZmEOV4VUgrP445ghROpKpv/sqrVY
I2oD7cKMIvU9FH7/9hZ2LiAuGhucTGyN9d4cCVlnznNHEcftQ98FB3XgjhWWYUrp
Mg01hswboXo6o49Y4iH9S9ligoNW7dxhwhN5gByJ9/wC
-----END CERTIFICATE-----
