Certificate:
    Data:
        Version: 3 (0x2)
        Serial Number:
            7a:3d:5f:e1:2a:a5:f1:c2:27:b6:bd:6b:ef:c6:7c:57:16:e2:3f:fe
        Signature Algorithm: rsassaPss        
        Hash Algorithm: sha384
        Mask Algorithm: mgf1 with sha384
         Salt Length: 0x014E
        Trailer Field: 0x01 (default)
        Issuer: C = US, ST = Montana, L = Bozeman, O = wolfSSL_RSA-PSS, OU = Root-RSA-PSS, CN = www.wolfssl.com, emailAddress = info@wolfssl.com
        Validity
            Not Before: Dec 18 21:25:30 2024 GMT
            Not After : Sep 14 21:25:30 2027 GMT
        Subject: C = US, ST = Montana, L = Bozeman, O = wolfSSL_RSA-PSS, OU = Root-RSA-PSS, CN = www.wolfssl.com, emailAddress = info@wolfssl.com
        Subject Public Key Info:
            Public Key Algorithm: rsassaPss
                Public-Key: (3072 bit)
                Modulus:
                    00:ad:cd:ed:4f:94:27:fa:57:28:90:bc:e5:35:b6:
                    96:36:18:25:45:e1:de:aa:87:98:88:61:2b:97:2a:
                    e4:4e:f6:06:36:1c:38:b5:5d:ae:99:59:99:70:01:
                    12:f9:02:49:7b:ae:c1:aa:78:41:26:9b:f6:31:09:
                    af:0a:6b:eb:f2:8c:39:2f:f9:fe:e0:38:a6:2f:00:
                    ee:40:6e:94:8c:be:3f:c1:3e:6b:3a:ae:91:e6:d6:
                    6c:34:1a:54:88:b6:38:b8:f8:c9:58:b4:8e:99:0c:
                    ab:37:6e:a1:50:25:f1:e4:e2:76:78:9c:95:12:7e:
                    35:7f:74:65:1d:79:b7:81:44:78:a3:53:f3:f4:1c:
                    17:80:15:b7:c1:f7:a1:b3:0b:69:5a:e7:12:6b:49:
                    1f:0a:84:88:70:19:73:16:be:1c:cd:b4:e0:e7:bf:
                    04:61:ba:da:44:eb:52:41:7a:46:b8:8e:02:83:c1:
                    75:05:60:d0:6c:0e:75:7d:52:9e:f9:38:17:de:a8:
                    cc:5c:dd:e6:02:8b:f5:30:43:1c:5a:98:8f:c3:c1:
                    d9:5f:e6:6f:6e:f1:74:d6:de:8b:5f:8b:ce:35:8a:
                    f4:58:8a:0e:6b:da:97:cd:8a:6a:b1:7f:83:4e:7c:
                    ae:b6:78:8e:51:e8:49:34:d1:68:e3:d0:bf:5b:b3:
                    17:5a:e0:d7:94:20:12:26:7b:9d:19:fa:1e:16:65:
                    65:e1:54:bb:f9:4f:9e:63:da:dc:10:dc:b0:9b:09:
                    24:d5:0b:97:83:eb:2c:b3:1e:15:50:38:93:06:5a:
                    8c:11:12:63:21:31:91:c3:7c:bf:54:ed:2c:2f:bc:
                    f7:63:a4:38:36:5c:f3:bb:71:3d:0d:15:f6:5a:bc:
                    4c:ee:78:50:31:61:40:bf:45:28:d2:b5:2f:c1:08:
                    af:be:d6:03:00:cf:19:69:e3:a0:b0:92:ec:26:42:
                    5e:02:a5:d1:2d:cf:b8:63:df:ce:b3:22:6c:1a:d3:
                    5d:89:15:9a:c4:77:98:cd:95:7f
                Exponent: 65537 (0x10001)
                No PSS parameter restrictions
        X509v3 extensions:
            X509v3 Subject Key Identifier: 
                AA:71:D3:B1:8A:4B:BB:47:15:47:5F:9B:D0:2B:69:D1:6F:85:5E:F6
            X509v3 Authority Key Identifier: 
                AA:71:D3:B1:8A:4B:BB:47:15:47:5F:9B:D0:2B:69:D1:6F:85:5E:F6
            X509v3 Basic Constraints: critical
                CA:TRUE
            X509v3 Key Usage: critical
                Digital Signature, Certificate Sign, CRL Sign
    Signature Algorithm: rsassaPss
    Signature Value:        
        Hash Algorithm: sha384
        Mask Algorithm: mgf1 with sha384
         Salt Length: 0x014E
        Trailer Field: 0x01 (default)
        30:fb:47:65:a5:bd:5e:d1:c0:5b:31:73:c5:6e:77:85:0d:a2:
        25:99:89:a0:77:e3:03:17:82:78:b8:5f:01:d6:be:03:e3:7e:
        2b:6b:9e:50:48:b3:14:1d:1a:e6:a7:b7:e7:f5:c8:9a:82:fd:
        4e:0b:d6:e4:8f:c1:c9:66:c7:c8:54:c2:09:74:1e:70:4d:8f:
        b8:8c:b3:86:20:8c:1e:90:10:c3:d2:df:bf:26:e2:77:f7:5b:
        7a:f4:ce:52:ec:b9:b2:1b:c1:f4:e8:c7:09:0b:2d:24:fa:43:
        08:5e:a6:f5:08:8a:c6:3f:11:64:10:c4:66:30:8a:a8:0e:6e:
        80:d7:c7:ce:94:22:d5:bb:d9:e2:14:b4:ea:4e:ac:b0:b6:c2:
        94:b8:c7:bd:8e:24:f9:f4:6d:0c:38:4c:29:2e:f9:56:30:23:
        98:15:63:1e:8a:ba:26:15:d7:b2:14:f3:a0:8c:88:47:40:aa:
        86:e2:b7:6b:6e:f6:99:ff:a7:73:3d:b1:ca:21:2c:9c:e3:bd:
        e7:a8:cd:63:48:61:c5:23:d7:1c:73:af:81:f4:77:70:38:03:
        6e:0c:98:a2:57:8b:70:5a:25:4e:e3:c0:fa:69:cc:88:f1:28:
        c8:91:c6:31:8c:40:fd:94:dc:64:94:c4:13:73:8e:29:2c:72:
        f6:e9:7d:08:2d:4c:cc:00:2f:a1:3a:19:03:4f:05:0f:e3:6c:
        64:29:bf:49:c5:19:bc:58:2e:ea:f0:36:2e:52:8e:99:04:a3:
        d6:03:e4:da:36:70:e4:c9:86:c3:96:a6:09:54:e4:aa:57:f8:
        a2:09:48:89:3a:5d:a1:b0:27:25:d0:f0:31:4e:36:91:b5:55:
        65:d1:8c:c0:8d:fd:83:0d:d4:5b:86:e5:2b:85:f6:1e:fa:a7:
        36:ec:12:a4:88:8d:d7:a0:60:a4:27:85:b8:aa:d9:1f:8a:ba:
        14:79:45:cc:51:5b:18:cf:89:24:9d:8b:f0:2f:74:c2:ce:8a:
        82:73:3c:6b:eb:6c
-----BEGIN CERTIFICATE-----
MIIFlTCCA8igAwIBAgIUej1f4Sql8cIntr1r78Z8VxbiP/4wQgYJKoZIhvcNAQEK
MDWgDzANBglghkgBZQMEAgIFAKEcMBoGCSqGSIb3DQEBCDANBglghkgBZQMEAgIF
AKIEAgIBTjCBnTELMAkGA1UEBhMCVVMxEDAOBgNVBAgMB01vbnRhbmExEDAOBgNV
BAcMB0JvemVtYW4xGDAWBgNVBAoMD3dvbGZTU0xfUlNBLVBTUzEVMBMGA1UECwwM
Um9vdC1SU0EtUFNTMRgwFgYDVQQDDA93d3cud29sZnNzbC5jb20xHzAdBgkqhkiG
9w0BCQEWEGluZm9Ad29sZnNzbC5jb20wHhcNMjQxMjE4MjEyNTMwWhcNMjcwOTE0
MjEyNTMwWjCBnTELMAkGA1UEBhMCVVMxEDAOBgNVBAgMB01vbnRhbmExEDAOBgNV
BAcMB0JvemVtYW4xGDAWBgNVBAoMD3dvbGZTU0xfUlNBLVBTUzEVMBMGA1UECwwM
Um9vdC1SU0EtUFNTMRgwFgYDVQQDDA93d3cud29sZnNzbC5jb20xHzAdBgkqhkiG
9w0BCQEWEGluZm9Ad29sZnNzbC5jb20wggGgMAsGCSqGSIb3DQEBCgOCAY8AMIIB
igKCAYEArc3tT5Qn+lcokLzlNbaWNhglReHeqoeYiGErlyrkTvYGNhw4tV2umVmZ
cAES+QJJe67BqnhBJpv2MQmvCmvr8ow5L/n+4DimLwDuQG6UjL4/wT5rOq6R5tZs
NBpUiLY4uPjJWLSOmQyrN26hUCXx5OJ2eJyVEn41f3RlHXm3gUR4o1Pz9BwXgBW3
wfehswtpWucSa0kfCoSIcBlzFr4czbTg578EYbraROtSQXpGuI4Cg8F1BWDQbA51
fVKe+TgX3qjMXN3mAov1MEMcWpiPw8HZX+ZvbvF01t6LX4vONYr0WIoOa9qXzYpq
sX+DTnyutniOUehJNNFo49C/W7MXWuDXlCASJnudGfoeFmVl4VS7+U+eY9rcENyw
mwkk1QuXg+sssx4VUDiTBlqMERJjITGRw3y/VO0sL7z3Y6Q4Nlzzu3E9DRX2WrxM
7nhQMWFAv0Uo0rUvwQivvtYDAM8ZaeOgsJLsJkJeAqXRLc+4Y9/OsyJsGtNdiRWa
xHeYzZV/AgMBAAGjYzBhMB0GA1UdDgQWBBSqcdOxiku7RxVHX5vQK2nRb4Ve9jAf
BgNVHSMEGDAWgBSqcdOxiku7RxVHX5vQK2nRb4Ve9jAPBgNVHRMBAf8EBTADAQH/
MA4GA1UdDwEB/wQEAwIBhjBCBgkqhkiG9w0BAQowNaAPMA0GCWCGSAFlAwQCAgUA
oRwwGgYJKoZIhvcNAQEIMA0GCWCGSAFlAwQCAgUAogQCAgFOA4IBgQAw+0dlpb1e
0cBbMXPFbneFDaIlmYmgd+MDF4J4uF8B1r4D434ra55QSLMUHRrmp7fn9ciagv1O
C9bkj8HJZsfIVMIJdB5wTY+4jLOGIIwekBDD0t+/JuJ391t69M5S7LmyG8H06McJ
Cy0k+kMIXqb1CIrGPxFkEMRmMIqoDm6A18fOlCLVu9niFLTqTqywtsKUuMe9jiT5
9G0MOEwpLvlWMCOYFWMeiromFdeyFPOgjIhHQKqG4rdrbvaZ/6dzPbHKISyc473n
qM1jSGHFI9ccc6+B9HdwOANuDJiiV4twWiVO48D6acyI8SjIkcYxjED9lNxklMQT
c44pLHL26X0ILUzMAC+hOhkDTwUP42xkKb9JxRm8WC7q8DYuUo6ZBKPWA+TaNnDk
yYbDlqYJVOSqV/iiCUiJOl2hsCcl0PAxTjaRtVVl0YzAjf2DDdRbhuUrhfYe+qc2
7BKkiI3XoGCkJ4W4qtkfiroUeUXMUVsYz4kknYvwL3TCzoqCczxr62w=
-----END CERTIFICATE-----
