Certificate:
    Data:
        Version: 3 (0x2)
        Serial Number: 1 (0x1)
        Signature Algorithm: rsassaPss        
        Hash Algorithm: sha384
        Mask Algorithm: mgf1 with sha384
         Salt Length: 0x014E
        Trailer Field: 0x01 (default)
        Issuer: C = US, ST = Montana, L = Bozeman, O = wolfSSL_RSAPSS, OU = CA-RSAPSS, CN = www.wolfssl.com, emailAddress = info@wolfssl.com, UID = wolfSSL
        Validity
            Not Before: Sep 26 17:22:43 2023 GMT
            Not After : Jun 22 17:22:43 2026 GMT
        Subject: C = US, ST = Montana, L = Bozeman, O = wolfSSL_RSAPSS, OU = Server-RSAPSS, CN = www.wolfssl.com, emailAddress = info@wolfssl.com, UID = wolfSSL
        Subject Public Key Info:
            Public Key Algorithm: rsassaPss
                Public-Key: (3072 bit)
                Modulus:
                    00:be:84:78:d3:6b:7d:b2:ae:51:88:68:6a:33:f1:
                    f9:c5:1a:6f:97:71:94:22:f4:c2:f0:49:88:2b:a4:
                    4d:15:6f:db:cc:d4:c6:6f:75:a6:e2:22:06:af:91:
                    26:4e:a0:2d:97:17:95:0b:40:1a:75:23:9b:b1:e0:
                    d7:5d:cc:0d:5f:09:9e:c9:b7:3d:f8:e5:62:bb:34:
                    75:99:0c:e6:da:7d:95:40:ee:5f:27:76:f9:ca:d6:
                    0d:1e:a7:06:9f:c5:75:57:96:44:b9:73:f4:de:aa:
                    a9:af:be:4b:98:f3:6c:c8:da:d9:a2:26:35:21:40:
                    e7:67:4b:e2:d9:c4:4f:b8:96:54:17:59:d8:ca:af:
                    b1:56:47:be:15:5b:05:d3:29:cc:ec:2b:99:fa:13:
                    1a:2a:d0:61:d1:41:c2:27:5d:d9:a7:f2:29:28:eb:
                    fb:e5:89:c5:01:83:88:1d:dc:70:1a:8f:2f:3b:e5:
                    34:e8:5b:ef:ed:76:5f:8a:51:ea:2d:92:c2:e6:86:
                    6d:6a:92:93:c3:6d:04:c5:95:68:07:fe:9a:32:d9:
                    38:c8:06:eb:33:92:b9:0b:ce:2e:c3:6b:6a:a2:41:
                    6a:ce:09:e7:4a:90:a8:2f:59:0e:76:dc:4f:b8:86:
                    d0:4b:95:e6:1b:e4:c6:59:26:ef:1c:00:4e:ce:fb:
                    cf:63:05:7e:a6:d4:09:39:fe:d3:79:49:f2:6a:6a:
                    1a:17:cb:13:a5:3d:d9:fa:b0:a4:5f:18:e8:e5:5c:
                    4b:38:d5:d8:b8:76:35:a0:0b:e1:98:b9:58:c3:88:
                    e5:f8:4a:e6:d0:84:a3:5e:4d:85:c9:d6:7f:9d:9f:
                    35:28:66:56:04:25:cc:1b:4c:f7:e3:cb:39:be:e0:
                    5f:a8:93:bd:a1:0b:cd:63:e0:16:07:af:40:0b:cb:
                    6e:3f:81:0c:cd:80:bf:13:f1:92:57:a1:48:17:d2:
                    29:b0:5a:a2:d5:42:84:c8:6c:09:31:c6:05:92:dd:
                    a3:f7:56:ed:e7:5f:29:88:eb:4b
                Exponent: 65537 (0x10001)
                No PSS parameter restrictions
        X509v3 extensions:
            X509v3 Subject Key Identifier: 
                C8:F1:E9:1E:60:01:C8:23:CC:D7:98:B3:BB:65:7A:32:C4:4B:93:39
            X509v3 Authority Key Identifier: 
                F8:42:CC:88:C9:C8:18:F9:D3:B0:24:65:06:4C:FF:55:AB:BF:0E:7F
            X509v3 Basic Constraints: critical
                CA:FALSE
            X509v3 Key Usage: critical
                Digital Signature, Key Encipherment, Key Agreement
            X509v3 Extended Key Usage: 
                TLS Web Server Authentication
            Netscape Cert Type: 
                SSL Server
    Signature Algorithm: rsassaPss
    Signature Value:        
        Hash Algorithm: sha384
        Mask Algorithm: mgf1 with sha384
         Salt Length: 0x014E
        Trailer Field: 0x01 (default)
        95:23:52:93:92:09:78:28:cc:90:fe:fc:90:f0:c3:c9:65:61:
        ed:29:18:3f:42:75:15:a4:14:86:22:06:62:19:22:13:7a:8e:
        51:8b:c1:39:5d:55:1a:e0:a6:34:9d:bf:7f:cb:8a:c3:8a:d6:
        27:fa:73:8c:4a:aa:c0:6e:b5:7e:63:d8:2c:96:bf:34:5f:3e:
        ab:a9:e8:94:0c:a4:95:b2:c7:8f:6b:4e:74:78:2c:6f:61:ea:
        f0:a9:4b:ad:66:c3:12:d3:53:e8:56:0c:ae:82:19:89:58:b8:
        2e:4f:fd:ac:32:ce:4f:82:f9:00:64:ec:08:58:b0:8b:92:4e:
        80:8a:74:f7:70:cd:a5:b1:b0:8f:19:4a:92:ff:56:d3:26:1c:
        42:6a:1e:01:7d:58:c0:84:36:47:d3:68:ee:23:a5:c5:b7:68:
        75:d8:80:43:70:17:89:c4:8a:e0:f5:9e:74:bd:76:4d:48:36:
        c7:d0:7d:59:ed:54:7d:05:c6:05:a3:d8:7b:e0:eb:40:17:aa:
        16:0e:d0:f4:47:8a:6c:33:75:e3:af:6d:29:b0:10:b0:8f:7d:
        50:20:cd:61:ad:bf:2b:83:d4:d1:3d:5a:05:06:52:1a:7d:06:
        d7:b7:bb:37:19:71:46:bb:37:fc:1b:2b:f0:0c:51:ca:08:bf:
        29:a2:77:0c:2d:2b:83:6e:0a:64:51:9f:6c:c8:c9:4e:78:67:
        36:65:c1:02:57:2e:61:2d:8b:bc:26:1c:63:06:4b:6d:9e:64:
        66:3c:45:23:b6:93:6d:a5:4e:00:4a:02:03:94:9b:83:c6:29:
        be:50:b6:c4:90:fb:01:be:77:6f:c9:2f:9d:92:55:ca:81:22:
        2d:ae:00:e5:4e:9f:a5:ec:3b:45:10:21:9d:e5:71:7f:f5:31:
        3c:aa:05:6e:48:ad:6d:e4:79:f6:43:5f:8c:67:b4:d5:5d:34:
        90:ae:35:56:4f:5f:99:cf:b4:16:2e:f2:a8:10:3e:33:c6:fb:
        87:20:ea:1f:b6:94
-----BEGIN CERTIFICATE-----
MIIF1zCCBAqgAwIBAgIBATBCBgkqhkiG9w0BAQowNaAPMA0GCWCGSAFlAwQCAgUA
oRwwGgYJKoZIhvcNAQEIMA0GCWCGSAFlAwQCAgUAogQCAgFOMIGyMQswCQYDVQQG
EwJVUzEQMA4GA1UECAwHTW9udGFuYTEQMA4GA1UEBwwHQm96ZW1hbjEXMBUGA1UE
CgwOd29sZlNTTF9SU0FQU1MxEjAQBgNVBAsMCUNBLVJTQVBTUzEYMBYGA1UEAwwP
d3d3LndvbGZzc2wuY29tMR8wHQYJKoZIhvcNAQkBFhBpbmZvQHdvbGZzc2wuY29t
MRcwFQYKCZImiZPyLGQBAQwHd29sZlNTTDAeFw0yMzA5MjYxNzIyNDNaFw0yNjA2
MjIxNzIyNDNaMIG2MQswCQYDVQQGEwJVUzEQMA4GA1UECAwHTW9udGFuYTEQMA4G
A1UEBwwHQm96ZW1hbjEXMBUGA1UECgwOd29sZlNTTF9SU0FQU1MxFjAUBgNVBAsM
DVNlcnZlci1SU0FQU1MxGDAWBgNVBAMMD3d3dy53b2xmc3NsLmNvbTEfMB0GCSqG
SIb3DQEJARYQaW5mb0B3b2xmc3NsLmNvbTEXMBUGCgmSJomT8ixkAQEMB3dvbGZT
U0wwggGgMAsGCSqGSIb3DQEBCgOCAY8AMIIBigKCAYEAvoR402t9sq5RiGhqM/H5
xRpvl3GUIvTC8EmIK6RNFW/bzNTGb3Wm4iIGr5EmTqAtlxeVC0AadSObseDXXcwN
Xwmeybc9+OViuzR1mQzm2n2VQO5fJ3b5ytYNHqcGn8V1V5ZEuXP03qqpr75LmPNs
yNrZoiY1IUDnZ0vi2cRPuJZUF1nYyq+xVke+FVsF0ynM7CuZ+hMaKtBh0UHCJ13Z
p/IpKOv75YnFAYOIHdxwGo8vO+U06Fvv7XZfilHqLZLC5oZtapKTw20ExZVoB/6a
Mtk4yAbrM5K5C84uw2tqokFqzgnnSpCoL1kOdtxPuIbQS5XmG+TGWSbvHABOzvvP
YwV+ptQJOf7TeUnyamoaF8sTpT3Z+rCkXxjo5VxLONXYuHY1oAvhmLlYw4jl+Erm
0ISjXk2FydZ/nZ81KGZWBCXMG0z348s5vuBfqJO9oQvNY+AWB69AC8tuP4EMzYC/
E/GSV6FIF9IpsFqi1UKEyGwJMcYFkt2j91bt518piOtLAgMBAAGjgYkwgYYwHQYD
VR0OBBYEFMjx6R5gAcgjzNeYs7tlejLES5M5MB8GA1UdIwQYMBaAFPhCzIjJyBj5
07AkZQZM/1Wrvw5/MAwGA1UdEwEB/wQCMAAwDgYDVR0PAQH/BAQDAgOoMBMGA1Ud
JQQMMAoGCCsGAQUFBwMBMBEGCWCGSAGG+EIBAQQEAwIGQDBCBgkqhkiG9w0BAQow
NaAPMA0GCWCGSAFlAwQCAgUAoRwwGgYJKoZIhvcNAQEIMA0GCWCGSAFlAwQCAgUA
ogQCAgFOA4IBgQCVI1KTkgl4KMyQ/vyQ8MPJZWHtKRg/QnUVpBSGIgZiGSITeo5R
i8E5XVUa4KY0nb9/y4rDitYn+nOMSqrAbrV+Y9gslr80Xz6rqeiUDKSVssePa050
eCxvYerwqUutZsMS01PoVgyughmJWLguT/2sMs5PgvkAZOwIWLCLkk6AinT3cM2l
sbCPGUqS/1bTJhxCah4BfVjAhDZH02juI6XFt2h12IBDcBeJxIrg9Z50vXZNSDbH
0H1Z7VR9BcYFo9h74OtAF6oWDtD0R4psM3Xjr20psBCwj31QIM1hrb8rg9TRPVoF
BlIafQbXt7s3GXFGuzf8GyvwDFHKCL8poncMLSuDbgpkUZ9syMlOeGc2ZcECVy5h
LYu8JhxjBkttnmRmPEUjtpNtpU4ASgIDlJuDxim+ULbEkPsBvndvyS+dklXKgSIt
rgDlTp+l7DtFECGd5XF/9TE8qgVuSK1t5Hn2Q1+MZ7TVXTSQrjVWT1+Zz7QWLvKo
ED4zxvuHIOoftpQ=
-----END CERTIFICATE-----
