Certificate:
    Data:
        Version: 3 (0x2)
        Serial Number: 1 (0x1)
        Signature Algorithm: rsassaPss         
         Hash Algorithm: sha384
         Mask Algorithm: mgf1 with sha384
          Salt Length: 0x014E
         Trailer Field: 0xBC (default)
        Issuer: C = US, ST = Montana, L = Bozeman, O = wolfSSL_RSAPSS, OU = CA-RSAPSS, CN = www.wolfssl.com, emailAddress = info@wolfssl.com, UID = wolfSSL
        Validity
            Not Before: Jul 25 02:27:55 2022 GMT
            Not After : Apr 20 02:27:55 2025 GMT
        Subject: C = US, ST = Montana, L = Bozeman, O = wolfSSL_RSAPSS, OU = Server-RSAPSS, CN = www.wolfssl.com, emailAddress = info@wolfssl.com, UID = wolfSSL
        Subject Public Key Info:
            Public Key Algorithm: rsassaPss
                RSA-PSS Public-Key: (3072 bit)
                Modulus:
                    00:be:84:78:d3:6b:7d:b2:ae:51:88:68:6a:33:f1:
                    f9:c5:1a:6f:97:71:94:22:f4:c2:f0:49:88:2b:a4:
                    4d:15:6f:db:cc:d4:c6:6f:75:a6:e2:22:06:af:91:
                    26:4e:a0:2d:97:17:95:0b:40:1a:75:23:9b:b1:e0:
                    d7:5d:cc:0d:5f:09:9e:c9:b7:3d:f8:e5:62:bb:34:
                    75:99:0c:e6:da:7d:95:40:ee:5f:27:76:f9:ca:d6:
                    0d:1e:a7:06:9f:c5:75:57:96:44:b9:73:f4:de:aa:
                    a9:af:be:4b:98:f3:6c:c8:da:d9:a2:26:35:21:40:
                    e7:67:4b:e2:d9:c4:4f:b8:96:54:17:59:d8:ca:af:
                    b1:56:47:be:15:5b:05:d3:29:cc:ec:2b:99:fa:13:
                    1a:2a:d0:61:d1:41:c2:27:5d:d9:a7:f2:29:28:eb:
                    fb:e5:89:c5:01:83:88:1d:dc:70:1a:8f:2f:3b:e5:
                    34:e8:5b:ef:ed:76:5f:8a:51:ea:2d:92:c2:e6:86:
                    6d:6a:92:93:c3:6d:04:c5:95:68:07:fe:9a:32:d9:
                    38:c8:06:eb:33:92:b9:0b:ce:2e:c3:6b:6a:a2:41:
                    6a:ce:09:e7:4a:90:a8:2f:59:0e:76:dc:4f:b8:86:
                    d0:4b:95:e6:1b:e4:c6:59:26:ef:1c:00:4e:ce:fb:
                    cf:63:05:7e:a6:d4:09:39:fe:d3:79:49:f2:6a:6a:
                    1a:17:cb:13:a5:3d:d9:fa:b0:a4:5f:18:e8:e5:5c:
                    4b:38:d5:d8:b8:76:35:a0:0b:e1:98:b9:58:c3:88:
                    e5:f8:4a:e6:d0:84:a3:5e:4d:85:c9:d6:7f:9d:9f:
                    35:28:66:56:04:25:cc:1b:4c:f7:e3:cb:39:be:e0:
                    5f:a8:93:bd:a1:0b:cd:63:e0:16:07:af:40:0b:cb:
                    6e:3f:81:0c:cd:80:bf:13:f1:92:57:a1:48:17:d2:
                    29:b0:5a:a2:d5:42:84:c8:6c:09:31:c6:05:92:dd:
                    a3:f7:56:ed:e7:5f:29:88:eb:4b
                Exponent: 65537 (0x10001)
                No PSS parameter restrictions
        X509v3 extensions:
            X509v3 Subject Key Identifier: 
                C8:F1:E9:1E:60:01:C8:23:CC:D7:98:B3:BB:65:7A:32:C4:4B:93:39
            X509v3 Authority Key Identifier: 
                keyid:F8:42:CC:88:C9:C8:18:F9:D3:B0:24:65:06:4C:FF:55:AB:BF:0E:7F

            X509v3 Basic Constraints: critical
                CA:FALSE
            X509v3 Key Usage: critical
                Digital Signature, Key Encipherment, Key Agreement
            X509v3 Extended Key Usage: 
                TLS Web Server Authentication
            Netscape Cert Type: 
                SSL Server
    Signature Algorithm: rsassaPss         
         Hash Algorithm: sha384
         Mask Algorithm: mgf1 with sha384
          Salt Length: 0x014E
         Trailer Field: 0xBC (default)

         68:61:62:4c:67:79:5d:4d:fd:95:14:51:37:f0:d5:d5:b6:f0:
         c6:48:cb:23:3c:4c:b6:38:00:63:4d:0e:6a:f6:d0:ba:54:3d:
         40:a4:aa:5b:01:f6:57:c1:13:12:e1:5b:4e:59:21:f7:09:90:
         93:36:ab:44:54:59:f5:f0:da:3a:aa:41:f2:00:a4:fa:3d:8d:
         92:bf:74:84:a2:93:c8:70:d9:5a:2a:ab:47:a9:18:fb:f9:51:
         35:96:89:23:18:7b:a6:ae:1c:88:df:cd:68:ca:3c:8b:03:b2:
         b0:c6:6f:9e:1f:fd:00:98:24:72:3b:6a:67:62:ef:28:4a:71:
         6e:b2:53:1c:0b:7c:48:ef:78:6c:73:5d:03:71:44:ac:5c:5e:
         a2:75:fd:0b:e4:cc:8c:af:1e:42:9c:b7:d4:02:f4:8e:ad:56:
         77:fe:d0:1b:92:4d:35:ce:3e:bb:e0:43:98:e8:dc:71:e9:fb:
         e1:26:17:5c:e1:f2:57:74:45:21:90:42:c1:b0:38:59:7f:0c:
         6a:6e:94:7b:30:a1:fd:10:e0:9b:53:0f:05:19:2d:f6:9a:a3:
         95:f4:52:54:c9:e2:fc:99:0e:64:56:29:31:d2:35:dd:01:b0:
         34:c8:d6:16:40:1a:58:58:62:c1:e4:d8:ee:8e:1d:b2:b7:c9:
         68:07:a5:91:a0:a8:18:c7:5f:80:c6:81:fb:7a:10:17:a8:a5:
         9e:67:d2:ac:31:69:94:ab:36:6f:f6:35:05:c3:80:f3:3e:5f:
         5c:29:d1:13:43:88:1e:79:ac:3d:d3:e0:3d:44:c4:da:c7:1e:
         ab:f1:86:07:98:cf:b8:99:5d:6b:7c:3f:c2:c1:ff:1c:b1:8d:
         90:02:45:62:c4:7c:ca:6a:fb:4c:48:bc:73:ad:04:ad:62:87:
         1e:b3:c4:76:a6:a1:27:3d:f5:2a:ca:8e:c0:73:96:08:3c:db:
         f7:36:a6:57:a4:98:47:58:cd:56:0e:cd:fc:63:84:b9:df:2f:
         47:bb:8b:0d:7c:54
-----BEGIN CERTIFICATE-----
MIIFzzCCBAagAwIBAgIBATA+BgkqhkiG9w0BAQowMaANMAsGCWCGSAFlAwQCAqEa
MBgGCSqGSIb3DQEBCDALBglghkgBZQMEAgKiBAICAU4wgbIxCzAJBgNVBAYTAlVT
MRAwDgYDVQQIDAdNb250YW5hMRAwDgYDVQQHDAdCb3plbWFuMRcwFQYDVQQKDA53
b2xmU1NMX1JTQVBTUzESMBAGA1UECwwJQ0EtUlNBUFNTMRgwFgYDVQQDDA93d3cu
d29sZnNzbC5jb20xHzAdBgkqhkiG9w0BCQEWEGluZm9Ad29sZnNzbC5jb20xFzAV
BgoJkiaJk/IsZAEBDAd3b2xmU1NMMB4XDTIyMDcyNTAyMjc1NVoXDTI1MDQyMDAy
Mjc1NVowgbYxCzAJBgNVBAYTAlVTMRAwDgYDVQQIDAdNb250YW5hMRAwDgYDVQQH
DAdCb3plbWFuMRcwFQYDVQQKDA53b2xmU1NMX1JTQVBTUzEWMBQGA1UECwwNU2Vy
dmVyLVJTQVBTUzEYMBYGA1UEAwwPd3d3LndvbGZzc2wuY29tMR8wHQYJKoZIhvcN
AQkBFhBpbmZvQHdvbGZzc2wuY29tMRcwFQYKCZImiZPyLGQBAQwHd29sZlNTTDCC
AaAwCwYJKoZIhvcNAQEKA4IBjwAwggGKAoIBgQC+hHjTa32yrlGIaGoz8fnFGm+X
cZQi9MLwSYgrpE0Vb9vM1MZvdabiIgavkSZOoC2XF5ULQBp1I5ux4NddzA1fCZ7J
tz345WK7NHWZDObafZVA7l8ndvnK1g0epwafxXVXlkS5c/TeqqmvvkuY82zI2tmi
JjUhQOdnS+LZxE+4llQXWdjKr7FWR74VWwXTKczsK5n6Exoq0GHRQcInXdmn8iko
6/vlicUBg4gd3HAajy875TToW+/tdl+KUeotksLmhm1qkpPDbQTFlWgH/poy2TjI
BuszkrkLzi7Da2qiQWrOCedKkKgvWQ523E+4htBLleYb5MZZJu8cAE7O+89jBX6m
1Ak5/tN5SfJqahoXyxOlPdn6sKRfGOjlXEs41di4djWgC+GYuVjDiOX4SubQhKNe
TYXJ1n+dnzUoZlYEJcwbTPfjyzm+4F+ok72hC81j4BYHr0ALy24/gQzNgL8T8ZJX
oUgX0imwWqLVQoTIbAkxxgWS3aP3Vu3nXymI60sCAwEAAaOBiTCBhjAdBgNVHQ4E
FgQUyPHpHmAByCPM15izu2V6MsRLkzkwHwYDVR0jBBgwFoAU+ELMiMnIGPnTsCRl
Bkz/Vau/Dn8wDAYDVR0TAQH/BAIwADAOBgNVHQ8BAf8EBAMCA6gwEwYDVR0lBAww
CgYIKwYBBQUHAwEwEQYJYIZIAYb4QgEBBAQDAgZAMD4GCSqGSIb3DQEBCjAxoA0w
CwYJYIZIAWUDBAICoRowGAYJKoZIhvcNAQEIMAsGCWCGSAFlAwQCAqIEAgIBTgOC
AYEAaGFiTGd5XU39lRRRN/DV1bbwxkjLIzxMtjgAY00OavbQulQ9QKSqWwH2V8ET
EuFbTlkh9wmQkzarRFRZ9fDaOqpB8gCk+j2Nkr90hKKTyHDZWiqrR6kY+/lRNZaJ
Ixh7pq4ciN/NaMo8iwOysMZvnh/9AJgkcjtqZ2LvKEpxbrJTHAt8SO94bHNdA3FE
rFxeonX9C+TMjK8eQpy31AL0jq1Wd/7QG5JNNc4+u+BDmOjccen74SYXXOHyV3RF
IZBCwbA4WX8Mam6UezCh/RDgm1MPBRkt9pqjlfRSVMni/JkOZFYpMdI13QGwNMjW
FkAaWFhiweTY7o4dsrfJaAelkaCoGMdfgMaB+3oQF6ilnmfSrDFplKs2b/Y1BcOA
8z5fXCnRE0OIHnmsPdPgPUTE2sceq/GGB5jPuJlda3w/wsH/HLGNkAJFYsR8ymr7
TEi8c60ErWKHHrPEdqahJz31KsqOwHOWCDzb9zamV6SYR1jNVg7N/GOEud8vR7uL
DXxU
-----END CERTIFICATE-----
Certificate:
    Data:
        Version: 3 (0x2)
        Serial Number: 1 (0x1)
        Signature Algorithm: rsassaPss         
         Hash Algorithm: sha384
         Mask Algorithm: mgf1 with sha384
          Salt Length: 0x014E
         Trailer Field: 0xBC (default)
        Issuer: C = US, ST = Montana, L = Bozeman, O = wolfSSL_RSA-PSS, OU = Root-RSA-PSS, CN = www.wolfssl.com, emailAddress = info@wolfssl.com
        Validity
            Not Before: Jul 25 02:27:55 2022 GMT
            Not After : Apr 20 02:27:55 2025 GMT
        Subject: C = US, ST = Montana, L = Bozeman, O = wolfSSL_RSAPSS, OU = CA-RSAPSS, CN = www.wolfssl.com, emailAddress = info@wolfssl.com, UID = wolfSSL
        Subject Public Key Info:
            Public Key Algorithm: rsassaPss
                RSA-PSS Public-Key: (3072 bit)
                Modulus:
                    00:c8:2a:40:c8:eb:ae:7c:18:33:cb:38:51:e6:b7:
                    7b:11:4f:cd:ea:35:87:64:d9:b2:ca:cf:4b:21:c4:
                    86:2a:c7:a3:6f:15:3e:1e:c4:9b:03:81:4b:3a:5d:
                    53:62:11:e2:08:df:97:4d:37:3d:78:62:50:40:31:
                    2a:70:44:1a:6d:69:49:fc:77:b8:f2:42:09:86:9a:
                    5d:39:cd:84:7b:32:8a:3b:b0:4f:bf:3d:d4:05:7e:
                    c0:aa:28:a5:ce:b1:28:3a:59:d9:19:10:3a:d4:1f:
                    91:07:07:73:50:a4:2b:d8:18:1f:22:f8:f4:64:3f:
                    13:a0:d8:60:7e:53:4c:3b:97:70:bc:36:e5:be:31:
                    97:45:55:ed:a2:5b:87:b5:1b:8e:65:3d:b7:15:08:
                    d1:12:1a:aa:ec:4e:56:35:70:a7:3e:50:65:f7:3e:
                    30:9c:32:db:b2:24:7b:87:02:29:27:12:35:ad:8e:
                    c3:02:22:13:c2:6e:53:45:f0:16:21:81:e5:d5:b5:
                    91:60:8b:d7:5c:bb:c2:70:06:f6:50:41:45:36:7f:
                    41:44:89:b6:97:23:be:76:d7:7c:72:7f:ea:f4:19:
                    10:17:c3:df:8f:cd:97:20:04:cb:1d:03:6b:09:8f:
                    d7:7b:84:7d:22:c5:e2:10:cb:cc:11:aa:a1:f5:66:
                    85:0e:35:5a:8c:c3:89:61:29:d0:5c:53:2f:09:4b:
                    91:7e:ce:e0:12:d3:ce:eb:c9:50:3c:36:f0:a6:b4:
                    fb:b5:c2:de:61:a0:ac:6f:bc:7e:ef:53:08:9f:b1:
                    18:ad:5b:e3:01:23:de:11:a5:1f:7d:d5:b6:f4:72:
                    1d:53:75:66:8c:db:61:1e:e9:eb:3c:f3:49:69:82:
                    b6:20:6b:29:03:a1:be:55:e4:4c:f8:25:a7:a8:a3:
                    e3:3f:32:1f:ae:a7:2a:9b:6b:56:dd:c9:5a:b1:1a:
                    01:a0:13:d2:8e:9a:2c:db:7e:fd:5b:0e:2e:ef:92:
                    69:ce:f2:de:ef:d0:2f:09:0e:67
                Exponent: 65537 (0x10001)
                No PSS parameter restrictions
        X509v3 extensions:
            X509v3 Subject Key Identifier: 
                F8:42:CC:88:C9:C8:18:F9:D3:B0:24:65:06:4C:FF:55:AB:BF:0E:7F
            X509v3 Authority Key Identifier: 
                keyid:AA:71:D3:B1:8A:4B:BB:47:15:47:5F:9B:D0:2B:69:D1:6F:85:5E:F6

            X509v3 Basic Constraints: critical
                CA:TRUE
            X509v3 Key Usage: critical
                Digital Signature, Certificate Sign, CRL Sign
    Signature Algorithm: rsassaPss         
         Hash Algorithm: sha384
         Mask Algorithm: mgf1 with sha384
          Salt Length: 0x014E
         Trailer Field: 0xBC (default)

         39:a8:ef:b1:66:08:50:0b:5e:cb:b2:29:8c:9b:b1:be:21:44:
         d6:d8:97:1d:45:dc:52:70:f1:de:ac:74:65:03:6b:af:a0:f0:
         21:61:ce:23:39:33:c8:cb:1e:8f:77:12:1e:5b:99:0c:e1:1b:
         75:cf:1d:d7:12:86:cc:fc:86:90:0f:45:ea:8b:08:47:08:ac:
         56:44:31:f2:c9:23:6b:d5:30:ca:5f:49:b0:4b:8b:36:bd:5c:
         92:fa:86:34:57:80:30:93:29:59:19:a4:dd:f9:91:26:8a:49:
         b4:ee:93:aa:e1:b2:06:f6:2f:2a:d9:5b:6d:f9:7c:04:4f:1c:
         7a:cc:8e:39:c2:98:3a:bd:b9:a2:24:82:8f:e4:d8:80:47:73:
         84:6e:bc:20:5c:ac:79:72:a7:6f:e3:c8:3a:9c:cc:83:b1:1f:
         e2:65:3b:a1:f5:86:1a:33:53:bc:05:ba:6a:b1:bc:a7:b4:c1:
         44:8c:0a:cc:c2:15:da:c1:dd:dc:31:91:46:5b:48:d8:ea:03:
         78:e1:1f:ce:79:19:c8:6e:d6:3f:4c:f5:3b:b3:e7:2e:b7:46:
         0c:58:cd:ca:56:a6:88:fb:fd:12:d1:27:80:5a:a2:51:96:f8:
         4c:65:8d:71:0b:84:ca:94:f9:9f:c9:38:62:a3:64:cd:91:44:
         50:ed:bb:c0:1d:9b:b8:a4:57:b1:7a:2e:44:57:a5:15:ba:cc:
         b3:62:f5:46:aa:cd:fb:53:d3:ed:ef:e3:f4:b2:9b:3f:29:d0:
         00:8c:19:61:48:b6:da:74:27:05:69:7b:df:04:0e:e2:f1:0f:
         1a:fa:92:70:79:78:86:52:60:e1:4d:4e:66:14:ba:86:e2:4e:
         dd:e0:d0:f3:c0:2d:6d:3a:16:00:1d:c6:9c:27:6f:a6:5f:21:
         4c:e4:82:14:95:d1:a7:4a:15:13:ba:d8:65:ad:34:a2:93:3a:
         d1:49:12:4d:f2:97:f3:e2:8a:83:d2:bf:84:84:c6:87:70:c9:
         38:e0:5f:fe:7f:38
-----BEGIN CERTIFICATE-----
MIIFjzCCA8agAwIBAgIBATA+BgkqhkiG9w0BAQowMaANMAsGCWCGSAFlAwQCAqEa
MBgGCSqGSIb3DQEBCDALBglghkgBZQMEAgKiBAICAU4wgZ0xCzAJBgNVBAYTAlVT
MRAwDgYDVQQIDAdNb250YW5hMRAwDgYDVQQHDAdCb3plbWFuMRgwFgYDVQQKDA93
b2xmU1NMX1JTQS1QU1MxFTATBgNVBAsMDFJvb3QtUlNBLVBTUzEYMBYGA1UEAwwP
d3d3LndvbGZzc2wuY29tMR8wHQYJKoZIhvcNAQkBFhBpbmZvQHdvbGZzc2wuY29t
MB4XDTIyMDcyNTAyMjc1NVoXDTI1MDQyMDAyMjc1NVowgbIxCzAJBgNVBAYTAlVT
MRAwDgYDVQQIDAdNb250YW5hMRAwDgYDVQQHDAdCb3plbWFuMRcwFQYDVQQKDA53
b2xmU1NMX1JTQVBTUzESMBAGA1UECwwJQ0EtUlNBUFNTMRgwFgYDVQQDDA93d3cu
d29sZnNzbC5jb20xHzAdBgkqhkiG9w0BCQEWEGluZm9Ad29sZnNzbC5jb20xFzAV
BgoJkiaJk/IsZAEBDAd3b2xmU1NMMIIBoDALBgkqhkiG9w0BAQoDggGPADCCAYoC
ggGBAMgqQMjrrnwYM8s4Uea3exFPzeo1h2TZssrPSyHEhirHo28VPh7EmwOBSzpd
U2IR4gjfl003PXhiUEAxKnBEGm1pSfx3uPJCCYaaXTnNhHsyijuwT7891AV+wKoo
pc6xKDpZ2RkQOtQfkQcHc1CkK9gYHyL49GQ/E6DYYH5TTDuXcLw25b4xl0VV7aJb
h7UbjmU9txUI0RIaquxOVjVwpz5QZfc+MJwy27Ike4cCKScSNa2OwwIiE8JuU0Xw
FiGB5dW1kWCL11y7wnAG9lBBRTZ/QUSJtpcjvnbXfHJ/6vQZEBfD34/NlyAEyx0D
awmP13uEfSLF4hDLzBGqofVmhQ41WozDiWEp0FxTLwlLkX7O4BLTzuvJUDw28Ka0
+7XC3mGgrG+8fu9TCJ+xGK1b4wEj3hGlH33VtvRyHVN1ZozbYR7p6zzzSWmCtiBr
KQOhvlXkTPglp6ij4z8yH66nKptrVt3JWrEaAaAT0o6aLNt+/VsOLu+Sac7y3u/Q
LwkOZwIDAQABo2MwYTAdBgNVHQ4EFgQU+ELMiMnIGPnTsCRlBkz/Vau/Dn8wHwYD
VR0jBBgwFoAUqnHTsYpLu0cVR1+b0Ctp0W+FXvYwDwYDVR0TAQH/BAUwAwEB/zAO
BgNVHQ8BAf8EBAMCAYYwPgYJKoZIhvcNAQEKMDGgDTALBglghkgBZQMEAgKhGjAY
BgkqhkiG9w0BAQgwCwYJYIZIAWUDBAICogQCAgFOA4IBgQA5qO+xZghQC17LsimM
m7G+IUTW2JcdRdxScPHerHRlA2uvoPAhYc4jOTPIyx6PdxIeW5kM4Rt1zx3XEobM
/IaQD0XqiwhHCKxWRDHyySNr1TDKX0mwS4s2vVyS+oY0V4AwkylZGaTd+ZEmikm0
7pOq4bIG9i8q2Vtt+XwETxx6zI45wpg6vbmiJIKP5NiAR3OEbrwgXKx5cqdv48g6
nMyDsR/iZTuh9YYaM1O8BbpqsbyntMFEjArMwhXawd3cMZFGW0jY6gN44R/OeRnI
btY/TPU7s+cut0YMWM3KVqaI+/0S0SeAWqJRlvhMZY1xC4TKlPmfyThio2TNkURQ
7bvAHZu4pFexei5EV6UVusyzYvVGqs37U9Pt7+P0sps/KdAAjBlhSLbadCcFaXvf
BA7i8Q8a+pJweXiGUmDhTU5mFLqG4k7d4NDzwC1tOhYAHcacJ2+mXyFM5IIUldGn
ShUTuthlrTSikzrRSRJN8pfz4oqD0r+EhMaHcMk44F/+fzg=
-----END CERTIFICATE-----
