Certificate:
    Data:
        Version: 3 (0x2)
        Serial Number: 1 (0x1)
        Signature Algorithm: rsassaPss        
        Hash Algorithm: sha256
        Mask Algorithm: mgf1 with sha256
         Salt Length: 0x20
        Trailer Field: 0x01 (default)
        Issuer: C=US, ST=Montana, L=Bozeman, O=wolfSSL_RSAPSS, OU=CA-RSAPSS, CN=www.wolfssl.com, emailAddress=info@wolfssl.com, UID=wolfSSL
        Validity
            Not Before: Nov 13 20:41:18 2025 GMT
            Not After : Aug  9 20:41:18 2028 GMT
        Subject: C=US, ST=Montana, L=Bozeman, O=wolfSSL_RSAPSS, OU=Server-RSAPSS, CN=www.wolfssl.com, emailAddress=info@wolfssl.com, UID=wolfSSL
        Subject Public Key Info:
            Public Key Algorithm: rsassaPss
                Public-Key: (2048 bit)
                Modulus:
                    00:d7:f7:6c:e1:02:89:cc:9b:74:10:f3:ec:01:cb:
                    89:ce:ef:f6:29:62:fc:75:3f:6a:99:ba:d6:88:ec:
                    ae:b3:20:33:44:d2:06:d7:99:21:bb:f3:40:ce:30:
                    b0:e1:90:4c:5b:58:75:54:1d:a2:dd:bc:63:01:48:
                    43:3b:22:7a:78:2a:65:5b:d8:11:5f:9b:7b:db:21:
                    1c:bc:f4:a5:ad:3e:d6:07:41:da:04:1f:ea:78:ec:
                    57:f3:53:fd:49:2b:5e:0e:34:02:3b:5e:3e:5f:dc:
                    63:da:d4:68:26:1a:61:c9:25:d7:53:16:e7:fb:c0:
                    a5:2d:59:36:7b:e9:c7:42:cb:9b:15:81:fd:d4:0f:
                    c5:b7:c6:49:c0:45:77:ea:5b:ac:ca:1e:a5:9c:c1:
                    86:1b:f2:9e:ed:66:a0:d1:3b:b6:6f:02:54:69:30:
                    0d:ba:55:01:18:c0:5f:7d:b2:ee:a6:bd:89:84:fc:
                    e8:36:e4:bb:d3:b4:9e:dd:b3:a6:80:32:12:37:30:
                    8e:0a:89:54:c5:eb:4b:1c:85:02:2b:f8:26:63:c4:
                    23:f8:59:35:18:0e:28:cf:5d:07:49:d8:cc:60:4d:
                    3b:fb:27:24:f0:d6:46:0f:c5:5b:16:a5:94:8a:69:
                    1a:34:62:cd:e0:32:32:55:b9:16:65:50:11:8b:5e:
                    36:83
                Exponent: 65537 (0x10001)
                PSS parameter restrictions:
                  Hash Algorithm: SHA2-256
                  Mask Algorithm: MGF1 with SHA2-256
                  Minimum Salt Length: 32
                  Trailer Field: 0x1 (default)
        X509v3 extensions:
            X509v3 Subject Key Identifier: 
                2D:07:69:B0:A1:6F:9F:0C:FA:25:05:B2:CA:97:08:44:DF:0E:97:A8
            X509v3 Authority Key Identifier: 
                9E:0C:E0:D3:DF:B6:4B:F3:19:63:5C:CA:6C:93:86:A2:14:53:91:31
            X509v3 Basic Constraints: critical
                CA:FALSE
            X509v3 Key Usage: critical
                Digital Signature, Key Encipherment, Key Agreement
            X509v3 Extended Key Usage: 
                TLS Web Server Authentication
            Netscape Cert Type: 
                SSL Server
    Signature Algorithm: rsassaPss
    Signature Value:        
        Hash Algorithm: sha256
        Mask Algorithm: mgf1 with sha256
         Salt Length: 0x20
        Trailer Field: 0x01 (default)
        bc:a4:2d:25:8f:59:e7:00:9c:88:70:e8:50:cf:bd:ae:17:0a:
        cb:eb:12:f2:73:82:46:23:3f:46:4d:95:f8:7b:ba:c6:72:25:
        52:ca:27:8f:e4:ec:93:df:a4:d5:9c:6d:13:37:5d:02:1e:f6:
        8f:fc:46:22:93:57:24:3c:e1:eb:5a:0f:91:d6:28:62:cc:1b:
        b1:bb:2e:07:10:96:61:15:7e:33:08:a5:05:dd:d5:70:25:90:
        b1:41:aa:6f:95:78:55:c9:9b:03:f2:35:54:15:79:b6:bd:54:
        66:d1:77:0e:fb:2c:ce:1b:1f:39:34:55:4e:a1:55:84:22:96:
        81:8a:35:74:47:24:eb:eb:59:7b:93:09:8d:3b:85:d5:28:61:
        4d:6a:6f:d7:c6:9e:4a:4f:02:83:0f:65:21:8d:a4:46:6a:a9:
        65:85:91:99:95:4c:31:5d:12:1b:2f:ed:2d:5f:39:ab:66:4c:
        52:66:09:e5:d3:83:6f:c9:12:d9:f7:0f:21:1a:af:ac:09:1c:
        85:8f:d2:04:df:55:15:79:f8:ea:48:b5:88:8d:5a:ae:05:10:
        80:4c:08:af:12:6c:cf:8a:b9:dc:bb:61:27:d3:b6:05:0f:a3:
        e8:ad:c2:43:02:e0:e7:c0:3a:74:98:6f:15:11:61:14:e5:50:
        e4:62:59:af
-----BEGIN CERTIFICATE-----
MIIFCzCCA7+gAwIBAgIBATBBBgkqhkiG9w0BAQowNKAPMA0GCWCGSAFlAwQCAQUA
oRwwGgYJKoZIhvcNAQEIMA0GCWCGSAFlAwQCAQUAogMCASAwgbIxCzAJBgNVBAYT
AlVTMRAwDgYDVQQIDAdNb250YW5hMRAwDgYDVQQHDAdCb3plbWFuMRcwFQYDVQQK
DA53b2xmU1NMX1JTQVBTUzESMBAGA1UECwwJQ0EtUlNBUFNTMRgwFgYDVQQDDA93
d3cud29sZnNzbC5jb20xHzAdBgkqhkiG9w0BCQEWEGluZm9Ad29sZnNzbC5jb20x
FzAVBgoJkiaJk/IsZAEBDAd3b2xmU1NMMB4XDTI1MTExMzIwNDExOFoXDTI4MDgw
OTIwNDExOFowgbYxCzAJBgNVBAYTAlVTMRAwDgYDVQQIDAdNb250YW5hMRAwDgYD
VQQHDAdCb3plbWFuMRcwFQYDVQQKDA53b2xmU1NMX1JTQVBTUzEWMBQGA1UECwwN
U2VydmVyLVJTQVBTUzEYMBYGA1UEAwwPd3d3LndvbGZzc2wuY29tMR8wHQYJKoZI
hvcNAQkBFhBpbmZvQHdvbGZzc2wuY29tMRcwFQYKCZImiZPyLGQBAQwHd29sZlNT
TDCCAVYwQQYJKoZIhvcNAQEKMDSgDzANBglghkgBZQMEAgEFAKEcMBoGCSqGSIb3
DQEBCDANBglghkgBZQMEAgEFAKIDAgEgA4IBDwAwggEKAoIBAQDX92zhAonMm3QQ
8+wBy4nO7/YpYvx1P2qZutaI7K6zIDNE0gbXmSG780DOMLDhkExbWHVUHaLdvGMB
SEM7Inp4KmVb2BFfm3vbIRy89KWtPtYHQdoEH+p47FfzU/1JK14ONAI7Xj5f3GPa
1GgmGmHJJddTFuf7wKUtWTZ76cdCy5sVgf3UD8W3xknARXfqW6zKHqWcwYYb8p7t
ZqDRO7ZvAlRpMA26VQEYwF99su6mvYmE/Og25LvTtJ7ds6aAMhI3MI4KiVTF60sc
hQIr+CZjxCP4WTUYDijPXQdJ2MxgTTv7JyTw1kYPxVsWpZSKaRo0Ys3gMjJVuRZl
UBGLXjaDAgMBAAGjgYkwgYYwHQYDVR0OBBYEFC0HabChb58M+iUFssqXCETfDpeo
MB8GA1UdIwQYMBaAFJ4M4NPftkvzGWNcymyThqIUU5ExMAwGA1UdEwEB/wQCMAAw
DgYDVR0PAQH/BAQDAgOoMBMGA1UdJQQMMAoGCCsGAQUFBwMBMBEGCWCGSAGG+EIB
AQQEAwIGQDBBBgkqhkiG9w0BAQowNKAPMA0GCWCGSAFlAwQCAQUAoRwwGgYJKoZI
hvcNAQEIMA0GCWCGSAFlAwQCAQUAogMCASADggEBALykLSWPWecAnIhw6FDPva4X
CsvrEvJzgkYjP0ZNlfh7usZyJVLKJ4/k7JPfpNWcbRM3XQIe9o/8RiKTVyQ84eta
D5HWKGLMG7G7LgcQlmEVfjMIpQXd1XAlkLFBqm+VeFXJmwPyNVQVeba9VGbRdw77
LM4bHzk0VU6hVYQiloGKNXRHJOvrWXuTCY07hdUoYU1qb9fGnkpPAoMPZSGNpEZq
qWWFkZmVTDFdEhsv7S1fOatmTFJmCeXTg2/JEtn3DyEar6wJHIWP0gTfVRV5+OpI
tYiNWq4FEIBMCK8SbM+Kudy7YSfTtgUPo+itwkMC4OfAOnSYbxURYRTlUORiWa8=
-----END CERTIFICATE-----
Certificate:
    Data:
        Version: 3 (0x2)
        Serial Number: 1 (0x1)
        Signature Algorithm: rsassaPss        
        Hash Algorithm: sha256
        Mask Algorithm: mgf1 with sha256
         Salt Length: 0x20
        Trailer Field: 0x01 (default)
        Issuer: C=US, ST=Montana, L=Bozeman, O=wolfSSL_RSA-PSS, OU=Root-RSA-PSS, CN=www.wolfssl.com, emailAddress=info@wolfssl.com
        Validity
            Not Before: Nov 13 20:41:18 2025 GMT
            Not After : Aug  9 20:41:18 2028 GMT
        Subject: C=US, ST=Montana, L=Bozeman, O=wolfSSL_RSAPSS, OU=CA-RSAPSS, CN=www.wolfssl.com, emailAddress=info@wolfssl.com, UID=wolfSSL
        Subject Public Key Info:
            Public Key Algorithm: rsassaPss
                Public-Key: (2048 bit)
                Modulus:
                    00:d6:0e:c7:50:4d:29:f5:a8:a2:d4:29:5b:58:f2:
                    bc:2d:27:de:88:49:1a:84:19:2b:84:8d:94:d1:78:
                    12:d6:7b:14:d8:d2:82:24:95:ab:fe:4f:55:fb:e0:
                    55:fc:39:37:7b:41:80:b4:98:6f:7f:c5:b7:3e:37:
                    f8:5f:1d:2f:12:31:88:f9:8b:3b:00:85:e6:36:a5:
                    17:3f:9a:a4:be:48:ff:7a:36:22:2c:23:d4:9f:5b:
                    52:d1:17:d1:c1:f2:69:19:d8:32:c5:f7:79:ec:83:
                    19:87:e3:13:a0:43:5e:b1:e9:03:ed:b4:08:cd:7b:
                    14:68:0f:25:4f:90:f0:04:a7:bb:08:89:08:dc:76:
                    4e:70:49:04:41:4d:bf:b7:7f:77:79:6a:ef:68:4b:
                    62:97:8e:33:91:32:2a:e3:63:15:47:f6:61:a4:26:
                    db:02:04:b6:57:c0:a7:f0:aa:ec:20:72:91:c3:32:
                    ab:98:7f:84:c6:e8:5f:d6:e0:1a:d2:24:b1:c7:50:
                    bb:73:87:de:2a:c3:e2:c4:60:32:b8:e4:5a:5b:b5:
                    e4:29:8c:8b:28:6b:bb:1a:dc:3c:fe:b9:ef:9e:89:
                    28:60:ba:a4:40:66:d5:bb:e0:62:7f:a7:2b:e1:0f:
                    38:e6:33:ea:b2:10:0e:14:c8:3f:87:9f:ff:8b:28:
                    cc:1d
                Exponent: 65537 (0x10001)
                PSS parameter restrictions:
                  Hash Algorithm: SHA2-256
                  Mask Algorithm: MGF1 with SHA2-256
                  Minimum Salt Length: 32
                  Trailer Field: 0x1 (default)
        X509v3 extensions:
            X509v3 Subject Key Identifier: 
                9E:0C:E0:D3:DF:B6:4B:F3:19:63:5C:CA:6C:93:86:A2:14:53:91:31
            X509v3 Authority Key Identifier: 
                64:D5:EC:82:87:80:DE:5A:ED:49:98:D8:0C:54:7D:46:9E:A5:3C:D6
            X509v3 Basic Constraints: critical
                CA:TRUE
            X509v3 Key Usage: critical
                Digital Signature, Certificate Sign, CRL Sign
    Signature Algorithm: rsassaPss
    Signature Value:        
        Hash Algorithm: sha256
        Mask Algorithm: mgf1 with sha256
         Salt Length: 0x20
        Trailer Field: 0x01 (default)
        4f:32:89:1e:e8:ae:36:eb:89:9a:15:f9:8b:48:62:89:4c:b1:
        b9:6f:03:83:7a:d5:4b:b7:37:d3:02:08:55:a7:e1:3b:f3:71:
        24:ea:bc:70:54:83:25:d9:f7:63:38:67:43:50:7b:10:d9:96:
        03:9b:ad:43:00:9e:c2:42:1a:37:2d:8d:db:ca:37:84:e6:0c:
        67:0b:15:e2:6e:1b:d0:94:f0:58:d1:26:ac:c1:6e:22:f7:1f:
        07:a6:18:47:37:a6:85:f7:4d:53:02:2a:ea:5c:31:95:1f:b0:
        b0:38:6a:9e:81:9a:c7:7c:47:cb:0e:66:2b:84:be:3f:b4:bf:
        ea:67:31:e1:32:a1:f9:a4:ea:63:f0:45:b5:6c:3d:49:c5:b7:
        03:29:a6:42:33:51:89:e1:88:e1:68:a1:b3:13:56:99:13:4d:
        f3:2e:2a:a4:1a:c0:cb:3e:fc:9a:b5:d8:03:9e:f6:fc:26:4f:
        2a:5b:0f:8b:49:9b:08:fc:5a:4d:f5:46:a8:11:d2:59:b0:7a:
        0e:8c:e9:f4:ea:bc:81:76:b5:af:29:3d:35:3f:4a:66:71:2b:
        a6:01:e2:6d:06:50:7b:62:e1:2e:e4:ef:e4:e9:eb:bb:0b:b4:
        8f:ff:98:28:c7:d6:c9:58:06:b4:93:35:1b:72:74:8f:51:97:
        03:56:49:2a
-----BEGIN CERTIFICATE-----
MIIEyzCCA3+gAwIBAgIBATBBBgkqhkiG9w0BAQowNKAPMA0GCWCGSAFlAwQCAQUA
oRwwGgYJKoZIhvcNAQEIMA0GCWCGSAFlAwQCAQUAogMCASAwgZ0xCzAJBgNVBAYT
AlVTMRAwDgYDVQQIDAdNb250YW5hMRAwDgYDVQQHDAdCb3plbWFuMRgwFgYDVQQK
DA93b2xmU1NMX1JTQS1QU1MxFTATBgNVBAsMDFJvb3QtUlNBLVBTUzEYMBYGA1UE
AwwPd3d3LndvbGZzc2wuY29tMR8wHQYJKoZIhvcNAQkBFhBpbmZvQHdvbGZzc2wu
Y29tMB4XDTI1MTExMzIwNDExOFoXDTI4MDgwOTIwNDExOFowgbIxCzAJBgNVBAYT
AlVTMRAwDgYDVQQIDAdNb250YW5hMRAwDgYDVQQHDAdCb3plbWFuMRcwFQYDVQQK
DA53b2xmU1NMX1JTQVBTUzESMBAGA1UECwwJQ0EtUlNBUFNTMRgwFgYDVQQDDA93
d3cud29sZnNzbC5jb20xHzAdBgkqhkiG9w0BCQEWEGluZm9Ad29sZnNzbC5jb20x
FzAVBgoJkiaJk/IsZAEBDAd3b2xmU1NMMIIBVjBBBgkqhkiG9w0BAQowNKAPMA0G
CWCGSAFlAwQCAQUAoRwwGgYJKoZIhvcNAQEIMA0GCWCGSAFlAwQCAQUAogMCASAD
ggEPADCCAQoCggEBANYOx1BNKfWootQpW1jyvC0n3ohJGoQZK4SNlNF4EtZ7FNjS
giSVq/5PVfvgVfw5N3tBgLSYb3/Ftz43+F8dLxIxiPmLOwCF5jalFz+apL5I/3o2
Iiwj1J9bUtEX0cHyaRnYMsX3eeyDGYfjE6BDXrHpA+20CM17FGgPJU+Q8ASnuwiJ
CNx2TnBJBEFNv7d/d3lq72hLYpeOM5EyKuNjFUf2YaQm2wIEtlfAp/Cq7CBykcMy
q5h/hMboX9bgGtIkscdQu3OH3irD4sRgMrjkWlu15CmMiyhruxrcPP65756JKGC6
pEBm1bvgYn+nK+EPOOYz6rIQDhTIP4ef/4sozB0CAwEAAaNjMGEwHQYDVR0OBBYE
FJ4M4NPftkvzGWNcymyThqIUU5ExMB8GA1UdIwQYMBaAFGTV7IKHgN5a7UmY2AxU
fUaepTzWMA8GA1UdEwEB/wQFMAMBAf8wDgYDVR0PAQH/BAQDAgGGMEEGCSqGSIb3
DQEBCjA0oA8wDQYJYIZIAWUDBAIBBQChHDAaBgkqhkiG9w0BAQgwDQYJYIZIAWUD
BAIBBQCiAwIBIAOCAQEATzKJHuiuNuuJmhX5i0hiiUyxuW8Dg3rVS7c30wIIVafh
O/NxJOq8cFSDJdn3YzhnQ1B7ENmWA5utQwCewkIaNy2N28o3hOYMZwsV4m4b0JTw
WNEmrMFuIvcfB6YYRzemhfdNUwIq6lwxlR+wsDhqnoGax3xHyw5mK4S+P7S/6mcx
4TKh+aTqY/BFtWw9ScW3AymmQjNRieGI4WihsxNWmRNN8y4qpBrAyz78mrXYA572
/CZPKlsPi0mbCPxaTfVGqBHSWbB6Dozp9Oq8gXa1ryk9NT9KZnErpgHibQZQe2Lh
LuTv5Onruwu0j/+YKMfWyVgGtJM1G3J0j1GXA1ZJKg==
-----END CERTIFICATE-----
