Certificate:
    Data:
        Version: 3 (0x2)
        Serial Number: 1 (0x1)
        Signature Algorithm: rsassaPss        
        Hash Algorithm: sha384
        Mask Algorithm: mgf1 with sha384
         Salt Length: 0x30
        Trailer Field: 0x01 (default)
        Issuer: C=US, ST=Montana, L=Bozeman, O=wolfSSL_RSAPSS, OU=CA-RSAPSS, CN=www.wolfssl.com, emailAddress=facts@wolfssl.com, UID=wolfSSL
        Validity
            Not Before: Jun 11 21:44:30 2026 GMT
            Not After : Mar  7 21:44:30 2029 GMT
        Subject: C=US, ST=Montana, L=Bozeman, O=wolfSSL_RSAPSS, OU=Server-RSAPSS, CN=www.wolfssl.com, emailAddress=facts@wolfssl.com, UID=wolfSSL
        Subject Public Key Info:
            Public Key Algorithm: rsassaPss
                Public-Key: (3072 bit)
                Modulus:
                    00:be:84:78:d3:6b:7d:b2:ae:51:88:68:6a:33:f1:
                    f9:c5:1a:6f:97:71:94:22:f4:c2:f0:49:88:2b:a4:
                    4d:15:6f:db:cc:d4:c6:6f:75:a6:e2:22:06:af:91:
                    26:4e:a0:2d:97:17:95:0b:40:1a:75:23:9b:b1:e0:
                    d7:5d:cc:0d:5f:09:9e:c9:b7:3d:f8:e5:62:bb:34:
                    75:99:0c:e6:da:7d:95:40:ee:5f:27:76:f9:ca:d6:
                    0d:1e:a7:06:9f:c5:75:57:96:44:b9:73:f4:de:aa:
                    a9:af:be:4b:98:f3:6c:c8:da:d9:a2:26:35:21:40:
                    e7:67:4b:e2:d9:c4:4f:b8:96:54:17:59:d8:ca:af:
                    b1:56:47:be:15:5b:05:d3:29:cc:ec:2b:99:fa:13:
                    1a:2a:d0:61:d1:41:c2:27:5d:d9:a7:f2:29:28:eb:
                    fb:e5:89:c5:01:83:88:1d:dc:70:1a:8f:2f:3b:e5:
                    34:e8:5b:ef:ed:76:5f:8a:51:ea:2d:92:c2:e6:86:
                    6d:6a:92:93:c3:6d:04:c5:95:68:07:fe:9a:32:d9:
                    38:c8:06:eb:33:92:b9:0b:ce:2e:c3:6b:6a:a2:41:
                    6a:ce:09:e7:4a:90:a8:2f:59:0e:76:dc:4f:b8:86:
                    d0:4b:95:e6:1b:e4:c6:59:26:ef:1c:00:4e:ce:fb:
                    cf:63:05:7e:a6:d4:09:39:fe:d3:79:49:f2:6a:6a:
                    1a:17:cb:13:a5:3d:d9:fa:b0:a4:5f:18:e8:e5:5c:
                    4b:38:d5:d8:b8:76:35:a0:0b:e1:98:b9:58:c3:88:
                    e5:f8:4a:e6:d0:84:a3:5e:4d:85:c9:d6:7f:9d:9f:
                    35:28:66:56:04:25:cc:1b:4c:f7:e3:cb:39:be:e0:
                    5f:a8:93:bd:a1:0b:cd:63:e0:16:07:af:40:0b:cb:
                    6e:3f:81:0c:cd:80:bf:13:f1:92:57:a1:48:17:d2:
                    29:b0:5a:a2:d5:42:84:c8:6c:09:31:c6:05:92:dd:
                    a3:f7:56:ed:e7:5f:29:88:eb:4b
                Exponent: 65537 (0x10001)
                No PSS parameter restrictions
        X509v3 extensions:
            X509v3 Subject Key Identifier: 
                C8:F1:E9:1E:60:01:C8:23:CC:D7:98:B3:BB:65:7A:32:C4:4B:93:39
            X509v3 Authority Key Identifier: 
                F8:42:CC:88:C9:C8:18:F9:D3:B0:24:65:06:4C:FF:55:AB:BF:0E:7F
            X509v3 Basic Constraints: critical
                CA:FALSE
            X509v3 Key Usage: critical
                Digital Signature, Key Encipherment, Key Agreement
            X509v3 Extended Key Usage: 
                TLS Web Server Authentication
            Netscape Cert Type: 
                SSL Server
    Signature Algorithm: rsassaPss
    Signature Value:        
        Hash Algorithm: sha384
        Mask Algorithm: mgf1 with sha384
         Salt Length: 0x30
        Trailer Field: 0x01 (default)
        09:e6:75:ec:e0:cc:6b:ae:52:44:dc:5a:4a:58:44:b6:5c:77:
        9b:5c:b6:eb:ea:6b:ba:15:34:ba:16:72:6d:a0:19:0c:7b:35:
        34:7c:d9:c1:50:b5:84:00:54:a6:ae:a5:f5:e3:c4:f6:2d:81:
        8d:bf:6a:7e:6d:37:8f:e8:1d:55:1c:21:0a:b7:e1:f0:c0:30:
        48:89:67:b6:e2:ac:ef:7f:59:db:9f:d1:8e:5b:22:57:3b:71:
        80:c3:66:93:51:3a:a0:8c:81:18:78:e6:8f:8f:59:97:43:25:
        a8:01:b0:50:a3:67:b5:7e:59:9d:9d:cb:05:5e:26:a7:27:33:
        1c:fa:ae:e7:e6:8a:55:5c:f8:8f:e7:7e:5a:28:be:0c:3b:4a:
        d1:5c:70:e0:cb:31:0a:9b:ff:a0:ee:7c:23:c2:f0:44:92:9e:
        19:48:3c:ba:a6:54:53:d3:0b:d1:ba:4e:0d:5d:29:14:08:1c:
        21:c9:0b:b0:2e:23:25:a5:a7:0c:4d:d8:34:b6:be:58:28:78:
        e1:40:e7:64:0c:ae:ac:a6:5e:9e:aa:21:76:e3:56:35:1b:c0:
        b2:15:d7:b8:89:74:b2:db:3f:ef:c3:cb:40:2f:4e:6d:97:e9:
        50:c0:a9:d4:d3:03:49:ce:86:9f:39:6f:be:93:05:6c:42:dc:
        36:32:e3:eb:d5:88:a6:b3:58:91:79:8f:3e:7b:6a:b1:b6:7c:
        ad:80:74:6b:ce:f6:05:da:0c:0b:85:00:d2:60:5d:6e:a9:75:
        96:32:eb:ac:9a:16:14:5f:21:e0:01:7e:52:9d:f9:0d:87:fa:
        66:fa:69:54:0a:9b:9f:7a:82:05:ab:72:7a:a4:a6:f5:ec:18:
        22:73:d1:18:d4:63:d4:ce:47:16:10:f5:0b:5a:73:42:9b:d7:
        5a:c7:c1:e3:b2:53:1b:2e:e7:88:4d:6b:cf:8b:60:2e:4d:a8:
        8a:ed:45:48:01:24:e1:fb:61:ef:3c:28:64:5b:0e:59:d6:66:
        62:7c:ca:e0:b2:b0
-----BEGIN CERTIFICATE-----
MIIF1zCCBAugAwIBAgIBATBBBgkqhkiG9w0BAQowNKAPMA0GCWCGSAFlAwQCAgUA
oRwwGgYJKoZIhvcNAQEIMA0GCWCGSAFlAwQCAgUAogMCATAwgbMxCzAJBgNVBAYT
AlVTMRAwDgYDVQQIDAdNb250YW5hMRAwDgYDVQQHDAdCb3plbWFuMRcwFQYDVQQK
DA53b2xmU1NMX1JTQVBTUzESMBAGA1UECwwJQ0EtUlNBUFNTMRgwFgYDVQQDDA93
d3cud29sZnNzbC5jb20xIDAeBgkqhkiG9w0BCQEWEWZhY3RzQHdvbGZzc2wuY29t
MRcwFQYKCZImiZPyLGQBAQwHd29sZlNTTDAeFw0yNjA2MTEyMTQ0MzBaFw0yOTAz
MDcyMTQ0MzBaMIG3MQswCQYDVQQGEwJVUzEQMA4GA1UECAwHTW9udGFuYTEQMA4G
A1UEBwwHQm96ZW1hbjEXMBUGA1UECgwOd29sZlNTTF9SU0FQU1MxFjAUBgNVBAsM
DVNlcnZlci1SU0FQU1MxGDAWBgNVBAMMD3d3dy53b2xmc3NsLmNvbTEgMB4GCSqG
SIb3DQEJARYRZmFjdHNAd29sZnNzbC5jb20xFzAVBgoJkiaJk/IsZAEBDAd3b2xm
U1NMMIIBoDALBgkqhkiG9w0BAQoDggGPADCCAYoCggGBAL6EeNNrfbKuUYhoajPx
+cUab5dxlCL0wvBJiCukTRVv28zUxm91puIiBq+RJk6gLZcXlQtAGnUjm7Hg113M
DV8Jnsm3PfjlYrs0dZkM5tp9lUDuXyd2+crWDR6nBp/FdVeWRLlz9N6qqa++S5jz
bMja2aImNSFA52dL4tnET7iWVBdZ2MqvsVZHvhVbBdMpzOwrmfoTGirQYdFBwidd
2afyKSjr++WJxQGDiB3ccBqPLzvlNOhb7+12X4pR6i2SwuaGbWqSk8NtBMWVaAf+
mjLZOMgG6zOSuQvOLsNraqJBas4J50qQqC9ZDnbcT7iG0EuV5hvkxlkm7xwATs77
z2MFfqbUCTn+03lJ8mpqGhfLE6U92fqwpF8Y6OVcSzjV2Lh2NaAL4Zi5WMOI5fhK
5tCEo15NhcnWf52fNShmVgQlzBtM9+PLOb7gX6iTvaELzWPgFgevQAvLbj+BDM2A
vxPxklehSBfSKbBaotVChMhsCTHGBZLdo/dW7edfKYjrSwIDAQABo4GJMIGGMB0G
A1UdDgQWBBTI8ekeYAHII8zXmLO7ZXoyxEuTOTAfBgNVHSMEGDAWgBT4QsyIycgY
+dOwJGUGTP9Vq78OfzAMBgNVHRMBAf8EAjAAMA4GA1UdDwEB/wQEAwIDqDATBgNV
HSUEDDAKBggrBgEFBQcDATARBglghkgBhvhCAQEEBAMCBkAwQQYJKoZIhvcNAQEK
MDSgDzANBglghkgBZQMEAgIFAKEcMBoGCSqGSIb3DQEBCDANBglghkgBZQMEAgIF
AKIDAgEwA4IBgQAJ5nXs4MxrrlJE3FpKWES2XHebXLbr6mu6FTS6FnJtoBkMezU0
fNnBULWEAFSmrqX148T2LYGNv2p+bTeP6B1VHCEKt+HwwDBIiWe24qzvf1nbn9GO
WyJXO3GAw2aTUTqgjIEYeOaPj1mXQyWoAbBQo2e1flmdncsFXianJzMc+q7n5opV
XPiP535aKL4MO0rRXHDgyzEKm/+g7nwjwvBEkp4ZSDy6plRT0wvRuk4NXSkUCBwh
yQuwLiMlpacMTdg0tr5YKHjhQOdkDK6spl6eqiF241Y1G8CyFde4iXSy2z/vw8tA
L05tl+lQwKnU0wNJzoafOW++kwVsQtw2MuPr1Yims1iReY8+e2qxtnytgHRrzvYF
2gwLhQDSYF1uqXWWMuusmhYUXyHgAX5SnfkNh/pm+mlUCpufeoIFq3J6pKb17Bgi
c9EY1GPUzkcWEPULWnNCm9dax8HjslMbLueITWvPi2AuTaiK7UVIASTh+2HvPChk
Ww5Z1mZifMrgsrA=
-----END CERTIFICATE-----
