Certificate:
    Data:
        Version: 3 (0x2)
        Serial Number: 1 (0x1)
        Signature Algorithm: rsassaPss        
        Hash Algorithm: sha384
        Mask Algorithm: mgf1 with sha384
         Salt Length: 0x014E
        Trailer Field: 0x01 (default)
        Issuer: C = US, ST = Montana, L = Bozeman, O = wolfSSL_RSAPSS, OU = CA-RSAPSS, CN = www.wolfssl.com, emailAddress = info@wolfssl.com, UID = wolfSSL
        Validity
            Not Before: Dec 18 21:25:30 2024 GMT
            Not After : Sep 14 21:25:30 2027 GMT
        Subject: C = US, ST = Montana, L = Bozeman, O = wolfSSL_RSAPSS, OU = Server-RSAPSS, CN = www.wolfssl.com, emailAddress = info@wolfssl.com, UID = wolfSSL
        Subject Public Key Info:
            Public Key Algorithm: rsassaPss
                Public-Key: (3072 bit)
                Modulus:
                    00:be:84:78:d3:6b:7d:b2:ae:51:88:68:6a:33:f1:
                    f9:c5:1a:6f:97:71:94:22:f4:c2:f0:49:88:2b:a4:
                    4d:15:6f:db:cc:d4:c6:6f:75:a6:e2:22:06:af:91:
                    26:4e:a0:2d:97:17:95:0b:40:1a:75:23:9b:b1:e0:
                    d7:5d:cc:0d:5f:09:9e:c9:b7:3d:f8:e5:62:bb:34:
                    75:99:0c:e6:da:7d:95:40:ee:5f:27:76:f9:ca:d6:
                    0d:1e:a7:06:9f:c5:75:57:96:44:b9:73:f4:de:aa:
                    a9:af:be:4b:98:f3:6c:c8:da:d9:a2:26:35:21:40:
                    e7:67:4b:e2:d9:c4:4f:b8:96:54:17:59:d8:ca:af:
                    b1:56:47:be:15:5b:05:d3:29:cc:ec:2b:99:fa:13:
                    1a:2a:d0:61:d1:41:c2:27:5d:d9:a7:f2:29:28:eb:
                    fb:e5:89:c5:01:83:88:1d:dc:70:1a:8f:2f:3b:e5:
                    34:e8:5b:ef:ed:76:5f:8a:51:ea:2d:92:c2:e6:86:
                    6d:6a:92:93:c3:6d:04:c5:95:68:07:fe:9a:32:d9:
                    38:c8:06:eb:33:92:b9:0b:ce:2e:c3:6b:6a:a2:41:
                    6a:ce:09:e7:4a:90:a8:2f:59:0e:76:dc:4f:b8:86:
                    d0:4b:95:e6:1b:e4:c6:59:26:ef:1c:00:4e:ce:fb:
                    cf:63:05:7e:a6:d4:09:39:fe:d3:79:49:f2:6a:6a:
                    1a:17:cb:13:a5:3d:d9:fa:b0:a4:5f:18:e8:e5:5c:
                    4b:38:d5:d8:b8:76:35:a0:0b:e1:98:b9:58:c3:88:
                    e5:f8:4a:e6:d0:84:a3:5e:4d:85:c9:d6:7f:9d:9f:
                    35:28:66:56:04:25:cc:1b:4c:f7:e3:cb:39:be:e0:
                    5f:a8:93:bd:a1:0b:cd:63:e0:16:07:af:40:0b:cb:
                    6e:3f:81:0c:cd:80:bf:13:f1:92:57:a1:48:17:d2:
                    29:b0:5a:a2:d5:42:84:c8:6c:09:31:c6:05:92:dd:
                    a3:f7:56:ed:e7:5f:29:88:eb:4b
                Exponent: 65537 (0x10001)
                No PSS parameter restrictions
        X509v3 extensions:
            X509v3 Subject Key Identifier: 
                C8:F1:E9:1E:60:01:C8:23:CC:D7:98:B3:BB:65:7A:32:C4:4B:93:39
            X509v3 Authority Key Identifier: 
                F8:42:CC:88:C9:C8:18:F9:D3:B0:24:65:06:4C:FF:55:AB:BF:0E:7F
            X509v3 Basic Constraints: critical
                CA:FALSE
            X509v3 Key Usage: critical
                Digital Signature, Key Encipherment, Key Agreement
            X509v3 Extended Key Usage: 
                TLS Web Server Authentication
            Netscape Cert Type: 
                SSL Server
    Signature Algorithm: rsassaPss
    Signature Value:        
        Hash Algorithm: sha384
        Mask Algorithm: mgf1 with sha384
         Salt Length: 0x014E
        Trailer Field: 0x01 (default)
        94:26:51:a5:1f:de:83:65:08:74:bb:e8:d8:4f:79:a8:2a:18:
        48:c2:cd:53:bf:46:27:11:3d:ec:65:35:47:42:f1:85:94:da:
        da:eb:23:e4:78:54:78:80:e1:a8:7b:17:22:b2:ea:8b:4d:05:
        8c:9e:16:30:62:92:09:c5:4f:46:d0:c2:4b:f0:2e:79:a3:23:
        ee:8c:67:7e:7b:0f:39:d7:ce:52:4c:ea:d8:1e:0a:57:06:b1:
        ad:c7:b0:19:90:cf:6c:68:54:78:6b:b7:ee:5c:bf:01:6c:a2:
        15:19:6f:5f:a4:81:ce:66:ff:53:f7:68:e1:5c:e1:8d:bd:7e:
        5a:02:56:48:1c:bf:52:08:21:6a:c9:3f:99:c6:d3:be:b8:66:
        1b:db:4b:16:d8:f2:7b:95:be:1b:62:07:a4:ac:01:c0:a0:19:
        2b:4b:f8:ca:d8:60:95:7a:65:fd:1c:3b:ad:71:6f:a1:11:07:
        2e:83:78:60:55:be:12:6e:d2:98:f0:bf:87:51:17:90:93:f7:
        2c:8e:ff:26:c1:a2:88:8d:47:9e:6f:b0:62:ee:de:74:d3:02:
        b8:81:7b:2e:8c:99:3d:bf:43:92:cb:30:33:ec:52:66:47:99:
        37:4a:65:75:87:f5:9f:bd:38:77:f6:52:a5:78:e3:80:30:20:
        35:a9:af:4a:75:c5:81:47:6d:3a:9a:96:13:73:2f:13:8d:23:
        c5:0d:06:5a:55:59:7e:e3:d5:72:7c:2e:38:86:92:dc:5a:dc:
        19:c4:de:cd:e2:a9:27:c2:44:01:02:f2:df:97:4f:22:47:49:
        32:e9:37:a4:82:89:1d:57:f1:c7:4a:1e:76:53:71:ec:dc:a6:
        19:e6:d8:2f:f5:73:58:9e:e4:66:20:6a:88:97:88:a4:49:19:
        16:f9:c8:da:61:84:66:c7:61:6e:e9:ee:f0:9f:22:fa:86:98:
        8c:2a:72:2e:c8:ff:cc:98:95:68:24:cd:08:ad:47:eb:eb:47:
        96:69:fb:af:1c:d2
-----BEGIN CERTIFICATE-----
MIIF1zCCBAqgAwIBAgIBATBCBgkqhkiG9w0BAQowNaAPMA0GCWCGSAFlAwQCAgUA
oRwwGgYJKoZIhvcNAQEIMA0GCWCGSAFlAwQCAgUAogQCAgFOMIGyMQswCQYDVQQG
EwJVUzEQMA4GA1UECAwHTW9udGFuYTEQMA4GA1UEBwwHQm96ZW1hbjEXMBUGA1UE
CgwOd29sZlNTTF9SU0FQU1MxEjAQBgNVBAsMCUNBLVJTQVBTUzEYMBYGA1UEAwwP
d3d3LndvbGZzc2wuY29tMR8wHQYJKoZIhvcNAQkBFhBpbmZvQHdvbGZzc2wuY29t
MRcwFQYKCZImiZPyLGQBAQwHd29sZlNTTDAeFw0yNDEyMTgyMTI1MzBaFw0yNzA5
MTQyMTI1MzBaMIG2MQswCQYDVQQGEwJVUzEQMA4GA1UECAwHTW9udGFuYTEQMA4G
A1UEBwwHQm96ZW1hbjEXMBUGA1UECgwOd29sZlNTTF9SU0FQU1MxFjAUBgNVBAsM
DVNlcnZlci1SU0FQU1MxGDAWBgNVBAMMD3d3dy53b2xmc3NsLmNvbTEfMB0GCSqG
SIb3DQEJARYQaW5mb0B3b2xmc3NsLmNvbTEXMBUGCgmSJomT8ixkAQEMB3dvbGZT
U0wwggGgMAsGCSqGSIb3DQEBCgOCAY8AMIIBigKCAYEAvoR402t9sq5RiGhqM/H5
xRpvl3GUIvTC8EmIK6RNFW/bzNTGb3Wm4iIGr5EmTqAtlxeVC0AadSObseDXXcwN
Xwmeybc9+OViuzR1mQzm2n2VQO5fJ3b5ytYNHqcGn8V1V5ZEuXP03qqpr75LmPNs
yNrZoiY1IUDnZ0vi2cRPuJZUF1nYyq+xVke+FVsF0ynM7CuZ+hMaKtBh0UHCJ13Z
p/IpKOv75YnFAYOIHdxwGo8vO+U06Fvv7XZfilHqLZLC5oZtapKTw20ExZVoB/6a
Mtk4yAbrM5K5C84uw2tqokFqzgnnSpCoL1kOdtxPuIbQS5XmG+TGWSbvHABOzvvP
YwV+ptQJOf7TeUnyamoaF8sTpT3Z+rCkXxjo5VxLONXYuHY1oAvhmLlYw4jl+Erm
0ISjXk2FydZ/nZ81KGZWBCXMG0z348s5vuBfqJO9oQvNY+AWB69AC8tuP4EMzYC/
E/GSV6FIF9IpsFqi1UKEyGwJMcYFkt2j91bt518piOtLAgMBAAGjgYkwgYYwHQYD
VR0OBBYEFMjx6R5gAcgjzNeYs7tlejLES5M5MB8GA1UdIwQYMBaAFPhCzIjJyBj5
07AkZQZM/1Wrvw5/MAwGA1UdEwEB/wQCMAAwDgYDVR0PAQH/BAQDAgOoMBMGA1Ud
JQQMMAoGCCsGAQUFBwMBMBEGCWCGSAGG+EIBAQQEAwIGQDBCBgkqhkiG9w0BAQow
NaAPMA0GCWCGSAFlAwQCAgUAoRwwGgYJKoZIhvcNAQEIMA0GCWCGSAFlAwQCAgUA
ogQCAgFOA4IBgQCUJlGlH96DZQh0u+jYT3moKhhIws1Tv0YnET3sZTVHQvGFlNra
6yPkeFR4gOGoexcisuqLTQWMnhYwYpIJxU9G0MJL8C55oyPujGd+ew85185STOrY
HgpXBrGtx7AZkM9saFR4a7fuXL8BbKIVGW9fpIHOZv9T92jhXOGNvX5aAlZIHL9S
CCFqyT+ZxtO+uGYb20sW2PJ7lb4bYgekrAHAoBkrS/jK2GCVemX9HDutcW+hEQcu
g3hgVb4SbtKY8L+HUReQk/csjv8mwaKIjUeeb7Bi7t500wK4gXsujJk9v0OSyzAz
7FJmR5k3SmV1h/WfvTh39lKleOOAMCA1qa9KdcWBR206mpYTcy8TjSPFDQZaVVl+
49VyfC44hpLcWtwZxN7N4qknwkQBAvLfl08iR0ky6TekgokdV/HHSh52U3Hs3KYZ
5tgv9XNYnuRmIGqIl4ikSRkW+cjaYYRmx2Fu6e7wnyL6hpiMKnIuyP/MmJVoJM0I
rUfr60eWafuvHNI=
-----END CERTIFICATE-----
