Certificate:
    Data:
        Version: 3 (0x2)
        Serial Number: 1 (0x1)
        Signature Algorithm: rsassaPss         
         Hash Algorithm: sha256
         Mask Algorithm: mgf1 with sha256
          Salt Length: 0xDE
         Trailer Field: 0xBC (default)
        Issuer: C = US, ST = Montana, L = Bozeman, O = Sawtooth, OU = Consulting, CN = www.wolfssl.com, emailAddress = info@wolfssl.com
        Validity
            Not Before: Dec 13 22:19:28 2023 GMT
            Not After : Sep  8 22:19:28 2026 GMT
        Subject: C = US, ST = Montana, L = Bozeman, O = wolfSSL_RSAPSS, OU = Server-MIX-RSAPSS, CN = www.wolfssl.com, emailAddress = info@wolfssl.com, UID = wolfSSL
        Subject Public Key Info:
            Public Key Algorithm: rsaEncryption
                RSA Public-Key: (2048 bit)
                Modulus:
                    00:c0:95:08:e1:57:41:f2:71:6d:b7:d2:45:41:27:
                    01:65:c6:45:ae:f2:bc:24:30:b8:95:ce:2f:4e:d6:
                    f6:1c:88:bc:7c:9f:fb:a8:67:7f:fe:5c:9c:51:75:
                    f7:8a:ca:07:e7:35:2f:8f:e1:bd:7b:c0:2f:7c:ab:
                    64:a8:17:fc:ca:5d:7b:ba:e0:21:e5:72:2e:6f:2e:
                    86:d8:95:73:da:ac:1b:53:b9:5f:3f:d7:19:0d:25:
                    4f:e1:63:63:51:8b:0b:64:3f:ad:43:b8:a5:1c:5c:
                    34:b3:ae:00:a0:63:c5:f6:7f:0b:59:68:78:73:a6:
                    8c:18:a9:02:6d:af:c3:19:01:2e:b8:10:e3:c6:cc:
                    40:b4:69:a3:46:33:69:87:6e:c4:bb:17:a6:f3:e8:
                    dd:ad:73:bc:7b:2f:21:b5:fd:66:51:0c:bd:54:b3:
                    e1:6d:5f:1c:bc:23:73:d1:09:03:89:14:d2:10:b9:
                    64:c3:2a:d0:a1:96:4a:bc:e1:d4:1a:5b:c7:a0:c0:
                    c1:63:78:0f:44:37:30:32:96:80:32:23:95:a1:77:
                    ba:13:d2:97:73:e2:5d:25:c9:6a:0d:c3:39:60:a4:
                    b4:b0:69:42:42:09:e9:d8:08:bc:33:20:b3:58:22:
                    a7:aa:eb:c4:e1:e6:61:83:c5:d2:96:df:d9:d0:4f:
                    ad:d7
                Exponent: 65537 (0x10001)
        X509v3 extensions:
            X509v3 Subject Key Identifier: 
                B3:11:32:C9:92:98:84:E2:C9:F8:D0:3B:6E:03:42:CA:1F:0E:8E:3C
            X509v3 Authority Key Identifier: 
                keyid:27:8E:67:11:74:C3:26:1D:3F:ED:33:63:B3:A4:D8:1D:30:E5:E8:D5

            X509v3 Basic Constraints: critical
                CA:FALSE
            X509v3 Key Usage: critical
                Digital Signature, Key Encipherment, Key Agreement
            X509v3 Extended Key Usage: 
                TLS Web Server Authentication
            Netscape Cert Type: 
                SSL Server
    Signature Algorithm: rsassaPss         
         Hash Algorithm: sha256
         Mask Algorithm: mgf1 with sha256
          Salt Length: 0xDE
         Trailer Field: 0xBC (default)

         14:99:93:0c:53:6c:7e:43:6d:28:73:f0:11:fa:80:13:79:af:
         2d:c2:64:71:1d:90:5d:b2:2e:1f:4c:bf:30:21:12:16:82:a4:
         8d:90:e7:e3:3c:ee:3a:d1:50:ba:18:e0:d5:e7:cb:6b:87:ae:
         24:e1:0b:7c:c7:83:28:98:56:dc:63:d7:6e:d1:f6:a9:92:3e:
         d5:aa:83:f3:c4:fe:53:26:d0:b3:e8:f2:0b:34:bb:cb:5d:53:
         28:36:b9:ab:b8:13:a2:b3:53:ac:ab:c7:41:92:f5:e4:c7:66:
         c6:af:15:f9:c2:a5:9c:c3:07:81:c9:c0:41:2c:40:11:5b:86:
         63:c0:6e:1d:c7:e4:3f:41:a4:8d:18:2c:da:1a:fa:d7:39:d3:
         b6:8f:be:87:0f:2b:a1:90:6a:d7:ba:df:cf:97:20:05:7e:8c:
         a7:f8:90:bf:ec:b6:a6:44:08:81:57:19:15:a9:a9:0f:1c:5c:
         78:ab:b8:35:5b:b0:8c:7d:48:f5:21:38:e7:a2:51:27:fc:24:
         ea:2f:9f:f7:19:62:e6:1f:cf:1c:5d:9c:e2:b5:e7:b2:4c:ac:
         fc:64:fd:0e:bd:5d:3b:02:44:94:ec:5e:1c:24:d1:3d:37:3b:
         eb:23:2f:7a:46:c6:45:4d:55:1e:50:d2:6f:c2:16:5b:78:a7:
         06:e1:ee:36
-----BEGIN CERTIFICATE-----
MIIEtzCCA26gAwIBAgIBATA+BgkqhkiG9w0BAQowMaANMAsGCWCGSAFlAwQCAaEa
MBgGCSqGSIb3DQEBCDALBglghkgBZQMEAgGiBAICAN4wgZQxCzAJBgNVBAYTAlVT
MRAwDgYDVQQIDAdNb250YW5hMRAwDgYDVQQHDAdCb3plbWFuMREwDwYDVQQKDAhT
YXd0b290aDETMBEGA1UECwwKQ29uc3VsdGluZzEYMBYGA1UEAwwPd3d3LndvbGZz
c2wuY29tMR8wHQYJKoZIhvcNAQkBFhBpbmZvQHdvbGZzc2wuY29tMB4XDTIzMTIx
MzIyMTkyOFoXDTI2MDkwODIyMTkyOFowgboxCzAJBgNVBAYTAlVTMRAwDgYDVQQI
DAdNb250YW5hMRAwDgYDVQQHDAdCb3plbWFuMRcwFQYDVQQKDA53b2xmU1NMX1JT
QVBTUzEaMBgGA1UECwwRU2VydmVyLU1JWC1SU0FQU1MxGDAWBgNVBAMMD3d3dy53
b2xmc3NsLmNvbTEfMB0GCSqGSIb3DQEJARYQaW5mb0B3b2xmc3NsLmNvbTEXMBUG
CgmSJomT8ixkAQEMB3dvbGZTU0wwggEiMA0GCSqGSIb3DQEBAQUAA4IBDwAwggEK
AoIBAQDAlQjhV0HycW230kVBJwFlxkWu8rwkMLiVzi9O1vYciLx8n/uoZ3/+XJxR
dfeKygfnNS+P4b17wC98q2SoF/zKXXu64CHlci5vLobYlXParBtTuV8/1xkNJU/h
Y2NRiwtkP61DuKUcXDSzrgCgY8X2fwtZaHhzpowYqQJtr8MZAS64EOPGzEC0aaNG
M2mHbsS7F6bz6N2tc7x7LyG1/WZRDL1Us+FtXxy8I3PRCQOJFNIQuWTDKtChlkq8
4dQaW8egwMFjeA9ENzAyloAyI5Whd7oT0pdz4l0lyWoNwzlgpLSwaUJCCenYCLwz
ILNYIqeq68Th5mGDxdKW39nQT63XAgMBAAGjgYkwgYYwHQYDVR0OBBYEFLMRMsmS
mITiyfjQO24DQsofDo48MB8GA1UdIwQYMBaAFCeOZxF0wyYdP+0zY7Ok2B0w5ejV
MAwGA1UdEwEB/wQCMAAwDgYDVR0PAQH/BAQDAgOoMBMGA1UdJQQMMAoGCCsGAQUF
BwMBMBEGCWCGSAGG+EIBAQQEAwIGQDA+BgkqhkiG9w0BAQowMaANMAsGCWCGSAFl
AwQCAaEaMBgGCSqGSIb3DQEBCDALBglghkgBZQMEAgGiBAICAN4DggEBABSZkwxT
bH5DbShz8BH6gBN5ry3CZHEdkF2yLh9MvzAhEhaCpI2Q5+M87jrRULoY4NXny2uH
riThC3zHgyiYVtxj127R9qmSPtWqg/PE/lMm0LPo8gs0u8tdUyg2uau4E6KzU6yr
x0GS9eTHZsavFfnCpZzDB4HJwEEsQBFbhmPAbh3H5D9BpI0YLNoa+tc507aPvocP
K6GQate638+XIAV+jKf4kL/stqZECIFXGRWpqQ8cXHiruDVbsIx9SPUhOOeiUSf8
JOovn/cZYuYfzxxdnOK157JMrPxk/Q69XTsCRJTsXhwk0T03O+sjL3pGxkVNVR5Q
0m/CFlt4pwbh7jY=
-----END CERTIFICATE-----
