Certificate:
    Data:
        Version: 3 (0x2)
        Serial Number: 1 (0x1)
        Signature Algorithm: rsassaPss        
        Hash Algorithm: sha384
        Mask Algorithm: mgf1 with sha384
         Salt Length: 0x30
        Trailer Field: 0x01 (default)
        Issuer: C=US, ST=Montana, L=Bozeman, O=wolfSSL_RSAPSS, OU=CA-RSAPSS, CN=www.wolfssl.com, emailAddress=facts@wolfssl.com, UID=wolfSSL
        Validity
            Not Before: Jun 11 21:44:30 2026 GMT
            Not After : Mar  7 21:44:30 2029 GMT
        Subject: C=US, ST=Montana, L=Bozeman, O=wolfSSL_RSAPSS, OU=Server-RSAPSS, CN=www.wolfssl.com, emailAddress=facts@wolfssl.com, UID=wolfSSL
        Subject Public Key Info:
            Public Key Algorithm: rsassaPss
                Public-Key: (3072 bit)
                Modulus:
                    00:be:84:78:d3:6b:7d:b2:ae:51:88:68:6a:33:f1:
                    f9:c5:1a:6f:97:71:94:22:f4:c2:f0:49:88:2b:a4:
                    4d:15:6f:db:cc:d4:c6:6f:75:a6:e2:22:06:af:91:
                    26:4e:a0:2d:97:17:95:0b:40:1a:75:23:9b:b1:e0:
                    d7:5d:cc:0d:5f:09:9e:c9:b7:3d:f8:e5:62:bb:34:
                    75:99:0c:e6:da:7d:95:40:ee:5f:27:76:f9:ca:d6:
                    0d:1e:a7:06:9f:c5:75:57:96:44:b9:73:f4:de:aa:
                    a9:af:be:4b:98:f3:6c:c8:da:d9:a2:26:35:21:40:
                    e7:67:4b:e2:d9:c4:4f:b8:96:54:17:59:d8:ca:af:
                    b1:56:47:be:15:5b:05:d3:29:cc:ec:2b:99:fa:13:
                    1a:2a:d0:61:d1:41:c2:27:5d:d9:a7:f2:29:28:eb:
                    fb:e5:89:c5:01:83:88:1d:dc:70:1a:8f:2f:3b:e5:
                    34:e8:5b:ef:ed:76:5f:8a:51:ea:2d:92:c2:e6:86:
                    6d:6a:92:93:c3:6d:04:c5:95:68:07:fe:9a:32:d9:
                    38:c8:06:eb:33:92:b9:0b:ce:2e:c3:6b:6a:a2:41:
                    6a:ce:09:e7:4a:90:a8:2f:59:0e:76:dc:4f:b8:86:
                    d0:4b:95:e6:1b:e4:c6:59:26:ef:1c:00:4e:ce:fb:
                    cf:63:05:7e:a6:d4:09:39:fe:d3:79:49:f2:6a:6a:
                    1a:17:cb:13:a5:3d:d9:fa:b0:a4:5f:18:e8:e5:5c:
                    4b:38:d5:d8:b8:76:35:a0:0b:e1:98:b9:58:c3:88:
                    e5:f8:4a:e6:d0:84:a3:5e:4d:85:c9:d6:7f:9d:9f:
                    35:28:66:56:04:25:cc:1b:4c:f7:e3:cb:39:be:e0:
                    5f:a8:93:bd:a1:0b:cd:63:e0:16:07:af:40:0b:cb:
                    6e:3f:81:0c:cd:80:bf:13:f1:92:57:a1:48:17:d2:
                    29:b0:5a:a2:d5:42:84:c8:6c:09:31:c6:05:92:dd:
                    a3:f7:56:ed:e7:5f:29:88:eb:4b
                Exponent: 65537 (0x10001)
                No PSS parameter restrictions
        X509v3 extensions:
            X509v3 Subject Key Identifier: 
                C8:F1:E9:1E:60:01:C8:23:CC:D7:98:B3:BB:65:7A:32:C4:4B:93:39
            X509v3 Authority Key Identifier: 
                F8:42:CC:88:C9:C8:18:F9:D3:B0:24:65:06:4C:FF:55:AB:BF:0E:7F
            X509v3 Basic Constraints: critical
                CA:FALSE
            X509v3 Key Usage: critical
                Digital Signature, Key Encipherment, Key Agreement
            X509v3 Extended Key Usage: 
                TLS Web Server Authentication
            Netscape Cert Type: 
                SSL Server
    Signature Algorithm: rsassaPss
    Signature Value:        
        Hash Algorithm: sha384
        Mask Algorithm: mgf1 with sha384
         Salt Length: 0x30
        Trailer Field: 0x01 (default)
        09:e6:75:ec:e0:cc:6b:ae:52:44:dc:5a:4a:58:44:b6:5c:77:
        9b:5c:b6:eb:ea:6b:ba:15:34:ba:16:72:6d:a0:19:0c:7b:35:
        34:7c:d9:c1:50:b5:84:00:54:a6:ae:a5:f5:e3:c4:f6:2d:81:
        8d:bf:6a:7e:6d:37:8f:e8:1d:55:1c:21:0a:b7:e1:f0:c0:30:
        48:89:67:b6:e2:ac:ef:7f:59:db:9f:d1:8e:5b:22:57:3b:71:
        80:c3:66:93:51:3a:a0:8c:81:18:78:e6:8f:8f:59:97:43:25:
        a8:01:b0:50:a3:67:b5:7e:59:9d:9d:cb:05:5e:26:a7:27:33:
        1c:fa:ae:e7:e6:8a:55:5c:f8:8f:e7:7e:5a:28:be:0c:3b:4a:
        d1:5c:70:e0:cb:31:0a:9b:ff:a0:ee:7c:23:c2:f0:44:92:9e:
        19:48:3c:ba:a6:54:53:d3:0b:d1:ba:4e:0d:5d:29:14:08:1c:
        21:c9:0b:b0:2e:23:25:a5:a7:0c:4d:d8:34:b6:be:58:28:78:
        e1:40:e7:64:0c:ae:ac:a6:5e:9e:aa:21:76:e3:56:35:1b:c0:
        b2:15:d7:b8:89:74:b2:db:3f:ef:c3:cb:40:2f:4e:6d:97:e9:
        50:c0:a9:d4:d3:03:49:ce:86:9f:39:6f:be:93:05:6c:42:dc:
        36:32:e3:eb:d5:88:a6:b3:58:91:79:8f:3e:7b:6a:b1:b6:7c:
        ad:80:74:6b:ce:f6:05:da:0c:0b:85:00:d2:60:5d:6e:a9:75:
        96:32:eb:ac:9a:16:14:5f:21:e0:01:7e:52:9d:f9:0d:87:fa:
        66:fa:69:54:0a:9b:9f:7a:82:05:ab:72:7a:a4:a6:f5:ec:18:
        22:73:d1:18:d4:63:d4:ce:47:16:10:f5:0b:5a:73:42:9b:d7:
        5a:c7:c1:e3:b2:53:1b:2e:e7:88:4d:6b:cf:8b:60:2e:4d:a8:
        8a:ed:45:48:01:24:e1:fb:61:ef:3c:28:64:5b:0e:59:d6:66:
        62:7c:ca:e0:b2:b0
-----BEGIN CERTIFICATE-----
MIIF1zCCBAugAwIBAgIBATBBBgkqhkiG9w0BAQowNKAPMA0GCWCGSAFlAwQCAgUA
oRwwGgYJKoZIhvcNAQEIMA0GCWCGSAFlAwQCAgUAogMCATAwgbMxCzAJBgNVBAYT
AlVTMRAwDgYDVQQIDAdNb250YW5hMRAwDgYDVQQHDAdCb3plbWFuMRcwFQYDVQQK
DA53b2xmU1NMX1JTQVBTUzESMBAGA1UECwwJQ0EtUlNBUFNTMRgwFgYDVQQDDA93
d3cud29sZnNzbC5jb20xIDAeBgkqhkiG9w0BCQEWEWZhY3RzQHdvbGZzc2wuY29t
MRcwFQYKCZImiZPyLGQBAQwHd29sZlNTTDAeFw0yNjA2MTEyMTQ0MzBaFw0yOTAz
MDcyMTQ0MzBaMIG3MQswCQYDVQQGEwJVUzEQMA4GA1UECAwHTW9udGFuYTEQMA4G
A1UEBwwHQm96ZW1hbjEXMBUGA1UECgwOd29sZlNTTF9SU0FQU1MxFjAUBgNVBAsM
DVNlcnZlci1SU0FQU1MxGDAWBgNVBAMMD3d3dy53b2xmc3NsLmNvbTEgMB4GCSqG
SIb3DQEJARYRZmFjdHNAd29sZnNzbC5jb20xFzAVBgoJkiaJk/IsZAEBDAd3b2xm
U1NMMIIBoDALBgkqhkiG9w0BAQoDggGPADCCAYoCggGBAL6EeNNrfbKuUYhoajPx
+cUab5dxlCL0wvBJiCukTRVv28zUxm91puIiBq+RJk6gLZcXlQtAGnUjm7Hg113M
DV8Jnsm3PfjlYrs0dZkM5tp9lUDuXyd2+crWDR6nBp/FdVeWRLlz9N6qqa++S5jz
bMja2aImNSFA52dL4tnET7iWVBdZ2MqvsVZHvhVbBdMpzOwrmfoTGirQYdFBwidd
2afyKSjr++WJxQGDiB3ccBqPLzvlNOhb7+12X4pR6i2SwuaGbWqSk8NtBMWVaAf+
mjLZOMgG6zOSuQvOLsNraqJBas4J50qQqC9ZDnbcT7iG0EuV5hvkxlkm7xwATs77
z2MFfqbUCTn+03lJ8mpqGhfLE6U92fqwpF8Y6OVcSzjV2Lh2NaAL4Zi5WMOI5fhK
5tCEo15NhcnWf52fNShmVgQlzBtM9+PLOb7gX6iTvaELzWPgFgevQAvLbj+BDM2A
vxPxklehSBfSKbBaotVChMhsCTHGBZLdo/dW7edfKYjrSwIDAQABo4GJMIGGMB0G
A1UdDgQWBBTI8ekeYAHII8zXmLO7ZXoyxEuTOTAfBgNVHSMEGDAWgBT4QsyIycgY
+dOwJGUGTP9Vq78OfzAMBgNVHRMBAf8EAjAAMA4GA1UdDwEB/wQEAwIDqDATBgNV
HSUEDDAKBggrBgEFBQcDATARBglghkgBhvhCAQEEBAMCBkAwQQYJKoZIhvcNAQEK
MDSgDzANBglghkgBZQMEAgIFAKEcMBoGCSqGSIb3DQEBCDANBglghkgBZQMEAgIF
AKIDAgEwA4IBgQAJ5nXs4MxrrlJE3FpKWES2XHebXLbr6mu6FTS6FnJtoBkMezU0
fNnBULWEAFSmrqX148T2LYGNv2p+bTeP6B1VHCEKt+HwwDBIiWe24qzvf1nbn9GO
WyJXO3GAw2aTUTqgjIEYeOaPj1mXQyWoAbBQo2e1flmdncsFXianJzMc+q7n5opV
XPiP535aKL4MO0rRXHDgyzEKm/+g7nwjwvBEkp4ZSDy6plRT0wvRuk4NXSkUCBwh
yQuwLiMlpacMTdg0tr5YKHjhQOdkDK6spl6eqiF241Y1G8CyFde4iXSy2z/vw8tA
L05tl+lQwKnU0wNJzoafOW++kwVsQtw2MuPr1Yims1iReY8+e2qxtnytgHRrzvYF
2gwLhQDSYF1uqXWWMuusmhYUXyHgAX5SnfkNh/pm+mlUCpufeoIFq3J6pKb17Bgi
c9EY1GPUzkcWEPULWnNCm9dax8HjslMbLueITWvPi2AuTaiK7UVIASTh+2HvPChk
Ww5Z1mZifMrgsrA=
-----END CERTIFICATE-----
Certificate:
    Data:
        Version: 3 (0x2)
        Serial Number: 1 (0x1)
        Signature Algorithm: rsassaPss        
        Hash Algorithm: sha384
        Mask Algorithm: mgf1 with sha384
         Salt Length: 0x30
        Trailer Field: 0x01 (default)
        Issuer: C=US, ST=Montana, L=Bozeman, O=wolfSSL_RSA-PSS, OU=Root-RSA-PSS, CN=www.wolfssl.com, emailAddress=facts@wolfssl.com
        Validity
            Not Before: Jun 11 21:44:30 2026 GMT
            Not After : Mar  7 21:44:30 2029 GMT
        Subject: C=US, ST=Montana, L=Bozeman, O=wolfSSL_RSAPSS, OU=CA-RSAPSS, CN=www.wolfssl.com, emailAddress=facts@wolfssl.com, UID=wolfSSL
        Subject Public Key Info:
            Public Key Algorithm: rsassaPss
                Public-Key: (3072 bit)
                Modulus:
                    00:c8:2a:40:c8:eb:ae:7c:18:33:cb:38:51:e6:b7:
                    7b:11:4f:cd:ea:35:87:64:d9:b2:ca:cf:4b:21:c4:
                    86:2a:c7:a3:6f:15:3e:1e:c4:9b:03:81:4b:3a:5d:
                    53:62:11:e2:08:df:97:4d:37:3d:78:62:50:40:31:
                    2a:70:44:1a:6d:69:49:fc:77:b8:f2:42:09:86:9a:
                    5d:39:cd:84:7b:32:8a:3b:b0:4f:bf:3d:d4:05:7e:
                    c0:aa:28:a5:ce:b1:28:3a:59:d9:19:10:3a:d4:1f:
                    91:07:07:73:50:a4:2b:d8:18:1f:22:f8:f4:64:3f:
                    13:a0:d8:60:7e:53:4c:3b:97:70:bc:36:e5:be:31:
                    97:45:55:ed:a2:5b:87:b5:1b:8e:65:3d:b7:15:08:
                    d1:12:1a:aa:ec:4e:56:35:70:a7:3e:50:65:f7:3e:
                    30:9c:32:db:b2:24:7b:87:02:29:27:12:35:ad:8e:
                    c3:02:22:13:c2:6e:53:45:f0:16:21:81:e5:d5:b5:
                    91:60:8b:d7:5c:bb:c2:70:06:f6:50:41:45:36:7f:
                    41:44:89:b6:97:23:be:76:d7:7c:72:7f:ea:f4:19:
                    10:17:c3:df:8f:cd:97:20:04:cb:1d:03:6b:09:8f:
                    d7:7b:84:7d:22:c5:e2:10:cb:cc:11:aa:a1:f5:66:
                    85:0e:35:5a:8c:c3:89:61:29:d0:5c:53:2f:09:4b:
                    91:7e:ce:e0:12:d3:ce:eb:c9:50:3c:36:f0:a6:b4:
                    fb:b5:c2:de:61:a0:ac:6f:bc:7e:ef:53:08:9f:b1:
                    18:ad:5b:e3:01:23:de:11:a5:1f:7d:d5:b6:f4:72:
                    1d:53:75:66:8c:db:61:1e:e9:eb:3c:f3:49:69:82:
                    b6:20:6b:29:03:a1:be:55:e4:4c:f8:25:a7:a8:a3:
                    e3:3f:32:1f:ae:a7:2a:9b:6b:56:dd:c9:5a:b1:1a:
                    01:a0:13:d2:8e:9a:2c:db:7e:fd:5b:0e:2e:ef:92:
                    69:ce:f2:de:ef:d0:2f:09:0e:67
                Exponent: 65537 (0x10001)
                No PSS parameter restrictions
        X509v3 extensions:
            X509v3 Subject Key Identifier: 
                F8:42:CC:88:C9:C8:18:F9:D3:B0:24:65:06:4C:FF:55:AB:BF:0E:7F
            X509v3 Authority Key Identifier: 
                AA:71:D3:B1:8A:4B:BB:47:15:47:5F:9B:D0:2B:69:D1:6F:85:5E:F6
            X509v3 Basic Constraints: critical
                CA:TRUE
            X509v3 Key Usage: critical
                Digital Signature, Certificate Sign, CRL Sign
    Signature Algorithm: rsassaPss
    Signature Value:        
        Hash Algorithm: sha384
        Mask Algorithm: mgf1 with sha384
         Salt Length: 0x30
        Trailer Field: 0x01 (default)
        73:1f:72:01:ab:68:db:8f:8a:07:a3:00:98:15:52:b2:4c:83:
        7a:d1:c1:71:2e:11:87:a3:31:cf:2a:44:a0:a3:20:02:a7:85:
        4f:a4:1d:a6:c9:93:b5:d7:4b:0c:85:ee:e7:b2:43:5a:cc:50:
        6a:e5:5d:e9:2b:10:c0:b8:30:58:db:88:f1:fe:92:47:56:32:
        93:00:dd:dd:59:36:e6:5a:8d:6d:85:a9:45:ce:fd:02:09:fb:
        50:58:d9:32:76:d8:24:ca:58:d0:73:49:9e:10:bb:90:4a:50:
        a8:a3:e4:19:24:d2:b7:8a:fc:39:3d:d2:87:0b:50:17:fa:a9:
        2d:1b:bc:f3:d2:c0:0a:72:40:21:50:86:5f:e9:78:d0:b0:70:
        a4:48:a2:4a:0a:10:d2:15:ce:a5:0a:a8:fa:2f:bc:c4:f2:61:
        b2:fd:da:03:15:52:3f:60:0f:c3:8a:b4:3e:20:18:45:54:07:
        f7:95:fe:28:89:18:db:01:7a:6d:35:c8:d9:ee:39:73:f5:10:
        e2:38:2e:35:26:65:0b:cd:7f:35:24:ad:6b:82:11:ec:d0:ca:
        61:3f:6c:a9:09:96:36:b5:57:2d:b0:33:77:c1:4a:03:33:e2:
        30:e8:85:bf:6f:28:ee:0a:3a:4b:09:55:86:f3:66:ad:6d:a0:
        b0:85:9c:81:63:ea:7c:b5:5c:14:b7:43:26:ca:52:60:e5:33:
        7e:f1:fc:80:6d:f5:0d:86:e0:1d:3b:8b:24:f0:a3:53:78:ab:
        7a:ee:28:b6:41:ef:00:83:06:a5:ed:e7:fc:71:a9:2a:55:ba:
        03:f4:93:a9:88:17:1d:5d:5d:b7:9c:48:fc:32:b4:a2:8d:73:
        f8:4c:4f:33:8b:c5:e2:ac:c7:92:75:8c:73:cc:a5:5b:30:3b:
        07:63:ee:00:ef:17:ce:1e:7a:9c:87:3e:e4:d1:43:80:58:ea:
        fa:4e:17:59:2f:ea:88:00:bf:df:30:37:c7:9f:e5:f8:6f:75:
        1b:17:e1:b2:85:51
-----BEGIN CERTIFICATE-----
MIIFlzCCA8ugAwIBAgIBATBBBgkqhkiG9w0BAQowNKAPMA0GCWCGSAFlAwQCAgUA
oRwwGgYJKoZIhvcNAQEIMA0GCWCGSAFlAwQCAgUAogMCATAwgZ4xCzAJBgNVBAYT
AlVTMRAwDgYDVQQIDAdNb250YW5hMRAwDgYDVQQHDAdCb3plbWFuMRgwFgYDVQQK
DA93b2xmU1NMX1JTQS1QU1MxFTATBgNVBAsMDFJvb3QtUlNBLVBTUzEYMBYGA1UE
AwwPd3d3LndvbGZzc2wuY29tMSAwHgYJKoZIhvcNAQkBFhFmYWN0c0B3b2xmc3Ns
LmNvbTAeFw0yNjA2MTEyMTQ0MzBaFw0yOTAzMDcyMTQ0MzBaMIGzMQswCQYDVQQG
EwJVUzEQMA4GA1UECAwHTW9udGFuYTEQMA4GA1UEBwwHQm96ZW1hbjEXMBUGA1UE
CgwOd29sZlNTTF9SU0FQU1MxEjAQBgNVBAsMCUNBLVJTQVBTUzEYMBYGA1UEAwwP
d3d3LndvbGZzc2wuY29tMSAwHgYJKoZIhvcNAQkBFhFmYWN0c0B3b2xmc3NsLmNv
bTEXMBUGCgmSJomT8ixkAQEMB3dvbGZTU0wwggGgMAsGCSqGSIb3DQEBCgOCAY8A
MIIBigKCAYEAyCpAyOuufBgzyzhR5rd7EU/N6jWHZNmyys9LIcSGKsejbxU+HsSb
A4FLOl1TYhHiCN+XTTc9eGJQQDEqcEQabWlJ/He48kIJhppdOc2EezKKO7BPvz3U
BX7AqiilzrEoOlnZGRA61B+RBwdzUKQr2BgfIvj0ZD8ToNhgflNMO5dwvDblvjGX
RVXtoluHtRuOZT23FQjREhqq7E5WNXCnPlBl9z4wnDLbsiR7hwIpJxI1rY7DAiIT
wm5TRfAWIYHl1bWRYIvXXLvCcAb2UEFFNn9BRIm2lyO+dtd8cn/q9BkQF8Pfj82X
IATLHQNrCY/Xe4R9IsXiEMvMEaqh9WaFDjVajMOJYSnQXFMvCUuRfs7gEtPO68lQ
PDbwprT7tcLeYaCsb7x+71MIn7EYrVvjASPeEaUffdW29HIdU3VmjNthHunrPPNJ
aYK2IGspA6G+VeRM+CWnqKPjPzIfrqcqm2tW3clasRoBoBPSjpos2379Ww4u75Jp
zvLe79AvCQ5nAgMBAAGjYzBhMB0GA1UdDgQWBBT4QsyIycgY+dOwJGUGTP9Vq78O
fzAfBgNVHSMEGDAWgBSqcdOxiku7RxVHX5vQK2nRb4Ve9jAPBgNVHRMBAf8EBTAD
AQH/MA4GA1UdDwEB/wQEAwIBhjBBBgkqhkiG9w0BAQowNKAPMA0GCWCGSAFlAwQC
AgUAoRwwGgYJKoZIhvcNAQEIMA0GCWCGSAFlAwQCAgUAogMCATADggGBAHMfcgGr
aNuPigejAJgVUrJMg3rRwXEuEYejMc8qRKCjIAKnhU+kHabJk7XXSwyF7ueyQ1rM
UGrlXekrEMC4MFjbiPH+kkdWMpMA3d1ZNuZajW2FqUXO/QIJ+1BY2TJ22CTKWNBz
SZ4Qu5BKUKij5Bkk0reK/Dk90ocLUBf6qS0bvPPSwApyQCFQhl/peNCwcKRIokoK
ENIVzqUKqPovvMTyYbL92gMVUj9gD8OKtD4gGEVUB/eV/iiJGNsBem01yNnuOXP1
EOI4LjUmZQvNfzUkrWuCEezQymE/bKkJlja1Vy2wM3fBSgMz4jDohb9vKO4KOksJ
VYbzZq1toLCFnIFj6ny1XBS3QybKUmDlM37x/IBt9Q2G4B07iyTwo1N4q3ruKLZB
7wCDBqXt5/xxqSpVugP0k6mIFx1dXbecSPwytKKNc/hMTzOLxeKsx5J1jHPMpVsw
Owdj7gDvF84eepyHPuTRQ4BY6vpOF1kv6ogAv98wN8ef5fhvdRsX4bKFUQ==
-----END CERTIFICATE-----
