Certificate:
    Data:
        Version: 3 (0x2)
        Serial Number: 1 (0x1)
        Signature Algorithm: rsassaPss        
        Hash Algorithm: sha384
        Mask Algorithm: mgf1 with sha384
         Salt Length: 0x30
        Trailer Field: 0x01 (default)
        Issuer: C=US, ST=Montana, L=Bozeman, O=wolfSSL_RSAPSS, OU=CA-RSAPSS, CN=www.wolfssl.com, emailAddress=info@wolfssl.com, UID=wolfSSL
        Validity
            Not Before: Nov 13 20:41:20 2025 GMT
            Not After : Aug  9 20:41:20 2028 GMT
        Subject: C=US, ST=Montana, L=Bozeman, O=wolfSSL_RSAPSS, OU=Server-RSAPSS, CN=www.wolfssl.com, emailAddress=info@wolfssl.com, UID=wolfSSL
        Subject Public Key Info:
            Public Key Algorithm: rsassaPss
                Public-Key: (3072 bit)
                Modulus:
                    00:be:84:78:d3:6b:7d:b2:ae:51:88:68:6a:33:f1:
                    f9:c5:1a:6f:97:71:94:22:f4:c2:f0:49:88:2b:a4:
                    4d:15:6f:db:cc:d4:c6:6f:75:a6:e2:22:06:af:91:
                    26:4e:a0:2d:97:17:95:0b:40:1a:75:23:9b:b1:e0:
                    d7:5d:cc:0d:5f:09:9e:c9:b7:3d:f8:e5:62:bb:34:
                    75:99:0c:e6:da:7d:95:40:ee:5f:27:76:f9:ca:d6:
                    0d:1e:a7:06:9f:c5:75:57:96:44:b9:73:f4:de:aa:
                    a9:af:be:4b:98:f3:6c:c8:da:d9:a2:26:35:21:40:
                    e7:67:4b:e2:d9:c4:4f:b8:96:54:17:59:d8:ca:af:
                    b1:56:47:be:15:5b:05:d3:29:cc:ec:2b:99:fa:13:
                    1a:2a:d0:61:d1:41:c2:27:5d:d9:a7:f2:29:28:eb:
                    fb:e5:89:c5:01:83:88:1d:dc:70:1a:8f:2f:3b:e5:
                    34:e8:5b:ef:ed:76:5f:8a:51:ea:2d:92:c2:e6:86:
                    6d:6a:92:93:c3:6d:04:c5:95:68:07:fe:9a:32:d9:
                    38:c8:06:eb:33:92:b9:0b:ce:2e:c3:6b:6a:a2:41:
                    6a:ce:09:e7:4a:90:a8:2f:59:0e:76:dc:4f:b8:86:
                    d0:4b:95:e6:1b:e4:c6:59:26:ef:1c:00:4e:ce:fb:
                    cf:63:05:7e:a6:d4:09:39:fe:d3:79:49:f2:6a:6a:
                    1a:17:cb:13:a5:3d:d9:fa:b0:a4:5f:18:e8:e5:5c:
                    4b:38:d5:d8:b8:76:35:a0:0b:e1:98:b9:58:c3:88:
                    e5:f8:4a:e6:d0:84:a3:5e:4d:85:c9:d6:7f:9d:9f:
                    35:28:66:56:04:25:cc:1b:4c:f7:e3:cb:39:be:e0:
                    5f:a8:93:bd:a1:0b:cd:63:e0:16:07:af:40:0b:cb:
                    6e:3f:81:0c:cd:80:bf:13:f1:92:57:a1:48:17:d2:
                    29:b0:5a:a2:d5:42:84:c8:6c:09:31:c6:05:92:dd:
                    a3:f7:56:ed:e7:5f:29:88:eb:4b
                Exponent: 65537 (0x10001)
                No PSS parameter restrictions
        X509v3 extensions:
            X509v3 Subject Key Identifier: 
                C8:F1:E9:1E:60:01:C8:23:CC:D7:98:B3:BB:65:7A:32:C4:4B:93:39
            X509v3 Authority Key Identifier: 
                F8:42:CC:88:C9:C8:18:F9:D3:B0:24:65:06:4C:FF:55:AB:BF:0E:7F
            X509v3 Basic Constraints: critical
                CA:FALSE
            X509v3 Key Usage: critical
                Digital Signature, Key Encipherment, Key Agreement
            X509v3 Extended Key Usage: 
                TLS Web Server Authentication
            Netscape Cert Type: 
                SSL Server
    Signature Algorithm: rsassaPss
    Signature Value:        
        Hash Algorithm: sha384
        Mask Algorithm: mgf1 with sha384
         Salt Length: 0x30
        Trailer Field: 0x01 (default)
        0a:36:34:86:2d:33:2e:e9:5c:37:55:5e:db:c4:fe:e1:31:1d:
        ad:04:c6:da:6f:2b:5c:f8:3a:01:32:0c:68:9a:12:39:c8:31:
        d3:0a:ea:5c:ac:5d:ea:8c:21:83:cf:e3:be:f4:99:12:96:ae:
        88:f1:12:ae:55:4e:b8:b0:74:f8:de:8f:89:30:23:69:f0:1a:
        61:5a:19:7e:47:26:8a:c6:45:4e:5b:78:60:f2:f0:9b:5a:f5:
        7f:ba:ae:5f:b7:45:07:85:32:6b:54:2f:85:11:82:37:92:fe:
        cb:ed:20:c5:20:7f:20:a8:83:b3:ce:3d:8d:38:d8:5a:a3:ab:
        42:fb:bd:c7:42:9b:91:75:12:e1:e5:03:ab:2d:c0:21:a1:ab:
        6a:9c:54:59:2e:87:f9:15:59:bb:82:e6:f5:e2:c6:80:5a:60:
        43:32:43:c0:3f:ab:f5:ee:68:63:06:09:7a:2f:6b:7b:80:5b:
        ef:fd:91:c6:f2:1c:c6:13:07:f6:ae:b8:b3:2f:f3:e6:49:75:
        da:a9:d3:39:2b:8a:37:e1:c4:fc:7d:f1:85:8c:1c:60:01:5d:
        c0:98:92:19:5d:f1:28:d6:18:9b:58:4a:17:12:ea:ac:1d:3e:
        83:45:18:d0:41:02:ac:9c:8d:c5:08:54:6a:ea:5a:a2:80:f6:
        86:78:7f:2f:c3:fa:81:e3:a7:81:0e:ab:fe:6d:d8:9b:cd:8e:
        09:a8:82:51:73:08:46:4e:4c:26:ec:c9:88:0d:82:39:25:6f:
        44:35:b4:43:ee:44:39:2d:27:b6:97:6d:e4:12:16:38:78:db:
        39:e2:af:c7:03:5d:36:7f:db:44:e0:88:8b:0c:22:34:c8:05:
        ae:17:63:cd:a6:24:ff:39:32:88:d0:19:99:d3:79:44:69:f3:
        e6:4a:9a:42:78:60:48:61:38:cb:17:68:fa:c4:61:6a:e2:dc:
        37:03:d8:d6:db:3e:67:5d:d5:e9:48:15:13:33:9c:02:b1:62:
        8f:c7:4d:68:7a:ae
-----BEGIN CERTIFICATE-----
MIIF1TCCBAmgAwIBAgIBATBBBgkqhkiG9w0BAQowNKAPMA0GCWCGSAFlAwQCAgUA
oRwwGgYJKoZIhvcNAQEIMA0GCWCGSAFlAwQCAgUAogMCATAwgbIxCzAJBgNVBAYT
AlVTMRAwDgYDVQQIDAdNb250YW5hMRAwDgYDVQQHDAdCb3plbWFuMRcwFQYDVQQK
DA53b2xmU1NMX1JTQVBTUzESMBAGA1UECwwJQ0EtUlNBUFNTMRgwFgYDVQQDDA93
d3cud29sZnNzbC5jb20xHzAdBgkqhkiG9w0BCQEWEGluZm9Ad29sZnNzbC5jb20x
FzAVBgoJkiaJk/IsZAEBDAd3b2xmU1NMMB4XDTI1MTExMzIwNDEyMFoXDTI4MDgw
OTIwNDEyMFowgbYxCzAJBgNVBAYTAlVTMRAwDgYDVQQIDAdNb250YW5hMRAwDgYD
VQQHDAdCb3plbWFuMRcwFQYDVQQKDA53b2xmU1NMX1JTQVBTUzEWMBQGA1UECwwN
U2VydmVyLVJTQVBTUzEYMBYGA1UEAwwPd3d3LndvbGZzc2wuY29tMR8wHQYJKoZI
hvcNAQkBFhBpbmZvQHdvbGZzc2wuY29tMRcwFQYKCZImiZPyLGQBAQwHd29sZlNT
TDCCAaAwCwYJKoZIhvcNAQEKA4IBjwAwggGKAoIBgQC+hHjTa32yrlGIaGoz8fnF
Gm+XcZQi9MLwSYgrpE0Vb9vM1MZvdabiIgavkSZOoC2XF5ULQBp1I5ux4NddzA1f
CZ7Jtz345WK7NHWZDObafZVA7l8ndvnK1g0epwafxXVXlkS5c/TeqqmvvkuY82zI
2tmiJjUhQOdnS+LZxE+4llQXWdjKr7FWR74VWwXTKczsK5n6Exoq0GHRQcInXdmn
8iko6/vlicUBg4gd3HAajy875TToW+/tdl+KUeotksLmhm1qkpPDbQTFlWgH/poy
2TjIBuszkrkLzi7Da2qiQWrOCedKkKgvWQ523E+4htBLleYb5MZZJu8cAE7O+89j
BX6m1Ak5/tN5SfJqahoXyxOlPdn6sKRfGOjlXEs41di4djWgC+GYuVjDiOX4SubQ
hKNeTYXJ1n+dnzUoZlYEJcwbTPfjyzm+4F+ok72hC81j4BYHr0ALy24/gQzNgL8T
8ZJXoUgX0imwWqLVQoTIbAkxxgWS3aP3Vu3nXymI60sCAwEAAaOBiTCBhjAdBgNV
HQ4EFgQUyPHpHmAByCPM15izu2V6MsRLkzkwHwYDVR0jBBgwFoAU+ELMiMnIGPnT
sCRlBkz/Vau/Dn8wDAYDVR0TAQH/BAIwADAOBgNVHQ8BAf8EBAMCA6gwEwYDVR0l
BAwwCgYIKwYBBQUHAwEwEQYJYIZIAYb4QgEBBAQDAgZAMEEGCSqGSIb3DQEBCjA0
oA8wDQYJYIZIAWUDBAICBQChHDAaBgkqhkiG9w0BAQgwDQYJYIZIAWUDBAICBQCi
AwIBMAOCAYEACjY0hi0zLulcN1Ve28T+4TEdrQTG2m8rXPg6ATIMaJoSOcgx0wrq
XKxd6owhg8/jvvSZEpauiPESrlVOuLB0+N6PiTAjafAaYVoZfkcmisZFTlt4YPLw
m1r1f7quX7dFB4Uya1QvhRGCN5L+y+0gxSB/IKiDs849jTjYWqOrQvu9x0KbkXUS
4eUDqy3AIaGrapxUWS6H+RVZu4Lm9eLGgFpgQzJDwD+r9e5oYwYJei9re4Bb7/2R
xvIcxhMH9q64sy/z5kl12qnTOSuKN+HE/H3xhYwcYAFdwJiSGV3xKNYYm1hKFxLq
rB0+g0UY0EECrJyNxQhUaupaooD2hnh/L8P6geOngQ6r/m3Ym82OCaiCUXMIRk5M
JuzJiA2COSVvRDW0Q+5EOS0ntpdt5BIWOHjbOeKvxwNdNn/bROCIiwwiNMgFrhdj
zaYk/zkyiNAZmdN5RGnz5kqaQnhgSGE4yxdo+sRhauLcNwPY1ts+Z13V6UgVEzOc
ArFij8dNaHqu
-----END CERTIFICATE-----
