Certificate:
    Data:
        Version: 3 (0x2)
        Serial Number: 1 (0x1)
        Signature Algorithm: rsassaPss        
        Hash Algorithm: sha384
        Mask Algorithm: mgf1 with sha384
         Salt Length: 0x014E
        Trailer Field: 0x01 (default)
        Issuer: C = US, ST = Montana, L = Bozeman, O = wolfSSL_RSAPSS, OU = CA-RSAPSS, CN = www.wolfssl.com, emailAddress = info@wolfssl.com, UID = wolfSSL
        Validity
            Not Before: Sep 26 17:22:43 2023 GMT
            Not After : Jun 22 17:22:43 2026 GMT
        Subject: C = US, ST = Montana, L = Bozeman, O = wolfSSL_RSAPSS, OU = Server-RSAPSS, CN = www.wolfssl.com, emailAddress = info@wolfssl.com, UID = wolfSSL
        Subject Public Key Info:
            Public Key Algorithm: rsassaPss
                Public-Key: (3072 bit)
                Modulus:
                    00:be:84:78:d3:6b:7d:b2:ae:51:88:68:6a:33:f1:
                    f9:c5:1a:6f:97:71:94:22:f4:c2:f0:49:88:2b:a4:
                    4d:15:6f:db:cc:d4:c6:6f:75:a6:e2:22:06:af:91:
                    26:4e:a0:2d:97:17:95:0b:40:1a:75:23:9b:b1:e0:
                    d7:5d:cc:0d:5f:09:9e:c9:b7:3d:f8:e5:62:bb:34:
                    75:99:0c:e6:da:7d:95:40:ee:5f:27:76:f9:ca:d6:
                    0d:1e:a7:06:9f:c5:75:57:96:44:b9:73:f4:de:aa:
                    a9:af:be:4b:98:f3:6c:c8:da:d9:a2:26:35:21:40:
                    e7:67:4b:e2:d9:c4:4f:b8:96:54:17:59:d8:ca:af:
                    b1:56:47:be:15:5b:05:d3:29:cc:ec:2b:99:fa:13:
                    1a:2a:d0:61:d1:41:c2:27:5d:d9:a7:f2:29:28:eb:
                    fb:e5:89:c5:01:83:88:1d:dc:70:1a:8f:2f:3b:e5:
                    34:e8:5b:ef:ed:76:5f:8a:51:ea:2d:92:c2:e6:86:
                    6d:6a:92:93:c3:6d:04:c5:95:68:07:fe:9a:32:d9:
                    38:c8:06:eb:33:92:b9:0b:ce:2e:c3:6b:6a:a2:41:
                    6a:ce:09:e7:4a:90:a8:2f:59:0e:76:dc:4f:b8:86:
                    d0:4b:95:e6:1b:e4:c6:59:26:ef:1c:00:4e:ce:fb:
                    cf:63:05:7e:a6:d4:09:39:fe:d3:79:49:f2:6a:6a:
                    1a:17:cb:13:a5:3d:d9:fa:b0:a4:5f:18:e8:e5:5c:
                    4b:38:d5:d8:b8:76:35:a0:0b:e1:98:b9:58:c3:88:
                    e5:f8:4a:e6:d0:84:a3:5e:4d:85:c9:d6:7f:9d:9f:
                    35:28:66:56:04:25:cc:1b:4c:f7:e3:cb:39:be:e0:
                    5f:a8:93:bd:a1:0b:cd:63:e0:16:07:af:40:0b:cb:
                    6e:3f:81:0c:cd:80:bf:13:f1:92:57:a1:48:17:d2:
                    29:b0:5a:a2:d5:42:84:c8:6c:09:31:c6:05:92:dd:
                    a3:f7:56:ed:e7:5f:29:88:eb:4b
                Exponent: 65537 (0x10001)
                No PSS parameter restrictions
        X509v3 extensions:
            X509v3 Subject Key Identifier: 
                C8:F1:E9:1E:60:01:C8:23:CC:D7:98:B3:BB:65:7A:32:C4:4B:93:39
            X509v3 Authority Key Identifier: 
                F8:42:CC:88:C9:C8:18:F9:D3:B0:24:65:06:4C:FF:55:AB:BF:0E:7F
            X509v3 Basic Constraints: critical
                CA:FALSE
            X509v3 Key Usage: critical
                Digital Signature, Key Encipherment, Key Agreement
            X509v3 Extended Key Usage: 
                TLS Web Server Authentication
            Netscape Cert Type: 
                SSL Server
    Signature Algorithm: rsassaPss
    Signature Value:        
        Hash Algorithm: sha384
        Mask Algorithm: mgf1 with sha384
         Salt Length: 0x014E
        Trailer Field: 0x01 (default)
        95:23:52:93:92:09:78:28:cc:90:fe:fc:90:f0:c3:c9:65:61:
        ed:29:18:3f:42:75:15:a4:14:86:22:06:62:19:22:13:7a:8e:
        51:8b:c1:39:5d:55:1a:e0:a6:34:9d:bf:7f:cb:8a:c3:8a:d6:
        27:fa:73:8c:4a:aa:c0:6e:b5:7e:63:d8:2c:96:bf:34:5f:3e:
        ab:a9:e8:94:0c:a4:95:b2:c7:8f:6b:4e:74:78:2c:6f:61:ea:
        f0:a9:4b:ad:66:c3:12:d3:53:e8:56:0c:ae:82:19:89:58:b8:
        2e:4f:fd:ac:32:ce:4f:82:f9:00:64:ec:08:58:b0:8b:92:4e:
        80:8a:74:f7:70:cd:a5:b1:b0:8f:19:4a:92:ff:56:d3:26:1c:
        42:6a:1e:01:7d:58:c0:84:36:47:d3:68:ee:23:a5:c5:b7:68:
        75:d8:80:43:70:17:89:c4:8a:e0:f5:9e:74:bd:76:4d:48:36:
        c7:d0:7d:59:ed:54:7d:05:c6:05:a3:d8:7b:e0:eb:40:17:aa:
        16:0e:d0:f4:47:8a:6c:33:75:e3:af:6d:29:b0:10:b0:8f:7d:
        50:20:cd:61:ad:bf:2b:83:d4:d1:3d:5a:05:06:52:1a:7d:06:
        d7:b7:bb:37:19:71:46:bb:37:fc:1b:2b:f0:0c:51:ca:08:bf:
        29:a2:77:0c:2d:2b:83:6e:0a:64:51:9f:6c:c8:c9:4e:78:67:
        36:65:c1:02:57:2e:61:2d:8b:bc:26:1c:63:06:4b:6d:9e:64:
        66:3c:45:23:b6:93:6d:a5:4e:00:4a:02:03:94:9b:83:c6:29:
        be:50:b6:c4:90:fb:01:be:77:6f:c9:2f:9d:92:55:ca:81:22:
        2d:ae:00:e5:4e:9f:a5:ec:3b:45:10:21:9d:e5:71:7f:f5:31:
        3c:aa:05:6e:48:ad:6d:e4:79:f6:43:5f:8c:67:b4:d5:5d:34:
        90:ae:35:56:4f:5f:99:cf:b4:16:2e:f2:a8:10:3e:33:c6:fb:
        87:20:ea:1f:b6:94
-----BEGIN CERTIFICATE-----
MIIF1zCCBAqgAwIBAgIBATBCBgkqhkiG9w0BAQowNaAPMA0GCWCGSAFlAwQCAgUA
oRwwGgYJKoZIhvcNAQEIMA0GCWCGSAFlAwQCAgUAogQCAgFOMIGyMQswCQYDVQQG
EwJVUzEQMA4GA1UECAwHTW9udGFuYTEQMA4GA1UEBwwHQm96ZW1hbjEXMBUGA1UE
CgwOd29sZlNTTF9SU0FQU1MxEjAQBgNVBAsMCUNBLVJTQVBTUzEYMBYGA1UEAwwP
d3d3LndvbGZzc2wuY29tMR8wHQYJKoZIhvcNAQkBFhBpbmZvQHdvbGZzc2wuY29t
MRcwFQYKCZImiZPyLGQBAQwHd29sZlNTTDAeFw0yMzA5MjYxNzIyNDNaFw0yNjA2
MjIxNzIyNDNaMIG2MQswCQYDVQQGEwJVUzEQMA4GA1UECAwHTW9udGFuYTEQMA4G
A1UEBwwHQm96ZW1hbjEXMBUGA1UECgwOd29sZlNTTF9SU0FQU1MxFjAUBgNVBAsM
DVNlcnZlci1SU0FQU1MxGDAWBgNVBAMMD3d3dy53b2xmc3NsLmNvbTEfMB0GCSqG
SIb3DQEJARYQaW5mb0B3b2xmc3NsLmNvbTEXMBUGCgmSJomT8ixkAQEMB3dvbGZT
U0wwggGgMAsGCSqGSIb3DQEBCgOCAY8AMIIBigKCAYEAvoR402t9sq5RiGhqM/H5
xRpvl3GUIvTC8EmIK6RNFW/bzNTGb3Wm4iIGr5EmTqAtlxeVC0AadSObseDXXcwN
Xwmeybc9+OViuzR1mQzm2n2VQO5fJ3b5ytYNHqcGn8V1V5ZEuXP03qqpr75LmPNs
yNrZoiY1IUDnZ0vi2cRPuJZUF1nYyq+xVke+FVsF0ynM7CuZ+hMaKtBh0UHCJ13Z
p/IpKOv75YnFAYOIHdxwGo8vO+U06Fvv7XZfilHqLZLC5oZtapKTw20ExZVoB/6a
Mtk4yAbrM5K5C84uw2tqokFqzgnnSpCoL1kOdtxPuIbQS5XmG+TGWSbvHABOzvvP
YwV+ptQJOf7TeUnyamoaF8sTpT3Z+rCkXxjo5VxLONXYuHY1oAvhmLlYw4jl+Erm
0ISjXk2FydZ/nZ81KGZWBCXMG0z348s5vuBfqJO9oQvNY+AWB69AC8tuP4EMzYC/
E/GSV6FIF9IpsFqi1UKEyGwJMcYFkt2j91bt518piOtLAgMBAAGjgYkwgYYwHQYD
VR0OBBYEFMjx6R5gAcgjzNeYs7tlejLES5M5MB8GA1UdIwQYMBaAFPhCzIjJyBj5
07AkZQZM/1Wrvw5/MAwGA1UdEwEB/wQCMAAwDgYDVR0PAQH/BAQDAgOoMBMGA1Ud
JQQMMAoGCCsGAQUFBwMBMBEGCWCGSAGG+EIBAQQEAwIGQDBCBgkqhkiG9w0BAQow
NaAPMA0GCWCGSAFlAwQCAgUAoRwwGgYJKoZIhvcNAQEIMA0GCWCGSAFlAwQCAgUA
ogQCAgFOA4IBgQCVI1KTkgl4KMyQ/vyQ8MPJZWHtKRg/QnUVpBSGIgZiGSITeo5R
i8E5XVUa4KY0nb9/y4rDitYn+nOMSqrAbrV+Y9gslr80Xz6rqeiUDKSVssePa050
eCxvYerwqUutZsMS01PoVgyughmJWLguT/2sMs5PgvkAZOwIWLCLkk6AinT3cM2l
sbCPGUqS/1bTJhxCah4BfVjAhDZH02juI6XFt2h12IBDcBeJxIrg9Z50vXZNSDbH
0H1Z7VR9BcYFo9h74OtAF6oWDtD0R4psM3Xjr20psBCwj31QIM1hrb8rg9TRPVoF
BlIafQbXt7s3GXFGuzf8GyvwDFHKCL8poncMLSuDbgpkUZ9syMlOeGc2ZcECVy5h
LYu8JhxjBkttnmRmPEUjtpNtpU4ASgIDlJuDxim+ULbEkPsBvndvyS+dklXKgSIt
rgDlTp+l7DtFECGd5XF/9TE8qgVuSK1t5Hn2Q1+MZ7TVXTSQrjVWT1+Zz7QWLvKo
ED4zxvuHIOoftpQ=
-----END CERTIFICATE-----
Certificate:
    Data:
        Version: 3 (0x2)
        Serial Number: 1 (0x1)
        Signature Algorithm: rsassaPss        
        Hash Algorithm: sha384
        Mask Algorithm: mgf1 with sha384
         Salt Length: 0x014E
        Trailer Field: 0x01 (default)
        Issuer: C = US, ST = Montana, L = Bozeman, O = wolfSSL_RSA-PSS, OU = Root-RSA-PSS, CN = www.wolfssl.com, emailAddress = info@wolfssl.com
        Validity
            Not Before: Sep 26 17:22:43 2023 GMT
            Not After : Jun 22 17:22:43 2026 GMT
        Subject: C = US, ST = Montana, L = Bozeman, O = wolfSSL_RSAPSS, OU = CA-RSAPSS, CN = www.wolfssl.com, emailAddress = info@wolfssl.com, UID = wolfSSL
        Subject Public Key Info:
            Public Key Algorithm: rsassaPss
                Public-Key: (3072 bit)
                Modulus:
                    00:c8:2a:40:c8:eb:ae:7c:18:33:cb:38:51:e6:b7:
                    7b:11:4f:cd:ea:35:87:64:d9:b2:ca:cf:4b:21:c4:
                    86:2a:c7:a3:6f:15:3e:1e:c4:9b:03:81:4b:3a:5d:
                    53:62:11:e2:08:df:97:4d:37:3d:78:62:50:40:31:
                    2a:70:44:1a:6d:69:49:fc:77:b8:f2:42:09:86:9a:
                    5d:39:cd:84:7b:32:8a:3b:b0:4f:bf:3d:d4:05:7e:
                    c0:aa:28:a5:ce:b1:28:3a:59:d9:19:10:3a:d4:1f:
                    91:07:07:73:50:a4:2b:d8:18:1f:22:f8:f4:64:3f:
                    13:a0:d8:60:7e:53:4c:3b:97:70:bc:36:e5:be:31:
                    97:45:55:ed:a2:5b:87:b5:1b:8e:65:3d:b7:15:08:
                    d1:12:1a:aa:ec:4e:56:35:70:a7:3e:50:65:f7:3e:
                    30:9c:32:db:b2:24:7b:87:02:29:27:12:35:ad:8e:
                    c3:02:22:13:c2:6e:53:45:f0:16:21:81:e5:d5:b5:
                    91:60:8b:d7:5c:bb:c2:70:06:f6:50:41:45:36:7f:
                    41:44:89:b6:97:23:be:76:d7:7c:72:7f:ea:f4:19:
                    10:17:c3:df:8f:cd:97:20:04:cb:1d:03:6b:09:8f:
                    d7:7b:84:7d:22:c5:e2:10:cb:cc:11:aa:a1:f5:66:
                    85:0e:35:5a:8c:c3:89:61:29:d0:5c:53:2f:09:4b:
                    91:7e:ce:e0:12:d3:ce:eb:c9:50:3c:36:f0:a6:b4:
                    fb:b5:c2:de:61:a0:ac:6f:bc:7e:ef:53:08:9f:b1:
                    18:ad:5b:e3:01:23:de:11:a5:1f:7d:d5:b6:f4:72:
                    1d:53:75:66:8c:db:61:1e:e9:eb:3c:f3:49:69:82:
                    b6:20:6b:29:03:a1:be:55:e4:4c:f8:25:a7:a8:a3:
                    e3:3f:32:1f:ae:a7:2a:9b:6b:56:dd:c9:5a:b1:1a:
                    01:a0:13:d2:8e:9a:2c:db:7e:fd:5b:0e:2e:ef:92:
                    69:ce:f2:de:ef:d0:2f:09:0e:67
                Exponent: 65537 (0x10001)
                No PSS parameter restrictions
        X509v3 extensions:
            X509v3 Subject Key Identifier: 
                F8:42:CC:88:C9:C8:18:F9:D3:B0:24:65:06:4C:FF:55:AB:BF:0E:7F
            X509v3 Authority Key Identifier: 
                AA:71:D3:B1:8A:4B:BB:47:15:47:5F:9B:D0:2B:69:D1:6F:85:5E:F6
            X509v3 Basic Constraints: critical
                CA:TRUE
            X509v3 Key Usage: critical
                Digital Signature, Certificate Sign, CRL Sign
    Signature Algorithm: rsassaPss
    Signature Value:        
        Hash Algorithm: sha384
        Mask Algorithm: mgf1 with sha384
         Salt Length: 0x014E
        Trailer Field: 0x01 (default)
        0c:0d:6f:5f:af:ef:68:f4:34:4e:cc:fb:d1:82:00:cc:a4:b9:
        cd:a6:13:b7:c5:81:34:df:b6:7a:46:1b:bd:e9:56:1f:c0:8a:
        2d:e9:c2:96:ff:57:0b:b6:76:5a:d7:cc:8e:59:17:c3:77:5c:
        27:fd:ed:b0:f7:18:2e:8e:09:a2:c8:72:b7:05:c8:6d:73:6d:
        ee:c0:33:cc:24:66:e1:76:12:80:05:eb:f0:a2:70:6e:3d:68:
        90:15:63:1d:27:30:6d:dc:a4:10:35:1d:9a:13:8e:95:17:01:
        39:7c:8a:04:04:6d:f6:b7:81:15:87:e6:32:06:53:71:76:0c:
        c2:dc:28:ba:dd:4d:4a:76:e7:24:bd:78:d5:c9:48:64:40:e8:
        bc:10:44:a9:96:c2:17:2f:7a:2b:0b:5e:df:bf:9f:d8:b1:f7:
        8b:27:98:35:c1:85:8f:b1:ef:75:74:4e:14:96:2f:f5:a3:01:
        e9:35:4e:05:ea:0c:61:38:33:10:e1:d9:fb:89:77:c5:da:95:
        3a:02:9c:db:a6:b6:ba:d7:16:43:ce:ba:74:2c:3d:dd:8e:45:
        51:01:52:79:73:3f:1c:2b:4a:52:44:1f:d7:e4:7a:cf:b3:1a:
        91:90:2b:2d:68:0a:d2:de:c5:37:33:18:96:ef:2c:b4:67:d0:
        88:d5:27:32:88:91:d2:75:58:28:a2:70:db:1e:2d:5a:54:37:
        d1:36:0c:6c:40:07:7a:a7:c1:a2:5b:27:9b:c5:fc:f1:2f:da:
        6d:63:8b:7f:10:2d:45:bc:be:a6:f5:e5:5c:e8:e5:ac:7b:ff:
        0a:cd:83:06:2a:cc:4a:05:37:00:cf:2d:d4:42:b6:af:b6:b8:
        dc:bc:c5:28:8d:b7:e4:42:f1:0e:0f:2e:4c:bb:73:5e:6b:df:
        9d:5e:c0:4d:31:44:1c:a9:42:db:da:db:39:78:fb:29:9e:f2:
        92:45:31:1b:55:72:83:9b:f7:4e:3b:84:37:19:b9:30:f9:79:
        be:3c:30:53:de:83
-----BEGIN CERTIFICATE-----
MIIFlzCCA8qgAwIBAgIBATBCBgkqhkiG9w0BAQowNaAPMA0GCWCGSAFlAwQCAgUA
oRwwGgYJKoZIhvcNAQEIMA0GCWCGSAFlAwQCAgUAogQCAgFOMIGdMQswCQYDVQQG
EwJVUzEQMA4GA1UECAwHTW9udGFuYTEQMA4GA1UEBwwHQm96ZW1hbjEYMBYGA1UE
CgwPd29sZlNTTF9SU0EtUFNTMRUwEwYDVQQLDAxSb290LVJTQS1QU1MxGDAWBgNV
BAMMD3d3dy53b2xmc3NsLmNvbTEfMB0GCSqGSIb3DQEJARYQaW5mb0B3b2xmc3Ns
LmNvbTAeFw0yMzA5MjYxNzIyNDNaFw0yNjA2MjIxNzIyNDNaMIGyMQswCQYDVQQG
EwJVUzEQMA4GA1UECAwHTW9udGFuYTEQMA4GA1UEBwwHQm96ZW1hbjEXMBUGA1UE
CgwOd29sZlNTTF9SU0FQU1MxEjAQBgNVBAsMCUNBLVJTQVBTUzEYMBYGA1UEAwwP
d3d3LndvbGZzc2wuY29tMR8wHQYJKoZIhvcNAQkBFhBpbmZvQHdvbGZzc2wuY29t
MRcwFQYKCZImiZPyLGQBAQwHd29sZlNTTDCCAaAwCwYJKoZIhvcNAQEKA4IBjwAw
ggGKAoIBgQDIKkDI6658GDPLOFHmt3sRT83qNYdk2bLKz0shxIYqx6NvFT4exJsD
gUs6XVNiEeII35dNNz14YlBAMSpwRBptaUn8d7jyQgmGml05zYR7Moo7sE+/PdQF
fsCqKKXOsSg6WdkZEDrUH5EHB3NQpCvYGB8i+PRkPxOg2GB+U0w7l3C8NuW+MZdF
Ve2iW4e1G45lPbcVCNESGqrsTlY1cKc+UGX3PjCcMtuyJHuHAiknEjWtjsMCIhPC
blNF8BYhgeXVtZFgi9dcu8JwBvZQQUU2f0FEibaXI75213xyf+r0GRAXw9+PzZcg
BMsdA2sJj9d7hH0ixeIQy8wRqqH1ZoUONVqMw4lhKdBcUy8JS5F+zuAS087ryVA8
NvCmtPu1wt5hoKxvvH7vUwifsRitW+MBI94RpR991bb0ch1TdWaM22Ee6es880lp
grYgaykDob5V5Ez4Jaeoo+M/Mh+upyqba1bdyVqxGgGgE9KOmizbfv1bDi7vkmnO
8t7v0C8JDmcCAwEAAaNjMGEwHQYDVR0OBBYEFPhCzIjJyBj507AkZQZM/1Wrvw5/
MB8GA1UdIwQYMBaAFKpx07GKS7tHFUdfm9AradFvhV72MA8GA1UdEwEB/wQFMAMB
Af8wDgYDVR0PAQH/BAQDAgGGMEIGCSqGSIb3DQEBCjA1oA8wDQYJYIZIAWUDBAIC
BQChHDAaBgkqhkiG9w0BAQgwDQYJYIZIAWUDBAICBQCiBAICAU4DggGBAAwNb1+v
72j0NE7M+9GCAMykuc2mE7fFgTTftnpGG73pVh/Aii3pwpb/Vwu2dlrXzI5ZF8N3
XCf97bD3GC6OCaLIcrcFyG1zbe7AM8wkZuF2EoAF6/CicG49aJAVYx0nMG3cpBA1
HZoTjpUXATl8igQEbfa3gRWH5jIGU3F2DMLcKLrdTUp25yS9eNXJSGRA6LwQRKmW
whcveisLXt+/n9ix94snmDXBhY+x73V0ThSWL/WjAek1TgXqDGE4MxDh2fuJd8Xa
lToCnNumtrrXFkPOunQsPd2ORVEBUnlzPxwrSlJEH9fkes+zGpGQKy1oCtLexTcz
GJbvLLRn0IjVJzKIkdJ1WCiicNseLVpUN9E2DGxAB3qnwaJbJ5vF/PEv2m1ji38Q
LUW8vqb15Vzo5ax7/wrNgwYqzEoFNwDPLdRCtq+2uNy8xSiNt+RC8Q4PLky7c15r
351ewE0xRBypQtva2zl4+yme8pJFMRtVcoOb9047hDcZuTD5eb48MFPegw==
-----END CERTIFICATE-----
