Certificate:
    Data:
        Version: 3 (0x2)
        Serial Number: 1 (0x1)
        Signature Algorithm: rsassaPss         
         Hash Algorithm: sha256
         Mask Algorithm: mgf1 with sha256
          Salt Length: 0x20
         Trailer Field: 0xBC (default)
        Issuer: C = US, ST = Montana, L = Bozeman, O = wolfSSL_RSAPSS, OU = CA-RSAPSS, CN = www.wolfssl.com, emailAddress = info@wolfssl.com, UID = wolfSSL
        Validity
            Not Before: Dec 13 22:19:28 2023 GMT
            Not After : Sep  8 22:19:28 2026 GMT
        Subject: C = US, ST = Montana, L = Bozeman, O = wolfSSL_RSAPSS, OU = Server-RSAPSS, CN = www.wolfssl.com, emailAddress = info@wolfssl.com, UID = wolfSSL
        Subject Public Key Info:
            Public Key Algorithm: rsassaPss
                RSA-PSS Public-Key: (2048 bit)
                Modulus:
                    00:d7:f7:6c:e1:02:89:cc:9b:74:10:f3:ec:01:cb:
                    89:ce:ef:f6:29:62:fc:75:3f:6a:99:ba:d6:88:ec:
                    ae:b3:20:33:44:d2:06:d7:99:21:bb:f3:40:ce:30:
                    b0:e1:90:4c:5b:58:75:54:1d:a2:dd:bc:63:01:48:
                    43:3b:22:7a:78:2a:65:5b:d8:11:5f:9b:7b:db:21:
                    1c:bc:f4:a5:ad:3e:d6:07:41:da:04:1f:ea:78:ec:
                    57:f3:53:fd:49:2b:5e:0e:34:02:3b:5e:3e:5f:dc:
                    63:da:d4:68:26:1a:61:c9:25:d7:53:16:e7:fb:c0:
                    a5:2d:59:36:7b:e9:c7:42:cb:9b:15:81:fd:d4:0f:
                    c5:b7:c6:49:c0:45:77:ea:5b:ac:ca:1e:a5:9c:c1:
                    86:1b:f2:9e:ed:66:a0:d1:3b:b6:6f:02:54:69:30:
                    0d:ba:55:01:18:c0:5f:7d:b2:ee:a6:bd:89:84:fc:
                    e8:36:e4:bb:d3:b4:9e:dd:b3:a6:80:32:12:37:30:
                    8e:0a:89:54:c5:eb:4b:1c:85:02:2b:f8:26:63:c4:
                    23:f8:59:35:18:0e:28:cf:5d:07:49:d8:cc:60:4d:
                    3b:fb:27:24:f0:d6:46:0f:c5:5b:16:a5:94:8a:69:
                    1a:34:62:cd:e0:32:32:55:b9:16:65:50:11:8b:5e:
                    36:83
                Exponent: 65537 (0x10001)
                PSS parameter restrictions:
                  Hash Algorithm: sha256
                  Mask Algorithm: mgf1 with sha256
                  Minimum Salt Length: 0x20
                  Trailer Field: 0xBC (default)
        X509v3 extensions:
            X509v3 Subject Key Identifier: 
                2D:07:69:B0:A1:6F:9F:0C:FA:25:05:B2:CA:97:08:44:DF:0E:97:A8
            X509v3 Authority Key Identifier: 
                keyid:9E:0C:E0:D3:DF:B6:4B:F3:19:63:5C:CA:6C:93:86:A2:14:53:91:31

            X509v3 Basic Constraints: critical
                CA:FALSE
            X509v3 Key Usage: critical
                Digital Signature, Key Encipherment, Key Agreement
            X509v3 Extended Key Usage: 
                TLS Web Server Authentication
            Netscape Cert Type: 
                SSL Server
    Signature Algorithm: rsassaPss         
         Hash Algorithm: sha256
         Mask Algorithm: mgf1 with sha256
          Salt Length: 0x20
         Trailer Field: 0xBC (default)

         44:ba:5d:7a:83:e4:65:ff:23:b8:4b:7c:9f:ab:2e:f7:dc:59:
         7e:6b:40:67:54:09:42:9f:41:1d:a1:7e:a8:f9:47:48:c1:00:
         63:cc:92:06:2c:3c:eb:f4:83:32:c2:2e:d1:78:f3:1e:52:60:
         32:26:8e:b3:b3:62:3d:ba:2b:8d:74:ef:01:5c:cc:1b:7c:ac:
         40:64:07:79:eb:f9:36:26:0e:e9:a8:55:5d:e5:10:87:17:0d:
         69:63:34:4b:5b:09:c8:54:dd:43:1c:1a:62:bb:ac:00:eb:3f:
         a8:fe:b3:b6:e0:8b:9e:1c:a5:f4:09:8a:f0:7b:2f:da:13:92:
         af:ad:c0:f0:c5:16:18:30:53:a6:5d:b9:1f:97:4b:a6:ac:4c:
         80:dc:01:28:d9:9f:45:73:bd:6c:30:d1:c7:73:33:c5:cc:df:
         56:f4:72:04:00:78:dd:5f:d8:92:bb:87:e9:15:01:e3:f0:6e:
         bb:aa:3e:85:f9:68:22:7a:1e:d3:4c:43:bf:01:ee:0a:aa:9c:
         73:0b:38:d4:77:cf:b7:11:ca:5c:aa:e6:e6:25:9d:bf:41:8d:
         79:37:0c:fa:53:41:c5:86:cf:10:29:9d:7a:7c:96:c5:e5:6c:
         57:7b:89:e6:14:84:5b:54:22:c4:5c:81:a0:bf:a4:fc:76:71:
         97:34:62:7d
-----BEGIN CERTIFICATE-----
MIIE/zCCA7egAwIBAgIBATA9BgkqhkiG9w0BAQowMKANMAsGCWCGSAFlAwQCAaEa
MBgGCSqGSIb3DQEBCDALBglghkgBZQMEAgGiAwIBIDCBsjELMAkGA1UEBhMCVVMx
EDAOBgNVBAgMB01vbnRhbmExEDAOBgNVBAcMB0JvemVtYW4xFzAVBgNVBAoMDndv
bGZTU0xfUlNBUFNTMRIwEAYDVQQLDAlDQS1SU0FQU1MxGDAWBgNVBAMMD3d3dy53
b2xmc3NsLmNvbTEfMB0GCSqGSIb3DQEJARYQaW5mb0B3b2xmc3NsLmNvbTEXMBUG
CgmSJomT8ixkAQEMB3dvbGZTU0wwHhcNMjMxMjEzMjIxOTI4WhcNMjYwOTA4MjIx
OTI4WjCBtjELMAkGA1UEBhMCVVMxEDAOBgNVBAgMB01vbnRhbmExEDAOBgNVBAcM
B0JvemVtYW4xFzAVBgNVBAoMDndvbGZTU0xfUlNBUFNTMRYwFAYDVQQLDA1TZXJ2
ZXItUlNBUFNTMRgwFgYDVQQDDA93d3cud29sZnNzbC5jb20xHzAdBgkqhkiG9w0B
CQEWEGluZm9Ad29sZnNzbC5jb20xFzAVBgoJkiaJk/IsZAEBDAd3b2xmU1NMMIIB
UjA9BgkqhkiG9w0BAQowMKANMAsGCWCGSAFlAwQCAaEaMBgGCSqGSIb3DQEBCDAL
BglghkgBZQMEAgGiAwIBIAOCAQ8AMIIBCgKCAQEA1/ds4QKJzJt0EPPsAcuJzu/2
KWL8dT9qmbrWiOyusyAzRNIG15khu/NAzjCw4ZBMW1h1VB2i3bxjAUhDOyJ6eCpl
W9gRX5t72yEcvPSlrT7WB0HaBB/qeOxX81P9SSteDjQCO14+X9xj2tRoJhphySXX
Uxbn+8ClLVk2e+nHQsubFYH91A/Ft8ZJwEV36lusyh6lnMGGG/Ke7Wag0Tu2bwJU
aTANulUBGMBffbLupr2JhPzoNuS707Se3bOmgDISNzCOColUxetLHIUCK/gmY8Qj
+Fk1GA4oz10HSdjMYE07+yck8NZGD8VbFqWUimkaNGLN4DIyVbkWZVARi142gwID
AQABo4GJMIGGMB0GA1UdDgQWBBQtB2mwoW+fDPolBbLKlwhE3w6XqDAfBgNVHSME
GDAWgBSeDODT37ZL8xljXMpsk4aiFFORMTAMBgNVHRMBAf8EAjAAMA4GA1UdDwEB
/wQEAwIDqDATBgNVHSUEDDAKBggrBgEFBQcDATARBglghkgBhvhCAQEEBAMCBkAw
PQYJKoZIhvcNAQEKMDCgDTALBglghkgBZQMEAgGhGjAYBgkqhkiG9w0BAQgwCwYJ
YIZIAWUDBAIBogMCASADggEBAES6XXqD5GX/I7hLfJ+rLvfcWX5rQGdUCUKfQR2h
fqj5R0jBAGPMkgYsPOv0gzLCLtF48x5SYDImjrOzYj26K4107wFczBt8rEBkB3nr
+TYmDumoVV3lEIcXDWljNEtbCchU3UMcGmK7rADrP6j+s7bgi54cpfQJivB7L9oT
kq+twPDFFhgwU6ZduR+XS6asTIDcASjZn0VzvWww0cdzM8XM31b0cgQAeN1f2JK7
h+kVAePwbruqPoX5aCJ6HtNMQ78B7gqqnHMLONR3z7cRylyq5uYlnb9BjXk3DPpT
QcWGzxApnXp8lsXlbFd7ieYUhFtUIsRcgaC/pPx2cZc0Yn0=
-----END CERTIFICATE-----
