Certificate:
    Data:
        Version: 3 (0x2)
        Serial Number: 1 (0x1)
        Signature Algorithm: rsassaPss         
         Hash Algorithm: sha256
         Mask Algorithm: mgf1 with sha256
          Salt Length: 0x20
         Trailer Field: 0xBC (default)
        Issuer: C = US, ST = Montana, L = Bozeman, O = wolfSSL_RSAPSS, OU = CA-RSAPSS, CN = www.wolfssl.com, emailAddress = info@wolfssl.com, UID = wolfSSL
        Validity
            Not Before: Jul 25 02:27:55 2022 GMT
            Not After : Apr 20 02:27:55 2025 GMT
        Subject: C = US, ST = Montana, L = Bozeman, O = wolfSSL_RSAPSS, OU = Server-RSAPSS, CN = www.wolfssl.com, emailAddress = info@wolfssl.com, UID = wolfSSL
        Subject Public Key Info:
            Public Key Algorithm: rsassaPss
                RSA-PSS Public-Key: (2048 bit)
                Modulus:
                    00:d7:f7:6c:e1:02:89:cc:9b:74:10:f3:ec:01:cb:
                    89:ce:ef:f6:29:62:fc:75:3f:6a:99:ba:d6:88:ec:
                    ae:b3:20:33:44:d2:06:d7:99:21:bb:f3:40:ce:30:
                    b0:e1:90:4c:5b:58:75:54:1d:a2:dd:bc:63:01:48:
                    43:3b:22:7a:78:2a:65:5b:d8:11:5f:9b:7b:db:21:
                    1c:bc:f4:a5:ad:3e:d6:07:41:da:04:1f:ea:78:ec:
                    57:f3:53:fd:49:2b:5e:0e:34:02:3b:5e:3e:5f:dc:
                    63:da:d4:68:26:1a:61:c9:25:d7:53:16:e7:fb:c0:
                    a5:2d:59:36:7b:e9:c7:42:cb:9b:15:81:fd:d4:0f:
                    c5:b7:c6:49:c0:45:77:ea:5b:ac:ca:1e:a5:9c:c1:
                    86:1b:f2:9e:ed:66:a0:d1:3b:b6:6f:02:54:69:30:
                    0d:ba:55:01:18:c0:5f:7d:b2:ee:a6:bd:89:84:fc:
                    e8:36:e4:bb:d3:b4:9e:dd:b3:a6:80:32:12:37:30:
                    8e:0a:89:54:c5:eb:4b:1c:85:02:2b:f8:26:63:c4:
                    23:f8:59:35:18:0e:28:cf:5d:07:49:d8:cc:60:4d:
                    3b:fb:27:24:f0:d6:46:0f:c5:5b:16:a5:94:8a:69:
                    1a:34:62:cd:e0:32:32:55:b9:16:65:50:11:8b:5e:
                    36:83
                Exponent: 65537 (0x10001)
                PSS parameter restrictions:
                  Hash Algorithm: sha256
                  Mask Algorithm: mgf1 with sha256
                  Minimum Salt Length: 0x20
                  Trailer Field: 0xBC (default)
        X509v3 extensions:
            X509v3 Subject Key Identifier: 
                2D:07:69:B0:A1:6F:9F:0C:FA:25:05:B2:CA:97:08:44:DF:0E:97:A8
            X509v3 Authority Key Identifier: 
                keyid:9E:0C:E0:D3:DF:B6:4B:F3:19:63:5C:CA:6C:93:86:A2:14:53:91:31

            X509v3 Basic Constraints: critical
                CA:FALSE
            X509v3 Key Usage: critical
                Digital Signature, Key Encipherment, Key Agreement
            X509v3 Extended Key Usage: 
                TLS Web Server Authentication
            Netscape Cert Type: 
                SSL Server
    Signature Algorithm: rsassaPss         
         Hash Algorithm: sha256
         Mask Algorithm: mgf1 with sha256
          Salt Length: 0x20
         Trailer Field: 0xBC (default)

         be:97:50:2b:be:31:97:8f:92:ed:52:c6:86:b7:12:3c:08:c2:
         97:40:2d:58:51:1d:4b:c4:66:1f:9b:ca:06:66:14:7d:ba:c6:
         16:7d:18:fb:28:3c:5a:b0:b1:e7:dd:6e:6f:1e:18:74:8c:9b:
         71:b3:4a:94:26:bf:14:00:ab:1c:0b:a0:ae:91:7c:71:9c:25:
         c5:9a:2d:8a:a3:39:2a:3c:fa:e5:66:ea:9a:16:85:4c:5e:f4:
         03:0b:59:1d:13:08:76:22:f0:de:8c:1c:d4:67:01:fc:a4:cd:
         12:1a:73:1d:67:b0:df:7a:53:68:80:04:a9:37:aa:3f:30:ac:
         ee:58:c9:d9:ba:78:00:ff:72:0f:d9:98:62:8e:e6:16:37:fb:
         86:35:b6:20:9e:30:72:39:a6:c8:68:07:83:1c:ad:86:fb:1a:
         67:39:18:2a:99:1f:1f:36:94:72:a2:af:a5:fc:ca:1d:16:cf:
         55:b5:86:30:dc:fd:8b:d1:db:38:28:20:fc:64:4b:71:d4:91:
         0a:dc:b9:00:f7:9c:af:99:e4:b6:2b:b7:f3:76:81:92:8b:0f:
         f7:4a:7a:15:2f:48:5c:a4:59:57:55:ab:9e:9e:fc:81:b4:64:
         4b:8e:37:b7:00:c9:54:a5:ea:f6:b9:9c:2b:60:12:7d:f5:29:
         41:07:5a:a3
-----BEGIN CERTIFICATE-----
MIIE/zCCA7egAwIBAgIBATA9BgkqhkiG9w0BAQowMKANMAsGCWCGSAFlAwQCAaEa
MBgGCSqGSIb3DQEBCDALBglghkgBZQMEAgGiAwIBIDCBsjELMAkGA1UEBhMCVVMx
EDAOBgNVBAgMB01vbnRhbmExEDAOBgNVBAcMB0JvemVtYW4xFzAVBgNVBAoMDndv
bGZTU0xfUlNBUFNTMRIwEAYDVQQLDAlDQS1SU0FQU1MxGDAWBgNVBAMMD3d3dy53
b2xmc3NsLmNvbTEfMB0GCSqGSIb3DQEJARYQaW5mb0B3b2xmc3NsLmNvbTEXMBUG
CgmSJomT8ixkAQEMB3dvbGZTU0wwHhcNMjIwNzI1MDIyNzU1WhcNMjUwNDIwMDIy
NzU1WjCBtjELMAkGA1UEBhMCVVMxEDAOBgNVBAgMB01vbnRhbmExEDAOBgNVBAcM
B0JvemVtYW4xFzAVBgNVBAoMDndvbGZTU0xfUlNBUFNTMRYwFAYDVQQLDA1TZXJ2
ZXItUlNBUFNTMRgwFgYDVQQDDA93d3cud29sZnNzbC5jb20xHzAdBgkqhkiG9w0B
CQEWEGluZm9Ad29sZnNzbC5jb20xFzAVBgoJkiaJk/IsZAEBDAd3b2xmU1NMMIIB
UjA9BgkqhkiG9w0BAQowMKANMAsGCWCGSAFlAwQCAaEaMBgGCSqGSIb3DQEBCDAL
BglghkgBZQMEAgGiAwIBIAOCAQ8AMIIBCgKCAQEA1/ds4QKJzJt0EPPsAcuJzu/2
KWL8dT9qmbrWiOyusyAzRNIG15khu/NAzjCw4ZBMW1h1VB2i3bxjAUhDOyJ6eCpl
W9gRX5t72yEcvPSlrT7WB0HaBB/qeOxX81P9SSteDjQCO14+X9xj2tRoJhphySXX
Uxbn+8ClLVk2e+nHQsubFYH91A/Ft8ZJwEV36lusyh6lnMGGG/Ke7Wag0Tu2bwJU
aTANulUBGMBffbLupr2JhPzoNuS707Se3bOmgDISNzCOColUxetLHIUCK/gmY8Qj
+Fk1GA4oz10HSdjMYE07+yck8NZGD8VbFqWUimkaNGLN4DIyVbkWZVARi142gwID
AQABo4GJMIGGMB0GA1UdDgQWBBQtB2mwoW+fDPolBbLKlwhE3w6XqDAfBgNVHSME
GDAWgBSeDODT37ZL8xljXMpsk4aiFFORMTAMBgNVHRMBAf8EAjAAMA4GA1UdDwEB
/wQEAwIDqDATBgNVHSUEDDAKBggrBgEFBQcDATARBglghkgBhvhCAQEEBAMCBkAw
PQYJKoZIhvcNAQEKMDCgDTALBglghkgBZQMEAgGhGjAYBgkqhkiG9w0BAQgwCwYJ
YIZIAWUDBAIBogMCASADggEBAL6XUCu+MZePku1Sxoa3EjwIwpdALVhRHUvEZh+b
ygZmFH26xhZ9GPsoPFqwsefdbm8eGHSMm3GzSpQmvxQAqxwLoK6RfHGcJcWaLYqj
OSo8+uVm6poWhUxe9AMLWR0TCHYi8N6MHNRnAfykzRIacx1nsN96U2iABKk3qj8w
rO5Yydm6eAD/cg/ZmGKO5hY3+4Y1tiCeMHI5pshoB4McrYb7Gmc5GCqZHx82lHKi
r6X8yh0Wz1W1hjDc/YvR2zgoIPxkS3HUkQrcuQD3nK+Z5LYrt/N2gZKLD/dKehUv
SFykWVdVq56e/IG0ZEuON7cAyVSl6va5nCtgEn31KUEHWqM=
-----END CERTIFICATE-----
Certificate:
    Data:
        Version: 3 (0x2)
        Serial Number: 1 (0x1)
        Signature Algorithm: rsassaPss         
         Hash Algorithm: sha256
         Mask Algorithm: mgf1 with sha256
          Salt Length: 0x20
         Trailer Field: 0xBC (default)
        Issuer: C = US, ST = Montana, L = Bozeman, O = wolfSSL_RSA-PSS, OU = Root-RSA-PSS, CN = www.wolfssl.com, emailAddress = info@wolfssl.com
        Validity
            Not Before: Jul 25 02:27:55 2022 GMT
            Not After : Apr 20 02:27:55 2025 GMT
        Subject: C = US, ST = Montana, L = Bozeman, O = wolfSSL_RSAPSS, OU = CA-RSAPSS, CN = www.wolfssl.com, emailAddress = info@wolfssl.com, UID = wolfSSL
        Subject Public Key Info:
            Public Key Algorithm: rsassaPss
                RSA-PSS Public-Key: (2048 bit)
                Modulus:
                    00:d6:0e:c7:50:4d:29:f5:a8:a2:d4:29:5b:58:f2:
                    bc:2d:27:de:88:49:1a:84:19:2b:84:8d:94:d1:78:
                    12:d6:7b:14:d8:d2:82:24:95:ab:fe:4f:55:fb:e0:
                    55:fc:39:37:7b:41:80:b4:98:6f:7f:c5:b7:3e:37:
                    f8:5f:1d:2f:12:31:88:f9:8b:3b:00:85:e6:36:a5:
                    17:3f:9a:a4:be:48:ff:7a:36:22:2c:23:d4:9f:5b:
                    52:d1:17:d1:c1:f2:69:19:d8:32:c5:f7:79:ec:83:
                    19:87:e3:13:a0:43:5e:b1:e9:03:ed:b4:08:cd:7b:
                    14:68:0f:25:4f:90:f0:04:a7:bb:08:89:08:dc:76:
                    4e:70:49:04:41:4d:bf:b7:7f:77:79:6a:ef:68:4b:
                    62:97:8e:33:91:32:2a:e3:63:15:47:f6:61:a4:26:
                    db:02:04:b6:57:c0:a7:f0:aa:ec:20:72:91:c3:32:
                    ab:98:7f:84:c6:e8:5f:d6:e0:1a:d2:24:b1:c7:50:
                    bb:73:87:de:2a:c3:e2:c4:60:32:b8:e4:5a:5b:b5:
                    e4:29:8c:8b:28:6b:bb:1a:dc:3c:fe:b9:ef:9e:89:
                    28:60:ba:a4:40:66:d5:bb:e0:62:7f:a7:2b:e1:0f:
                    38:e6:33:ea:b2:10:0e:14:c8:3f:87:9f:ff:8b:28:
                    cc:1d
                Exponent: 65537 (0x10001)
                PSS parameter restrictions:
                  Hash Algorithm: sha256
                  Mask Algorithm: mgf1 with sha256
                  Minimum Salt Length: 0x20
                  Trailer Field: 0xBC (default)
        X509v3 extensions:
            X509v3 Subject Key Identifier: 
                9E:0C:E0:D3:DF:B6:4B:F3:19:63:5C:CA:6C:93:86:A2:14:53:91:31
            X509v3 Authority Key Identifier: 
                keyid:64:D5:EC:82:87:80:DE:5A:ED:49:98:D8:0C:54:7D:46:9E:A5:3C:D6

            X509v3 Basic Constraints: critical
                CA:TRUE
            X509v3 Key Usage: critical
                Digital Signature, Certificate Sign, CRL Sign
    Signature Algorithm: rsassaPss         
         Hash Algorithm: sha256
         Mask Algorithm: mgf1 with sha256
          Salt Length: 0x20
         Trailer Field: 0xBC (default)

         32:66:7b:22:4b:80:fc:7a:81:5a:11:1d:1b:d8:a6:26:a9:38:
         6f:f8:c5:cb:80:47:0c:08:cc:12:a4:7a:17:8e:d6:a5:a8:cb:
         df:ea:b7:77:b4:df:e5:92:ba:7f:9b:a2:71:0d:7d:7a:36:29:
         bd:03:7b:52:65:0d:79:ae:c3:ac:e8:a4:75:c6:28:c0:05:33:
         51:f4:85:37:0e:9c:03:dc:51:3d:5d:55:88:17:da:b5:c5:b1:
         91:a5:a9:40:91:07:a3:0c:17:75:f9:fa:52:43:94:21:40:24:
         8c:31:f3:4a:5e:96:86:20:9b:37:87:a4:56:ac:4f:ac:e6:a6:
         0c:05:cc:62:b2:0a:62:63:04:5f:dc:52:46:db:12:5e:16:2b:
         62:00:fa:30:5f:04:33:28:0c:a6:6c:49:cb:35:ad:f4:d5:57:
         cb:16:7c:f4:8c:99:22:e4:e1:f4:97:e4:df:b2:1f:62:8f:50:
         2e:43:aa:cf:c7:86:ae:da:7f:b7:eb:16:cb:28:c2:bc:80:7b:
         f2:7f:16:60:88:0e:49:aa:d3:2a:92:54:38:a4:09:be:79:e1:
         1d:6f:b1:95:0c:02:f9:e7:f4:4b:b8:44:4a:e2:db:02:08:b3:
         e6:79:d5:d0:bd:34:8f:cc:8e:19:28:48:07:7b:d0:b2:31:ba:
         db:e2:e0:3f
-----BEGIN CERTIFICATE-----
MIIEvzCCA3egAwIBAgIBATA9BgkqhkiG9w0BAQowMKANMAsGCWCGSAFlAwQCAaEa
MBgGCSqGSIb3DQEBCDALBglghkgBZQMEAgGiAwIBIDCBnTELMAkGA1UEBhMCVVMx
EDAOBgNVBAgMB01vbnRhbmExEDAOBgNVBAcMB0JvemVtYW4xGDAWBgNVBAoMD3dv
bGZTU0xfUlNBLVBTUzEVMBMGA1UECwwMUm9vdC1SU0EtUFNTMRgwFgYDVQQDDA93
d3cud29sZnNzbC5jb20xHzAdBgkqhkiG9w0BCQEWEGluZm9Ad29sZnNzbC5jb20w
HhcNMjIwNzI1MDIyNzU1WhcNMjUwNDIwMDIyNzU1WjCBsjELMAkGA1UEBhMCVVMx
EDAOBgNVBAgMB01vbnRhbmExEDAOBgNVBAcMB0JvemVtYW4xFzAVBgNVBAoMDndv
bGZTU0xfUlNBUFNTMRIwEAYDVQQLDAlDQS1SU0FQU1MxGDAWBgNVBAMMD3d3dy53
b2xmc3NsLmNvbTEfMB0GCSqGSIb3DQEJARYQaW5mb0B3b2xmc3NsLmNvbTEXMBUG
CgmSJomT8ixkAQEMB3dvbGZTU0wwggFSMD0GCSqGSIb3DQEBCjAwoA0wCwYJYIZI
AWUDBAIBoRowGAYJKoZIhvcNAQEIMAsGCWCGSAFlAwQCAaIDAgEgA4IBDwAwggEK
AoIBAQDWDsdQTSn1qKLUKVtY8rwtJ96ISRqEGSuEjZTReBLWexTY0oIklav+T1X7
4FX8OTd7QYC0mG9/xbc+N/hfHS8SMYj5izsAheY2pRc/mqS+SP96NiIsI9SfW1LR
F9HB8mkZ2DLF93nsgxmH4xOgQ16x6QPttAjNexRoDyVPkPAEp7sIiQjcdk5wSQRB
Tb+3f3d5au9oS2KXjjORMirjYxVH9mGkJtsCBLZXwKfwquwgcpHDMquYf4TG6F/W
4BrSJLHHULtzh94qw+LEYDK45FpbteQpjIsoa7sa3Dz+ue+eiShguqRAZtW74GJ/
pyvhDzjmM+qyEA4UyD+Hn/+LKMwdAgMBAAGjYzBhMB0GA1UdDgQWBBSeDODT37ZL
8xljXMpsk4aiFFORMTAfBgNVHSMEGDAWgBRk1eyCh4DeWu1JmNgMVH1GnqU81jAP
BgNVHRMBAf8EBTADAQH/MA4GA1UdDwEB/wQEAwIBhjA9BgkqhkiG9w0BAQowMKAN
MAsGCWCGSAFlAwQCAaEaMBgGCSqGSIb3DQEBCDALBglghkgBZQMEAgGiAwIBIAOC
AQEAMmZ7IkuA/HqBWhEdG9imJqk4b/jFy4BHDAjMEqR6F47WpajL3+q3d7Tf5ZK6
f5uicQ19ejYpvQN7UmUNea7DrOikdcYowAUzUfSFNw6cA9xRPV1ViBfatcWxkaWp
QJEHowwXdfn6UkOUIUAkjDHzSl6WhiCbN4ekVqxPrOamDAXMYrIKYmMEX9xSRtsS
XhYrYgD6MF8EMygMpmxJyzWt9NVXyxZ89IyZIuTh9Jfk37IfYo9QLkOqz8eGrtp/
t+sWyyjCvIB78n8WYIgOSarTKpJUOKQJvnnhHW+xlQwC+ef0S7hESuLbAgiz5nnV
0L00j8yOGShIB3vQsjG62+LgPw==
-----END CERTIFICATE-----
