Certificate:
    Data:
        Version: 3 (0x2)
        Serial Number: 1 (0x1)
        Signature Algorithm: rsassaPss        
        Hash Algorithm: sha384
        Mask Algorithm: mgf1 with sha384
         Salt Length: 0x30
        Trailer Field: 0x01 (default)
        Issuer: C=US, ST=Montana, L=Bozeman, O=wolfSSL_RSAPSS, OU=CA-RSAPSS, CN=www.wolfssl.com, emailAddress=info@wolfssl.com, UID=wolfSSL
        Validity
            Not Before: Nov 13 20:41:20 2025 GMT
            Not After : Aug  9 20:41:20 2028 GMT
        Subject: C=US, ST=Montana, L=Bozeman, O=wolfSSL_RSAPSS, OU=Server-RSAPSS, CN=www.wolfssl.com, emailAddress=info@wolfssl.com, UID=wolfSSL
        Subject Public Key Info:
            Public Key Algorithm: rsassaPss
                Public-Key: (3072 bit)
                Modulus:
                    00:be:84:78:d3:6b:7d:b2:ae:51:88:68:6a:33:f1:
                    f9:c5:1a:6f:97:71:94:22:f4:c2:f0:49:88:2b:a4:
                    4d:15:6f:db:cc:d4:c6:6f:75:a6:e2:22:06:af:91:
                    26:4e:a0:2d:97:17:95:0b:40:1a:75:23:9b:b1:e0:
                    d7:5d:cc:0d:5f:09:9e:c9:b7:3d:f8:e5:62:bb:34:
                    75:99:0c:e6:da:7d:95:40:ee:5f:27:76:f9:ca:d6:
                    0d:1e:a7:06:9f:c5:75:57:96:44:b9:73:f4:de:aa:
                    a9:af:be:4b:98:f3:6c:c8:da:d9:a2:26:35:21:40:
                    e7:67:4b:e2:d9:c4:4f:b8:96:54:17:59:d8:ca:af:
                    b1:56:47:be:15:5b:05:d3:29:cc:ec:2b:99:fa:13:
                    1a:2a:d0:61:d1:41:c2:27:5d:d9:a7:f2:29:28:eb:
                    fb:e5:89:c5:01:83:88:1d:dc:70:1a:8f:2f:3b:e5:
                    34:e8:5b:ef:ed:76:5f:8a:51:ea:2d:92:c2:e6:86:
                    6d:6a:92:93:c3:6d:04:c5:95:68:07:fe:9a:32:d9:
                    38:c8:06:eb:33:92:b9:0b:ce:2e:c3:6b:6a:a2:41:
                    6a:ce:09:e7:4a:90:a8:2f:59:0e:76:dc:4f:b8:86:
                    d0:4b:95:e6:1b:e4:c6:59:26:ef:1c:00:4e:ce:fb:
                    cf:63:05:7e:a6:d4:09:39:fe:d3:79:49:f2:6a:6a:
                    1a:17:cb:13:a5:3d:d9:fa:b0:a4:5f:18:e8:e5:5c:
                    4b:38:d5:d8:b8:76:35:a0:0b:e1:98:b9:58:c3:88:
                    e5:f8:4a:e6:d0:84:a3:5e:4d:85:c9:d6:7f:9d:9f:
                    35:28:66:56:04:25:cc:1b:4c:f7:e3:cb:39:be:e0:
                    5f:a8:93:bd:a1:0b:cd:63:e0:16:07:af:40:0b:cb:
                    6e:3f:81:0c:cd:80:bf:13:f1:92:57:a1:48:17:d2:
                    29:b0:5a:a2:d5:42:84:c8:6c:09:31:c6:05:92:dd:
                    a3:f7:56:ed:e7:5f:29:88:eb:4b
                Exponent: 65537 (0x10001)
                No PSS parameter restrictions
        X509v3 extensions:
            X509v3 Subject Key Identifier: 
                C8:F1:E9:1E:60:01:C8:23:CC:D7:98:B3:BB:65:7A:32:C4:4B:93:39
            X509v3 Authority Key Identifier: 
                F8:42:CC:88:C9:C8:18:F9:D3:B0:24:65:06:4C:FF:55:AB:BF:0E:7F
            X509v3 Basic Constraints: critical
                CA:FALSE
            X509v3 Key Usage: critical
                Digital Signature, Key Encipherment, Key Agreement
            X509v3 Extended Key Usage: 
                TLS Web Server Authentication
            Netscape Cert Type: 
                SSL Server
    Signature Algorithm: rsassaPss
    Signature Value:        
        Hash Algorithm: sha384
        Mask Algorithm: mgf1 with sha384
         Salt Length: 0x30
        Trailer Field: 0x01 (default)
        0a:36:34:86:2d:33:2e:e9:5c:37:55:5e:db:c4:fe:e1:31:1d:
        ad:04:c6:da:6f:2b:5c:f8:3a:01:32:0c:68:9a:12:39:c8:31:
        d3:0a:ea:5c:ac:5d:ea:8c:21:83:cf:e3:be:f4:99:12:96:ae:
        88:f1:12:ae:55:4e:b8:b0:74:f8:de:8f:89:30:23:69:f0:1a:
        61:5a:19:7e:47:26:8a:c6:45:4e:5b:78:60:f2:f0:9b:5a:f5:
        7f:ba:ae:5f:b7:45:07:85:32:6b:54:2f:85:11:82:37:92:fe:
        cb:ed:20:c5:20:7f:20:a8:83:b3:ce:3d:8d:38:d8:5a:a3:ab:
        42:fb:bd:c7:42:9b:91:75:12:e1:e5:03:ab:2d:c0:21:a1:ab:
        6a:9c:54:59:2e:87:f9:15:59:bb:82:e6:f5:e2:c6:80:5a:60:
        43:32:43:c0:3f:ab:f5:ee:68:63:06:09:7a:2f:6b:7b:80:5b:
        ef:fd:91:c6:f2:1c:c6:13:07:f6:ae:b8:b3:2f:f3:e6:49:75:
        da:a9:d3:39:2b:8a:37:e1:c4:fc:7d:f1:85:8c:1c:60:01:5d:
        c0:98:92:19:5d:f1:28:d6:18:9b:58:4a:17:12:ea:ac:1d:3e:
        83:45:18:d0:41:02:ac:9c:8d:c5:08:54:6a:ea:5a:a2:80:f6:
        86:78:7f:2f:c3:fa:81:e3:a7:81:0e:ab:fe:6d:d8:9b:cd:8e:
        09:a8:82:51:73:08:46:4e:4c:26:ec:c9:88:0d:82:39:25:6f:
        44:35:b4:43:ee:44:39:2d:27:b6:97:6d:e4:12:16:38:78:db:
        39:e2:af:c7:03:5d:36:7f:db:44:e0:88:8b:0c:22:34:c8:05:
        ae:17:63:cd:a6:24:ff:39:32:88:d0:19:99:d3:79:44:69:f3:
        e6:4a:9a:42:78:60:48:61:38:cb:17:68:fa:c4:61:6a:e2:dc:
        37:03:d8:d6:db:3e:67:5d:d5:e9:48:15:13:33:9c:02:b1:62:
        8f:c7:4d:68:7a:ae
-----BEGIN CERTIFICATE-----
MIIF1TCCBAmgAwIBAgIBATBBBgkqhkiG9w0BAQowNKAPMA0GCWCGSAFlAwQCAgUA
oRwwGgYJKoZIhvcNAQEIMA0GCWCGSAFlAwQCAgUAogMCATAwgbIxCzAJBgNVBAYT
AlVTMRAwDgYDVQQIDAdNb250YW5hMRAwDgYDVQQHDAdCb3plbWFuMRcwFQYDVQQK
DA53b2xmU1NMX1JTQVBTUzESMBAGA1UECwwJQ0EtUlNBUFNTMRgwFgYDVQQDDA93
d3cud29sZnNzbC5jb20xHzAdBgkqhkiG9w0BCQEWEGluZm9Ad29sZnNzbC5jb20x
FzAVBgoJkiaJk/IsZAEBDAd3b2xmU1NMMB4XDTI1MTExMzIwNDEyMFoXDTI4MDgw
OTIwNDEyMFowgbYxCzAJBgNVBAYTAlVTMRAwDgYDVQQIDAdNb250YW5hMRAwDgYD
VQQHDAdCb3plbWFuMRcwFQYDVQQKDA53b2xmU1NMX1JTQVBTUzEWMBQGA1UECwwN
U2VydmVyLVJTQVBTUzEYMBYGA1UEAwwPd3d3LndvbGZzc2wuY29tMR8wHQYJKoZI
hvcNAQkBFhBpbmZvQHdvbGZzc2wuY29tMRcwFQYKCZImiZPyLGQBAQwHd29sZlNT
TDCCAaAwCwYJKoZIhvcNAQEKA4IBjwAwggGKAoIBgQC+hHjTa32yrlGIaGoz8fnF
Gm+XcZQi9MLwSYgrpE0Vb9vM1MZvdabiIgavkSZOoC2XF5ULQBp1I5ux4NddzA1f
CZ7Jtz345WK7NHWZDObafZVA7l8ndvnK1g0epwafxXVXlkS5c/TeqqmvvkuY82zI
2tmiJjUhQOdnS+LZxE+4llQXWdjKr7FWR74VWwXTKczsK5n6Exoq0GHRQcInXdmn
8iko6/vlicUBg4gd3HAajy875TToW+/tdl+KUeotksLmhm1qkpPDbQTFlWgH/poy
2TjIBuszkrkLzi7Da2qiQWrOCedKkKgvWQ523E+4htBLleYb5MZZJu8cAE7O+89j
BX6m1Ak5/tN5SfJqahoXyxOlPdn6sKRfGOjlXEs41di4djWgC+GYuVjDiOX4SubQ
hKNeTYXJ1n+dnzUoZlYEJcwbTPfjyzm+4F+ok72hC81j4BYHr0ALy24/gQzNgL8T
8ZJXoUgX0imwWqLVQoTIbAkxxgWS3aP3Vu3nXymI60sCAwEAAaOBiTCBhjAdBgNV
HQ4EFgQUyPHpHmAByCPM15izu2V6MsRLkzkwHwYDVR0jBBgwFoAU+ELMiMnIGPnT
sCRlBkz/Vau/Dn8wDAYDVR0TAQH/BAIwADAOBgNVHQ8BAf8EBAMCA6gwEwYDVR0l
BAwwCgYIKwYBBQUHAwEwEQYJYIZIAYb4QgEBBAQDAgZAMEEGCSqGSIb3DQEBCjA0
oA8wDQYJYIZIAWUDBAICBQChHDAaBgkqhkiG9w0BAQgwDQYJYIZIAWUDBAICBQCi
AwIBMAOCAYEACjY0hi0zLulcN1Ve28T+4TEdrQTG2m8rXPg6ATIMaJoSOcgx0wrq
XKxd6owhg8/jvvSZEpauiPESrlVOuLB0+N6PiTAjafAaYVoZfkcmisZFTlt4YPLw
m1r1f7quX7dFB4Uya1QvhRGCN5L+y+0gxSB/IKiDs849jTjYWqOrQvu9x0KbkXUS
4eUDqy3AIaGrapxUWS6H+RVZu4Lm9eLGgFpgQzJDwD+r9e5oYwYJei9re4Bb7/2R
xvIcxhMH9q64sy/z5kl12qnTOSuKN+HE/H3xhYwcYAFdwJiSGV3xKNYYm1hKFxLq
rB0+g0UY0EECrJyNxQhUaupaooD2hnh/L8P6geOngQ6r/m3Ym82OCaiCUXMIRk5M
JuzJiA2COSVvRDW0Q+5EOS0ntpdt5BIWOHjbOeKvxwNdNn/bROCIiwwiNMgFrhdj
zaYk/zkyiNAZmdN5RGnz5kqaQnhgSGE4yxdo+sRhauLcNwPY1ts+Z13V6UgVEzOc
ArFij8dNaHqu
-----END CERTIFICATE-----
Certificate:
    Data:
        Version: 3 (0x2)
        Serial Number: 1 (0x1)
        Signature Algorithm: rsassaPss        
        Hash Algorithm: sha384
        Mask Algorithm: mgf1 with sha384
         Salt Length: 0x30
        Trailer Field: 0x01 (default)
        Issuer: C=US, ST=Montana, L=Bozeman, O=wolfSSL_RSA-PSS, OU=Root-RSA-PSS, CN=www.wolfssl.com, emailAddress=info@wolfssl.com
        Validity
            Not Before: Nov 13 20:41:19 2025 GMT
            Not After : Aug  9 20:41:19 2028 GMT
        Subject: C=US, ST=Montana, L=Bozeman, O=wolfSSL_RSAPSS, OU=CA-RSAPSS, CN=www.wolfssl.com, emailAddress=info@wolfssl.com, UID=wolfSSL
        Subject Public Key Info:
            Public Key Algorithm: rsassaPss
                Public-Key: (3072 bit)
                Modulus:
                    00:c8:2a:40:c8:eb:ae:7c:18:33:cb:38:51:e6:b7:
                    7b:11:4f:cd:ea:35:87:64:d9:b2:ca:cf:4b:21:c4:
                    86:2a:c7:a3:6f:15:3e:1e:c4:9b:03:81:4b:3a:5d:
                    53:62:11:e2:08:df:97:4d:37:3d:78:62:50:40:31:
                    2a:70:44:1a:6d:69:49:fc:77:b8:f2:42:09:86:9a:
                    5d:39:cd:84:7b:32:8a:3b:b0:4f:bf:3d:d4:05:7e:
                    c0:aa:28:a5:ce:b1:28:3a:59:d9:19:10:3a:d4:1f:
                    91:07:07:73:50:a4:2b:d8:18:1f:22:f8:f4:64:3f:
                    13:a0:d8:60:7e:53:4c:3b:97:70:bc:36:e5:be:31:
                    97:45:55:ed:a2:5b:87:b5:1b:8e:65:3d:b7:15:08:
                    d1:12:1a:aa:ec:4e:56:35:70:a7:3e:50:65:f7:3e:
                    30:9c:32:db:b2:24:7b:87:02:29:27:12:35:ad:8e:
                    c3:02:22:13:c2:6e:53:45:f0:16:21:81:e5:d5:b5:
                    91:60:8b:d7:5c:bb:c2:70:06:f6:50:41:45:36:7f:
                    41:44:89:b6:97:23:be:76:d7:7c:72:7f:ea:f4:19:
                    10:17:c3:df:8f:cd:97:20:04:cb:1d:03:6b:09:8f:
                    d7:7b:84:7d:22:c5:e2:10:cb:cc:11:aa:a1:f5:66:
                    85:0e:35:5a:8c:c3:89:61:29:d0:5c:53:2f:09:4b:
                    91:7e:ce:e0:12:d3:ce:eb:c9:50:3c:36:f0:a6:b4:
                    fb:b5:c2:de:61:a0:ac:6f:bc:7e:ef:53:08:9f:b1:
                    18:ad:5b:e3:01:23:de:11:a5:1f:7d:d5:b6:f4:72:
                    1d:53:75:66:8c:db:61:1e:e9:eb:3c:f3:49:69:82:
                    b6:20:6b:29:03:a1:be:55:e4:4c:f8:25:a7:a8:a3:
                    e3:3f:32:1f:ae:a7:2a:9b:6b:56:dd:c9:5a:b1:1a:
                    01:a0:13:d2:8e:9a:2c:db:7e:fd:5b:0e:2e:ef:92:
                    69:ce:f2:de:ef:d0:2f:09:0e:67
                Exponent: 65537 (0x10001)
                No PSS parameter restrictions
        X509v3 extensions:
            X509v3 Subject Key Identifier: 
                F8:42:CC:88:C9:C8:18:F9:D3:B0:24:65:06:4C:FF:55:AB:BF:0E:7F
            X509v3 Authority Key Identifier: 
                AA:71:D3:B1:8A:4B:BB:47:15:47:5F:9B:D0:2B:69:D1:6F:85:5E:F6
            X509v3 Basic Constraints: critical
                CA:TRUE
            X509v3 Key Usage: critical
                Digital Signature, Certificate Sign, CRL Sign
    Signature Algorithm: rsassaPss
    Signature Value:        
        Hash Algorithm: sha384
        Mask Algorithm: mgf1 with sha384
         Salt Length: 0x30
        Trailer Field: 0x01 (default)
        48:d6:71:a8:56:c7:79:14:f9:77:aa:a7:5c:c7:6e:a8:61:10:
        55:97:52:d3:ca:91:59:30:d0:e6:81:f4:7e:d4:95:88:f2:85:
        9d:64:cd:fc:72:42:41:30:c3:d0:ef:d2:1e:a5:42:58:1f:4c:
        50:4a:2f:30:48:18:a1:28:4e:de:96:dc:9e:15:77:2b:f2:87:
        fd:13:6d:2a:82:bf:6b:61:37:37:79:48:5c:68:5e:91:2b:f9:
        e9:e5:e5:7a:91:55:f8:29:3f:af:8f:db:a1:35:17:d7:ff:e0:
        d2:9a:31:83:b0:79:c4:86:eb:b9:fb:f3:45:11:bc:44:d0:e2:
        75:81:5d:76:3b:72:cd:a4:b5:41:24:41:70:2c:9c:7f:fa:f8:
        80:e9:fd:ac:1d:0e:3d:d3:90:4d:aa:7f:de:54:f4:94:10:e5:
        6d:16:10:11:2c:1e:d9:8e:28:9d:ec:03:08:db:74:c0:9d:61:
        a0:44:35:86:6d:2e:56:91:19:aa:8b:53:3c:5b:01:25:5b:a0:
        ec:10:50:56:f4:a7:c1:1a:59:92:1d:a1:86:2a:21:52:c7:22:
        9b:5b:63:92:5e:f0:47:a7:e5:13:72:1a:98:7b:7a:f8:7e:6c:
        fc:45:e6:7b:e9:8c:41:c4:ff:c2:2a:3a:f4:ce:35:bc:38:ec:
        9e:df:1c:d6:8d:01:f9:cd:cc:9b:69:4a:86:d1:af:ef:6e:79:
        78:ac:bb:e1:d0:b7:c3:18:7a:1a:6b:a1:5e:48:9b:f5:44:d7:
        25:05:5f:5c:c5:8e:58:7e:da:ad:8f:ea:9f:18:5d:77:62:bf:
        6e:ab:da:6c:bf:35:49:04:c2:8e:d4:99:16:80:60:6d:bf:28:
        04:5c:c3:0c:36:5c:f5:b7:28:7a:3b:02:20:91:a4:6b:94:85:
        ab:76:1d:9c:42:17:86:13:d3:5d:60:a8:7a:d8:28:b7:34:83:
        b6:2a:a5:ae:22:c0:69:4f:0e:a9:59:8b:19:29:6d:20:cd:87:
        a0:31:c7:42:23:43
-----BEGIN CERTIFICATE-----
MIIFlTCCA8mgAwIBAgIBATBBBgkqhkiG9w0BAQowNKAPMA0GCWCGSAFlAwQCAgUA
oRwwGgYJKoZIhvcNAQEIMA0GCWCGSAFlAwQCAgUAogMCATAwgZ0xCzAJBgNVBAYT
AlVTMRAwDgYDVQQIDAdNb250YW5hMRAwDgYDVQQHDAdCb3plbWFuMRgwFgYDVQQK
DA93b2xmU1NMX1JTQS1QU1MxFTATBgNVBAsMDFJvb3QtUlNBLVBTUzEYMBYGA1UE
AwwPd3d3LndvbGZzc2wuY29tMR8wHQYJKoZIhvcNAQkBFhBpbmZvQHdvbGZzc2wu
Y29tMB4XDTI1MTExMzIwNDExOVoXDTI4MDgwOTIwNDExOVowgbIxCzAJBgNVBAYT
AlVTMRAwDgYDVQQIDAdNb250YW5hMRAwDgYDVQQHDAdCb3plbWFuMRcwFQYDVQQK
DA53b2xmU1NMX1JTQVBTUzESMBAGA1UECwwJQ0EtUlNBUFNTMRgwFgYDVQQDDA93
d3cud29sZnNzbC5jb20xHzAdBgkqhkiG9w0BCQEWEGluZm9Ad29sZnNzbC5jb20x
FzAVBgoJkiaJk/IsZAEBDAd3b2xmU1NMMIIBoDALBgkqhkiG9w0BAQoDggGPADCC
AYoCggGBAMgqQMjrrnwYM8s4Uea3exFPzeo1h2TZssrPSyHEhirHo28VPh7EmwOB
SzpdU2IR4gjfl003PXhiUEAxKnBEGm1pSfx3uPJCCYaaXTnNhHsyijuwT7891AV+
wKoopc6xKDpZ2RkQOtQfkQcHc1CkK9gYHyL49GQ/E6DYYH5TTDuXcLw25b4xl0VV
7aJbh7UbjmU9txUI0RIaquxOVjVwpz5QZfc+MJwy27Ike4cCKScSNa2OwwIiE8Ju
U0XwFiGB5dW1kWCL11y7wnAG9lBBRTZ/QUSJtpcjvnbXfHJ/6vQZEBfD34/NlyAE
yx0DawmP13uEfSLF4hDLzBGqofVmhQ41WozDiWEp0FxTLwlLkX7O4BLTzuvJUDw2
8Ka0+7XC3mGgrG+8fu9TCJ+xGK1b4wEj3hGlH33VtvRyHVN1ZozbYR7p6zzzSWmC
tiBrKQOhvlXkTPglp6ij4z8yH66nKptrVt3JWrEaAaAT0o6aLNt+/VsOLu+Sac7y
3u/QLwkOZwIDAQABo2MwYTAdBgNVHQ4EFgQU+ELMiMnIGPnTsCRlBkz/Vau/Dn8w
HwYDVR0jBBgwFoAUqnHTsYpLu0cVR1+b0Ctp0W+FXvYwDwYDVR0TAQH/BAUwAwEB
/zAOBgNVHQ8BAf8EBAMCAYYwQQYJKoZIhvcNAQEKMDSgDzANBglghkgBZQMEAgIF
AKEcMBoGCSqGSIb3DQEBCDANBglghkgBZQMEAgIFAKIDAgEwA4IBgQBI1nGoVsd5
FPl3qqdcx26oYRBVl1LTypFZMNDmgfR+1JWI8oWdZM38ckJBMMPQ79IepUJYH0xQ
Si8wSBihKE7eltyeFXcr8of9E20qgr9rYTc3eUhcaF6RK/np5eV6kVX4KT+vj9uh
NRfX/+DSmjGDsHnEhuu5+/NFEbxE0OJ1gV12O3LNpLVBJEFwLJx/+viA6f2sHQ49
05BNqn/eVPSUEOVtFhARLB7Zjiid7AMI23TAnWGgRDWGbS5WkRmqi1M8WwElW6Ds
EFBW9KfBGlmSHaGGKiFSxyKbW2OSXvBHp+UTchqYe3r4fmz8ReZ76YxBxP/CKjr0
zjW8OOye3xzWjQH5zcybaUqG0a/vbnl4rLvh0LfDGHoaa6FeSJv1RNclBV9cxY5Y
ftqtj+qfGF13Yr9uq9psvzVJBMKO1JkWgGBtvygEXMMMNlz1tyh6OwIgkaRrlIWr
dh2cQheGE9NdYKh62Ci3NIO2KqWuIsBpTw6pWYsZKW0gzYegMcdCI0M=
-----END CERTIFICATE-----
