Certificate:
    Data:
        Version: 3 (0x2)
        Serial Number: 1 (0x1)
        Signature Algorithm: rsassaPss        
        Hash Algorithm: sha256
        Mask Algorithm: mgf1 with sha256
         Salt Length: 0x20
        Trailer Field: 0x01 (default)
        Issuer: C = US, ST = Montana, L = Bozeman, O = wolfSSL_RSAPSS, OU = CA-RSAPSS, CN = www.wolfssl.com, emailAddress = info@wolfssl.com, UID = wolfSSL
        Validity
            Not Before: Sep 26 17:22:42 2023 GMT
            Not After : Jun 22 17:22:42 2026 GMT
        Subject: C = US, ST = Montana, L = Bozeman, O = wolfSSL_RSAPSS, OU = Server-RSAPSS, CN = www.wolfssl.com, emailAddress = info@wolfssl.com, UID = wolfSSL
        Subject Public Key Info:
            Public Key Algorithm: rsassaPss
                Public-Key: (2048 bit)
                Modulus:
                    00:d7:f7:6c:e1:02:89:cc:9b:74:10:f3:ec:01:cb:
                    89:ce:ef:f6:29:62:fc:75:3f:6a:99:ba:d6:88:ec:
                    ae:b3:20:33:44:d2:06:d7:99:21:bb:f3:40:ce:30:
                    b0:e1:90:4c:5b:58:75:54:1d:a2:dd:bc:63:01:48:
                    43:3b:22:7a:78:2a:65:5b:d8:11:5f:9b:7b:db:21:
                    1c:bc:f4:a5:ad:3e:d6:07:41:da:04:1f:ea:78:ec:
                    57:f3:53:fd:49:2b:5e:0e:34:02:3b:5e:3e:5f:dc:
                    63:da:d4:68:26:1a:61:c9:25:d7:53:16:e7:fb:c0:
                    a5:2d:59:36:7b:e9:c7:42:cb:9b:15:81:fd:d4:0f:
                    c5:b7:c6:49:c0:45:77:ea:5b:ac:ca:1e:a5:9c:c1:
                    86:1b:f2:9e:ed:66:a0:d1:3b:b6:6f:02:54:69:30:
                    0d:ba:55:01:18:c0:5f:7d:b2:ee:a6:bd:89:84:fc:
                    e8:36:e4:bb:d3:b4:9e:dd:b3:a6:80:32:12:37:30:
                    8e:0a:89:54:c5:eb:4b:1c:85:02:2b:f8:26:63:c4:
                    23:f8:59:35:18:0e:28:cf:5d:07:49:d8:cc:60:4d:
                    3b:fb:27:24:f0:d6:46:0f:c5:5b:16:a5:94:8a:69:
                    1a:34:62:cd:e0:32:32:55:b9:16:65:50:11:8b:5e:
                    36:83
                Exponent: 65537 (0x10001)
                PSS parameter restrictions:
                  Hash Algorithm: SHA2-256
                  Mask Algorithm: MGF1 with SHA2-256
                  Minimum Salt Length: 32
                  Trailer Field: 0x1 (default)
        X509v3 extensions:
            X509v3 Subject Key Identifier: 
                2D:07:69:B0:A1:6F:9F:0C:FA:25:05:B2:CA:97:08:44:DF:0E:97:A8
            X509v3 Authority Key Identifier: 
                9E:0C:E0:D3:DF:B6:4B:F3:19:63:5C:CA:6C:93:86:A2:14:53:91:31
            X509v3 Basic Constraints: critical
                CA:FALSE
            X509v3 Key Usage: critical
                Digital Signature, Key Encipherment, Key Agreement
            X509v3 Extended Key Usage: 
                TLS Web Server Authentication
            Netscape Cert Type: 
                SSL Server
    Signature Algorithm: rsassaPss
    Signature Value:        
        Hash Algorithm: sha256
        Mask Algorithm: mgf1 with sha256
         Salt Length: 0x20
        Trailer Field: 0x01 (default)
        20:86:05:b1:db:f6:48:47:ea:48:a3:75:12:d8:5c:9d:98:fb:
        f9:70:9e:ee:a8:8a:b0:dd:1f:3a:bc:24:c8:49:39:c4:6e:91:
        03:e4:28:53:4b:8e:6b:e5:37:20:f2:34:c5:e6:71:e7:85:89:
        87:f1:5e:10:ad:1e:6e:3a:d8:7b:bd:f2:a5:ef:de:c0:b2:b2:
        96:7c:6e:19:82:9e:e4:b5:f5:2c:7f:a9:31:1f:dd:9d:e3:02:
        f6:65:cd:69:d3:1e:6b:1a:77:1d:22:37:74:26:6f:ce:3a:a8:
        48:30:59:f7:37:ef:2f:a0:1c:91:f2:16:dd:84:c6:ad:2d:e9:
        06:07:9a:ff:49:d2:53:14:69:b8:c5:e0:71:aa:b0:07:0c:1e:
        d9:eb:06:d9:19:00:fd:5a:3e:a0:b6:33:30:8b:e3:47:3b:c4:
        3c:d6:e1:53:1c:ef:a4:73:8b:97:c3:53:bf:4f:5e:38:5b:f9:
        33:b7:a8:e4:91:31:bd:79:c9:9a:39:66:18:b1:b7:1a:68:14:
        4f:ee:44:d6:6e:81:bc:77:5a:25:61:8b:b2:f1:e2:b1:d5:5f:
        81:00:9f:c4:66:e9:48:d6:31:6b:17:3b:fe:8a:3b:cc:3d:c1:
        4c:21:23:2a:f4:40:c8:ad:57:df:0c:8f:e6:47:ef:b8:21:4c:
        72:e6:f2:98
-----BEGIN CERTIFICATE-----
MIIFCzCCA7+gAwIBAgIBATBBBgkqhkiG9w0BAQowNKAPMA0GCWCGSAFlAwQCAQUA
oRwwGgYJKoZIhvcNAQEIMA0GCWCGSAFlAwQCAQUAogMCASAwgbIxCzAJBgNVBAYT
AlVTMRAwDgYDVQQIDAdNb250YW5hMRAwDgYDVQQHDAdCb3plbWFuMRcwFQYDVQQK
DA53b2xmU1NMX1JTQVBTUzESMBAGA1UECwwJQ0EtUlNBUFNTMRgwFgYDVQQDDA93
d3cud29sZnNzbC5jb20xHzAdBgkqhkiG9w0BCQEWEGluZm9Ad29sZnNzbC5jb20x
FzAVBgoJkiaJk/IsZAEBDAd3b2xmU1NMMB4XDTIzMDkyNjE3MjI0MloXDTI2MDYy
MjE3MjI0MlowgbYxCzAJBgNVBAYTAlVTMRAwDgYDVQQIDAdNb250YW5hMRAwDgYD
VQQHDAdCb3plbWFuMRcwFQYDVQQKDA53b2xmU1NMX1JTQVBTUzEWMBQGA1UECwwN
U2VydmVyLVJTQVBTUzEYMBYGA1UEAwwPd3d3LndvbGZzc2wuY29tMR8wHQYJKoZI
hvcNAQkBFhBpbmZvQHdvbGZzc2wuY29tMRcwFQYKCZImiZPyLGQBAQwHd29sZlNT
TDCCAVYwQQYJKoZIhvcNAQEKMDSgDzANBglghkgBZQMEAgEFAKEcMBoGCSqGSIb3
DQEBCDANBglghkgBZQMEAgEFAKIDAgEgA4IBDwAwggEKAoIBAQDX92zhAonMm3QQ
8+wBy4nO7/YpYvx1P2qZutaI7K6zIDNE0gbXmSG780DOMLDhkExbWHVUHaLdvGMB
SEM7Inp4KmVb2BFfm3vbIRy89KWtPtYHQdoEH+p47FfzU/1JK14ONAI7Xj5f3GPa
1GgmGmHJJddTFuf7wKUtWTZ76cdCy5sVgf3UD8W3xknARXfqW6zKHqWcwYYb8p7t
ZqDRO7ZvAlRpMA26VQEYwF99su6mvYmE/Og25LvTtJ7ds6aAMhI3MI4KiVTF60sc
hQIr+CZjxCP4WTUYDijPXQdJ2MxgTTv7JyTw1kYPxVsWpZSKaRo0Ys3gMjJVuRZl
UBGLXjaDAgMBAAGjgYkwgYYwHQYDVR0OBBYEFC0HabChb58M+iUFssqXCETfDpeo
MB8GA1UdIwQYMBaAFJ4M4NPftkvzGWNcymyThqIUU5ExMAwGA1UdEwEB/wQCMAAw
DgYDVR0PAQH/BAQDAgOoMBMGA1UdJQQMMAoGCCsGAQUFBwMBMBEGCWCGSAGG+EIB
AQQEAwIGQDBBBgkqhkiG9w0BAQowNKAPMA0GCWCGSAFlAwQCAQUAoRwwGgYJKoZI
hvcNAQEIMA0GCWCGSAFlAwQCAQUAogMCASADggEBACCGBbHb9khH6kijdRLYXJ2Y
+/lwnu6oirDdHzq8JMhJOcRukQPkKFNLjmvlNyDyNMXmceeFiYfxXhCtHm462Hu9
8qXv3sCyspZ8bhmCnuS19Sx/qTEf3Z3jAvZlzWnTHmsadx0iN3Qmb846qEgwWfc3
7y+gHJHyFt2Exq0t6QYHmv9J0lMUabjF4HGqsAcMHtnrBtkZAP1aPqC2MzCL40c7
xDzW4VMc76Rzi5fDU79PXjhb+TO3qOSRMb15yZo5ZhixtxpoFE/uRNZugbx3WiVh
i7Lx4rHVX4EAn8Rm6UjWMWsXO/6KO8w9wUwhIyr0QMitV98Mj+ZH77ghTHLm8pg=
-----END CERTIFICATE-----
