Certificate:
    Data:
        Version: 3 (0x2)
        Serial Number: 1 (0x1)
        Signature Algorithm: rsassaPss        
        Hash Algorithm: sha256
        Mask Algorithm: mgf1 with sha256
         Salt Length: 0x20
        Trailer Field: 0x01 (default)
        Issuer: C=US, ST=Montana, L=Bozeman, O=Sawtooth, OU=Consulting, CN=www.wolfssl.com, emailAddress=info@wolfssl.com
        Validity
            Not Before: Nov 13 20:41:18 2025 GMT
            Not After : Aug  9 20:41:18 2028 GMT
        Subject: C=US, ST=Montana, L=Bozeman, O=wolfSSL_RSAPSS, OU=Server-MIX-RSAPSS, CN=www.wolfssl.com, emailAddress=info@wolfssl.com, UID=wolfSSL
        Subject Public Key Info:
            Public Key Algorithm: rsaEncryption
                Public-Key: (2048 bit)
                Modulus:
                    00:c0:95:08:e1:57:41:f2:71:6d:b7:d2:45:41:27:
                    01:65:c6:45:ae:f2:bc:24:30:b8:95:ce:2f:4e:d6:
                    f6:1c:88:bc:7c:9f:fb:a8:67:7f:fe:5c:9c:51:75:
                    f7:8a:ca:07:e7:35:2f:8f:e1:bd:7b:c0:2f:7c:ab:
                    64:a8:17:fc:ca:5d:7b:ba:e0:21:e5:72:2e:6f:2e:
                    86:d8:95:73:da:ac:1b:53:b9:5f:3f:d7:19:0d:25:
                    4f:e1:63:63:51:8b:0b:64:3f:ad:43:b8:a5:1c:5c:
                    34:b3:ae:00:a0:63:c5:f6:7f:0b:59:68:78:73:a6:
                    8c:18:a9:02:6d:af:c3:19:01:2e:b8:10:e3:c6:cc:
                    40:b4:69:a3:46:33:69:87:6e:c4:bb:17:a6:f3:e8:
                    dd:ad:73:bc:7b:2f:21:b5:fd:66:51:0c:bd:54:b3:
                    e1:6d:5f:1c:bc:23:73:d1:09:03:89:14:d2:10:b9:
                    64:c3:2a:d0:a1:96:4a:bc:e1:d4:1a:5b:c7:a0:c0:
                    c1:63:78:0f:44:37:30:32:96:80:32:23:95:a1:77:
                    ba:13:d2:97:73:e2:5d:25:c9:6a:0d:c3:39:60:a4:
                    b4:b0:69:42:42:09:e9:d8:08:bc:33:20:b3:58:22:
                    a7:aa:eb:c4:e1:e6:61:83:c5:d2:96:df:d9:d0:4f:
                    ad:d7
                Exponent: 65537 (0x10001)
        X509v3 extensions:
            X509v3 Subject Key Identifier: 
                B3:11:32:C9:92:98:84:E2:C9:F8:D0:3B:6E:03:42:CA:1F:0E:8E:3C
            X509v3 Authority Key Identifier: 
                27:8E:67:11:74:C3:26:1D:3F:ED:33:63:B3:A4:D8:1D:30:E5:E8:D5
            X509v3 Basic Constraints: critical
                CA:FALSE
            X509v3 Key Usage: critical
                Digital Signature, Key Encipherment, Key Agreement
            X509v3 Extended Key Usage: 
                TLS Web Server Authentication
            Netscape Cert Type: 
                SSL Server
    Signature Algorithm: rsassaPss
    Signature Value:        
        Hash Algorithm: sha256
        Mask Algorithm: mgf1 with sha256
         Salt Length: 0x20
        Trailer Field: 0x01 (default)
        54:5b:08:21:77:8b:dd:32:fb:ed:d7:db:79:d4:8d:3e:86:ac:
        07:a0:d2:6a:a4:8a:cf:49:7b:7d:8f:b2:23:df:8f:ee:6f:71:
        c6:1e:83:b0:44:72:4d:8a:57:8c:1e:68:46:30:6f:32:59:c2:
        a3:cb:2a:82:1e:d2:4c:ec:d1:08:61:4d:6c:0b:f2:64:27:80:
        aa:d3:4f:9d:82:f6:0b:fd:57:d1:a4:a5:f9:1f:42:3c:96:de:
        ac:9e:d1:8e:09:4c:21:90:ac:1a:8f:f1:48:b6:31:7e:77:fe:
        6f:07:01:a4:8b:04:ba:5b:27:87:f6:23:e9:d5:d4:64:ba:42:
        7d:f0:74:14:ab:66:65:10:c2:b4:ef:28:c3:6e:6a:f6:04:28:
        79:d8:00:c7:2b:71:ba:f4:d5:ab:8e:7b:85:f7:36:47:0e:f3:
        5f:81:ed:54:7f:11:ca:d5:2c:ca:18:41:a9:5d:5e:8d:dc:a7:
        b1:b0:7e:b6:67:33:1c:6c:b4:86:24:92:b5:7b:06:36:3b:c9:
        87:a7:cf:8f:9d:9f:64:e3:cb:03:11:15:da:a7:a0:a8:e8:d2:
        02:0c:b0:7b:bc:ba:0b:41:dd:52:66:79:45:0e:26:01:c6:b6:
        42:ae:c1:6d:a9:88:7c:b7:2e:4a:b9:11:fe:db:de:79:09:7d:
        a6:fc:39:31
-----BEGIN CERTIFICATE-----
MIIEvTCCA3GgAwIBAgIBATBBBgkqhkiG9w0BAQowNKAPMA0GCWCGSAFlAwQCAQUA
oRwwGgYJKoZIhvcNAQEIMA0GCWCGSAFlAwQCAQUAogMCASAwgZQxCzAJBgNVBAYT
AlVTMRAwDgYDVQQIDAdNb250YW5hMRAwDgYDVQQHDAdCb3plbWFuMREwDwYDVQQK
DAhTYXd0b290aDETMBEGA1UECwwKQ29uc3VsdGluZzEYMBYGA1UEAwwPd3d3Lndv
bGZzc2wuY29tMR8wHQYJKoZIhvcNAQkBFhBpbmZvQHdvbGZzc2wuY29tMB4XDTI1
MTExMzIwNDExOFoXDTI4MDgwOTIwNDExOFowgboxCzAJBgNVBAYTAlVTMRAwDgYD
VQQIDAdNb250YW5hMRAwDgYDVQQHDAdCb3plbWFuMRcwFQYDVQQKDA53b2xmU1NM
X1JTQVBTUzEaMBgGA1UECwwRU2VydmVyLU1JWC1SU0FQU1MxGDAWBgNVBAMMD3d3
dy53b2xmc3NsLmNvbTEfMB0GCSqGSIb3DQEJARYQaW5mb0B3b2xmc3NsLmNvbTEX
MBUGCgmSJomT8ixkAQEMB3dvbGZTU0wwggEiMA0GCSqGSIb3DQEBAQUAA4IBDwAw
ggEKAoIBAQDAlQjhV0HycW230kVBJwFlxkWu8rwkMLiVzi9O1vYciLx8n/uoZ3/+
XJxRdfeKygfnNS+P4b17wC98q2SoF/zKXXu64CHlci5vLobYlXParBtTuV8/1xkN
JU/hY2NRiwtkP61DuKUcXDSzrgCgY8X2fwtZaHhzpowYqQJtr8MZAS64EOPGzEC0
aaNGM2mHbsS7F6bz6N2tc7x7LyG1/WZRDL1Us+FtXxy8I3PRCQOJFNIQuWTDKtCh
lkq84dQaW8egwMFjeA9ENzAyloAyI5Whd7oT0pdz4l0lyWoNwzlgpLSwaUJCCenY
CLwzILNYIqeq68Th5mGDxdKW39nQT63XAgMBAAGjgYkwgYYwHQYDVR0OBBYEFLMR
MsmSmITiyfjQO24DQsofDo48MB8GA1UdIwQYMBaAFCeOZxF0wyYdP+0zY7Ok2B0w
5ejVMAwGA1UdEwEB/wQCMAAwDgYDVR0PAQH/BAQDAgOoMBMGA1UdJQQMMAoGCCsG
AQUFBwMBMBEGCWCGSAGG+EIBAQQEAwIGQDBBBgkqhkiG9w0BAQowNKAPMA0GCWCG
SAFlAwQCAQUAoRwwGgYJKoZIhvcNAQEIMA0GCWCGSAFlAwQCAQUAogMCASADggEB
AFRbCCF3i90y++3X23nUjT6GrAeg0mqkis9Je32PsiPfj+5vccYeg7BEck2KV4we
aEYwbzJZwqPLKoIe0kzs0QhhTWwL8mQngKrTT52C9gv9V9GkpfkfQjyW3qye0Y4J
TCGQrBqP8Ui2MX53/m8HAaSLBLpbJ4f2I+nV1GS6Qn3wdBSrZmUQwrTvKMNuavYE
KHnYAMcrcbr01auOe4X3NkcO81+B7VR/EcrVLMoYQaldXo3cp7GwfrZnMxxstIYk
krV7BjY7yYenz4+dn2TjywMRFdqnoKjo0gIMsHu8ugtB3VJmeUUOJgHGtkKuwW2p
iHy3Lkq5Ef7b3nkJfab8OTE=
-----END CERTIFICATE-----
