Certificate:
    Data:
        Version: 3 (0x2)
        Serial Number: 1 (0x1)
        Signature Algorithm: rsassaPss         
         Hash Algorithm: sha256
         Mask Algorithm: mgf1 with sha256
          Salt Length: 0x20
         Trailer Field: 0xBC (default)
        Issuer: C = US, ST = Montana, L = Bozeman, O = wolfSSL_RSAPSS, OU = CA-RSAPSS, CN = www.wolfssl.com, emailAddress = info@wolfssl.com, UID = wolfSSL
        Validity
            Not Before: Jul 25 02:27:55 2022 GMT
            Not After : Apr 20 02:27:55 2025 GMT
        Subject: C = US, ST = Montana, L = Bozeman, O = wolfSSL_RSAPSS, OU = Server-RSAPSS, CN = www.wolfssl.com, emailAddress = info@wolfssl.com, UID = wolfSSL
        Subject Public Key Info:
            Public Key Algorithm: rsassaPss
                RSA-PSS Public-Key: (2048 bit)
                Modulus:
                    00:d7:f7:6c:e1:02:89:cc:9b:74:10:f3:ec:01:cb:
                    89:ce:ef:f6:29:62:fc:75:3f:6a:99:ba:d6:88:ec:
                    ae:b3:20:33:44:d2:06:d7:99:21:bb:f3:40:ce:30:
                    b0:e1:90:4c:5b:58:75:54:1d:a2:dd:bc:63:01:48:
                    43:3b:22:7a:78:2a:65:5b:d8:11:5f:9b:7b:db:21:
                    1c:bc:f4:a5:ad:3e:d6:07:41:da:04:1f:ea:78:ec:
                    57:f3:53:fd:49:2b:5e:0e:34:02:3b:5e:3e:5f:dc:
                    63:da:d4:68:26:1a:61:c9:25:d7:53:16:e7:fb:c0:
                    a5:2d:59:36:7b:e9:c7:42:cb:9b:15:81:fd:d4:0f:
                    c5:b7:c6:49:c0:45:77:ea:5b:ac:ca:1e:a5:9c:c1:
                    86:1b:f2:9e:ed:66:a0:d1:3b:b6:6f:02:54:69:30:
                    0d:ba:55:01:18:c0:5f:7d:b2:ee:a6:bd:89:84:fc:
                    e8:36:e4:bb:d3:b4:9e:dd:b3:a6:80:32:12:37:30:
                    8e:0a:89:54:c5:eb:4b:1c:85:02:2b:f8:26:63:c4:
                    23:f8:59:35:18:0e:28:cf:5d:07:49:d8:cc:60:4d:
                    3b:fb:27:24:f0:d6:46:0f:c5:5b:16:a5:94:8a:69:
                    1a:34:62:cd:e0:32:32:55:b9:16:65:50:11:8b:5e:
                    36:83
                Exponent: 65537 (0x10001)
                PSS parameter restrictions:
                  Hash Algorithm: sha256
                  Mask Algorithm: mgf1 with sha256
                  Minimum Salt Length: 0x20
                  Trailer Field: 0xBC (default)
        X509v3 extensions:
            X509v3 Subject Key Identifier: 
                2D:07:69:B0:A1:6F:9F:0C:FA:25:05:B2:CA:97:08:44:DF:0E:97:A8
            X509v3 Authority Key Identifier: 
                keyid:9E:0C:E0:D3:DF:B6:4B:F3:19:63:5C:CA:6C:93:86:A2:14:53:91:31

            X509v3 Basic Constraints: critical
                CA:FALSE
            X509v3 Key Usage: critical
                Digital Signature, Key Encipherment, Key Agreement
            X509v3 Extended Key Usage: 
                TLS Web Server Authentication
            Netscape Cert Type: 
                SSL Server
    Signature Algorithm: rsassaPss         
         Hash Algorithm: sha256
         Mask Algorithm: mgf1 with sha256
          Salt Length: 0x20
         Trailer Field: 0xBC (default)

         be:97:50:2b:be:31:97:8f:92:ed:52:c6:86:b7:12:3c:08:c2:
         97:40:2d:58:51:1d:4b:c4:66:1f:9b:ca:06:66:14:7d:ba:c6:
         16:7d:18:fb:28:3c:5a:b0:b1:e7:dd:6e:6f:1e:18:74:8c:9b:
         71:b3:4a:94:26:bf:14:00:ab:1c:0b:a0:ae:91:7c:71:9c:25:
         c5:9a:2d:8a:a3:39:2a:3c:fa:e5:66:ea:9a:16:85:4c:5e:f4:
         03:0b:59:1d:13:08:76:22:f0:de:8c:1c:d4:67:01:fc:a4:cd:
         12:1a:73:1d:67:b0:df:7a:53:68:80:04:a9:37:aa:3f:30:ac:
         ee:58:c9:d9:ba:78:00:ff:72:0f:d9:98:62:8e:e6:16:37:fb:
         86:35:b6:20:9e:30:72:39:a6:c8:68:07:83:1c:ad:86:fb:1a:
         67:39:18:2a:99:1f:1f:36:94:72:a2:af:a5:fc:ca:1d:16:cf:
         55:b5:86:30:dc:fd:8b:d1:db:38:28:20:fc:64:4b:71:d4:91:
         0a:dc:b9:00:f7:9c:af:99:e4:b6:2b:b7:f3:76:81:92:8b:0f:
         f7:4a:7a:15:2f:48:5c:a4:59:57:55:ab:9e:9e:fc:81:b4:64:
         4b:8e:37:b7:00:c9:54:a5:ea:f6:b9:9c:2b:60:12:7d:f5:29:
         41:07:5a:a3
-----BEGIN CERTIFICATE-----
MIIE/zCCA7egAwIBAgIBATA9BgkqhkiG9w0BAQowMKANMAsGCWCGSAFlAwQCAaEa
MBgGCSqGSIb3DQEBCDALBglghkgBZQMEAgGiAwIBIDCBsjELMAkGA1UEBhMCVVMx
EDAOBgNVBAgMB01vbnRhbmExEDAOBgNVBAcMB0JvemVtYW4xFzAVBgNVBAoMDndv
bGZTU0xfUlNBUFNTMRIwEAYDVQQLDAlDQS1SU0FQU1MxGDAWBgNVBAMMD3d3dy53
b2xmc3NsLmNvbTEfMB0GCSqGSIb3DQEJARYQaW5mb0B3b2xmc3NsLmNvbTEXMBUG
CgmSJomT8ixkAQEMB3dvbGZTU0wwHhcNMjIwNzI1MDIyNzU1WhcNMjUwNDIwMDIy
NzU1WjCBtjELMAkGA1UEBhMCVVMxEDAOBgNVBAgMB01vbnRhbmExEDAOBgNVBAcM
B0JvemVtYW4xFzAVBgNVBAoMDndvbGZTU0xfUlNBUFNTMRYwFAYDVQQLDA1TZXJ2
ZXItUlNBUFNTMRgwFgYDVQQDDA93d3cud29sZnNzbC5jb20xHzAdBgkqhkiG9w0B
CQEWEGluZm9Ad29sZnNzbC5jb20xFzAVBgoJkiaJk/IsZAEBDAd3b2xmU1NMMIIB
UjA9BgkqhkiG9w0BAQowMKANMAsGCWCGSAFlAwQCAaEaMBgGCSqGSIb3DQEBCDAL
BglghkgBZQMEAgGiAwIBIAOCAQ8AMIIBCgKCAQEA1/ds4QKJzJt0EPPsAcuJzu/2
KWL8dT9qmbrWiOyusyAzRNIG15khu/NAzjCw4ZBMW1h1VB2i3bxjAUhDOyJ6eCpl
W9gRX5t72yEcvPSlrT7WB0HaBB/qeOxX81P9SSteDjQCO14+X9xj2tRoJhphySXX
Uxbn+8ClLVk2e+nHQsubFYH91A/Ft8ZJwEV36lusyh6lnMGGG/Ke7Wag0Tu2bwJU
aTANulUBGMBffbLupr2JhPzoNuS707Se3bOmgDISNzCOColUxetLHIUCK/gmY8Qj
+Fk1GA4oz10HSdjMYE07+yck8NZGD8VbFqWUimkaNGLN4DIyVbkWZVARi142gwID
AQABo4GJMIGGMB0GA1UdDgQWBBQtB2mwoW+fDPolBbLKlwhE3w6XqDAfBgNVHSME
GDAWgBSeDODT37ZL8xljXMpsk4aiFFORMTAMBgNVHRMBAf8EAjAAMA4GA1UdDwEB
/wQEAwIDqDATBgNVHSUEDDAKBggrBgEFBQcDATARBglghkgBhvhCAQEEBAMCBkAw
PQYJKoZIhvcNAQEKMDCgDTALBglghkgBZQMEAgGhGjAYBgkqhkiG9w0BAQgwCwYJ
YIZIAWUDBAIBogMCASADggEBAL6XUCu+MZePku1Sxoa3EjwIwpdALVhRHUvEZh+b
ygZmFH26xhZ9GPsoPFqwsefdbm8eGHSMm3GzSpQmvxQAqxwLoK6RfHGcJcWaLYqj
OSo8+uVm6poWhUxe9AMLWR0TCHYi8N6MHNRnAfykzRIacx1nsN96U2iABKk3qj8w
rO5Yydm6eAD/cg/ZmGKO5hY3+4Y1tiCeMHI5pshoB4McrYb7Gmc5GCqZHx82lHKi
r6X8yh0Wz1W1hjDc/YvR2zgoIPxkS3HUkQrcuQD3nK+Z5LYrt/N2gZKLD/dKehUv
SFykWVdVq56e/IG0ZEuON7cAyVSl6va5nCtgEn31KUEHWqM=
-----END CERTIFICATE-----
