Certificate:
    Data:
        Version: 3 (0x2)
        Serial Number: 1 (0x1)
        Signature Algorithm: rsassaPss        
        Hash Algorithm: sha256
        Mask Algorithm: mgf1 with sha256
         Salt Length: 0x20
        Trailer Field: 0x01 (default)
        Issuer: C = US, ST = Montana, L = Bozeman, O = wolfSSL_RSAPSS, OU = CA-RSAPSS, CN = www.wolfssl.com, emailAddress = info@wolfssl.com, UID = wolfSSL
        Validity
            Not Before: Dec 18 21:25:30 2024 GMT
            Not After : Sep 14 21:25:30 2027 GMT
        Subject: C = US, ST = Montana, L = Bozeman, O = wolfSSL_RSAPSS, OU = Server-RSAPSS, CN = www.wolfssl.com, emailAddress = info@wolfssl.com, UID = wolfSSL
        Subject Public Key Info:
            Public Key Algorithm: rsassaPss
                Public-Key: (2048 bit)
                Modulus:
                    00:d7:f7:6c:e1:02:89:cc:9b:74:10:f3:ec:01:cb:
                    89:ce:ef:f6:29:62:fc:75:3f:6a:99:ba:d6:88:ec:
                    ae:b3:20:33:44:d2:06:d7:99:21:bb:f3:40:ce:30:
                    b0:e1:90:4c:5b:58:75:54:1d:a2:dd:bc:63:01:48:
                    43:3b:22:7a:78:2a:65:5b:d8:11:5f:9b:7b:db:21:
                    1c:bc:f4:a5:ad:3e:d6:07:41:da:04:1f:ea:78:ec:
                    57:f3:53:fd:49:2b:5e:0e:34:02:3b:5e:3e:5f:dc:
                    63:da:d4:68:26:1a:61:c9:25:d7:53:16:e7:fb:c0:
                    a5:2d:59:36:7b:e9:c7:42:cb:9b:15:81:fd:d4:0f:
                    c5:b7:c6:49:c0:45:77:ea:5b:ac:ca:1e:a5:9c:c1:
                    86:1b:f2:9e:ed:66:a0:d1:3b:b6:6f:02:54:69:30:
                    0d:ba:55:01:18:c0:5f:7d:b2:ee:a6:bd:89:84:fc:
                    e8:36:e4:bb:d3:b4:9e:dd:b3:a6:80:32:12:37:30:
                    8e:0a:89:54:c5:eb:4b:1c:85:02:2b:f8:26:63:c4:
                    23:f8:59:35:18:0e:28:cf:5d:07:49:d8:cc:60:4d:
                    3b:fb:27:24:f0:d6:46:0f:c5:5b:16:a5:94:8a:69:
                    1a:34:62:cd:e0:32:32:55:b9:16:65:50:11:8b:5e:
                    36:83
                Exponent: 65537 (0x10001)
                PSS parameter restrictions:
                  Hash Algorithm: SHA2-256
                  Mask Algorithm: MGF1 with SHA2-256
                  Minimum Salt Length: 32
                  Trailer Field: 0x1 (default)
        X509v3 extensions:
            X509v3 Subject Key Identifier: 
                2D:07:69:B0:A1:6F:9F:0C:FA:25:05:B2:CA:97:08:44:DF:0E:97:A8
            X509v3 Authority Key Identifier: 
                9E:0C:E0:D3:DF:B6:4B:F3:19:63:5C:CA:6C:93:86:A2:14:53:91:31
            X509v3 Basic Constraints: critical
                CA:FALSE
            X509v3 Key Usage: critical
                Digital Signature, Key Encipherment, Key Agreement
            X509v3 Extended Key Usage: 
                TLS Web Server Authentication
            Netscape Cert Type: 
                SSL Server
    Signature Algorithm: rsassaPss
    Signature Value:        
        Hash Algorithm: sha256
        Mask Algorithm: mgf1 with sha256
         Salt Length: 0x20
        Trailer Field: 0x01 (default)
        c0:99:45:55:6f:8f:18:b8:48:c3:72:57:5a:af:06:55:a4:44:
        de:d1:01:2c:43:c8:1b:96:e2:d5:f4:91:4c:1c:a2:45:9f:69:
        4a:27:3c:cb:0b:c7:02:29:3e:53:b7:0f:81:6c:38:e8:b0:54:
        d1:25:eb:73:88:31:36:01:46:5b:94:f7:75:bc:57:a9:f9:ea:
        c7:de:88:d4:97:f9:de:11:53:75:40:0f:5b:bd:b0:9b:94:2a:
        c2:a9:aa:19:2e:f0:1b:1d:1e:96:4f:ac:33:5a:c9:44:af:46:
        8b:33:6e:83:79:00:1f:2c:09:bc:59:67:c2:6c:25:d4:24:fe:
        5f:89:41:9b:b1:35:0a:4b:b9:8c:80:81:d8:a8:1c:95:e0:59:
        53:2c:18:53:83:a8:3c:9a:28:24:82:3b:f8:75:2b:07:0e:cb:
        69:3a:53:89:eb:48:54:8e:08:b9:a1:4d:ad:36:ba:d4:6c:7c:
        7f:87:c6:86:86:6e:fc:73:3f:33:0d:9f:c0:ee:83:60:08:cf:
        5e:e7:31:08:ed:eb:c9:69:84:fa:34:64:7f:7d:1c:f7:39:6d:
        cf:32:e8:f9:06:ed:2f:7b:31:16:f5:51:7d:ad:09:7e:bf:e9:
        f6:ba:ae:83:a7:0c:60:30:ca:4d:38:3b:50:f6:81:d1:1a:49:
        98:73:68:98
-----BEGIN CERTIFICATE-----
MIIFCzCCA7+gAwIBAgIBATBBBgkqhkiG9w0BAQowNKAPMA0GCWCGSAFlAwQCAQUA
oRwwGgYJKoZIhvcNAQEIMA0GCWCGSAFlAwQCAQUAogMCASAwgbIxCzAJBgNVBAYT
AlVTMRAwDgYDVQQIDAdNb250YW5hMRAwDgYDVQQHDAdCb3plbWFuMRcwFQYDVQQK
DA53b2xmU1NMX1JTQVBTUzESMBAGA1UECwwJQ0EtUlNBUFNTMRgwFgYDVQQDDA93
d3cud29sZnNzbC5jb20xHzAdBgkqhkiG9w0BCQEWEGluZm9Ad29sZnNzbC5jb20x
FzAVBgoJkiaJk/IsZAEBDAd3b2xmU1NMMB4XDTI0MTIxODIxMjUzMFoXDTI3MDkx
NDIxMjUzMFowgbYxCzAJBgNVBAYTAlVTMRAwDgYDVQQIDAdNb250YW5hMRAwDgYD
VQQHDAdCb3plbWFuMRcwFQYDVQQKDA53b2xmU1NMX1JTQVBTUzEWMBQGA1UECwwN
U2VydmVyLVJTQVBTUzEYMBYGA1UEAwwPd3d3LndvbGZzc2wuY29tMR8wHQYJKoZI
hvcNAQkBFhBpbmZvQHdvbGZzc2wuY29tMRcwFQYKCZImiZPyLGQBAQwHd29sZlNT
TDCCAVYwQQYJKoZIhvcNAQEKMDSgDzANBglghkgBZQMEAgEFAKEcMBoGCSqGSIb3
DQEBCDANBglghkgBZQMEAgEFAKIDAgEgA4IBDwAwggEKAoIBAQDX92zhAonMm3QQ
8+wBy4nO7/YpYvx1P2qZutaI7K6zIDNE0gbXmSG780DOMLDhkExbWHVUHaLdvGMB
SEM7Inp4KmVb2BFfm3vbIRy89KWtPtYHQdoEH+p47FfzU/1JK14ONAI7Xj5f3GPa
1GgmGmHJJddTFuf7wKUtWTZ76cdCy5sVgf3UD8W3xknARXfqW6zKHqWcwYYb8p7t
ZqDRO7ZvAlRpMA26VQEYwF99su6mvYmE/Og25LvTtJ7ds6aAMhI3MI4KiVTF60sc
hQIr+CZjxCP4WTUYDijPXQdJ2MxgTTv7JyTw1kYPxVsWpZSKaRo0Ys3gMjJVuRZl
UBGLXjaDAgMBAAGjgYkwgYYwHQYDVR0OBBYEFC0HabChb58M+iUFssqXCETfDpeo
MB8GA1UdIwQYMBaAFJ4M4NPftkvzGWNcymyThqIUU5ExMAwGA1UdEwEB/wQCMAAw
DgYDVR0PAQH/BAQDAgOoMBMGA1UdJQQMMAoGCCsGAQUFBwMBMBEGCWCGSAGG+EIB
AQQEAwIGQDBBBgkqhkiG9w0BAQowNKAPMA0GCWCGSAFlAwQCAQUAoRwwGgYJKoZI
hvcNAQEIMA0GCWCGSAFlAwQCAQUAogMCASADggEBAMCZRVVvjxi4SMNyV1qvBlWk
RN7RASxDyBuW4tX0kUwcokWfaUonPMsLxwIpPlO3D4FsOOiwVNEl63OIMTYBRluU
93W8V6n56sfeiNSX+d4RU3VAD1u9sJuUKsKpqhku8BsdHpZPrDNayUSvRoszboN5
AB8sCbxZZ8JsJdQk/l+JQZuxNQpLuYyAgdioHJXgWVMsGFODqDyaKCSCO/h1KwcO
y2k6U4nrSFSOCLmhTa02utRsfH+HxoaGbvxzPzMNn8Dug2AIz17nMQjt68lphPo0
ZH99HPc5bc8y6PkG7S97MRb1UX2tCX6/6fa6roOnDGAwyk04O1D2gdEaSZhzaJg=
-----END CERTIFICATE-----
