Certificate:
    Data:
        Version: 3 (0x2)
        Serial Number: 1 (0x1)
        Signature Algorithm: rsassaPss        
        Hash Algorithm: sha256
        Mask Algorithm: mgf1 with sha256
         Salt Length: 0x20
        Trailer Field: 0x01 (default)
        Issuer: C=US, ST=Montana, L=Bozeman, O=wolfSSL_RSAPSS, OU=CA-RSAPSS, CN=www.wolfssl.com, emailAddress=facts@wolfssl.com, UID=wolfSSL
        Validity
            Not Before: Jun 11 21:44:30 2026 GMT
            Not After : Mar  7 21:44:30 2029 GMT
        Subject: C=US, ST=Montana, L=Bozeman, O=wolfSSL_RSAPSS, OU=Server-RSAPSS, CN=www.wolfssl.com, emailAddress=facts@wolfssl.com, UID=wolfSSL
        Subject Public Key Info:
            Public Key Algorithm: rsassaPss
                Public-Key: (2048 bit)
                Modulus:
                    00:d7:f7:6c:e1:02:89:cc:9b:74:10:f3:ec:01:cb:
                    89:ce:ef:f6:29:62:fc:75:3f:6a:99:ba:d6:88:ec:
                    ae:b3:20:33:44:d2:06:d7:99:21:bb:f3:40:ce:30:
                    b0:e1:90:4c:5b:58:75:54:1d:a2:dd:bc:63:01:48:
                    43:3b:22:7a:78:2a:65:5b:d8:11:5f:9b:7b:db:21:
                    1c:bc:f4:a5:ad:3e:d6:07:41:da:04:1f:ea:78:ec:
                    57:f3:53:fd:49:2b:5e:0e:34:02:3b:5e:3e:5f:dc:
                    63:da:d4:68:26:1a:61:c9:25:d7:53:16:e7:fb:c0:
                    a5:2d:59:36:7b:e9:c7:42:cb:9b:15:81:fd:d4:0f:
                    c5:b7:c6:49:c0:45:77:ea:5b:ac:ca:1e:a5:9c:c1:
                    86:1b:f2:9e:ed:66:a0:d1:3b:b6:6f:02:54:69:30:
                    0d:ba:55:01:18:c0:5f:7d:b2:ee:a6:bd:89:84:fc:
                    e8:36:e4:bb:d3:b4:9e:dd:b3:a6:80:32:12:37:30:
                    8e:0a:89:54:c5:eb:4b:1c:85:02:2b:f8:26:63:c4:
                    23:f8:59:35:18:0e:28:cf:5d:07:49:d8:cc:60:4d:
                    3b:fb:27:24:f0:d6:46:0f:c5:5b:16:a5:94:8a:69:
                    1a:34:62:cd:e0:32:32:55:b9:16:65:50:11:8b:5e:
                    36:83
                Exponent: 65537 (0x10001)
                PSS parameter restrictions:
                  Hash Algorithm: SHA2-256
                  Mask Algorithm: MGF1 with SHA2-256
                  Minimum Salt Length: 32
                  Trailer Field: 0x1 (default)
        X509v3 extensions:
            X509v3 Subject Key Identifier: 
                2D:07:69:B0:A1:6F:9F:0C:FA:25:05:B2:CA:97:08:44:DF:0E:97:A8
            X509v3 Authority Key Identifier: 
                9E:0C:E0:D3:DF:B6:4B:F3:19:63:5C:CA:6C:93:86:A2:14:53:91:31
            X509v3 Basic Constraints: critical
                CA:FALSE
            X509v3 Key Usage: critical
                Digital Signature, Key Encipherment, Key Agreement
            X509v3 Extended Key Usage: 
                TLS Web Server Authentication
            Netscape Cert Type: 
                SSL Server
    Signature Algorithm: rsassaPss
    Signature Value:        
        Hash Algorithm: sha256
        Mask Algorithm: mgf1 with sha256
         Salt Length: 0x20
        Trailer Field: 0x01 (default)
        58:88:29:d7:8e:95:f8:21:a0:89:63:25:31:22:3b:c0:ba:d0:
        e6:7a:c1:fa:c4:f4:42:83:85:6d:27:a7:a8:bb:1f:25:14:3e:
        fa:45:54:51:0d:3a:ab:5f:32:e0:19:28:6d:40:3f:a1:3e:bd:
        93:56:83:c2:6a:32:43:8e:b7:98:69:33:59:26:e5:ac:b4:bd:
        6b:01:6f:ec:fd:66:ef:73:96:c5:7a:b6:d1:1b:5a:37:04:86:
        a9:ba:da:d3:43:ba:51:a2:0a:23:22:af:90:e4:61:8c:c0:31:
        9a:8f:c2:0d:19:45:b4:4c:00:26:16:1f:98:14:16:3d:5c:34:
        d5:e2:e4:a8:03:1f:13:a0:91:27:07:9b:ec:b5:4d:af:25:a5:
        bb:8e:be:9e:b4:62:9d:5a:fa:3f:d7:65:3d:0c:e6:82:3a:05:
        46:36:c8:4e:5b:4b:9c:25:c8:a0:a5:fd:0f:09:46:76:8c:3b:
        60:f8:0b:b1:91:c4:67:94:3e:ec:03:5f:3a:53:f7:ae:3e:c6:
        a8:c0:a5:81:9b:35:c8:aa:21:06:10:31:e2:98:0c:0b:ee:27:
        70:d0:c5:eb:3b:2c:d1:27:73:d2:c8:f6:7a:3a:d9:36:b0:c7:
        bc:5b:75:12:3b:6b:0a:7b:61:a4:63:d9:e7:37:5b:a8:60:37:
        4f:a7:96:14
-----BEGIN CERTIFICATE-----
MIIFDTCCA8GgAwIBAgIBATBBBgkqhkiG9w0BAQowNKAPMA0GCWCGSAFlAwQCAQUA
oRwwGgYJKoZIhvcNAQEIMA0GCWCGSAFlAwQCAQUAogMCASAwgbMxCzAJBgNVBAYT
AlVTMRAwDgYDVQQIDAdNb250YW5hMRAwDgYDVQQHDAdCb3plbWFuMRcwFQYDVQQK
DA53b2xmU1NMX1JTQVBTUzESMBAGA1UECwwJQ0EtUlNBUFNTMRgwFgYDVQQDDA93
d3cud29sZnNzbC5jb20xIDAeBgkqhkiG9w0BCQEWEWZhY3RzQHdvbGZzc2wuY29t
MRcwFQYKCZImiZPyLGQBAQwHd29sZlNTTDAeFw0yNjA2MTEyMTQ0MzBaFw0yOTAz
MDcyMTQ0MzBaMIG3MQswCQYDVQQGEwJVUzEQMA4GA1UECAwHTW9udGFuYTEQMA4G
A1UEBwwHQm96ZW1hbjEXMBUGA1UECgwOd29sZlNTTF9SU0FQU1MxFjAUBgNVBAsM
DVNlcnZlci1SU0FQU1MxGDAWBgNVBAMMD3d3dy53b2xmc3NsLmNvbTEgMB4GCSqG
SIb3DQEJARYRZmFjdHNAd29sZnNzbC5jb20xFzAVBgoJkiaJk/IsZAEBDAd3b2xm
U1NMMIIBVjBBBgkqhkiG9w0BAQowNKAPMA0GCWCGSAFlAwQCAQUAoRwwGgYJKoZI
hvcNAQEIMA0GCWCGSAFlAwQCAQUAogMCASADggEPADCCAQoCggEBANf3bOECicyb
dBDz7AHLic7v9ili/HU/apm61ojsrrMgM0TSBteZIbvzQM4wsOGQTFtYdVQdot28
YwFIQzsiengqZVvYEV+be9shHLz0pa0+1gdB2gQf6njsV/NT/UkrXg40AjtePl/c
Y9rUaCYaYckl11MW5/vApS1ZNnvpx0LLmxWB/dQPxbfGScBFd+pbrMoepZzBhhvy
nu1moNE7tm8CVGkwDbpVARjAX32y7qa9iYT86Dbku9O0nt2zpoAyEjcwjgqJVMXr
SxyFAiv4JmPEI/hZNRgOKM9dB0nYzGBNO/snJPDWRg/FWxallIppGjRizeAyMlW5
FmVQEYteNoMCAwEAAaOBiTCBhjAdBgNVHQ4EFgQULQdpsKFvnwz6JQWyypcIRN8O
l6gwHwYDVR0jBBgwFoAUngzg09+2S/MZY1zKbJOGohRTkTEwDAYDVR0TAQH/BAIw
ADAOBgNVHQ8BAf8EBAMCA6gwEwYDVR0lBAwwCgYIKwYBBQUHAwEwEQYJYIZIAYb4
QgEBBAQDAgZAMEEGCSqGSIb3DQEBCjA0oA8wDQYJYIZIAWUDBAIBBQChHDAaBgkq
hkiG9w0BAQgwDQYJYIZIAWUDBAIBBQCiAwIBIAOCAQEAWIgp146V+CGgiWMlMSI7
wLrQ5nrB+sT0QoOFbSenqLsfJRQ++kVUUQ06q18y4BkobUA/oT69k1aDwmoyQ463
mGkzWSblrLS9awFv7P1m73OWxXq20RtaNwSGqbra00O6UaIKIyKvkORhjMAxmo/C
DRlFtEwAJhYfmBQWPVw01eLkqAMfE6CRJweb7LVNryWlu46+nrRinVr6P9dlPQzm
gjoFRjbITltLnCXIoKX9DwlGdow7YPgLsZHEZ5Q+7ANfOlP3rj7GqMClgZs1yKoh
BhAx4pgMC+4ncNDF6zss0Sdz0sj2ejrZNrDHvFt1EjtrCnthpGPZ5zdbqGA3T6eW
FA==
-----END CERTIFICATE-----
