Certificate:
    Data:
        Version: 3 (0x2)
        Serial Number: 1 (0x1)
        Signature Algorithm: rsassaPss        
        Hash Algorithm: sha256
        Mask Algorithm: mgf1 with sha256
         Salt Length: 0x20
        Trailer Field: 0x01 (default)
        Issuer: C=US, ST=Montana, L=Bozeman, O=Sawtooth, OU=Consulting, CN=www.wolfssl.com, emailAddress=facts@wolfssl.com
        Validity
            Not Before: Jun 11 21:44:30 2026 GMT
            Not After : Mar  7 21:44:30 2029 GMT
        Subject: C=US, ST=Montana, L=Bozeman, O=wolfSSL_RSAPSS, OU=Server-MIX-RSAPSS, CN=www.wolfssl.com, emailAddress=facts@wolfssl.com, UID=wolfSSL
        Subject Public Key Info:
            Public Key Algorithm: rsaEncryption
                Public-Key: (2048 bit)
                Modulus:
                    00:c0:95:08:e1:57:41:f2:71:6d:b7:d2:45:41:27:
                    01:65:c6:45:ae:f2:bc:24:30:b8:95:ce:2f:4e:d6:
                    f6:1c:88:bc:7c:9f:fb:a8:67:7f:fe:5c:9c:51:75:
                    f7:8a:ca:07:e7:35:2f:8f:e1:bd:7b:c0:2f:7c:ab:
                    64:a8:17:fc:ca:5d:7b:ba:e0:21:e5:72:2e:6f:2e:
                    86:d8:95:73:da:ac:1b:53:b9:5f:3f:d7:19:0d:25:
                    4f:e1:63:63:51:8b:0b:64:3f:ad:43:b8:a5:1c:5c:
                    34:b3:ae:00:a0:63:c5:f6:7f:0b:59:68:78:73:a6:
                    8c:18:a9:02:6d:af:c3:19:01:2e:b8:10:e3:c6:cc:
                    40:b4:69:a3:46:33:69:87:6e:c4:bb:17:a6:f3:e8:
                    dd:ad:73:bc:7b:2f:21:b5:fd:66:51:0c:bd:54:b3:
                    e1:6d:5f:1c:bc:23:73:d1:09:03:89:14:d2:10:b9:
                    64:c3:2a:d0:a1:96:4a:bc:e1:d4:1a:5b:c7:a0:c0:
                    c1:63:78:0f:44:37:30:32:96:80:32:23:95:a1:77:
                    ba:13:d2:97:73:e2:5d:25:c9:6a:0d:c3:39:60:a4:
                    b4:b0:69:42:42:09:e9:d8:08:bc:33:20:b3:58:22:
                    a7:aa:eb:c4:e1:e6:61:83:c5:d2:96:df:d9:d0:4f:
                    ad:d7
                Exponent: 65537 (0x10001)
        X509v3 extensions:
            X509v3 Subject Key Identifier: 
                B3:11:32:C9:92:98:84:E2:C9:F8:D0:3B:6E:03:42:CA:1F:0E:8E:3C
            X509v3 Authority Key Identifier: 
                27:8E:67:11:74:C3:26:1D:3F:ED:33:63:B3:A4:D8:1D:30:E5:E8:D5
            X509v3 Basic Constraints: critical
                CA:FALSE
            X509v3 Key Usage: critical
                Digital Signature, Key Encipherment, Key Agreement
            X509v3 Extended Key Usage: 
                TLS Web Server Authentication
            Netscape Cert Type: 
                SSL Server
    Signature Algorithm: rsassaPss
    Signature Value:        
        Hash Algorithm: sha256
        Mask Algorithm: mgf1 with sha256
         Salt Length: 0x20
        Trailer Field: 0x01 (default)
        a0:f5:e9:28:55:f5:01:c0:db:4b:7a:af:79:eb:e3:f2:a5:ab:
        92:75:85:40:23:77:56:5e:41:4b:78:74:c3:57:14:e3:06:b3:
        2d:2c:bb:bb:9d:ff:74:18:44:12:5e:07:50:1e:81:fa:66:7c:
        af:ee:7d:0c:ec:fe:e7:76:32:58:bb:2a:fc:ae:ff:9e:b7:c4:
        cf:a1:8c:17:b1:19:67:e2:88:b9:6d:55:b8:bb:09:75:de:76:
        ab:95:7f:77:73:0a:11:51:b0:40:95:1c:9a:4d:c0:33:39:c5:
        bb:9e:b4:4e:c6:e6:50:13:9c:cc:65:02:08:4a:ef:30:99:60:
        da:33:c9:cc:4d:d8:1a:74:f1:51:f4:70:56:09:3d:06:d2:18:
        dc:28:71:ec:bd:09:6f:68:2c:5f:40:6d:82:27:97:35:83:53:
        3b:d6:ba:56:fd:2d:2c:ab:e2:af:a3:d4:c7:5d:63:1b:eb:d0:
        85:89:0d:f9:c5:15:ba:d9:19:88:7e:f5:5c:a2:2f:54:c7:87:
        41:9e:9b:50:d1:2f:6d:16:a8:ba:7c:77:4f:4c:cc:82:e0:4a:
        0c:71:cf:6b:31:07:0b:d5:96:c1:c2:9d:0b:5a:ad:a1:36:0d:
        f6:03:b9:79:da:f3:c5:9c:1f:2a:41:d8:fb:77:77:0e:ef:6b:
        1f:ba:74:b1
-----BEGIN CERTIFICATE-----
MIIEvzCCA3OgAwIBAgIBATBBBgkqhkiG9w0BAQowNKAPMA0GCWCGSAFlAwQCAQUA
oRwwGgYJKoZIhvcNAQEIMA0GCWCGSAFlAwQCAQUAogMCASAwgZUxCzAJBgNVBAYT
AlVTMRAwDgYDVQQIDAdNb250YW5hMRAwDgYDVQQHDAdCb3plbWFuMREwDwYDVQQK
DAhTYXd0b290aDETMBEGA1UECwwKQ29uc3VsdGluZzEYMBYGA1UEAwwPd3d3Lndv
bGZzc2wuY29tMSAwHgYJKoZIhvcNAQkBFhFmYWN0c0B3b2xmc3NsLmNvbTAeFw0y
NjA2MTEyMTQ0MzBaFw0yOTAzMDcyMTQ0MzBaMIG7MQswCQYDVQQGEwJVUzEQMA4G
A1UECAwHTW9udGFuYTEQMA4GA1UEBwwHQm96ZW1hbjEXMBUGA1UECgwOd29sZlNT
TF9SU0FQU1MxGjAYBgNVBAsMEVNlcnZlci1NSVgtUlNBUFNTMRgwFgYDVQQDDA93
d3cud29sZnNzbC5jb20xIDAeBgkqhkiG9w0BCQEWEWZhY3RzQHdvbGZzc2wuY29t
MRcwFQYKCZImiZPyLGQBAQwHd29sZlNTTDCCASIwDQYJKoZIhvcNAQEBBQADggEP
ADCCAQoCggEBAMCVCOFXQfJxbbfSRUEnAWXGRa7yvCQwuJXOL07W9hyIvHyf+6hn
f/5cnFF194rKB+c1L4/hvXvAL3yrZKgX/Mpde7rgIeVyLm8uhtiVc9qsG1O5Xz/X
GQ0lT+FjY1GLC2Q/rUO4pRxcNLOuAKBjxfZ/C1loeHOmjBipAm2vwxkBLrgQ48bM
QLRpo0YzaYduxLsXpvPo3a1zvHsvIbX9ZlEMvVSz4W1fHLwjc9EJA4kU0hC5ZMMq
0KGWSrzh1Bpbx6DAwWN4D0Q3MDKWgDIjlaF3uhPSl3PiXSXJag3DOWCktLBpQkIJ
6dgIvDMgs1gip6rrxOHmYYPF0pbf2dBPrdcCAwEAAaOBiTCBhjAdBgNVHQ4EFgQU
sxEyyZKYhOLJ+NA7bgNCyh8OjjwwHwYDVR0jBBgwFoAUJ45nEXTDJh0/7TNjs6TY
HTDl6NUwDAYDVR0TAQH/BAIwADAOBgNVHQ8BAf8EBAMCA6gwEwYDVR0lBAwwCgYI
KwYBBQUHAwEwEQYJYIZIAYb4QgEBBAQDAgZAMEEGCSqGSIb3DQEBCjA0oA8wDQYJ
YIZIAWUDBAIBBQChHDAaBgkqhkiG9w0BAQgwDQYJYIZIAWUDBAIBBQCiAwIBIAOC
AQEAoPXpKFX1AcDbS3qveevj8qWrknWFQCN3Vl5BS3h0w1cU4wazLSy7u53/dBhE
El4HUB6B+mZ8r+59DOz+53YyWLsq/K7/nrfEz6GMF7EZZ+KIuW1VuLsJdd52q5V/
d3MKEVGwQJUcmk3AMznFu560TsbmUBOczGUCCErvMJlg2jPJzE3YGnTxUfRwVgk9
BtIY3Chx7L0Jb2gsX0BtgieXNYNTO9a6Vv0tLKvir6PUx11jG+vQhYkN+cUVutkZ
iH71XKIvVMeHQZ6bUNEvbRaounx3T0zMguBKDHHPazEHC9WWwcKdC1qtoTYN9gO5
edrzxZwfKkHY+3d3Du9rH7p0sQ==
-----END CERTIFICATE-----
