Certificate:
    Data:
        Version: 3 (0x2)
        Serial Number: 1 (0x1)
        Signature Algorithm: rsassaPss        
        Hash Algorithm: sha256
        Mask Algorithm: mgf1 with sha256
         Salt Length: 0xDE
        Trailer Field: 0x01 (default)
        Issuer: C = US, ST = Montana, L = Bozeman, O = Sawtooth, OU = Consulting, CN = www.wolfssl.com, emailAddress = info@wolfssl.com
        Validity
            Not Before: Dec 18 21:25:30 2024 GMT
            Not After : Sep 14 21:25:30 2027 GMT
        Subject: C = US, ST = Montana, L = Bozeman, O = wolfSSL_RSAPSS, OU = Server-MIX-RSAPSS, CN = www.wolfssl.com, emailAddress = info@wolfssl.com, UID = wolfSSL
        Subject Public Key Info:
            Public Key Algorithm: rsaEncryption
                Public-Key: (2048 bit)
                Modulus:
                    00:c0:95:08:e1:57:41:f2:71:6d:b7:d2:45:41:27:
                    01:65:c6:45:ae:f2:bc:24:30:b8:95:ce:2f:4e:d6:
                    f6:1c:88:bc:7c:9f:fb:a8:67:7f:fe:5c:9c:51:75:
                    f7:8a:ca:07:e7:35:2f:8f:e1:bd:7b:c0:2f:7c:ab:
                    64:a8:17:fc:ca:5d:7b:ba:e0:21:e5:72:2e:6f:2e:
                    86:d8:95:73:da:ac:1b:53:b9:5f:3f:d7:19:0d:25:
                    4f:e1:63:63:51:8b:0b:64:3f:ad:43:b8:a5:1c:5c:
                    34:b3:ae:00:a0:63:c5:f6:7f:0b:59:68:78:73:a6:
                    8c:18:a9:02:6d:af:c3:19:01:2e:b8:10:e3:c6:cc:
                    40:b4:69:a3:46:33:69:87:6e:c4:bb:17:a6:f3:e8:
                    dd:ad:73:bc:7b:2f:21:b5:fd:66:51:0c:bd:54:b3:
                    e1:6d:5f:1c:bc:23:73:d1:09:03:89:14:d2:10:b9:
                    64:c3:2a:d0:a1:96:4a:bc:e1:d4:1a:5b:c7:a0:c0:
                    c1:63:78:0f:44:37:30:32:96:80:32:23:95:a1:77:
                    ba:13:d2:97:73:e2:5d:25:c9:6a:0d:c3:39:60:a4:
                    b4:b0:69:42:42:09:e9:d8:08:bc:33:20:b3:58:22:
                    a7:aa:eb:c4:e1:e6:61:83:c5:d2:96:df:d9:d0:4f:
                    ad:d7
                Exponent: 65537 (0x10001)
        X509v3 extensions:
            X509v3 Subject Key Identifier: 
                B3:11:32:C9:92:98:84:E2:C9:F8:D0:3B:6E:03:42:CA:1F:0E:8E:3C
            X509v3 Authority Key Identifier: 
                27:8E:67:11:74:C3:26:1D:3F:ED:33:63:B3:A4:D8:1D:30:E5:E8:D5
            X509v3 Basic Constraints: critical
                CA:FALSE
            X509v3 Key Usage: critical
                Digital Signature, Key Encipherment, Key Agreement
            X509v3 Extended Key Usage: 
                TLS Web Server Authentication
            Netscape Cert Type: 
                SSL Server
    Signature Algorithm: rsassaPss
    Signature Value:        
        Hash Algorithm: sha256
        Mask Algorithm: mgf1 with sha256
         Salt Length: 0xDE
        Trailer Field: 0x01 (default)
        49:c6:44:a2:7a:fb:dc:b0:ca:d1:9d:90:24:a1:04:f3:c1:fb:
        5a:e4:b0:e8:48:d0:c2:87:b4:bd:43:9d:e0:4e:23:49:0f:33:
        b7:0f:e5:3b:d1:14:9c:4c:00:ec:06:6d:c4:d9:24:36:fc:46:
        4a:d3:91:a5:ff:e2:3b:a9:ff:9f:f4:cd:fb:e3:d7:33:4d:af:
        fd:53:29:be:a5:fa:3b:3d:8d:66:c4:b8:71:ca:8a:4f:b9:10:
        af:79:00:f4:f1:41:7a:c8:9d:e4:53:81:05:59:99:2f:2e:a0:
        f4:b4:44:3f:92:76:d1:0d:8f:2b:75:ac:20:73:10:9f:83:d0:
        b7:9a:43:e8:b0:39:08:c9:55:ab:3c:44:59:e0:a0:4b:5d:46:
        e0:ff:cb:11:35:25:4b:fa:7d:a9:75:87:a4:05:39:a4:19:a9:
        3c:2e:d3:68:5b:cf:e7:94:23:10:b9:c2:a9:0c:af:ab:00:d5:
        f1:92:f2:b4:ad:3c:cf:fd:de:b9:8b:56:30:4c:40:95:c0:fd:
        53:2c:c3:30:98:0c:21:e6:b0:56:ca:84:e0:ed:3c:47:60:e9:
        21:75:01:11:b9:f5:0b:a0:24:6a:12:0c:bc:ed:94:b2:48:79:
        e7:69:19:7d:b2:1f:03:7b:80:08:a3:f3:b0:f3:da:3f:58:82:
        b9:fb:06:d4
-----BEGIN CERTIFICATE-----
MIIEvzCCA3KgAwIBAgIBATBCBgkqhkiG9w0BAQowNaAPMA0GCWCGSAFlAwQCAQUA
oRwwGgYJKoZIhvcNAQEIMA0GCWCGSAFlAwQCAQUAogQCAgDeMIGUMQswCQYDVQQG
EwJVUzEQMA4GA1UECAwHTW9udGFuYTEQMA4GA1UEBwwHQm96ZW1hbjERMA8GA1UE
CgwIU2F3dG9vdGgxEzARBgNVBAsMCkNvbnN1bHRpbmcxGDAWBgNVBAMMD3d3dy53
b2xmc3NsLmNvbTEfMB0GCSqGSIb3DQEJARYQaW5mb0B3b2xmc3NsLmNvbTAeFw0y
NDEyMTgyMTI1MzBaFw0yNzA5MTQyMTI1MzBaMIG6MQswCQYDVQQGEwJVUzEQMA4G
A1UECAwHTW9udGFuYTEQMA4GA1UEBwwHQm96ZW1hbjEXMBUGA1UECgwOd29sZlNT
TF9SU0FQU1MxGjAYBgNVBAsMEVNlcnZlci1NSVgtUlNBUFNTMRgwFgYDVQQDDA93
d3cud29sZnNzbC5jb20xHzAdBgkqhkiG9w0BCQEWEGluZm9Ad29sZnNzbC5jb20x
FzAVBgoJkiaJk/IsZAEBDAd3b2xmU1NMMIIBIjANBgkqhkiG9w0BAQEFAAOCAQ8A
MIIBCgKCAQEAwJUI4VdB8nFtt9JFQScBZcZFrvK8JDC4lc4vTtb2HIi8fJ/7qGd/
/lycUXX3isoH5zUvj+G9e8AvfKtkqBf8yl17uuAh5XIuby6G2JVz2qwbU7lfP9cZ
DSVP4WNjUYsLZD+tQ7ilHFw0s64AoGPF9n8LWWh4c6aMGKkCba/DGQEuuBDjxsxA
tGmjRjNph27Euxem8+jdrXO8ey8htf1mUQy9VLPhbV8cvCNz0QkDiRTSELlkwyrQ
oZZKvOHUGlvHoMDBY3gPRDcwMpaAMiOVoXe6E9KXc+JdJclqDcM5YKS0sGlCQgnp
2Ai8MyCzWCKnquvE4eZhg8XSlt/Z0E+t1wIDAQABo4GJMIGGMB0GA1UdDgQWBBSz
ETLJkpiE4sn40DtuA0LKHw6OPDAfBgNVHSMEGDAWgBQnjmcRdMMmHT/tM2OzpNgd
MOXo1TAMBgNVHRMBAf8EAjAAMA4GA1UdDwEB/wQEAwIDqDATBgNVHSUEDDAKBggr
BgEFBQcDATARBglghkgBhvhCAQEEBAMCBkAwQgYJKoZIhvcNAQEKMDWgDzANBglg
hkgBZQMEAgEFAKEcMBoGCSqGSIb3DQEBCDANBglghkgBZQMEAgEFAKIEAgIA3gOC
AQEAScZEonr73LDK0Z2QJKEE88H7WuSw6EjQwoe0vUOd4E4jSQ8ztw/lO9EUnEwA
7AZtxNkkNvxGStORpf/iO6n/n/TN++PXM02v/VMpvqX6Oz2NZsS4ccqKT7kQr3kA
9PFBesid5FOBBVmZLy6g9LREP5J20Q2PK3WsIHMQn4PQt5pD6LA5CMlVqzxEWeCg
S11G4P/LETUlS/p9qXWHpAU5pBmpPC7TaFvP55QjELnCqQyvqwDV8ZLytK08z/3e
uYtWMExAlcD9UyzDMJgMIeawVsqE4O08R2DpIXUBEbn1C6AkahIMvO2Uskh552kZ
fbIfA3uACKPzsPPaP1iCufsG1A==
-----END CERTIFICATE-----
