Certificate:
    Data:
        Version: 3 (0x2)
        Serial Number: 1 (0x1)
        Signature Algorithm: rsassaPss        
        Hash Algorithm: sha256
        Mask Algorithm: mgf1 with sha256
         Salt Length: 0xDE
        Trailer Field: 0x01 (default)
        Issuer: C = US, ST = Montana, L = Bozeman, O = Sawtooth, OU = Consulting, CN = www.wolfssl.com, emailAddress = info@wolfssl.com
        Validity
            Not Before: Sep 26 17:22:42 2023 GMT
            Not After : Jun 22 17:22:42 2026 GMT
        Subject: C = US, ST = Montana, L = Bozeman, O = wolfSSL_RSAPSS, OU = Server-MIX-RSAPSS, CN = www.wolfssl.com, emailAddress = info@wolfssl.com, UID = wolfSSL
        Subject Public Key Info:
            Public Key Algorithm: rsaEncryption
                Public-Key: (2048 bit)
                Modulus:
                    00:c0:95:08:e1:57:41:f2:71:6d:b7:d2:45:41:27:
                    01:65:c6:45:ae:f2:bc:24:30:b8:95:ce:2f:4e:d6:
                    f6:1c:88:bc:7c:9f:fb:a8:67:7f:fe:5c:9c:51:75:
                    f7:8a:ca:07:e7:35:2f:8f:e1:bd:7b:c0:2f:7c:ab:
                    64:a8:17:fc:ca:5d:7b:ba:e0:21:e5:72:2e:6f:2e:
                    86:d8:95:73:da:ac:1b:53:b9:5f:3f:d7:19:0d:25:
                    4f:e1:63:63:51:8b:0b:64:3f:ad:43:b8:a5:1c:5c:
                    34:b3:ae:00:a0:63:c5:f6:7f:0b:59:68:78:73:a6:
                    8c:18:a9:02:6d:af:c3:19:01:2e:b8:10:e3:c6:cc:
                    40:b4:69:a3:46:33:69:87:6e:c4:bb:17:a6:f3:e8:
                    dd:ad:73:bc:7b:2f:21:b5:fd:66:51:0c:bd:54:b3:
                    e1:6d:5f:1c:bc:23:73:d1:09:03:89:14:d2:10:b9:
                    64:c3:2a:d0:a1:96:4a:bc:e1:d4:1a:5b:c7:a0:c0:
                    c1:63:78:0f:44:37:30:32:96:80:32:23:95:a1:77:
                    ba:13:d2:97:73:e2:5d:25:c9:6a:0d:c3:39:60:a4:
                    b4:b0:69:42:42:09:e9:d8:08:bc:33:20:b3:58:22:
                    a7:aa:eb:c4:e1:e6:61:83:c5:d2:96:df:d9:d0:4f:
                    ad:d7
                Exponent: 65537 (0x10001)
        X509v3 extensions:
            X509v3 Subject Key Identifier: 
                B3:11:32:C9:92:98:84:E2:C9:F8:D0:3B:6E:03:42:CA:1F:0E:8E:3C
            X509v3 Authority Key Identifier: 
                27:8E:67:11:74:C3:26:1D:3F:ED:33:63:B3:A4:D8:1D:30:E5:E8:D5
            X509v3 Basic Constraints: critical
                CA:FALSE
            X509v3 Key Usage: critical
                Digital Signature, Key Encipherment, Key Agreement
            X509v3 Extended Key Usage: 
                TLS Web Server Authentication
            Netscape Cert Type: 
                SSL Server
    Signature Algorithm: rsassaPss
    Signature Value:        
        Hash Algorithm: sha256
        Mask Algorithm: mgf1 with sha256
         Salt Length: 0xDE
        Trailer Field: 0x01 (default)
        4a:2a:36:9c:52:5b:78:70:ea:21:ef:ce:98:88:db:c2:2c:02:
        c3:bc:ab:79:13:e5:bd:34:b3:d0:71:04:9b:08:d9:9c:be:6c:
        65:21:49:0b:17:6f:a5:43:72:4c:57:f9:10:83:8a:cd:ad:b8:
        9c:ba:6e:92:be:92:7e:cb:03:08:83:1f:35:95:ed:87:7f:82:
        15:7f:0a:86:64:ca:60:be:5e:ea:58:cf:db:bb:43:b5:2d:f8:
        ae:08:c6:0f:39:ce:d2:0e:2b:f0:ab:56:1e:a2:8b:d5:cc:21:
        b2:b4:7e:4a:5f:d2:1b:ad:e2:57:d6:e7:35:ee:a2:c5:a7:85:
        65:7e:ee:30:11:7e:43:fe:8b:8b:66:91:9c:8b:17:38:4c:4f:
        d8:70:b6:87:66:ed:4f:c3:56:40:dc:2e:5d:3e:1e:7a:3d:ce:
        62:6f:09:79:91:e3:c7:76:19:db:20:f0:8c:91:f6:ae:6b:de:
        19:5b:a2:33:e5:f1:0d:73:56:d3:e0:79:7b:04:24:bf:f4:e5:
        22:0c:ea:c8:7d:c2:00:6d:d6:7a:a1:20:24:9f:a7:f5:29:0a:
        9d:5c:59:d6:3a:59:95:1f:77:0e:3c:97:14:b6:ad:8b:55:0c:
        ee:93:5e:8e:8f:12:6c:7d:8d:e6:ca:12:df:87:5d:c2:5f:10:
        3c:10:07:7a
-----BEGIN CERTIFICATE-----
MIIEvzCCA3KgAwIBAgIBATBCBgkqhkiG9w0BAQowNaAPMA0GCWCGSAFlAwQCAQUA
oRwwGgYJKoZIhvcNAQEIMA0GCWCGSAFlAwQCAQUAogQCAgDeMIGUMQswCQYDVQQG
EwJVUzEQMA4GA1UECAwHTW9udGFuYTEQMA4GA1UEBwwHQm96ZW1hbjERMA8GA1UE
CgwIU2F3dG9vdGgxEzARBgNVBAsMCkNvbnN1bHRpbmcxGDAWBgNVBAMMD3d3dy53
b2xmc3NsLmNvbTEfMB0GCSqGSIb3DQEJARYQaW5mb0B3b2xmc3NsLmNvbTAeFw0y
MzA5MjYxNzIyNDJaFw0yNjA2MjIxNzIyNDJaMIG6MQswCQYDVQQGEwJVUzEQMA4G
A1UECAwHTW9udGFuYTEQMA4GA1UEBwwHQm96ZW1hbjEXMBUGA1UECgwOd29sZlNT
TF9SU0FQU1MxGjAYBgNVBAsMEVNlcnZlci1NSVgtUlNBUFNTMRgwFgYDVQQDDA93
d3cud29sZnNzbC5jb20xHzAdBgkqhkiG9w0BCQEWEGluZm9Ad29sZnNzbC5jb20x
FzAVBgoJkiaJk/IsZAEBDAd3b2xmU1NMMIIBIjANBgkqhkiG9w0BAQEFAAOCAQ8A
MIIBCgKCAQEAwJUI4VdB8nFtt9JFQScBZcZFrvK8JDC4lc4vTtb2HIi8fJ/7qGd/
/lycUXX3isoH5zUvj+G9e8AvfKtkqBf8yl17uuAh5XIuby6G2JVz2qwbU7lfP9cZ
DSVP4WNjUYsLZD+tQ7ilHFw0s64AoGPF9n8LWWh4c6aMGKkCba/DGQEuuBDjxsxA
tGmjRjNph27Euxem8+jdrXO8ey8htf1mUQy9VLPhbV8cvCNz0QkDiRTSELlkwyrQ
oZZKvOHUGlvHoMDBY3gPRDcwMpaAMiOVoXe6E9KXc+JdJclqDcM5YKS0sGlCQgnp
2Ai8MyCzWCKnquvE4eZhg8XSlt/Z0E+t1wIDAQABo4GJMIGGMB0GA1UdDgQWBBSz
ETLJkpiE4sn40DtuA0LKHw6OPDAfBgNVHSMEGDAWgBQnjmcRdMMmHT/tM2OzpNgd
MOXo1TAMBgNVHRMBAf8EAjAAMA4GA1UdDwEB/wQEAwIDqDATBgNVHSUEDDAKBggr
BgEFBQcDATARBglghkgBhvhCAQEEBAMCBkAwQgYJKoZIhvcNAQEKMDWgDzANBglg
hkgBZQMEAgEFAKEcMBoGCSqGSIb3DQEBCDANBglghkgBZQMEAgEFAKIEAgIA3gOC
AQEASio2nFJbeHDqIe/OmIjbwiwCw7yreRPlvTSz0HEEmwjZnL5sZSFJCxdvpUNy
TFf5EIOKza24nLpukr6SfssDCIMfNZXth3+CFX8KhmTKYL5e6ljP27tDtS34rgjG
DznO0g4r8KtWHqKL1cwhsrR+Sl/SG63iV9bnNe6ixaeFZX7uMBF+Q/6Li2aRnIsX
OExP2HC2h2btT8NWQNwuXT4eej3OYm8JeZHjx3YZ2yDwjJH2rmveGVuiM+XxDXNW
0+B5ewQkv/TlIgzqyH3CAG3WeqEgJJ+n9SkKnVxZ1jpZlR93DjyXFLati1UM7pNe
jo8SbH2N5soS34ddwl8QPBAHeg==
-----END CERTIFICATE-----
