Certificate Revocation List (CRL):
        Version 2 (0x1)
    Signature Algorithm: ecdsa-with-SHA256
        Issuer: /C=US/ST=Washington/L=Seattle/O=wolfSSL/OU=Development/CN=www.wolfssl.com/emailAddress=info@wolfssl.com
        Last Update: Oct 19 19:06:54 2017 GMT
        Next Update: Jul 15 19:06:54 2020 GMT
        CRL extensions:
            X509v3 Authority Key Identifier: 
                keyid:97:FD:B4:6D:CE:08:B3:02:57:AB:F3:40:D6:1D:AC:75:32:35:AA:F2

            X509v3 CRL Number: 
                8193
No Revoked Certificates.
    Signature Algorithm: ecdsa-with-SHA256
         30:64:02:30:37:0c:54:d6:da:d1:0b:a0:f9:9f:91:91:41:6d:
         e3:5f:91:1e:1b:18:ad:ef:cd:a9:80:25:1b:47:81:7a:95:64:
         fe:a3:98:19:be:8f:a7:69:c7:d0:b4:b5:f1:a2:d5:e0:02:30:
         2a:33:97:79:c7:31:5a:d6:e0:f0:17:ae:2c:72:3a:8e:5e:82:
         93:87:af:17:1f:6e:83:dc:81:06:6d:3c:6e:2a:9c:b5:50:bd:
         a5:66:b3:82:de:48:9a:88:84:a4:a0:f3
-----BEGIN X509 CRL-----
MIIBcTCB+QIBATAKBggqhkjOPQQDAjCBlzELMAkGA1UEBhMCVVMxEzARBgNVBAgM
Cldhc2hpbmd0b24xEDAOBgNVBAcMB1NlYXR0bGUxEDAOBgNVBAoMB3dvbGZTU0wx
FDASBgNVBAsMC0RldmVsb3BtZW50MRgwFgYDVQQDDA93d3cud29sZnNzbC5jb20x
HzAdBgkqhkiG9w0BCQEWEGluZm9Ad29sZnNzbC5jb20XDTE3MTAxOTE5MDY1NFoX
DTIwMDcxNTE5MDY1NFqgMDAuMB8GA1UdIwQYMBaAFJf9tG3OCLMCV6vzQNYdrHUy
NaryMAsGA1UdFAQEAgIgATAKBggqhkjOPQQDAgNnADBkAjA3DFTW2tELoPmfkZFB
beNfkR4bGK3vzamAJRtHgXqVZP6jmBm+j6dpx9C0tfGi1eACMCozl3nHMVrW4PAX
rixyOo5egpOHrxcfboPcgQZtPG4qnLVQvaVms4LeSJqIhKSg8w==
-----END X509 CRL-----
