Certificate Revocation List (CRL):
        Version 2 (0x1)
        Signature Algorithm: sha256WithRSAEncryption
        Issuer: C = US, ST = Montana, L = Bozeman, O = wolfSSL_2048, OU = Programming-2048, CN = www.wolfssl.com, emailAddress = info@wolfssl.com
        Last Update: Feb 15 12:50:27 2022 GMT
        Next Update: Nov 11 12:50:27 2024 GMT
        CRL extensions:
            X509v3 CRL Number: 
                6
Revoked Certificates:
    Serial Number: 02
        Revocation Date: Feb 15 12:50:27 2022 GMT
    Signature Algorithm: sha256WithRSAEncryption
         7e:92:50:e4:30:78:22:ed:6f:79:a5:cb:65:3c:de:7a:83:88:
         1e:66:8a:e5:2e:42:c6:9f:66:31:94:22:89:30:18:a2:b4:28:
         76:b1:bc:8b:4a:0d:aa:ee:92:b6:4e:b5:11:87:6b:57:18:4d:
         fd:3c:b1:75:d7:b3:16:0e:7a:42:76:c5:b8:7c:22:15:11:c0:
         9b:0d:a6:fe:42:86:ef:cb:79:60:4d:35:20:4c:a3:a2:37:07:
         de:dd:94:fe:49:86:ae:7c:86:71:e2:86:9a:2b:e2:a2:80:6c:
         96:3c:8b:13:4f:f6:52:63:6d:1c:7c:af:3f:22:c1:53:97:6b:
         d0:2f:84:88:68:23:e1:8c:2d:bd:57:e3:c7:eb:6f:20:13:a7:
         13:86:2f:2e:d5:3b:87:bb:08:3b:24:cb:dd:10:17:48:d9:97:
         67:28:6e:40:6a:70:45:04:6f:93:52:77:a3:21:7e:58:29:95:
         96:a6:3f:a2:73:83:2f:3e:d8:85:0a:f4:7d:39:04:9b:5d:cb:
         7e:d4:6a:33:63:b4:67:6f:b8:e3:3a:6a:7b:57:ed:f6:bd:98:
         11:fb:f1:0e:c8:29:73:fd:dd:55:93:d4:00:05:5c:be:d6:e7:
         24:ec:9d:d0:41:d3:1c:dc:4b:de:df:64:e1:00:39:dc:7d:04:
         75:fd:94:7c
-----BEGIN X509 CRL-----
MIICDjCB9wIBATANBgkqhkiG9w0BAQsFADCBnjELMAkGA1UEBhMCVVMxEDAOBgNV
BAgMB01vbnRhbmExEDAOBgNVBAcMB0JvemVtYW4xFTATBgNVBAoMDHdvbGZTU0xf
MjA0ODEZMBcGA1UECwwQUHJvZ3JhbW1pbmctMjA0ODEYMBYGA1UEAwwPd3d3Lndv
bGZzc2wuY29tMR8wHQYJKoZIhvcNAQkBFhBpbmZvQHdvbGZzc2wuY29tFw0yMjAy
MTUxMjUwMjdaFw0yNDExMTExMjUwMjdaMBQwEgIBAhcNMjIwMjE1MTI1MDI3WqAO
MAwwCgYDVR0UBAMCAQYwDQYJKoZIhvcNAQELBQADggEBAH6SUOQweCLtb3mly2U8
3nqDiB5miuUuQsafZjGUIokwGKK0KHaxvItKDarukrZOtRGHa1cYTf08sXXXsxYO
ekJ2xbh8IhURwJsNpv5Chu/LeWBNNSBMo6I3B97dlP5Jhq58hnHihpor4qKAbJY8
ixNP9lJjbRx8rz8iwVOXa9AvhIhoI+GMLb1X48frbyATpxOGLy7VO4e7CDsky90Q
F0jZl2cobkBqcEUEb5NSd6MhflgplZamP6Jzgy8+2IUK9H05BJtdy37UajNjtGdv
uOM6antX7fa9mBH78Q7IKXP93VWT1AAFXL7W5yTsndBB0xzcS97fZOEAOdx9BHX9
lHw=
-----END X509 CRL-----
