Certificate Revocation List (CRL):
        Version 2 (0x1)
    Signature Algorithm: sha1WithRSAEncryption
        Issuer: /C=US/ST=Oregon/L=Portland/O=yaSSL/OU=Programming/CN=www.yassl.com/emailAddress=info@yassl.com
        Last Update: Apr  1 22:54:02 2013 GMT
        Next Update: Sep 28 22:54:02 2013 GMT
        CRL extensions:
            X509v3 CRL Number: 
                72
No Revoked Certificates.
    Signature Algorithm: sha1WithRSAEncryption
         6c:d4:30:46:66:6d:21:9a:12:d9:25:e8:82:ad:bf:7c:4c:a4:
         c3:46:cc:72:9d:5c:fe:8a:c6:93:76:95:60:72:a5:c9:7e:49:
         66:e4:4a:27:0f:4f:4e:81:b8:f1:9f:67:1f:c0:8e:3d:2c:84:
         2a:b4:a1:34:6d:92:c9:e6:3b:23:64:78:ce:84:55:5d:11:9c:
         77:70:ec:43:82:04:02:3a:d9:2c:ce:ac:31:22:8b:09:f7:3d:
         c6:52:6e:6b:8b:5b:15:45:62:fd:40:22:70:b2:78:88:af:47:
         a2:47:ab:91:0c:08:d1:f4:25:6b:5b:be:34:ab:d6:79:b2:6c:
         a5:4e:de:a2:db:47:1e:f4:33:af:e0:c9:1c:d9:0a:92:ba:18:
         58:c0:9a:f3:cc:d4:e3:39:c9:e7:8f:8f:5e:57:17:ae:93:80:
         0a:c5:6b:43:7a:2b:d4:51:2b:e9:bd:65:79:1b:4e:1a:cd:b8:
         25:43:d8:d7:5d:e7:54:8d:15:2c:40:5e:a4:49:ec:c5:cb:0c:
         01:cd:6d:8b:1c:b5:41:b7:76:32:05:c5:5c:ea:da:92:4d:8d:
         bb:23:ec:d5:d1:45:fc:07:75:52:6f:f6:1b:30:67:ee:5a:fd:
         e9:35:f1:25:18:3d:46:2b:0e:6b:dc:36:47:f3:7f:57:3d:de:
         94:72:b4:59
-----BEGIN X509 CRL-----
MIIB6DCB0QIBATANBgkqhkiG9w0BAQUFADCBjjELMAkGA1UEBhMCVVMxDzANBgNV
BAgTBk9yZWdvbjERMA8GA1UEBxMIUG9ydGxhbmQxDjAMBgNVBAoTBXlhU1NMMRQw
EgYDVQQLEwtQcm9ncmFtbWluZzEWMBQGA1UEAxMNd3d3Lnlhc3NsLmNvbTEdMBsG
CSqGSIb3DQEJARYOaW5mb0B5YXNzbC5jb20XDTEzMDQwMTIyNTQwMloXDTEzMDky
ODIyNTQwMlqgDjAMMAoGA1UdFAQDAgFIMA0GCSqGSIb3DQEBBQUAA4IBAQBs1DBG
Zm0hmhLZJeiCrb98TKTDRsxynVz+isaTdpVgcqXJfklm5EonD09Ogbjxn2cfwI49
LIQqtKE0bZLJ5jsjZHjOhFVdEZx3cOxDggQCOtkszqwxIosJ9z3GUm5ri1sVRWL9
QCJwsniIr0eiR6uRDAjR9CVrW740q9Z5smylTt6i20ce9DOv4Mkc2QqSuhhYwJrz
zNTjOcnnj49eVxeuk4AKxWtDeivUUSvpvWV5G04azbglQ9jXXedUjRUsQF6kSezF
ywwBzW2LHLVBt3YyBcVc6tqSTY27I+zV0UX8B3VSb/YbMGfuWv3pNfElGD1GKw5r
3DZH839XPd6UcrRZ
-----END X509 CRL-----
