Certificate Revocation List (CRL):
        Version 2 (0x1)
    Signature Algorithm: sha256WithRSAEncryption
        Issuer: /C=US/ST=Montana/L=Bozeman/O=wolfSSL_2048/OU=Programming-2048/CN=www.wolfssl.com/emailAddress=info@wolfssl.com
        Last Update: Jul 25 18:56:35 2016 GMT
        Next Update: Apr 21 18:56:35 2019 GMT
        CRL extensions:
            X509v3 CRL Number: 
                3
No Revoked Certificates.
    Signature Algorithm: sha256WithRSAEncryption
         32:20:a7:c7:0e:06:b4:f2:c4:9d:1e:25:56:f9:3f:78:70:8e:
         e7:ca:b6:14:aa:03:9a:ae:5b:26:56:73:c3:93:bd:57:f6:3f:
         ac:15:50:6d:1f:55:4a:5f:d6:4d:96:9f:e7:cd:1e:c2:79:9a:
         2c:44:35:70:3d:0d:0a:fe:7c:ed:dd:20:72:c7:0f:df:5d:11:
         6b:fd:fc:81:66:ef:6f:df:dd:f9:fe:6c:ec:cf:64:ba:c4:83:
         42:d3:8c:a4:be:06:4d:c0:2c:0e:d4:8f:dd:c3:7d:82:b0:de:
         c7:11:9c:99:4e:f5:64:3a:03:1c:c9:ea:fa:da:df:28:42:0f:
         6e:86:f2:fc:ea:63:a7:f4:6a:29:8f:8f:11:ce:7f:44:38:f5:
         b6:b4:16:75:e7:37:81:a1:81:c5:13:7d:fe:b3:81:72:db:53:
         00:c5:07:10:fb:8f:28:5d:43:3e:5f:d2:b7:f1:61:08:8b:f1:
         1f:87:06:b8:c9:5e:da:68:e0:2b:90:50:1f:41:86:1d:1b:9b:
         87:57:d3:4a:fa:d2:7f:80:45:81:6d:fe:68:c6:4f:b4:96:78:
         a7:fe:80:b0:5d:5c:a2:56:c3:1d:b8:27:19:8a:e5:99:c4:81:
         94:09:6f:9f:80:3d:5f:1f:cc:68:89:fe:62:e9:cb:67:3c:aa:
         01:46:2c:52
-----BEGIN X509 CRL-----
MIIB+DCB4QIBATANBgkqhkiG9w0BAQsFADCBnjELMAkGA1UEBhMCVVMxEDAOBgNV
BAgMB01vbnRhbmExEDAOBgNVBAcMB0JvemVtYW4xFTATBgNVBAoMDHdvbGZTU0xf
MjA0ODEZMBcGA1UECwwQUHJvZ3JhbW1pbmctMjA0ODEYMBYGA1UEAwwPd3d3Lndv
bGZzc2wuY29tMR8wHQYJKoZIhvcNAQkBFhBpbmZvQHdvbGZzc2wuY29tFw0xNjA3
MjUxODU2MzVaFw0xOTA0MjExODU2MzVaoA4wDDAKBgNVHRQEAwIBAzANBgkqhkiG
9w0BAQsFAAOCAQEAMiCnxw4GtPLEnR4lVvk/eHCO58q2FKoDmq5bJlZzw5O9V/Y/
rBVQbR9VSl/WTZaf580ewnmaLEQ1cD0NCv587d0gcscP310Ra/38gWbvb9/d+f5s
7M9kusSDQtOMpL4GTcAsDtSP3cN9grDexxGcmU71ZDoDHMnq+trfKEIPboby/Opj
p/RqKY+PEc5/RDj1trQWdec3gaGBxRN9/rOBcttTAMUHEPuPKF1DPl/St/FhCIvx
H4cGuMle2mjgK5BQH0GGHRubh1fTSvrSf4BFgW3+aMZPtJZ4p/6AsF1colbDHbgn
GYrlmcSBlAlvn4A9Xx/MaIn+YunLZzyqAUYsUg==
-----END X509 CRL-----
