Certificate Revocation List (CRL):
        Version 2 (0x1)
    Signature Algorithm: sha256WithRSAEncryption
        Issuer: /C=US/ST=Montana/L=Bozeman/O=wolfSSL/OU=Programming/CN=www.wolfssl.com/emailAddress=info@wolfssl.com
        Last Update: May  7 16:00:19 2015 GMT
        Next Update: Jan 31 16:00:19 2018 GMT
        CRL extensions:
            X509v3 CRL Number: 
                3
No Revoked Certificates.
    Signature Algorithm: sha256WithRSAEncryption
         59:09:a4:9f:b0:b2:da:af:fd:6f:dc:62:fc:9c:ef:29:a9:c9:
         4f:1b:8a:da:2b:3a:8c:79:18:9d:fa:7b:f5:ff:ff:6c:50:ec:
         d0:15:e4:79:98:ca:eb:75:da:4d:2f:22:f7:46:49:df:ef:ab:
         09:8a:35:01:0d:a6:b7:81:38:c6:e1:a9:da:62:4c:98:b1:f9:
         a0:60:fc:c5:45:7c:97:be:fe:f9:43:c1:91:ee:12:12:bd:6d:
         65:16:59:54:93:7d:42:b0:e7:43:9d:61:04:d3:56:6e:46:82:
         93:56:98:33:8f:5c:54:8d:24:49:8f:6b:2f:e9:d1:a8:f3:48:
         c8:4c:75:79:30:82:0c:5c:8c:e7:2e:6e:e4:84:da:e0:c4:a7:
         65:e5:b3:16:50:fd:dd:ae:79:9f:16:99:b3:e9:33:76:5e:75:
         d0:31:ce:79:f9:8b:fe:5d:02:3d:01:bc:c3:c5:77:f0:0c:90:
         b8:a7:c5:69:3b:b8:39:b1:e3:c8:fe:e8:06:22:96:dc:78:3a:
         c0:d0:0e:a2:cc:6d:d3:c1:d8:48:8c:58:43:a1:55:03:87:e8:
         c9:ba:cf:d8:63:01:6f:f4:94:a6:d1:11:e4:ed:b2:a0:79:2a:
         bf:24:ea:85:59:5e:1d:f2:60:f7:7b:77:82:46:0f:8e:a6:87:
         e3:ec:71:d4
-----BEGIN X509 CRL-----
MIIB7jCB1wIBATANBgkqhkiG9w0BAQsFADCBlDELMAkGA1UEBhMCVVMxEDAOBgNV
BAgMB01vbnRhbmExEDAOBgNVBAcMB0JvemVtYW4xEDAOBgNVBAoMB3dvbGZTU0wx
FDASBgNVBAsMC1Byb2dyYW1taW5nMRgwFgYDVQQDDA93d3cud29sZnNzbC5jb20x
HzAdBgkqhkiG9w0BCQEWEGluZm9Ad29sZnNzbC5jb20XDTE1MDUwNzE2MDAxOVoX
DTE4MDEzMTE2MDAxOVqgDjAMMAoGA1UdFAQDAgEDMA0GCSqGSIb3DQEBCwUAA4IB
AQBZCaSfsLLar/1v3GL8nO8pqclPG4raKzqMeRid+nv1//9sUOzQFeR5mMrrddpN
LyL3Rknf76sJijUBDaa3gTjG4anaYkyYsfmgYPzFRXyXvv75Q8GR7hISvW1lFllU
k31CsOdDnWEE01ZuRoKTVpgzj1xUjSRJj2sv6dGo80jITHV5MIIMXIznLm7khNrg
xKdl5bMWUP3drnmfFpmz6TN2XnXQMc55+Yv+XQI9AbzDxXfwDJC4p8VpO7g5sePI
/ugGIpbceDrA0A6izG3TwdhIjFhDoVUDh+jJus/YYwFv9JSm0RHk7bKgeSq/JOqF
WV4d8mD3e3eCRg+Opofj7HHU
-----END X509 CRL-----
