Certificate Revocation List (CRL):
        Version 2 (0x1)
    Signature Algorithm: sha256WithRSAEncryption
        Issuer: /C=US/ST=Montana/L=Bozeman/O=wolfSSL_2048/OU=Programming-2048/CN=www.wolfssl.com/emailAddress=info@wolfssl.com
        Last Update: Feb 10 19:49:55 2021 GMT
        Next Update: Nov  7 19:49:55 2023 GMT
        CRL extensions:
            X509v3 CRL Number: 
                6
Revoked Certificates:
    Serial Number: 02
        Revocation Date: Feb 10 19:49:55 2021 GMT
    Signature Algorithm: sha256WithRSAEncryption
         a3:e5:bd:db:95:29:72:ae:b1:e9:1a:69:1e:7b:9c:ec:8e:e7:
         1d:54:1e:22:b7:11:44:0b:20:3e:e4:ed:59:38:a7:81:07:6f:
         bf:4d:f3:e0:5b:5e:46:3d:4e:04:7e:de:50:90:28:38:43:7e:
         2b:3b:20:6b:c9:ac:fc:7b:e6:48:67:03:6a:24:82:52:97:ce:
         82:0e:42:b8:0c:60:ac:3d:a5:bc:2b:39:cf:40:b4:c1:39:a9:
         e9:af:84:9c:c4:87:74:e5:dc:c3:28:6e:f2:93:48:8a:6d:e2:
         59:ae:f8:ed:16:77:46:4d:61:2a:7b:ec:bf:ae:8b:76:6e:3d:
         13:b5:7e:68:af:41:7e:ee:ec:4f:ab:19:45:e3:72:94:1c:db:
         5e:97:1a:24:4e:42:94:e4:b7:dc:5e:ba:6c:b0:1f:36:e7:63:
         d3:4f:5d:53:4a:48:8c:91:8e:bb:51:c0:28:ed:0b:5c:a9:f7:
         d7:ab:39:21:57:22:42:83:08:34:86:38:ca:3a:96:fc:6a:f0:
         86:5e:0b:64:84:30:28:49:fe:62:43:1b:a5:f3:f4:e7:b6:30:
         f4:ae:68:5a:82:9a:e1:00:2d:74:0e:60:b4:40:fe:f3:fe:b6:
         f8:c9:21:79:7d:f1:ee:78:e4:8c:2d:96:69:13:c3:a8:53:d5:
         af:5c:e9:0c
-----BEGIN X509 CRL-----
MIICDjCB9wIBATANBgkqhkiG9w0BAQsFADCBnjELMAkGA1UEBhMCVVMxEDAOBgNV
BAgMB01vbnRhbmExEDAOBgNVBAcMB0JvemVtYW4xFTATBgNVBAoMDHdvbGZTU0xf
MjA0ODEZMBcGA1UECwwQUHJvZ3JhbW1pbmctMjA0ODEYMBYGA1UEAwwPd3d3Lndv
bGZzc2wuY29tMR8wHQYJKoZIhvcNAQkBFhBpbmZvQHdvbGZzc2wuY29tFw0yMTAy
MTAxOTQ5NTVaFw0yMzExMDcxOTQ5NTVaMBQwEgIBAhcNMjEwMjEwMTk0OTU1WqAO
MAwwCgYDVR0UBAMCAQYwDQYJKoZIhvcNAQELBQADggEBAKPlvduVKXKusekaaR57
nOyO5x1UHiK3EUQLID7k7Vk4p4EHb79N8+BbXkY9TgR+3lCQKDhDfis7IGvJrPx7
5khnA2okglKXzoIOQrgMYKw9pbwrOc9AtME5qemvhJzEh3Tl3MMobvKTSIpt4lmu
+O0Wd0ZNYSp77L+ui3ZuPRO1fmivQX7u7E+rGUXjcpQc216XGiROQpTkt9xeumyw
HzbnY9NPXVNKSIyRjrtRwCjtC1yp99erOSFXIkKDCDSGOMo6lvxq8IZeC2SEMChJ
/mJDG6Xz9Oe2MPSuaFqCmuEALXQOYLRA/vP+tvjJIXl98e545IwtlmkTw6hT1a9c
6Qw=
-----END X509 CRL-----
