Certificate Revocation List (CRL):
        Version 2 (0x1)
        Signature Algorithm: sha256WithRSAEncryption
        Issuer: C = US, ST = Montana, L = Bozeman, O = wolfSSL_2048, OU = Programming-2048, CN = www.wolfssl.com, emailAddress = info@wolfssl.com
        Last Update: Dec 18 21:25:34 2024 GMT
        Next Update: Sep 14 21:25:34 2027 GMT
        CRL extensions:
            X509v3 CRL Number: 
                8
Revoked Certificates:
    Serial Number: 02
        Revocation Date: Dec 18 21:25:34 2024 GMT
    Signature Algorithm: sha256WithRSAEncryption
    Signature Value:
        36:42:de:cb:20:dd:0a:c7:3b:1c:a0:b6:18:48:3a:30:25:40:
        5c:42:50:2f:d9:0e:ed:df:66:1f:9d:da:5b:fc:04:0c:46:b5:
        68:0b:17:df:42:32:1b:57:2d:d2:ca:07:67:54:97:28:fc:b6:
        cd:e6:12:1b:29:0b:2c:03:eb:3f:05:d2:ce:a2:08:f8:eb:17:
        0f:64:20:5d:2a:e8:16:5a:72:45:bb:a5:d1:f9:fb:50:c6:b7:
        97:4a:1c:25:a1:cc:8d:4c:df:a9:1f:c0:a2:f5:86:9d:c1:04:
        40:1a:b1:75:63:05:f1:62:63:38:d4:5c:90:ef:9a:fa:76:12:
        b3:14:80:ea:0f:67:0b:6c:22:39:0b:55:59:cd:34:b1:b3:62:
        c5:1b:89:a1:a3:bb:77:28:43:ca:9e:47:a2:84:0c:4f:87:f1:
        62:57:4c:e7:89:12:6a:bd:69:d6:e3:07:12:03:13:73:70:8d:
        3c:97:89:68:4a:95:f5:33:92:f4:de:e6:55:9f:00:22:91:70:
        7f:f1:99:24:09:84:83:65:17:4a:a8:ef:2c:fb:4a:ca:93:df:
        a3:23:4e:5e:d6:56:30:f7:80:98:09:c6:2f:d6:46:65:df:a2:
        0d:bc:ed:44:9e:53:de:9d:e1:84:0e:88:0e:61:3c:a4:4d:e5:
        7d:4f:1e:9c
-----BEGIN X509 CRL-----
MIICDjCB9wIBATANBgkqhkiG9w0BAQsFADCBnjELMAkGA1UEBhMCVVMxEDAOBgNV
BAgMB01vbnRhbmExEDAOBgNVBAcMB0JvemVtYW4xFTATBgNVBAoMDHdvbGZTU0xf
MjA0ODEZMBcGA1UECwwQUHJvZ3JhbW1pbmctMjA0ODEYMBYGA1UEAwwPd3d3Lndv
bGZzc2wuY29tMR8wHQYJKoZIhvcNAQkBFhBpbmZvQHdvbGZzc2wuY29tFw0yNDEy
MTgyMTI1MzRaFw0yNzA5MTQyMTI1MzRaMBQwEgIBAhcNMjQxMjE4MjEyNTM0WqAO
MAwwCgYDVR0UBAMCAQgwDQYJKoZIhvcNAQELBQADggEBADZC3ssg3QrHOxygthhI
OjAlQFxCUC/ZDu3fZh+d2lv8BAxGtWgLF99CMhtXLdLKB2dUlyj8ts3mEhspCywD
6z8F0s6iCPjrFw9kIF0q6BZackW7pdH5+1DGt5dKHCWhzI1M36kfwKL1hp3BBEAa
sXVjBfFiYzjUXJDvmvp2ErMUgOoPZwtsIjkLVVnNNLGzYsUbiaGju3coQ8qeR6KE
DE+H8WJXTOeJEmq9adbjBxIDE3NwjTyXiWhKlfUzkvTe5lWfACKRcH/xmSQJhINl
F0qo7yz7SsqT36MjTl7WVjD3gJgJxi/WRmXfog287USeU96d4YQOiA5hPKRN5X1P
Hpw=
-----END X509 CRL-----
