Certificate Revocation List (CRL):
        Version 2 (0x1)
    Signature Algorithm: sha256WithRSAEncryption
        Issuer: /C=US/ST=Montana/L=Bozeman/O=wolfSSL/OU=Programming/CN=www.wolfssl.com/emailAddress=info@wolfssl.com
        Last Update: Jul 11 12:35:27 2014 GMT
        Next Update: Jul 11 12:35:27 2015 GMT
        CRL extensions:
            X509v3 CRL Number: 
                60
No Revoked Certificates.
    Signature Algorithm: sha256WithRSAEncryption
         b5:2c:96:cf:e1:f2:d6:f9:7f:9d:b3:ac:94:97:a4:5f:66:61:
         84:9b:c4:f6:d0:84:b2:01:de:17:4e:27:71:ef:76:e8:f6:1d:
         dd:0a:a1:1c:c7:d5:d3:ac:88:c8:37:63:42:56:1b:9f:05:fd:
         5e:14:35:18:9d:3c:e6:ab:ed:d1:43:d3:5e:e2:96:0e:4d:6e:
         39:34:0b:e8:ca:af:02:9b:69:3d:a5:6c:09:37:b3:f7:01:31:
         48:5d:39:0d:bc:4f:55:cc:99:29:4a:c7:02:e0:f6:1b:2f:d6:
         b1:e6:c2:4f:49:26:48:51:a6:91:a8:e0:5c:d5:1e:24:05:ee:
         cd:29:25:66:5b:a5:c7:26:70:9c:42:10:2e:a9:f9:5f:11:01:
         ef:22:a1:71:2d:15:b6:12:d2:dd:5c:5b:e3:2f:e9:0f:41:40:
         d5:3a:a8:64:33:7d:0f:74:2e:c2:67:6b:cd:1d:ce:b2:fd:07:
         0d:ae:72:79:b8:cd:6b:15:cc:6d:40:2b:9f:ad:79:21:7a:1b:
         15:39:63:4a:ab:1e:1e:90:1c:c7:bd:33:4e:55:26:5d:09:32:
         ec:75:80:0b:0e:bf:8c:d7:ca:d9:0e:af:aa:76:05:1c:a1:99:
         17:cc:65:08:0d:44:a7:24:2f:50:0d:93:d6:f2:19:6a:24:9b:
         ee:a6:87:93
-----BEGIN X509 CRL-----
MIIB7jCB1wIBATANBgkqhkiG9w0BAQsFADCBlDELMAkGA1UEBhMCVVMxEDAOBgNV
BAgMB01vbnRhbmExEDAOBgNVBAcMB0JvemVtYW4xEDAOBgNVBAoMB3dvbGZTU0wx
FDASBgNVBAsMC1Byb2dyYW1taW5nMRgwFgYDVQQDDA93d3cud29sZnNzbC5jb20x
HzAdBgkqhkiG9w0BCQEWEGluZm9Ad29sZnNzbC5jb20XDTE0MDcxMTEyMzUyN1oX
DTE1MDcxMTEyMzUyN1qgDjAMMAoGA1UdFAQDAgE8MA0GCSqGSIb3DQEBCwUAA4IB
AQC1LJbP4fLW+X+ds6yUl6RfZmGEm8T20ISyAd4XTidx73bo9h3dCqEcx9XTrIjI
N2NCVhufBf1eFDUYnTzmq+3RQ9Ne4pYOTW45NAvoyq8Cm2k9pWwJN7P3ATFIXTkN
vE9VzJkpSscC4PYbL9ax5sJPSSZIUaaRqOBc1R4kBe7NKSVmW6XHJnCcQhAuqflf
EQHvIqFxLRW2EtLdXFvjL+kPQUDVOqhkM30PdC7CZ2vNHc6y/QcNrnJ5uM1rFcxt
QCufrXkhehsVOWNKqx4ekBzHvTNOVSZdCTLsdYALDr+M18rZDq+qdgUcoZkXzGUI
DUSnJC9QDZPW8hlqJJvupoeT
-----END X509 CRL-----
