Certificate Revocation List (CRL):
        Version 2 (0x1)
        Signature Algorithm: sha1WithRSAEncryption
        Issuer: /C=US/ST=Oregon/L=Portland/O=yaSSL/OU=Programming/CN=www.yassl.com/emailAddress=info@yassl.com
        Last Update: May 18 17:37:23 2012 GMT
        Next Update: Jun 17 17:37:23 2012 GMT
        CRL extensions:
            X509v3 CRL Number: 
                1
No Revoked Certificates.
    Signature Algorithm: sha1WithRSAEncryption
        6b:d7:b2:9e:21:8a:04:e7:43:68:46:a7:36:eb:4e:6e:23:91:
        f9:e9:1f:f1:7f:48:79:64:cd:ea:86:1c:36:63:f8:aa:8c:b3:
        62:34:bb:18:28:5a:42:f7:8a:64:3e:7f:36:05:49:a2:29:38:
        71:e8:54:da:87:05:53:55:c3:0b:ae:10:0a:f0:5d:f0:6e:5c:
        26:8b:55:4f:8f:d2:08:41:42:21:8d:b7:f1:6d:22:d1:a0:04:
        9e:67:cb:43:51:55:e6:00:41:d0:cd:82:e8:03:42:29:88:49:
        e1:f4:8d:1e:e5:ad:18:8b:3a:60:aa:dc:47:33:9d:ce:79:41:
        0c:81:a9:cc:a7:a4:d9:07:3a:eb:df:41:34:ca:a6:b9:93:47:
        72:1d:c4:71:71:69:4b:4b:74:e4:2c:ff:91:f3:47:77:de:da:
        05:ab:de:05:57:6a:89:d6:f8:b2:f7:69:9b:a6:c6:e9:cd:c3:
        60:4a:79:66:62:3b:a1:f2:e2:44:9b:f2:31:44:94:46:f0:96:
        ab:b5:04:97:6b:09:82:64:8b:68:b0:73:46:ae:25:fa:33:ca:
        f4:ce:cb:35:7e:e2:23:a1:df:5f:70:40:b5:1d:cd:dd:b0:ff:
        20:6a:23:a1:ed:95:11:16:69:a0:ca:7e:90:c3:ed:be:5e:56:
        0a:da:04:e3
-----BEGIN X509 CRL-----
MIIB6DCB0QIBATANBgkqhkiG9w0BAQUFADCBjjELMAkGA1UEBhMCVVMxDzANBgNV
BAgTBk9yZWdvbjERMA8GA1UEBxMIUG9ydGxhbmQxDjAMBgNVBAoTBXlhU1NMMRQw
EgYDVQQLEwtQcm9ncmFtbWluZzEWMBQGA1UEAxMNd3d3Lnlhc3NsLmNvbTEdMBsG
CSqGSIb3DQEJARYOaW5mb0B5YXNzbC5jb20XDTEyMDUxODE3MzcyM1oXDTEyMDYx
NzE3MzcyM1qgDjAMMAoGA1UdFAQDAgEBMA0GCSqGSIb3DQEBBQUAA4IBAQBr17Ke
IYoE50NoRqc2605uI5H56R/xf0h5ZM3qhhw2Y/iqjLNiNLsYKFpC94pkPn82BUmi
KThx6FTahwVTVcMLrhAK8F3wblwmi1VPj9IIQUIhjbfxbSLRoASeZ8tDUVXmAEHQ
zYLoA0IpiEnh9I0e5a0YizpgqtxHM53OeUEMganMp6TZBzrr30E0yqa5k0dyHcRx
cWlLS3TkLP+R80d33toFq94FV2qJ1viy92mbpsbpzcNgSnlmYjuh8uJEm/IxRJRG
8JartQSXawmCZItosHNGriX6M8r0zss1fuIjod9fcEC1Hc3dsP8gaiOh7ZURFmmg
yn6Qw+2+XlYK2gTj
-----END X509 CRL-----
