Certificate Revocation List (CRL):
        Version 2 (0x1)
        Signature Algorithm: sha256WithRSAEncryption
        Issuer: C = US, ST = Montana, L = Bozeman, O = wolfSSL_2048, OU = Programming-2048, CN = www.wolfssl.com, emailAddress = info@wolfssl.com
        Last Update: Jun 19 13:23:42 2020 GMT
        Next Update: Mar 16 13:23:42 2023 GMT
        CRL extensions:
            X509v3 CRL Number: 
                6
Revoked Certificates:
    Serial Number: 02
        Revocation Date: Jun 19 13:23:42 2020 GMT
    Signature Algorithm: sha256WithRSAEncryption
         b2:ef:5c:b7:4d:69:54:de:fc:c1:bf:2e:0e:59:e1:ac:e1:a2:
         a7:64:bd:77:ac:83:9d:1e:b9:66:74:ee:d4:79:75:79:a6:5e:
         d9:a5:80:8a:47:6d:bc:2e:c7:60:5a:f1:39:8c:ff:63:f8:c8:
         b9:dd:8e:44:93:44:24:1c:82:fd:1b:47:da:a0:d4:85:c9:5b:
         46:5f:c9:47:93:fb:e1:9c:e0:16:4a:cd:90:bd:06:72:db:d7:
         2f:ef:10:88:ce:b2:38:65:97:03:02:c7:b2:33:ac:d3:46:97:
         62:b2:03:07:8f:72:43:ba:7c:f6:bb:79:77:d1:00:3b:82:ee:
         ea:0b:0d:a3:a1:b6:9c:3d:13:42:14:eb:a7:fb:3a:86:a3:4f:
         cb:bd:82:f4:e3:60:ae:9c:3b:55:6e:6e:9d:20:f0:18:39:a6:
         a9:73:ef:85:bd:06:cd:d5:c5:64:35:a8:2a:ca:d5:bb:17:0c:
         c5:38:12:b6:97:85:00:ae:c6:1c:a0:94:65:e9:cb:72:e3:6b:
         27:3d:c1:6a:78:dd:41:22:bc:74:cc:6c:e3:15:d5:04:b2:fb:
         12:13:6b:65:90:23:16:42:83:d5:84:56:d7:0b:c4:b7:3b:0d:
         ec:25:23:9e:a9:93:b8:16:e1:21:49:29:0e:78:56:29:16:24:
         e6:c1:f0:d3
-----BEGIN X509 CRL-----
MIICDjCB9wIBATANBgkqhkiG9w0BAQsFADCBnjELMAkGA1UEBhMCVVMxEDAOBgNV
BAgMB01vbnRhbmExEDAOBgNVBAcMB0JvemVtYW4xFTATBgNVBAoMDHdvbGZTU0xf
MjA0ODEZMBcGA1UECwwQUHJvZ3JhbW1pbmctMjA0ODEYMBYGA1UEAwwPd3d3Lndv
bGZzc2wuY29tMR8wHQYJKoZIhvcNAQkBFhBpbmZvQHdvbGZzc2wuY29tFw0yMDA2
MTkxMzIzNDJaFw0yMzAzMTYxMzIzNDJaMBQwEgIBAhcNMjAwNjE5MTMyMzQyWqAO
MAwwCgYDVR0UBAMCAQYwDQYJKoZIhvcNAQELBQADggEBALLvXLdNaVTe/MG/Lg5Z
4azhoqdkvXesg50euWZ07tR5dXmmXtmlgIpHbbwux2Ba8TmM/2P4yLndjkSTRCQc
gv0bR9qg1IXJW0ZfyUeT++Gc4BZKzZC9BnLb1y/vEIjOsjhllwMCx7IzrNNGl2Ky
AwePckO6fPa7eXfRADuC7uoLDaOhtpw9E0IU66f7OoajT8u9gvTjYK6cO1Vubp0g
8Bg5pqlz74W9Bs3VxWQ1qCrK1bsXDMU4EraXhQCuxhyglGXpy3Ljayc9wWp43UEi
vHTMbOMV1QSy+xITa2WQIxZCg9WEVtcLxLc7DewlI56pk7gW4SFJKQ54VikWJObB
8NM=
-----END X509 CRL-----
