Certificate Revocation List (CRL):
        Version 2 (0x1)
        Signature Algorithm: sha256WithRSAEncryption
        Issuer: C=US, ST=Montana, L=Bozeman, O=wolfSSL_2048, OU=Programming-2048, CN=www.wolfssl.com, emailAddress=facts@wolfssl.com
        Last Update: Jun 11 21:44:41 2026 GMT
        Next Update: Mar  7 21:44:41 2029 GMT
        CRL extensions:
            X509v3 CRL Number: 
                8
Revoked Certificates:
    Serial Number: 02
        Revocation Date: Jun 11 21:44:40 2026 GMT
    Signature Algorithm: sha256WithRSAEncryption
    Signature Value:
        7b:f8:00:07:62:1f:1e:af:ea:7f:38:7c:a2:87:6a:68:a3:72:
        3a:61:c2:3b:20:90:cc:ab:65:fd:ca:e2:aa:fe:cc:a4:c8:e5:
        39:b7:d0:c6:a5:1f:b1:96:93:47:e2:ea:18:69:3e:0f:82:e8:
        8e:50:72:d9:06:54:cf:5e:18:2a:1f:70:3b:ce:7c:a3:bc:da:
        5e:1e:bf:ff:04:05:e0:dc:1d:29:5b:a2:20:e7:f0:f6:e3:23:
        35:ad:4c:3b:26:a1:31:f6:35:23:13:aa:b5:8d:28:cf:60:7c:
        83:96:83:74:de:34:e1:7a:78:84:ea:08:73:09:0e:82:30:f0:
        18:82:29:8a:28:09:8c:38:bf:ad:4c:86:50:3e:95:bf:79:73:
        b4:d7:62:c0:4c:4c:42:ac:62:b4:42:3a:80:84:45:f9:0c:e2:
        f6:40:72:dc:3b:5b:63:15:8c:e8:8b:19:98:4d:19:6c:28:d2:
        61:44:1b:bd:3a:c5:2e:37:e1:66:96:09:08:f5:59:ff:47:a8:
        f9:48:d5:b4:1b:4d:e2:a9:be:e9:02:fa:0c:ba:3d:13:6d:9f:
        5e:08:bd:3e:a6:1e:bb:93:1f:11:16:b3:c7:b7:b6:24:f3:5a:
        90:f3:84:2c:52:3c:9c:7f:93:27:64:ac:9e:79:55:7d:e4:c0:
        08:e4:d4:34
-----BEGIN X509 CRL-----
MIICDzCB+AIBATANBgkqhkiG9w0BAQsFADCBnzELMAkGA1UEBhMCVVMxEDAOBgNV
BAgMB01vbnRhbmExEDAOBgNVBAcMB0JvemVtYW4xFTATBgNVBAoMDHdvbGZTU0xf
MjA0ODEZMBcGA1UECwwQUHJvZ3JhbW1pbmctMjA0ODEYMBYGA1UEAwwPd3d3Lndv
bGZzc2wuY29tMSAwHgYJKoZIhvcNAQkBFhFmYWN0c0B3b2xmc3NsLmNvbRcNMjYw
NjExMjE0NDQxWhcNMjkwMzA3MjE0NDQxWjAUMBICAQIXDTI2MDYxMTIxNDQ0MFqg
DjAMMAoGA1UdFAQDAgEIMA0GCSqGSIb3DQEBCwUAA4IBAQB7+AAHYh8er+p/OHyi
h2poo3I6YcI7IJDMq2X9yuKq/sykyOU5t9DGpR+xlpNH4uoYaT4PguiOUHLZBlTP
XhgqH3A7znyjvNpeHr//BAXg3B0pW6Ig5/D24yM1rUw7JqEx9jUjE6q1jSjPYHyD
loN03jTheniE6ghzCQ6CMPAYgimKKAmMOL+tTIZQPpW/eXO012LATExCrGK0QjqA
hEX5DOL2QHLcO1tjFYzoixmYTRlsKNJhRBu9OsUuN+FmlgkI9Vn/R6j5SNW0G03i
qb7pAvoMuj0TbZ9eCL0+ph67kx8RFrPHt7Yk81qQ84QsUjycf5MnZKyeeVV95MAI
5NQ0
-----END X509 CRL-----
