Certificate Revocation List (CRL):
        Version 2 (0x1)
    Signature Algorithm: sha1WithRSAEncryption
        Issuer: /C=US/ST=Oregon/L=Portland/O=yaSSL/OU=Programming/CN=www.yassl.com/emailAddress=info@yassl.com
        Last Update: Jun 17 21:32:30 2013 GMT
        Next Update: Dec 14 21:32:30 2013 GMT
        CRL extensions:
            X509v3 CRL Number: 
                87
No Revoked Certificates.
    Signature Algorithm: sha1WithRSAEncryption
         0f:16:d2:d6:62:f8:c0:db:b2:2c:de:9d:0a:10:72:0e:85:6e:
         25:1d:38:20:1b:d5:66:d9:d3:9e:0e:a6:9e:e8:60:20:1c:b5:
         c9:ab:09:c3:a5:d5:c3:91:a3:9a:ff:44:40:68:da:7b:da:4a:
         3c:15:17:89:0a:49:b9:af:b2:ac:f0:e2:b5:0e:4d:c0:22:d7:
         5e:c1:02:9e:f3:95:20:62:7c:88:d9:32:97:12:04:1a:6f:8c:
         d8:7b:9f:0c:1e:91:fe:98:52:17:de:f2:ee:7c:66:e7:db:91:
         99:7a:f7:09:c9:15:16:3d:a2:1c:13:af:ad:e0:70:b8:6b:e5:
         dc:8e:f8:b5:ec:ff:f7:88:1b:ce:46:eb:22:ff:10:2f:ea:53:
         f0:86:62:1a:ab:6f:4d:05:45:e8:5c:ba:b5:8d:0d:38:72:cd:
         df:a1:74:31:bb:ad:68:7d:56:be:d8:7e:7a:f5:ef:52:be:14:
         5c:6d:ed:b4:2a:c9:ab:97:ba:e8:93:c5:6b:79:66:c7:52:a8:
         0d:62:dc:cb:e2:4c:e6:53:f4:c3:5c:ce:47:0f:39:46:9a:cb:
         82:d9:98:7d:69:41:aa:ac:6a:7a:e9:02:c9:9b:77:59:7f:6a:
         90:54:10:8a:45:c7:49:5f:ca:be:66:6a:20:e1:cd:e8:10:09:
         30:7e:16:44
-----BEGIN X509 CRL-----
MIIB6DCB0QIBATANBgkqhkiG9w0BAQUFADCBjjELMAkGA1UEBhMCVVMxDzANBgNV
BAgTBk9yZWdvbjERMA8GA1UEBxMIUG9ydGxhbmQxDjAMBgNVBAoTBXlhU1NMMRQw
EgYDVQQLEwtQcm9ncmFtbWluZzEWMBQGA1UEAxMNd3d3Lnlhc3NsLmNvbTEdMBsG
CSqGSIb3DQEJARYOaW5mb0B5YXNzbC5jb20XDTEzMDYxNzIxMzIzMFoXDTEzMTIx
NDIxMzIzMFqgDjAMMAoGA1UdFAQDAgFXMA0GCSqGSIb3DQEBBQUAA4IBAQAPFtLW
YvjA27Is3p0KEHIOhW4lHTggG9Vm2dOeDqae6GAgHLXJqwnDpdXDkaOa/0RAaNp7
2ko8FReJCkm5r7Ks8OK1Dk3AItdewQKe85UgYnyI2TKXEgQab4zYe58MHpH+mFIX
3vLufGbn25GZevcJyRUWPaIcE6+t4HC4a+Xcjvi17P/3iBvORusi/xAv6lPwhmIa
q29NBUXoXLq1jQ04cs3foXQxu61ofVa+2H569e9SvhRcbe20Ksmrl7rok8VreWbH
UqgNYtzL4kzmU/TDXM5HDzlGmsuC2Zh9aUGqrGp66QLJm3dZf2qQVBCKRcdJX8q+
Zmog4c3oEAkwfhZE
-----END X509 CRL-----
