Certificate Revocation List (CRL):
        Version 2 (0x1)
    Signature Algorithm: sha1WithRSAEncryption
        Issuer: /C=US/ST=Montana/L=Bozeman/O=wolfSSL/OU=Programming/CN=www.wolfssl.com/emailAddress=info@wolfssl.com
        Last Update: Feb  5 06:33:30 2015 GMT
        Next Update: Nov  1 06:33:30 2017 GMT
        CRL extensions:
            X509v3 CRL Number: 
                3
No Revoked Certificates.
    Signature Algorithm: sha1WithRSAEncryption
         26:e3:36:93:9d:42:98:41:89:d5:9d:d7:e9:9f:e9:36:f7:93:
         f9:c8:52:ab:d7:9d:a7:61:e6:81:63:d3:6f:d1:40:de:aa:ee:
         71:13:da:32:a8:2f:a2:f4:54:7e:27:1e:19:11:03:82:91:f6:
         73:e8:82:6c:89:b3:d4:41:39:84:dd:71:2d:45:a5:b9:1f:7e:
         3d:82:1f:f6:a9:1a:7f:98:2d:1b:86:62:1c:46:20:9c:4b:e3:
         79:ef:d9:65:50:47:51:ad:40:89:1c:2b:a9:1e:5d:57:04:ec:
         4d:82:2a:bd:e1:10:fd:26:f2:48:5d:b5:95:ab:d1:65:a2:3a:
         12:60:2c:d0:4e:2f:08:83:1d:8e:c2:c1:05:5e:6c:fb:b5:7b:
         5b:6c:f2:14:4d:2e:fd:a4:e8:3d:9f:15:bf:b0:d4:00:31:49:
         3e:ce:1d:1f:f7:7e:66:09:c5:a5:d4:13:a1:a1:2b:2d:b2:fa:
         62:16:11:8f:5c:eb:ec:6f:5a:ad:55:bb:bd:65:75:0c:ea:5c:
         a5:3c:8c:8a:61:ae:94:68:11:53:d8:36:f1:96:aa:7e:b9:b3:
         90:b2:5b:50:d1:18:55:59:5a:89:7e:2e:3d:47:0f:67:08:f3:
         be:14:72:24:6f:a9:ef:4b:a1:0a:bb:89:7b:14:11:8d:1a:f2:
         91:46:8f:b5
-----BEGIN X509 CRL-----
MIIB7jCB1wIBATANBgkqhkiG9w0BAQUFADCBlDELMAkGA1UEBhMCVVMxEDAOBgNV
BAgMB01vbnRhbmExEDAOBgNVBAcMB0JvemVtYW4xEDAOBgNVBAoMB3dvbGZTU0wx
FDASBgNVBAsMC1Byb2dyYW1taW5nMRgwFgYDVQQDDA93d3cud29sZnNzbC5jb20x
HzAdBgkqhkiG9w0BCQEWEGluZm9Ad29sZnNzbC5jb20XDTE1MDIwNTA2MzMzMFoX
DTE3MTEwMTA2MzMzMFqgDjAMMAoGA1UdFAQDAgEDMA0GCSqGSIb3DQEBBQUAA4IB
AQAm4zaTnUKYQYnVndfpn+k295P5yFKr152nYeaBY9Nv0UDequ5xE9oyqC+i9FR+
Jx4ZEQOCkfZz6IJsibPUQTmE3XEtRaW5H349gh/2qRp/mC0bhmIcRiCcS+N579ll
UEdRrUCJHCupHl1XBOxNgiq94RD9JvJIXbWVq9FlojoSYCzQTi8Igx2OwsEFXmz7
tXtbbPIUTS79pOg9nxW/sNQAMUk+zh0f935mCcWl1BOhoSstsvpiFhGPXOvsb1qt
Vbu9ZXUM6lylPIyKYa6UaBFT2Dbxlqp+ubOQsltQ0RhVWVqJfi49Rw9nCPO+FHIk
b6nvS6EKu4l7FBGNGvKRRo+1
-----END X509 CRL-----
