Certificate Revocation List (CRL):
        Version 2 (0x1)
    Signature Algorithm: sha256WithRSAEncryption
        Issuer: /C=US/ST=Montana/L=Bozeman/O=wolfSSL_2048/OU=Programming-2048/CN=www.wolfssl.com/emailAddress=info@wolfssl.com
        Last Update: Nov 23 12:49:37 2015 GMT
        Next Update: Aug 19 12:49:37 2018 GMT
        CRL extensions:
            X509v3 CRL Number: 
                3
No Revoked Certificates.
    Signature Algorithm: sha256WithRSAEncryption
         09:be:cf:c6:43:19:57:e4:49:37:90:ae:a4:15:a7:a1:61:f4:
         4d:62:12:f4:62:da:05:49:f6:14:78:68:1a:75:11:ee:42:53:
         d2:83:32:87:40:d7:60:c2:1e:b6:b8:e4:87:a5:fb:ab:a9:df:
         40:4f:a0:f9:04:d3:c4:1e:52:d8:3b:c5:72:8f:df:da:02:16:
         c9:c7:0c:4b:45:8c:4a:9f:37:7b:ee:3b:7c:7b:b3:93:b2:22:
         b6:8c:83:8c:56:8f:c0:a6:5d:e8:3c:1a:af:5d:ae:b4:84:91:
         6c:96:03:04:32:3d:56:24:91:cf:b5:5d:d6:15:de:76:36:ea:
         7d:30:12:7e:56:ab:47:00:e9:fb:11:b7:89:da:60:32:54:64:
         8e:bb:09:59:ea:58:e2:08:40:85:ae:a6:4f:c9:1a:8b:31:32:
         b5:2a:54:c7:80:41:19:c9:7a:96:f8:8d:1d:7b:98:45:8f:fd:
         5d:ed:f5:88:b8:aa:77:1e:a4:07:29:5c:23:27:e9:89:29:a6:
         2d:76:30:a4:8b:c5:af:29:19:b7:1d:0a:c9:f8:cf:f9:0e:3f:
         a2:48:7f:84:29:1b:3b:f4:7a:51:6d:8e:4a:df:e6:e5:80:76:
         7e:a0:7d:a4:95:bb:df:6f:99:95:83:bd:79:5c:c2:5c:8d:8a:
         0e:97:ca:c8
-----BEGIN X509 CRL-----
MIIB+DCB4QIBATANBgkqhkiG9w0BAQsFADCBnjELMAkGA1UEBhMCVVMxEDAOBgNV
BAgMB01vbnRhbmExEDAOBgNVBAcMB0JvemVtYW4xFTATBgNVBAoMDHdvbGZTU0xf
MjA0ODEZMBcGA1UECwwQUHJvZ3JhbW1pbmctMjA0ODEYMBYGA1UEAwwPd3d3Lndv
bGZzc2wuY29tMR8wHQYJKoZIhvcNAQkBFhBpbmZvQHdvbGZzc2wuY29tFw0xNTEx
MjMxMjQ5MzdaFw0xODA4MTkxMjQ5MzdaoA4wDDAKBgNVHRQEAwIBAzANBgkqhkiG
9w0BAQsFAAOCAQEACb7PxkMZV+RJN5CupBWnoWH0TWIS9GLaBUn2FHhoGnUR7kJT
0oMyh0DXYMIetrjkh6X7q6nfQE+g+QTTxB5S2DvFco/f2gIWyccMS0WMSp83e+47
fHuzk7IitoyDjFaPwKZd6Dwar12utISRbJYDBDI9ViSRz7Vd1hXedjbqfTASflar
RwDp+xG3idpgMlRkjrsJWepY4ghAha6mT8kaizEytSpUx4BBGcl6lviNHXuYRY/9
Xe31iLiqdx6kBylcIyfpiSmmLXYwpIvFrykZtx0KyfjP+Q4/okh/hCkbO/R6UW2O
St/m5YB2fqB9pJW732+ZlYO9eVzCXI2KDpfKyA==
-----END X509 CRL-----
