Certificate Revocation List (CRL):
        Version 2 (0x1)
    Signature Algorithm: sha1WithRSAEncryption
        Issuer: /C=US/ST=Montana/L=Bozeman/O=wolfSSL/OU=Programming/CN=www.wolfssl.com/emailAddress=info@wolfssl.com
        Last Update: Feb  2 18:17:42 2015 GMT
        Next Update: Oct 29 18:17:42 2017 GMT
        CRL extensions:
            X509v3 CRL Number: 
                3
No Revoked Certificates.
    Signature Algorithm: sha1WithRSAEncryption
         3d:4b:e6:b5:04:8a:9c:26:d1:cb:c2:ce:12:bd:63:8e:23:91:
         23:48:51:b8:70:48:02:32:a4:6a:b7:83:6d:3d:83:76:c4:3d:
         a5:80:42:d7:72:94:3b:0d:e9:b2:9a:5f:47:56:2a:fa:b9:7f:
         46:0e:34:8f:e1:b5:47:1b:21:ca:ed:9a:eb:09:8a:d7:23:e8:
         f7:58:61:19:82:79:ac:21:7e:56:15:fa:f4:a4:ec:a8:54:ae:
         d7:33:e0:65:96:ff:d7:a9:f5:ad:a6:d4:83:ca:03:dd:92:f2:
         0a:e3:61:e2:7e:8e:3f:7f:67:80:4c:41:28:54:2c:c4:75:90:
         dd:88:fe:3b:a8:c0:e5:55:a3:7b:83:ab:82:b7:7e:63:6e:78:
         5e:bd:ee:08:e1:5f:41:b6:d3:89:c9:6c:26:55:c7:e0:dd:8a:
         e0:7f:cc:8c:7d:61:37:ab:32:0c:e2:0f:e0:64:80:a6:47:7b:
         31:db:8d:8d:fe:85:5c:bb:84:3d:66:10:ce:eb:f7:99:dd:7c:
         c9:e1:5c:ef:8e:17:6b:a5:c3:5c:55:bb:f3:b1:d6:74:47:94:
         1f:d6:bd:27:88:80:94:70:16:58:d0:ce:cf:ea:91:ef:f2:77:
         46:f2:5a:38:48:5c:d7:ba:fb:50:26:3f:2d:8e:b6:1a:92:09:
         e6:11:5e:71
-----BEGIN X509 CRL-----
MIIB7jCB1wIBATANBgkqhkiG9w0BAQUFADCBlDELMAkGA1UEBhMCVVMxEDAOBgNV
BAgMB01vbnRhbmExEDAOBgNVBAcMB0JvemVtYW4xEDAOBgNVBAoMB3dvbGZTU0wx
FDASBgNVBAsMC1Byb2dyYW1taW5nMRgwFgYDVQQDDA93d3cud29sZnNzbC5jb20x
HzAdBgkqhkiG9w0BCQEWEGluZm9Ad29sZnNzbC5jb20XDTE1MDIwMjE4MTc0MloX
DTE3MTAyOTE4MTc0MlqgDjAMMAoGA1UdFAQDAgEDMA0GCSqGSIb3DQEBBQUAA4IB
AQA9S+a1BIqcJtHLws4SvWOOI5EjSFG4cEgCMqRqt4NtPYN2xD2lgELXcpQ7Demy
ml9HVir6uX9GDjSP4bVHGyHK7ZrrCYrXI+j3WGEZgnmsIX5WFfr0pOyoVK7XM+Bl
lv/XqfWtptSDygPdkvIK42Hifo4/f2eATEEoVCzEdZDdiP47qMDlVaN7g6uCt35j
bnheve4I4V9BttOJyWwmVcfg3Yrgf8yMfWE3qzIM4g/gZICmR3sx242N/oVcu4Q9
ZhDO6/eZ3XzJ4VzvjhdrpcNcVbvzsdZ0R5Qf1r0niICUcBZY0M7P6pHv8ndG8lo4
SFzXuvtQJj8tjrYakgnmEV5x
-----END X509 CRL-----
