Certificate Revocation List (CRL):
        Version 2 (0x1)
        Signature Algorithm: sha256WithRSAEncryption
        Issuer: C = US, ST = Montana, L = Bozeman, O = wolfSSL_2048, OU = Programming-2048, CN = www.wolfssl.com, emailAddress = info@wolfssl.com
        Last Update: Dec 20 23:07:26 2021 GMT
        Next Update: Sep 15 23:07:26 2024 GMT
        CRL extensions:
            X509v3 CRL Number: 
                6
Revoked Certificates:
    Serial Number: 02
        Revocation Date: Dec 20 23:07:25 2021 GMT
    Signature Algorithm: sha256WithRSAEncryption
         98:e9:a5:58:02:d9:8d:4d:d6:f8:22:6c:80:43:d5:54:82:0d:
         dc:27:94:f8:b2:89:c5:4d:40:fa:03:fe:e7:4f:6f:36:41:f4:
         d1:03:6d:da:dd:f8:70:94:93:d5:25:1a:47:b5:aa:33:22:56:
         18:ac:d2:b4:f8:06:84:2c:ed:3d:df:7b:ee:0e:e2:50:ca:f5:
         cb:20:ee:dd:c3:81:db:29:b2:f4:bd:3b:27:29:a1:55:92:d8:
         4f:36:9b:ad:9c:83:b6:ef:a1:07:8e:8d:f8:22:01:c3:5a:fe:
         f4:7d:4a:27:48:bb:56:6d:7d:b5:cd:f2:0f:b5:df:59:bc:66:
         dd:4b:0a:c9:d2:51:7c:e4:69:5d:0d:04:60:1f:0e:b8:26:3f:
         dd:5f:2b:53:11:7b:d6:a8:0b:b5:70:15:61:43:5f:22:d3:88:
         77:04:28:a5:4c:ef:b5:b1:7d:04:c1:d2:92:cb:1f:3b:02:21:
         d0:0d:ae:5c:e9:d7:9c:7e:81:03:11:70:43:91:13:08:12:f5:
         8b:7d:d7:ff:bd:b8:ee:ef:d0:6b:76:7a:d9:11:48:a4:19:7e:
         d2:e1:c2:96:c0:cc:21:56:27:19:de:27:ed:06:f2:58:cf:d1:
         19:c0:56:70:aa:56:34:1c:e7:8f:9a:f5:96:c1:79:56:ab:b8:
         32:63:03:ec
-----BEGIN X509 CRL-----
MIICDjCB9wIBATANBgkqhkiG9w0BAQsFADCBnjELMAkGA1UEBhMCVVMxEDAOBgNV
BAgMB01vbnRhbmExEDAOBgNVBAcMB0JvemVtYW4xFTATBgNVBAoMDHdvbGZTU0xf
MjA0ODEZMBcGA1UECwwQUHJvZ3JhbW1pbmctMjA0ODEYMBYGA1UEAwwPd3d3Lndv
bGZzc2wuY29tMR8wHQYJKoZIhvcNAQkBFhBpbmZvQHdvbGZzc2wuY29tFw0yMTEy
MjAyMzA3MjZaFw0yNDA5MTUyMzA3MjZaMBQwEgIBAhcNMjExMjIwMjMwNzI1WqAO
MAwwCgYDVR0UBAMCAQYwDQYJKoZIhvcNAQELBQADggEBAJjppVgC2Y1N1vgibIBD
1VSCDdwnlPiyicVNQPoD/udPbzZB9NEDbdrd+HCUk9UlGke1qjMiVhis0rT4BoQs
7T3fe+4O4lDK9csg7t3DgdspsvS9OycpoVWS2E82m62cg7bvoQeOjfgiAcNa/vR9
SidIu1ZtfbXN8g+131m8Zt1LCsnSUXzkaV0NBGAfDrgmP91fK1MRe9aoC7VwFWFD
XyLTiHcEKKVM77WxfQTB0pLLHzsCIdANrlzp15x+gQMRcEOREwgS9Yt91/+9uO7v
0Gt2etkRSKQZftLhwpbAzCFWJxneJ+0G8ljP0RnAVnCqVjQc54+a9ZbBeVaruDJj
A+w=
-----END X509 CRL-----
