Certificate Revocation List (CRL):
        Version 2 (0x1)
        Signature Algorithm: sha256WithRSAEncryption
        Issuer: C=US, ST=Montana, L=Bozeman, O=wolfSSL_2048, OU=Programming-2048, CN=www.wolfssl.com, emailAddress=info@wolfssl.com
        Last Update: Nov 13 20:41:50 2025 GMT
        Next Update: Aug  9 20:41:50 2028 GMT
        CRL extensions:
            X509v3 CRL Number: 
                8
Revoked Certificates:
    Serial Number: 02
        Revocation Date: Nov 13 20:41:50 2025 GMT
    Signature Algorithm: sha256WithRSAEncryption
    Signature Value:
        7c:65:7b:3e:6a:80:89:e4:6e:ca:c4:cb:4c:ef:cb:be:79:3d:
        f5:66:b1:dc:c2:75:05:c4:e1:54:45:cb:c9:9d:2b:05:06:1b:
        6f:33:c7:8a:f9:57:e4:62:b8:53:1c:f2:4e:cc:b4:17:85:ed:
        77:fb:47:76:28:32:fd:00:0a:e1:fd:b7:fc:c6:a3:3d:58:38:
        cb:a9:c2:15:d2:97:da:e2:87:46:00:a1:c2:7b:f1:da:56:32:
        6e:9e:2e:43:88:28:88:34:99:32:8e:fe:36:5f:06:cf:76:68:
        6a:ad:11:1f:26:4a:d2:96:36:eb:78:f2:bf:43:c1:7a:9f:2c:
        a2:45:ce:bb:6b:ee:cf:19:29:f1:3c:86:f2:0e:39:a2:dd:85:
        7e:ac:b6:3d:17:46:6d:f0:d9:42:89:8b:e6:0e:ae:2d:a9:a7:
        81:d0:df:59:c5:ad:de:ac:4e:e6:66:6f:f8:fb:00:79:2b:94:
        f5:90:fa:b3:d3:22:8e:ba:48:00:2a:a9:29:55:f9:e9:a0:38:
        15:b3:6f:e7:ad:f9:90:9d:10:aa:92:15:69:0c:35:93:ef:f1:
        e2:2b:60:b4:8b:a2:90:c5:18:ff:76:a7:90:c7:02:26:8d:29:
        df:b7:40:82:d1:f9:a1:4a:a8:ae:22:a2:8e:c5:76:fe:32:c5:
        e7:57:b9:d2
-----BEGIN X509 CRL-----
MIICDjCB9wIBATANBgkqhkiG9w0BAQsFADCBnjELMAkGA1UEBhMCVVMxEDAOBgNV
BAgMB01vbnRhbmExEDAOBgNVBAcMB0JvemVtYW4xFTATBgNVBAoMDHdvbGZTU0xf
MjA0ODEZMBcGA1UECwwQUHJvZ3JhbW1pbmctMjA0ODEYMBYGA1UEAwwPd3d3Lndv
bGZzc2wuY29tMR8wHQYJKoZIhvcNAQkBFhBpbmZvQHdvbGZzc2wuY29tFw0yNTEx
MTMyMDQxNTBaFw0yODA4MDkyMDQxNTBaMBQwEgIBAhcNMjUxMTEzMjA0MTUwWqAO
MAwwCgYDVR0UBAMCAQgwDQYJKoZIhvcNAQELBQADggEBAHxlez5qgInkbsrEy0zv
y755PfVmsdzCdQXE4VRFy8mdKwUGG28zx4r5V+RiuFMc8k7MtBeF7Xf7R3YoMv0A
CuH9t/zGoz1YOMupwhXSl9rih0YAocJ78dpWMm6eLkOIKIg0mTKO/jZfBs92aGqt
ER8mStKWNut48r9DwXqfLKJFzrtr7s8ZKfE8hvIOOaLdhX6stj0XRm3w2UKJi+YO
ri2pp4HQ31nFrd6sTuZmb/j7AHkrlPWQ+rPTIo66SAAqqSlV+emgOBWzb+et+ZCd
EKqSFWkMNZPv8eIrYLSLopDFGP92p5DHAiaNKd+3QILR+aFKqK4ioo7Fdv4yxedX
udI=
-----END X509 CRL-----
