Certificate Revocation List (CRL):
        Version 2 (0x1)
    Signature Algorithm: sha1WithRSAEncryption
        Issuer: /C=US/ST=Oregon/L=Portland/O=yaSSL/OU=Programming/CN=www.yassl.com/emailAddress=info@yassl.com
        Last Update: Nov 29 19:30:37 2012 GMT
        Next Update: Mar 29 19:30:37 2013 GMT
        CRL extensions:
            X509v3 CRL Number: 
                67
No Revoked Certificates.
    Signature Algorithm: sha1WithRSAEncryption
         0b:96:11:a7:3c:a5:e7:08:ec:06:2b:19:1e:ec:9c:3c:4a:50:
         52:47:97:15:84:d3:e2:45:8b:14:ff:08:3f:50:e1:bf:89:c9:
         5c:38:2e:ab:e4:d1:97:c5:1f:73:13:6a:78:ac:b2:99:9f:c6:
         ee:f9:60:3f:ac:39:72:87:68:dc:b7:93:b4:17:5b:c9:c1:dc:
         e7:c6:0f:6d:14:87:30:3d:65:f5:6c:77:7e:d6:52:b4:22:19:
         6c:47:d5:77:a4:c0:ba:5e:2c:6b:d2:3a:5b:4d:ec:3f:84:35:
         7f:9a:bf:ae:eb:4f:0f:62:40:ea:4d:a9:ec:92:3f:02:6b:7d:
         f3:d5:d5:74:3d:41:b5:9f:6e:29:c5:59:0d:dc:50:ab:f4:1b:
         ef:4e:ad:75:fc:f0:37:e3:0f:47:89:a8:1e:d4:67:19:05:b6:
         91:51:c7:bc:bd:91:83:4b:7c:6d:ac:ca:f9:42:4f:f8:67:9a:
         0e:34:28:5e:27:25:20:86:86:74:ab:4b:e0:da:af:c1:db:45:
         e3:bc:91:83:3a:47:e9:0a:0b:55:44:96:81:77:6e:1a:c0:f8:
         bb:a6:b5:ed:4d:a7:50:8b:a5:95:a6:0b:24:15:bc:e4:c5:ec:
         3d:73:af:71:85:89:8d:c9:6e:af:38:13:0e:5d:a3:89:fc:e3:
         00:cc:85:93
-----BEGIN X509 CRL-----
MIIB6DCB0QIBATANBgkqhkiG9w0BAQUFADCBjjELMAkGA1UEBhMCVVMxDzANBgNV
BAgTBk9yZWdvbjERMA8GA1UEBxMIUG9ydGxhbmQxDjAMBgNVBAoTBXlhU1NMMRQw
EgYDVQQLEwtQcm9ncmFtbWluZzEWMBQGA1UEAxMNd3d3Lnlhc3NsLmNvbTEdMBsG
CSqGSIb3DQEJARYOaW5mb0B5YXNzbC5jb20XDTEyMTEyOTE5MzAzN1oXDTEzMDMy
OTE5MzAzN1qgDjAMMAoGA1UdFAQDAgFDMA0GCSqGSIb3DQEBBQUAA4IBAQALlhGn
PKXnCOwGKxke7Jw8SlBSR5cVhNPiRYsU/wg/UOG/iclcOC6r5NGXxR9zE2p4rLKZ
n8bu+WA/rDlyh2jct5O0F1vJwdznxg9tFIcwPWX1bHd+1lK0IhlsR9V3pMC6Xixr
0jpbTew/hDV/mr+u608PYkDqTanskj8Ca33z1dV0PUG1n24pxVkN3FCr9BvvTq11
/PA34w9Hiage1GcZBbaRUce8vZGDS3xtrMr5Qk/4Z5oONCheJyUghoZ0q0vg2q/B
20XjvJGDOkfpCgtVRJaBd24awPi7prXtTadQi6WVpgskFbzkxew9c69xhYmNyW6v
OBMOXaOJ/OMAzIWT
-----END X509 CRL-----
