Certificate Revocation List (CRL):
        Version 2 (0x1)
    Signature Algorithm: sha1WithRSAEncryption
        Issuer: /C=US/ST=Oregon/L=Portland/O=yaSSL/OU=Programming/CN=www.yassl.com/emailAddress=info@yassl.com
        Last Update: Feb  7 20:14:06 2014 GMT
        Next Update: Feb  7 20:14:06 2015 GMT
        CRL extensions:
            X509v3 CRL Number: 
                3
Revoked Certificates:
    Serial Number: 02
        Revocation Date: Feb  7 20:14:06 2014 GMT
    Signature Algorithm: sha1WithRSAEncryption
         36:33:8d:75:7a:2c:40:dc:e2:64:71:de:1d:06:b4:0e:d3:98:
         63:05:79:84:53:76:9b:aa:51:70:a1:3a:ab:12:f7:da:69:70:
         34:5b:4d:08:01:a6:3b:16:25:ac:3d:11:0c:80:94:bc:dc:b5:
         51:7c:84:11:65:d7:d2:24:16:f5:ac:11:0b:ea:72:62:4a:cb:
         83:c1:6c:96:ec:6b:ce:1f:26:88:89:8a:74:90:fb:d3:67:91:
         8c:f7:ef:0e:ca:81:39:22:89:1a:52:75:d0:13:ba:ee:83:0c:
         61:e9:b4:d8:f1:3f:80:77:29:d2:bb:7e:81:29:a8:fb:1f:ad:
         92:91:bd:e9:b8:29:3f:a3:ec:44:b5:09:e5:03:3c:1b:2d:df:
         4c:27:45:94:da:be:50:dd:b9:78:3f:1f:92:92:59:a5:ad:5a:
         ef:95:71:ff:ca:ff:db:70:53:17:aa:00:40:9b:4c:ff:fb:be:
         73:7a:8e:0f:07:9b:b9:14:fd:a4:b4:d7:79:4b:3e:ff:c6:90:
         ef:91:2e:a2:f3:ee:4b:1f:16:47:2a:a3:39:f9:b5:fd:74:fa:
         8f:c4:15:8d:77:7f:46:78:6f:ba:a5:4e:bc:63:8f:39:63:c9:
         68:3d:8f:02:3a:4a:d0:d5:c4:47:6a:2c:4d:6c:d5:e2:a7:5f:
         35:ba:65:e4
-----BEGIN X509 CRL-----
MIIB/jCB5wIBATANBgkqhkiG9w0BAQUFADCBjjELMAkGA1UEBhMCVVMxDzANBgNV
BAgTBk9yZWdvbjERMA8GA1UEBxMIUG9ydGxhbmQxDjAMBgNVBAoTBXlhU1NMMRQw
EgYDVQQLEwtQcm9ncmFtbWluZzEWMBQGA1UEAxMNd3d3Lnlhc3NsLmNvbTEdMBsG
CSqGSIb3DQEJARYOaW5mb0B5YXNzbC5jb20XDTE0MDIwNzIwMTQwNloXDTE1MDIw
NzIwMTQwNlowFDASAgECFw0xNDAyMDcyMDE0MDZaoA4wDDAKBgNVHRQEAwIBAzAN
BgkqhkiG9w0BAQUFAAOCAQEANjONdXosQNziZHHeHQa0DtOYYwV5hFN2m6pRcKE6
qxL32mlwNFtNCAGmOxYlrD0RDICUvNy1UXyEEWXX0iQW9awRC+pyYkrLg8Fsluxr
zh8miImKdJD702eRjPfvDsqBOSKJGlJ10BO67oMMYem02PE/gHcp0rt+gSmo+x+t
kpG96bgpP6PsRLUJ5QM8Gy3fTCdFlNq+UN25eD8fkpJZpa1a75Vx/8r/23BTF6oA
QJtM//u+c3qODwebuRT9pLTXeUs+/8aQ75EuovPuSx8WRyqjOfm1/XT6j8QVjXd/
RnhvuqVOvGOPOWPJaD2PAjpK0NXER2osTWzV4qdfNbpl5A==
-----END X509 CRL-----
