Certificate Revocation List (CRL):
        Version 2 (0x1)
        Signature Algorithm: sha256WithRSAEncryption
        Issuer: C = US, ST = Montana, L = Bozeman, O = wolfSSL_2048, OU = Programming-2048, CN = www.wolfssl.com, emailAddress = info@wolfssl.com
        Last Update: May  7 07:39:05 2020 GMT
        Next Update: Feb  1 07:39:05 2023 GMT
        CRL extensions:
            X509v3 CRL Number: 
                6
Revoked Certificates:
    Serial Number: 02
        Revocation Date: May  7 07:39:05 2020 GMT
    Signature Algorithm: sha256WithRSAEncryption
         5d:00:8f:fe:61:75:86:11:3a:50:ee:fe:9a:50:42:f6:20:5a:
         5e:4e:6a:01:41:66:da:18:63:65:80:48:b9:91:c1:c0:b5:a1:
         2d:85:89:4a:0c:ad:c6:99:21:ec:82:97:aa:e2:8f:b1:c3:11:
         1e:96:b4:bb:f8:ad:b3:9b:5c:b5:ab:a6:68:d0:a8:df:63:04:
         51:22:eb:01:cc:f1:2e:94:9f:a1:b1:9f:1b:c4:f7:5c:98:87:
         cd:cd:de:fe:d2:fe:f8:1d:24:10:67:75:2c:ec:3c:44:22:18:
         b8:6e:41:8e:1c:00:41:ca:a1:ed:28:c0:b9:20:9c:35:fa:de:
         f6:a3:b7:bd:4d:67:3f:50:f9:cd:a2:c3:5b:d9:0a:17:e9:75:
         a9:e8:25:f8:1c:ed:fa:09:f0:87:be:19:21:88:60:bc:f2:23:
         76:9f:96:42:fe:0b:de:10:be:91:29:14:12:70:e9:85:d9:93:
         fc:11:f9:c9:f3:eb:dc:0e:5f:7a:69:96:71:bf:eb:38:14:f3:
         21:d8:94:6f:9d:1c:2d:fc:56:45:20:7f:80:54:8b:cb:ae:f9:
         43:1a:99:95:a0:f0:9d:3c:ce:a3:cf:eb:c0:93:5c:df:19:69:
         b0:c7:f1:89:7c:29:29:31:1e:2b:6e:79:a0:a9:de:8e:ba:20:
         ba:17:8b:0c
-----BEGIN X509 CRL-----
MIICDjCB9wIBATANBgkqhkiG9w0BAQsFADCBnjELMAkGA1UEBhMCVVMxEDAOBgNV
BAgMB01vbnRhbmExEDAOBgNVBAcMB0JvemVtYW4xFTATBgNVBAoMDHdvbGZTU0xf
MjA0ODEZMBcGA1UECwwQUHJvZ3JhbW1pbmctMjA0ODEYMBYGA1UEAwwPd3d3Lndv
bGZzc2wuY29tMR8wHQYJKoZIhvcNAQkBFhBpbmZvQHdvbGZzc2wuY29tFw0yMDA1
MDcwNzM5MDVaFw0yMzAyMDEwNzM5MDVaMBQwEgIBAhcNMjAwNTA3MDczOTA1WqAO
MAwwCgYDVR0UBAMCAQYwDQYJKoZIhvcNAQELBQADggEBAF0Aj/5hdYYROlDu/ppQ
QvYgWl5OagFBZtoYY2WASLmRwcC1oS2FiUoMrcaZIeyCl6rij7HDER6WtLv4rbOb
XLWrpmjQqN9jBFEi6wHM8S6Un6GxnxvE91yYh83N3v7S/vgdJBBndSzsPEQiGLhu
QY4cAEHKoe0owLkgnDX63vajt71NZz9Q+c2iw1vZChfpdanoJfgc7foJ8Ie+GSGI
YLzyI3aflkL+C94QvpEpFBJw6YXZk/wR+cnz69wOX3pplnG/6zgU8yHYlG+dHC38
VkUgf4BUi8uu+UMamZWg8J08zqPP68CTXN8ZabDH8Yl8KSkxHitueaCp3o66ILoX
iww=
-----END X509 CRL-----
