Certificate Revocation List (CRL):
        Version 2 (0x1)
        Signature Algorithm: sha256WithRSAEncryption
        Issuer: C = US, ST = Montana, L = Bozeman, O = wolfSSL_2048, OU = Programming-2048, CN = www.wolfssl.com, emailAddress = info@wolfssl.com
        Last Update: Dec 13 22:19:33 2023 GMT
        Next Update: Sep  8 22:19:33 2026 GMT
        CRL extensions:
            X509v3 CRL Number: 
                8
Revoked Certificates:
    Serial Number: 02
        Revocation Date: Dec 13 22:19:33 2023 GMT
    Signature Algorithm: sha256WithRSAEncryption
         74:17:9b:40:81:d2:a0:f3:26:68:44:5b:f8:a2:6c:3f:7e:71:
         75:a2:7f:c6:e6:71:cb:f9:08:57:42:cd:3e:3f:ab:cd:0c:85:
         36:45:58:8b:59:28:81:d9:b0:6b:10:4a:d0:7d:59:ad:cf:53:
         05:cb:13:c7:c1:ec:65:64:6b:4d:e6:87:0b:ae:06:60:ab:8a:
         3c:ae:c1:7d:ed:8f:ee:09:02:7a:3a:f2:21:bf:89:ef:cd:14:
         b1:03:64:2d:b2:b6:45:15:da:2d:ee:2d:c0:15:3b:a8:01:a8:
         4f:30:61:ae:99:b9:16:07:b5:8b:71:8f:38:ac:69:82:39:90:
         92:ff:d6:41:33:3b:92:5b:f2:dd:56:5a:8f:82:d1:1f:76:ee:
         ca:01:a2:ac:c0:22:41:dd:6e:e1:ce:06:b0:6f:bc:e2:da:91:
         11:c1:a0:41:16:7d:ba:7e:a1:53:13:14:4b:54:3b:b9:44:cf:
         4f:1c:ef:ce:a8:bd:e8:ab:ba:de:97:f7:b7:7d:4f:ab:7a:e7:
         73:65:97:a1:d9:a3:f3:92:f1:95:06:6d:52:7b:6e:fd:26:56:
         55:83:c7:71:f7:a4:8f:9a:2c:52:04:dd:9f:85:ab:9c:88:e1:
         30:c6:4a:88:7d:20:1b:c6:47:8b:82:cc:9d:0f:51:69:b1:90:
         b2:8a:9c:74
-----BEGIN X509 CRL-----
MIICDjCB9wIBATANBgkqhkiG9w0BAQsFADCBnjELMAkGA1UEBhMCVVMxEDAOBgNV
BAgMB01vbnRhbmExEDAOBgNVBAcMB0JvemVtYW4xFTATBgNVBAoMDHdvbGZTU0xf
MjA0ODEZMBcGA1UECwwQUHJvZ3JhbW1pbmctMjA0ODEYMBYGA1UEAwwPd3d3Lndv
bGZzc2wuY29tMR8wHQYJKoZIhvcNAQkBFhBpbmZvQHdvbGZzc2wuY29tFw0yMzEy
MTMyMjE5MzNaFw0yNjA5MDgyMjE5MzNaMBQwEgIBAhcNMjMxMjEzMjIxOTMzWqAO
MAwwCgYDVR0UBAMCAQgwDQYJKoZIhvcNAQELBQADggEBAHQXm0CB0qDzJmhEW/ii
bD9+cXWif8bmccv5CFdCzT4/q80MhTZFWItZKIHZsGsQStB9Wa3PUwXLE8fB7GVk
a03mhwuuBmCrijyuwX3tj+4JAno68iG/ie/NFLEDZC2ytkUV2i3uLcAVO6gBqE8w
Ya6ZuRYHtYtxjzisaYI5kJL/1kEzO5Jb8t1WWo+C0R927soBoqzAIkHdbuHOBrBv
vOLakRHBoEEWfbp+oVMTFEtUO7lEz08c786oveirut6X97d9T6t653Nll6HZo/OS
8ZUGbVJ7bv0mVlWDx3H3pI+aLFIE3Z+Fq5yI4TDGSoh9IBvGR4uCzJ0PUWmxkLKK
nHQ=
-----END X509 CRL-----
