Certificate Revocation List (CRL):
        Version 2 (0x1)
        Signature Algorithm: sha256WithRSAEncryption
        Issuer: C = US, ST = Montana, L = Bozeman, O = wolfSSL_2048, OU = Programming-2048, CN = www.wolfssl.com, emailAddress = info@wolfssl.com
        Last Update: Sep 26 17:22:46 2023 GMT
        Next Update: Jun 22 17:22:46 2026 GMT
        CRL extensions:
            X509v3 CRL Number: 
                7
Revoked Certificates:
    Serial Number: 02
        Revocation Date: Sep 26 17:22:46 2023 GMT
    Signature Algorithm: sha256WithRSAEncryption
    Signature Value:
        a8:4f:bd:1a:b4:8d:e5:eb:3e:23:ae:32:9d:e5:a5:6a:6d:43:
        78:5c:f7:09:4d:72:3a:5a:5a:90:1c:06:62:83:9f:26:3b:b2:
        e0:6c:ed:9a:7c:67:a0:7f:0c:a6:ac:53:42:92:50:6c:f7:4e:
        5e:d9:3f:42:b7:33:45:f1:62:8f:3d:e7:bb:33:fe:a4:bb:b3:
        cf:de:0b:1a:14:c8:99:fa:32:3c:87:18:cf:d6:93:6a:86:68:
        f4:10:64:d3:b3:68:11:02:32:d6:7e:ee:14:bc:1f:02:98:00:
        fe:f2:ac:67:e6:fc:7b:f5:92:53:8b:96:a2:16:20:97:5b:b5:
        61:c6:a8:af:18:5d:55:f7:4c:cf:02:94:cf:08:16:51:cf:05:
        c5:46:de:8a:bd:58:56:32:ac:4e:77:3e:80:5c:a5:16:1e:27:
        61:10:0d:ed:0a:23:41:68:6a:32:9f:b8:56:0a:53:59:70:6a:
        b4:91:e8:63:89:49:a2:bb:d1:0a:0d:4a:d6:c5:3f:eb:83:47:
        ea:ab:d6:e5:80:bf:3d:ba:0a:cb:6b:4c:26:9a:a8:52:2e:c4:
        e2:76:3b:8c:5c:65:c9:f1:80:8c:64:19:0d:59:88:f6:ef:f6:
        0f:2a:4c:71:fc:3a:09:d6:82:04:c8:b1:dd:39:4a:3c:3b:b6:
        9f:2c:67:31
-----BEGIN X509 CRL-----
MIICDjCB9wIBATANBgkqhkiG9w0BAQsFADCBnjELMAkGA1UEBhMCVVMxEDAOBgNV
BAgMB01vbnRhbmExEDAOBgNVBAcMB0JvemVtYW4xFTATBgNVBAoMDHdvbGZTU0xf
MjA0ODEZMBcGA1UECwwQUHJvZ3JhbW1pbmctMjA0ODEYMBYGA1UEAwwPd3d3Lndv
bGZzc2wuY29tMR8wHQYJKoZIhvcNAQkBFhBpbmZvQHdvbGZzc2wuY29tFw0yMzA5
MjYxNzIyNDZaFw0yNjA2MjIxNzIyNDZaMBQwEgIBAhcNMjMwOTI2MTcyMjQ2WqAO
MAwwCgYDVR0UBAMCAQcwDQYJKoZIhvcNAQELBQADggEBAKhPvRq0jeXrPiOuMp3l
pWptQ3hc9wlNcjpaWpAcBmKDnyY7suBs7Zp8Z6B/DKasU0KSUGz3Tl7ZP0K3M0Xx
Yo8957sz/qS7s8/eCxoUyJn6MjyHGM/Wk2qGaPQQZNOzaBECMtZ+7hS8HwKYAP7y
rGfm/Hv1klOLlqIWIJdbtWHGqK8YXVX3TM8ClM8IFlHPBcVG3oq9WFYyrE53PoBc
pRYeJ2EQDe0KI0FoajKfuFYKU1lwarSR6GOJSaK70QoNStbFP+uDR+qr1uWAvz26
CstrTCaaqFIuxOJ2O4xcZcnxgIxkGQ1ZiPbv9g8qTHH8OgnWggTIsd05Sjw7tp8s
ZzE=
-----END X509 CRL-----
