Certificate Revocation List (CRL):
        Version 2 (0x1)
    Signature Algorithm: sha256WithRSAEncryption
        Issuer: /C=US/ST=Montana/L=Bozeman/O=wolfSSL_2048/OU=Programming-2048/CN=www.wolfssl.com/emailAddress=info@wolfssl.com
        Last Update: Apr 13 15:23:11 2018 GMT
        Next Update: Jan  7 15:23:11 2021 GMT
        CRL extensions:
            X509v3 CRL Number: 
                5
Revoked Certificates:
    Serial Number: 02
        Revocation Date: Apr 13 15:23:11 2018 GMT
    Signature Algorithm: sha256WithRSAEncryption
         2b:9e:c4:ff:03:1d:6c:76:08:5d:72:17:85:f6:26:0c:9a:b9:
         89:88:00:99:1e:2a:98:b0:0e:41:11:c0:c5:ed:c1:29:75:db:
         f2:41:4b:83:a6:17:95:cf:de:d5:03:85:f0:a9:be:25:68:a6:
         43:a3:35:79:e9:49:e4:27:d0:57:fb:cf:2e:01:67:9e:68:ba:
         ae:40:2c:87:ba:6f:3f:3c:5f:25:fa:71:f5:5d:79:71:44:8d:
         34:8f:56:de:dc:74:76:cd:67:14:8a:ab:0f:8d:8c:37:aa:4b:
         e6:bb:5f:c6:a1:23:46:f5:73:ab:42:c4:10:6f:66:57:4d:db:
         7a:0d:0d:4a:a1:bd:f6:8a:bf:9d:82:00:99:8f:51:87:b3:42:
         c3:3b:44:e2:e5:2c:a3:84:65:b7:5e:17:2d:7e:d2:81:6d:41:
         d6:36:62:24:f1:e0:a8:12:eb:2d:84:36:bd:c7:36:8a:10:e8:
         dd:09:de:b6:0f:3a:8a:d7:74:37:71:69:52:fb:b6:74:39:43:
         53:0e:18:c6:7c:09:5b:26:bb:59:f6:c1:db:dc:a2:1c:ee:64:
         36:dd:7a:49:f3:f5:53:7b:a0:f0:e7:91:af:03:cd:89:20:f4:
         1c:76:9b:3a:f0:15:4c:88:ab:86:82:c3:d2:90:5b:9f:f2:a6:
         4d:18:06:55
-----BEGIN X509 CRL-----
MIICDjCB9wIBATANBgkqhkiG9w0BAQsFADCBnjELMAkGA1UEBhMCVVMxEDAOBgNV
BAgMB01vbnRhbmExEDAOBgNVBAcMB0JvemVtYW4xFTATBgNVBAoMDHdvbGZTU0xf
MjA0ODEZMBcGA1UECwwQUHJvZ3JhbW1pbmctMjA0ODEYMBYGA1UEAwwPd3d3Lndv
bGZzc2wuY29tMR8wHQYJKoZIhvcNAQkBFhBpbmZvQHdvbGZzc2wuY29tFw0xODA0
MTMxNTIzMTFaFw0yMTAxMDcxNTIzMTFaMBQwEgIBAhcNMTgwNDEzMTUyMzExWqAO
MAwwCgYDVR0UBAMCAQUwDQYJKoZIhvcNAQELBQADggEBACuexP8DHWx2CF1yF4X2
JgyauYmIAJkeKpiwDkERwMXtwSl12/JBS4OmF5XP3tUDhfCpviVopkOjNXnpSeQn
0Ff7zy4BZ55ouq5ALIe6bz88XyX6cfVdeXFEjTSPVt7cdHbNZxSKqw+NjDeqS+a7
X8ahI0b1c6tCxBBvZldN23oNDUqhvfaKv52CAJmPUYezQsM7ROLlLKOEZbdeFy1+
0oFtQdY2YiTx4KgS6y2ENr3HNooQ6N0J3rYPOorXdDdxaVL7tnQ5Q1MOGMZ8CVsm
u1n2wdvcohzuZDbdeknz9VN7oPDnka8DzYkg9Bx2mzrwFUyIq4aCw9KQW5/ypk0Y
BlU=
-----END X509 CRL-----
