Certificate Revocation List (CRL):
        Version 2 (0x1)
        Signature Algorithm: sha256WithRSAEncryption
        Issuer: C = US, ST = Montana, L = Bozeman, O = wolfSSL_2048, OU = Programming-2048, CN = www.wolfssl.com, emailAddress = info@wolfssl.com
        Last Update: Jan  9 00:34:30 2024 GMT
        Next Update: Oct  5 00:34:30 2026 GMT
        CRL extensions:
            X509v3 CRL Number: 
                8
Revoked Certificates:
    Serial Number: 02
        Revocation Date: Jan  9 00:34:30 2024 GMT
    Signature Algorithm: sha256WithRSAEncryption
         52:11:97:57:04:d7:e2:14:1f:c4:7f:a2:d8:cf:4c:b7:5b:0c:
         d3:ac:ca:29:10:74:09:2f:3d:fb:4d:75:3e:32:21:5a:0f:41:
         5f:cc:e7:98:f8:ea:8e:e2:c9:57:60:b6:a3:b0:70:10:18:b9:
         86:a3:65:1e:3a:88:13:df:44:18:15:51:00:f6:33:d6:ab:90:
         18:93:df:ac:7d:15:5c:6a:63:55:d1:4d:41:37:03:89:86:65:
         fa:fb:d7:b1:73:db:c3:43:08:ff:89:94:89:b1:b4:ad:96:78:
         52:92:50:8c:0a:5d:ca:29:8b:e0:bc:ca:88:c0:7a:52:48:d3:
         cf:09:03:08:5f:a1:b9:16:b0:55:5e:11:60:7f:73:9a:98:05:
         54:97:bf:eb:0e:04:61:4f:b4:40:23:61:9a:07:69:78:fc:16:
         de:f4:54:04:cf:f0:2b:07:8d:51:9e:6b:b5:77:c4:13:2c:a3:
         40:99:ed:fa:f4:00:4a:45:36:da:52:9d:dc:88:66:3e:03:f0:
         20:ce:54:a4:56:58:a8:9e:30:78:e8:42:2d:a8:0f:9b:c4:a9:
         ab:13:c2:4e:ec:be:2e:99:16:56:2f:22:86:96:27:1d:30:80:
         7d:a5:f8:45:ef:93:b4:63:13:96:4f:6a:df:a0:11:3b:52:be:
         93:03:7a:81
-----BEGIN X509 CRL-----
MIICDjCB9wIBATANBgkqhkiG9w0BAQsFADCBnjELMAkGA1UEBhMCVVMxEDAOBgNV
BAgMB01vbnRhbmExEDAOBgNVBAcMB0JvemVtYW4xFTATBgNVBAoMDHdvbGZTU0xf
MjA0ODEZMBcGA1UECwwQUHJvZ3JhbW1pbmctMjA0ODEYMBYGA1UEAwwPd3d3Lndv
bGZzc2wuY29tMR8wHQYJKoZIhvcNAQkBFhBpbmZvQHdvbGZzc2wuY29tFw0yNDAx
MDkwMDM0MzBaFw0yNjEwMDUwMDM0MzBaMBQwEgIBAhcNMjQwMTA5MDAzNDMwWqAO
MAwwCgYDVR0UBAMCAQgwDQYJKoZIhvcNAQELBQADggEBAFIRl1cE1+IUH8R/otjP
TLdbDNOsyikQdAkvPftNdT4yIVoPQV/M55j46o7iyVdgtqOwcBAYuYajZR46iBPf
RBgVUQD2M9arkBiT36x9FVxqY1XRTUE3A4mGZfr717Fz28NDCP+JlImxtK2WeFKS
UIwKXcopi+C8yojAelJI088JAwhfobkWsFVeEWB/c5qYBVSXv+sOBGFPtEAjYZoH
aXj8Ft70VATP8CsHjVGea7V3xBMso0CZ7fr0AEpFNtpSndyIZj4D8CDOVKRWWKie
MHjoQi2oD5vEqasTwk7svi6ZFlYvIoaWJx0wgH2l+EXvk7RjE5ZPat+gETtSvpMD
eoE=
-----END X509 CRL-----
