Certificate Revocation List (CRL):
        Version 2 (0x1)
    Signature Algorithm: sha256WithRSAEncryption
        Issuer: /C=US/ST=Montana/L=Bozeman/O=Sawtooth/OU=Consulting/CN=www.wolfssl.com/emailAddress=info@wolfssl.com
        Last Update: Apr 13 15:23:11 2018 GMT
        Next Update: Jan  7 15:23:11 2021 GMT
        CRL extensions:
            X509v3 CRL Number: 
                2
Revoked Certificates:
    Serial Number: 01
        Revocation Date: Apr 13 15:23:11 2018 GMT
    Serial Number: 02
        Revocation Date: Apr 13 15:23:11 2018 GMT
    Signature Algorithm: sha256WithRSAEncryption
         35:8c:0d:51:3a:59:d5:2a:f3:da:b6:bc:1e:f6:3f:b3:6b:2d:
         d2:c0:e3:6a:1d:7f:c5:33:39:2a:be:1b:14:58:55:bd:3d:42:
         2a:62:7a:46:96:b6:0b:cc:b7:3d:5b:22:2d:fc:25:95:4b:9a:
         de:0d:df:fc:c1:95:72:dd:90:a0:86:ec:3b:6a:7a:30:96:4a:
         7d:e9:56:e3:0b:b2:7c:fd:01:c1:79:41:5d:53:3a:e2:a2:b5:
         29:7b:a2:d2:8e:10:c3:4c:3c:18:54:68:7e:25:1b:c2:2d:7e:
         7c:01:51:6b:57:cb:31:57:80:84:51:1c:da:45:43:4b:65:6c:
         26:e7:a1:b7:49:16:8c:e2:47:9f:3b:64:bd:b9:94:4a:ae:19:
         8b:1d:a8:a8:08:01:3b:c9:14:91:55:71:d6:68:87:0a:dd:bb:
         81:d6:0f:96:bc:91:64:98:28:a1:45:7c:50:d8:78:dd:7f:b7:
         81:6b:db:d6:cc:28:c5:d4:77:78:b9:d0:51:08:98:61:ff:fb:
         fe:aa:0a:ac:1e:4e:27:7b:c7:aa:0f:86:bd:1e:34:21:ba:e0:
         4b:ce:bc:65:1b:ec:e7:d0:4e:0f:cd:c1:ac:13:da:51:08:e3:
         11:d8:87:15:5d:f1:5f:f1:8b:7f:5d:5b:bd:24:5c:a8:13:24:
         6f:19:6d:8a
-----BEGIN X509 CRL-----
MIICGTCCAQECAQEwDQYJKoZIhvcNAQELBQAwgZQxCzAJBgNVBAYTAlVTMRAwDgYD
VQQIDAdNb250YW5hMRAwDgYDVQQHDAdCb3plbWFuMREwDwYDVQQKDAhTYXd0b290
aDETMBEGA1UECwwKQ29uc3VsdGluZzEYMBYGA1UEAwwPd3d3LndvbGZzc2wuY29t
MR8wHQYJKoZIhvcNAQkBFhBpbmZvQHdvbGZzc2wuY29tFw0xODA0MTMxNTIzMTFa
Fw0yMTAxMDcxNTIzMTFaMCgwEgIBARcNMTgwNDEzMTUyMzExWjASAgECFw0xODA0
MTMxNTIzMTFaoA4wDDAKBgNVHRQEAwIBAjANBgkqhkiG9w0BAQsFAAOCAQEANYwN
UTpZ1Srz2ra8HvY/s2st0sDjah1/xTM5Kr4bFFhVvT1CKmJ6Rpa2C8y3PVsiLfwl
lUua3g3f/MGVct2QoIbsO2p6MJZKfelW4wuyfP0BwXlBXVM64qK1KXui0o4Qw0w8
GFRofiUbwi1+fAFRa1fLMVeAhFEc2kVDS2VsJueht0kWjOJHnztkvbmUSq4Zix2o
qAgBO8kUkVVx1miHCt27gdYPlryRZJgooUV8UNh43X+3gWvb1swoxdR3eLnQUQiY
Yf/7/qoKrB5OJ3vHqg+GvR40IbrgS868ZRvs59BOD83BrBPaUQjjEdiHFV3xX/GL
f11bvSRcqBMkbxltig==
-----END X509 CRL-----
