Certificate Revocation List (CRL):
        Version 2 (0x1)
    Signature Algorithm: sha256WithRSAEncryption
        Issuer: /C=US/ST=Montana/L=Bozeman/O=Sawtooth/OU=Consulting/CN=www.wolfssl.com/emailAddress=info@wolfssl.com
        Last Update: Nov 23 12:49:37 2015 GMT
        Next Update: Aug 19 12:49:37 2018 GMT
        CRL extensions:
            X509v3 CRL Number: 
                2
Revoked Certificates:
    Serial Number: 01
        Revocation Date: Nov 23 12:49:37 2015 GMT
    Serial Number: 02
        Revocation Date: Nov 23 12:49:37 2015 GMT
    Signature Algorithm: sha256WithRSAEncryption
         33:65:94:a5:92:9f:6e:21:0f:75:3a:d2:05:f5:5e:f2:ef:8c:
         85:5f:a1:27:d3:25:41:06:e3:fd:76:54:86:c8:cf:ed:b3:99:
         e9:9b:de:e9:b4:b5:59:7a:79:98:77:3a:1a:08:d9:08:fc:ad:
         b1:22:67:c8:86:03:24:db:61:e7:0d:92:57:8f:71:e9:59:c7:
         42:8a:ec:03:ff:0e:c1:c3:bb:59:06:db:14:70:5b:21:c2:19:
         3a:52:ab:e6:15:19:32:42:f7:db:90:7e:d8:3f:f3:e6:70:61:
         b7:ba:56:6c:c7:a8:9b:2e:43:a7:de:f8:25:99:e4:2b:d8:fb:
         5c:c3:43:a6:d9:4e:cd:7b:7c:e4:6f:8d:12:80:de:92:1d:73:
         c5:41:8d:9a:ca:e7:ac:c4:49:71:9d:be:44:f0:a3:e5:e7:62:
         3e:9e:ce:41:9c:2c:0d:27:f9:4d:1b:03:18:5e:4b:04:71:46:
         5f:9e:8f:2e:b4:46:84:ee:09:bd:82:a8:01:26:59:31:1a:b0:
         b3:79:73:67:06:c3:85:a3:6f:69:99:e0:35:67:8a:20:bb:c7:
         4e:ac:c4:76:50:1b:43:47:89:b9:85:e0:bc:fc:21:1c:dc:0b:
         4b:14:46:e0:2f:81:e2:75:04:ff:5f:d9:ed:65:38:1d:d8:5f:
         58:a0:21:7a
-----BEGIN X509 CRL-----
MIICGTCCAQECAQEwDQYJKoZIhvcNAQELBQAwgZQxCzAJBgNVBAYTAlVTMRAwDgYD
VQQIDAdNb250YW5hMRAwDgYDVQQHDAdCb3plbWFuMREwDwYDVQQKDAhTYXd0b290
aDETMBEGA1UECwwKQ29uc3VsdGluZzEYMBYGA1UEAwwPd3d3LndvbGZzc2wuY29t
MR8wHQYJKoZIhvcNAQkBFhBpbmZvQHdvbGZzc2wuY29tFw0xNTExMjMxMjQ5Mzda
Fw0xODA4MTkxMjQ5MzdaMCgwEgIBARcNMTUxMTIzMTI0OTM3WjASAgECFw0xNTEx
MjMxMjQ5MzdaoA4wDDAKBgNVHRQEAwIBAjANBgkqhkiG9w0BAQsFAAOCAQEAM2WU
pZKfbiEPdTrSBfVe8u+MhV+hJ9MlQQbj/XZUhsjP7bOZ6Zve6bS1WXp5mHc6GgjZ
CPytsSJnyIYDJNth5w2SV49x6VnHQorsA/8OwcO7WQbbFHBbIcIZOlKr5hUZMkL3
25B+2D/z5nBht7pWbMeomy5Dp974JZnkK9j7XMNDptlOzXt85G+NEoDekh1zxUGN
msrnrMRJcZ2+RPCj5ediPp7OQZwsDSf5TRsDGF5LBHFGX56PLrRGhO4JvYKoASZZ
MRqws3lzZwbDhaNvaZngNWeKILvHTqzEdlAbQ0eJuYXgvPwhHNwLSxRG4C+B4nUE
/1/Z7WU4HdhfWKAheg==
-----END X509 CRL-----
