Certificate Revocation List (CRL):
        Version 2 (0x1)
        Signature Algorithm: sha256WithRSAEncryption
        Issuer: C=US, ST=Montana, L=Bozeman, O=Sawtooth, OU=Consulting, CN=www.wolfssl.com, emailAddress=info@wolfssl.com
        Last Update: Nov 13 20:41:50 2025 GMT
        Next Update: Aug  9 20:41:50 2028 GMT
        CRL extensions:
            X509v3 CRL Number: 
                2
Revoked Certificates:
    Serial Number: 02
        Revocation Date: Nov 13 20:41:50 2025 GMT
    Signature Algorithm: sha256WithRSAEncryption
    Signature Value:
        b7:0d:1c:78:99:1c:e8:0b:d9:33:a2:95:01:ad:cf:35:e9:86:
        28:7f:49:6b:93:76:c1:70:08:61:aa:77:57:34:af:45:82:78:
        5d:3b:7b:67:ca:b4:fb:d1:68:13:be:34:94:84:2d:65:ad:97:
        52:69:1d:67:ea:8e:a7:ff:21:0f:21:6c:8c:75:7f:c7:50:c5:
        6b:a5:fd:cd:3f:91:64:7b:5e:0f:4a:9c:c8:cd:39:a0:30:ad:
        80:27:50:e0:a7:bf:19:68:cf:6b:26:75:51:14:77:5a:62:6d:
        bc:66:1a:90:f7:00:09:34:c7:d0:9d:81:f3:b5:9f:90:40:02:
        8d:3f:68:7f:0d:1d:c5:00:32:e5:cf:42:35:1c:b6:eb:02:a8:
        d7:2a:a7:f3:f1:10:e2:d5:9e:41:de:2f:78:7d:7f:ad:68:06:
        a0:6d:40:96:dd:35:59:4d:a0:d3:bd:2e:ba:b6:75:f8:1c:43:
        b9:c0:b7:75:c4:38:59:46:00:71:ab:5a:df:f5:62:e9:ac:2b:
        76:11:4f:1b:42:2c:dd:b2:38:6e:57:cf:c5:75:67:4c:3e:27:
        bb:4c:d5:09:2c:4a:13:3d:8b:9c:89:76:b7:bd:73:1b:64:50:
        ea:d5:13:0e:51:48:d8:43:08:93:00:85:8f:2f:08:ad:0d:aa:
        d6:6c:f8:3d
-----BEGIN X509 CRL-----
MIICBDCB7QIBATANBgkqhkiG9w0BAQsFADCBlDELMAkGA1UEBhMCVVMxEDAOBgNV
BAgMB01vbnRhbmExEDAOBgNVBAcMB0JvemVtYW4xETAPBgNVBAoMCFNhd3Rvb3Ro
MRMwEQYDVQQLDApDb25zdWx0aW5nMRgwFgYDVQQDDA93d3cud29sZnNzbC5jb20x
HzAdBgkqhkiG9w0BCQEWEGluZm9Ad29sZnNzbC5jb20XDTI1MTExMzIwNDE1MFoX
DTI4MDgwOTIwNDE1MFowFDASAgECFw0yNTExMTMyMDQxNTBaoA4wDDAKBgNVHRQE
AwIBAjANBgkqhkiG9w0BAQsFAAOCAQEAtw0ceJkc6AvZM6KVAa3PNemGKH9Ja5N2
wXAIYap3VzSvRYJ4XTt7Z8q0+9FoE740lIQtZa2XUmkdZ+qOp/8hDyFsjHV/x1DF
a6X9zT+RZHteD0qcyM05oDCtgCdQ4Ke/GWjPayZ1URR3WmJtvGYakPcACTTH0J2B
87WfkEACjT9ofw0dxQAy5c9CNRy26wKo1yqn8/EQ4tWeQd4veH1/rWgGoG1Alt01
WU2g070uurZ1+BxDucC3dcQ4WUYAcata3/Vi6awrdhFPG0Is3bI4blfPxXVnTD4n
u0zVCSxKEz2LnIl2t71zG2RQ6tUTDlFI2EMIkwCFjy8IrQ2q1mz4PQ==
-----END X509 CRL-----
