Certificate Revocation List (CRL):
        Version 2 (0x1)
        Signature Algorithm: sha256WithRSAEncryption
        Issuer: C = US, ST = Montana, L = Bozeman, O = Sawtooth, OU = Consulting, CN = www.wolfssl.com, emailAddress = info@wolfssl.com
        Last Update: Dec 13 22:19:33 2023 GMT
        Next Update: Sep  8 22:19:33 2026 GMT
        CRL extensions:
            X509v3 CRL Number: 
                3
Revoked Certificates:
    Serial Number: 01
        Revocation Date: Dec 13 22:19:33 2023 GMT
    Serial Number: 02
        Revocation Date: Dec 13 22:19:33 2023 GMT
    Signature Algorithm: sha256WithRSAEncryption
         72:6e:a4:64:36:6b:e8:e0:c5:1d:98:ef:ab:7e:7a:14:f2:8d:
         99:d0:57:4b:76:ac:f4:89:60:cd:89:23:9d:01:34:f3:83:e5:
         82:21:b3:48:c4:42:25:7f:ea:9f:74:5f:e8:b8:d6:71:bb:a2:
         39:d8:ef:46:a8:13:ba:7d:44:ab:d6:13:65:18:de:b5:03:85:
         a7:c6:4f:0a:a0:6a:78:ba:7b:f7:ce:6e:ba:1c:ef:6f:b1:04:
         a8:ac:c6:de:3b:76:77:3e:3d:8b:ae:8b:2b:7e:c9:4f:77:31:
         7f:1f:f5:04:2c:e9:cf:a1:56:c2:59:e9:be:49:9f:e8:67:a3:
         42:66:05:21:02:64:82:b2:74:a7:4b:89:89:7d:43:1a:41:fd:
         53:8c:d6:4f:27:04:2a:48:6b:9e:62:fa:4a:42:83:22:53:3f:
         53:07:4f:bc:cd:8d:8d:cc:15:c6:ff:3c:af:7d:db:ab:dd:fa:
         8f:65:86:86:2a:89:5e:3f:d5:4b:39:80:78:3f:6e:38:3b:6d:
         a5:5e:2c:9e:1d:2f:9c:62:12:b1:34:f2:95:64:37:dc:4b:20:
         dc:27:f3:de:81:67:b2:04:b0:14:b9:47:e3:65:e3:2f:35:27:
         c2:fc:22:db:24:bd:04:58:88:17:e3:42:3c:a5:ef:53:39:15:
         54:52:ac:a1
-----BEGIN X509 CRL-----
MIICGTCCAQECAQEwDQYJKoZIhvcNAQELBQAwgZQxCzAJBgNVBAYTAlVTMRAwDgYD
VQQIDAdNb250YW5hMRAwDgYDVQQHDAdCb3plbWFuMREwDwYDVQQKDAhTYXd0b290
aDETMBEGA1UECwwKQ29uc3VsdGluZzEYMBYGA1UEAwwPd3d3LndvbGZzc2wuY29t
MR8wHQYJKoZIhvcNAQkBFhBpbmZvQHdvbGZzc2wuY29tFw0yMzEyMTMyMjE5MzNa
Fw0yNjA5MDgyMjE5MzNaMCgwEgIBARcNMjMxMjEzMjIxOTMzWjASAgECFw0yMzEy
MTMyMjE5MzNaoA4wDDAKBgNVHRQEAwIBAzANBgkqhkiG9w0BAQsFAAOCAQEAcm6k
ZDZr6ODFHZjvq356FPKNmdBXS3as9IlgzYkjnQE084PlgiGzSMRCJX/qn3Rf6LjW
cbuiOdjvRqgTun1Eq9YTZRjetQOFp8ZPCqBqeLp7985uuhzvb7EEqKzG3jt2dz49
i66LK37JT3cxfx/1BCzpz6FWwlnpvkmf6GejQmYFIQJkgrJ0p0uJiX1DGkH9U4zW
TycEKkhrnmL6SkKDIlM/UwdPvM2NjcwVxv88r33bq936j2WGhiqJXj/VSzmAeD9u
ODttpV4snh0vnGISsTTylWQ33Esg3Cfz3oFnsgSwFLlH42XjLzUnwvwi2yS9BFiI
F+NCPKXvUzkVVFKsoQ==
-----END X509 CRL-----
