Certificate Revocation List (CRL):
        Version 2 (0x1)
    Signature Algorithm: sha256WithRSAEncryption
        Issuer: /C=US/ST=Montana/L=Bozeman/O=Sawtooth/OU=Consulting/CN=www.wolfssl.com/emailAddress=info@wolfssl.com
        Last Update: Jul 23 22:05:10 2015 GMT
        Next Update: Apr 18 22:05:10 2018 GMT
        CRL extensions:
            X509v3 CRL Number: 
                1
Revoked Certificates:
    Serial Number: 02
        Revocation Date: Jul 23 22:05:10 2015 GMT
    Signature Algorithm: sha256WithRSAEncryption
         68:55:84:c7:53:54:06:ea:3e:f2:d0:3d:e6:30:84:d5:12:82:
         55:5b:4c:74:60:49:5d:4f:73:cd:cc:5f:42:bf:0d:93:93:a6:
         81:60:9d:0c:7f:c6:75:f0:77:77:1f:81:cf:02:4a:7f:2e:e3:
         1b:c4:b0:eb:0f:25:53:3d:78:7b:3e:8f:16:5e:37:c6:fd:f5:
         93:bb:9a:d7:f1:78:eb:78:9f:5d:44:85:e0:5e:14:8b:b5:2b:
         c5:af:23:43:82:27:0b:db:de:12:4a:1a:23:a7:f3:d9:3a:3f:
         6f:23:e2:53:a0:ef:1e:b5:f2:da:c8:00:d2:f0:57:78:af:5d:
         e3:8e:c4:06:27:7d:3d:ee:04:06:96:7a:9b:34:d9:e9:bc:a3:
         2d:6c:01:36:c4:5d:bf:c5:7f:74:f3:bb:55:75:ff:a1:a9:66:
         cc:b2:e0:a0:f6:0b:05:e1:ac:69:42:3f:df:b4:dd:8f:37:5c:
         f5:09:4f:a7:c3:d6:ae:a2:c6:63:f3:ed:03:df:3c:ee:58:c1:
         45:e8:85:7b:99:aa:fc:7d:ae:69:94:b9:50:0a:76:7d:b9:fd:
         74:55:b8:b1:37:75:7d:f7:e6:1a:91:cd:68:b6:49:37:cb:c8:
         e1:69:57:1b:c6:ef:ec:0a:fa:d3:72:92:95:ec:f1:c1:c3:53:
         7d:fb:d0:66
-----BEGIN X509 CRL-----
MIICBDCB7QIBATANBgkqhkiG9w0BAQsFADCBlDELMAkGA1UEBhMCVVMxEDAOBgNV
BAgMB01vbnRhbmExEDAOBgNVBAcMB0JvemVtYW4xETAPBgNVBAoMCFNhd3Rvb3Ro
MRMwEQYDVQQLDApDb25zdWx0aW5nMRgwFgYDVQQDDA93d3cud29sZnNzbC5jb20x
HzAdBgkqhkiG9w0BCQEWEGluZm9Ad29sZnNzbC5jb20XDTE1MDcyMzIyMDUxMFoX
DTE4MDQxODIyMDUxMFowFDASAgECFw0xNTA3MjMyMjA1MTBaoA4wDDAKBgNVHRQE
AwIBATANBgkqhkiG9w0BAQsFAAOCAQEAaFWEx1NUBuo+8tA95jCE1RKCVVtMdGBJ
XU9zzcxfQr8Nk5OmgWCdDH/GdfB3dx+BzwJKfy7jG8Sw6w8lUz14ez6PFl43xv31
k7ua1/F463ifXUSF4F4Ui7Urxa8jQ4InC9veEkoaI6fz2To/byPiU6DvHrXy2sgA
0vBXeK9d447EBid9Pe4EBpZ6mzTZ6byjLWwBNsRdv8V/dPO7VXX/oalmzLLgoPYL
BeGsaUI/37Tdjzdc9QlPp8PWrqLGY/PtA9887ljBReiFe5mq/H2uaZS5UAp2fbn9
dFW4sTd1fffmGpHNaLZJN8vI4WlXG8bv7Ar603KSlezxwcNTffvQZg==
-----END X509 CRL-----
