Certificate Revocation List (CRL):
        Version 2 (0x1)
        Signature Algorithm: sha256WithRSAEncryption
        Issuer: C = US, ST = Montana, L = Bozeman, O = Sawtooth, OU = Consulting, CN = www.wolfssl.com, emailAddress = info@wolfssl.com
        Last Update: Dec 18 21:25:34 2024 GMT
        Next Update: Sep 14 21:25:34 2027 GMT
        CRL extensions:
            X509v3 CRL Number: 
                3
Revoked Certificates:
    Serial Number: 01
        Revocation Date: Dec 18 21:25:34 2024 GMT
    Serial Number: 02
        Revocation Date: Dec 18 21:25:34 2024 GMT
    Signature Algorithm: sha256WithRSAEncryption
    Signature Value:
        8b:62:fa:68:b7:84:a7:0d:ac:47:bb:92:e7:e2:9a:a5:e3:2b:
        ba:7a:af:06:8e:b2:3d:7d:42:48:66:78:e0:e4:f3:f4:0a:b1:
        75:50:fe:02:30:ce:60:2d:ce:7d:2b:0d:31:02:02:a1:f3:be:
        7b:08:75:c4:bb:2d:a3:d1:23:21:22:c7:72:0e:b7:7e:17:f6:
        21:5d:aa:fd:cf:b0:b6:56:6d:80:8d:72:a5:25:82:5a:5b:5d:
        b5:90:06:47:1a:d7:15:9a:64:10:96:24:b0:06:40:bc:fe:26:
        ec:05:be:99:32:2e:ba:87:b2:a8:0e:7f:5e:3e:23:14:19:c5:
        e7:16:b7:b8:79:f0:6b:be:20:64:b9:89:4e:69:0f:51:54:5f:
        55:82:75:cc:e1:61:00:e9:7f:19:35:16:80:d1:80:39:0c:2b:
        59:12:c6:27:de:68:1c:40:5f:e8:7d:68:ea:9c:30:75:5b:47:
        4e:2e:78:4a:1d:37:ec:7f:b8:34:ba:cb:57:f8:ae:5e:cc:fa:
        ba:66:be:13:5a:08:2b:37:e6:ac:ce:bf:22:82:9c:73:11:5b:
        84:80:07:a7:2c:43:54:bf:1c:6a:55:d1:d2:02:28:35:4f:40:
        8e:0e:c4:8c:dd:2d:01:40:e1:f9:f1:c3:ed:f3:82:9f:4c:ed:
        30:aa:48:10
-----BEGIN X509 CRL-----
MIICGTCCAQECAQEwDQYJKoZIhvcNAQELBQAwgZQxCzAJBgNVBAYTAlVTMRAwDgYD
VQQIDAdNb250YW5hMRAwDgYDVQQHDAdCb3plbWFuMREwDwYDVQQKDAhTYXd0b290
aDETMBEGA1UECwwKQ29uc3VsdGluZzEYMBYGA1UEAwwPd3d3LndvbGZzc2wuY29t
MR8wHQYJKoZIhvcNAQkBFhBpbmZvQHdvbGZzc2wuY29tFw0yNDEyMTgyMTI1MzRa
Fw0yNzA5MTQyMTI1MzRaMCgwEgIBARcNMjQxMjE4MjEyNTM0WjASAgECFw0yNDEy
MTgyMTI1MzRaoA4wDDAKBgNVHRQEAwIBAzANBgkqhkiG9w0BAQsFAAOCAQEAi2L6
aLeEpw2sR7uS5+KapeMrunqvBo6yPX1CSGZ44OTz9AqxdVD+AjDOYC3OfSsNMQIC
ofO+ewh1xLsto9EjISLHcg63fhf2IV2q/c+wtlZtgI1ypSWCWltdtZAGRxrXFZpk
EJYksAZAvP4m7AW+mTIuuoeyqA5/Xj4jFBnF5xa3uHnwa74gZLmJTmkPUVRfVYJ1
zOFhAOl/GTUWgNGAOQwrWRLGJ95oHEBf6H1o6pwwdVtHTi54Sh037H+4NLrLV/iu
Xsz6uma+E1oIKzfmrM6/IoKccxFbhIAHpyxDVL8calXR0gIoNU9Ajg7EjN0tAUDh
+fHD7fOCn0ztMKpIEA==
-----END X509 CRL-----
