Certificate Revocation List (CRL):
        Version 2 (0x1)
    Signature Algorithm: sha1WithRSAEncryption
        Issuer: /C=US/ST=Montana/L=Bozeman/O=Sawtooth/OU=Consulting/CN=www.wolfssl.com/emailAddress=info@wolfssl.com
        Last Update: Feb  2 18:17:42 2015 GMT
        Next Update: Oct 29 18:17:42 2017 GMT
        CRL extensions:
            X509v3 CRL Number: 
                1
No Revoked Certificates.
    Signature Algorithm: sha1WithRSAEncryption
         78:4e:6d:3d:25:58:cf:eb:b5:7c:c3:3b:79:af:45:b8:8c:84:
         36:61:0e:b0:66:63:3b:7e:0f:f0:2a:09:6d:70:1b:5f:c6:ae:
         9d:42:c7:1f:d5:86:5c:7e:c5:63:e5:11:99:4b:42:a3:8e:40:
         07:93:27:83:01:ec:5e:a8:1a:88:d3:4d:41:9d:f4:10:e6:57:
         33:b9:6c:7b:ba:01:cc:17:6a:4b:2f:4f:20:39:2a:21:b9:15:
         b4:a5:60:ca:f0:92:af:0b:bc:a1:df:06:b0:7a:49:d4:2c:0a:
         46:a5:0c:20:a6:00:7e:58:4a:5c:2a:44:c3:f0:31:9e:d0:e3:
         ec:be:41:69:dc:32:f3:b3:a5:52:25:ed:5e:ad:3e:f9:38:65:
         55:72:65:61:7a:0c:2d:11:84:f7:b4:b4:36:f4:ba:fa:5f:b3:
         a0:8a:09:6f:06:44:74:ac:40:f2:60:9e:37:96:68:49:fc:d1:
         2c:1d:98:1f:e1:d3:48:22:85:64:49:b2:05:2a:cf:47:b4:15:
         3d:e6:ae:d8:83:6e:e7:34:d3:fe:9b:89:b0:3d:cf:7e:3e:bf:
         75:7f:27:0d:cb:7b:63:a7:69:d1:31:8f:7f:99:b2:34:f8:09:
         60:37:2d:db:1c:65:5f:77:e5:e6:0d:a8:0c:ee:57:a6:65:df:
         98:3b:07:b8
-----BEGIN X509 CRL-----
MIIB7jCB1wIBATANBgkqhkiG9w0BAQUFADCBlDELMAkGA1UEBhMCVVMxEDAOBgNV
BAgMB01vbnRhbmExEDAOBgNVBAcMB0JvemVtYW4xETAPBgNVBAoMCFNhd3Rvb3Ro
MRMwEQYDVQQLDApDb25zdWx0aW5nMRgwFgYDVQQDDA93d3cud29sZnNzbC5jb20x
HzAdBgkqhkiG9w0BCQEWEGluZm9Ad29sZnNzbC5jb20XDTE1MDIwMjE4MTc0MloX
DTE3MTAyOTE4MTc0MlqgDjAMMAoGA1UdFAQDAgEBMA0GCSqGSIb3DQEBBQUAA4IB
AQB4Tm09JVjP67V8wzt5r0W4jIQ2YQ6wZmM7fg/wKgltcBtfxq6dQscf1YZcfsVj
5RGZS0KjjkAHkyeDAexeqBqI001BnfQQ5lczuWx7ugHMF2pLL08gOSohuRW0pWDK
8JKvC7yh3waweknULApGpQwgpgB+WEpcKkTD8DGe0OPsvkFp3DLzs6VSJe1erT75
OGVVcmVhegwtEYT3tLQ29Lr6X7OgiglvBkR0rEDyYJ43lmhJ/NEsHZgf4dNIIoVk
SbIFKs9HtBU95q7Yg27nNNP+m4mwPc9+Pr91fycNy3tjp2nRMY9/mbI0+AlgNy3b
HGVfd+XmDagM7lemZd+YOwe4
-----END X509 CRL-----
