Certificate Revocation List (CRL):
        Version 2 (0x1)
    Signature Algorithm: sha256WithRSAEncryption
        Issuer: /C=US/ST=Montana/L=Bozeman/O=Sawtooth/OU=Consulting/CN=www.wolfssl.com/emailAddress=info@wolfssl.com
        Last Update: Jul 22 16:17:45 2015 GMT
        Next Update: Apr 17 16:17:45 2018 GMT
        CRL extensions:
            X509v3 CRL Number: 
                6
Revoked Certificates:
    Serial Number: 02
        Revocation Date: Jul 22 16:17:45 2015 GMT
    Signature Algorithm: sha256WithRSAEncryption
         7c:5c:fe:a6:cb:e9:78:ed:10:48:59:4a:e6:d9:96:68:ea:30:
         43:ba:b8:99:d1:8b:96:5e:d9:52:4c:58:3f:c1:d4:98:f1:20:
         46:02:0f:a3:25:7b:9c:06:c7:3d:5a:f1:00:bf:d2:d6:70:5c:
         45:ee:dc:fa:22:58:36:f2:14:06:c4:18:c9:b4:f8:ff:54:56:
         cf:ff:71:00:cd:a1:9a:3c:52:dc:6f:a6:c1:fa:67:2f:a9:4d:
         7e:f7:da:c0:4c:29:34:53:8d:27:31:02:ad:05:35:3e:7d:8d:
         ea:f7:2a:f8:57:cb:7f:da:27:54:3d:0b:c4:69:a7:40:8f:b3:
         cb:fe:dc:76:90:57:aa:62:23:22:61:8a:d5:aa:f4:43:aa:30:
         bd:9d:97:df:84:58:7c:f1:d6:78:9d:a9:4f:69:7a:a2:b5:0f:
         a2:61:d0:53:93:ea:d1:0f:35:ea:d4:49:09:a1:53:7d:64:ed:
         2a:c0:f3:78:d6:ad:07:38:01:56:d5:bb:66:cc:02:e7:a4:f6:
         9f:65:64:98:f8:db:0d:ed:fc:29:2e:f6:e5:e9:d8:d7:68:97:
         84:05:99:8e:e2:ad:1c:e6:ba:0d:05:46:5c:9a:6f:60:69:b3:
         03:d1:af:b9:3c:52:de:08:48:20:1a:3c:86:49:a8:06:49:b8:
         03:da:ba:89
-----BEGIN X509 CRL-----
MIICBDCB7QIBATANBgkqhkiG9w0BAQsFADCBlDELMAkGA1UEBhMCVVMxEDAOBgNV
BAgMB01vbnRhbmExEDAOBgNVBAcMB0JvemVtYW4xETAPBgNVBAoMCFNhd3Rvb3Ro
MRMwEQYDVQQLDApDb25zdWx0aW5nMRgwFgYDVQQDDA93d3cud29sZnNzbC5jb20x
HzAdBgkqhkiG9w0BCQEWEGluZm9Ad29sZnNzbC5jb20XDTE1MDcyMjE2MTc0NVoX
DTE4MDQxNzE2MTc0NVowFDASAgECFw0xNTA3MjIxNjE3NDVaoA4wDDAKBgNVHRQE
AwIBBjANBgkqhkiG9w0BAQsFAAOCAQEAfFz+psvpeO0QSFlK5tmWaOowQ7q4mdGL
ll7ZUkxYP8HUmPEgRgIPoyV7nAbHPVrxAL/S1nBcRe7c+iJYNvIUBsQYybT4/1RW
z/9xAM2hmjxS3G+mwfpnL6lNfvfawEwpNFONJzECrQU1Pn2N6vcq+FfLf9onVD0L
xGmnQI+zy/7cdpBXqmIjImGK1ar0Q6owvZ2X34RYfPHWeJ2pT2l6orUPomHQU5Pq
0Q816tRJCaFTfWTtKsDzeNatBzgBVtW7ZswC56T2n2VkmPjbDe38KS725enY12iX
hAWZjuKtHOa6DQVGXJpvYGmzA9GvuTxS3ghIIBo8hkmoBkm4A9q6iQ==
-----END X509 CRL-----
