Certificate Revocation List (CRL):
        Version 2 (0x1)
        Signature Algorithm: sha1WithRSAEncryption
        Issuer: /C=US/ST=Montana/L=Bozeman/O=Sawtooth/OU=Consulting/CN=www.yassl.com/emailAddress=info@yassl.com
        Last Update: May 18 23:22:13 2012 GMT
        Next Update: Jun 17 23:22:13 2012 GMT
        CRL extensions:
            X509v3 CRL Number: 
                5
No Revoked Certificates.
    Signature Algorithm: sha1WithRSAEncryption
        aa:c2:16:c6:7c:cf:4e:ee:f4:44:af:cf:66:ce:b9:af:89:1b:
        83:e4:0b:cf:67:68:95:32:9f:ee:80:60:1e:93:82:4c:c6:d3:
        93:90:c7:cd:7c:31:90:d0:f3:4f:4a:db:d2:ad:99:d5:38:fb:
        ba:a6:3d:52:79:ce:6c:15:e5:dc:c0:57:43:f8:56:13:39:b9:
        c1:af:e3:a3:fb:79:18:82:e7:b6:99:5a:4f:5f:88:b8:9e:5c:
        54:ef:87:06:a7:bb:c7:64:08:b0:9a:32:f7:12:88:b7:f2:af:
        35:5c:10:89:43:52:36:4e:90:55:25:c7:0e:5d:13:45:73:b5:
        22:79:9f:62:b7:15:a6:2f:9a:02:a6:95:fc:a5:1d:bb:e3:c1:
        fc:6a:49:db:21:fb:d5:19:68:9c:bc:08:af:bf:4f:58:87:bc:
        34:fb:46:7a:60:e4:5c:8f:cf:da:a9:23:ab:f5:e1:e8:18:41:
        fb:d0:5d:2d:b1:8c:80:1b:67:0f:eb:77:7d:53:39:9b:f4:e7:
        a9:49:ff:94:39:8f:e4:5e:4b:a9:46:62:b6:17:28:1d:8f:30:
        1c:19:5e:99:d3:4f:56:0d:5a:73:03:52:45:f4:5f:0d:af:e1:
        dd:e1:f3:6f:6b:d9:94:48:4d:7e:6e:9d:f2:98:57:2c:03:56:
        cb:5a:b5:3a
-----BEGIN X509 CRL-----
MIIB6jCB0wIBATANBgkqhkiG9w0BAQUFADCBkDELMAkGA1UEBhMCVVMxEDAOBgNV
BAgTB01vbnRhbmExEDAOBgNVBAcTB0JvemVtYW4xETAPBgNVBAoTCFNhd3Rvb3Ro
MRMwEQYDVQQLEwpDb25zdWx0aW5nMRYwFAYDVQQDEw13d3cueWFzc2wuY29tMR0w
GwYJKoZIhvcNAQkBFg5pbmZvQHlhc3NsLmNvbRcNMTIwNTE4MjMyMjEzWhcNMTIw
NjE3MjMyMjEzWqAOMAwwCgYDVR0UBAMCAQUwDQYJKoZIhvcNAQEFBQADggEBAKrC
FsZ8z07u9ESvz2bOua+JG4PkC89naJUyn+6AYB6TgkzG05OQx818MZDQ809K29Kt
mdU4+7qmPVJ5zmwV5dzAV0P4VhM5ucGv46P7eRiC57aZWk9fiLieXFTvhwanu8dk
CLCaMvcSiLfyrzVcEIlDUjZOkFUlxw5dE0VztSJ5n2K3FaYvmgKmlfylHbvjwfxq
Sdsh+9UZaJy8CK+/T1iHvDT7Rnpg5FyPz9qpI6v14egYQfvQXS2xjIAbZw/rd31T
OZv056lJ/5Q5j+ReS6lGYrYXKB2PMBwZXpnTT1YNWnMDUkX0Xw2v4d3h829r2ZRI
TX5unfKYVywDVstatTo=
-----END X509 CRL-----
