Certificate Revocation List (CRL):
        Version 2 (0x1)
        Signature Algorithm: sha256WithRSAEncryption
        Issuer: C = US, ST = Montana, L = Bozeman, O = Sawtooth, OU = Consulting, CN = www.wolfssl.com, emailAddress = info@wolfssl.com
        Last Update: Jan  9 00:34:30 2024 GMT
        Next Update: Oct  5 00:34:30 2026 GMT
        CRL extensions:
            X509v3 CRL Number: 
                3
Revoked Certificates:
    Serial Number: 01
        Revocation Date: Jan  9 00:34:30 2024 GMT
    Serial Number: 02
        Revocation Date: Jan  9 00:34:30 2024 GMT
    Signature Algorithm: sha256WithRSAEncryption
         35:50:96:da:71:71:90:d5:b7:37:5a:a6:b9:09:07:2f:af:c9:
         e0:02:32:6a:43:6e:20:ec:20:a4:ac:d0:39:a9:19:35:d0:d2:
         6f:bb:d1:cd:46:10:a7:cb:8a:be:0a:02:a2:91:f5:29:74:ee:
         34:83:a3:8c:a0:ca:39:af:94:4a:23:d7:56:57:6b:cc:c6:eb:
         b0:ce:9f:0a:e1:b0:a8:12:6b:6a:8b:21:73:22:6f:49:41:cd:
         fd:85:44:d1:fa:52:6b:2f:b2:2b:02:e7:43:0e:f1:92:bc:15:
         8f:22:28:49:25:69:93:d8:50:10:2f:93:e2:f5:b0:31:5c:eb:
         1a:35:e2:40:83:25:87:55:4d:c0:85:06:37:9e:23:44:80:a1:
         f9:e2:eb:9c:90:28:7a:71:d8:55:a2:8b:70:32:31:33:26:70:
         fe:1d:11:d5:4b:c1:04:47:19:59:44:8f:0b:0a:ec:d6:62:40:
         8a:6f:67:2e:6a:50:38:54:35:c9:f8:d5:ec:e8:ae:93:88:3d:
         a0:40:81:2c:e0:fe:f7:c8:68:24:8e:41:04:88:af:94:82:97:
         75:e5:69:4c:22:1d:f9:67:53:a3:4c:a3:db:bf:55:08:e7:3a:
         07:67:a2:28:25:63:af:f8:0e:c7:d3:c1:77:ef:20:20:20:63:
         9e:5c:22:81
-----BEGIN X509 CRL-----
MIICGTCCAQECAQEwDQYJKoZIhvcNAQELBQAwgZQxCzAJBgNVBAYTAlVTMRAwDgYD
VQQIDAdNb250YW5hMRAwDgYDVQQHDAdCb3plbWFuMREwDwYDVQQKDAhTYXd0b290
aDETMBEGA1UECwwKQ29uc3VsdGluZzEYMBYGA1UEAwwPd3d3LndvbGZzc2wuY29t
MR8wHQYJKoZIhvcNAQkBFhBpbmZvQHdvbGZzc2wuY29tFw0yNDAxMDkwMDM0MzBa
Fw0yNjEwMDUwMDM0MzBaMCgwEgIBARcNMjQwMTA5MDAzNDMwWjASAgECFw0yNDAx
MDkwMDM0MzBaoA4wDDAKBgNVHRQEAwIBAzANBgkqhkiG9w0BAQsFAAOCAQEANVCW
2nFxkNW3N1qmuQkHL6/J4AIyakNuIOwgpKzQOakZNdDSb7vRzUYQp8uKvgoCopH1
KXTuNIOjjKDKOa+USiPXVldrzMbrsM6fCuGwqBJraoshcyJvSUHN/YVE0fpSay+y
KwLnQw7xkrwVjyIoSSVpk9hQEC+T4vWwMVzrGjXiQIMlh1VNwIUGN54jRICh+eLr
nJAoenHYVaKLcDIxMyZw/h0R1UvBBEcZWUSPCwrs1mJAim9nLmpQOFQ1yfjV7Oiu
k4g9oECBLOD+98hoJI5BBIivlIKXdeVpTCId+WdTo0yj279VCOc6B2eiKCVjr/gO
x9PBd+8gICBjnlwigQ==
-----END X509 CRL-----
