Certificate Revocation List (CRL):
        Version 2 (0x1)
        Signature Algorithm: sha256WithRSAEncryption
        Issuer: C = US, ST = Montana, L = Bozeman, O = Sawtooth, OU = Consulting, CN = www.wolfssl.com, emailAddress = info@wolfssl.com
        Last Update: May  7 07:39:05 2020 GMT
        Next Update: Feb  1 07:39:05 2023 GMT
        CRL extensions:
            X509v3 CRL Number: 
                3
Revoked Certificates:
    Serial Number: 01
        Revocation Date: May  7 07:39:05 2020 GMT
    Serial Number: 02
        Revocation Date: May  7 07:39:05 2020 GMT
    Signature Algorithm: sha256WithRSAEncryption
         a5:88:b2:03:e0:41:99:61:7a:aa:9a:1a:91:2c:1e:06:7a:18:
         a5:6f:ab:42:63:58:d1:aa:b6:b9:9e:28:a2:28:9b:94:4b:ba:
         06:06:ad:dc:98:03:8c:40:07:43:e7:e9:ca:ea:d8:13:67:bd:
         4d:e3:77:c7:df:4f:e2:30:45:85:58:1b:a2:f4:08:4e:4b:45:
         04:9e:fd:1d:67:f3:aa:6c:16:2e:48:d1:bd:ea:1d:06:a2:9b:
         e9:5a:74:ba:df:e2:e5:a4:1e:7e:d9:9c:7a:77:5e:16:3f:cc:
         10:c0:66:9c:c0:c3:d7:97:17:bf:c4:67:80:4d:5d:2e:84:84:
         da:84:03:a9:62:4e:54:1e:5e:7c:42:7f:db:49:d5:aa:c2:e1:
         c2:67:87:55:d7:9b:68:83:99:0d:1f:7d:93:56:ab:a6:43:41:
         15:10:56:02:51:d1:20:66:ac:7a:64:09:82:77:bd:80:2f:fa:
         09:5d:ce:29:61:ed:b0:f2:f8:44:ea:ce:b9:d9:7f:c2:2f:06:
         e4:fa:a8:20:d4:09:89:11:4e:9b:46:f3:a7:3b:8f:b6:32:3b:
         92:57:13:15:4a:af:a0:de:1d:c4:32:de:c3:f4:94:34:da:49:
         e7:b6:9d:8e:bf:50:94:9f:4d:9e:04:54:4a:96:bc:d8:25:f0:
         8a:f5:f4:93
-----BEGIN X509 CRL-----
MIICGTCCAQECAQEwDQYJKoZIhvcNAQELBQAwgZQxCzAJBgNVBAYTAlVTMRAwDgYD
VQQIDAdNb250YW5hMRAwDgYDVQQHDAdCb3plbWFuMREwDwYDVQQKDAhTYXd0b290
aDETMBEGA1UECwwKQ29uc3VsdGluZzEYMBYGA1UEAwwPd3d3LndvbGZzc2wuY29t
MR8wHQYJKoZIhvcNAQkBFhBpbmZvQHdvbGZzc2wuY29tFw0yMDA1MDcwNzM5MDVa
Fw0yMzAyMDEwNzM5MDVaMCgwEgIBARcNMjAwNTA3MDczOTA1WjASAgECFw0yMDA1
MDcwNzM5MDVaoA4wDDAKBgNVHRQEAwIBAzANBgkqhkiG9w0BAQsFAAOCAQEApYiy
A+BBmWF6qpoakSweBnoYpW+rQmNY0aq2uZ4ooiiblEu6Bgat3JgDjEAHQ+fpyurY
E2e9TeN3x99P4jBFhVgbovQITktFBJ79HWfzqmwWLkjRveodBqKb6Vp0ut/i5aQe
ftmcendeFj/MEMBmnMDD15cXv8RngE1dLoSE2oQDqWJOVB5efEJ/20nVqsLhwmeH
VdebaIOZDR99k1arpkNBFRBWAlHRIGasemQJgne9gC/6CV3OKWHtsPL4ROrOudl/
wi8G5PqoINQJiRFOm0bzpzuPtjI7klcTFUqvoN4dxDLew/SUNNpJ57adjr9QlJ9N
ngRUSpa82CXwivX0kw==
-----END X509 CRL-----
