Certificate Revocation List (CRL):
        Version 2 (0x1)
    Signature Algorithm: sha1WithRSAEncryption
        Issuer: /C=US/ST=Montana/L=Bozeman/O=Sawtooth/OU=Consulting/CN=www.yassl.com/emailAddress=info@yassl.com
        Last Update: Jun 17 21:32:30 2013 GMT
        Next Update: Dec 14 21:32:30 2013 GMT
        CRL extensions:
            X509v3 CRL Number: 
                85
No Revoked Certificates.
    Signature Algorithm: sha1WithRSAEncryption
         4d:9c:63:22:02:91:fe:52:35:93:7c:b6:5b:e8:86:5a:29:a2:
         4d:9a:bc:d9:16:e0:8a:04:90:4d:ae:21:00:be:9c:81:5b:68:
         6e:90:1a:fd:1a:37:70:85:50:f2:02:87:1c:38:f4:ef:9d:41:
         f5:4f:53:66:d4:c0:22:80:00:82:7a:09:42:49:c3:1c:c9:4c:
         9f:92:f9:66:f4:21:1f:24:67:4f:83:6a:bd:3a:19:f1:04:99:
         ea:30:05:bf:a7:3d:bf:71:ac:3e:3a:ba:2a:c5:05:12:53:eb:
         5c:6f:ed:2d:4b:c0:f5:00:e1:95:45:c9:62:b5:89:66:4b:2b:
         01:fc:66:29:a3:0a:9a:05:ae:f7:9f:51:2a:9c:3b:18:03:ed:
         c4:7c:33:62:93:30:49:ab:c4:d1:07:f4:18:ac:96:24:1e:c2:
         fa:37:ed:82:db:06:66:8d:fb:25:93:35:7b:39:88:e8:8e:70:
         e9:c8:be:00:c4:f7:a7:67:83:f8:3d:af:8b:71:5b:25:3b:1d:
         56:cd:d0:15:86:31:d1:cb:57:3a:00:b5:1c:7c:3e:99:44:ce:
         bc:89:a7:78:37:50:ed:a1:b6:16:cd:72:20:c9:1f:60:b2:8a:
         c5:62:30:26:f0:aa:b6:73:ca:8e:d6:ba:31:0a:21:a2:6e:40:
         4b:66:30:11
-----BEGIN X509 CRL-----
MIIB6jCB0wIBATANBgkqhkiG9w0BAQUFADCBkDELMAkGA1UEBhMCVVMxEDAOBgNV
BAgTB01vbnRhbmExEDAOBgNVBAcTB0JvemVtYW4xETAPBgNVBAoTCFNhd3Rvb3Ro
MRMwEQYDVQQLEwpDb25zdWx0aW5nMRYwFAYDVQQDEw13d3cueWFzc2wuY29tMR0w
GwYJKoZIhvcNAQkBFg5pbmZvQHlhc3NsLmNvbRcNMTMwNjE3MjEzMjMwWhcNMTMx
MjE0MjEzMjMwWqAOMAwwCgYDVR0UBAMCAVUwDQYJKoZIhvcNAQEFBQADggEBAE2c
YyICkf5SNZN8tlvohlopok2avNkW4IoEkE2uIQC+nIFbaG6QGv0aN3CFUPIChxw4
9O+dQfVPU2bUwCKAAIJ6CUJJwxzJTJ+S+Wb0IR8kZ0+Dar06GfEEmeowBb+nPb9x
rD46uirFBRJT61xv7S1LwPUA4ZVFyWK1iWZLKwH8ZimjCpoFrvefUSqcOxgD7cR8
M2KTMEmrxNEH9BisliQewvo37YLbBmaN+yWTNXs5iOiOcOnIvgDE96dng/g9r4tx
WyU7HVbN0BWGMdHLVzoAtRx8PplEzryJp3g3UO2hthbNciDJH2CyisViMCbwqrZz
yo7WujEKIaJuQEtmMBE=
-----END X509 CRL-----
