Certificate Revocation List (CRL):
        Version 2 (0x1)
        Signature Algorithm: sha256WithRSAEncryption
        Issuer: C = US, ST = Montana, L = Bozeman, O = Sawtooth, OU = Consulting, CN = www.wolfssl.com, emailAddress = info@wolfssl.com
        Last Update: Dec 18 21:25:34 2024 GMT
        Next Update: Sep 14 21:25:34 2027 GMT
        CRL extensions:
            X509v3 CRL Number: 
                2
Revoked Certificates:
    Serial Number: 02
        Revocation Date: Dec 18 21:25:34 2024 GMT
    Signature Algorithm: sha256WithRSAEncryption
    Signature Value:
        12:0f:c8:40:72:63:f9:e2:60:6d:d2:b2:90:57:a0:c2:dc:fa:
        44:0d:ac:c2:f6:68:30:04:42:1a:8d:5a:0b:12:b6:78:1d:30:
        81:09:db:71:26:4d:5c:7b:32:58:79:5a:fa:ec:4f:32:db:68:
        45:5e:e9:7f:52:82:fc:4a:04:37:18:34:b3:da:f4:e3:39:93:
        97:60:bb:ea:9a:2a:75:5c:60:57:d5:8b:da:8f:06:d2:21:cd:
        a3:e3:dc:dc:5e:81:bd:8f:a8:da:07:1a:02:31:1b:95:5b:2e:
        47:5d:74:01:e7:d7:fe:c4:4c:ef:28:ca:7f:9b:c5:ea:42:2f:
        49:d7:e8:f3:44:0d:55:85:76:77:02:9f:c8:00:d5:73:5a:55:
        71:5b:8e:d7:31:25:8d:a8:14:4f:34:90:34:e4:4f:30:8e:ae:
        a3:98:85:df:57:e6:a0:ef:99:7b:82:31:5e:db:8c:61:1d:a7:
        71:88:c6:06:27:71:98:00:94:81:d4:a2:97:de:5a:c6:32:e7:
        51:2a:b6:36:4c:56:d0:fc:b8:19:fa:8b:d5:b4:e6:17:a9:a3:
        64:2b:65:7f:3a:89:b7:f6:0b:40:5f:f8:c2:9c:77:1c:01:20:
        6b:1c:04:a5:19:7e:7c:d4:c5:3c:9d:3e:c9:1d:39:b8:e7:5a:
        38:47:05:67
-----BEGIN X509 CRL-----
MIICBDCB7QIBATANBgkqhkiG9w0BAQsFADCBlDELMAkGA1UEBhMCVVMxEDAOBgNV
BAgMB01vbnRhbmExEDAOBgNVBAcMB0JvemVtYW4xETAPBgNVBAoMCFNhd3Rvb3Ro
MRMwEQYDVQQLDApDb25zdWx0aW5nMRgwFgYDVQQDDA93d3cud29sZnNzbC5jb20x
HzAdBgkqhkiG9w0BCQEWEGluZm9Ad29sZnNzbC5jb20XDTI0MTIxODIxMjUzNFoX
DTI3MDkxNDIxMjUzNFowFDASAgECFw0yNDEyMTgyMTI1MzRaoA4wDDAKBgNVHRQE
AwIBAjANBgkqhkiG9w0BAQsFAAOCAQEAEg/IQHJj+eJgbdKykFegwtz6RA2swvZo
MARCGo1aCxK2eB0wgQnbcSZNXHsyWHla+uxPMttoRV7pf1KC/EoENxg0s9r04zmT
l2C76poqdVxgV9WL2o8G0iHNo+Pc3F6BvY+o2gcaAjEblVsuR110AefX/sRM7yjK
f5vF6kIvSdfo80QNVYV2dwKfyADVc1pVcVuO1zEljagUTzSQNORPMI6uo5iF31fm
oO+Ze4IxXtuMYR2ncYjGBidxmACUgdSil95axjLnUSq2NkxW0Py4GfqL1bTmF6mj
ZCtlfzqJt/YLQF/4wpx3HAEgaxwEpRl+fNTFPJ0+yR05uOdaOEcFZw==
-----END X509 CRL-----
