Certificate Revocation List (CRL):
        Version 2 (0x1)
    Signature Algorithm: sha256WithRSAEncryption
        Issuer: /C=US/ST=Montana/L=Bozeman/O=Sawtooth/OU=Consulting/CN=www.wolfssl.com/emailAddress=info@wolfssl.com
        Last Update: Jul 25 18:56:35 2016 GMT
        Next Update: Apr 21 18:56:35 2019 GMT
        CRL extensions:
            X509v3 CRL Number: 
                2
Revoked Certificates:
    Serial Number: 01
        Revocation Date: Jul 25 18:56:35 2016 GMT
    Serial Number: 02
        Revocation Date: Jul 25 18:56:35 2016 GMT
    Signature Algorithm: sha256WithRSAEncryption
         6a:e9:52:bd:52:9c:0d:a2:e4:75:e7:e0:bb:b1:1d:83:c6:62:
         77:85:a3:2a:c9:17:dc:50:b7:55:cf:aa:63:67:8d:01:67:3b:
         54:0a:3b:44:61:41:be:aa:f7:cb:a8:06:99:6a:6d:82:5b:a5:
         40:6c:d1:3e:26:c7:a6:c1:24:15:19:11:45:8f:12:f5:84:e5:
         5f:ed:de:03:b8:d7:8a:61:3a:20:4f:87:2e:ca:34:d6:f5:cc:
         34:af:3f:df:66:55:e0:2d:e0:47:d8:9e:b7:2a:91:96:f2:01:
         74:0c:ef:b7:ca:3a:00:b6:1a:8c:5f:bc:57:d4:62:0c:30:31:
         40:d9:e9:a5:ea:75:48:a5:93:40:ba:5d:26:e4:cb:6e:01:16:
         ba:ce:4b:96:64:b1:90:a0:bd:1b:56:0e:54:f2:8d:f5:99:37:
         5b:ce:1e:17:da:9f:b3:00:9d:b9:23:ae:3d:4e:2d:50:b7:ef:
         ce:98:54:db:49:5e:27:f4:50:da:b2:cf:5c:d0:b8:77:06:a3:
         15:8f:6b:c3:e8:e9:19:3c:4c:d3:51:f9:a1:77:31:62:e6:94:
         25:41:75:6c:eb:05:a4:be:e8:97:1e:b0:c3:27:80:5d:49:17:
         02:87:ee:54:8d:83:63:57:5d:38:b2:78:9f:60:36:77:74:59:
         db:89:15:cf
-----BEGIN X509 CRL-----
MIICGTCCAQECAQEwDQYJKoZIhvcNAQELBQAwgZQxCzAJBgNVBAYTAlVTMRAwDgYD
VQQIDAdNb250YW5hMRAwDgYDVQQHDAdCb3plbWFuMREwDwYDVQQKDAhTYXd0b290
aDETMBEGA1UECwwKQ29uc3VsdGluZzEYMBYGA1UEAwwPd3d3LndvbGZzc2wuY29t
MR8wHQYJKoZIhvcNAQkBFhBpbmZvQHdvbGZzc2wuY29tFw0xNjA3MjUxODU2MzVa
Fw0xOTA0MjExODU2MzVaMCgwEgIBARcNMTYwNzI1MTg1NjM1WjASAgECFw0xNjA3
MjUxODU2MzVaoA4wDDAKBgNVHRQEAwIBAjANBgkqhkiG9w0BAQsFAAOCAQEAaulS
vVKcDaLkdefgu7Edg8Zid4WjKskX3FC3Vc+qY2eNAWc7VAo7RGFBvqr3y6gGmWpt
glulQGzRPibHpsEkFRkRRY8S9YTlX+3eA7jXimE6IE+HLso01vXMNK8/32ZV4C3g
R9ietyqRlvIBdAzvt8o6ALYajF+8V9RiDDAxQNnppep1SKWTQLpdJuTLbgEWus5L
lmSxkKC9G1YOVPKN9Zk3W84eF9qfswCduSOuPU4tULfvzphU20leJ/RQ2rLPXNC4
dwajFY9rw+jpGTxM01H5oXcxYuaUJUF1bOsFpL7olx6wwyeAXUkXAofuVI2DY1dd
OLJ4n2A2d3RZ24kVzw==
-----END X509 CRL-----
