Certificate Revocation List (CRL):
        Version 2 (0x1)
    Signature Algorithm: sha256WithRSAEncryption
        Issuer: /C=US/ST=Montana/L=Bozeman/O=Sawtooth/OU=Consulting/CN=www.wolfssl.com/emailAddress=info@wolfssl.com
        Last Update: Jul 25 18:56:35 2016 GMT
        Next Update: Apr 21 18:56:35 2019 GMT
        CRL extensions:
            X509v3 CRL Number: 
                1
Revoked Certificates:
    Serial Number: 02
        Revocation Date: Jul 25 18:56:35 2016 GMT
    Signature Algorithm: sha256WithRSAEncryption
         46:b9:33:dc:07:be:e4:45:64:3f:3c:80:c8:20:9e:f5:3f:24:
         f2:a7:79:a9:3f:66:8b:e6:44:f6:ca:a5:e5:51:e5:11:66:bb:
         0c:1d:b1:df:ad:98:d8:b1:c4:b6:0f:c5:09:1c:7f:f7:c3:c0:
         c8:7f:8b:8e:a1:e1:fc:0c:a8:17:ce:d1:0e:98:f2:de:8a:b2:
         93:6e:a1:1d:bd:66:4e:29:d6:01:fb:6a:50:ff:f1:a5:bd:e1:
         85:2e:a1:86:94:dd:0e:c5:d6:6e:5b:68:bb:18:ca:58:b4:b8:
         53:d2:79:fe:d2:38:0c:08:f0:5b:08:c1:50:a5:0a:20:14:11:
         cd:37:79:4c:c0:b1:77:85:fd:3e:c6:77:da:92:9f:22:2f:f6:
         f1:7e:81:09:d0:ff:57:17:28:3d:4c:7f:eb:f0:b9:e4:eb:6c:
         25:a5:ce:58:ef:53:9a:92:57:30:2b:c4:fe:8e:26:0b:ce:f5:
         e8:ce:83:fd:0a:3b:f1:63:10:fb:50:59:c3:5b:ba:28:b9:79:
         38:9f:50:f9:a6:3b:c5:4b:6d:49:24:e1:e7:99:81:d2:9b:29:
         df:84:3e:41:0b:f4:1a:db:7a:8a:98:7e:11:02:12:2b:28:af:
         4b:e9:bc:98:21:3a:19:ba:50:36:4d:6e:0b:b1:1d:57:11:cf:
         3c:29:ba:08
-----BEGIN X509 CRL-----
MIICBDCB7QIBATANBgkqhkiG9w0BAQsFADCBlDELMAkGA1UEBhMCVVMxEDAOBgNV
BAgMB01vbnRhbmExEDAOBgNVBAcMB0JvemVtYW4xETAPBgNVBAoMCFNhd3Rvb3Ro
MRMwEQYDVQQLDApDb25zdWx0aW5nMRgwFgYDVQQDDA93d3cud29sZnNzbC5jb20x
HzAdBgkqhkiG9w0BCQEWEGluZm9Ad29sZnNzbC5jb20XDTE2MDcyNTE4NTYzNVoX
DTE5MDQyMTE4NTYzNVowFDASAgECFw0xNjA3MjUxODU2MzVaoA4wDDAKBgNVHRQE
AwIBATANBgkqhkiG9w0BAQsFAAOCAQEARrkz3Ae+5EVkPzyAyCCe9T8k8qd5qT9m
i+ZE9sql5VHlEWa7DB2x362Y2LHEtg/FCRx/98PAyH+LjqHh/AyoF87RDpjy3oqy
k26hHb1mTinWAftqUP/xpb3hhS6hhpTdDsXWbltouxjKWLS4U9J5/tI4DAjwWwjB
UKUKIBQRzTd5TMCxd4X9PsZ32pKfIi/28X6BCdD/VxcoPUx/6/C55OtsJaXOWO9T
mpJXMCvE/o4mC8716M6D/Qo78WMQ+1BZw1u6KLl5OJ9Q+aY7xUttSSTh55mB0psp
34Q+QQv0Gtt6iph+EQISKyivS+m8mCE6GbpQNk1uC7EdVxHPPCm6CA==
-----END X509 CRL-----
