Certificate Revocation List (CRL):
        Version 2 (0x1)
        Signature Algorithm: sha256WithRSAEncryption
        Issuer: C = US, ST = Montana, L = Bozeman, O = Sawtooth, OU = Consulting, CN = www.wolfssl.com, emailAddress = info@wolfssl.com
        Last Update: Sep 26 17:22:46 2023 GMT
        Next Update: Jun 22 17:22:46 2026 GMT
        CRL extensions:
            X509v3 CRL Number: 
                3
Revoked Certificates:
    Serial Number: 01
        Revocation Date: Sep 26 17:22:46 2023 GMT
    Serial Number: 02
        Revocation Date: Sep 26 17:22:46 2023 GMT
    Signature Algorithm: sha256WithRSAEncryption
    Signature Value:
        3e:89:5c:63:fa:d1:89:4a:97:52:62:72:8c:18:2b:4b:41:97:
        f6:b5:fc:7d:dd:1a:b8:f7:28:07:bd:9f:7e:c2:bf:33:2c:26:
        ac:52:b0:df:8e:03:77:66:39:4b:29:46:ad:7e:cc:a9:f4:4b:
        07:e3:5a:ed:36:52:f9:ab:09:21:f5:64:2a:f1:bc:5e:96:88:
        b0:bf:09:a4:da:df:6a:59:40:d2:3a:4a:53:a7:22:70:a6:cd:
        50:d8:15:35:04:de:c4:f4:1a:be:54:75:73:52:fe:76:b3:a3:
        48:28:25:ac:e3:de:ef:c0:3e:1e:a7:64:3e:9a:fc:96:dc:a0:
        6a:a6:5e:a2:ec:64:1d:04:38:d4:6a:94:20:82:0f:aa:2e:d6:
        1b:dd:3e:2a:6a:c8:02:2f:29:d7:ea:53:7e:a7:e3:fe:ec:5d:
        bd:e0:f1:c3:25:f5:94:4c:c9:bb:5d:03:e6:18:d9:79:24:e4:
        ca:f4:df:75:64:3c:b9:26:32:2f:2c:2d:6c:fc:ec:ec:5d:7d:
        79:72:c2:78:59:11:1a:df:25:8f:89:d4:37:c9:77:49:b6:38:
        16:da:44:d2:66:a1:73:57:96:e7:0e:c7:b1:4d:3e:de:a8:71:
        3f:94:2e:c3:73:63:8f:d3:70:5f:09:24:1a:0a:8a:fb:3c:9a:
        7e:8c:66:d9
-----BEGIN X509 CRL-----
MIICGTCCAQECAQEwDQYJKoZIhvcNAQELBQAwgZQxCzAJBgNVBAYTAlVTMRAwDgYD
VQQIDAdNb250YW5hMRAwDgYDVQQHDAdCb3plbWFuMREwDwYDVQQKDAhTYXd0b290
aDETMBEGA1UECwwKQ29uc3VsdGluZzEYMBYGA1UEAwwPd3d3LndvbGZzc2wuY29t
MR8wHQYJKoZIhvcNAQkBFhBpbmZvQHdvbGZzc2wuY29tFw0yMzA5MjYxNzIyNDZa
Fw0yNjA2MjIxNzIyNDZaMCgwEgIBARcNMjMwOTI2MTcyMjQ2WjASAgECFw0yMzA5
MjYxNzIyNDZaoA4wDDAKBgNVHRQEAwIBAzANBgkqhkiG9w0BAQsFAAOCAQEAPolc
Y/rRiUqXUmJyjBgrS0GX9rX8fd0auPcoB72ffsK/MywmrFKw344Dd2Y5SylGrX7M
qfRLB+Na7TZS+asJIfVkKvG8XpaIsL8JpNrfallA0jpKU6cicKbNUNgVNQTexPQa
vlR1c1L+drOjSCglrOPe78A+HqdkPpr8ltygaqZeouxkHQQ41GqUIIIPqi7WG90+
KmrIAi8p1+pTfqfj/uxdveDxwyX1lEzJu10D5hjZeSTkyvTfdWQ8uSYyLywtbPzs
7F19eXLCeFkRGt8lj4nUN8l3SbY4FtpE0mahc1eW5w7HsU0+3qhxP5Quw3Njj9Nw
XwkkGgqK+zyafoxm2Q==
-----END X509 CRL-----
