Certificate Revocation List (CRL):
        Version 2 (0x1)
    Signature Algorithm: sha256WithRSAEncryption
        Issuer: /C=US/ST=Montana/L=Bozeman/O=Sawtooth/OU=Consulting/CN=www.wolfssl.com/emailAddress=info@wolfssl.com
        Last Update: Jul 11 17:42:09 2014 GMT
        Next Update: Jul 11 17:42:09 2015 GMT
        CRL extensions:
            X509v3 CRL Number: 
                1
No Revoked Certificates.
    Signature Algorithm: sha256WithRSAEncryption
         68:b7:4e:ca:4b:5b:89:9d:89:6c:f5:22:09:64:88:21:19:5d:
         16:1e:7b:b9:1a:fb:40:fa:00:88:bc:0c:d5:db:71:2a:6d:80:
         c2:8d:c5:1a:73:61:ed:31:bb:49:0b:25:71:0f:0c:8c:2b:a6:
         ff:ee:4b:71:3f:ab:34:d2:ac:c9:1c:fe:4e:22:04:c2:b2:16:
         e5:38:d1:6c:81:5e:b9:ef:a4:a7:83:1d:28:ad:2c:a4:b0:c2:
         2b:dd:1f:85:ca:ac:eb:7e:f0:24:be:c9:56:39:d3:19:cc:35:
         7f:ca:26:00:84:88:22:ac:31:9d:82:cd:cc:b4:60:0b:b5:85:
         54:3d:57:7a:c0:92:2c:46:22:56:97:c2:86:38:dd:7a:0a:46:
         11:80:02:1f:d5:f3:fe:9a:62:83:7b:74:b0:01:7c:f6:87:2c:
         7a:04:64:67:09:30:23:49:19:30:fb:ab:b8:93:d9:53:a7:3a:
         a1:3f:11:73:0a:31:ae:88:1d:66:43:95:32:28:51:00:f3:64:
         c5:f9:27:a4:bb:bf:3b:cc:eb:61:2d:ab:ea:27:01:64:9f:27:
         7e:83:37:73:e4:b0:d9:0d:b6:92:90:7b:ec:c1:4e:d3:50:08:
         ae:c0:75:72:08:4b:f0:4c:39:2c:c0:3e:a0:a6:77:79:24:97:
         07:da:c2:1f
-----BEGIN X509 CRL-----
MIIB7jCB1wIBATANBgkqhkiG9w0BAQsFADCBlDELMAkGA1UEBhMCVVMxEDAOBgNV
BAgMB01vbnRhbmExEDAOBgNVBAcMB0JvemVtYW4xETAPBgNVBAoMCFNhd3Rvb3Ro
MRMwEQYDVQQLDApDb25zdWx0aW5nMRgwFgYDVQQDDA93d3cud29sZnNzbC5jb20x
HzAdBgkqhkiG9w0BCQEWEGluZm9Ad29sZnNzbC5jb20XDTE0MDcxMTE3NDIwOVoX
DTE1MDcxMTE3NDIwOVqgDjAMMAoGA1UdFAQDAgEBMA0GCSqGSIb3DQEBCwUAA4IB
AQBot07KS1uJnYls9SIJZIghGV0WHnu5GvtA+gCIvAzV23EqbYDCjcUac2HtMbtJ
CyVxDwyMK6b/7ktxP6s00qzJHP5OIgTCshblONFsgV6576Sngx0orSyksMIr3R+F
yqzrfvAkvslWOdMZzDV/yiYAhIgirDGdgs3MtGALtYVUPVd6wJIsRiJWl8KGON16
CkYRgAIf1fP+mmKDe3SwAXz2hyx6BGRnCTAjSRkw+6u4k9lTpzqhPxFzCjGuiB1m
Q5UyKFEA82TF+Seku787zOthLavqJwFknyd+gzdz5LDZDbaSkHvswU7TUAiuwHVy
CEvwTDkswD6gpnd5JJcH2sIf
-----END X509 CRL-----
