Certificate Revocation List (CRL):
        Version 2 (0x1)
    Signature Algorithm: sha256WithRSAEncryption
        Issuer: /C=US/ST=Montana/L=Bozeman/O=Sawtooth/OU=Consulting/CN=www.wolfssl.com/emailAddress=info@wolfssl.com
        Last Update: May  7 16:00:19 2015 GMT
        Next Update: Jan 31 16:00:19 2018 GMT
        CRL extensions:
            X509v3 CRL Number: 
                1
No Revoked Certificates.
    Signature Algorithm: sha256WithRSAEncryption
         4c:48:e2:63:98:fb:98:4b:14:9c:27:4f:eb:92:2f:4d:3d:e8:
         11:3c:e3:8d:d3:cc:8c:06:46:ca:82:a9:5a:8b:58:ee:ee:d2:
         4e:45:12:df:c8:97:61:42:65:dc:cf:3a:b8:8d:69:4a:cc:5a:
         76:2f:30:b0:1f:82:61:ab:5d:e6:50:63:32:c7:2d:e4:81:45:
         e6:34:b4:0e:47:06:10:69:1b:47:d8:c5:c9:df:37:6a:55:1f:
         59:72:70:7d:af:1d:04:a8:a8:ec:38:cb:9c:fc:e1:fc:4c:b0:
         20:98:1a:ee:d7:a7:f8:1e:1c:fb:55:b4:9e:2c:3e:90:12:15:
         bc:65:62:4d:ff:05:df:92:bb:71:c8:11:7d:8a:77:e0:98:ee:
         43:c3:00:7e:9b:26:3d:f5:53:a8:e3:50:2d:d9:42:07:66:2c:
         2c:90:74:96:52:40:85:9a:be:7f:44:05:0c:42:df:49:ce:30:
         9f:da:67:d0:72:0e:0b:f1:db:fd:9b:7f:3c:72:ef:87:61:29:
         65:24:78:90:14:23:c3:cd:6f:a1:12:d6:76:e4:12:f9:e1:05:
         94:ae:29:e2:28:7d:85:be:fc:12:65:39:05:b2:a1:cd:b9:c7:
         45:0c:e3:b4:60:6a:11:55:96:c6:08:5e:4b:72:64:53:82:d2:
         e2:2b:33:31
-----BEGIN X509 CRL-----
MIIB7jCB1wIBATANBgkqhkiG9w0BAQsFADCBlDELMAkGA1UEBhMCVVMxEDAOBgNV
BAgMB01vbnRhbmExEDAOBgNVBAcMB0JvemVtYW4xETAPBgNVBAoMCFNhd3Rvb3Ro
MRMwEQYDVQQLDApDb25zdWx0aW5nMRgwFgYDVQQDDA93d3cud29sZnNzbC5jb20x
HzAdBgkqhkiG9w0BCQEWEGluZm9Ad29sZnNzbC5jb20XDTE1MDUwNzE2MDAxOVoX
DTE4MDEzMTE2MDAxOVqgDjAMMAoGA1UdFAQDAgEBMA0GCSqGSIb3DQEBCwUAA4IB
AQBMSOJjmPuYSxScJ0/rki9NPegRPOON08yMBkbKgqlai1ju7tJORRLfyJdhQmXc
zzq4jWlKzFp2LzCwH4Jhq13mUGMyxy3kgUXmNLQORwYQaRtH2MXJ3zdqVR9ZcnB9
rx0EqKjsOMuc/OH8TLAgmBru16f4Hhz7VbSeLD6QEhW8ZWJN/wXfkrtxyBF9infg
mO5DwwB+myY99VOo41At2UIHZiwskHSWUkCFmr5/RAUMQt9JzjCf2mfQcg4L8dv9
m388cu+HYSllJHiQFCPDzW+hEtZ25BL54QWUriniKH2FvvwSZTkFsqHNucdFDOO0
YGoRVZbGCF5LcmRTgtLiKzMx
-----END X509 CRL-----
