Certificate Revocation List (CRL):
        Version 2 (0x1)
        Signature Algorithm: sha256WithRSAEncryption
        Issuer: C = US, ST = Montana, L = Bozeman, O = Sawtooth, OU = Consulting, CN = www.wolfssl.com, emailAddress = info@wolfssl.com
        Last Update: Feb 15 12:50:27 2022 GMT
        Next Update: Nov 11 12:50:27 2024 GMT
        CRL extensions:
            X509v3 CRL Number: 
                3
Revoked Certificates:
    Serial Number: 01
        Revocation Date: Feb 15 12:50:27 2022 GMT
    Serial Number: 02
        Revocation Date: Feb 15 12:50:27 2022 GMT
    Signature Algorithm: sha256WithRSAEncryption
         0f:69:fc:a3:54:d7:9c:94:db:71:a8:6c:b6:af:3c:df:0d:bb:
         bb:cb:2e:45:6f:6d:a5:27:dc:ee:67:39:36:d4:33:22:02:5e:
         fe:4f:27:00:4a:ba:b0:51:7c:3e:98:ee:a2:d3:58:31:6c:60:
         02:34:f0:ec:67:ec:fa:66:44:8d:27:f7:70:57:4b:a1:10:e3:
         a1:fb:f4:3a:ac:ec:ca:cb:d8:d7:d8:ca:45:41:d4:17:18:30:
         f1:4e:f6:a4:8b:17:0c:4f:b0:b6:79:17:f3:a8:57:8f:8d:89:
         ad:73:b9:d4:95:c1:e2:19:0e:f6:ca:dd:bd:dc:d1:0b:eb:a7:
         c7:85:c6:49:8f:7d:e4:9b:fb:1a:a9:da:92:0a:52:7a:87:f3:
         32:dc:a8:9f:cf:a3:3b:47:ee:66:f4:61:48:a0:60:4c:50:66:
         87:07:33:55:11:ed:8b:5d:df:d8:10:de:ce:ea:4a:98:41:ca:
         6a:90:7c:35:0d:df:ac:4d:19:d6:5f:37:a5:a7:48:40:31:59:
         62:84:a8:21:a6:b5:8d:63:54:e0:2e:b9:83:92:b0:20:bc:66:
         b2:bf:4d:5a:0b:00:a7:c0:cb:29:c3:54:be:92:91:1d:b0:d0:
         ec:b4:5d:fe:a4:90:ed:08:21:71:18:91:4b:97:3d:75:4f:f0:
         bc:56:8e:db
-----BEGIN X509 CRL-----
MIICGTCCAQECAQEwDQYJKoZIhvcNAQELBQAwgZQxCzAJBgNVBAYTAlVTMRAwDgYD
VQQIDAdNb250YW5hMRAwDgYDVQQHDAdCb3plbWFuMREwDwYDVQQKDAhTYXd0b290
aDETMBEGA1UECwwKQ29uc3VsdGluZzEYMBYGA1UEAwwPd3d3LndvbGZzc2wuY29t
MR8wHQYJKoZIhvcNAQkBFhBpbmZvQHdvbGZzc2wuY29tFw0yMjAyMTUxMjUwMjda
Fw0yNDExMTExMjUwMjdaMCgwEgIBARcNMjIwMjE1MTI1MDI3WjASAgECFw0yMjAy
MTUxMjUwMjdaoA4wDDAKBgNVHRQEAwIBAzANBgkqhkiG9w0BAQsFAAOCAQEAD2n8
o1TXnJTbcahstq883w27u8suRW9tpSfc7mc5NtQzIgJe/k8nAEq6sFF8PpjuotNY
MWxgAjTw7Gfs+mZEjSf3cFdLoRDjofv0OqzsysvY19jKRUHUFxgw8U72pIsXDE+w
tnkX86hXj42JrXO51JXB4hkO9srdvdzRC+unx4XGSY995Jv7GqnakgpSeofzMtyo
n8+jO0fuZvRhSKBgTFBmhwczVRHti13f2BDezupKmEHKapB8NQ3frE0Z1l83padI
QDFZYoSoIaa1jWNU4C65g5KwILxmsr9NWgsAp8DLKcNUvpKRHbDQ7LRd/qSQ7Qgh
cRiRS5c9dU/wvFaO2w==
-----END X509 CRL-----
