Certificate Revocation List (CRL):
        Version 2 (0x1)
    Signature Algorithm: sha256WithRSAEncryption
        Issuer: /C=US/ST=Montana/L=Bozeman/O=Sawtooth/OU=Consulting/CN=www.wolfssl.com/emailAddress=info@wolfssl.com
        Last Update: Feb 10 19:49:55 2021 GMT
        Next Update: Nov  7 19:49:55 2023 GMT
        CRL extensions:
            X509v3 CRL Number: 
                3
Revoked Certificates:
    Serial Number: 01
        Revocation Date: Feb 10 19:49:55 2021 GMT
    Serial Number: 02
        Revocation Date: Feb 10 19:49:55 2021 GMT
    Signature Algorithm: sha256WithRSAEncryption
         8e:c0:a9:05:07:8f:c0:f0:e8:54:63:86:8b:0b:65:80:fc:d5:
         b8:97:48:2f:c3:43:02:df:63:65:53:bb:cf:4c:d6:90:28:3c:
         15:be:48:b4:1a:39:5e:0f:73:a6:f0:39:b5:ca:82:99:98:d8:
         8f:94:d9:3a:9a:ed:54:50:8c:20:8d:90:ce:02:f8:f6:2d:5d:
         d2:48:99:4d:15:8f:c5:61:95:35:31:83:80:9a:4a:19:01:5e:
         d2:fd:9c:2e:ee:b6:d8:c0:fa:38:7d:cc:6c:ce:c5:62:dc:95:
         70:79:3e:09:89:14:11:f9:8a:06:b1:1a:ab:52:25:a9:e6:01:
         96:9d:ea:b8:aa:81:14:6c:d0:75:a2:03:41:e0:24:06:44:b5:
         ff:95:50:7f:e4:50:78:03:24:f1:2c:4f:f9:ae:72:b4:3b:a2:
         1b:cb:ab:cd:86:2f:9a:3f:81:4e:c3:a9:34:2f:e0:55:66:90:
         55:d1:ee:37:d6:25:a0:b2:ae:d6:6b:2a:1b:21:aa:d8:2b:36:
         c1:30:05:88:dd:a9:58:09:65:eb:29:0a:e8:c3:b7:dc:39:51:
         2f:34:6d:3a:07:99:cd:b0:80:4e:82:1e:c2:8e:f4:64:15:54:
         a1:25:95:95:65:ba:46:a5:6d:ac:f6:57:f9:ae:26:5e:80:51:
         c2:79:21:d7
-----BEGIN X509 CRL-----
MIICGTCCAQECAQEwDQYJKoZIhvcNAQELBQAwgZQxCzAJBgNVBAYTAlVTMRAwDgYD
VQQIDAdNb250YW5hMRAwDgYDVQQHDAdCb3plbWFuMREwDwYDVQQKDAhTYXd0b290
aDETMBEGA1UECwwKQ29uc3VsdGluZzEYMBYGA1UEAwwPd3d3LndvbGZzc2wuY29t
MR8wHQYJKoZIhvcNAQkBFhBpbmZvQHdvbGZzc2wuY29tFw0yMTAyMTAxOTQ5NTVa
Fw0yMzExMDcxOTQ5NTVaMCgwEgIBARcNMjEwMjEwMTk0OTU1WjASAgECFw0yMTAy
MTAxOTQ5NTVaoA4wDDAKBgNVHRQEAwIBAzANBgkqhkiG9w0BAQsFAAOCAQEAjsCp
BQePwPDoVGOGiwtlgPzVuJdIL8NDAt9jZVO7z0zWkCg8Fb5ItBo5Xg9zpvA5tcqC
mZjYj5TZOprtVFCMII2QzgL49i1d0kiZTRWPxWGVNTGDgJpKGQFe0v2cLu622MD6
OH3MbM7FYtyVcHk+CYkUEfmKBrEaq1IlqeYBlp3quKqBFGzQdaIDQeAkBkS1/5VQ
f+RQeAMk8SxP+a5ytDuiG8urzYYvmj+BTsOpNC/gVWaQVdHuN9YloLKu1msqGyGq
2Cs2wTAFiN2pWAll6ykK6MO33DlRLzRtOgeZzbCAToIewo70ZBVUoSWVlWW6RqVt
rPZX+a4mXoBRwnkh1w==
-----END X509 CRL-----
