Certificate Revocation List (CRL):
        Version 2 (0x1)
        Signature Algorithm: sha256WithRSAEncryption
        Issuer: C=US, ST=Montana, L=Bozeman, O=Sawtooth, OU=Consulting, CN=www.wolfssl.com, emailAddress=info@wolfssl.com
        Last Update: Nov 13 20:41:50 2025 GMT
        Next Update: Aug  9 20:41:50 2028 GMT
        CRL extensions:
            X509v3 CRL Number: 
                3
Revoked Certificates:
    Serial Number: 01
        Revocation Date: Nov 13 20:41:50 2025 GMT
    Serial Number: 02
        Revocation Date: Nov 13 20:41:50 2025 GMT
    Signature Algorithm: sha256WithRSAEncryption
    Signature Value:
        1f:0f:e1:f9:29:b2:eb:fc:02:55:29:aa:b1:be:21:3d:78:42:
        ef:ce:fc:4f:69:22:94:1f:10:d7:cd:8f:1f:0b:0c:44:69:de:
        7b:af:10:a0:37:a8:2b:8a:c2:7b:d6:6b:75:1f:ab:46:4f:8a:
        e4:e8:42:f4:83:a0:1b:ad:96:9f:e9:35:8e:6b:7c:bc:57:48:
        43:2a:54:60:22:1a:59:87:68:d6:d4:ff:a8:cb:d2:36:79:dc:
        05:4e:ca:57:56:5b:af:d5:6c:ac:e2:47:e6:55:3d:5d:70:b2:
        bd:14:0b:e8:97:54:e5:96:9c:5a:45:f6:eb:b9:6c:24:99:99:
        83:51:7c:0c:11:66:0e:3f:ee:cd:4b:70:ab:ec:48:1b:06:58:
        f6:bb:ee:6d:17:48:aa:38:6f:56:84:ff:33:81:64:7c:70:be:
        70:1f:b5:a6:6c:89:b1:fc:63:47:29:e4:1d:bc:eb:76:01:a6:
        52:4a:68:6c:26:ba:76:2a:8b:cf:fa:88:06:89:f2:3f:89:04:
        29:07:91:32:94:89:bc:f9:59:35:d5:24:8c:55:27:a0:6f:9a:
        ab:04:3a:2f:76:f2:e5:dc:c9:74:7f:1d:97:dc:25:b3:5d:35:
        40:f2:f2:c0:dd:e1:35:60:c3:5f:77:98:b4:c6:ec:11:5f:0c:
        d9:8b:60:36
-----BEGIN X509 CRL-----
MIICGTCCAQECAQEwDQYJKoZIhvcNAQELBQAwgZQxCzAJBgNVBAYTAlVTMRAwDgYD
VQQIDAdNb250YW5hMRAwDgYDVQQHDAdCb3plbWFuMREwDwYDVQQKDAhTYXd0b290
aDETMBEGA1UECwwKQ29uc3VsdGluZzEYMBYGA1UEAwwPd3d3LndvbGZzc2wuY29t
MR8wHQYJKoZIhvcNAQkBFhBpbmZvQHdvbGZzc2wuY29tFw0yNTExMTMyMDQxNTBa
Fw0yODA4MDkyMDQxNTBaMCgwEgIBARcNMjUxMTEzMjA0MTUwWjASAgECFw0yNTEx
MTMyMDQxNTBaoA4wDDAKBgNVHRQEAwIBAzANBgkqhkiG9w0BAQsFAAOCAQEAHw/h
+Smy6/wCVSmqsb4hPXhC7878T2kilB8Q182PHwsMRGnee68QoDeoK4rCe9ZrdR+r
Rk+K5OhC9IOgG62Wn+k1jmt8vFdIQypUYCIaWYdo1tT/qMvSNnncBU7KV1Zbr9Vs
rOJH5lU9XXCyvRQL6JdU5ZacWkX267lsJJmZg1F8DBFmDj/uzUtwq+xIGwZY9rvu
bRdIqjhvVoT/M4FkfHC+cB+1pmyJsfxjRynkHbzrdgGmUkpobCa6diqLz/qIBony
P4kEKQeRMpSJvPlZNdUkjFUnoG+aqwQ6L3by5dzJdH8dl9wls101QPLywN3hNWDD
X3eYtMbsEV8M2YtgNg==
-----END X509 CRL-----
