Certificate Revocation List (CRL):
        Version 2 (0x1)
    Signature Algorithm: sha1WithRSAEncryption
        Issuer: /C=US/ST=Montana/L=Bozeman/O=Sawtooth/OU=Consulting/CN=www.wolfssl.com/emailAddress=info@wolfssl.com
        Last Update: Feb  2 18:17:42 2015 GMT
        Next Update: Oct 29 18:17:42 2017 GMT
        CRL extensions:
            X509v3 CRL Number: 
                2
Revoked Certificates:
    Serial Number: 01
        Revocation Date: Feb  2 18:17:42 2015 GMT
    Signature Algorithm: sha1WithRSAEncryption
         05:a6:8a:d0:04:f9:2b:f8:43:7e:49:91:1a:9d:8b:7a:77:a0:
         10:fa:ee:32:84:2b:bc:38:f8:f4:29:93:70:2f:fe:c1:11:a8:
         aa:d2:44:55:6e:39:65:e3:c7:6d:93:c3:cf:91:9f:30:13:62:
         12:d0:db:c0:1c:97:18:c7:7b:9a:47:2a:cc:3b:21:fe:5c:fa:
         73:71:d4:c8:f3:e1:08:7b:03:42:16:0d:46:c9:cc:dd:31:0a:
         78:8e:96:db:fa:5f:f6:f4:d9:08:f5:33:0b:c5:9e:cc:c9:0f:
         dc:df:21:1c:01:3e:ee:d9:40:63:3b:fd:a4:01:f6:b8:b6:e5:
         f1:af:9b:71:9d:01:15:84:92:f7:2b:63:ba:ac:ce:c8:1f:16:
         cc:11:75:89:da:6e:b4:b7:3e:a6:cd:eb:2a:0f:16:bb:dd:8c:
         d5:ee:8d:74:66:10:6e:73:d9:17:6a:bf:64:68:70:56:19:34:
         e3:93:c9:8a:13:23:5c:50:ef:e1:3e:32:84:7f:f7:c5:bf:80:
         06:b8:d1:1b:bd:ca:cb:c1:f7:58:d6:ca:86:ed:c2:34:4a:72:
         c2:9a:93:ff:62:4f:72:ad:92:ae:de:6f:8e:25:91:7c:7a:76:
         dc:f5:56:f3:df:8c:d3:fb:6e:4a:df:e3:58:4f:29:bf:d7:4b:
         2d:4e:69:51
-----BEGIN X509 CRL-----
MIICBDCB7QIBATANBgkqhkiG9w0BAQUFADCBlDELMAkGA1UEBhMCVVMxEDAOBgNV
BAgMB01vbnRhbmExEDAOBgNVBAcMB0JvemVtYW4xETAPBgNVBAoMCFNhd3Rvb3Ro
MRMwEQYDVQQLDApDb25zdWx0aW5nMRgwFgYDVQQDDA93d3cud29sZnNzbC5jb20x
HzAdBgkqhkiG9w0BCQEWEGluZm9Ad29sZnNzbC5jb20XDTE1MDIwMjE4MTc0MloX
DTE3MTAyOTE4MTc0MlowFDASAgEBFw0xNTAyMDIxODE3NDJaoA4wDDAKBgNVHRQE
AwIBAjANBgkqhkiG9w0BAQUFAAOCAQEABaaK0AT5K/hDfkmRGp2LenegEPruMoQr
vDj49CmTcC/+wRGoqtJEVW45ZePHbZPDz5GfMBNiEtDbwByXGMd7mkcqzDsh/lz6
c3HUyPPhCHsDQhYNRsnM3TEKeI6W2/pf9vTZCPUzC8WezMkP3N8hHAE+7tlAYzv9
pAH2uLbl8a+bcZ0BFYSS9ytjuqzOyB8WzBF1idputLc+ps3rKg8Wu92M1e6NdGYQ
bnPZF2q/ZGhwVhk045PJihMjXFDv4T4yhH/3xb+ABrjRG73Ky8H3WNbKhu3CNEpy
wpqT/2JPcq2Srt5vjiWRfHp23PVW89+M0/tuSt/jWE8pv9dLLU5pUQ==
-----END X509 CRL-----
