Certificate Revocation List (CRL):
        Version 2 (0x1)
        Signature Algorithm: sha256WithRSAEncryption
        Issuer: C = US, ST = Montana, L = Bozeman, O = Sawtooth, OU = Consulting, CN = www.wolfssl.com, emailAddress = info@wolfssl.com
        Last Update: Jun 19 13:23:42 2020 GMT
        Next Update: Mar 16 13:23:42 2023 GMT
        CRL extensions:
            X509v3 CRL Number: 
                2
Revoked Certificates:
    Serial Number: 02
        Revocation Date: Jun 19 13:23:42 2020 GMT
    Signature Algorithm: sha256WithRSAEncryption
         79:05:2c:9d:74:45:10:4d:f9:77:49:7e:d3:d3:97:69:b8:72:
         56:de:cd:81:a8:f3:5d:db:f7:eb:1f:02:a9:f0:25:02:43:7f:
         b0:2c:df:c5:24:57:03:48:93:c3:f4:16:37:dd:e3:32:6a:61:
         92:37:64:95:59:72:d8:1a:36:fa:d5:88:da:47:ac:c1:9a:93:
         bd:6e:68:4d:85:5c:24:63:fa:4a:d3:89:72:28:e4:b6:98:e6:
         47:26:82:82:cb:28:47:5d:b4:b4:50:48:ef:a8:50:80:e8:0b:
         ca:d0:e4:af:e5:1e:a7:49:34:d8:10:76:6b:7e:14:a3:63:9a:
         d2:54:a8:ff:5b:26:02:30:23:cf:db:e8:f3:f2:5f:68:90:bf:
         aa:a8:0a:f9:a6:bc:9c:ec:b1:26:9b:fc:fd:7a:d6:af:6d:fc:
         e2:2b:d8:62:c4:50:f0:8b:27:e9:9e:e0:44:4b:a2:32:21:06:
         b6:89:b8:d3:2f:04:7d:c9:95:d7:a1:d1:b7:bb:9b:75:16:a7:
         70:15:b1:2e:14:99:53:9c:cb:50:c8:00:5c:36:af:41:bf:a5:
         f2:3b:67:9c:50:5b:ad:2c:50:cb:a3:c4:1f:09:c1:8d:b5:64:
         8f:85:32:2e:04:8e:42:59:32:ec:3d:24:ec:7b:a4:01:59:bc:
         55:c3:1f:b9
-----BEGIN X509 CRL-----
MIICBDCB7QIBATANBgkqhkiG9w0BAQsFADCBlDELMAkGA1UEBhMCVVMxEDAOBgNV
BAgMB01vbnRhbmExEDAOBgNVBAcMB0JvemVtYW4xETAPBgNVBAoMCFNhd3Rvb3Ro
MRMwEQYDVQQLDApDb25zdWx0aW5nMRgwFgYDVQQDDA93d3cud29sZnNzbC5jb20x
HzAdBgkqhkiG9w0BCQEWEGluZm9Ad29sZnNzbC5jb20XDTIwMDYxOTEzMjM0MloX
DTIzMDMxNjEzMjM0MlowFDASAgECFw0yMDA2MTkxMzIzNDJaoA4wDDAKBgNVHRQE
AwIBAjANBgkqhkiG9w0BAQsFAAOCAQEAeQUsnXRFEE35d0l+09OXabhyVt7Ngajz
Xdv36x8CqfAlAkN/sCzfxSRXA0iTw/QWN93jMmphkjdklVly2Bo2+tWI2keswZqT
vW5oTYVcJGP6StOJcijktpjmRyaCgssoR120tFBI76hQgOgLytDkr+Uep0k02BB2
a34Uo2Oa0lSo/1smAjAjz9vo8/JfaJC/qqgK+aa8nOyxJpv8/XrWr2384ivYYsRQ
8Isn6Z7gREuiMiEGtom40y8EfcmV16HRt7ubdRancBWxLhSZU5zLUMgAXDavQb+l
8jtnnFBbrSxQy6PEHwnBjbVkj4UyLgSOQlky7D0k7HukAVm8VcMfuQ==
-----END X509 CRL-----
