Certificate Revocation List (CRL):
        Version 2 (0x1)
    Signature Algorithm: sha1WithRSAEncryption
        Issuer: /C=US/ST=Montana/L=Bozeman/O=Sawtooth/OU=Consulting/CN=www.yassl.com/emailAddress=info@yassl.com
        Last Update: Apr  1 22:54:02 2013 GMT
        Next Update: Sep 28 22:54:02 2013 GMT
        CRL extensions:
            X509v3 CRL Number: 
                71
Revoked Certificates:
    Serial Number: 02
        Revocation Date: Apr  1 22:54:01 2013 GMT
    Signature Algorithm: sha1WithRSAEncryption
         36:40:85:f8:23:c6:ef:0e:eb:ed:50:7b:9d:45:85:d4:fc:92:
         73:f9:d2:19:55:67:18:fd:e8:0c:95:89:40:6e:9c:92:0c:f0:
         4f:77:f0:a1:e3:f9:7f:a0:92:b4:ca:3d:e8:0e:49:59:ba:89:
         d4:f9:78:6a:ec:86:08:1e:2e:12:08:e1:98:45:7c:b1:c1:67:
         60:38:5f:2b:a4:15:9b:2d:de:79:2e:11:07:0f:7a:c7:33:98:
         99:17:f6:24:85:1a:a1:06:7e:bf:54:69:e5:0e:2f:f7:c3:e3:
         c9:87:b0:89:96:d5:4f:14:50:3a:a5:7c:10:fb:7c:ca:f4:b4:
         06:21:85:80:28:58:56:74:6a:02:fd:83:d7:ea:5b:75:40:87:
         a2:81:7b:bc:2d:bf:70:fa:d2:53:ef:2c:4d:06:b5:1e:72:df:
         07:03:ad:f2:04:28:14:8c:15:5d:98:0f:7b:e1:29:d3:08:38:
         52:19:03:57:31:e2:3f:31:c9:da:78:72:24:01:56:56:70:73:
         b2:2b:4a:f0:61:70:8d:f0:62:5e:79:92:ee:27:04:2a:d2:45:
         8f:f8:d7:49:2d:29:59:a3:05:1c:77:20:5a:21:b8:b2:93:9e:
         45:5e:6a:6d:2c:09:5b:65:7f:ab:9d:3b:f5:51:28:10:83:28:
         ef:92:c3:5e
-----BEGIN X509 CRL-----
MIICADCB6QIBATANBgkqhkiG9w0BAQUFADCBkDELMAkGA1UEBhMCVVMxEDAOBgNV
BAgTB01vbnRhbmExEDAOBgNVBAcTB0JvemVtYW4xETAPBgNVBAoTCFNhd3Rvb3Ro
MRMwEQYDVQQLEwpDb25zdWx0aW5nMRYwFAYDVQQDEw13d3cueWFzc2wuY29tMR0w
GwYJKoZIhvcNAQkBFg5pbmZvQHlhc3NsLmNvbRcNMTMwNDAxMjI1NDAyWhcNMTMw
OTI4MjI1NDAyWjAUMBICAQIXDTEzMDQwMTIyNTQwMVqgDjAMMAoGA1UdFAQDAgFH
MA0GCSqGSIb3DQEBBQUAA4IBAQA2QIX4I8bvDuvtUHudRYXU/JJz+dIZVWcY/egM
lYlAbpySDPBPd/Ch4/l/oJK0yj3oDklZuonU+Xhq7IYIHi4SCOGYRXyxwWdgOF8r
pBWbLd55LhEHD3rHM5iZF/YkhRqhBn6/VGnlDi/3w+PJh7CJltVPFFA6pXwQ+3zK
9LQGIYWAKFhWdGoC/YPX6lt1QIeigXu8Lb9w+tJT7yxNBrUect8HA63yBCgUjBVd
mA974SnTCDhSGQNXMeI/McnaeHIkAVZWcHOyK0rwYXCN8GJeeZLuJwQq0kWP+NdJ
LSlZowUcdyBaIbiyk55FXmptLAlbZX+rnTv1USgQgyjvksNe
-----END X509 CRL-----
