Certificate Revocation List (CRL):
        Version 2 (0x1)
    Signature Algorithm: sha256WithRSAEncryption
        Issuer: /C=US/ST=Montana/L=Bozeman/O=Sawtooth/OU=Consulting/CN=www.wolfssl.com/emailAddress=info@wolfssl.com
        Last Update: May  7 16:00:19 2015 GMT
        Next Update: Jan 31 16:00:19 2018 GMT
        CRL extensions:
            X509v3 CRL Number: 
                2
Revoked Certificates:
    Serial Number: 01
        Revocation Date: May  7 16:00:19 2015 GMT
    Signature Algorithm: sha256WithRSAEncryption
         8d:90:ec:9c:44:51:16:26:d0:c0:3c:18:03:d9:fc:f1:f6:60:
         c4:9d:f4:8b:64:d4:8e:81:7f:3d:87:4f:89:6e:a9:2a:9b:85:
         43:ca:06:7f:e4:b7:f4:06:2b:c8:50:5d:bb:5f:94:64:53:2c:
         8d:45:8f:6f:f4:7e:6e:9f:44:1a:73:48:18:ca:f6:08:32:a7:
         4a:9f:16:87:b6:e5:9f:ca:e1:83:00:b8:d1:8b:d5:e0:f6:99:
         c4:f9:42:8f:02:17:3c:f6:42:35:e6:ee:e7:ea:1d:58:65:ee:
         3b:52:86:96:ba:2a:f1:ae:90:ea:b3:4d:41:57:25:01:e7:17:
         34:2b:44:67:cb:74:bb:73:7d:f5:7c:71:e3:a8:de:17:37:1d:
         2d:b9:f1:18:a8:bc:a1:74:f2:6e:45:8a:e8:c8:6a:43:7d:49:
         09:fc:48:01:49:65:f8:ab:1e:b5:50:fb:86:92:5b:79:bb:d2:
         a4:b0:a9:89:9c:5b:89:f0:1d:25:ea:a1:6c:c9:a3:b6:6b:3c:
         ae:43:c9:30:b3:54:b8:bf:fa:36:e9:95:6b:85:bd:ec:34:f9:
         f1:a3:6b:f5:61:b7:37:8d:aa:fa:e5:2d:48:42:13:c8:a5:88:
         0a:77:b3:2b:f4:81:5e:6f:1c:69:44:d7:50:65:1e:00:7b:18:
         28:95:3a:b7
-----BEGIN X509 CRL-----
MIICBDCB7QIBATANBgkqhkiG9w0BAQsFADCBlDELMAkGA1UEBhMCVVMxEDAOBgNV
BAgMB01vbnRhbmExEDAOBgNVBAcMB0JvemVtYW4xETAPBgNVBAoMCFNhd3Rvb3Ro
MRMwEQYDVQQLDApDb25zdWx0aW5nMRgwFgYDVQQDDA93d3cud29sZnNzbC5jb20x
HzAdBgkqhkiG9w0BCQEWEGluZm9Ad29sZnNzbC5jb20XDTE1MDUwNzE2MDAxOVoX
DTE4MDEzMTE2MDAxOVowFDASAgEBFw0xNTA1MDcxNjAwMTlaoA4wDDAKBgNVHRQE
AwIBAjANBgkqhkiG9w0BAQsFAAOCAQEAjZDsnERRFibQwDwYA9n88fZgxJ30i2TU
joF/PYdPiW6pKpuFQ8oGf+S39AYryFBdu1+UZFMsjUWPb/R+bp9EGnNIGMr2CDKn
Sp8Wh7bln8rhgwC40YvV4PaZxPlCjwIXPPZCNebu5+odWGXuO1KGlroq8a6Q6rNN
QVclAecXNCtEZ8t0u3N99Xxx46jeFzcdLbnxGKi8oXTybkWK6MhqQ31JCfxIAUll
+KsetVD7hpJbebvSpLCpiZxbifAdJeqhbMmjtms8rkPJMLNUuL/6NumVa4W97DT5
8aNr9WG3N42q+uUtSEITyKWICnezK/SBXm8caUTXUGUeAHsYKJU6tw==
-----END X509 CRL-----
