Certificate Revocation List (CRL):
        Version 2 (0x1)
        Signature Algorithm: sha256WithRSAEncryption
        Issuer: C = US, ST = Montana, L = Bozeman, O = Sawtooth, OU = Consulting, CN = www.wolfssl.com, emailAddress = info@wolfssl.com
        Last Update: Jan  9 00:34:30 2024 GMT
        Next Update: Oct  5 00:34:30 2026 GMT
        CRL extensions:
            X509v3 CRL Number: 
                2
Revoked Certificates:
    Serial Number: 02
        Revocation Date: Jan  9 00:34:30 2024 GMT
    Signature Algorithm: sha256WithRSAEncryption
         b3:6f:ed:72:d2:73:6a:77:bf:3a:55:bc:54:18:6a:71:bc:6a:
         cc:cd:5d:90:f5:64:8d:1b:f0:e0:48:7b:f2:7b:06:86:53:63:
         9b:d8:24:15:10:b1:19:96:9b:d2:75:a8:25:a2:35:a9:14:d6:
         d5:5e:53:e3:34:9d:f2:8b:07:19:9b:1f:f1:02:0f:04:46:e8:
         b8:b6:f2:8d:c7:c0:15:3e:3e:8e:96:73:15:1e:62:f6:4e:2a:
         f7:aa:a0:91:80:12:7f:81:0c:65:cc:38:be:58:6c:14:a5:21:
         a1:8d:f7:8a:b9:24:f4:2d:ca:c0:67:43:0b:c8:1c:b4:7d:12:
         7f:a2:1b:19:0e:94:cf:7b:9f:75:a0:08:9a:67:3f:87:89:3e:
         f8:58:a5:8a:1b:2d:da:9b:d0:1b:18:92:c3:d2:6a:d7:1c:fc:
         45:69:77:c3:57:65:75:99:9e:47:2a:20:25:ef:90:f2:5f:3b:
         7d:9c:7d:00:ea:92:54:eb:0b:e7:17:af:24:1a:f9:7c:83:50:
         68:1d:dc:5b:60:12:a7:52:78:d9:a9:b0:1f:59:48:36:c7:a6:
         97:34:c7:87:3f:ae:fd:a9:56:5d:48:cc:89:7a:79:60:8f:9b:
         2b:63:3c:b3:04:1d:5f:f7:20:d2:fd:f2:51:b1:96:93:13:5b:
         ab:74:82:8b
-----BEGIN X509 CRL-----
MIICBDCB7QIBATANBgkqhkiG9w0BAQsFADCBlDELMAkGA1UEBhMCVVMxEDAOBgNV
BAgMB01vbnRhbmExEDAOBgNVBAcMB0JvemVtYW4xETAPBgNVBAoMCFNhd3Rvb3Ro
MRMwEQYDVQQLDApDb25zdWx0aW5nMRgwFgYDVQQDDA93d3cud29sZnNzbC5jb20x
HzAdBgkqhkiG9w0BCQEWEGluZm9Ad29sZnNzbC5jb20XDTI0MDEwOTAwMzQzMFoX
DTI2MTAwNTAwMzQzMFowFDASAgECFw0yNDAxMDkwMDM0MzBaoA4wDDAKBgNVHRQE
AwIBAjANBgkqhkiG9w0BAQsFAAOCAQEAs2/tctJzane/OlW8VBhqcbxqzM1dkPVk
jRvw4Eh78nsGhlNjm9gkFRCxGZab0nWoJaI1qRTW1V5T4zSd8osHGZsf8QIPBEbo
uLbyjcfAFT4+jpZzFR5i9k4q96qgkYASf4EMZcw4vlhsFKUhoY33irkk9C3KwGdD
C8gctH0Sf6IbGQ6Uz3ufdaAImmc/h4k++Filihst2pvQGxiSw9Jq1xz8RWl3w1dl
dZmeRyogJe+Q8l87fZx9AOqSVOsL5xevJBr5fINQaB3cW2ASp1J42amwH1lINsem
lzTHhz+u/alWXUjMiXp5YI+bK2M8swQdX/cg0v3yUbGWkxNbq3SCiw==
-----END X509 CRL-----
