Certificate Revocation List (CRL):
        Version 2 (0x1)
    Signature Algorithm: sha1WithRSAEncryption
        Issuer: /C=US/ST=Montana/L=Bozeman/O=Sawtooth/OU=Consulting/CN=www.wolfssl.com/emailAddress=info@wolfssl.com
        Last Update: Feb  5 06:33:30 2015 GMT
        Next Update: Nov  1 06:33:30 2017 GMT
        CRL extensions:
            X509v3 CRL Number: 
                1
No Revoked Certificates.
    Signature Algorithm: sha1WithRSAEncryption
         1e:a6:74:ca:6e:14:eb:4f:e7:94:fb:0f:36:4c:55:39:e1:29:
         af:33:f1:83:fa:8c:64:ef:4d:8a:f4:90:a1:dd:8d:c4:c7:13:
         35:7e:a9:1c:ea:29:ef:5e:89:4a:38:b1:22:b4:c3:13:8a:41:
         ed:a1:16:08:2f:17:69:b2:88:ca:21:c6:20:a3:d2:e1:33:b9:
         68:4a:11:7f:50:58:53:18:7b:90:86:dc:2d:9a:36:5b:d2:0d:
         28:dc:8e:8f:82:a1:6d:c9:e2:e4:a3:bb:f4:8d:12:c3:15:72:
         d9:bd:74:98:4b:82:00:ed:96:9c:85:b1:36:45:28:48:e7:c2:
         d0:9e:31:27:51:8b:ae:96:f3:bf:3f:4d:6c:31:6c:4b:7d:a2:
         63:47:d7:29:80:c0:17:1d:3e:48:3e:62:ad:a0:dc:50:e7:07:
         f1:85:b4:b4:f9:85:77:d4:60:50:9a:7c:89:8b:c2:02:1f:ec:
         6a:ea:83:46:7d:66:c1:6d:aa:bc:a2:f9:6b:8e:74:2a:9d:96:
         16:3a:a3:66:d6:11:7e:83:2a:99:90:9c:54:a7:d6:b4:79:57:
         87:60:bc:6c:12:09:58:4e:89:1f:0a:82:52:67:aa:5e:f8:10:
         0f:37:d0:75:19:10:b5:5a:36:9d:89:ce:8d:ba:c2:b7:13:b0:
         df:43:32:97
-----BEGIN X509 CRL-----
MIIB7jCB1wIBATANBgkqhkiG9w0BAQUFADCBlDELMAkGA1UEBhMCVVMxEDAOBgNV
BAgMB01vbnRhbmExEDAOBgNVBAcMB0JvemVtYW4xETAPBgNVBAoMCFNhd3Rvb3Ro
MRMwEQYDVQQLDApDb25zdWx0aW5nMRgwFgYDVQQDDA93d3cud29sZnNzbC5jb20x
HzAdBgkqhkiG9w0BCQEWEGluZm9Ad29sZnNzbC5jb20XDTE1MDIwNTA2MzMzMFoX
DTE3MTEwMTA2MzMzMFqgDjAMMAoGA1UdFAQDAgEBMA0GCSqGSIb3DQEBBQUAA4IB
AQAepnTKbhTrT+eU+w82TFU54SmvM/GD+oxk702K9JCh3Y3ExxM1fqkc6invXolK
OLEitMMTikHtoRYILxdpsojKIcYgo9LhM7loShF/UFhTGHuQhtwtmjZb0g0o3I6P
gqFtyeLko7v0jRLDFXLZvXSYS4IA7ZachbE2RShI58LQnjEnUYuulvO/P01sMWxL
faJjR9cpgMAXHT5IPmKtoNxQ5wfxhbS0+YV31GBQmnyJi8ICH+xq6oNGfWbBbaq8
ovlrjnQqnZYWOqNm1hF+gyqZkJxUp9a0eVeHYLxsEglYTokfCoJSZ6pe+BAPN9B1
GRC1Wjadic6NusK3E7DfQzKX
-----END X509 CRL-----
