Certificate Revocation List (CRL):
        Version 2 (0x1)
    Signature Algorithm: sha256WithRSAEncryption
        Issuer: /C=US/ST=Montana/L=Bozeman/O=Sawtooth/OU=Consulting/CN=www.wolfssl.com/emailAddress=info@wolfssl.com
        Last Update: Nov 23 12:49:37 2015 GMT
        Next Update: Aug 19 12:49:37 2018 GMT
        CRL extensions:
            X509v3 CRL Number: 
                1
Revoked Certificates:
    Serial Number: 02
        Revocation Date: Nov 23 12:49:37 2015 GMT
    Signature Algorithm: sha256WithRSAEncryption
         3c:36:71:b3:df:e4:08:16:59:55:3c:2c:f4:80:4e:e6:2f:db:
         9c:26:8d:3f:ef:c4:99:3e:14:7f:de:51:ea:ca:4a:6b:c5:ee:
         54:04:c8:87:54:43:d7:df:ad:33:1c:7e:b6:09:e2:fb:da:27:
         9d:ca:5e:fd:3c:f5:78:64:6f:2d:3d:05:26:68:e0:ed:36:25:
         8f:95:57:0e:85:16:3d:01:bd:69:9f:70:b9:12:bc:2f:45:dc:
         20:30:e0:55:a3:50:e2:d8:bd:94:50:01:11:ec:fa:19:a0:85:
         75:a3:bc:74:f5:08:48:b6:c8:09:10:e2:4c:f5:73:e3:c9:38:
         7e:4f:cc:9d:9c:51:04:0d:2f:5e:fb:b3:49:66:86:8e:16:d6:
         2d:97:50:b2:b0:d9:5e:ed:4f:fc:f3:db:03:6e:25:a7:b7:e3:
         81:f8:6a:21:0d:fa:aa:96:30:80:11:fa:67:ea:f4:92:f8:69:
         cc:a0:1d:04:ec:3f:21:58:70:f9:f4:50:b3:79:ad:2b:ae:07:
         a4:c6:6b:2f:45:85:e2:bf:de:64:a0:50:2b:15:c9:c1:ae:5e:
         7f:ff:4d:c0:e5:d0:13:7d:cc:0d:cf:7c:4d:28:7b:8e:4b:4a:
         c0:02:0d:b6:1e:9a:38:b8:99:70:be:fa:1f:35:d7:92:ac:36:
         c8:0c:07:d8
-----BEGIN X509 CRL-----
MIICBDCB7QIBATANBgkqhkiG9w0BAQsFADCBlDELMAkGA1UEBhMCVVMxEDAOBgNV
BAgMB01vbnRhbmExEDAOBgNVBAcMB0JvemVtYW4xETAPBgNVBAoMCFNhd3Rvb3Ro
MRMwEQYDVQQLDApDb25zdWx0aW5nMRgwFgYDVQQDDA93d3cud29sZnNzbC5jb20x
HzAdBgkqhkiG9w0BCQEWEGluZm9Ad29sZnNzbC5jb20XDTE1MTEyMzEyNDkzN1oX
DTE4MDgxOTEyNDkzN1owFDASAgECFw0xNTExMjMxMjQ5MzdaoA4wDDAKBgNVHRQE
AwIBATANBgkqhkiG9w0BAQsFAAOCAQEAPDZxs9/kCBZZVTws9IBO5i/bnCaNP+/E
mT4Uf95R6spKa8XuVATIh1RD19+tMxx+tgni+9onncpe/Tz1eGRvLT0FJmjg7TYl
j5VXDoUWPQG9aZ9wuRK8L0XcIDDgVaNQ4ti9lFABEez6GaCFdaO8dPUISLbICRDi
TPVz48k4fk/MnZxRBA0vXvuzSWaGjhbWLZdQsrDZXu1P/PPbA24lp7fjgfhqIQ36
qpYwgBH6Z+r0kvhpzKAdBOw/IVhw+fRQs3mtK64HpMZrL0WF4r/eZKBQKxXJwa5e
f/9NwOXQE33MDc98TSh7jktKwAINth6aOLiZcL76HzXXkqw2yAwH2A==
-----END X509 CRL-----
