Certificate Revocation List (CRL):
        Version 2 (0x1)
    Signature Algorithm: sha1WithRSAEncryption
        Issuer: /C=US/ST=Montana/L=Bozeman/O=Sawtooth/OU=Consulting/CN=www.yassl.com/emailAddress=info@yassl.com
        Last Update: Feb  7 20:14:06 2014 GMT
        Next Update: Feb  7 20:14:06 2015 GMT
        CRL extensions:
            X509v3 CRL Number: 
                1
No Revoked Certificates.
    Signature Algorithm: sha1WithRSAEncryption
         4b:c1:68:4f:80:01:0e:ab:ff:c1:8f:5e:e5:3c:01:7a:fd:9c:
         bb:21:b3:68:73:7c:e9:dc:c5:70:a8:fd:1b:74:27:c2:9e:7d:
         11:9c:95:b9:fb:73:ac:50:bb:b7:4a:5e:f1:f3:44:b4:7c:b5:
         21:0f:32:48:2e:b2:03:95:a7:09:6b:25:87:c3:1d:9c:3f:8f:
         69:91:30:fb:e5:a1:b2:26:1a:ed:8f:73:06:2d:bd:bc:72:f4:
         b8:bd:63:61:90:c7:91:2b:68:52:51:47:0d:d6:a1:79:b8:4b:
         bc:30:57:94:fa:b7:49:80:1a:1f:4d:aa:a3:8b:cd:8f:5d:8e:
         ad:8b:d6:d1:5b:c1:cf:f2:0c:60:22:19:87:42:db:42:8b:aa:
         47:36:4d:20:eb:cb:72:ce:4b:48:1b:f3:4d:0b:e0:f8:58:27:
         65:60:e7:97:50:83:a9:80:58:62:a8:02:ac:4e:37:79:42:47:
         65:aa:55:ca:7c:9a:9c:bf:6c:36:89:f3:f7:60:d3:30:be:d4:
         ce:f1:af:41:7e:02:75:6e:82:86:96:b9:16:07:15:29:c0:65:
         4d:2f:13:4f:01:ec:47:f1:af:36:0a:d6:a1:dc:81:57:18:2d:
         00:7b:d4:49:88:c0:61:81:0e:cd:a7:39:6a:53:2a:7c:91:3d:
         ac:62:8d:49
-----BEGIN X509 CRL-----
MIIB6jCB0wIBATANBgkqhkiG9w0BAQUFADCBkDELMAkGA1UEBhMCVVMxEDAOBgNV
BAgTB01vbnRhbmExEDAOBgNVBAcTB0JvemVtYW4xETAPBgNVBAoTCFNhd3Rvb3Ro
MRMwEQYDVQQLEwpDb25zdWx0aW5nMRYwFAYDVQQDEw13d3cueWFzc2wuY29tMR0w
GwYJKoZIhvcNAQkBFg5pbmZvQHlhc3NsLmNvbRcNMTQwMjA3MjAxNDA2WhcNMTUw
MjA3MjAxNDA2WqAOMAwwCgYDVR0UBAMCAQEwDQYJKoZIhvcNAQEFBQADggEBAEvB
aE+AAQ6r/8GPXuU8AXr9nLshs2hzfOncxXCo/Rt0J8KefRGclbn7c6xQu7dKXvHz
RLR8tSEPMkgusgOVpwlrJYfDHZw/j2mRMPvlobImGu2PcwYtvbxy9Li9Y2GQx5Er
aFJRRw3WoXm4S7wwV5T6t0mAGh9NqqOLzY9djq2L1tFbwc/yDGAiGYdC20KLqkc2
TSDry3LOS0gb800L4PhYJ2Vg55dQg6mAWGKoAqxON3lCR2WqVcp8mpy/bDaJ8/dg
0zC+1M7xr0F+AnVugoaWuRYHFSnAZU0vE08B7EfxrzYK1qHcgVcYLQB71EmIwGGB
Ds2nOWpTKnyRPaxijUk=
-----END X509 CRL-----
