Certificate Revocation List (CRL):
        Version 2 (0x1)
    Signature Algorithm: sha1WithRSAEncryption
        Issuer: /C=US/ST=Montana/L=Bozeman/O=Sawtooth/OU=Consulting/CN=www.yassl.com/emailAddress=info@yassl.com
        Last Update: Nov 29 19:30:37 2012 GMT
        Next Update: Mar 29 19:30:37 2013 GMT
        CRL extensions:
            X509v3 CRL Number: 
                65
No Revoked Certificates.
    Signature Algorithm: sha1WithRSAEncryption
         20:c1:d8:f4:83:9e:5c:76:a0:b0:e7:3f:8c:ae:e6:e7:56:65:
         0a:74:17:05:ea:ee:cb:76:d0:62:43:cc:49:e4:35:8a:93:86:
         46:c8:21:d9:e9:cb:e8:80:43:71:11:f8:47:e2:b2:b3:b3:64:
         51:16:cf:cb:f4:0f:59:26:4a:b6:82:69:88:59:c5:d5:f8:64:
         83:73:11:e5:9d:6b:7f:b6:da:a3:2a:2b:e0:b6:49:48:a0:e0:
         dc:61:ce:50:a8:d5:2d:69:44:33:c1:3f:92:8e:ac:e8:80:30:
         a7:2d:34:c0:c1:02:d1:87:57:e9:7e:f0:5c:e9:85:84:12:44:
         4a:7f:cd:af:50:7f:bd:f5:49:26:5f:da:22:c5:48:60:6b:41:
         a4:70:92:97:ac:0f:ce:60:1f:d7:00:6d:68:d6:77:b5:a9:50:
         d1:3f:f3:f3:b6:09:ab:f5:b3:bd:f0:ae:a5:7c:6e:f0:e6:b5:
         cc:87:96:17:61:a5:d3:6b:51:7b:17:1f:2f:1e:68:e2:b2:07:
         6a:c8:b7:e4:07:6b:ca:cd:0c:96:20:54:0d:f2:30:1b:3e:ce:
         49:24:78:9c:3b:af:29:79:08:3e:59:20:1a:9f:03:32:ca:b3:
         42:ec:02:5c:28:0c:c7:f5:19:15:1e:e1:af:e0:78:99:5a:23:
         15:89:5d:fc
-----BEGIN X509 CRL-----
MIIB6jCB0wIBATANBgkqhkiG9w0BAQUFADCBkDELMAkGA1UEBhMCVVMxEDAOBgNV
BAgTB01vbnRhbmExEDAOBgNVBAcTB0JvemVtYW4xETAPBgNVBAoTCFNhd3Rvb3Ro
MRMwEQYDVQQLEwpDb25zdWx0aW5nMRYwFAYDVQQDEw13d3cueWFzc2wuY29tMR0w
GwYJKoZIhvcNAQkBFg5pbmZvQHlhc3NsLmNvbRcNMTIxMTI5MTkzMDM3WhcNMTMw
MzI5MTkzMDM3WqAOMAwwCgYDVR0UBAMCAUEwDQYJKoZIhvcNAQEFBQADggEBACDB
2PSDnlx2oLDnP4yu5udWZQp0FwXq7st20GJDzEnkNYqThkbIIdnpy+iAQ3ER+Efi
srOzZFEWz8v0D1kmSraCaYhZxdX4ZINzEeWda3+22qMqK+C2SUig4NxhzlCo1S1p
RDPBP5KOrOiAMKctNMDBAtGHV+l+8FzphYQSREp/za9Qf731SSZf2iLFSGBrQaRw
kpesD85gH9cAbWjWd7WpUNE/8/O2Cav1s73wrqV8bvDmtcyHlhdhpdNrUXsXHy8e
aOKyB2rIt+QHa8rNDJYgVA3yMBs+zkkkeJw7ryl5CD5ZIBqfAzLKs0LsAlwoDMf1
GRUe4a/geJlaIxWJXfw=
-----END X509 CRL-----
