Certificate Revocation List (CRL):
        Version 2 (0x1)
        Signature Algorithm: sha256WithRSAEncryption
        Issuer: C = US, ST = Montana, L = Bozeman, O = Sawtooth, OU = Consulting, CN = www.wolfssl.com, emailAddress = info@wolfssl.com
        Last Update: May  7 07:39:05 2020 GMT
        Next Update: Feb  1 07:39:05 2023 GMT
        CRL extensions:
            X509v3 CRL Number: 
                2
Revoked Certificates:
    Serial Number: 02
        Revocation Date: May  7 07:39:05 2020 GMT
    Signature Algorithm: sha256WithRSAEncryption
         99:6d:5f:dc:32:d2:39:58:25:2a:c3:80:3c:e6:89:5c:ca:da:
         fc:c5:f9:11:16:4e:1e:d2:be:78:dd:fc:10:f8:f4:f6:86:bf:
         29:8d:62:4d:b3:4a:f4:8e:b7:77:d6:2f:fa:4f:fe:ec:01:de:
         a5:a5:4e:0d:e4:d4:0c:c9:04:c5:7b:e1:87:cc:32:a5:9b:f4:
         11:12:fc:51:cc:9f:34:11:5d:4e:c6:f2:f5:db:dd:75:e6:da:
         2f:15:57:db:78:10:44:18:0d:f4:54:ce:ea:92:b2:15:43:83:
         7e:3d:2a:0e:e4:04:e1:13:ea:8e:ba:6c:2b:80:29:75:81:c5:
         21:67:95:ec:1c:37:42:03:8c:ba:8e:c1:bd:44:c6:a1:b1:52:
         73:10:ba:b8:a4:75:da:60:9a:ee:30:45:9b:a8:7b:f4:87:be:
         de:51:11:5d:2b:23:2d:23:df:1e:ef:47:fd:bf:0d:34:ca:79:
         47:ef:16:a0:00:d7:9b:07:cb:42:77:e6:b3:cf:38:f9:88:82:
         b1:4d:70:61:a4:11:7b:11:ec:bf:47:9c:25:82:82:eb:37:df:
         8a:76:eb:77:6f:5b:9e:11:fb:9c:8a:66:01:94:cf:4e:cb:93:
         3e:14:ae:77:a1:4e:ba:7f:59:46:6b:d0:0d:b7:c5:83:ef:da:
         48:d4:1d:d2
-----BEGIN X509 CRL-----
MIICBDCB7QIBATANBgkqhkiG9w0BAQsFADCBlDELMAkGA1UEBhMCVVMxEDAOBgNV
BAgMB01vbnRhbmExEDAOBgNVBAcMB0JvemVtYW4xETAPBgNVBAoMCFNhd3Rvb3Ro
MRMwEQYDVQQLDApDb25zdWx0aW5nMRgwFgYDVQQDDA93d3cud29sZnNzbC5jb20x
HzAdBgkqhkiG9w0BCQEWEGluZm9Ad29sZnNzbC5jb20XDTIwMDUwNzA3MzkwNVoX
DTIzMDIwMTA3MzkwNVowFDASAgECFw0yMDA1MDcwNzM5MDVaoA4wDDAKBgNVHRQE
AwIBAjANBgkqhkiG9w0BAQsFAAOCAQEAmW1f3DLSOVglKsOAPOaJXMra/MX5ERZO
HtK+eN38EPj09oa/KY1iTbNK9I63d9Yv+k/+7AHepaVODeTUDMkExXvhh8wypZv0
ERL8UcyfNBFdTsby9dvddebaLxVX23gQRBgN9FTO6pKyFUODfj0qDuQE4RPqjrps
K4ApdYHFIWeV7Bw3QgOMuo7BvUTGobFScxC6uKR12mCa7jBFm6h79Ie+3lERXSsj
LSPfHu9H/b8NNMp5R+8WoADXmwfLQnfms884+YiCsU1wYaQRexHsv0ecJYKC6zff
inbrd29bnhH7nIpmAZTPTsuTPhSud6FOun9ZRmvQDbfFg+/aSNQd0g==
-----END X509 CRL-----
