Certificate Revocation List (CRL):
        Version 2 (0x1)
        Signature Algorithm: sha256WithRSAEncryption
        Issuer: C = US, ST = Montana, L = Bozeman, O = Sawtooth, OU = Consulting, CN = www.wolfssl.com, emailAddress = info@wolfssl.com
        Last Update: Dec 20 23:07:25 2021 GMT
        Next Update: Sep 15 23:07:25 2024 GMT
        CRL extensions:
            X509v3 CRL Number: 
                3
Revoked Certificates:
    Serial Number: 01
        Revocation Date: Dec 20 23:07:25 2021 GMT
    Serial Number: 02
        Revocation Date: Dec 20 23:07:25 2021 GMT
    Signature Algorithm: sha256WithRSAEncryption
         1a:64:b8:03:b0:03:c9:e1:75:c4:c1:6e:ab:af:8e:68:9b:b1:
         d0:e1:12:c0:2c:c0:8e:74:6d:27:e2:e9:36:25:c3:be:10:d7:
         00:e0:1e:a0:27:84:13:bb:75:73:d8:e7:c5:0b:14:3b:f3:3d:
         ef:bc:dc:ad:5c:4c:bf:e3:67:82:ef:a3:84:2d:72:c6:15:f7:
         4e:13:66:92:44:6f:78:d9:25:36:10:96:49:e1:37:9a:6f:db:
         61:2b:4c:88:ff:d1:fa:fa:2c:d4:76:38:2d:c1:f8:14:e9:7e:
         18:52:46:69:7c:74:8a:e4:fc:a2:a1:bc:f8:a5:cf:1f:61:dd:
         b8:c7:61:d5:0c:e2:a1:24:3c:fe:6b:a7:61:dc:e0:39:2b:73:
         56:d5:13:47:d5:2a:2f:03:83:07:bc:aa:4b:5e:46:87:09:03:
         f2:f2:e7:64:63:ad:99:3e:c4:a8:e3:e6:98:ed:31:b8:4d:1e:
         00:a0:95:ba:35:3a:c1:e1:50:4d:30:f6:65:e2:4f:8c:3a:87:
         e3:0b:8d:a8:ec:15:aa:99:f0:65:57:b2:f4:f0:ed:5a:b6:ce:
         56:a7:af:d1:cf:48:10:cb:a6:27:36:d8:05:ac:54:d4:2e:fb:
         b9:64:79:44:59:9b:e9:81:c5:e2:11:59:ea:8f:78:ae:8f:7f:
         2e:cf:3d:e8
-----BEGIN X509 CRL-----
MIICGTCCAQECAQEwDQYJKoZIhvcNAQELBQAwgZQxCzAJBgNVBAYTAlVTMRAwDgYD
VQQIDAdNb250YW5hMRAwDgYDVQQHDAdCb3plbWFuMREwDwYDVQQKDAhTYXd0b290
aDETMBEGA1UECwwKQ29uc3VsdGluZzEYMBYGA1UEAwwPd3d3LndvbGZzc2wuY29t
MR8wHQYJKoZIhvcNAQkBFhBpbmZvQHdvbGZzc2wuY29tFw0yMTEyMjAyMzA3MjVa
Fw0yNDA5MTUyMzA3MjVaMCgwEgIBARcNMjExMjIwMjMwNzI1WjASAgECFw0yMTEy
MjAyMzA3MjVaoA4wDDAKBgNVHRQEAwIBAzANBgkqhkiG9w0BAQsFAAOCAQEAGmS4
A7ADyeF1xMFuq6+OaJux0OESwCzAjnRtJ+LpNiXDvhDXAOAeoCeEE7t1c9jnxQsU
O/M977zcrVxMv+Nngu+jhC1yxhX3ThNmkkRveNklNhCWSeE3mm/bYStMiP/R+vos
1HY4LcH4FOl+GFJGaXx0iuT8oqG8+KXPH2HduMdh1QzioSQ8/munYdzgOStzVtUT
R9UqLwODB7yqS15GhwkD8vLnZGOtmT7EqOPmmO0xuE0eAKCVujU6weFQTTD2ZeJP
jDqH4wuNqOwVqpnwZVey9PDtWrbOVqev0c9IEMumJzbYBaxU1C77uWR5RFmb6YHF
4hFZ6o94ro9/Ls896A==
-----END X509 CRL-----
