Certificate Revocation List (CRL):
        Version 2 (0x1)
    Signature Algorithm: sha256WithRSAEncryption
        Issuer: /C=US/ST=Montana/L=Bozeman/O=Sawtooth/OU=Consulting/CN=www.wolfssl.com/emailAddress=info@wolfssl.com
        Last Update: Apr 13 15:23:11 2018 GMT
        Next Update: Jan  7 15:23:11 2021 GMT
        CRL extensions:
            X509v3 CRL Number: 
                1
Revoked Certificates:
    Serial Number: 02
        Revocation Date: Apr 13 15:23:11 2018 GMT
    Signature Algorithm: sha256WithRSAEncryption
         23:8e:10:e0:29:d3:dc:ab:f4:82:ad:d9:66:a4:96:ff:5b:c0:
         5f:f2:44:cf:6e:cc:df:b4:52:2f:06:8a:d3:80:a3:0e:63:3c:
         49:da:76:51:4a:70:c8:05:d9:e8:14:7b:87:df:62:39:46:e1:
         d4:a1:45:2b:33:37:c7:94:e9:92:2c:ca:b0:d5:34:1c:ea:b4:
         d8:a2:10:5b:36:ff:04:b2:a9:f4:9b:94:18:c0:a2:03:2f:1a:
         d3:f5:d3:c4:fd:b6:6b:b2:c6:f6:3c:e5:45:a2:d6:97:2c:b9:
         63:ad:0a:cd:01:33:a0:ff:0c:ac:86:b5:22:b8:a7:aa:8b:9d:
         c0:ea:79:01:12:6b:b1:be:13:fe:85:d0:40:24:75:7e:8d:4e:
         30:5d:62:4f:9b:5b:01:5e:4a:b2:50:c8:c1:39:50:b7:3f:8d:
         9c:d0:30:6f:0c:e6:66:69:f6:f9:51:6d:c9:6c:b1:df:6e:d5:
         73:53:61:4c:99:2a:58:88:db:5c:b6:60:ed:18:2a:81:be:83:
         09:c4:f5:0c:0c:a2:44:c7:ab:c8:ff:68:c5:48:24:c9:a4:fa:
         bf:b4:f5:42:12:fd:b6:6e:db:8b:8d:e7:86:a5:4c:02:8f:fe:
         01:c7:0f:bd:fb:48:ce:c6:29:a6:ed:48:51:d3:3f:c8:ce:ca:
         4b:e7:b4:f6
-----BEGIN X509 CRL-----
MIICBDCB7QIBATANBgkqhkiG9w0BAQsFADCBlDELMAkGA1UEBhMCVVMxEDAOBgNV
BAgMB01vbnRhbmExEDAOBgNVBAcMB0JvemVtYW4xETAPBgNVBAoMCFNhd3Rvb3Ro
MRMwEQYDVQQLDApDb25zdWx0aW5nMRgwFgYDVQQDDA93d3cud29sZnNzbC5jb20x
HzAdBgkqhkiG9w0BCQEWEGluZm9Ad29sZnNzbC5jb20XDTE4MDQxMzE1MjMxMVoX
DTIxMDEwNzE1MjMxMVowFDASAgECFw0xODA0MTMxNTIzMTFaoA4wDDAKBgNVHRQE
AwIBATANBgkqhkiG9w0BAQsFAAOCAQEAI44Q4CnT3Kv0gq3ZZqSW/1vAX/JEz27M
37RSLwaK04CjDmM8Sdp2UUpwyAXZ6BR7h99iOUbh1KFFKzM3x5TpkizKsNU0HOq0
2KIQWzb/BLKp9JuUGMCiAy8a0/XTxP22a7LG9jzlRaLWlyy5Y60KzQEzoP8MrIa1
IrinqoudwOp5ARJrsb4T/oXQQCR1fo1OMF1iT5tbAV5KslDIwTlQtz+NnNAwbwzm
Zmn2+VFtyWyx327Vc1NhTJkqWIjbXLZg7Rgqgb6DCcT1DAyiRMeryP9oxUgkyaT6
v7T1QhL9tm7bi43nhqVMAo/+AccPvftIzsYppu1IUdM/yM7KS+e09g==
-----END X509 CRL-----
