Certificate Revocation List (CRL):
        Version 2 (0x1)
    Signature Algorithm: sha256WithRSAEncryption
        Issuer: /C=US/ST=Montana/L=Bozeman/O=Sawtooth/OU=Consulting/CN=www.wolfssl.com/emailAddress=info@wolfssl.com
        Last Update: Jul 22 16:17:45 2015 GMT
        Next Update: Apr 17 16:17:45 2018 GMT
        CRL extensions:
            X509v3 CRL Number: 
                7
Revoked Certificates:
    Serial Number: 01
        Revocation Date: Jul 22 16:17:45 2015 GMT
    Serial Number: 02
        Revocation Date: Jul 22 16:17:45 2015 GMT
    Signature Algorithm: sha256WithRSAEncryption
         7f:61:91:8a:8c:c1:23:f1:d4:98:d9:67:67:1e:d2:54:2a:ce:
         b8:41:d1:f7:c4:88:84:01:a5:52:d6:42:d1:af:e6:c8:fb:13:
         51:9e:2e:18:c1:e7:9d:83:81:79:d3:34:a3:14:a8:1c:7b:9e:
         07:2b:fb:73:31:ce:17:52:69:80:cc:f7:fd:42:e3:1c:e0:63:
         66:70:52:81:09:cc:be:51:02:2c:33:9a:ec:21:15:81:9f:7a:
         10:d0:9c:23:f4:e6:b3:2b:e2:36:0e:fb:79:da:52:2c:bc:fa:
         dd:9c:53:6b:48:b0:6a:56:5c:7b:87:53:18:94:c4:37:03:bf:
         13:18:e3:a4:26:e0:66:0c:dc:e5:99:84:5d:36:69:01:f4:69:
         d4:06:eb:43:ff:4f:f5:17:46:9d:b7:cb:45:ec:0d:9e:9c:4a:
         96:3c:0b:92:c5:fb:de:d4:3f:af:a9:5e:b1:6f:9d:d7:8b:b5:
         ab:86:b6:eb:00:da:b1:f4:6d:72:2d:9b:ec:f3:1b:2f:24:99:
         d5:04:7b:4f:f8:7a:2e:4e:b6:ee:be:f8:50:d2:96:96:6f:f6:
         3a:c2:7f:35:48:82:1a:84:64:03:e8:58:8e:0c:dc:62:97:cd:
         82:ff:16:93:ac:44:14:e1:ae:fc:fb:52:25:b6:0d:70:ec:c4:
         93:42:37:af
-----BEGIN X509 CRL-----
MIICGTCCAQECAQEwDQYJKoZIhvcNAQELBQAwgZQxCzAJBgNVBAYTAlVTMRAwDgYD
VQQIDAdNb250YW5hMRAwDgYDVQQHDAdCb3plbWFuMREwDwYDVQQKDAhTYXd0b290
aDETMBEGA1UECwwKQ29uc3VsdGluZzEYMBYGA1UEAwwPd3d3LndvbGZzc2wuY29t
MR8wHQYJKoZIhvcNAQkBFhBpbmZvQHdvbGZzc2wuY29tFw0xNTA3MjIxNjE3NDVa
Fw0xODA0MTcxNjE3NDVaMCgwEgIBARcNMTUwNzIyMTYxNzQ1WjASAgECFw0xNTA3
MjIxNjE3NDVaoA4wDDAKBgNVHRQEAwIBBzANBgkqhkiG9w0BAQsFAAOCAQEAf2GR
iozBI/HUmNlnZx7SVCrOuEHR98SIhAGlUtZC0a/myPsTUZ4uGMHnnYOBedM0oxSo
HHueByv7czHOF1JpgMz3/ULjHOBjZnBSgQnMvlECLDOa7CEVgZ96ENCcI/Tmsyvi
Ng77edpSLLz63ZxTa0iwalZce4dTGJTENwO/ExjjpCbgZgzc5ZmEXTZpAfRp1Abr
Q/9P9RdGnbfLRewNnpxKljwLksX73tQ/r6lesW+d14u1q4a26wDasfRtci2b7PMb
LySZ1QR7T/h6Lk627r74UNKWlm/2OsJ/NUiCGoRkA+hYjgzcYpfNgv8Wk6xEFOGu
/PtSJbYNcOzEk0I3rw==
-----END X509 CRL-----
