Certificate Revocation List (CRL):
        Version 2 (0x1)
    Signature Algorithm: sha1WithRSAEncryption
        Issuer: /C=US/ST=Montana/L=Bozeman/O=Sawtooth/OU=Consulting/CN=www.wolfssl.com/emailAddress=info@wolfssl.com
        Last Update: Feb  5 06:33:30 2015 GMT
        Next Update: Nov  1 06:33:30 2017 GMT
        CRL extensions:
            X509v3 CRL Number: 
                2
Revoked Certificates:
    Serial Number: 01
        Revocation Date: Feb  5 06:33:30 2015 GMT
    Signature Algorithm: sha1WithRSAEncryption
         ae:3b:8e:88:bb:a6:9b:93:1a:41:91:73:b9:97:1c:f8:f4:a0:
         a6:1c:58:24:52:15:d9:b5:14:35:8d:b6:e9:be:1c:01:e0:24:
         ff:ec:2c:71:cc:a4:78:60:a6:eb:e2:5d:41:67:e1:21:d4:e8:
         a8:f5:26:c6:69:25:38:c7:87:3f:6a:78:b5:16:14:d2:3f:17:
         f1:aa:8d:41:5b:ba:8e:f5:49:e9:e9:d8:93:6f:0a:d2:fe:f6:
         7e:20:f4:76:8c:db:54:ef:42:16:91:75:27:2a:2d:0b:5e:aa:
         f7:97:6c:6a:7d:37:e5:c8:31:aa:6b:bf:77:45:2a:01:67:91:
         73:e0:7a:d8:b4:a1:e6:08:e0:2c:4a:8d:a6:b3:eb:c6:24:2a:
         1f:d2:e2:1b:03:d4:0a:19:07:c0:dc:e3:c3:13:a7:48:66:fc:
         da:09:ea:40:29:11:9e:e1:48:46:46:2f:05:87:d2:cb:ac:8d:
         a5:43:1a:ef:2d:56:de:da:1e:34:9a:09:13:79:f7:95:ec:5b:
         aa:28:ad:1e:b1:0e:e7:71:d9:12:45:a3:2c:df:17:52:37:34:
         5d:0b:c0:d5:df:2c:40:d6:e4:4f:a7:07:bd:a4:9c:f9:a7:f8:
         bb:1e:bb:93:57:fc:20:57:0c:cc:99:5a:75:8c:83:3f:ba:97:
         96:1c:0e:67
-----BEGIN X509 CRL-----
MIICBDCB7QIBATANBgkqhkiG9w0BAQUFADCBlDELMAkGA1UEBhMCVVMxEDAOBgNV
BAgMB01vbnRhbmExEDAOBgNVBAcMB0JvemVtYW4xETAPBgNVBAoMCFNhd3Rvb3Ro
MRMwEQYDVQQLDApDb25zdWx0aW5nMRgwFgYDVQQDDA93d3cud29sZnNzbC5jb20x
HzAdBgkqhkiG9w0BCQEWEGluZm9Ad29sZnNzbC5jb20XDTE1MDIwNTA2MzMzMFoX
DTE3MTEwMTA2MzMzMFowFDASAgEBFw0xNTAyMDUwNjMzMzBaoA4wDDAKBgNVHRQE
AwIBAjANBgkqhkiG9w0BAQUFAAOCAQEArjuOiLumm5MaQZFzuZcc+PSgphxYJFIV
2bUUNY226b4cAeAk/+wsccykeGCm6+JdQWfhIdToqPUmxmklOMeHP2p4tRYU0j8X
8aqNQVu6jvVJ6enYk28K0v72fiD0dozbVO9CFpF1JyotC16q95dsan035cgxqmu/
d0UqAWeRc+B62LSh5gjgLEqNprPrxiQqH9LiGwPUChkHwNzjwxOnSGb82gnqQCkR
nuFIRkYvBYfSy6yNpUMa7y1W3toeNJoJE3n3lexbqiitHrEO53HZEkWjLN8XUjc0
XQvA1d8sQNbkT6cHvaSc+af4ux67k1f8IFcMzJladYyDP7qXlhwOZw==
-----END X509 CRL-----
