Certificate Revocation List (CRL):
        Version 2 (0x1)
        Signature Algorithm: sha256WithRSAEncryption
        Issuer: C = US, ST = Montana, L = Bozeman, O = Sawtooth, OU = Consulting, CN = www.wolfssl.com, emailAddress = info@wolfssl.com
        Last Update: Sep 26 17:22:46 2023 GMT
        Next Update: Jun 22 17:22:46 2026 GMT
        CRL extensions:
            X509v3 CRL Number: 
                2
Revoked Certificates:
    Serial Number: 02
        Revocation Date: Sep 26 17:22:46 2023 GMT
    Signature Algorithm: sha256WithRSAEncryption
    Signature Value:
        aa:70:82:69:65:a8:e0:90:b1:ea:a6:64:e9:9d:53:48:4f:c9:
        f8:bc:4c:80:51:b2:67:e6:c1:72:2e:de:0f:db:a3:79:44:de:
        ed:e1:23:e2:29:f6:a2:f0:14:47:39:f1:1c:56:61:0f:de:79:
        63:43:e9:60:36:42:50:0f:a8:c1:4e:86:c5:dc:43:b7:c3:e4:
        3e:b7:33:ff:70:a1:82:1f:4d:9c:e4:99:43:f5:b7:f1:59:f3:
        6f:8c:41:a0:75:65:6b:6a:fc:dd:98:9c:01:cd:40:89:e5:ae:
        87:a9:17:fc:f9:8b:62:47:ff:e0:2b:c1:1e:e3:95:6c:fe:f8:
        c9:f1:be:90:ab:61:cb:5d:2c:88:d5:1c:2e:c5:fc:a0:db:56:
        ef:1f:be:c4:66:38:1d:18:ce:14:46:b9:e5:79:71:a3:d7:f9:
        1e:0f:a9:90:8c:cd:88:4f:dd:fa:8c:91:74:8a:98:b5:ab:3c:
        f2:7e:db:bc:45:d4:10:d0:a8:2a:3a:83:d4:91:b9:d0:f3:d6:
        79:72:38:70:c2:ea:99:83:0b:bf:e8:85:81:34:87:97:1f:65:
        df:27:70:59:a0:d1:df:b1:f6:08:34:cd:af:72:a3:01:d5:bb:
        f3:84:2d:c2:d6:2b:f5:40:48:9f:c7:bd:03:c1:92:a8:41:d7:
        25:35:96:4f
-----BEGIN X509 CRL-----
MIICBDCB7QIBATANBgkqhkiG9w0BAQsFADCBlDELMAkGA1UEBhMCVVMxEDAOBgNV
BAgMB01vbnRhbmExEDAOBgNVBAcMB0JvemVtYW4xETAPBgNVBAoMCFNhd3Rvb3Ro
MRMwEQYDVQQLDApDb25zdWx0aW5nMRgwFgYDVQQDDA93d3cud29sZnNzbC5jb20x
HzAdBgkqhkiG9w0BCQEWEGluZm9Ad29sZnNzbC5jb20XDTIzMDkyNjE3MjI0NloX
DTI2MDYyMjE3MjI0NlowFDASAgECFw0yMzA5MjYxNzIyNDZaoA4wDDAKBgNVHRQE
AwIBAjANBgkqhkiG9w0BAQsFAAOCAQEAqnCCaWWo4JCx6qZk6Z1TSE/J+LxMgFGy
Z+bBci7eD9ujeUTe7eEj4in2ovAURznxHFZhD955Y0PpYDZCUA+owU6GxdxDt8Pk
Prcz/3Chgh9NnOSZQ/W38Vnzb4xBoHVla2r83ZicAc1AieWuh6kX/PmLYkf/4CvB
HuOVbP74yfG+kKthy10siNUcLsX8oNtW7x++xGY4HRjOFEa55Xlxo9f5Hg+pkIzN
iE/d+oyRdIqYtas88n7bvEXUENCoKjqD1JG50PPWeXI4cMLqmYMLv+iFgTSHlx9l
3ydwWaDR37H2CDTNr3KjAdW784QtwtYr9UBIn8e9A8GSqEHXJTWWTw==
-----END X509 CRL-----
