Certificate Revocation List (CRL):
        Version 2 (0x1)
        Signature Algorithm: sha256WithRSAEncryption
        Issuer: C=US, ST=Montana, L=Bozeman, O=Sawtooth, OU=Consulting, CN=www.wolfssl.com, emailAddress=facts@wolfssl.com
        Last Update: Jun 11 21:44:40 2026 GMT
        Next Update: Mar  7 21:44:40 2029 GMT
        CRL extensions:
            X509v3 CRL Number: 
                2
Revoked Certificates:
    Serial Number: 02
        Revocation Date: Jun 11 21:44:40 2026 GMT
    Signature Algorithm: sha256WithRSAEncryption
    Signature Value:
        53:dc:68:3d:93:47:65:03:ca:a5:07:e8:13:26:72:94:02:3e:
        6f:c2:8d:27:fc:f6:64:c6:06:77:bc:1f:26:e4:6e:87:95:f8:
        fe:18:ee:d7:24:f9:b8:ad:74:85:76:ec:55:92:6c:58:4f:59:
        66:68:f1:17:78:dc:39:6c:4c:2b:38:1e:d4:07:ac:b8:2c:f5:
        d4:2b:c1:96:09:79:8a:a2:e2:d1:e5:1e:32:92:1f:12:81:a6:
        ad:4d:ce:9d:9a:08:6f:56:e4:fe:58:8d:da:b2:88:54:6a:5a:
        19:07:9c:1b:de:4f:7a:62:dd:35:75:25:29:a2:9a:ba:19:a9:
        32:fe:61:ad:bb:70:06:0f:37:62:7c:02:61:3e:43:22:e9:62:
        12:f2:f7:0b:18:3a:a2:fb:0a:e9:2d:0b:68:fc:e1:41:51:64:
        7c:c8:8c:4c:d6:fc:90:0b:24:e7:e3:52:a5:e9:09:f8:85:e9:
        73:ca:b2:00:19:05:d6:5f:99:af:bb:9a:41:0f:48:a7:b4:25:
        78:d0:b6:ce:3b:3c:c2:2d:fa:65:2e:65:5e:67:01:01:aa:f7:
        4d:ad:5a:8f:b4:30:d4:9c:0c:e9:b6:c5:b6:4a:b6:eb:3a:01:
        d1:92:b4:94:e8:62:e3:d3:37:ff:aa:38:8d:9f:e3:de:9c:b1:
        70:c5:11:64
-----BEGIN X509 CRL-----
MIICBTCB7gIBATANBgkqhkiG9w0BAQsFADCBlTELMAkGA1UEBhMCVVMxEDAOBgNV
BAgMB01vbnRhbmExEDAOBgNVBAcMB0JvemVtYW4xETAPBgNVBAoMCFNhd3Rvb3Ro
MRMwEQYDVQQLDApDb25zdWx0aW5nMRgwFgYDVQQDDA93d3cud29sZnNzbC5jb20x
IDAeBgkqhkiG9w0BCQEWEWZhY3RzQHdvbGZzc2wuY29tFw0yNjA2MTEyMTQ0NDBa
Fw0yOTAzMDcyMTQ0NDBaMBQwEgIBAhcNMjYwNjExMjE0NDQwWqAOMAwwCgYDVR0U
BAMCAQIwDQYJKoZIhvcNAQELBQADggEBAFPcaD2TR2UDyqUH6BMmcpQCPm/CjSf8
9mTGBne8HybkboeV+P4Y7tck+bitdIV27FWSbFhPWWZo8Rd43DlsTCs4HtQHrLgs
9dQrwZYJeYqi4tHlHjKSHxKBpq1Nzp2aCG9W5P5YjdqyiFRqWhkHnBveT3pi3TV1
JSmimroZqTL+Ya27cAYPN2J8AmE+QyLpYhLy9wsYOqL7CuktC2j84UFRZHzIjEzW
/JALJOfjUqXpCfiF6XPKsgAZBdZfma+7mkEPSKe0JXjQts47PMIt+mUuZV5nAQGq
902tWo+0MNScDOm2xbZKtus6AdGStJToYuPTN/+qOI2f496csXDFEWQ=
-----END X509 CRL-----
