Certificate Revocation List (CRL):
        Version 2 (0x1)
        Signature Algorithm: sha256WithRSAEncryption
        Issuer: C = US, ST = Montana, L = Bozeman, O = Sawtooth, OU = Consulting, CN = www.wolfssl.com, emailAddress = info@wolfssl.com
        Last Update: Dec 20 23:07:25 2021 GMT
        Next Update: Sep 15 23:07:25 2024 GMT
        CRL extensions:
            X509v3 CRL Number: 
                2
Revoked Certificates:
    Serial Number: 02
        Revocation Date: Dec 20 23:07:25 2021 GMT
    Signature Algorithm: sha256WithRSAEncryption
         8b:c0:b8:cb:03:5c:8c:d1:53:b2:c5:b1:4d:f3:b3:e8:13:bf:
         5f:a7:1a:cc:74:e8:06:66:c1:cb:89:c3:e3:b3:fb:68:4e:8f:
         d0:5b:33:d8:ed:5e:14:b3:21:c8:c0:06:66:97:6d:69:96:78:
         bd:a9:d1:59:85:0f:13:29:2d:2f:49:87:94:84:14:94:38:74:
         04:16:94:10:ea:f2:31:d8:34:b7:65:e8:5e:52:4f:96:ac:bf:
         5f:4f:6c:ee:5d:04:2a:26:b2:29:7c:9d:06:82:b3:b5:e6:5b:
         d5:11:72:56:d5:34:75:82:5e:2a:f3:c6:67:72:94:c6:02:83:
         e8:58:85:2d:73:db:55:30:a2:c2:b1:bb:4c:bf:f6:a2:d8:b3:
         fc:1b:bd:51:97:4e:f4:c2:04:4f:04:ee:61:e7:51:4b:4f:09:
         fe:10:5c:3c:1e:e0:cb:51:1f:54:f4:38:3f:6c:58:ee:4e:f8:
         ca:34:cd:37:ee:bb:06:53:14:c7:60:a4:89:ac:9a:50:4a:b5:
         9e:b3:59:97:9b:27:5e:5c:fa:14:74:3d:a2:76:62:63:ae:e8:
         d2:f9:b7:ad:0c:3f:07:40:50:5c:e4:fb:95:3c:3d:df:2e:81:
         f2:6a:9e:01:69:c3:a2:1e:d7:00:2b:6d:6c:67:f0:fb:13:ce:
         f1:a5:08:d6
-----BEGIN X509 CRL-----
MIICBDCB7QIBATANBgkqhkiG9w0BAQsFADCBlDELMAkGA1UEBhMCVVMxEDAOBgNV
BAgMB01vbnRhbmExEDAOBgNVBAcMB0JvemVtYW4xETAPBgNVBAoMCFNhd3Rvb3Ro
MRMwEQYDVQQLDApDb25zdWx0aW5nMRgwFgYDVQQDDA93d3cud29sZnNzbC5jb20x
HzAdBgkqhkiG9w0BCQEWEGluZm9Ad29sZnNzbC5jb20XDTIxMTIyMDIzMDcyNVoX
DTI0MDkxNTIzMDcyNVowFDASAgECFw0yMTEyMjAyMzA3MjVaoA4wDDAKBgNVHRQE
AwIBAjANBgkqhkiG9w0BAQsFAAOCAQEAi8C4ywNcjNFTssWxTfOz6BO/X6cazHTo
BmbBy4nD47P7aE6P0Fsz2O1eFLMhyMAGZpdtaZZ4vanRWYUPEyktL0mHlIQUlDh0
BBaUEOryMdg0t2XoXlJPlqy/X09s7l0EKiayKXydBoKzteZb1RFyVtU0dYJeKvPG
Z3KUxgKD6FiFLXPbVTCiwrG7TL/2otiz/Bu9UZdO9MIETwTuYedRS08J/hBcPB7g
y1EfVPQ4P2xY7k74yjTNN+67BlMUx2CkiayaUEq1nrNZl5snXlz6FHQ9onZiY67o
0vm3rQw/B0BQXOT7lTw93y6B8mqeAWnDoh7XACttbGfw+xPO8aUI1g==
-----END X509 CRL-----
