Certificate Revocation List (CRL):
        Version 2 (0x1)
        Signature Algorithm: sha256WithRSAEncryption
        Issuer: C=US, ST=Montana, L=Bozeman, O=Sawtooth, OU=Consulting, CN=www.wolfssl.com, emailAddress=facts@wolfssl.com
        Last Update: Jun 11 21:44:40 2026 GMT
        Next Update: Mar  7 21:44:40 2029 GMT
        CRL extensions:
            X509v3 CRL Number: 
                3
Revoked Certificates:
    Serial Number: 01
        Revocation Date: Jun 11 21:44:40 2026 GMT
    Serial Number: 02
        Revocation Date: Jun 11 21:44:40 2026 GMT
    Signature Algorithm: sha256WithRSAEncryption
    Signature Value:
        87:4f:5f:56:5e:1f:71:52:c4:03:4f:64:6b:db:7b:76:4a:dc:
        c0:dd:2b:77:9b:0b:bb:7c:ee:d1:c8:40:6c:fd:26:62:26:81:
        c7:1c:28:12:48:0b:f5:74:a2:9b:7c:73:79:0e:1e:cf:f8:36:
        f1:e0:e8:7f:e9:95:c0:c0:d6:2f:6d:94:c8:05:e9:f5:9b:8c:
        40:1c:3c:3e:4a:a0:70:4b:e9:40:d7:22:93:ba:a9:55:f7:de:
        00:4b:00:90:7b:15:5d:4f:96:2a:ab:6b:35:b4:df:95:ac:32:
        34:07:1d:34:9e:42:64:35:57:41:73:d3:77:07:0e:88:ca:84:
        fd:92:64:55:62:1e:75:fb:7d:0d:ce:dd:1c:04:74:d3:d5:95:
        30:1c:e3:40:0e:b4:46:03:09:a9:30:1d:4b:d6:b2:e4:3d:ea:
        2c:80:fc:9c:cd:8d:91:f0:e6:00:da:c0:67:7a:21:a5:05:c5:
        23:0d:6f:d3:83:f9:2d:b3:57:2d:fa:94:f3:ca:22:ae:97:03:
        42:8e:2c:e5:3d:6e:eb:25:81:b5:de:2f:e1:c2:b9:a5:d5:d4:
        c6:90:69:31:16:cf:2e:93:af:0b:10:17:24:88:2c:af:6b:74:
        68:5a:c7:6d:21:8c:8b:d3:ac:d8:87:62:8c:9f:d8:bb:dc:4d:
        44:ba:dd:64
-----BEGIN X509 CRL-----
MIICGjCCAQICAQEwDQYJKoZIhvcNAQELBQAwgZUxCzAJBgNVBAYTAlVTMRAwDgYD
VQQIDAdNb250YW5hMRAwDgYDVQQHDAdCb3plbWFuMREwDwYDVQQKDAhTYXd0b290
aDETMBEGA1UECwwKQ29uc3VsdGluZzEYMBYGA1UEAwwPd3d3LndvbGZzc2wuY29t
MSAwHgYJKoZIhvcNAQkBFhFmYWN0c0B3b2xmc3NsLmNvbRcNMjYwNjExMjE0NDQw
WhcNMjkwMzA3MjE0NDQwWjAoMBICAQEXDTI2MDYxMTIxNDQ0MFowEgIBAhcNMjYw
NjExMjE0NDQwWqAOMAwwCgYDVR0UBAMCAQMwDQYJKoZIhvcNAQELBQADggEBAIdP
X1ZeH3FSxANPZGvbe3ZK3MDdK3ebC7t87tHIQGz9JmImgcccKBJIC/V0opt8c3kO
Hs/4NvHg6H/plcDA1i9tlMgF6fWbjEAcPD5KoHBL6UDXIpO6qVX33gBLAJB7FV1P
liqrazW035WsMjQHHTSeQmQ1V0Fz03cHDojKhP2SZFViHnX7fQ3O3RwEdNPVlTAc
40AOtEYDCakwHUvWsuQ96iyA/JzNjZHw5gDawGd6IaUFxSMNb9OD+S2zVy36lPPK
Iq6XA0KOLOU9buslgbXeL+HCuaXV1MaQaTEWzy6TrwsQFySILK9rdGhax20hjIvT
rNiHYoyf2LvcTUS63WQ=
-----END X509 CRL-----
