Certificate Revocation List (CRL):
        Version 2 (0x1)
        Signature Algorithm: sha256WithRSAEncryption
        Issuer: C = US, ST = Montana, L = Bozeman, O = Sawtooth, OU = Consulting, CN = www.wolfssl.com, emailAddress = info@wolfssl.com
        Last Update: Jun 19 13:23:42 2020 GMT
        Next Update: Mar 16 13:23:42 2023 GMT
        CRL extensions:
            X509v3 CRL Number: 
                3
Revoked Certificates:
    Serial Number: 01
        Revocation Date: Jun 19 13:23:42 2020 GMT
    Serial Number: 02
        Revocation Date: Jun 19 13:23:42 2020 GMT
    Signature Algorithm: sha256WithRSAEncryption
         30:44:69:cd:7f:61:ac:6a:a0:fe:28:46:97:1c:0a:3c:c2:f9:
         ad:77:d4:37:18:d7:49:d0:1f:56:d8:44:2c:4f:e2:a9:3d:2a:
         b5:31:82:5d:38:bd:3a:1f:ab:9e:a0:3c:c4:61:27:46:6b:ee:
         ff:87:72:02:a5:a2:e8:e4:87:c6:37:0c:2c:58:92:4f:28:9d:
         4a:9a:59:f0:b9:c7:b1:2d:1e:a3:f4:51:ad:cd:92:1f:f9:96:
         aa:75:3c:1d:af:2a:34:b0:f3:b3:b8:63:f2:50:14:95:0e:f4:
         89:19:c3:b3:2b:f1:26:11:23:eb:a6:94:a5:67:10:54:3d:e6:
         aa:57:9a:82:9c:21:0b:f7:4a:24:f6:b9:8b:33:1d:30:fd:cc:
         4c:be:61:22:76:32:f6:dc:0a:8f:bf:4b:3e:db:39:84:79:30:
         a1:54:3a:5e:a7:b9:c4:39:0a:dc:29:ed:90:8b:a2:46:4f:1b:
         54:1c:03:c4:a9:00:ca:f8:d0:dd:4c:5c:36:18:d9:2e:b0:1c:
         ed:e7:3a:88:7a:9e:6b:81:7c:4f:95:bf:24:2a:1b:30:40:0f:
         e9:44:d8:21:8b:65:24:f4:b7:9c:61:f6:f1:17:f7:79:6d:03:
         24:4f:c0:c5:db:09:85:91:8f:38:a0:20:af:66:56:3a:05:6f:
         57:51:1e:2c
-----BEGIN X509 CRL-----
MIICGTCCAQECAQEwDQYJKoZIhvcNAQELBQAwgZQxCzAJBgNVBAYTAlVTMRAwDgYD
VQQIDAdNb250YW5hMRAwDgYDVQQHDAdCb3plbWFuMREwDwYDVQQKDAhTYXd0b290
aDETMBEGA1UECwwKQ29uc3VsdGluZzEYMBYGA1UEAwwPd3d3LndvbGZzc2wuY29t
MR8wHQYJKoZIhvcNAQkBFhBpbmZvQHdvbGZzc2wuY29tFw0yMDA2MTkxMzIzNDJa
Fw0yMzAzMTYxMzIzNDJaMCgwEgIBARcNMjAwNjE5MTMyMzQyWjASAgECFw0yMDA2
MTkxMzIzNDJaoA4wDDAKBgNVHRQEAwIBAzANBgkqhkiG9w0BAQsFAAOCAQEAMERp
zX9hrGqg/ihGlxwKPML5rXfUNxjXSdAfVthELE/iqT0qtTGCXTi9Oh+rnqA8xGEn
Rmvu/4dyAqWi6OSHxjcMLFiSTyidSppZ8LnHsS0eo/RRrc2SH/mWqnU8Ha8qNLDz
s7hj8lAUlQ70iRnDsyvxJhEj66aUpWcQVD3mqleagpwhC/dKJPa5izMdMP3MTL5h
InYy9twKj79LPts5hHkwoVQ6Xqe5xDkK3CntkIuiRk8bVBwDxKkAyvjQ3UxcNhjZ
LrAc7ec6iHqea4F8T5W/JCobMEAP6UTYIYtlJPS3nGH28Rf3eW0DJE/AxdsJhZGP
OKAgr2ZWOgVvV1EeLA==
-----END X509 CRL-----
