Certificate Revocation List (CRL):
        Version 2 (0x1)
    Signature Algorithm: sha256WithRSAEncryption
        Issuer: /C=US/ST=Montana/L=Bozeman/O=Sawtooth/OU=Consulting/CN=www.wolfssl.com/emailAddress=info@wolfssl.com
        Last Update: Feb 10 19:49:55 2021 GMT
        Next Update: Nov  7 19:49:55 2023 GMT
        CRL extensions:
            X509v3 CRL Number: 
                2
Revoked Certificates:
    Serial Number: 02
        Revocation Date: Feb 10 19:49:55 2021 GMT
    Signature Algorithm: sha256WithRSAEncryption
         64:70:f6:a5:21:76:7d:3b:38:fd:42:a2:91:be:6a:54:05:7a:
         a5:ce:4d:4c:57:db:d9:7b:5e:3c:86:8f:e8:d7:02:d7:7e:87:
         9b:f2:0f:35:f3:62:c4:2a:5e:5e:f5:26:40:b1:d4:9a:8d:dc:
         65:35:76:7e:e7:68:5a:57:66:48:d6:0b:bf:ac:d1:d3:5e:50:
         40:14:ae:3f:3b:e7:5a:c2:c4:c2:41:ba:77:1d:b2:46:29:f8:
         42:44:5c:3d:2a:92:87:18:fd:9d:54:11:5d:7b:82:0a:f0:46:
         d0:c1:56:72:53:9d:85:ac:21:95:ff:65:8e:41:49:d3:be:c4:
         b8:d0:f3:61:fb:eb:0a:a6:d9:f3:09:13:a9:74:01:2b:6c:8a:
         08:59:ce:37:52:c4:0e:74:d0:52:56:9d:e1:22:42:13:1e:31:
         cf:25:be:3e:df:c0:52:26:bf:f9:5b:c9:88:3f:29:4f:2f:80:
         f9:90:97:cc:29:c8:28:4d:06:e9:d9:8e:a9:6c:1f:92:89:36:
         67:c2:03:dc:02:99:4e:40:28:be:79:ef:ed:75:86:75:a2:06:
         47:cd:a6:93:b0:8c:74:3c:97:3a:d2:b8:e2:b5:fb:b4:76:eb:
         87:9f:97:f3:35:78:ee:d0:49:84:38:f1:2b:5c:5e:12:a1:c6:
         69:7a:ff:85
-----BEGIN X509 CRL-----
MIICBDCB7QIBATANBgkqhkiG9w0BAQsFADCBlDELMAkGA1UEBhMCVVMxEDAOBgNV
BAgMB01vbnRhbmExEDAOBgNVBAcMB0JvemVtYW4xETAPBgNVBAoMCFNhd3Rvb3Ro
MRMwEQYDVQQLDApDb25zdWx0aW5nMRgwFgYDVQQDDA93d3cud29sZnNzbC5jb20x
HzAdBgkqhkiG9w0BCQEWEGluZm9Ad29sZnNzbC5jb20XDTIxMDIxMDE5NDk1NVoX
DTIzMTEwNzE5NDk1NVowFDASAgECFw0yMTAyMTAxOTQ5NTVaoA4wDDAKBgNVHRQE
AwIBAjANBgkqhkiG9w0BAQsFAAOCAQEAZHD2pSF2fTs4/UKikb5qVAV6pc5NTFfb
2XtePIaP6NcC136Hm/IPNfNixCpeXvUmQLHUmo3cZTV2fudoWldmSNYLv6zR015Q
QBSuPzvnWsLEwkG6dx2yRin4QkRcPSqShxj9nVQRXXuCCvBG0MFWclOdhawhlf9l
jkFJ077EuNDzYfvrCqbZ8wkTqXQBK2yKCFnON1LEDnTQUlad4SJCEx4xzyW+Pt/A
Uia/+VvJiD8pTy+A+ZCXzCnIKE0G6dmOqWwfkok2Z8ID3AKZTkAovnnv7XWGdaIG
R82mk7CMdDyXOtK44rX7tHbrh5+X8zV47tBJhDjxK1xeEqHGaXr/hQ==
-----END X509 CRL-----
