Certificate Revocation List (CRL):
        Version 2 (0x1)
    Signature Algorithm: sha1WithRSAEncryption
        Issuer: /C=US/ST=Montana/L=Bozeman/O=Sawtooth/OU=Consulting/CN=www.yassl.com/emailAddress=info@yassl.com
        Last Update: Apr  1 22:54:01 2013 GMT
        Next Update: Sep 28 22:54:01 2013 GMT
        CRL extensions:
            X509v3 CRL Number: 
                70
No Revoked Certificates.
    Signature Algorithm: sha1WithRSAEncryption
         35:79:f6:c4:d8:b2:6a:0a:83:a9:85:db:c5:4c:53:cb:53:3a:
         a3:9b:23:86:f2:e6:20:25:4e:f0:e8:1a:83:e9:55:1c:7f:3b:
         c9:5d:2b:45:a7:47:47:c9:b1:5a:2a:fe:5c:74:5a:7e:54:0f:
         a0:7c:a5:87:72:bd:1d:15:25:48:b7:0f:20:bf:06:41:3c:c5:
         e5:d7:c0:52:75:66:79:92:90:87:ed:c0:af:41:a6:5a:81:c4:
         3a:9d:a8:ec:c4:d5:86:2e:61:78:da:63:8e:be:df:97:c4:0b:
         9a:f5:14:d2:12:34:3c:ab:06:1c:72:f0:d7:f8:24:43:b0:c2:
         84:e9:c0:a0:2e:9f:66:f1:7e:22:73:08:85:1b:b7:0d:ad:5d:
         1f:da:ab:26:f7:50:84:a8:5a:5e:ff:fc:da:6a:19:cf:2d:78:
         e2:70:bc:17:6e:e2:7e:26:d7:40:89:72:8c:11:7c:54:00:69:
         31:0b:a6:fa:d6:db:c7:3f:57:ef:76:a9:d3:81:11:b9:88:26:
         be:14:04:73:97:51:1c:89:b2:c9:a4:4d:a0:28:ec:d2:3a:32:
         f2:5a:bb:d0:ae:3e:0f:30:00:77:55:e4:78:d8:96:53:cd:45:
         d8:8e:8c:2a:09:df:e3:09:3a:6f:48:f1:89:2a:a1:b8:73:61:
         dd:06:11:57
-----BEGIN X509 CRL-----
MIIB6jCB0wIBATANBgkqhkiG9w0BAQUFADCBkDELMAkGA1UEBhMCVVMxEDAOBgNV
BAgTB01vbnRhbmExEDAOBgNVBAcTB0JvemVtYW4xETAPBgNVBAoTCFNhd3Rvb3Ro
MRMwEQYDVQQLEwpDb25zdWx0aW5nMRYwFAYDVQQDEw13d3cueWFzc2wuY29tMR0w
GwYJKoZIhvcNAQkBFg5pbmZvQHlhc3NsLmNvbRcNMTMwNDAxMjI1NDAxWhcNMTMw
OTI4MjI1NDAxWqAOMAwwCgYDVR0UBAMCAUYwDQYJKoZIhvcNAQEFBQADggEBADV5
9sTYsmoKg6mF28VMU8tTOqObI4by5iAlTvDoGoPpVRx/O8ldK0WnR0fJsVoq/lx0
Wn5UD6B8pYdyvR0VJUi3DyC/BkE8xeXXwFJ1ZnmSkIftwK9BplqBxDqdqOzE1YYu
YXjaY46+35fEC5r1FNISNDyrBhxy8Nf4JEOwwoTpwKAun2bxfiJzCIUbtw2tXR/a
qyb3UISoWl7//NpqGc8teOJwvBdu4n4m10CJcowRfFQAaTELpvrW28c/V+92qdOB
EbmIJr4UBHOXURyJssmkTaAo7NI6MvJau9CuPg8wAHdV5HjYllPNRdiOjCoJ3+MJ
Om9I8YkqobhzYd0GEVc=
-----END X509 CRL-----
