Certificate Revocation List (CRL):
        Version 2 (0x1)
    Signature Algorithm: sha256WithRSAEncryption
        Issuer: /C=US/ST=Montana/L=Bozeman/O=Sawtooth/OU=Consulting/CN=www.wolfssl.com/emailAddress=info@wolfssl.com
        Last Update: Feb 10 19:49:55 2021 GMT
        Next Update: Nov  7 19:49:55 2023 GMT
        CRL extensions:
            X509v3 CRL Number: 
                2
Revoked Certificates:
    Serial Number: 02
        Revocation Date: Feb 10 19:49:55 2021 GMT
    Signature Algorithm: sha256WithRSAEncryption
         64:70:f6:a5:21:76:7d:3b:38:fd:42:a2:91:be:6a:54:05:7a:
         a5:ce:4d:4c:57:db:d9:7b:5e:3c:86:8f:e8:d7:02:d7:7e:87:
         9b:f2:0f:35:f3:62:c4:2a:5e:5e:f5:26:40:b1:d4:9a:8d:dc:
         65:35:76:7e:e7:68:5a:57:66:48:d6:0b:bf:ac:d1:d3:5e:50:
         40:14:ae:3f:3b:e7:5a:c2:c4:c2:41:ba:77:1d:b2:46:29:f8:
         42:44:5c:3d:2a:92:87:18:fd:9d:54:11:5d:7b:82:0a:f0:46:
         d0:c1:56:72:53:9d:85:ac:21:95:ff:65:8e:41:49:d3:be:c4:
         b8:d0:f3:61:fb:eb:0a:a6:d9:f3:09:13:a9:74:01:2b:6c:8a:
         08:59:ce:37:52:c4:0e:74:d0:52:56:9d:e1:22:42:13:1e:31:
         cf:25:be:3e:df:c0:52:26:bf:f9:5b:c9:88:3f:29:4f:2f:80:
         f9:90:97:cc:29:c8:28:4d:06:e9:d9:8e:a9:6c:1f:92:89:36:
         67:c2:03:dc:02:99:4e:40:28:be:79:ef:ed:75:86:75:a2:06:
         47:cd:a6:93:b0:8c:74:3c:97:3a:d2:b8:e2:b5:fb:b4:76:eb:
         87:9f:97:f3:35:78:ee:d0:49:84:38:f1:2b:5c:5e:12:a1:c6:
         69:7a:ff:85
-----BEGIN X509 CRL-----
MIICBDCB7QIBATANBgkqhkiG9w0BAQsFADCBlDELMAkGA1UEBhMCVVMxEDAOBgNV
BAgMB01vbnRhbmExEDAOBgNVBAcMB0JvemVtYW4xETAPBgNVBAoMCFNhd3Rvb3Ro
MRMwEQYDVQQLDApDb25zdWx0aW5nMRgwFgYDVQQDDA93d3cud29sZnNzbC5jb20x
HzAdBgkqhkiG9w0BCQEWEGluZm9Ad29sZnNzbC5jb20XDTIxMDIxMDE5NDk1NVoX
DTIzMTEwNzE5NDk1NVowFDASAgECFw0yMTAyMTAxOTQ5NTVaoA4wDDAKBgNVHRQE
AwIBAjANBgkqhkiG9w0BAQsFAAOCAQEAZHD2pSF2fTs4/UKikb5qVAV6pc5NTFfb
2XtePIaP6NcC136Hm/IPNfNixCpeXvUmQLHUmo3cZTV2fudoWldmSNYLv6zR015Q
QBSuPzvnWsLEwkG6dx2yRin4QkRcPSqShxj9nVQRXXuCCvBG0MFWclOdhawhlf9l
jkFJ077EuNDzYfvrCqbZ8wkTqXQBK2yKCFnON1LEDnTQUlad4SJCEx4xzyW+Pt/A
Uia/+VvJiD8pTy+A+ZCXzCnIKE0G6dmOqWwfkok2Z8ID3AKZTkAovnnv7XWGdaIG
R82mk7CMdDyXOtK44rX7tHbrh5+X8zV47tBJhDjxK1xeEqHGaXr/hQ==
-----END X509 CRL-----
Certificate Revocation List (CRL):
        Version 2 (0x1)
    Signature Algorithm: sha256WithRSAEncryption
        Issuer: /C=US/ST=Montana/L=Bozeman/O=wolfSSL_2048/OU=Programming-2048/CN=www.wolfssl.com/emailAddress=info@wolfssl.com
        Last Update: Feb 10 19:49:55 2021 GMT
        Next Update: Nov  7 19:49:55 2023 GMT
        CRL extensions:
            X509v3 CRL Number: 
                1
No Revoked Certificates.
    Signature Algorithm: sha256WithRSAEncryption
         06:4d:a9:9b:4a:4c:b9:57:02:ff:06:89:d7:1b:39:3a:0a:64:
         53:e1:15:93:77:f0:9c:69:f9:66:6d:76:67:2b:12:da:c6:9a:
         9c:53:c1:3c:e5:17:d3:97:9f:bd:c7:d4:a3:6b:0d:e3:4b:f5:
         ae:f2:63:58:70:28:e0:ab:09:5f:d1:b1:95:b3:4f:6a:7c:b7:
         2c:a8:07:ef:d4:39:47:be:6d:31:a0:8f:f3:e9:0e:8a:3a:5f:
         da:cd:7e:60:1e:cb:53:d9:18:31:7c:dc:d1:2f:ec:26:c8:f5:
         e0:31:eb:f0:83:71:08:e7:05:bd:79:61:cb:7b:17:70:70:1a:
         fa:f8:0b:a4:d0:b3:d5:53:ce:b7:88:7f:4d:96:0a:96:0d:28:
         a3:4e:2c:8b:bb:d6:27:a0:12:b3:cd:78:79:8f:61:29:8a:e6:
         d0:c6:a5:10:1e:f5:f8:a2:c2:cb:cd:a0:b5:6f:44:62:25:e8:
         47:63:9f:5c:c3:d9:88:70:e8:a8:12:f5:7e:ba:99:ef:3c:73:
         02:46:72:60:ea:80:d4:f0:98:2f:47:3f:e5:04:82:51:79:ae:
         09:2c:60:2c:1d:8d:00:8b:60:27:e1:58:46:ac:48:4c:c6:bc:
         26:43:72:08:4d:1d:c2:c9:e6:21:e6:0d:e9:19:ac:cb:65:f2:
         96:9e:ff:d5
-----BEGIN X509 CRL-----
MIIB+DCB4QIBATANBgkqhkiG9w0BAQsFADCBnjELMAkGA1UEBhMCVVMxEDAOBgNV
BAgMB01vbnRhbmExEDAOBgNVBAcMB0JvemVtYW4xFTATBgNVBAoMDHdvbGZTU0xf
MjA0ODEZMBcGA1UECwwQUHJvZ3JhbW1pbmctMjA0ODEYMBYGA1UEAwwPd3d3Lndv
bGZzc2wuY29tMR8wHQYJKoZIhvcNAQkBFhBpbmZvQHdvbGZzc2wuY29tFw0yMTAy
MTAxOTQ5NTVaFw0yMzExMDcxOTQ5NTVaoA4wDDAKBgNVHRQEAwIBATANBgkqhkiG
9w0BAQsFAAOCAQEABk2pm0pMuVcC/waJ1xs5OgpkU+EVk3fwnGn5Zm12ZysS2saa
nFPBPOUX05efvcfUo2sN40v1rvJjWHAo4KsJX9GxlbNPany3LKgH79Q5R75tMaCP
8+kOijpf2s1+YB7LU9kYMXzc0S/sJsj14DHr8INxCOcFvXlhy3sXcHAa+vgLpNCz
1VPOt4h/TZYKlg0oo04si7vWJ6ASs814eY9hKYrm0MalEB71+KLCy82gtW9EYiXo
R2OfXMPZiHDoqBL1frqZ7zxzAkZyYOqA1PCYL0c/5QSCUXmuCSxgLB2NAItgJ+FY
RqxITMa8JkNyCE0dwsnmIeYN6Rmsy2Xylp7/1Q==
-----END X509 CRL-----
