Certificate Revocation List (CRL):
        Version 2 (0x1)
        Signature Algorithm: sha256WithRSAEncryption
        Issuer: C = US, ST = Montana, L = Bozeman, O = Sawtooth, OU = Consulting, CN = www.wolfssl.com, emailAddress = info@wolfssl.com
        Last Update: Feb 15 12:50:27 2022 GMT
        Next Update: Nov 11 12:50:27 2024 GMT
        CRL extensions:
            X509v3 CRL Number: 
                2
Revoked Certificates:
    Serial Number: 02
        Revocation Date: Feb 15 12:50:27 2022 GMT
    Signature Algorithm: sha256WithRSAEncryption
         43:e6:3b:30:0e:32:53:32:a4:08:3c:e5:d5:2e:f1:ce:e9:95:
         ff:ba:d6:fe:2e:59:80:f8:0a:2f:cf:1e:e0:37:fe:ca:cc:33:
         66:8b:ed:65:50:7d:44:92:d3:5c:52:9a:95:a5:9d:a5:4e:77:
         8b:b4:7f:59:c8:7a:e0:eb:34:32:ae:a1:03:99:d2:3c:c0:f4:
         7e:1c:87:4c:6c:5a:ba:0a:95:e8:a1:44:01:7b:8f:3e:a4:e3:
         e8:1e:07:19:f0:09:7a:85:8f:f3:82:62:f8:1e:08:51:a3:60:
         30:5b:06:c8:a2:b3:ff:aa:28:66:ad:fe:4b:81:49:30:ef:5f:
         5d:ac:d9:ad:17:9f:2a:b6:22:d6:35:cc:9f:d9:11:26:dd:7a:
         06:35:d0:d5:c7:41:6c:52:97:8c:aa:82:5a:e5:a8:58:d4:b7:
         2b:31:84:34:15:bd:08:e4:9e:71:9e:c5:40:f8:02:a3:a0:1e:
         4f:98:72:2b:eb:9e:8a:4e:01:83:88:e5:cb:6e:3b:52:e3:a9:
         34:a1:7c:e4:79:2c:d1:e0:0b:74:22:ba:6d:cb:c3:a1:56:f9:
         c9:f4:20:bf:00:49:df:6b:59:49:18:c7:75:27:8e:a1:5a:a6:
         ff:f2:be:34:4a:c9:6d:6e:24:a3:1f:15:7e:34:90:b6:81:bf:
         15:80:c3:ac
-----BEGIN X509 CRL-----
MIICBDCB7QIBATANBgkqhkiG9w0BAQsFADCBlDELMAkGA1UEBhMCVVMxEDAOBgNV
BAgMB01vbnRhbmExEDAOBgNVBAcMB0JvemVtYW4xETAPBgNVBAoMCFNhd3Rvb3Ro
MRMwEQYDVQQLDApDb25zdWx0aW5nMRgwFgYDVQQDDA93d3cud29sZnNzbC5jb20x
HzAdBgkqhkiG9w0BCQEWEGluZm9Ad29sZnNzbC5jb20XDTIyMDIxNTEyNTAyN1oX
DTI0MTExMTEyNTAyN1owFDASAgECFw0yMjAyMTUxMjUwMjdaoA4wDDAKBgNVHRQE
AwIBAjANBgkqhkiG9w0BAQsFAAOCAQEAQ+Y7MA4yUzKkCDzl1S7xzumV/7rW/i5Z
gPgKL88e4Df+yswzZovtZVB9RJLTXFKalaWdpU53i7R/Wch64Os0Mq6hA5nSPMD0
fhyHTGxaugqV6KFEAXuPPqTj6B4HGfAJeoWP84Ji+B4IUaNgMFsGyKKz/6ooZq3+
S4FJMO9fXazZrRefKrYi1jXMn9kRJt16BjXQ1cdBbFKXjKqCWuWoWNS3KzGENBW9
COSecZ7FQPgCo6AeT5hyK+ueik4Bg4jly247UuOpNKF85Hks0eALdCK6bcvDoVb5
yfQgvwBJ32tZSRjHdSeOoVqm//K+NErJbW4kox8VfjSQtoG/FYDDrA==
-----END X509 CRL-----
Certificate Revocation List (CRL):
        Version 2 (0x1)
        Signature Algorithm: sha256WithRSAEncryption
        Issuer: C = US, ST = Montana, L = Bozeman, O = wolfSSL_2048, OU = Programming-2048, CN = www.wolfssl.com, emailAddress = info@wolfssl.com
        Last Update: Feb 15 12:50:27 2022 GMT
        Next Update: Nov 11 12:50:27 2024 GMT
        CRL extensions:
            X509v3 CRL Number: 
                1
No Revoked Certificates.
    Signature Algorithm: sha256WithRSAEncryption
         26:e7:44:b4:f9:80:c7:63:36:64:44:53:f3:ef:ca:92:d3:c8:
         44:74:95:7f:d4:a4:aa:21:9f:f0:70:b7:ac:cb:92:0f:e1:74:
         4f:d5:9e:e2:d7:dc:1f:7a:f3:97:67:e4:eb:4e:85:16:fa:aa:
         51:dd:cb:e1:ea:33:62:e5:4c:61:86:e1:73:90:62:a8:3e:aa:
         1f:f4:88:8d:d3:1c:67:d9:27:00:90:2f:25:13:76:4a:4e:62:
         57:63:46:bf:5d:ab:4b:e1:07:56:ca:08:ec:37:4e:df:43:e9:
         58:86:b0:58:24:0e:fc:8a:55:c7:78:2b:44:c9:a3:ee:e3:6c:
         75:12:77:06:e9:8a:46:15:f0:de:5e:58:9b:1e:15:6b:45:d4:
         03:3c:d8:2d:14:b1:50:5f:97:e1:6b:35:52:d8:70:0c:8d:45:
         7a:05:f6:1f:9e:e4:f3:c4:36:df:3c:a9:21:6f:52:18:21:3a:
         19:44:31:24:70:35:7e:db:9b:84:fe:d2:ec:74:88:99:df:e8:
         54:8f:23:2c:83:0b:2e:f8:ed:9a:96:5c:9c:0e:63:73:ad:20:
         31:39:ae:87:a9:71:72:70:1f:f1:0c:c8:81:a8:8c:10:9f:db:
         d9:4f:4d:c0:b3:55:20:85:07:8f:5a:57:2b:c8:d4:df:82:9e:
         af:26:e3:4a
-----BEGIN X509 CRL-----
MIIB+DCB4QIBATANBgkqhkiG9w0BAQsFADCBnjELMAkGA1UEBhMCVVMxEDAOBgNV
BAgMB01vbnRhbmExEDAOBgNVBAcMB0JvemVtYW4xFTATBgNVBAoMDHdvbGZTU0xf
MjA0ODEZMBcGA1UECwwQUHJvZ3JhbW1pbmctMjA0ODEYMBYGA1UEAwwPd3d3Lndv
bGZzc2wuY29tMR8wHQYJKoZIhvcNAQkBFhBpbmZvQHdvbGZzc2wuY29tFw0yMjAy
MTUxMjUwMjdaFw0yNDExMTExMjUwMjdaoA4wDDAKBgNVHRQEAwIBATANBgkqhkiG
9w0BAQsFAAOCAQEAJudEtPmAx2M2ZERT8+/KktPIRHSVf9SkqiGf8HC3rMuSD+F0
T9We4tfcH3rzl2fk606FFvqqUd3L4eozYuVMYYbhc5BiqD6qH/SIjdMcZ9knAJAv
JRN2Sk5iV2NGv12rS+EHVsoI7DdO30PpWIawWCQO/IpVx3grRMmj7uNsdRJ3BumK
RhXw3l5Ymx4Va0XUAzzYLRSxUF+X4Ws1UthwDI1FegX2H57k88Q23zypIW9SGCE6
GUQxJHA1ftubhP7S7HSImd/oVI8jLIMLLvjtmpZcnA5jc60gMTmuh6lxcnAf8QzI
gaiMEJ/b2U9NwLNVIIUHj1pXK8jU34KerybjSg==
-----END X509 CRL-----
