Certificate Revocation List (CRL):
        Version 2 (0x1)
        Signature Algorithm: sha256WithRSAEncryption
        Issuer: C = US, ST = Montana, L = Bozeman, O = Sawtooth, OU = Consulting, CN = www.wolfssl.com, emailAddress = info@wolfssl.com
        Last Update: May  7 07:39:05 2020 GMT
        Next Update: Feb  1 07:39:05 2023 GMT
        CRL extensions:
            X509v3 CRL Number: 
                2
Revoked Certificates:
    Serial Number: 02
        Revocation Date: May  7 07:39:05 2020 GMT
    Signature Algorithm: sha256WithRSAEncryption
         99:6d:5f:dc:32:d2:39:58:25:2a:c3:80:3c:e6:89:5c:ca:da:
         fc:c5:f9:11:16:4e:1e:d2:be:78:dd:fc:10:f8:f4:f6:86:bf:
         29:8d:62:4d:b3:4a:f4:8e:b7:77:d6:2f:fa:4f:fe:ec:01:de:
         a5:a5:4e:0d:e4:d4:0c:c9:04:c5:7b:e1:87:cc:32:a5:9b:f4:
         11:12:fc:51:cc:9f:34:11:5d:4e:c6:f2:f5:db:dd:75:e6:da:
         2f:15:57:db:78:10:44:18:0d:f4:54:ce:ea:92:b2:15:43:83:
         7e:3d:2a:0e:e4:04:e1:13:ea:8e:ba:6c:2b:80:29:75:81:c5:
         21:67:95:ec:1c:37:42:03:8c:ba:8e:c1:bd:44:c6:a1:b1:52:
         73:10:ba:b8:a4:75:da:60:9a:ee:30:45:9b:a8:7b:f4:87:be:
         de:51:11:5d:2b:23:2d:23:df:1e:ef:47:fd:bf:0d:34:ca:79:
         47:ef:16:a0:00:d7:9b:07:cb:42:77:e6:b3:cf:38:f9:88:82:
         b1:4d:70:61:a4:11:7b:11:ec:bf:47:9c:25:82:82:eb:37:df:
         8a:76:eb:77:6f:5b:9e:11:fb:9c:8a:66:01:94:cf:4e:cb:93:
         3e:14:ae:77:a1:4e:ba:7f:59:46:6b:d0:0d:b7:c5:83:ef:da:
         48:d4:1d:d2
-----BEGIN X509 CRL-----
MIICBDCB7QIBATANBgkqhkiG9w0BAQsFADCBlDELMAkGA1UEBhMCVVMxEDAOBgNV
BAgMB01vbnRhbmExEDAOBgNVBAcMB0JvemVtYW4xETAPBgNVBAoMCFNhd3Rvb3Ro
MRMwEQYDVQQLDApDb25zdWx0aW5nMRgwFgYDVQQDDA93d3cud29sZnNzbC5jb20x
HzAdBgkqhkiG9w0BCQEWEGluZm9Ad29sZnNzbC5jb20XDTIwMDUwNzA3MzkwNVoX
DTIzMDIwMTA3MzkwNVowFDASAgECFw0yMDA1MDcwNzM5MDVaoA4wDDAKBgNVHRQE
AwIBAjANBgkqhkiG9w0BAQsFAAOCAQEAmW1f3DLSOVglKsOAPOaJXMra/MX5ERZO
HtK+eN38EPj09oa/KY1iTbNK9I63d9Yv+k/+7AHepaVODeTUDMkExXvhh8wypZv0
ERL8UcyfNBFdTsby9dvddebaLxVX23gQRBgN9FTO6pKyFUODfj0qDuQE4RPqjrps
K4ApdYHFIWeV7Bw3QgOMuo7BvUTGobFScxC6uKR12mCa7jBFm6h79Ie+3lERXSsj
LSPfHu9H/b8NNMp5R+8WoADXmwfLQnfms884+YiCsU1wYaQRexHsv0ecJYKC6zff
inbrd29bnhH7nIpmAZTPTsuTPhSud6FOun9ZRmvQDbfFg+/aSNQd0g==
-----END X509 CRL-----
Certificate Revocation List (CRL):
        Version 2 (0x1)
        Signature Algorithm: sha256WithRSAEncryption
        Issuer: C = US, ST = Montana, L = Bozeman, O = wolfSSL_2048, OU = Programming-2048, CN = www.wolfssl.com, emailAddress = info@wolfssl.com
        Last Update: May  7 07:39:05 2020 GMT
        Next Update: Feb  1 07:39:05 2023 GMT
        CRL extensions:
            X509v3 CRL Number: 
                1
No Revoked Certificates.
    Signature Algorithm: sha256WithRSAEncryption
         71:e4:a8:f9:68:d2:18:ce:86:c0:d6:9a:78:61:5c:74:8f:ed:
         d3:67:83:45:22:99:e7:22:4f:f8:8b:02:0b:7f:70:91:17:fa:
         16:2b:d8:54:7d:db:ed:26:55:06:27:64:ec:3f:7a:d6:75:4f:
         0d:cc:23:fc:f5:de:74:66:d2:60:8b:6c:f9:fa:f5:a7:45:1e:
         40:c5:a2:34:5f:6d:e9:5d:4b:a0:04:19:23:ba:5e:48:23:b9:
         21:74:dc:bf:8b:44:ad:1a:f0:21:45:49:a1:cf:1c:38:2a:33:
         07:4a:76:88:1b:ff:8b:c9:94:70:d2:1a:db:61:70:b9:2e:f2:
         01:0b:f5:16:e2:36:a7:45:99:57:cb:09:4b:16:51:16:d7:24:
         09:8b:54:f4:cd:43:c1:3a:f5:a6:c2:9b:20:ac:1e:88:20:f8:
         61:f4:6e:c4:e4:56:f6:c4:59:40:11:98:85:7a:46:52:8c:31:
         b2:0e:38:92:23:d1:16:42:c3:cc:6d:2c:ce:72:b6:aa:ce:42:
         97:1b:44:b7:d2:e3:bd:d5:7b:db:82:5b:2b:82:b1:89:05:60:
         f5:d3:dd:20:e6:e4:27:9f:fb:d8:4d:0c:00:f5:70:c4:a4:cc:
         5e:c5:10:63:33:66:97:0c:65:f3:0e:1d:43:8f:39:11:12:d9:
         a0:67:8a:2e
-----BEGIN X509 CRL-----
MIIB+DCB4QIBATANBgkqhkiG9w0BAQsFADCBnjELMAkGA1UEBhMCVVMxEDAOBgNV
BAgMB01vbnRhbmExEDAOBgNVBAcMB0JvemVtYW4xFTATBgNVBAoMDHdvbGZTU0xf
MjA0ODEZMBcGA1UECwwQUHJvZ3JhbW1pbmctMjA0ODEYMBYGA1UEAwwPd3d3Lndv
bGZzc2wuY29tMR8wHQYJKoZIhvcNAQkBFhBpbmZvQHdvbGZzc2wuY29tFw0yMDA1
MDcwNzM5MDVaFw0yMzAyMDEwNzM5MDVaoA4wDDAKBgNVHRQEAwIBATANBgkqhkiG
9w0BAQsFAAOCAQEAceSo+WjSGM6GwNaaeGFcdI/t02eDRSKZ5yJP+IsCC39wkRf6
FivYVH3b7SZVBidk7D961nVPDcwj/PXedGbSYIts+fr1p0UeQMWiNF9t6V1LoAQZ
I7peSCO5IXTcv4tErRrwIUVJoc8cOCozB0p2iBv/i8mUcNIa22FwuS7yAQv1FuI2
p0WZV8sJSxZRFtckCYtU9M1DwTr1psKbIKweiCD4YfRuxORW9sRZQBGYhXpGUowx
sg44kiPRFkLDzG0sznK2qs5ClxtEt9LjvdV724JbK4KxiQVg9dPdIObkJ5/72E0M
APVwxKTMXsUQYzNmlwxl8w4dQ485ERLZoGeKLg==
-----END X509 CRL-----
