Certificate Revocation List (CRL):
        Version 2 (0x1)
        Signature Algorithm: sha256WithRSAEncryption
        Issuer: C=US, ST=Montana, L=Bozeman, O=Sawtooth, OU=Consulting, CN=www.wolfssl.com, emailAddress=info@wolfssl.com
        Last Update: Nov 13 20:41:50 2025 GMT
        Next Update: Aug  9 20:41:50 2028 GMT
        CRL extensions:
            X509v3 CRL Number: 
                2
Revoked Certificates:
    Serial Number: 02
        Revocation Date: Nov 13 20:41:50 2025 GMT
    Signature Algorithm: sha256WithRSAEncryption
    Signature Value:
        b7:0d:1c:78:99:1c:e8:0b:d9:33:a2:95:01:ad:cf:35:e9:86:
        28:7f:49:6b:93:76:c1:70:08:61:aa:77:57:34:af:45:82:78:
        5d:3b:7b:67:ca:b4:fb:d1:68:13:be:34:94:84:2d:65:ad:97:
        52:69:1d:67:ea:8e:a7:ff:21:0f:21:6c:8c:75:7f:c7:50:c5:
        6b:a5:fd:cd:3f:91:64:7b:5e:0f:4a:9c:c8:cd:39:a0:30:ad:
        80:27:50:e0:a7:bf:19:68:cf:6b:26:75:51:14:77:5a:62:6d:
        bc:66:1a:90:f7:00:09:34:c7:d0:9d:81:f3:b5:9f:90:40:02:
        8d:3f:68:7f:0d:1d:c5:00:32:e5:cf:42:35:1c:b6:eb:02:a8:
        d7:2a:a7:f3:f1:10:e2:d5:9e:41:de:2f:78:7d:7f:ad:68:06:
        a0:6d:40:96:dd:35:59:4d:a0:d3:bd:2e:ba:b6:75:f8:1c:43:
        b9:c0:b7:75:c4:38:59:46:00:71:ab:5a:df:f5:62:e9:ac:2b:
        76:11:4f:1b:42:2c:dd:b2:38:6e:57:cf:c5:75:67:4c:3e:27:
        bb:4c:d5:09:2c:4a:13:3d:8b:9c:89:76:b7:bd:73:1b:64:50:
        ea:d5:13:0e:51:48:d8:43:08:93:00:85:8f:2f:08:ad:0d:aa:
        d6:6c:f8:3d
-----BEGIN X509 CRL-----
MIICBDCB7QIBATANBgkqhkiG9w0BAQsFADCBlDELMAkGA1UEBhMCVVMxEDAOBgNV
BAgMB01vbnRhbmExEDAOBgNVBAcMB0JvemVtYW4xETAPBgNVBAoMCFNhd3Rvb3Ro
MRMwEQYDVQQLDApDb25zdWx0aW5nMRgwFgYDVQQDDA93d3cud29sZnNzbC5jb20x
HzAdBgkqhkiG9w0BCQEWEGluZm9Ad29sZnNzbC5jb20XDTI1MTExMzIwNDE1MFoX
DTI4MDgwOTIwNDE1MFowFDASAgECFw0yNTExMTMyMDQxNTBaoA4wDDAKBgNVHRQE
AwIBAjANBgkqhkiG9w0BAQsFAAOCAQEAtw0ceJkc6AvZM6KVAa3PNemGKH9Ja5N2
wXAIYap3VzSvRYJ4XTt7Z8q0+9FoE740lIQtZa2XUmkdZ+qOp/8hDyFsjHV/x1DF
a6X9zT+RZHteD0qcyM05oDCtgCdQ4Ke/GWjPayZ1URR3WmJtvGYakPcACTTH0J2B
87WfkEACjT9ofw0dxQAy5c9CNRy26wKo1yqn8/EQ4tWeQd4veH1/rWgGoG1Alt01
WU2g070uurZ1+BxDucC3dcQ4WUYAcata3/Vi6awrdhFPG0Is3bI4blfPxXVnTD4n
u0zVCSxKEz2LnIl2t71zG2RQ6tUTDlFI2EMIkwCFjy8IrQ2q1mz4PQ==
-----END X509 CRL-----
Certificate Revocation List (CRL):
        Version 2 (0x1)
        Signature Algorithm: sha256WithRSAEncryption
        Issuer: C=US, ST=Montana, L=Bozeman, O=wolfSSL_2048, OU=Programming-2048, CN=www.wolfssl.com, emailAddress=info@wolfssl.com
        Last Update: Nov 13 20:41:50 2025 GMT
        Next Update: Aug  9 20:41:50 2028 GMT
        CRL extensions:
            X509v3 CRL Number: 
                1
No Revoked Certificates.
    Signature Algorithm: sha256WithRSAEncryption
    Signature Value:
        b2:d2:46:d2:6c:b8:a7:15:7b:ea:7e:9b:5d:f4:a4:e0:54:3a:
        80:e6:de:67:86:b7:fd:5c:ba:95:aa:5a:69:fe:de:f1:44:09:
        fa:c4:8a:77:1d:50:4f:5a:88:1c:bd:a3:00:c7:5e:a2:59:57:
        fa:8f:29:f2:f9:02:9a:33:d1:4a:2a:a6:7b:f8:31:da:18:19:
        00:34:4e:e6:53:11:fc:fe:ab:43:ab:12:a8:fc:2a:45:7b:78:
        4e:7a:df:9d:84:26:3b:8d:f6:07:28:fd:56:31:d8:60:63:a4:
        37:a1:d4:a0:30:b6:6c:aa:18:87:76:b5:c1:9c:4d:0f:1f:38:
        74:6a:4b:ca:6c:0e:92:b5:6c:ee:94:62:b2:c9:22:b4:d2:9d:
        0d:1a:fe:c5:19:6a:92:d0:05:0f:63:fe:31:72:2a:75:b2:e2:
        f7:dc:97:c6:3c:48:83:21:25:5a:79:5f:50:9b:92:67:a1:1c:
        39:b8:c3:6c:cb:66:8b:56:5d:1f:8e:de:cb:35:d6:f7:61:98:
        35:ce:f6:b7:7d:e3:66:19:44:1a:5e:8f:aa:95:f9:bb:56:91:
        ac:9b:65:03:13:8d:ee:3d:9c:aa:ce:b3:95:1d:c9:37:be:93:
        08:c7:67:9f:93:c2:ae:60:95:26:17:f4:7e:a5:b8:a0:7a:cf:
        56:89:0c:32
-----BEGIN X509 CRL-----
MIIB+DCB4QIBATANBgkqhkiG9w0BAQsFADCBnjELMAkGA1UEBhMCVVMxEDAOBgNV
BAgMB01vbnRhbmExEDAOBgNVBAcMB0JvemVtYW4xFTATBgNVBAoMDHdvbGZTU0xf
MjA0ODEZMBcGA1UECwwQUHJvZ3JhbW1pbmctMjA0ODEYMBYGA1UEAwwPd3d3Lndv
bGZzc2wuY29tMR8wHQYJKoZIhvcNAQkBFhBpbmZvQHdvbGZzc2wuY29tFw0yNTEx
MTMyMDQxNTBaFw0yODA4MDkyMDQxNTBaoA4wDDAKBgNVHRQEAwIBATANBgkqhkiG
9w0BAQsFAAOCAQEAstJG0my4pxV76n6bXfSk4FQ6gObeZ4a3/Vy6lapaaf7e8UQJ
+sSKdx1QT1qIHL2jAMdeollX+o8p8vkCmjPRSiqme/gx2hgZADRO5lMR/P6rQ6sS
qPwqRXt4TnrfnYQmO432Byj9VjHYYGOkN6HUoDC2bKoYh3a1wZxNDx84dGpLymwO
krVs7pRisskitNKdDRr+xRlqktAFD2P+MXIqdbLi99yXxjxIgyElWnlfUJuSZ6Ec
ObjDbMtmi1ZdH47eyzXW92GYNc72t33jZhlEGl6PqpX5u1aRrJtlAxON7j2cqs6z
lR3JN76TCMdnn5PCrmCVJhf0fqW4oHrPVokMMg==
-----END X509 CRL-----
