Certificate Revocation List (CRL):
        Version 2 (0x1)
        Signature Algorithm: sha256WithRSAEncryption
        Issuer: C = US, ST = Montana, L = Bozeman, O = Sawtooth, OU = Consulting, CN = www.wolfssl.com, emailAddress = info@wolfssl.com
        Last Update: Dec 13 22:19:33 2023 GMT
        Next Update: Sep  8 22:19:33 2026 GMT
        CRL extensions:
            X509v3 CRL Number: 
                2
Revoked Certificates:
    Serial Number: 02
        Revocation Date: Dec 13 22:19:33 2023 GMT
    Signature Algorithm: sha256WithRSAEncryption
         48:36:98:18:42:9c:0c:81:51:19:75:4b:26:9a:e0:07:18:89:
         a2:a1:bd:b6:4e:91:f2:44:93:1a:50:a1:8f:72:1f:c4:ae:99:
         81:c5:00:3a:94:03:de:00:24:98:d4:2c:17:e5:ba:f2:29:3a:
         43:c8:23:ba:73:6a:5c:99:5d:ba:80:dd:bd:4f:cd:53:a6:cf:
         33:11:31:30:27:e2:d2:31:06:65:b8:3e:cf:fe:00:21:ff:0d:
         18:4f:fc:fd:d5:80:75:72:7c:2e:44:c1:a1:26:a6:8a:88:c8:
         c0:66:1a:d4:99:36:ca:8f:67:42:8f:7c:f2:1a:e7:1b:d0:90:
         05:22:0d:29:d3:35:57:23:8c:bb:d2:53:c1:a8:00:3c:d4:b3:
         97:23:8a:4f:1d:8b:c9:73:6a:96:40:b0:a4:b1:c7:de:06:4d:
         a3:5d:6a:d2:f5:5c:1e:f0:21:0f:d1:fd:21:89:e2:9e:3d:c1:
         b2:f0:0f:5e:79:1e:47:48:92:bf:eb:96:28:ad:0b:89:5e:3b:
         ed:97:29:bb:8d:24:c2:e6:26:e5:33:ef:88:17:c1:1a:97:fa:
         51:44:a2:cc:b2:64:e5:5c:94:54:ed:3b:7d:8f:34:4a:4b:d3:
         ca:62:f9:20:00:86:26:ea:1b:a9:b4:df:8f:f4:4d:d8:3e:95:
         aa:3b:43:1c
-----BEGIN X509 CRL-----
MIICBDCB7QIBATANBgkqhkiG9w0BAQsFADCBlDELMAkGA1UEBhMCVVMxEDAOBgNV
BAgMB01vbnRhbmExEDAOBgNVBAcMB0JvemVtYW4xETAPBgNVBAoMCFNhd3Rvb3Ro
MRMwEQYDVQQLDApDb25zdWx0aW5nMRgwFgYDVQQDDA93d3cud29sZnNzbC5jb20x
HzAdBgkqhkiG9w0BCQEWEGluZm9Ad29sZnNzbC5jb20XDTIzMTIxMzIyMTkzM1oX
DTI2MDkwODIyMTkzM1owFDASAgECFw0yMzEyMTMyMjE5MzNaoA4wDDAKBgNVHRQE
AwIBAjANBgkqhkiG9w0BAQsFAAOCAQEASDaYGEKcDIFRGXVLJprgBxiJoqG9tk6R
8kSTGlChj3IfxK6ZgcUAOpQD3gAkmNQsF+W68ik6Q8gjunNqXJlduoDdvU/NU6bP
MxExMCfi0jEGZbg+z/4AIf8NGE/8/dWAdXJ8LkTBoSamiojIwGYa1Jk2yo9nQo98
8hrnG9CQBSINKdM1VyOMu9JTwagAPNSzlyOKTx2LyXNqlkCwpLHH3gZNo11q0vVc
HvAhD9H9IYninj3BsvAPXnkeR0iSv+uWKK0LiV477Zcpu40kwuYm5TPviBfBGpf6
UUSizLJk5VyUVO07fY80SkvTymL5IACGJuobqbTfj/RN2D6VqjtDHA==
-----END X509 CRL-----
Certificate Revocation List (CRL):
        Version 2 (0x1)
        Signature Algorithm: sha256WithRSAEncryption
        Issuer: C = US, ST = Montana, L = Bozeman, O = wolfSSL_2048, OU = Programming-2048, CN = www.wolfssl.com, emailAddress = info@wolfssl.com
        Last Update: Dec 13 22:19:33 2023 GMT
        Next Update: Sep  8 22:19:33 2026 GMT
        CRL extensions:
            X509v3 CRL Number: 
                1
No Revoked Certificates.
    Signature Algorithm: sha256WithRSAEncryption
         38:bd:b1:ed:0c:8b:5d:f2:e3:de:48:7b:03:16:a7:09:4c:98:
         03:9d:a7:50:1d:56:57:a6:6f:e1:7d:4c:32:31:f3:55:28:4a:
         d3:b5:55:a7:7d:f8:43:46:cf:7c:64:66:2e:0e:bc:e6:43:41:
         c1:b8:b4:a0:db:68:92:3b:d4:a1:ef:47:44:fe:f6:e4:33:45:
         18:62:cb:e5:04:44:44:07:83:e4:62:c4:d0:52:63:94:b0:1a:
         43:bf:01:91:de:05:66:ae:6d:88:78:94:d9:c6:5e:a9:28:52:
         93:2b:24:00:3f:d3:f7:6c:ca:27:b6:9b:8e:8f:61:a3:ac:3b:
         e5:62:54:09:6f:c5:52:fb:87:9a:36:e0:51:14:5d:52:f9:42:
         48:f1:18:20:bf:b3:98:c2:d4:a2:55:9e:7e:42:9b:01:59:fc:
         64:3c:bb:05:46:09:ab:16:8a:f8:08:b7:f7:3d:01:8e:1b:60:
         ba:e0:8f:e8:fe:6b:38:bc:23:af:52:31:bc:f3:a0:60:71:c4:
         9a:29:49:46:5b:c2:f8:ff:c9:f6:8a:1a:c6:5c:9f:e5:bb:c0:
         bf:6e:7b:26:8b:5a:6a:91:80:82:40:2e:48:96:b7:6a:8f:74:
         75:6d:54:d7:4d:2a:81:7f:01:02:bd:6e:cf:37:50:de:bb:52:
         b6:40:eb:ad
-----BEGIN X509 CRL-----
MIIB+DCB4QIBATANBgkqhkiG9w0BAQsFADCBnjELMAkGA1UEBhMCVVMxEDAOBgNV
BAgMB01vbnRhbmExEDAOBgNVBAcMB0JvemVtYW4xFTATBgNVBAoMDHdvbGZTU0xf
MjA0ODEZMBcGA1UECwwQUHJvZ3JhbW1pbmctMjA0ODEYMBYGA1UEAwwPd3d3Lndv
bGZzc2wuY29tMR8wHQYJKoZIhvcNAQkBFhBpbmZvQHdvbGZzc2wuY29tFw0yMzEy
MTMyMjE5MzNaFw0yNjA5MDgyMjE5MzNaoA4wDDAKBgNVHRQEAwIBATANBgkqhkiG
9w0BAQsFAAOCAQEAOL2x7QyLXfLj3kh7AxanCUyYA52nUB1WV6Zv4X1MMjHzVShK
07VVp334Q0bPfGRmLg685kNBwbi0oNtokjvUoe9HRP725DNFGGLL5QRERAeD5GLE
0FJjlLAaQ78Bkd4FZq5tiHiU2cZeqShSkyskAD/T92zKJ7abjo9ho6w75WJUCW/F
UvuHmjbgURRdUvlCSPEYIL+zmMLUolWefkKbAVn8ZDy7BUYJqxaK+Ai39z0Bjhtg
uuCP6P5rOLwjr1IxvPOgYHHEmilJRlvC+P/J9ooaxlyf5bvAv257JotaapGAgkAu
SJa3ao90dW1U100qgX8BAr1uzzdQ3rtStkDrrQ==
-----END X509 CRL-----
