Certificate Revocation List (CRL):
        Version 2 (0x1)
        Signature Algorithm: sha256WithRSAEncryption
        Issuer: C = US, ST = Montana, L = Bozeman, O = Sawtooth, OU = Consulting, CN = www.wolfssl.com, emailAddress = info@wolfssl.com
        Last Update: Dec 20 23:07:25 2021 GMT
        Next Update: Sep 15 23:07:25 2024 GMT
        CRL extensions:
            X509v3 CRL Number: 
                2
Revoked Certificates:
    Serial Number: 02
        Revocation Date: Dec 20 23:07:25 2021 GMT
    Signature Algorithm: sha256WithRSAEncryption
         8b:c0:b8:cb:03:5c:8c:d1:53:b2:c5:b1:4d:f3:b3:e8:13:bf:
         5f:a7:1a:cc:74:e8:06:66:c1:cb:89:c3:e3:b3:fb:68:4e:8f:
         d0:5b:33:d8:ed:5e:14:b3:21:c8:c0:06:66:97:6d:69:96:78:
         bd:a9:d1:59:85:0f:13:29:2d:2f:49:87:94:84:14:94:38:74:
         04:16:94:10:ea:f2:31:d8:34:b7:65:e8:5e:52:4f:96:ac:bf:
         5f:4f:6c:ee:5d:04:2a:26:b2:29:7c:9d:06:82:b3:b5:e6:5b:
         d5:11:72:56:d5:34:75:82:5e:2a:f3:c6:67:72:94:c6:02:83:
         e8:58:85:2d:73:db:55:30:a2:c2:b1:bb:4c:bf:f6:a2:d8:b3:
         fc:1b:bd:51:97:4e:f4:c2:04:4f:04:ee:61:e7:51:4b:4f:09:
         fe:10:5c:3c:1e:e0:cb:51:1f:54:f4:38:3f:6c:58:ee:4e:f8:
         ca:34:cd:37:ee:bb:06:53:14:c7:60:a4:89:ac:9a:50:4a:b5:
         9e:b3:59:97:9b:27:5e:5c:fa:14:74:3d:a2:76:62:63:ae:e8:
         d2:f9:b7:ad:0c:3f:07:40:50:5c:e4:fb:95:3c:3d:df:2e:81:
         f2:6a:9e:01:69:c3:a2:1e:d7:00:2b:6d:6c:67:f0:fb:13:ce:
         f1:a5:08:d6
-----BEGIN X509 CRL-----
MIICBDCB7QIBATANBgkqhkiG9w0BAQsFADCBlDELMAkGA1UEBhMCVVMxEDAOBgNV
BAgMB01vbnRhbmExEDAOBgNVBAcMB0JvemVtYW4xETAPBgNVBAoMCFNhd3Rvb3Ro
MRMwEQYDVQQLDApDb25zdWx0aW5nMRgwFgYDVQQDDA93d3cud29sZnNzbC5jb20x
HzAdBgkqhkiG9w0BCQEWEGluZm9Ad29sZnNzbC5jb20XDTIxMTIyMDIzMDcyNVoX
DTI0MDkxNTIzMDcyNVowFDASAgECFw0yMTEyMjAyMzA3MjVaoA4wDDAKBgNVHRQE
AwIBAjANBgkqhkiG9w0BAQsFAAOCAQEAi8C4ywNcjNFTssWxTfOz6BO/X6cazHTo
BmbBy4nD47P7aE6P0Fsz2O1eFLMhyMAGZpdtaZZ4vanRWYUPEyktL0mHlIQUlDh0
BBaUEOryMdg0t2XoXlJPlqy/X09s7l0EKiayKXydBoKzteZb1RFyVtU0dYJeKvPG
Z3KUxgKD6FiFLXPbVTCiwrG7TL/2otiz/Bu9UZdO9MIETwTuYedRS08J/hBcPB7g
y1EfVPQ4P2xY7k74yjTNN+67BlMUx2CkiayaUEq1nrNZl5snXlz6FHQ9onZiY67o
0vm3rQw/B0BQXOT7lTw93y6B8mqeAWnDoh7XACttbGfw+xPO8aUI1g==
-----END X509 CRL-----
Certificate Revocation List (CRL):
        Version 2 (0x1)
        Signature Algorithm: sha256WithRSAEncryption
        Issuer: C = US, ST = Montana, L = Bozeman, O = wolfSSL_2048, OU = Programming-2048, CN = www.wolfssl.com, emailAddress = info@wolfssl.com
        Last Update: Dec 20 23:07:25 2021 GMT
        Next Update: Sep 15 23:07:25 2024 GMT
        CRL extensions:
            X509v3 CRL Number: 
                1
No Revoked Certificates.
    Signature Algorithm: sha256WithRSAEncryption
         98:e6:2c:27:b3:f4:ea:70:d8:99:d3:28:27:59:65:aa:2b:65:
         6d:d1:e6:fe:1b:7f:a9:16:bc:05:1c:fe:05:ee:46:fd:0d:f3:
         cf:42:d6:99:4a:0c:e7:a7:34:37:12:df:16:bf:de:72:a2:ad:
         98:73:e7:07:bc:be:ef:51:fb:6e:8b:ce:34:d1:e8:b5:86:6d:
         c9:75:75:18:d0:4a:84:a0:bc:2c:2a:24:89:1e:2e:8e:e3:72:
         db:df:94:46:fb:59:41:47:91:71:3d:b2:f7:d8:ce:02:06:63:
         dc:47:bb:23:f0:19:47:b6:29:b9:e2:ea:63:0d:c9:b0:5f:74:
         04:59:5b:59:cb:a5:16:8b:fa:c7:09:26:d5:d5:6f:f9:c9:ec:
         13:21:3c:74:1b:02:da:e6:56:b1:5e:06:7f:07:ab:9a:7b:79:
         aa:da:46:e4:87:35:10:5b:30:c4:a0:9b:1b:5e:fd:9b:6b:45:
         bb:82:89:65:bd:f1:b8:6c:ae:31:f3:3f:87:e4:58:c9:f0:5e:
         02:ed:49:46:46:3c:52:97:d8:fe:02:07:de:2c:b3:4e:c7:13:
         e6:6f:25:a6:48:eb:01:45:d2:2f:d7:ec:8e:51:c2:de:96:ca:
         85:da:b0:e7:54:91:dc:71:c9:17:57:d4:dc:06:a0:f9:df:f4:
         a5:f4:05:bc
-----BEGIN X509 CRL-----
MIIB+DCB4QIBATANBgkqhkiG9w0BAQsFADCBnjELMAkGA1UEBhMCVVMxEDAOBgNV
BAgMB01vbnRhbmExEDAOBgNVBAcMB0JvemVtYW4xFTATBgNVBAoMDHdvbGZTU0xf
MjA0ODEZMBcGA1UECwwQUHJvZ3JhbW1pbmctMjA0ODEYMBYGA1UEAwwPd3d3Lndv
bGZzc2wuY29tMR8wHQYJKoZIhvcNAQkBFhBpbmZvQHdvbGZzc2wuY29tFw0yMTEy
MjAyMzA3MjVaFw0yNDA5MTUyMzA3MjVaoA4wDDAKBgNVHRQEAwIBATANBgkqhkiG
9w0BAQsFAAOCAQEAmOYsJ7P06nDYmdMoJ1llqitlbdHm/ht/qRa8BRz+Be5G/Q3z
z0LWmUoM56c0NxLfFr/ecqKtmHPnB7y+71H7bovONNHotYZtyXV1GNBKhKC8LCok
iR4ujuNy29+URvtZQUeRcT2y99jOAgZj3Ee7I/AZR7YpueLqYw3JsF90BFlbWcul
Fov6xwkm1dVv+cnsEyE8dBsC2uZWsV4Gfwermnt5qtpG5Ic1EFswxKCbG179m2tF
u4KJZb3xuGyuMfM/h+RYyfBeAu1JRkY8UpfY/gIH3iyzTscT5m8lpkjrAUXSL9fs
jlHC3pbKhdqw51SR3HHJF1fU3Aag+d/0pfQFvA==
-----END X509 CRL-----
