Certificate Revocation List (CRL):
        Version 2 (0x1)
        Signature Algorithm: sha256WithRSAEncryption
        Issuer: C = US, ST = Montana, L = Bozeman, O = Sawtooth, OU = Consulting, CN = www.wolfssl.com, emailAddress = info@wolfssl.com
        Last Update: Dec 18 21:25:34 2024 GMT
        Next Update: Sep 14 21:25:34 2027 GMT
        CRL extensions:
            X509v3 CRL Number: 
                2
Revoked Certificates:
    Serial Number: 02
        Revocation Date: Dec 18 21:25:34 2024 GMT
    Signature Algorithm: sha256WithRSAEncryption
    Signature Value:
        12:0f:c8:40:72:63:f9:e2:60:6d:d2:b2:90:57:a0:c2:dc:fa:
        44:0d:ac:c2:f6:68:30:04:42:1a:8d:5a:0b:12:b6:78:1d:30:
        81:09:db:71:26:4d:5c:7b:32:58:79:5a:fa:ec:4f:32:db:68:
        45:5e:e9:7f:52:82:fc:4a:04:37:18:34:b3:da:f4:e3:39:93:
        97:60:bb:ea:9a:2a:75:5c:60:57:d5:8b:da:8f:06:d2:21:cd:
        a3:e3:dc:dc:5e:81:bd:8f:a8:da:07:1a:02:31:1b:95:5b:2e:
        47:5d:74:01:e7:d7:fe:c4:4c:ef:28:ca:7f:9b:c5:ea:42:2f:
        49:d7:e8:f3:44:0d:55:85:76:77:02:9f:c8:00:d5:73:5a:55:
        71:5b:8e:d7:31:25:8d:a8:14:4f:34:90:34:e4:4f:30:8e:ae:
        a3:98:85:df:57:e6:a0:ef:99:7b:82:31:5e:db:8c:61:1d:a7:
        71:88:c6:06:27:71:98:00:94:81:d4:a2:97:de:5a:c6:32:e7:
        51:2a:b6:36:4c:56:d0:fc:b8:19:fa:8b:d5:b4:e6:17:a9:a3:
        64:2b:65:7f:3a:89:b7:f6:0b:40:5f:f8:c2:9c:77:1c:01:20:
        6b:1c:04:a5:19:7e:7c:d4:c5:3c:9d:3e:c9:1d:39:b8:e7:5a:
        38:47:05:67
-----BEGIN X509 CRL-----
MIICBDCB7QIBATANBgkqhkiG9w0BAQsFADCBlDELMAkGA1UEBhMCVVMxEDAOBgNV
BAgMB01vbnRhbmExEDAOBgNVBAcMB0JvemVtYW4xETAPBgNVBAoMCFNhd3Rvb3Ro
MRMwEQYDVQQLDApDb25zdWx0aW5nMRgwFgYDVQQDDA93d3cud29sZnNzbC5jb20x
HzAdBgkqhkiG9w0BCQEWEGluZm9Ad29sZnNzbC5jb20XDTI0MTIxODIxMjUzNFoX
DTI3MDkxNDIxMjUzNFowFDASAgECFw0yNDEyMTgyMTI1MzRaoA4wDDAKBgNVHRQE
AwIBAjANBgkqhkiG9w0BAQsFAAOCAQEAEg/IQHJj+eJgbdKykFegwtz6RA2swvZo
MARCGo1aCxK2eB0wgQnbcSZNXHsyWHla+uxPMttoRV7pf1KC/EoENxg0s9r04zmT
l2C76poqdVxgV9WL2o8G0iHNo+Pc3F6BvY+o2gcaAjEblVsuR110AefX/sRM7yjK
f5vF6kIvSdfo80QNVYV2dwKfyADVc1pVcVuO1zEljagUTzSQNORPMI6uo5iF31fm
oO+Ze4IxXtuMYR2ncYjGBidxmACUgdSil95axjLnUSq2NkxW0Py4GfqL1bTmF6mj
ZCtlfzqJt/YLQF/4wpx3HAEgaxwEpRl+fNTFPJ0+yR05uOdaOEcFZw==
-----END X509 CRL-----
Certificate Revocation List (CRL):
        Version 2 (0x1)
        Signature Algorithm: sha256WithRSAEncryption
        Issuer: C = US, ST = Montana, L = Bozeman, O = wolfSSL_2048, OU = Programming-2048, CN = www.wolfssl.com, emailAddress = info@wolfssl.com
        Last Update: Dec 18 21:25:34 2024 GMT
        Next Update: Sep 14 21:25:34 2027 GMT
        CRL extensions:
            X509v3 CRL Number: 
                1
No Revoked Certificates.
    Signature Algorithm: sha256WithRSAEncryption
    Signature Value:
        a2:61:f8:3b:d8:53:33:4c:c2:36:fa:65:d9:70:7f:ce:b8:b2:
        ff:ba:06:ab:f3:ce:aa:48:b9:11:20:3a:9d:48:14:4c:e6:95:
        12:4e:c0:cf:2a:da:d1:bc:72:05:e7:32:1f:2a:f3:14:be:df:
        59:28:b5:cd:b8:6c:81:73:46:20:a4:8b:43:d9:75:1e:e9:e7:
        17:79:44:da:7b:b7:1a:dc:c8:c3:d8:05:5f:dc:d8:6f:f0:db:
        c8:40:ae:50:57:54:e1:26:69:75:b3:61:0f:2c:9c:f5:7c:b4:
        d1:df:6d:3c:eb:c4:04:96:dd:78:09:fa:41:23:dc:86:29:a3:
        79:8a:56:bd:9b:66:34:3e:36:22:3a:9d:84:aa:0b:09:0b:36:
        dc:a2:62:59:76:83:2e:0f:61:28:9b:f9:c5:53:74:61:3d:78:
        b8:f8:36:de:ec:7c:f2:e1:d5:86:cb:db:bb:f2:c1:a6:83:f9:
        c1:16:f7:8b:ad:35:47:e2:d1:ca:6d:21:8a:c6:8c:6e:10:69:
        e6:56:22:5d:fc:82:65:8a:a3:9c:4d:d0:91:c8:2a:fa:87:60:
        c6:e3:12:30:da:2a:77:02:4d:f1:46:02:85:e9:a2:3d:d2:8e:
        f5:3a:6d:5c:6a:86:b5:6d:55:ac:db:fd:a1:44:82:fe:2c:64:
        4c:ba:1b:91
-----BEGIN X509 CRL-----
MIIB+DCB4QIBATANBgkqhkiG9w0BAQsFADCBnjELMAkGA1UEBhMCVVMxEDAOBgNV
BAgMB01vbnRhbmExEDAOBgNVBAcMB0JvemVtYW4xFTATBgNVBAoMDHdvbGZTU0xf
MjA0ODEZMBcGA1UECwwQUHJvZ3JhbW1pbmctMjA0ODEYMBYGA1UEAwwPd3d3Lndv
bGZzc2wuY29tMR8wHQYJKoZIhvcNAQkBFhBpbmZvQHdvbGZzc2wuY29tFw0yNDEy
MTgyMTI1MzRaFw0yNzA5MTQyMTI1MzRaoA4wDDAKBgNVHRQEAwIBATANBgkqhkiG
9w0BAQsFAAOCAQEAomH4O9hTM0zCNvpl2XB/zriy/7oGq/POqki5ESA6nUgUTOaV
Ek7Azyra0bxyBecyHyrzFL7fWSi1zbhsgXNGIKSLQ9l1HunnF3lE2nu3GtzIw9gF
X9zYb/DbyECuUFdU4SZpdbNhDyyc9Xy00d9tPOvEBJbdeAn6QSPchimjeYpWvZtm
ND42IjqdhKoLCQs23KJiWXaDLg9hKJv5xVN0YT14uPg23ux88uHVhsvbu/LBpoP5
wRb3i601R+LRym0hisaMbhBp5lYiXfyCZYqjnE3Qkcgq+odgxuMSMNoqdwJN8UYC
hemiPdKO9TptXGqGtW1VrNv9oUSC/ixkTLobkQ==
-----END X509 CRL-----
