Certificate Revocation List (CRL):
        Version 2 (0x1)
        Signature Algorithm: sha256WithRSAEncryption
        Issuer: C = US, ST = Montana, L = Bozeman, O = Sawtooth, OU = Consulting, CN = www.wolfssl.com, emailAddress = info@wolfssl.com
        Last Update: Sep 26 17:22:46 2023 GMT
        Next Update: Jun 22 17:22:46 2026 GMT
        CRL extensions:
            X509v3 CRL Number: 
                2
Revoked Certificates:
    Serial Number: 02
        Revocation Date: Sep 26 17:22:46 2023 GMT
    Signature Algorithm: sha256WithRSAEncryption
    Signature Value:
        aa:70:82:69:65:a8:e0:90:b1:ea:a6:64:e9:9d:53:48:4f:c9:
        f8:bc:4c:80:51:b2:67:e6:c1:72:2e:de:0f:db:a3:79:44:de:
        ed:e1:23:e2:29:f6:a2:f0:14:47:39:f1:1c:56:61:0f:de:79:
        63:43:e9:60:36:42:50:0f:a8:c1:4e:86:c5:dc:43:b7:c3:e4:
        3e:b7:33:ff:70:a1:82:1f:4d:9c:e4:99:43:f5:b7:f1:59:f3:
        6f:8c:41:a0:75:65:6b:6a:fc:dd:98:9c:01:cd:40:89:e5:ae:
        87:a9:17:fc:f9:8b:62:47:ff:e0:2b:c1:1e:e3:95:6c:fe:f8:
        c9:f1:be:90:ab:61:cb:5d:2c:88:d5:1c:2e:c5:fc:a0:db:56:
        ef:1f:be:c4:66:38:1d:18:ce:14:46:b9:e5:79:71:a3:d7:f9:
        1e:0f:a9:90:8c:cd:88:4f:dd:fa:8c:91:74:8a:98:b5:ab:3c:
        f2:7e:db:bc:45:d4:10:d0:a8:2a:3a:83:d4:91:b9:d0:f3:d6:
        79:72:38:70:c2:ea:99:83:0b:bf:e8:85:81:34:87:97:1f:65:
        df:27:70:59:a0:d1:df:b1:f6:08:34:cd:af:72:a3:01:d5:bb:
        f3:84:2d:c2:d6:2b:f5:40:48:9f:c7:bd:03:c1:92:a8:41:d7:
        25:35:96:4f
-----BEGIN X509 CRL-----
MIICBDCB7QIBATANBgkqhkiG9w0BAQsFADCBlDELMAkGA1UEBhMCVVMxEDAOBgNV
BAgMB01vbnRhbmExEDAOBgNVBAcMB0JvemVtYW4xETAPBgNVBAoMCFNhd3Rvb3Ro
MRMwEQYDVQQLDApDb25zdWx0aW5nMRgwFgYDVQQDDA93d3cud29sZnNzbC5jb20x
HzAdBgkqhkiG9w0BCQEWEGluZm9Ad29sZnNzbC5jb20XDTIzMDkyNjE3MjI0NloX
DTI2MDYyMjE3MjI0NlowFDASAgECFw0yMzA5MjYxNzIyNDZaoA4wDDAKBgNVHRQE
AwIBAjANBgkqhkiG9w0BAQsFAAOCAQEAqnCCaWWo4JCx6qZk6Z1TSE/J+LxMgFGy
Z+bBci7eD9ujeUTe7eEj4in2ovAURznxHFZhD955Y0PpYDZCUA+owU6GxdxDt8Pk
Prcz/3Chgh9NnOSZQ/W38Vnzb4xBoHVla2r83ZicAc1AieWuh6kX/PmLYkf/4CvB
HuOVbP74yfG+kKthy10siNUcLsX8oNtW7x++xGY4HRjOFEa55Xlxo9f5Hg+pkIzN
iE/d+oyRdIqYtas88n7bvEXUENCoKjqD1JG50PPWeXI4cMLqmYMLv+iFgTSHlx9l
3ydwWaDR37H2CDTNr3KjAdW784QtwtYr9UBIn8e9A8GSqEHXJTWWTw==
-----END X509 CRL-----
Certificate Revocation List (CRL):
        Version 2 (0x1)
        Signature Algorithm: sha256WithRSAEncryption
        Issuer: C = US, ST = Montana, L = Bozeman, O = wolfSSL_2048, OU = Programming-2048, CN = www.wolfssl.com, emailAddress = info@wolfssl.com
        Last Update: Sep 26 17:22:46 2023 GMT
        Next Update: Jun 22 17:22:46 2026 GMT
        CRL extensions:
            X509v3 CRL Number: 
                1
No Revoked Certificates.
    Signature Algorithm: sha256WithRSAEncryption
    Signature Value:
        59:88:b8:a2:b4:2c:28:89:ef:17:4e:ed:87:bc:f3:5f:6a:4f:
        3a:ce:79:a2:fa:74:9d:cd:fd:1b:a6:80:0b:7b:c8:09:74:70:
        32:32:12:ed:d0:05:75:62:33:65:b5:ef:ef:a9:4e:f2:91:89:
        60:ea:a6:c3:ae:e4:89:2c:82:62:ff:61:0c:9e:b7:e3:51:77:
        1d:e0:fe:f8:2e:1a:5f:7d:5c:67:19:b3:71:f0:2e:87:7b:d2:
        fb:4c:27:bc:02:0e:8d:81:8d:81:19:cb:c9:c8:e6:eb:ed:79:
        f0:c9:7f:b6:a9:8d:98:e0:49:3d:8c:8b:57:ac:2a:7c:98:35:
        eb:7e:4b:c3:e1:58:72:fe:b7:ff:b7:9e:b6:e4:7d:8e:77:8e:
        2f:b5:7d:2c:4f:6e:c3:8d:f6:8b:a5:f1:cd:47:f9:75:95:7f:
        4f:f4:c0:80:d9:81:bf:18:e7:b8:b4:df:f7:c6:bc:56:ba:1e:
        48:4b:95:50:0c:19:6c:02:21:9f:33:96:da:0a:fb:9d:35:76:
        50:18:50:d4:49:1a:1c:30:d7:ba:60:b4:91:b7:0a:d7:ce:ad:
        39:08:29:e7:5b:4d:92:da:da:22:63:f5:78:ce:ac:7d:8f:45:
        26:99:89:22:51:8f:bb:39:8a:f0:c2:67:d2:9a:98:5b:9a:a8:
        d7:74:86:62
-----BEGIN X509 CRL-----
MIIB+DCB4QIBATANBgkqhkiG9w0BAQsFADCBnjELMAkGA1UEBhMCVVMxEDAOBgNV
BAgMB01vbnRhbmExEDAOBgNVBAcMB0JvemVtYW4xFTATBgNVBAoMDHdvbGZTU0xf
MjA0ODEZMBcGA1UECwwQUHJvZ3JhbW1pbmctMjA0ODEYMBYGA1UEAwwPd3d3Lndv
bGZzc2wuY29tMR8wHQYJKoZIhvcNAQkBFhBpbmZvQHdvbGZzc2wuY29tFw0yMzA5
MjYxNzIyNDZaFw0yNjA2MjIxNzIyNDZaoA4wDDAKBgNVHRQEAwIBATANBgkqhkiG
9w0BAQsFAAOCAQEAWYi4orQsKInvF07th7zzX2pPOs55ovp0nc39G6aAC3vICXRw
MjIS7dAFdWIzZbXv76lO8pGJYOqmw67kiSyCYv9hDJ6341F3HeD++C4aX31cZxmz
cfAuh3vS+0wnvAIOjYGNgRnLycjm6+158Ml/tqmNmOBJPYyLV6wqfJg1635Lw+FY
cv63/7eetuR9jneOL7V9LE9uw432i6XxzUf5dZV/T/TAgNmBvxjnuLTf98a8Vroe
SEuVUAwZbAIhnzOW2gr7nTV2UBhQ1EkaHDDXumC0kbcK186tOQgp51tNktraImP1
eM6sfY9FJpmJIlGPuzmK8MJn0pqYW5qo13SGYg==
-----END X509 CRL-----
