Certificate Revocation List (CRL):
        Version 2 (0x1)
        Signature Algorithm: rsassaPss        
        Hash Algorithm: sha256
        Mask Algorithm: mgf1 with sha256
         Salt Length: 0x20
        Trailer Field: 0x01 (default)
        Issuer: C = US, ST = Montana, L = Bozeman, O = wolfSSL_RSAPSS, OU = CA-RSAPSS, CN = www.wolfssl.com, emailAddress = info@wolfssl.com, UID = wolfSSL
        Last Update: Dec 18 21:25:34 2024 GMT
        Next Update: Sep 14 21:25:34 2027 GMT
        CRL extensions:
            X509v3 CRL Number: 
                13
Revoked Certificates:
    Serial Number: 01
        Revocation Date: Dec 18 21:25:34 2024 GMT
    Signature Algorithm: rsassaPss
    Signature Value:        
        Hash Algorithm: sha256
        Mask Algorithm: mgf1 with sha256
         Salt Length: 0x20
        Trailer Field: 0x01 (default)
        06:13:7c:70:5f:2b:3b:4f:8f:50:ab:05:97:6b:65:df:1d:95:
        f3:e7:e3:1e:36:84:e7:19:ae:6d:3c:5c:10:f9:a5:c8:bd:14:
        a6:ea:0b:0f:34:6d:69:78:c8:df:db:73:4a:c9:cf:c8:ad:f3:
        58:8e:ac:f4:8f:46:ae:83:93:6a:6c:cd:7a:a2:40:24:51:74:
        55:6f:23:a9:2d:75:d6:54:55:ab:dc:91:56:d5:f7:1f:33:47:
        18:ac:cb:13:f6:15:9b:93:f0:16:10:79:9f:42:32:b9:44:93:
        04:5a:45:18:6c:79:16:34:0d:00:dc:61:42:50:3b:ec:86:de:
        6c:60:73:99:37:17:79:52:b4:67:72:21:3e:e7:06:1b:49:20:
        e1:53:23:db:2b:0a:42:54:44:62:4f:87:11:2d:cf:26:3f:60:
        0d:5f:6b:d7:89:45:60:0d:71:1a:fb:b5:13:55:53:27:90:f0:
        b8:cc:ce:99:50:69:bd:fa:3b:1d:7f:11:be:7b:cf:4f:09:de:
        9b:a7:f9:05:34:2e:f1:59:dc:ea:e9:6b:c4:98:d7:8f:eb:81:
        f7:ab:73:01:6e:6f:7c:00:dc:b9:55:4b:14:c0:74:28:32:3a:
        b3:ee:0f:d9:8d:ca:dd:3a:fb:1e:72:19:f1:7c:94:cb:ff:00:
        49:2d:ab:d0
-----BEGIN X509 CRL-----
MIICizCCAT8CAQEwQQYJKoZIhvcNAQEKMDSgDzANBglghkgBZQMEAgEFAKEcMBoG
CSqGSIb3DQEBCDANBglghkgBZQMEAgEFAKIDAgEgMIGyMQswCQYDVQQGEwJVUzEQ
MA4GA1UECAwHTW9udGFuYTEQMA4GA1UEBwwHQm96ZW1hbjEXMBUGA1UECgwOd29s
ZlNTTF9SU0FQU1MxEjAQBgNVBAsMCUNBLVJTQVBTUzEYMBYGA1UEAwwPd3d3Lndv
bGZzc2wuY29tMR8wHQYJKoZIhvcNAQkBFhBpbmZvQHdvbGZzc2wuY29tMRcwFQYK
CZImiZPyLGQBAQwHd29sZlNTTBcNMjQxMjE4MjEyNTM0WhcNMjcwOTE0MjEyNTM0
WjAUMBICAQEXDTI0MTIxODIxMjUzNFqgDjAMMAoGA1UdFAQDAgENMEEGCSqGSIb3
DQEBCjA0oA8wDQYJYIZIAWUDBAIBBQChHDAaBgkqhkiG9w0BAQgwDQYJYIZIAWUD
BAIBBQCiAwIBIAOCAQEABhN8cF8rO0+PUKsFl2tl3x2V8+fjHjaE5xmubTxcEPml
yL0UpuoLDzRtaXjI39tzSsnPyK3zWI6s9I9GroOTamzNeqJAJFF0VW8jqS111lRV
q9yRVtX3HzNHGKzLE/YVm5PwFhB5n0IyuUSTBFpFGGx5FjQNANxhQlA77IbebGBz
mTcXeVK0Z3IhPucGG0kg4VMj2ysKQlREYk+HES3PJj9gDV9r14lFYA1xGvu1E1VT
J5DwuMzOmVBpvfo7HX8RvnvPTwnem6f5BTQu8Vnc6ulrxJjXj+uB96tzAW5vfADc
uVVLFMB0KDI6s+4P2Y3K3Tr7HnIZ8XyUy/8ASS2r0A==
-----END X509 CRL-----
