Certificate Revocation List (CRL):
        Version 2 (0x1)
        Signature Algorithm: rsassaPss         
         Hash Algorithm: sha256
         Mask Algorithm: mgf1 with sha256
          Salt Length: 0x20
         Trailer Field: 0xBC (default)
        Issuer: C = US, ST = Montana, L = Bozeman, O = wolfSSL_RSAPSS, OU = CA-RSAPSS, CN = www.wolfssl.com, emailAddress = info@wolfssl.com, UID = wolfSSL
        Last Update: Jan  9 00:34:30 2024 GMT
        Next Update: Oct  5 00:34:30 2026 GMT
        CRL extensions:
            X509v3 CRL Number: 
                13
Revoked Certificates:
    Serial Number: 01
        Revocation Date: Jan  9 00:34:30 2024 GMT
    Signature Algorithm: rsassaPss         
         Hash Algorithm: sha256
         Mask Algorithm: mgf1 with sha256
          Salt Length: 0x20
         Trailer Field: 0xBC (default)

         68:74:81:f0:7e:55:bb:ea:38:4e:ae:d5:b2:b6:c2:6a:53:fa:
         2a:23:07:d0:b8:76:66:74:cb:ba:e7:b2:66:ac:19:1d:b5:ba:
         ab:e7:de:f2:84:10:e5:df:57:ea:19:f4:2c:af:d8:61:b3:09:
         31:e4:b3:94:08:65:52:03:b4:5c:7b:d0:44:37:59:df:d3:13:
         09:f7:da:34:a1:d0:8d:e8:c7:73:05:60:15:a2:ef:a1:94:31:
         0b:a7:ee:3d:25:12:19:6a:e5:29:30:3c:97:82:ed:a5:db:f3:
         54:7f:2a:73:c2:be:0d:25:30:9b:d4:c0:77:99:db:55:dd:d2:
         f7:88:d0:8b:74:66:00:65:14:d6:c6:4c:a8:de:cf:54:19:bf:
         3a:d9:6a:80:4a:85:87:f6:ec:3d:3d:01:67:54:ea:82:7f:d5:
         c3:37:3b:c3:d0:82:ce:01:30:bf:30:a0:c2:04:70:ab:5b:02:
         05:2f:ca:f1:e2:49:d3:50:04:e4:f2:77:08:16:5a:45:95:6c:
         c9:80:72:a7:e6:b6:97:d4:22:5d:b7:f9:3a:5e:d0:be:6a:53:
         44:35:fc:e9:45:3b:56:4a:1d:06:38:8e:5b:1b:fe:a2:0b:5b:
         c2:5d:5e:99:84:7e:ba:c4:5c:b5:43:1d:a2:9b:b3:05:bd:33:
         38:8e:2c:e8
-----BEGIN X509 CRL-----
MIICgzCCATsCAQEwPQYJKoZIhvcNAQEKMDCgDTALBglghkgBZQMEAgGhGjAYBgkq
hkiG9w0BAQgwCwYJYIZIAWUDBAIBogMCASAwgbIxCzAJBgNVBAYTAlVTMRAwDgYD
VQQIDAdNb250YW5hMRAwDgYDVQQHDAdCb3plbWFuMRcwFQYDVQQKDA53b2xmU1NM
X1JTQVBTUzESMBAGA1UECwwJQ0EtUlNBUFNTMRgwFgYDVQQDDA93d3cud29sZnNz
bC5jb20xHzAdBgkqhkiG9w0BCQEWEGluZm9Ad29sZnNzbC5jb20xFzAVBgoJkiaJ
k/IsZAEBDAd3b2xmU1NMFw0yNDAxMDkwMDM0MzBaFw0yNjEwMDUwMDM0MzBaMBQw
EgIBARcNMjQwMTA5MDAzNDMwWqAOMAwwCgYDVR0UBAMCAQ0wPQYJKoZIhvcNAQEK
MDCgDTALBglghkgBZQMEAgGhGjAYBgkqhkiG9w0BAQgwCwYJYIZIAWUDBAIBogMC
ASADggEBAGh0gfB+VbvqOE6u1bK2wmpT+iojB9C4dmZ0y7rnsmasGR21uqvn3vKE
EOXfV+oZ9Cyv2GGzCTHks5QIZVIDtFx70EQ3Wd/TEwn32jSh0I3ox3MFYBWi76GU
MQun7j0lEhlq5SkwPJeC7aXb81R/KnPCvg0lMJvUwHeZ21Xd0veI0It0ZgBlFNbG
TKjez1QZvzrZaoBKhYf27D09AWdU6oJ/1cM3O8PQgs4BML8woMIEcKtbAgUvyvHi
SdNQBOTydwgWWkWVbMmAcqfmtpfUIl23+Tpe0L5qU0Q1/OlFO1ZKHQY4jlsb/qIL
W8JdXpmEfrrEXLVDHaKbswW9MziOLOg=
-----END X509 CRL-----
