Certificate Revocation List (CRL):
        Version 2 (0x1)
        Signature Algorithm: rsassaPss        
        Hash Algorithm: sha256
        Mask Algorithm: mgf1 with sha256
         Salt Length: 0x20
        Trailer Field: 0x01 (default)
        Issuer: C=US, ST=Montana, L=Bozeman, O=wolfSSL_RSAPSS, OU=CA-RSAPSS, CN=www.wolfssl.com, emailAddress=facts@wolfssl.com, UID=wolfSSL
        Last Update: Jun 11 21:44:41 2026 GMT
        Next Update: Mar  7 21:44:41 2029 GMT
        CRL extensions:
            X509v3 CRL Number: 
                13
Revoked Certificates:
    Serial Number: 01
        Revocation Date: Jun 11 21:44:41 2026 GMT
    Signature Algorithm: rsassaPss
    Signature Value:        
        Hash Algorithm: sha256
        Mask Algorithm: mgf1 with sha256
         Salt Length: 0x20
        Trailer Field: 0x01 (default)
        8e:f8:f3:99:81:21:0f:58:78:2e:03:c3:ad:c1:c5:fc:4d:1f:
        f2:56:20:9d:ad:bd:9c:c9:99:02:24:5e:49:a0:20:f3:6a:1d:
        1a:6e:ed:d8:5e:b9:bb:43:dc:ba:be:14:dd:8a:94:93:29:3f:
        ae:44:d3:f4:7e:f6:71:ec:06:7a:5e:0e:fe:aa:18:25:dd:07:
        de:7f:8b:5e:0b:cd:8c:3c:4f:7d:db:55:d4:84:da:33:d5:a6:
        e7:fa:ce:b9:39:a0:07:b7:52:82:78:8d:3f:6c:24:7c:50:6b:
        73:d1:66:42:46:d4:d9:5d:75:46:e6:ef:ff:3f:c4:5b:02:dd:
        5e:d4:ed:7d:67:1d:60:17:5c:29:3d:8f:7e:ce:e8:15:0a:52:
        f3:d3:d0:94:42:fe:e5:d4:42:95:cc:4b:4e:c9:7a:05:7d:c5:
        b8:d2:1e:88:28:12:f9:da:e0:10:07:59:83:d2:3c:e7:a3:b2:
        c9:5c:75:45:dc:18:28:e8:86:99:df:15:1d:ff:b0:b6:e7:e5:
        ae:7d:c9:48:50:af:6e:55:33:74:11:a2:eb:25:26:8c:ac:ed:
        a3:69:95:38:b3:4b:9a:af:07:cb:dd:10:b3:71:1c:5f:16:1a:
        87:a3:60:b2:4e:48:4d:31:6a:68:de:d2:64:e2:64:40:a5:d9:
        c2:01:2b:03
-----BEGIN X509 CRL-----
MIICjDCCAUACAQEwQQYJKoZIhvcNAQEKMDSgDzANBglghkgBZQMEAgEFAKEcMBoG
CSqGSIb3DQEBCDANBglghkgBZQMEAgEFAKIDAgEgMIGzMQswCQYDVQQGEwJVUzEQ
MA4GA1UECAwHTW9udGFuYTEQMA4GA1UEBwwHQm96ZW1hbjEXMBUGA1UECgwOd29s
ZlNTTF9SU0FQU1MxEjAQBgNVBAsMCUNBLVJTQVBTUzEYMBYGA1UEAwwPd3d3Lndv
bGZzc2wuY29tMSAwHgYJKoZIhvcNAQkBFhFmYWN0c0B3b2xmc3NsLmNvbTEXMBUG
CgmSJomT8ixkAQEMB3dvbGZTU0wXDTI2MDYxMTIxNDQ0MVoXDTI5MDMwNzIxNDQ0
MVowFDASAgEBFw0yNjA2MTEyMTQ0NDFaoA4wDDAKBgNVHRQEAwIBDTBBBgkqhkiG
9w0BAQowNKAPMA0GCWCGSAFlAwQCAQUAoRwwGgYJKoZIhvcNAQEIMA0GCWCGSAFl
AwQCAQUAogMCASADggEBAI7485mBIQ9YeC4Dw63BxfxNH/JWIJ2tvZzJmQIkXkmg
IPNqHRpu7dheubtD3Lq+FN2KlJMpP65E0/R+9nHsBnpeDv6qGCXdB95/i14LzYw8
T33bVdSE2jPVpuf6zrk5oAe3UoJ4jT9sJHxQa3PRZkJG1NlddUbm7/8/xFsC3V7U
7X1nHWAXXCk9j37O6BUKUvPT0JRC/uXUQpXMS07JegV9xbjSHogoEvna4BAHWYPS
POejsslcdUXcGCjohpnfFR3/sLbn5a59yUhQr25VM3QRouslJoys7aNplTizS5qv
B8vdELNxHF8WGoejYLJOSE0xamje0mTiZECl2cIBKwM=
-----END X509 CRL-----
