Certificate Revocation List (CRL):
        Version 2 (0x1)
        Signature Algorithm: rsassaPss        
        Hash Algorithm: sha256
        Mask Algorithm: mgf1 with sha256
         Salt Length: 0x20
        Trailer Field: 0x01 (default)
        Issuer: C=US, ST=Montana, L=Bozeman, O=wolfSSL_RSAPSS, OU=CA-RSAPSS, CN=www.wolfssl.com, emailAddress=info@wolfssl.com, UID=wolfSSL
        Last Update: Nov 13 20:41:51 2025 GMT
        Next Update: Aug  9 20:41:51 2028 GMT
        CRL extensions:
            X509v3 CRL Number: 
                13
Revoked Certificates:
    Serial Number: 01
        Revocation Date: Nov 13 20:41:51 2025 GMT
    Signature Algorithm: rsassaPss
    Signature Value:        
        Hash Algorithm: sha256
        Mask Algorithm: mgf1 with sha256
         Salt Length: 0x20
        Trailer Field: 0x01 (default)
        59:d5:bd:12:fa:49:bf:91:c4:c9:9a:31:57:35:58:6f:6d:df:
        c3:cc:b5:68:ab:3d:09:41:f2:43:46:7e:bc:06:d6:fb:79:76:
        1e:3a:dd:f2:c0:4c:3e:39:67:c5:3b:02:d1:b4:e9:69:e2:3f:
        6d:32:0b:4a:2f:b3:47:ce:dd:00:b3:bf:53:5d:fc:a4:0d:5b:
        d1:3a:e3:09:db:60:7f:11:44:bc:f7:f9:c7:70:23:dc:d3:2d:
        0e:8b:99:ca:0d:ed:1e:76:54:6c:b5:af:f7:c3:ca:ec:03:fb:
        54:dd:f0:1b:d3:67:b5:47:1f:f6:ad:fd:83:9b:9a:84:2b:44:
        e4:21:44:84:ab:da:98:2b:ab:3b:db:e8:21:d4:96:e4:69:96:
        14:1f:b1:63:ec:f1:b0:b5:6a:31:45:b2:34:12:8a:12:64:65:
        c1:9f:0e:e3:82:ea:90:2b:6a:c2:38:d6:28:d9:d5:8c:29:07:
        24:76:e2:44:0c:71:04:7c:79:fb:26:43:36:ae:8e:29:53:31:
        19:76:47:09:8d:a5:45:ed:0a:68:5d:5c:a9:18:13:a7:36:e1:
        d1:7d:82:44:79:5f:bc:ee:8a:35:d2:ed:2f:46:38:35:82:e8:
        7a:f6:21:35:4c:9f:95:8f:d0:e8:92:98:75:36:c4:22:58:d8:
        84:1a:26:8a
-----BEGIN X509 CRL-----
MIICizCCAT8CAQEwQQYJKoZIhvcNAQEKMDSgDzANBglghkgBZQMEAgEFAKEcMBoG
CSqGSIb3DQEBCDANBglghkgBZQMEAgEFAKIDAgEgMIGyMQswCQYDVQQGEwJVUzEQ
MA4GA1UECAwHTW9udGFuYTEQMA4GA1UEBwwHQm96ZW1hbjEXMBUGA1UECgwOd29s
ZlNTTF9SU0FQU1MxEjAQBgNVBAsMCUNBLVJTQVBTUzEYMBYGA1UEAwwPd3d3Lndv
bGZzc2wuY29tMR8wHQYJKoZIhvcNAQkBFhBpbmZvQHdvbGZzc2wuY29tMRcwFQYK
CZImiZPyLGQBAQwHd29sZlNTTBcNMjUxMTEzMjA0MTUxWhcNMjgwODA5MjA0MTUx
WjAUMBICAQEXDTI1MTExMzIwNDE1MVqgDjAMMAoGA1UdFAQDAgENMEEGCSqGSIb3
DQEBCjA0oA8wDQYJYIZIAWUDBAIBBQChHDAaBgkqhkiG9w0BAQgwDQYJYIZIAWUD
BAIBBQCiAwIBIAOCAQEAWdW9EvpJv5HEyZoxVzVYb23fw8y1aKs9CUHyQ0Z+vAbW
+3l2Hjrd8sBMPjlnxTsC0bTpaeI/bTILSi+zR87dALO/U138pA1b0TrjCdtgfxFE
vPf5x3Aj3NMtDouZyg3tHnZUbLWv98PK7AP7VN3wG9NntUcf9q39g5uahCtE5CFE
hKvamCurO9voIdSW5GmWFB+xY+zxsLVqMUWyNBKKEmRlwZ8O44LqkCtqwjjWKNnV
jCkHJHbiRAxxBHx5+yZDNq6OKVMxGXZHCY2lRe0KaF1cqRgTpzbh0X2CRHlfvO6K
NdLtL0Y4NYLoevYhNUyflY/Q6JKYdTbEIljYhBomig==
-----END X509 CRL-----
