Certificate Revocation List (CRL):
        Version 2 (0x1)
        Signature Algorithm: sha256WithRSAEncryption
        Issuer: C=US, ST=Montana, L=Bozeman, O=Sawtooth, OU=Consulting, CN=www.wolfssl.com, emailAddress=facts@wolfssl.com
        Last Update: Jun 11 21:44:41 2026 GMT
        Next Update: Jun  8 21:44:41 2036 GMT
        CRL extensions:
            X509v3 CRL Number: 
                1
Revoked Certificates:
    Serial Number: 01
        Revocation Date: Jun 11 21:44:41 2026 GMT
        CRL entry extensions:
            X509v3 CRL Reason Code: 
                Key Compromise
    Signature Algorithm: sha256WithRSAEncryption
    Signature Value:
        0c:60:be:7d:d5:31:3f:90:5f:f2:f5:10:65:12:28:1b:42:f8:
        40:5c:a1:55:b7:89:75:33:b8:d6:0a:a7:7a:38:96:cf:fc:87:
        79:d0:d0:0e:83:b7:0c:a2:2c:77:9e:5e:a7:69:8b:29:4b:75:
        f6:ce:91:4f:48:6f:cc:9c:f4:2d:29:45:4f:65:e0:80:b5:11:
        9e:5e:71:b3:ee:ea:35:8b:0b:3f:a7:0f:88:3c:dd:62:28:fe:
        58:c0:42:2c:8a:4e:96:5a:9b:1f:a1:43:c8:33:b4:d0:d1:05:
        f5:d5:4f:13:6b:b2:47:47:2b:86:e2:1d:c9:dd:1b:9e:d5:2e:
        df:27:05:d7:45:27:88:2c:9b:77:3f:4c:28:c6:02:85:d5:d8:
        26:7d:36:c6:b7:6e:eb:41:39:cd:fa:48:d8:3c:90:58:23:49:
        1b:1c:b5:04:34:7f:6a:34:33:b6:c9:ba:56:af:04:c7:05:8e:
        fe:4a:c4:0f:3c:8e:b5:c8:8d:d8:26:f6:91:cf:c5:0a:ef:aa:
        0a:06:b9:74:7c:ad:94:37:dc:4c:c5:c2:0b:9a:f2:30:df:9e:
        c1:42:56:05:08:3e:9d:b1:ee:61:98:31:e8:01:e5:c2:dc:87:
        db:e0:80:bd:6b:5d:36:fa:ec:8e:b3:fb:91:fd:cb:2f:64:40:
        7b:24:d8:3d
-----BEGIN X509 CRL-----
MIICEzCB/AIBATANBgkqhkiG9w0BAQsFADCBlTELMAkGA1UEBhMCVVMxEDAOBgNV
BAgMB01vbnRhbmExEDAOBgNVBAcMB0JvemVtYW4xETAPBgNVBAoMCFNhd3Rvb3Ro
MRMwEQYDVQQLDApDb25zdWx0aW5nMRgwFgYDVQQDDA93d3cud29sZnNzbC5jb20x
IDAeBgkqhkiG9w0BCQEWEWZhY3RzQHdvbGZzc2wuY29tFw0yNjA2MTEyMTQ0NDFa
Fw0zNjA2MDgyMTQ0NDFaMCIwIAIBARcNMjYwNjExMjE0NDQxWjAMMAoGA1UdFQQD
CgEBoA4wDDAKBgNVHRQEAwIBATANBgkqhkiG9w0BAQsFAAOCAQEADGC+fdUxP5Bf
8vUQZRIoG0L4QFyhVbeJdTO41gqnejiWz/yHedDQDoO3DKIsd55ep2mLKUt19s6R
T0hvzJz0LSlFT2XggLURnl5xs+7qNYsLP6cPiDzdYij+WMBCLIpOllqbH6FDyDO0
0NEF9dVPE2uyR0crhuIdyd0bntUu3ycF10UniCybdz9MKMYChdXYJn02xrdu60E5
zfpI2DyQWCNJGxy1BDR/ajQztsm6Vq8ExwWO/krEDzyOtciN2Cb2kc/FCu+qCga5
dHytlDfcTMXCC5ryMN+ewUJWBQg+nbHuYZgx6AHlwtyH2+CAvWtdNvrsjrP7kf3L
L2RAeyTYPQ==
-----END X509 CRL-----
