Certificate Revocation List (CRL):
        Version 2 (0x1)
        Signature Algorithm: sha256WithRSAEncryption
        Issuer: C = US, ST = Montana, L = Bozeman, OU = Engineering, CN = www.nomatch.com, emailAddress = info@wolfssl.com
        Last Update: Jun 15 22:02:33 2021 GMT
        Next Update: Mar 11 22:02:33 2024 GMT
        CRL extensions:
            X509v3 CRL Number: 
                1
No Revoked Certificates.
    Signature Algorithm: sha256WithRSAEncryption
         8a:53:b8:29:0e:37:13:d7:8a:f8:3e:d3:c9:20:3b:fa:6c:8a:
         1c:59:3a:54:4d:93:ca:68:e2:b0:08:b3:23:d1:98:a5:0e:44:
         4c:19:e7:de:a1:e4:56:6e:c5:d2:9a:05:d4:d5:c7:07:8d:65:
         ca:df:cf:5e:89:74:d3:9d:3f:1f:c4:1e:f2:cf:5c:e0:c7:a8:
         23:cc:c3:db:cb:f6:9d:55:3a:9d:7a:7a:4b:c7:b8:7e:d1:6f:
         17:d2:a3:03:2d:9f:97:12:12:e8:75:a0:2e:64:3e:f5:ae:72:
         a6:52:4a:9d:fe:39:f5:82:fc:d7:cf:34:4d:c2:23:eb:64:95:
         44:e6:1d:4b:2b:26:87:6e:3a:d0:e9:93:26:f7:a5:fd:45:66:
         79:1f:14:93:1e:5d:92:07:f0:a1:53:ae:c3:32:b7:17:be:85:
         57:cb:4d:a3:1f:26:71:be:ae:21:10:4f:df:6d:3e:ca:0a:84:
         4c:b7:d2:29:b2:34:3e:5d:aa:0b:16:e1:c4:92:cc:aa:2d:13:
         f0:7d:1d:cf:52:ff:15:4e:12:b3:ff:d9:b6:72:06:be:26:f7:
         78:85:2d:ba:65:4a:55:85:85:71:47:8d:fd:23:68:c8:cd:8b:
         de:d3:8b:33:56:77:03:72:41:d6:29:81:d9:bf:ae:bb:55:3b:
         da:b0:bc:b8
-----BEGIN X509 CRL-----
MIIB3DCBxQIBATANBgkqhkiG9w0BAQsFADCBgjELMAkGA1UEBhMCVVMxEDAOBgNV
BAgMB01vbnRhbmExEDAOBgNVBAcMB0JvemVtYW4xFDASBgNVBAsMC0VuZ2luZWVy
aW5nMRgwFgYDVQQDDA93d3cubm9tYXRjaC5jb20xHzAdBgkqhkiG9w0BCQEWEGlu
Zm9Ad29sZnNzbC5jb20XDTIxMDYxNTIyMDIzM1oXDTI0MDMxMTIyMDIzM1qgDjAM
MAoGA1UdFAQDAgEBMA0GCSqGSIb3DQEBCwUAA4IBAQCKU7gpDjcT14r4PtPJIDv6
bIocWTpUTZPKaOKwCLMj0ZilDkRMGefeoeRWbsXSmgXU1ccHjWXK389eiXTTnT8f
xB7yz1zgx6gjzMPby/adVTqdenpLx7h+0W8X0qMDLZ+XEhLodaAuZD71rnKmUkqd
/jn1gvzXzzRNwiPrZJVE5h1LKyaHbjrQ6ZMm96X9RWZ5HxSTHl2SB/ChU67DMrcX
voVXy02jHyZxvq4hEE/fbT7KCoRMt9IpsjQ+XaoLFuHEksyqLRPwfR3PUv8VThKz
/9m2cga+Jvd4hS26ZUpVhYVxR439I2jIzYve04szVncDckHWKYHZv667VTvasLy4
-----END X509 CRL-----
