Certificate Revocation List (CRL):
        Version 2 (0x1)
        Signature Algorithm: sha256WithRSAEncryption
        Issuer: C = US, ST = Montana, L = Bozeman, OU = Engineering, CN = *localhost, emailAddress = info@wolfssl.com
        Last Update: Dec 20 23:07:25 2021 GMT
        Next Update: Sep 15 23:07:25 2024 GMT
        CRL extensions:
            X509v3 CRL Number: 
                1
No Revoked Certificates.
    Signature Algorithm: sha256WithRSAEncryption
         41:28:dc:c0:e0:86:a1:95:7d:23:ea:4d:7a:78:dc:be:1c:6f:
         f9:d9:c9:53:ab:a0:60:4d:b9:68:22:b5:21:4c:b8:34:66:a4:
         3e:ca:2d:52:c8:47:44:e9:00:47:8a:8c:2a:f0:2f:1e:6d:f9:
         78:9b:a4:ab:28:e9:4f:f7:13:d9:f7:fe:47:c1:2c:e0:df:21:
         5f:7e:29:fe:f0:50:46:6c:0b:8d:fd:94:08:c1:8c:45:54:b4:
         f7:2b:a7:b9:a9:14:a0:a9:35:d7:f1:96:22:0d:41:94:2c:80:
         55:d7:c8:cb:ee:fc:28:61:16:f7:50:a8:1b:26:2e:08:c7:15:
         84:bc:55:96:5c:0e:91:de:a6:63:7c:37:fe:a5:70:2d:a0:bb:
         65:b3:35:3e:77:90:d0:00:d4:d6:ac:ae:b1:3f:9f:eb:b1:28:
         95:4c:21:27:65:d1:6d:4a:74:51:76:a8:c3:e0:c0:a7:a1:f6:
         76:59:b9:f4:b1:96:4e:e3:ab:6a:ec:0c:46:21:15:5e:e8:a0:
         59:25:ac:b7:94:04:90:09:82:22:83:23:a9:19:50:12:bd:54:
         44:b0:b2:83:15:32:fa:99:b5:22:33:35:ca:47:d6:52:e3:59:
         f1:6b:ea:39:59:5c:81:1c:36:56:5a:27:4b:0f:5f:d6:39:9d:
         d0:4c:44:b4
-----BEGIN X509 CRL-----
MIIB1jCBvwIBATANBgkqhkiG9w0BAQsFADB9MQswCQYDVQQGEwJVUzEQMA4GA1UE
CAwHTW9udGFuYTEQMA4GA1UEBwwHQm96ZW1hbjEUMBIGA1UECwwLRW5naW5lZXJp
bmcxEzARBgNVBAMMCipsb2NhbGhvc3QxHzAdBgkqhkiG9w0BCQEWEGluZm9Ad29s
ZnNzbC5jb20XDTIxMTIyMDIzMDcyNVoXDTI0MDkxNTIzMDcyNVqgDjAMMAoGA1Ud
FAQDAgEBMA0GCSqGSIb3DQEBCwUAA4IBAQBBKNzA4IahlX0j6k16eNy+HG/52clT
q6BgTbloIrUhTLg0ZqQ+yi1SyEdE6QBHiowq8C8ebfl4m6SrKOlP9xPZ9/5HwSzg
3yFffin+8FBGbAuN/ZQIwYxFVLT3K6e5qRSgqTXX8ZYiDUGULIBV18jL7vwoYRb3
UKgbJi4IxxWEvFWWXA6R3qZjfDf+pXAtoLtlszU+d5DQANTWrK6xP5/rsSiVTCEn
ZdFtSnRRdqjD4MCnofZ2Wbn0sZZO46tq7AxGIRVe6KBZJay3lASQCYIigyOpGVAS
vVREsLKDFTL6mbUiMzXKR9ZS41nxa+o5WVyBHDZWWidLD1/WOZ3QTES0
-----END X509 CRL-----
