Certificate Revocation List (CRL):
        Version 2 (0x1)
        Signature Algorithm: sha256WithRSAEncryption
        Issuer: C = US, ST = Montana, L = Bozeman, OU = Engineering, CN = www.nomatch.com, emailAddress = info@wolfssl.com
        Last Update: Sep 26 17:22:43 2023 GMT
        Next Update: Jun 22 17:22:43 2026 GMT
        CRL extensions:
            X509v3 CRL Number: 
                1
No Revoked Certificates.
    Signature Algorithm: sha256WithRSAEncryption
    Signature Value:
        85:53:02:8b:c3:d8:3f:d0:75:e4:ae:aa:b9:31:1c:b5:2a:a0:
        08:16:1f:d1:20:ce:56:6a:d3:3b:d4:de:82:66:55:6c:f8:00:
        c1:a0:dc:31:eb:25:04:e7:97:cb:b8:50:84:c0:70:6d:10:96:
        93:79:f7:8e:5c:4d:2b:7e:35:7e:da:d8:87:40:52:02:52:d4:
        8b:8c:58:43:aa:db:7a:fe:c1:24:75:03:91:e6:94:38:6f:04:
        48:4f:97:59:43:14:ac:2a:e5:3f:b5:75:43:4b:1c:ff:83:12:
        55:63:30:fa:c1:11:ea:b7:4a:b1:62:29:f9:d1:d4:94:95:c6:
        b6:26:9f:a0:67:b4:9b:91:cb:50:c8:00:db:52:58:60:06:36:
        9f:35:4b:82:b0:cf:ca:0c:58:03:8c:90:66:f2:b6:2f:69:cd:
        33:67:7e:8d:8f:0d:b7:58:cf:ca:a1:88:f5:8c:65:b4:52:87:
        29:a0:47:15:1d:aa:d1:6e:cd:0d:41:0d:07:72:eb:f8:d6:26:
        bd:04:eb:44:80:b9:e0:4f:0e:f5:0f:d8:5f:df:12:e9:cd:fb:
        a1:7a:c9:f9:91:5e:40:03:dc:83:5f:3b:a7:1b:d8:77:73:d5:
        7f:a4:7c:53:49:ca:55:91:01:cf:e8:64:d6:83:b4:3e:5e:ef:
        27:f2:81:4d
-----BEGIN X509 CRL-----
MIIB3DCBxQIBATANBgkqhkiG9w0BAQsFADCBgjELMAkGA1UEBhMCVVMxEDAOBgNV
BAgMB01vbnRhbmExEDAOBgNVBAcMB0JvemVtYW4xFDASBgNVBAsMC0VuZ2luZWVy
aW5nMRgwFgYDVQQDDA93d3cubm9tYXRjaC5jb20xHzAdBgkqhkiG9w0BCQEWEGlu
Zm9Ad29sZnNzbC5jb20XDTIzMDkyNjE3MjI0M1oXDTI2MDYyMjE3MjI0M1qgDjAM
MAoGA1UdFAQDAgEBMA0GCSqGSIb3DQEBCwUAA4IBAQCFUwKLw9g/0HXkrqq5MRy1
KqAIFh/RIM5WatM71N6CZlVs+ADBoNwx6yUE55fLuFCEwHBtEJaTefeOXE0rfjV+
2tiHQFICUtSLjFhDqtt6/sEkdQOR5pQ4bwRIT5dZQxSsKuU/tXVDSxz/gxJVYzD6
wRHqt0qxYin50dSUlca2Jp+gZ7SbkctQyADbUlhgBjafNUuCsM/KDFgDjJBm8rYv
ac0zZ36Njw23WM/KoYj1jGW0UocpoEcVHarRbs0NQQ0Hcuv41ia9BOtEgLngTw71
D9hf3xLpzfuhesn5kV5AA9yDXzunG9h3c9V/pHxTScpVkQHP6GTWg7Q+Xu8n8oFN
-----END X509 CRL-----
