Certificate Revocation List (CRL):
        Version 2 (0x1)
        Signature Algorithm: sha256WithRSAEncryption
        Issuer: C = US, ST = Montana, L = Bozeman, OU = Engineering, CN = www.nomatch.com, emailAddress = info@wolfssl.com
        Last Update: Dec 18 21:25:31 2024 GMT
        Next Update: Sep 14 21:25:31 2027 GMT
        CRL extensions:
            X509v3 CRL Number: 
                1
No Revoked Certificates.
    Signature Algorithm: sha256WithRSAEncryption
    Signature Value:
        5f:bb:9e:e9:f1:4e:f7:5b:07:24:60:bd:b5:3a:7b:88:04:fa:
        a7:6c:15:17:b8:f9:dd:12:a5:df:59:ec:0f:00:a1:a6:24:46:
        d7:a4:c5:2d:30:71:b7:6c:7b:f2:a8:09:02:9d:f9:96:e0:49:
        94:d0:a5:bf:b0:df:65:5f:7a:82:7a:5d:14:0b:67:c8:d3:12:
        fb:12:48:ac:a0:4d:7a:b1:0e:07:25:e7:e4:69:75:a2:a9:d0:
        a7:f0:09:d1:ba:a8:be:40:8a:e1:ad:1b:c6:a3:46:b3:2b:44:
        81:d2:bd:66:b8:ba:d0:d5:6d:0e:da:ee:b3:40:d2:7d:40:59:
        25:12:f3:e9:98:07:00:96:e6:72:97:d5:dc:a0:a4:ea:4f:36:
        c9:07:cf:ae:08:ab:f0:90:fe:93:d4:b6:50:73:c1:a5:d5:5b:
        04:ce:9b:11:5a:b2:1c:11:75:39:f5:97:4b:4e:dd:be:47:ae:
        c9:c3:1e:a4:6a:1b:ca:ec:40:09:3c:3f:34:9b:e6:00:83:d6:
        fa:84:1f:85:48:64:61:2b:4c:50:d6:be:29:67:f7:37:62:95:
        0a:ff:ee:ab:02:1e:79:d3:1c:60:50:a9:3e:0e:da:5f:38:14:
        b7:0b:d3:02:f8:1d:9f:ea:e9:9c:81:86:87:02:9e:6d:0d:5a:
        85:57:ba:23
-----BEGIN X509 CRL-----
MIIB3DCBxQIBATANBgkqhkiG9w0BAQsFADCBgjELMAkGA1UEBhMCVVMxEDAOBgNV
BAgMB01vbnRhbmExEDAOBgNVBAcMB0JvemVtYW4xFDASBgNVBAsMC0VuZ2luZWVy
aW5nMRgwFgYDVQQDDA93d3cubm9tYXRjaC5jb20xHzAdBgkqhkiG9w0BCQEWEGlu
Zm9Ad29sZnNzbC5jb20XDTI0MTIxODIxMjUzMVoXDTI3MDkxNDIxMjUzMVqgDjAM
MAoGA1UdFAQDAgEBMA0GCSqGSIb3DQEBCwUAA4IBAQBfu57p8U73WwckYL21OnuI
BPqnbBUXuPndEqXfWewPAKGmJEbXpMUtMHG3bHvyqAkCnfmW4EmU0KW/sN9lX3qC
el0UC2fI0xL7EkisoE16sQ4HJefkaXWiqdCn8AnRuqi+QIrhrRvGo0azK0SB0r1m
uLrQ1W0O2u6zQNJ9QFklEvPpmAcAluZyl9XcoKTqTzbJB8+uCKvwkP6T1LZQc8Gl
1VsEzpsRWrIcEXU59ZdLTt2+R67Jwx6kahvK7EAJPD80m+YAg9b6hB+FSGRhK0xQ
1r4pZ/c3YpUK/+6rAh550xxgUKk+DtpfOBS3C9MC+B2f6umcgYaHAp5tDVqFV7oj
-----END X509 CRL-----
