Certificate Revocation List (CRL):
        Version 2 (0x1)
        Signature Algorithm: sha256WithRSAEncryption
        Issuer: C=US, ST=Montana, L=Bozeman, OU=Engineering, CN=*localhost, emailAddress=facts@wolfssl.com
        Last Update: Jun 11 21:44:33 2026 GMT
        Next Update: Mar  7 21:44:33 2029 GMT
        CRL extensions:
            X509v3 CRL Number: 
                1
No Revoked Certificates.
    Signature Algorithm: sha256WithRSAEncryption
    Signature Value:
        43:6f:52:2a:e5:8d:74:55:f9:bd:14:30:30:6a:f1:4a:3a:5e:
        6b:8e:7f:f7:c1:17:bb:19:22:e1:3b:51:61:ad:10:a5:69:82:
        62:45:64:aa:6a:ca:47:e4:58:98:20:29:34:d9:87:d1:09:9d:
        3f:14:35:27:b4:5b:5d:ec:3e:ed:5b:5a:7b:aa:f4:16:e0:1f:
        22:45:e6:5f:15:8d:4a:3d:41:af:d6:2e:5a:77:97:b5:78:1f:
        11:e9:99:99:f0:57:bb:7d:e3:68:bf:77:ab:7b:d4:ba:0b:0f:
        53:78:8c:4c:42:e8:c3:e1:a0:1c:68:3d:20:8b:ab:18:08:12:
        9e:12:40:11:92:d8:19:20:d2:5a:ae:79:6f:43:bd:93:94:ce:
        a7:dd:55:aa:9f:31:b1:12:1f:ef:13:7b:2a:31:3d:89:cb:6f:
        ff:a9:b5:70:10:c6:a5:55:3f:9e:89:9c:81:d1:8b:ef:99:51:
        bc:b5:ac:54:8c:c5:bf:80:30:be:b2:f1:33:0c:25:f8:f1:b3:
        93:c7:62:e6:e7:c7:f8:02:32:28:56:5b:79:24:b9:0e:d8:93:
        46:63:b8:16:90:64:84:0c:9a:ac:c0:11:3a:dc:69:c4:35:07:
        29:7b:6a:c3:6c:10:37:a3:3e:f1:71:81:f1:68:dd:df:1c:38:
        2f:a7:eb:be
-----BEGIN X509 CRL-----
MIIB1zCBwAIBATANBgkqhkiG9w0BAQsFADB+MQswCQYDVQQGEwJVUzEQMA4GA1UE
CAwHTW9udGFuYTEQMA4GA1UEBwwHQm96ZW1hbjEUMBIGA1UECwwLRW5naW5lZXJp
bmcxEzARBgNVBAMMCipsb2NhbGhvc3QxIDAeBgkqhkiG9w0BCQEWEWZhY3RzQHdv
bGZzc2wuY29tFw0yNjA2MTEyMTQ0MzNaFw0yOTAzMDcyMTQ0MzNaoA4wDDAKBgNV
HRQEAwIBATANBgkqhkiG9w0BAQsFAAOCAQEAQ29SKuWNdFX5vRQwMGrxSjpea45/
98EXuxki4TtRYa0QpWmCYkVkqmrKR+RYmCApNNmH0QmdPxQ1J7RbXew+7Vtae6r0
FuAfIkXmXxWNSj1Br9YuWneXtXgfEemZmfBXu33jaL93q3vUugsPU3iMTELow+Gg
HGg9IIurGAgSnhJAEZLYGSDSWq55b0O9k5TOp91Vqp8xsRIf7xN7KjE9ictv/6m1
cBDGpVU/nomcgdGL75lRvLWsVIzFv4AwvrLxMwwl+PGzk8di5ufH+AIyKFZbeSS5
DtiTRmO4FpBkhAyarMAROtxpxDUHKXtqw2wQN6M+8XGB8Wjd3xw4L6frvg==
-----END X509 CRL-----
