Certificate Revocation List (CRL):
        Version 2 (0x1)
        Signature Algorithm: sha256WithRSAEncryption
        Issuer: C = US, ST = Montana, L = Bozeman, OU = Engineering, CN = www.nomatch.com, emailAddress = info@wolfssl.com
        Last Update: Dec 13 22:19:29 2023 GMT
        Next Update: Sep  8 22:19:29 2026 GMT
        CRL extensions:
            X509v3 CRL Number: 
                1
No Revoked Certificates.
    Signature Algorithm: sha256WithRSAEncryption
         30:f4:19:0d:3b:23:d8:e3:b9:55:f5:aa:91:6d:20:a3:71:7d:
         a2:c8:2e:92:18:17:fb:73:5c:52:f0:44:32:67:87:43:82:93:
         94:53:62:c3:32:c6:6e:4a:93:a6:99:44:f7:95:b0:24:98:95:
         8a:e9:62:6b:30:18:46:b4:00:1c:f1:75:e5:87:dc:5c:c3:b3:
         35:2b:3a:8a:2a:a6:99:73:88:e5:07:d8:cb:ec:d9:ba:06:69:
         1c:2f:38:37:44:e2:b4:d5:e1:f6:38:56:b3:45:ff:66:7a:da:
         00:0c:d4:4c:d3:2f:90:e8:4a:c2:0a:1f:4a:6b:1a:87:57:a9:
         31:f9:78:2b:1f:8c:9c:ed:ef:08:d1:15:49:8d:fa:8d:57:80:
         36:b4:42:1f:58:62:80:9f:2f:66:cc:b3:4c:64:18:9e:8e:9d:
         b7:cb:a3:7c:47:67:bf:ec:68:a7:10:f6:68:b0:a8:7a:d4:a5:
         eb:77:6a:0c:de:3a:16:6b:9c:87:6c:aa:5b:e1:e2:03:d9:ac:
         33:3a:51:56:de:b1:61:c2:01:70:2b:96:e1:b4:0f:08:a2:f4:
         49:79:51:eb:1c:56:a9:9e:a4:f7:f9:6a:69:2a:d7:d7:77:45:
         7a:97:12:bb:d6:6b:6e:07:aa:05:87:b5:6f:b7:b2:1f:e6:84:
         33:87:16:14
-----BEGIN X509 CRL-----
MIIB3DCBxQIBATANBgkqhkiG9w0BAQsFADCBgjELMAkGA1UEBhMCVVMxEDAOBgNV
BAgMB01vbnRhbmExEDAOBgNVBAcMB0JvemVtYW4xFDASBgNVBAsMC0VuZ2luZWVy
aW5nMRgwFgYDVQQDDA93d3cubm9tYXRjaC5jb20xHzAdBgkqhkiG9w0BCQEWEGlu
Zm9Ad29sZnNzbC5jb20XDTIzMTIxMzIyMTkyOVoXDTI2MDkwODIyMTkyOVqgDjAM
MAoGA1UdFAQDAgEBMA0GCSqGSIb3DQEBCwUAA4IBAQAw9BkNOyPY47lV9aqRbSCj
cX2iyC6SGBf7c1xS8EQyZ4dDgpOUU2LDMsZuSpOmmUT3lbAkmJWK6WJrMBhGtAAc
8XXlh9xcw7M1KzqKKqaZc4jlB9jL7Nm6BmkcLzg3ROK01eH2OFazRf9metoADNRM
0y+Q6ErCCh9KaxqHV6kx+XgrH4yc7e8I0RVJjfqNV4A2tEIfWGKAny9mzLNMZBie
jp23y6N8R2e/7GinEPZosKh61KXrd2oM3joWa5yHbKpb4eID2awzOlFW3rFhwgFw
K5bhtA8IovRJeVHrHFapnqT3+WppKtfXd0V6lxK71mtuB6oFh7Vvt7If5oQzhxYU
-----END X509 CRL-----
