Certificate Revocation List (CRL):
        Version 2 (0x1)
    Signature Algorithm: sha1WithRSAEncryption
        Issuer: /C=US/ST=Montana/L=Bozeman/OU=Engineering/CN=www.nomatch.com/emailAddress=info@wolfssl.com
        Last Update: Jun 12 21:08:33 2018 GMT
        Next Update: Mar  8 21:08:33 2021 GMT
        CRL extensions:
            X509v3 CRL Number: 
                1
No Revoked Certificates.
    Signature Algorithm: sha1WithRSAEncryption
         25:6a:7f:6a:71:9a:66:67:ed:88:29:d4:ec:37:a5:f2:03:0e:
         cd:18:c6:f0:a8:2f:3c:8c:cf:83:d2:0c:60:97:52:73:5f:a2:
         c3:76:c4:87:b4:0a:b3:7c:0d:37:64:72:30:d6:cc:58:0c:3e:
         b6:ec:d0:1d:a1:19:a2:b6:58:c9:63:28:d5:45:45:8c:2f:f7:
         09:05:7d:5e:09:07:c7:53:01:f3:40:70:5f:6a:c1:1f:2c:36:
         27:8e:a1:bb:a0:94:b2:a5:98:76:f8:be:e1:87:22:d1:21:13:
         64:02:2b:de:9d:65:5a:d7:b6:48:08:b3:03:ce:f4:ef:81:66:
         1a:90:ea:b1:f4:cf:57:e2:1c:71:d6:85:24:c2:89:c2:2b:3d:
         14:00:8a:4a:7c:84:52:d5:f0:92:82:7f:04:84:dd:64:b5:86:
         d2:a9:16:b1:0d:4c:57:a4:08:9b:82:4c:76:83:c5:77:3f:83:
         ee:1e:2a:ea:0d:1c:5a:ff:a6:d7:00:49:ec:55:9b:8b:9e:a3:
         ed:94:20:7a:0c:f0:6b:ca:9f:ec:d9:b5:2b:48:6c:a9:9b:fb:
         fd:dd:95:e3:68:2c:83:61:ce:64:02:ac:09:e1:2d:3c:93:81:
         e0:2c:87:35:14:7c:ae:fb:68:29:c2:35:55:75:fe:4f:9e:15:
         21:eb:bc:75
-----BEGIN X509 CRL-----
MIIB3DCBxQIBATANBgkqhkiG9w0BAQUFADCBgjELMAkGA1UEBhMCVVMxEDAOBgNV
BAgMB01vbnRhbmExEDAOBgNVBAcMB0JvemVtYW4xFDASBgNVBAsMC0VuZ2luZWVy
aW5nMRgwFgYDVQQDDA93d3cubm9tYXRjaC5jb20xHzAdBgkqhkiG9w0BCQEWEGlu
Zm9Ad29sZnNzbC5jb20XDTE4MDYxMjIxMDgzM1oXDTIxMDMwODIxMDgzM1qgDjAM
MAoGA1UdFAQDAgEBMA0GCSqGSIb3DQEBBQUAA4IBAQAlan9qcZpmZ+2IKdTsN6Xy
Aw7NGMbwqC88jM+D0gxgl1JzX6LDdsSHtAqzfA03ZHIw1sxYDD627NAdoRmitljJ
YyjVRUWML/cJBX1eCQfHUwHzQHBfasEfLDYnjqG7oJSypZh2+L7hhyLRIRNkAive
nWVa17ZICLMDzvTvgWYakOqx9M9X4hxx1oUkwonCKz0UAIpKfIRS1fCSgn8EhN1k
tYbSqRaxDUxXpAibgkx2g8V3P4PuHirqDRxa/6bXAEnsVZuLnqPtlCB6DPBryp/s
2bUrSGypm/v93ZXjaCyDYc5kAqwJ4S08k4HgLIc1FHyu+2gpwjVVdf5PnhUh67x1
-----END X509 CRL-----
