Certificate Revocation List (CRL):
        Version 2 (0x1)
        Signature Algorithm: sha256WithRSAEncryption
        Issuer: C=US, ST=Montana, L=Bozeman, OU=Engineering, CN=www.nomatch.com, emailAddress=info@wolfssl.com
        Last Update: Nov 13 20:41:28 2025 GMT
        Next Update: Aug  9 20:41:28 2028 GMT
        CRL extensions:
            X509v3 CRL Number: 
                1
No Revoked Certificates.
    Signature Algorithm: sha256WithRSAEncryption
    Signature Value:
        56:83:87:1f:7c:bc:93:2b:81:bf:73:ae:49:fe:75:20:4a:82:
        87:14:20:0d:b6:af:83:e8:dc:86:12:01:31:69:44:e2:61:3d:
        ac:7e:05:9e:ec:ac:f1:5a:2f:c1:85:e1:a9:b6:75:e3:45:40:
        4b:55:59:1c:c5:cc:ea:b7:a6:db:51:cc:41:5f:54:62:76:6c:
        ff:ac:90:85:cc:09:51:28:a2:6d:ed:a4:1e:ce:0b:20:9d:4b:
        df:c9:40:b8:7a:09:8f:91:f8:4f:8d:cb:f1:25:77:cd:b4:79:
        2b:d8:f5:ed:13:5c:bc:9c:5b:71:69:dd:28:a8:e6:00:7f:72:
        7a:e2:32:75:b2:14:22:f4:e2:65:f3:d6:30:5f:e2:12:85:13:
        ca:12:63:47:e2:7d:c1:8e:f3:60:bd:8c:c6:42:db:51:09:50:
        1d:89:ce:f5:2e:e2:8c:bd:22:6a:6b:ae:47:a4:7c:ef:e9:b6:
        4c:e9:3f:22:1f:8f:dd:07:75:9c:f9:05:54:cf:7f:33:96:ef:
        47:ad:9a:cc:3f:99:bc:d8:1a:0a:8e:f7:2d:a0:1d:50:94:a1:
        24:df:10:84:76:61:28:97:2a:c6:98:09:29:b5:4b:46:37:19:
        f6:cf:1f:5b:4f:57:b0:a9:70:2f:58:38:1c:d3:57:91:80:42:
        23:ec:cc:ce
-----BEGIN X509 CRL-----
MIIB3DCBxQIBATANBgkqhkiG9w0BAQsFADCBgjELMAkGA1UEBhMCVVMxEDAOBgNV
BAgMB01vbnRhbmExEDAOBgNVBAcMB0JvemVtYW4xFDASBgNVBAsMC0VuZ2luZWVy
aW5nMRgwFgYDVQQDDA93d3cubm9tYXRjaC5jb20xHzAdBgkqhkiG9w0BCQEWEGlu
Zm9Ad29sZnNzbC5jb20XDTI1MTExMzIwNDEyOFoXDTI4MDgwOTIwNDEyOFqgDjAM
MAoGA1UdFAQDAgEBMA0GCSqGSIb3DQEBCwUAA4IBAQBWg4cffLyTK4G/c65J/nUg
SoKHFCANtq+D6NyGEgExaUTiYT2sfgWe7KzxWi/BheGptnXjRUBLVVkcxczqt6bb
UcxBX1Ridmz/rJCFzAlRKKJt7aQezgsgnUvfyUC4egmPkfhPjcvxJXfNtHkr2PXt
E1y8nFtxad0oqOYAf3J64jJ1shQi9OJl89YwX+IShRPKEmNH4n3BjvNgvYzGQttR
CVAdic71LuKMvSJqa65HpHzv6bZM6T8iH4/dB3Wc+QVUz38zlu9HrZrMP5m82BoK
jvctoB1QlKEk3xCEdmEolyrGmAkptUtGNxn2zx9bT1ewqXAvWDgc01eRgEIj7MzO
-----END X509 CRL-----
