Certificate Revocation List (CRL):
        Version 2 (0x1)
        Signature Algorithm: sha256WithRSAEncryption
        Issuer: C = US, ST = Montana, L = Bozeman, OU = Engineering, CN = localhost, emailAddress = info@wolfssl.com
        Last Update: Dec 18 21:25:31 2024 GMT
        Next Update: Sep 14 21:25:31 2027 GMT
        CRL extensions:
            X509v3 CRL Number: 
                1
No Revoked Certificates.
    Signature Algorithm: sha256WithRSAEncryption
    Signature Value:
        2f:28:e7:b2:46:58:01:03:b8:47:87:4d:75:63:04:40:cd:c2:
        dd:23:17:82:81:03:88:b9:99:20:91:50:70:84:dd:38:b1:51:
        7e:fb:67:09:d1:73:54:e2:58:2a:1b:b4:35:3b:b9:32:70:d0:
        03:e2:ec:7c:90:d4:18:63:bf:35:c0:93:80:bf:fa:2b:57:88:
        e1:24:c2:59:87:9b:9f:c3:04:2f:ed:53:ae:22:c7:5d:b5:41:
        18:b9:96:37:e6:50:96:d2:c0:4c:ba:a6:ac:13:af:86:7d:58:
        01:e0:ad:23:bb:76:bd:36:ff:d7:3f:4e:4d:0e:20:e0:97:29:
        e7:a7:26:a1:3a:56:e8:d2:86:24:58:06:2d:0b:26:3e:f9:fc:
        0d:fc:75:e3:1b:72:28:ff:5d:07:cd:da:4b:46:be:62:f7:6a:
        bc:d3:4d:18:b2:53:59:04:ab:3f:de:30:63:b3:42:ae:0d:00:
        b9:f8:f6:bc:7a:b6:fd:4f:f4:72:89:3b:84:d0:7e:12:70:7b:
        17:26:0c:9d:ba:a5:aa:b3:0d:e0:4b:07:09:52:87:7a:28:b5:
        77:0b:68:57:37:ab:c4:36:6b:1c:08:8d:34:9d:b6:3a:39:20:
        be:3d:77:2a:85:2f:38:26:1a:01:60:34:9f:7e:bc:c4:7a:a6:
        d5:13:1d:9c
-----BEGIN X509 CRL-----
MIIB1TCBvgIBATANBgkqhkiG9w0BAQsFADB8MQswCQYDVQQGEwJVUzEQMA4GA1UE
CAwHTW9udGFuYTEQMA4GA1UEBwwHQm96ZW1hbjEUMBIGA1UECwwLRW5naW5lZXJp
bmcxEjAQBgNVBAMMCWxvY2FsaG9zdDEfMB0GCSqGSIb3DQEJARYQaW5mb0B3b2xm
c3NsLmNvbRcNMjQxMjE4MjEyNTMxWhcNMjcwOTE0MjEyNTMxWqAOMAwwCgYDVR0U
BAMCAQEwDQYJKoZIhvcNAQELBQADggEBAC8o57JGWAEDuEeHTXVjBEDNwt0jF4KB
A4i5mSCRUHCE3TixUX77ZwnRc1TiWCobtDU7uTJw0APi7HyQ1BhjvzXAk4C/+itX
iOEkwlmHm5/DBC/tU64ix121QRi5ljfmUJbSwEy6pqwTr4Z9WAHgrSO7dr02/9c/
Tk0OIOCXKeenJqE6VujShiRYBi0LJj75/A38deMbcij/XQfN2ktGvmL3arzTTRiy
U1kEqz/eMGOzQq4NALn49rx6tv1P9HKJO4TQfhJwexcmDJ26paqzDeBLBwlSh3oo
tXcLaFc3q8Q2axwIjTSdtjo5IL49dyqFLzgmGgFgNJ9+vMR6ptUTHZw=
-----END X509 CRL-----
