Certificate Revocation List (CRL):
        Version 2 (0x1)
        Signature Algorithm: sha256WithRSAEncryption
        Issuer: C = US, ST = Montana, L = Bozeman, OU = Engineering, CN = *localhost, emailAddress = info@wolfssl.com
        Last Update: Dec 13 22:19:29 2023 GMT
        Next Update: Sep  8 22:19:29 2026 GMT
        CRL extensions:
            X509v3 CRL Number: 
                1
No Revoked Certificates.
    Signature Algorithm: sha256WithRSAEncryption
         36:0f:c7:e0:9c:1d:71:f6:09:24:51:e8:49:5e:db:38:d5:6b:
         90:68:62:c7:5f:a0:eb:c5:c9:63:69:ca:56:30:d7:92:3d:0e:
         38:d3:34:97:35:df:16:4f:de:2f:ba:1f:38:00:9d:99:28:ea:
         11:bb:dd:ec:42:03:ec:03:d1:05:84:9e:35:d5:ad:d1:36:91:
         d0:49:4d:c5:e7:50:84:77:f6:8c:c5:47:1c:f4:9c:88:87:ac:
         af:81:70:3e:05:d1:33:5a:07:0c:ac:39:e2:ca:c7:3d:ea:80:
         41:4e:9c:37:dd:ac:76:b3:14:58:f9:88:20:2b:b2:f4:0f:01:
         18:73:31:88:c4:c6:66:59:d7:fc:61:44:98:c3:33:ee:74:10:
         8f:58:78:91:06:53:a3:eb:99:2e:f8:91:e7:32:e0:17:f5:ea:
         b6:56:27:68:a2:2b:30:05:a8:0c:02:e8:0f:84:20:37:0e:2c:
         a5:34:af:09:85:e3:85:d9:8e:78:e4:9e:75:be:27:3b:81:72:
         c5:87:2c:f9:1f:73:60:ce:2c:3b:d3:95:df:a8:16:6a:da:45:
         ea:ab:5c:7a:bb:8a:7a:b3:f3:34:ec:e4:7c:62:36:4f:dd:1f:
         89:86:05:ac:1e:42:11:b7:29:b3:97:f9:ad:cb:73:1f:02:8d:
         4c:80:ef:f8
-----BEGIN X509 CRL-----
MIIB1jCBvwIBATANBgkqhkiG9w0BAQsFADB9MQswCQYDVQQGEwJVUzEQMA4GA1UE
CAwHTW9udGFuYTEQMA4GA1UEBwwHQm96ZW1hbjEUMBIGA1UECwwLRW5naW5lZXJp
bmcxEzARBgNVBAMMCipsb2NhbGhvc3QxHzAdBgkqhkiG9w0BCQEWEGluZm9Ad29s
ZnNzbC5jb20XDTIzMTIxMzIyMTkyOVoXDTI2MDkwODIyMTkyOVqgDjAMMAoGA1Ud
FAQDAgEBMA0GCSqGSIb3DQEBCwUAA4IBAQA2D8fgnB1x9gkkUehJXts41WuQaGLH
X6DrxcljacpWMNeSPQ440zSXNd8WT94vuh84AJ2ZKOoRu93sQgPsA9EFhJ411a3R
NpHQSU3F51CEd/aMxUcc9JyIh6yvgXA+BdEzWgcMrDniysc96oBBTpw33ax2sxRY
+YggK7L0DwEYczGIxMZmWdf8YUSYwzPudBCPWHiRBlOj65ku+JHnMuAX9eq2Vido
oiswBagMAugPhCA3DiylNK8JheOF2Y545J51vic7gXLFhyz5H3Ngziw705XfqBZq
2kXqq1x6u4p6s/M07OR8YjZP3R+JhgWsHkIRtymzl/mty3MfAo1MgO/4
-----END X509 CRL-----
