Certificate Revocation List (CRL):
        Version 2 (0x1)
        Signature Algorithm: sha256WithRSAEncryption
        Issuer: C = US, ST = Montana, L = Bozeman, OU = Engineering, CN = localhost, emailAddress = info@wolfssl.com
        Last Update: Feb 15 12:50:25 2022 GMT
        Next Update: Nov 11 12:50:25 2024 GMT
        CRL extensions:
            X509v3 CRL Number: 
                1
No Revoked Certificates.
    Signature Algorithm: sha256WithRSAEncryption
         6e:32:fe:e7:c0:02:58:97:4a:6a:37:28:d5:85:05:97:8b:f8:
         e8:48:ce:73:f1:1d:40:a9:b1:83:43:ba:3b:ae:37:37:c4:2e:
         7f:45:77:74:d6:2c:58:a3:9e:ef:6f:94:d1:59:4a:81:4b:5c:
         73:d4:0e:37:28:96:f3:61:d6:36:e9:af:f3:f6:09:aa:96:dd:
         77:61:28:9f:93:f8:7a:b4:b3:b1:0b:f4:3e:d8:4f:72:eb:60:
         83:a1:02:0b:70:f2:7e:31:10:78:5d:f8:ed:9d:d5:58:d0:7d:
         02:ad:03:8b:ef:60:67:75:3a:1d:11:f7:18:9d:25:20:b9:81:
         b6:9f:af:3f:66:33:79:a5:1f:b0:7a:9f:54:ad:33:d0:66:28:
         84:5f:12:1a:d5:1f:3d:25:7f:80:2a:91:de:fb:f5:4c:b3:26:
         c1:df:37:19:4f:d2:75:e9:68:b2:07:4b:10:72:b5:ee:20:50:
         c5:e5:15:1a:52:0e:9c:70:71:8c:de:e2:20:f6:4a:fb:61:91:
         98:2e:c2:38:50:e2:8d:bf:7e:52:ce:a1:79:fd:81:e4:bc:1a:
         bc:9b:a9:45:0d:9c:5c:13:37:74:90:be:2a:01:13:85:71:d4:
         1b:ec:dd:fc:a6:44:90:c8:d8:7d:8a:5a:04:01:cf:46:03:7e:
         69:22:fa:9d
-----BEGIN X509 CRL-----
MIIB1TCBvgIBATANBgkqhkiG9w0BAQsFADB8MQswCQYDVQQGEwJVUzEQMA4GA1UE
CAwHTW9udGFuYTEQMA4GA1UEBwwHQm96ZW1hbjEUMBIGA1UECwwLRW5naW5lZXJp
bmcxEjAQBgNVBAMMCWxvY2FsaG9zdDEfMB0GCSqGSIb3DQEJARYQaW5mb0B3b2xm
c3NsLmNvbRcNMjIwMjE1MTI1MDI1WhcNMjQxMTExMTI1MDI1WqAOMAwwCgYDVR0U
BAMCAQEwDQYJKoZIhvcNAQELBQADggEBAG4y/ufAAliXSmo3KNWFBZeL+OhIznPx
HUCpsYNDujuuNzfELn9Fd3TWLFijnu9vlNFZSoFLXHPUDjcolvNh1jbpr/P2CaqW
3XdhKJ+T+Hq0s7EL9D7YT3LrYIOhAgtw8n4xEHhd+O2d1VjQfQKtA4vvYGd1Oh0R
9xidJSC5gbafrz9mM3mlH7B6n1StM9BmKIRfEhrVHz0lf4Aqkd779UyzJsHfNxlP
0nXpaLIHSxByte4gUMXlFRpSDpxwcYze4iD2SvthkZguwjhQ4o2/flLOoXn9geS8
GrybqUUNnFwTN3SQvioBE4Vx1Bvs3fymRJDI2H2KWgQBz0YDfmki+p0=
-----END X509 CRL-----
