Certificate Revocation List (CRL):
        Version 2 (0x1)
        Signature Algorithm: sha256WithRSAEncryption
        Issuer: C = US, ST = Montana, L = Bozeman, OU = Engineering, CN = *localhost, emailAddress = info@wolfssl.com
        Last Update: Dec 18 21:25:31 2024 GMT
        Next Update: Sep 14 21:25:31 2027 GMT
        CRL extensions:
            X509v3 CRL Number: 
                1
No Revoked Certificates.
    Signature Algorithm: sha256WithRSAEncryption
    Signature Value:
        9a:06:6f:af:9a:2b:7d:ff:7c:4f:e5:be:e5:a7:68:8b:43:d3:
        46:c7:7c:2c:c6:38:5e:a5:81:15:57:73:26:2d:ad:63:12:8b:
        66:54:c6:b9:18:7e:63:12:4e:9e:dc:d7:38:6b:dd:c1:b8:c2:
        58:a4:5d:ea:72:66:da:b4:95:9e:e8:b5:02:48:c3:b0:7a:84:
        ab:89:ff:4f:e2:6a:1d:d2:1e:7b:10:5f:30:55:a5:88:72:45:
        e4:c7:2e:43:6f:d5:22:48:11:c1:c0:d2:a5:01:bd:d7:81:3d:
        8f:48:d2:0d:29:88:0e:33:b5:bb:32:33:bd:c7:4b:9b:ee:5f:
        bd:f5:e0:69:9b:f8:fb:b1:03:7d:b7:17:66:5d:b8:41:c3:96:
        80:87:4d:d2:dc:cc:f8:9a:61:89:68:0f:e4:b0:96:c1:41:fd:
        ed:4d:36:17:9b:58:ea:ba:32:05:29:4c:cf:f3:41:38:89:6a:
        db:ad:73:10:d3:8e:70:d7:bc:a3:f0:f0:1d:94:86:03:2f:43:
        00:5c:a7:69:97:a2:47:75:f6:00:32:f3:46:a0:9d:14:73:52:
        db:aa:12:83:d1:ed:49:b6:85:36:ff:17:00:b2:0a:b1:f5:dd:
        2d:c3:b0:ba:2d:b0:da:65:d7:b2:df:19:dd:45:fe:9c:c0:7f:
        4b:27:9b:e1
-----BEGIN X509 CRL-----
MIIB1jCBvwIBATANBgkqhkiG9w0BAQsFADB9MQswCQYDVQQGEwJVUzEQMA4GA1UE
CAwHTW9udGFuYTEQMA4GA1UEBwwHQm96ZW1hbjEUMBIGA1UECwwLRW5naW5lZXJp
bmcxEzARBgNVBAMMCipsb2NhbGhvc3QxHzAdBgkqhkiG9w0BCQEWEGluZm9Ad29s
ZnNzbC5jb20XDTI0MTIxODIxMjUzMVoXDTI3MDkxNDIxMjUzMVqgDjAMMAoGA1Ud
FAQDAgEBMA0GCSqGSIb3DQEBCwUAA4IBAQCaBm+vmit9/3xP5b7lp2iLQ9NGx3ws
xjhepYEVV3MmLa1jEotmVMa5GH5jEk6e3Nc4a93BuMJYpF3qcmbatJWe6LUCSMOw
eoSrif9P4mod0h57EF8wVaWIckXkxy5Db9UiSBHBwNKlAb3XgT2PSNINKYgOM7W7
MjO9x0ub7l+99eBpm/j7sQN9txdmXbhBw5aAh03S3Mz4mmGJaA/ksJbBQf3tTTYX
m1jqujIFKUzP80E4iWrbrXMQ045w17yj8PAdlIYDL0MAXKdpl6JHdfYAMvNGoJ0U
c1LbqhKD0e1JtoU2/xcAsgqx9d0tw7C6LbDaZdey3xndRf6cwH9LJ5vh
-----END X509 CRL-----
