Certificate Revocation List (CRL):
        Version 2 (0x1)
        Signature Algorithm: sha256WithRSAEncryption
        Issuer: C=US, ST=Montana, L=Bozeman, OU=Engineering, CN=www.nomatch.com, emailAddress=info@wolfssl.com
        Last Update: Nov 13 20:41:29 2025 GMT
        Next Update: Aug  9 20:41:29 2028 GMT
        CRL extensions:
            X509v3 CRL Number: 
                1
No Revoked Certificates.
    Signature Algorithm: sha256WithRSAEncryption
    Signature Value:
        48:fd:d5:61:a6:d8:30:38:fe:84:99:62:04:ac:0c:5b:3a:37:
        19:be:64:63:b2:a0:b6:d7:bb:f0:12:69:77:ed:51:d6:a9:f9:
        68:5c:33:f1:ad:3c:d3:37:0e:b8:57:af:6f:3a:28:71:5c:b8:
        50:51:70:fe:f6:9f:f0:24:46:5f:e0:ee:c0:96:7b:9e:4f:5f:
        62:e3:4e:e2:7a:a8:2e:15:de:58:50:03:fd:92:22:4e:7d:b2:
        be:6c:f6:4b:a5:a9:5e:e5:d6:5d:80:7c:67:ba:c3:9e:ad:2e:
        c6:1b:fe:b9:ee:bc:04:64:69:d7:9a:64:52:33:81:28:df:36:
        cd:d5:da:ca:58:8c:86:c0:67:b0:52:42:8c:66:38:49:0a:d4:
        6d:61:1e:b5:5d:fa:18:db:8b:4b:f1:88:b6:70:d3:5b:e4:88:
        a0:11:5a:6f:3a:a1:85:e5:41:b7:64:7e:af:5c:92:c4:2f:93:
        60:6b:80:4d:91:c1:01:f7:86:a7:13:a7:54:df:63:28:29:64:
        16:de:75:c5:53:96:4f:18:87:81:4f:b6:13:44:3e:4b:a1:af:
        69:9a:bb:25:c3:32:ab:96:32:e6:c2:5c:e9:4f:7e:6d:86:d7:
        78:11:4d:d5:b7:1b:7c:3d:9a:8d:4d:50:72:ea:0f:fe:28:60:
        0e:b7:e0:bb
-----BEGIN X509 CRL-----
MIIB3DCBxQIBATANBgkqhkiG9w0BAQsFADCBgjELMAkGA1UEBhMCVVMxEDAOBgNV
BAgMB01vbnRhbmExEDAOBgNVBAcMB0JvemVtYW4xFDASBgNVBAsMC0VuZ2luZWVy
aW5nMRgwFgYDVQQDDA93d3cubm9tYXRjaC5jb20xHzAdBgkqhkiG9w0BCQEWEGlu
Zm9Ad29sZnNzbC5jb20XDTI1MTExMzIwNDEyOVoXDTI4MDgwOTIwNDEyOVqgDjAM
MAoGA1UdFAQDAgEBMA0GCSqGSIb3DQEBCwUAA4IBAQBI/dVhptgwOP6EmWIErAxb
OjcZvmRjsqC217vwEml37VHWqfloXDPxrTzTNw64V69vOihxXLhQUXD+9p/wJEZf
4O7AlnueT19i407ieqguFd5YUAP9kiJOfbK+bPZLpale5dZdgHxnusOerS7GG/65
7rwEZGnXmmRSM4Eo3zbN1drKWIyGwGewUkKMZjhJCtRtYR61XfoY24tL8Yi2cNNb
5IigEVpvOqGF5UG3ZH6vXJLEL5Nga4BNkcEB94anE6dU32MoKWQW3nXFU5ZPGIeB
T7YTRD5Loa9pmrslwzKrljLmwlzpT35thtd4EU3Vtxt8PZqNTVBy6g/+KGAOt+C7
-----END X509 CRL-----
