Certificate Revocation List (CRL):
        Version 2 (0x1)
        Signature Algorithm: sha256WithRSAEncryption
        Issuer: C = US, ST = Montana, L = Bozeman, OU = Engineering, CN = localhost, emailAddress = info@wolfssl.com
        Last Update: Sep 26 17:22:43 2023 GMT
        Next Update: Jun 22 17:22:43 2026 GMT
        CRL extensions:
            X509v3 CRL Number: 
                1
No Revoked Certificates.
    Signature Algorithm: sha256WithRSAEncryption
    Signature Value:
        2a:5e:b2:0c:71:b5:0d:7d:e4:41:a3:76:ad:79:59:99:32:28:
        a0:b8:7a:fa:4e:6d:44:2f:47:d7:eb:be:8f:38:54:4c:4a:ca:
        9a:d1:bc:ee:9c:52:d6:ad:ce:ea:15:34:b5:8c:a3:ce:4e:5f:
        56:2f:15:ec:61:47:ce:02:67:1a:ec:09:99:f1:48:09:dd:5d:
        4e:71:04:1f:7a:54:31:26:20:61:67:99:9d:17:30:ef:ec:a1:
        05:d9:fb:80:8b:37:a0:36:df:00:39:7c:b3:84:8c:d9:85:8e:
        21:2d:be:c5:5e:1d:1f:07:75:34:b5:85:03:2b:bf:8b:be:e9:
        e3:5d:28:f4:93:8f:c7:06:b2:56:18:f3:14:23:ad:28:77:21:
        60:2c:16:51:0f:ae:68:e1:7a:2d:e8:1c:3e:54:51:d4:2c:b7:
        ad:a5:6c:da:71:44:2e:e2:b5:9b:2c:a7:9e:0a:7a:46:f2:da:
        2a:a4:f7:ea:e7:6a:59:d8:9f:ff:eb:62:46:2e:34:e6:26:f6:
        ba:05:1c:3c:08:3b:96:4d:c3:0d:72:53:55:78:cc:78:55:4e:
        37:00:b2:05:7a:27:11:ce:b6:a2:e9:65:2d:b5:d5:e9:9e:ac:
        74:0e:63:32:42:91:44:67:bf:64:68:09:92:d9:2f:63:bf:35:
        52:70:bd:a9
-----BEGIN X509 CRL-----
MIIB1TCBvgIBATANBgkqhkiG9w0BAQsFADB8MQswCQYDVQQGEwJVUzEQMA4GA1UE
CAwHTW9udGFuYTEQMA4GA1UEBwwHQm96ZW1hbjEUMBIGA1UECwwLRW5naW5lZXJp
bmcxEjAQBgNVBAMMCWxvY2FsaG9zdDEfMB0GCSqGSIb3DQEJARYQaW5mb0B3b2xm
c3NsLmNvbRcNMjMwOTI2MTcyMjQzWhcNMjYwNjIyMTcyMjQzWqAOMAwwCgYDVR0U
BAMCAQEwDQYJKoZIhvcNAQELBQADggEBACpesgxxtQ195EGjdq15WZkyKKC4evpO
bUQvR9frvo84VExKyprRvO6cUtatzuoVNLWMo85OX1YvFexhR84CZxrsCZnxSAnd
XU5xBB96VDEmIGFnmZ0XMO/soQXZ+4CLN6A23wA5fLOEjNmFjiEtvsVeHR8HdTS1
hQMrv4u+6eNdKPSTj8cGslYY8xQjrSh3IWAsFlEPrmjhei3oHD5UUdQst62lbNpx
RC7itZssp54Kekby2iqk9+rnalnYn//rYkYuNOYm9roFHDwIO5ZNww1yU1V4zHhV
TjcAsgV6JxHOtqLpZS211emerHQOYzJCkURnv2RoCZLZL2O/NVJwvak=
-----END X509 CRL-----
