Certificate Revocation List (CRL):
        Version 2 (0x1)
        Signature Algorithm: sha256WithRSAEncryption
        Issuer: C = US, ST = Montana, L = Bozeman, OU = Engineering, CN = localhost, emailAddress = info@wolfssl.com
        Last Update: Dec 20 23:07:25 2021 GMT
        Next Update: Sep 15 23:07:25 2024 GMT
        CRL extensions:
            X509v3 CRL Number: 
                1
No Revoked Certificates.
    Signature Algorithm: sha256WithRSAEncryption
         93:03:a4:cc:d0:c4:8c:52:2e:08:a5:d3:fc:73:bb:2b:12:1a:
         b5:21:c7:e0:78:1e:1a:32:b2:3b:3c:da:b7:33:7e:37:2c:55:
         3e:ec:f0:97:e1:b5:a6:b4:1a:8d:c5:a3:a1:3f:5e:65:b0:45:
         43:24:8b:d2:1d:8b:12:7d:b3:c8:2d:2b:38:01:af:e8:e5:41:
         c1:21:be:cc:39:71:46:5e:b3:af:91:d7:ab:6e:1d:14:fc:1a:
         5e:66:06:94:25:03:62:b9:bd:24:a3:5d:1b:ad:b9:92:3a:6d:
         57:f4:ec:7d:d1:86:41:f6:74:a0:21:32:70:ff:aa:e2:7f:5c:
         f0:5a:b4:2b:37:71:0d:38:84:9e:e6:b8:6f:6d:7a:ba:9e:c3:
         fd:bc:4d:a0:38:5f:ac:88:67:69:a7:cc:7a:2b:7e:76:16:e8:
         18:95:af:ab:91:58:1c:94:97:a4:d0:7b:ed:4e:5f:f4:59:82:
         84:2d:6a:25:12:0b:76:75:00:7c:64:28:7c:59:13:3c:a9:14:
         db:83:49:e2:2d:34:c4:34:d6:fa:e1:9f:9d:e2:a1:0c:d5:fc:
         69:ab:8c:97:14:97:c7:66:37:90:09:68:d1:8b:30:86:ca:d1:
         89:ed:00:48:0c:61:80:08:1f:9e:ad:87:5c:84:cd:3b:8d:4a:
         df:3b:66:07
-----BEGIN X509 CRL-----
MIIB1TCBvgIBATANBgkqhkiG9w0BAQsFADB8MQswCQYDVQQGEwJVUzEQMA4GA1UE
CAwHTW9udGFuYTEQMA4GA1UEBwwHQm96ZW1hbjEUMBIGA1UECwwLRW5naW5lZXJp
bmcxEjAQBgNVBAMMCWxvY2FsaG9zdDEfMB0GCSqGSIb3DQEJARYQaW5mb0B3b2xm
c3NsLmNvbRcNMjExMjIwMjMwNzI1WhcNMjQwOTE1MjMwNzI1WqAOMAwwCgYDVR0U
BAMCAQEwDQYJKoZIhvcNAQELBQADggEBAJMDpMzQxIxSLgil0/xzuysSGrUhx+B4
Hhoysjs82rczfjcsVT7s8Jfhtaa0Go3Fo6E/XmWwRUMki9IdixJ9s8gtKzgBr+jl
QcEhvsw5cUZes6+R16tuHRT8Gl5mBpQlA2K5vSSjXRutuZI6bVf07H3RhkH2dKAh
MnD/quJ/XPBatCs3cQ04hJ7muG9terqew/28TaA4X6yIZ2mnzHorfnYW6BiVr6uR
WByUl6TQe+1OX/RZgoQtaiUSC3Z1AHxkKHxZEzypFNuDSeItNMQ01vrhn53ioQzV
/GmrjJcUl8dmN5AJaNGLMIbK0YntAEgMYYAIH56th1yEzTuNSt87Zgc=
-----END X509 CRL-----
