Certificate Revocation List (CRL):
        Version 2 (0x1)
        Signature Algorithm: sha256WithRSAEncryption
        Issuer: C=US, ST=Montana, L=Bozeman, OU=Engineering, CN=localhost, emailAddress=facts@wolfssl.com
        Last Update: Jun 11 21:44:33 2026 GMT
        Next Update: Mar  7 21:44:33 2029 GMT
        CRL extensions:
            X509v3 CRL Number: 
                1
No Revoked Certificates.
    Signature Algorithm: sha256WithRSAEncryption
    Signature Value:
        51:ae:40:c9:d2:aa:6f:7d:f6:54:e0:74:bd:b6:4a:4a:f2:a9:
        69:49:7d:ea:d1:ec:8b:eb:bf:d5:af:32:c0:db:87:81:63:3d:
        f9:cd:9f:9a:b2:16:3b:08:aa:2d:62:16:8a:88:43:f2:17:9b:
        e2:56:89:23:cc:3b:6c:af:e1:d0:62:7a:92:56:37:58:13:b2:
        f5:12:04:24:c2:7d:fe:2f:4b:76:4d:ca:cd:7c:46:eb:03:ef:
        a6:3b:b0:52:87:fc:54:ca:40:1d:d8:c0:9e:60:8d:3c:d1:da:
        44:ea:05:73:c3:50:1a:97:6a:b3:e9:38:37:d6:6e:b1:23:6e:
        28:39:c3:16:94:58:6e:e2:9b:b1:f6:e6:0d:e0:41:66:c4:4b:
        b9:52:71:e5:4f:a8:50:73:f4:16:9c:83:74:f0:2d:42:1a:2f:
        17:f4:95:b6:3d:e4:fd:c8:67:be:bd:fa:9a:61:aa:54:60:1b:
        73:4b:8c:61:f2:74:41:94:53:6a:71:88:10:1c:c0:48:92:a9:
        61:53:c0:61:49:78:8d:3f:5f:a2:16:c7:d6:8c:b9:d3:7f:d5:
        3d:f3:95:fb:84:49:54:c3:af:3b:cc:3b:1a:94:82:b4:59:f2:
        0b:12:f7:37:9b:74:13:64:4f:21:f3:77:a0:1e:1c:d1:61:b8:
        af:80:3e:2e
-----BEGIN X509 CRL-----
MIIB1jCBvwIBATANBgkqhkiG9w0BAQsFADB9MQswCQYDVQQGEwJVUzEQMA4GA1UE
CAwHTW9udGFuYTEQMA4GA1UEBwwHQm96ZW1hbjEUMBIGA1UECwwLRW5naW5lZXJp
bmcxEjAQBgNVBAMMCWxvY2FsaG9zdDEgMB4GCSqGSIb3DQEJARYRZmFjdHNAd29s
ZnNzbC5jb20XDTI2MDYxMTIxNDQzM1oXDTI5MDMwNzIxNDQzM1qgDjAMMAoGA1Ud
FAQDAgEBMA0GCSqGSIb3DQEBCwUAA4IBAQBRrkDJ0qpvffZU4HS9tkpK8qlpSX3q
0eyL67/VrzLA24eBYz35zZ+ashY7CKotYhaKiEPyF5viVokjzDtsr+HQYnqSVjdY
E7L1EgQkwn3+L0t2TcrNfEbrA++mO7BSh/xUykAd2MCeYI080dpE6gVzw1Aal2qz
6Tg31m6xI24oOcMWlFhu4pux9uYN4EFmxEu5UnHlT6hQc/QWnIN08C1CGi8X9JW2
PeT9yGe+vfqaYapUYBtzS4xh8nRBlFNqcYgQHMBIkqlhU8BhSXiNP1+iFsfWjLnT
f9U985X7hElUw687zDsalIK0WfILEvc3m3QTZE8h83egHhzRYbivgD4u
-----END X509 CRL-----
