Certificate Revocation List (CRL):
        Version 2 (0x1)
        Signature Algorithm: sha256WithRSAEncryption
        Issuer: C = US, ST = Montana, L = Bozeman, OU = Engineering, CN = www.nomatch.com, emailAddress = info@wolfssl.com
        Last Update: Dec 20 23:07:25 2021 GMT
        Next Update: Sep 15 23:07:25 2024 GMT
        CRL extensions:
            X509v3 CRL Number: 
                1
No Revoked Certificates.
    Signature Algorithm: sha256WithRSAEncryption
         1a:03:c0:19:f9:93:90:b3:b8:7e:f1:49:40:c0:3e:f7:5d:cb:
         a4:6e:33:12:db:b2:e9:94:e2:e3:56:bb:fa:b1:2a:7b:48:53:
         f4:92:84:0d:cc:71:b1:e9:64:b3:97:73:ef:8d:fe:71:17:3f:
         f1:cf:fc:c0:c2:1f:40:02:1c:0b:0a:3c:c2:2d:6c:5c:8a:6f:
         08:ce:5e:0a:c7:26:be:dd:ec:1b:42:46:8e:8c:0d:5c:0d:18:
         a9:47:23:a8:7d:b2:eb:54:0f:b9:44:ff:fb:15:ac:ff:e2:81:
         a6:66:18:3a:2d:d7:5e:58:fe:9e:ed:04:c0:af:c7:07:f9:80:
         1c:68:57:a6:2b:a6:be:4e:83:83:4d:97:f6:78:6c:59:09:c1:
         29:58:f0:dd:34:d3:4b:63:94:b5:0b:0f:8e:1d:29:c4:f0:91:
         fc:17:8a:01:98:fe:d8:76:c7:ee:42:a3:a3:b0:b1:8d:b6:55:
         a9:37:bf:ab:97:6b:a4:df:57:5e:5f:b4:9b:96:af:35:07:24:
         c1:6d:d9:96:53:54:31:c1:4a:58:5e:92:7f:e7:33:25:bd:03:
         bf:2c:f8:15:f8:42:52:af:89:40:f6:e4:3d:b3:82:37:d1:67:
         fd:a2:a9:a0:bc:57:82:25:46:08:1f:d7:fb:d5:17:40:c3:85:
         d0:d0:9f:cd
-----BEGIN X509 CRL-----
MIIB3DCBxQIBATANBgkqhkiG9w0BAQsFADCBgjELMAkGA1UEBhMCVVMxEDAOBgNV
BAgMB01vbnRhbmExEDAOBgNVBAcMB0JvemVtYW4xFDASBgNVBAsMC0VuZ2luZWVy
aW5nMRgwFgYDVQQDDA93d3cubm9tYXRjaC5jb20xHzAdBgkqhkiG9w0BCQEWEGlu
Zm9Ad29sZnNzbC5jb20XDTIxMTIyMDIzMDcyNVoXDTI0MDkxNTIzMDcyNVqgDjAM
MAoGA1UdFAQDAgEBMA0GCSqGSIb3DQEBCwUAA4IBAQAaA8AZ+ZOQs7h+8UlAwD73
XcukbjMS27LplOLjVrv6sSp7SFP0koQNzHGx6WSzl3Pvjf5xFz/xz/zAwh9AAhwL
CjzCLWxcim8Izl4Kxya+3ewbQkaOjA1cDRipRyOofbLrVA+5RP/7Faz/4oGmZhg6
LddeWP6e7QTAr8cH+YAcaFemK6a+ToODTZf2eGxZCcEpWPDdNNNLY5S1Cw+OHSnE
8JH8F4oBmP7YdsfuQqOjsLGNtlWpN7+rl2uk31deX7Sblq81ByTBbdmWU1QxwUpY
XpJ/5zMlvQO/LPgV+EJSr4lA9uQ9s4I30Wf9oqmgvFeCJUYIH9f71RdAw4XQ0J/N
-----END X509 CRL-----
