Certificate Revocation List (CRL):
        Version 2 (0x1)
        Signature Algorithm: sha256WithRSAEncryption
        Issuer: C=US, ST=Montana, L=Bozeman, OU=Engineering, CN=*localhost, emailAddress=info@wolfssl.com
        Last Update: Nov 13 20:41:29 2025 GMT
        Next Update: Aug  9 20:41:29 2028 GMT
        CRL extensions:
            X509v3 CRL Number: 
                1
No Revoked Certificates.
    Signature Algorithm: sha256WithRSAEncryption
    Signature Value:
        8c:36:4c:ec:52:c1:b5:4f:41:df:45:ed:bb:2f:22:29:d6:3b:
        41:81:89:98:59:7f:b0:a8:2d:fc:15:a8:08:f1:b4:e1:03:89:
        7e:2a:9f:1e:49:eb:b0:d7:9d:c6:e1:8a:07:7a:6d:be:48:d6:
        58:53:e2:da:66:42:b2:5f:01:54:1c:20:bf:9d:95:61:81:57:
        df:ff:94:ad:42:43:6d:81:0f:7a:8f:8c:35:3b:fb:fe:f6:aa:
        b8:7c:ae:3e:52:f4:5b:12:1f:61:b2:5e:e8:26:41:99:3a:bf:
        0e:d6:cd:59:e5:d6:a1:46:58:d6:f7:4e:59:68:9b:18:8a:16:
        19:44:9d:1b:7f:53:c9:0b:f1:13:38:56:7a:64:c0:28:94:07:
        70:aa:e8:94:8f:a7:05:01:e8:55:2c:b6:44:d9:53:7d:0e:14:
        bd:02:29:24:b2:6a:03:a6:19:5d:47:9d:91:ee:19:20:e2:b9:
        bc:f1:55:0b:d1:c6:6a:52:41:57:59:0e:52:b3:cf:d3:67:1f:
        5a:11:54:09:d4:8c:28:b1:75:67:f7:f0:c5:83:45:ea:5c:73:
        a0:d3:8b:1e:c3:65:22:e5:6f:07:c2:92:dd:24:07:ef:e6:0f:
        37:e9:0c:95:15:10:76:7f:5d:cb:a1:94:89:c5:ef:39:17:b1:
        fc:ee:b8:43
-----BEGIN X509 CRL-----
MIIB1jCBvwIBATANBgkqhkiG9w0BAQsFADB9MQswCQYDVQQGEwJVUzEQMA4GA1UE
CAwHTW9udGFuYTEQMA4GA1UEBwwHQm96ZW1hbjEUMBIGA1UECwwLRW5naW5lZXJp
bmcxEzARBgNVBAMMCipsb2NhbGhvc3QxHzAdBgkqhkiG9w0BCQEWEGluZm9Ad29s
ZnNzbC5jb20XDTI1MTExMzIwNDEyOVoXDTI4MDgwOTIwNDEyOVqgDjAMMAoGA1Ud
FAQDAgEBMA0GCSqGSIb3DQEBCwUAA4IBAQCMNkzsUsG1T0HfRe27LyIp1jtBgYmY
WX+wqC38FagI8bThA4l+Kp8eSeuw153G4YoHem2+SNZYU+LaZkKyXwFUHCC/nZVh
gVff/5StQkNtgQ96j4w1O/v+9qq4fK4+UvRbEh9hsl7oJkGZOr8O1s1Z5dahRljW
905ZaJsYihYZRJ0bf1PJC/ETOFZ6ZMAolAdwquiUj6cFAehVLLZE2VN9DhS9Aikk
smoDphldR52R7hkg4rm88VUL0cZqUkFXWQ5Ss8/TZx9aEVQJ1IwosXVn9/DFg0Xq
XHOg04sew2Ui5W8HwpLdJAfv5g836QyVFRB2f13LoZSJxe85F7H87rhD
-----END X509 CRL-----
