Certificate Revocation List (CRL):
        Version 2 (0x1)
        Signature Algorithm: sha256WithRSAEncryption
        Issuer: C = US, ST = Montana, L = Bozeman, OU = Engineering, CN = localhost, emailAddress = info@wolfssl.com
        Last Update: Dec 13 22:19:29 2023 GMT
        Next Update: Sep  8 22:19:29 2026 GMT
        CRL extensions:
            X509v3 CRL Number: 
                1
No Revoked Certificates.
    Signature Algorithm: sha256WithRSAEncryption
         b7:22:47:45:ee:bb:63:91:42:29:23:33:af:eb:d7:46:41:be:
         66:89:0e:62:ff:b7:c0:9a:09:46:95:98:33:36:63:ec:2a:10:
         01:2c:a9:9d:6c:1a:45:b9:95:e8:62:3d:10:ee:65:a0:6c:8d:
         aa:d0:41:6f:b1:d9:a9:59:dd:e9:40:c1:36:73:89:3a:59:02:
         42:c3:77:33:59:a0:52:18:4b:0c:64:bd:f6:10:cc:50:3f:ad:
         bb:95:02:13:73:5a:95:a0:15:08:ec:dc:0f:53:3a:29:de:1b:
         3e:b4:4a:8c:3a:14:0d:48:f6:88:05:b7:55:ff:c0:e9:aa:e2:
         49:26:8e:ba:b5:88:3a:c1:5a:48:68:ed:bb:b9:ae:1e:ad:18:
         44:60:08:15:4f:ef:8e:7f:db:63:60:aa:36:9a:7b:1a:92:34:
         43:65:b8:d2:6c:85:4d:62:75:c8:5b:45:60:c2:b2:72:c6:79:
         9d:19:24:2e:bf:8f:75:24:7c:60:83:bf:98:e0:dc:98:b4:18:
         ef:41:c7:10:46:89:2b:88:73:40:f4:f1:7b:17:5e:2b:fa:bd:
         28:9e:8e:b9:9a:d5:ba:a0:29:65:b8:df:27:b0:c5:51:b6:61:
         7b:69:0f:be:17:4b:14:48:73:60:14:ea:96:fd:9c:4c:62:bd:
         ea:cf:b0:b1
-----BEGIN X509 CRL-----
MIIB1TCBvgIBATANBgkqhkiG9w0BAQsFADB8MQswCQYDVQQGEwJVUzEQMA4GA1UE
CAwHTW9udGFuYTEQMA4GA1UEBwwHQm96ZW1hbjEUMBIGA1UECwwLRW5naW5lZXJp
bmcxEjAQBgNVBAMMCWxvY2FsaG9zdDEfMB0GCSqGSIb3DQEJARYQaW5mb0B3b2xm
c3NsLmNvbRcNMjMxMjEzMjIxOTI5WhcNMjYwOTA4MjIxOTI5WqAOMAwwCgYDVR0U
BAMCAQEwDQYJKoZIhvcNAQELBQADggEBALciR0Xuu2ORQikjM6/r10ZBvmaJDmL/
t8CaCUaVmDM2Y+wqEAEsqZ1sGkW5lehiPRDuZaBsjarQQW+x2alZ3elAwTZziTpZ
AkLDdzNZoFIYSwxkvfYQzFA/rbuVAhNzWpWgFQjs3A9TOineGz60Sow6FA1I9ogF
t1X/wOmq4kkmjrq1iDrBWkho7bu5rh6tGERgCBVP745/22NgqjaaexqSNENluNJs
hU1idchbRWDCsnLGeZ0ZJC6/j3UkfGCDv5jg3Ji0GO9BxxBGiSuIc0D08XsXXiv6
vSiejrma1bqgKWW43yewxVG2YXtpD74XSxRIc2AU6pb9nExiverPsLE=
-----END X509 CRL-----
