Certificate Revocation List (CRL):
        Version 2 (0x1)
        Signature Algorithm: sha256WithRSAEncryption
        Issuer: C = US, ST = Montana, L = Bozeman, OU = Engineering, CN = *localhost, emailAddress = info@wolfssl.com
        Last Update: Sep 26 17:22:43 2023 GMT
        Next Update: Jun 22 17:22:43 2026 GMT
        CRL extensions:
            X509v3 CRL Number: 
                1
No Revoked Certificates.
    Signature Algorithm: sha256WithRSAEncryption
    Signature Value:
        57:8a:11:3c:ba:3e:98:b5:fb:d1:57:d0:e9:7b:49:ce:44:fc:
        6c:a8:01:79:20:fd:5a:78:63:14:ce:e2:46:41:4d:b6:9f:76:
        bf:6c:73:c8:42:1f:b6:d3:a7:b4:d2:f1:a4:74:20:20:b5:05:
        05:1c:cc:20:80:0c:dd:45:1b:ea:97:03:ee:f3:a3:93:42:a1:
        98:39:dc:28:04:e3:19:a7:f7:47:c3:25:f6:e6:44:8a:f2:ee:
        26:6a:cb:15:f0:f3:c2:d1:1c:e6:c1:69:a0:17:51:8a:fc:16:
        35:37:85:9a:c6:0e:bb:75:c8:70:93:20:52:5a:da:4a:a8:72:
        b7:15:4a:f4:6a:6d:2b:75:48:5a:61:2f:84:3e:04:90:74:7b:
        e7:08:e5:6f:6f:6e:0a:cf:83:27:c8:1c:9d:4e:d9:f8:4c:5c:
        7c:db:8f:53:ef:0e:ab:1d:96:df:d3:06:8d:41:78:fa:09:fa:
        dc:76:56:17:86:0e:35:41:b1:fc:84:c4:64:44:b7:7b:46:56:
        fd:19:94:18:9c:bb:a0:14:9c:40:68:f3:8f:3a:fd:9b:50:51:
        0b:fa:b6:19:f0:cb:d0:77:ec:27:ff:b5:fd:c1:45:b2:37:e8:
        b3:54:ba:d7:93:bd:f2:c8:1e:77:0e:0d:4b:c0:be:23:4c:c8:
        50:68:02:e8
-----BEGIN X509 CRL-----
MIIB1jCBvwIBATANBgkqhkiG9w0BAQsFADB9MQswCQYDVQQGEwJVUzEQMA4GA1UE
CAwHTW9udGFuYTEQMA4GA1UEBwwHQm96ZW1hbjEUMBIGA1UECwwLRW5naW5lZXJp
bmcxEzARBgNVBAMMCipsb2NhbGhvc3QxHzAdBgkqhkiG9w0BCQEWEGluZm9Ad29s
ZnNzbC5jb20XDTIzMDkyNjE3MjI0M1oXDTI2MDYyMjE3MjI0M1qgDjAMMAoGA1Ud
FAQDAgEBMA0GCSqGSIb3DQEBCwUAA4IBAQBXihE8uj6YtfvRV9Dpe0nORPxsqAF5
IP1aeGMUzuJGQU22n3a/bHPIQh+206e00vGkdCAgtQUFHMwggAzdRRvqlwPu86OT
QqGYOdwoBOMZp/dHwyX25kSK8u4massV8PPC0RzmwWmgF1GK/BY1N4Waxg67dchw
kyBSWtpKqHK3FUr0am0rdUhaYS+EPgSQdHvnCOVvb24Kz4MnyBydTtn4TFx8249T
7w6rHZbf0waNQXj6CfrcdlYXhg41QbH8hMRkRLd7Rlb9GZQYnLugFJxAaPOPOv2b
UFEL+rYZ8MvQd+wn/7X9wUWyN+izVLrXk73yyB53Dg1LwL4jTMhQaALo
-----END X509 CRL-----
