Certificate Revocation List (CRL):
        Version 2 (0x1)
        Signature Algorithm: sha256WithRSAEncryption
        Issuer: C = US, ST = Montana, L = Bozeman, OU = Engineering, CN = www.nomatch.com, emailAddress = info@wolfssl.com
        Last Update: Feb 15 12:50:25 2022 GMT
        Next Update: Nov 11 12:50:25 2024 GMT
        CRL extensions:
            X509v3 CRL Number: 
                1
No Revoked Certificates.
    Signature Algorithm: sha256WithRSAEncryption
         b3:fc:a1:f8:5b:5b:d5:6f:63:13:94:0b:f4:eb:f5:9e:ea:6d:
         8c:1b:98:3f:fa:8f:c9:e4:2e:a2:37:c2:e1:61:f2:ac:3b:5c:
         f2:57:9e:9b:41:4e:cc:27:90:b5:cc:06:04:c0:be:72:2c:02:
         f7:3b:8d:a6:e5:70:06:41:5d:8b:4e:52:1f:e2:fe:f5:55:97:
         a6:a2:c3:15:a6:f9:78:76:0b:9b:ce:cd:82:03:c1:ed:8d:eb:
         f1:6d:41:59:55:9d:a9:b3:82:cb:0c:2e:05:15:ae:9d:cb:06:
         c5:1d:13:b4:24:56:09:ec:8a:ac:4f:29:12:cc:b5:6e:2e:e6:
         d1:ad:a1:58:36:ee:6a:3f:4a:be:d0:26:d2:71:1b:9a:79:f3:
         d1:ed:42:4f:1f:35:12:71:db:48:48:d6:d4:7c:ec:c9:05:60:
         fd:34:ff:3a:d0:0b:6a:5b:60:c6:86:3a:89:58:29:b9:d7:c1:
         64:ce:7a:66:fe:98:fe:d9:e5:54:8f:23:01:42:ef:1f:c0:df:
         21:13:85:83:6f:7f:ee:0c:71:61:ee:e7:e3:6f:bc:4c:a5:3d:
         f5:0b:5c:b6:e0:09:67:11:14:43:6d:10:c0:37:54:30:16:4b:
         62:b8:27:f9:b3:f0:08:4b:e7:6c:9e:35:87:7c:ed:a4:df:d0:
         ab:27:46:40
-----BEGIN X509 CRL-----
MIIB3DCBxQIBATANBgkqhkiG9w0BAQsFADCBgjELMAkGA1UEBhMCVVMxEDAOBgNV
BAgMB01vbnRhbmExEDAOBgNVBAcMB0JvemVtYW4xFDASBgNVBAsMC0VuZ2luZWVy
aW5nMRgwFgYDVQQDDA93d3cubm9tYXRjaC5jb20xHzAdBgkqhkiG9w0BCQEWEGlu
Zm9Ad29sZnNzbC5jb20XDTIyMDIxNTEyNTAyNVoXDTI0MTExMTEyNTAyNVqgDjAM
MAoGA1UdFAQDAgEBMA0GCSqGSIb3DQEBCwUAA4IBAQCz/KH4W1vVb2MTlAv06/We
6m2MG5g/+o/J5C6iN8LhYfKsO1zyV56bQU7MJ5C1zAYEwL5yLAL3O42m5XAGQV2L
TlIf4v71VZemosMVpvl4dgubzs2CA8HtjevxbUFZVZ2ps4LLDC4FFa6dywbFHRO0
JFYJ7IqsTykSzLVuLubRraFYNu5qP0q+0CbScRuaefPR7UJPHzUScdtISNbUfOzJ
BWD9NP860AtqW2DGhjqJWCm518Fkznpm/pj+2eVUjyMBQu8fwN8hE4WDb3/uDHFh
7ufjb7xMpT31C1y24AlnERRDbRDAN1QwFktiuCf5s/AIS+dsnjWHfO2k39CrJ0ZA
-----END X509 CRL-----
