Certificate Revocation List (CRL):
        Version 2 (0x1)
        Signature Algorithm: sha256WithRSAEncryption
        Issuer: C = US, ST = Montana, L = Bozeman, OU = Engineering, CN = *localhost, emailAddress = info@wolfssl.com
        Last Update: Feb 15 12:50:25 2022 GMT
        Next Update: Nov 11 12:50:25 2024 GMT
        CRL extensions:
            X509v3 CRL Number: 
                1
No Revoked Certificates.
    Signature Algorithm: sha256WithRSAEncryption
         28:64:0f:71:5d:5d:36:61:46:ba:d0:94:22:c9:e9:32:11:2b:
         52:cd:86:66:21:86:db:1e:a5:0c:0d:08:a7:5d:8f:2e:e9:9f:
         18:9d:ae:09:ab:e7:33:7a:79:b4:62:b3:f0:50:05:6b:07:97:
         98:cc:7e:8f:b2:4a:bc:a8:95:eb:c4:8e:5c:50:f2:e7:8d:91:
         78:7a:cc:1b:02:84:8e:dd:bc:54:ce:5f:3f:ee:bc:f8:57:b4:
         56:4d:02:9d:26:0e:aa:74:98:ea:df:9c:8a:d3:2d:64:0e:51:
         e5:cb:99:c3:1b:d3:a0:59:00:ce:e4:99:e3:25:f3:ba:45:f0:
         4a:32:88:fb:a4:21:59:7c:fb:bb:45:03:3f:3a:25:55:bd:31:
         22:18:1d:7d:35:a9:be:ee:5c:49:f8:6e:73:1f:35:da:c7:57:
         d7:6c:8f:b5:cd:2c:cc:3c:c6:2e:26:ec:87:07:53:a2:e7:5a:
         b1:6b:00:d5:23:70:e0:64:0a:e3:bc:46:43:98:a5:02:02:20:
         c7:8a:1c:40:ec:c8:06:16:43:21:4c:10:24:96:0d:f6:9a:4b:
         24:7c:c4:11:9b:f2:cb:db:9e:75:14:ea:15:00:b3:b8:89:96:
         3d:e6:a8:d3:34:f4:1f:9c:6a:0c:e2:8b:aa:8f:0d:74:24:8c:
         b3:99:8b:68
-----BEGIN X509 CRL-----
MIIB1jCBvwIBATANBgkqhkiG9w0BAQsFADB9MQswCQYDVQQGEwJVUzEQMA4GA1UE
CAwHTW9udGFuYTEQMA4GA1UEBwwHQm96ZW1hbjEUMBIGA1UECwwLRW5naW5lZXJp
bmcxEzARBgNVBAMMCipsb2NhbGhvc3QxHzAdBgkqhkiG9w0BCQEWEGluZm9Ad29s
ZnNzbC5jb20XDTIyMDIxNTEyNTAyNVoXDTI0MTExMTEyNTAyNVqgDjAMMAoGA1Ud
FAQDAgEBMA0GCSqGSIb3DQEBCwUAA4IBAQAoZA9xXV02YUa60JQiyekyEStSzYZm
IYbbHqUMDQinXY8u6Z8Yna4Jq+czenm0YrPwUAVrB5eYzH6Pskq8qJXrxI5cUPLn
jZF4eswbAoSO3bxUzl8/7rz4V7RWTQKdJg6qdJjq35yK0y1kDlHly5nDG9OgWQDO
5JnjJfO6RfBKMoj7pCFZfPu7RQM/OiVVvTEiGB19Nam+7lxJ+G5zHzXax1fXbI+1
zSzMPMYuJuyHB1Oi51qxawDVI3DgZArjvEZDmKUCAiDHihxA7MgGFkMhTBAklg32
mkskfMQRm/LL2551FOoVALO4iZY95qjTNPQfnGoM4ouqjw10JIyzmYto
-----END X509 CRL-----
