Certificate Revocation List (CRL):
        Version 2 (0x1)
    Signature Algorithm: sha1WithRSAEncryption
        Issuer: /C=US/ST=Montana/L=Bozeman/OU=Engineering/CN=*localhost/emailAddress=info@wolfssl.com
        Last Update: Jun 12 21:08:33 2018 GMT
        Next Update: Mar  8 21:08:33 2021 GMT
        CRL extensions:
            X509v3 CRL Number: 
                1
No Revoked Certificates.
    Signature Algorithm: sha1WithRSAEncryption
         7b:61:c6:5b:68:f8:1d:4b:65:f5:67:ee:26:cc:1f:76:fc:70:
         80:55:54:01:66:d9:ba:b0:f5:bc:3e:52:ea:4e:d0:a5:95:eb:
         36:4b:9b:fa:8d:c3:62:3b:9b:e5:5a:8c:4a:50:f4:dc:33:bb:
         8d:d1:41:7f:1b:a7:7e:9a:c5:48:b6:42:85:55:8c:30:ce:16:
         83:e4:f8:20:6d:1d:b4:c6:64:cf:d9:47:19:fa:ee:87:6e:9f:
         61:33:a6:3b:81:24:93:74:e4:33:36:ea:83:42:d5:a0:19:9b:
         91:3c:c4:35:3b:90:37:62:25:fe:a5:2f:6d:2e:ed:02:09:9a:
         8c:9b:c3:2a:eb:90:33:eb:95:60:ff:39:26:ba:63:03:75:a8:
         7e:5b:59:dd:a3:9b:a0:16:ce:aa:96:96:45:9e:53:50:36:bd:
         8d:ef:1e:a3:26:96:94:9f:64:d2:ca:b4:28:21:87:2b:07:1a:
         c9:00:28:80:b4:c5:10:f7:28:9b:ff:01:a3:6b:a8:f1:3d:53:
         25:8c:ea:a5:41:43:ec:b5:63:29:51:d8:5a:0b:18:97:59:c2:
         f8:0b:6c:ee:99:0a:2d:79:d4:00:8e:ae:36:a5:2e:f6:4f:07:
         0e:85:4c:8d:4b:4b:b2:9f:33:09:0f:ed:59:c2:58:0b:e2:da:
         cb:cc:44:f3
-----BEGIN X509 CRL-----
MIIB1jCBvwIBATANBgkqhkiG9w0BAQUFADB9MQswCQYDVQQGEwJVUzEQMA4GA1UE
CAwHTW9udGFuYTEQMA4GA1UEBwwHQm96ZW1hbjEUMBIGA1UECwwLRW5naW5lZXJp
bmcxEzARBgNVBAMMCipsb2NhbGhvc3QxHzAdBgkqhkiG9w0BCQEWEGluZm9Ad29s
ZnNzbC5jb20XDTE4MDYxMjIxMDgzM1oXDTIxMDMwODIxMDgzM1qgDjAMMAoGA1Ud
FAQDAgEBMA0GCSqGSIb3DQEBBQUAA4IBAQB7YcZbaPgdS2X1Z+4mzB92/HCAVVQB
Ztm6sPW8PlLqTtClles2S5v6jcNiO5vlWoxKUPTcM7uN0UF/G6d+msVItkKFVYww
zhaD5PggbR20xmTP2UcZ+u6Hbp9hM6Y7gSSTdOQzNuqDQtWgGZuRPMQ1O5A3YiX+
pS9tLu0CCZqMm8Mq65Az65Vg/zkmumMDdah+W1ndo5ugFs6qlpZFnlNQNr2N7x6j
JpaUn2TSyrQoIYcrBxrJACiAtMUQ9yib/wGja6jxPVMljOqlQUPstWMpUdhaCxiX
WcL4C2zumQotedQAjq42pS72TwcOhUyNS0uynzMJD+1ZwlgL4trLzETz
-----END X509 CRL-----
