Certificate Revocation List (CRL):
        Version 2 (0x1)
        Signature Algorithm: sha256WithRSAEncryption
        Issuer: C = US, ST = Montana, L = Bozeman, OU = Engineering, CN = localhost, emailAddress = info@wolfssl.com
        Last Update: Jun 15 22:02:33 2021 GMT
        Next Update: Mar 11 22:02:33 2024 GMT
        CRL extensions:
            X509v3 CRL Number: 
                1
No Revoked Certificates.
    Signature Algorithm: sha256WithRSAEncryption
         00:64:45:a0:7a:db:6a:39:fb:5b:ac:38:18:9c:dd:62:a9:8d:
         8f:76:64:1f:42:07:81:81:57:e3:58:14:cd:5c:49:53:cb:30:
         fc:4e:28:0d:29:8e:12:96:f7:d3:59:87:27:cf:b9:70:95:79:
         dc:2a:08:ce:0c:e8:96:fc:95:b3:d0:89:18:8d:7a:80:45:dc:
         66:32:3b:e7:65:93:ed:87:59:f5:4b:4d:c9:88:f2:54:e3:b0:
         d5:3d:29:1f:ff:01:7f:13:88:5b:1a:0c:bd:84:c0:ab:ea:7a:
         cb:ea:bb:80:35:fa:e5:5d:72:8c:2b:5a:48:2d:b6:c7:90:fa:
         32:71:e4:f5:ec:59:a0:b5:38:7e:0a:68:d7:f3:ab:c8:a1:33:
         b6:1f:54:11:d1:a4:87:d7:a6:99:2f:c1:08:0a:a6:e8:91:12:
         a9:e7:fe:46:84:a2:a8:6a:40:c8:b5:6c:28:f5:ad:80:34:98:
         69:ae:a5:16:ca:e9:85:07:21:39:11:be:82:f0:9d:dc:6c:af:
         24:8a:05:e9:26:14:c2:d5:f0:12:ba:73:dc:73:b9:31:24:5f:
         a1:d5:cc:a5:f2:f3:85:33:b2:2b:50:8f:33:c9:85:b1:b9:20:
         37:a8:92:55:66:45:06:da:3c:7b:85:c0:70:6d:fd:ae:e6:17:
         5b:78:40:ae
-----BEGIN X509 CRL-----
MIIB1TCBvgIBATANBgkqhkiG9w0BAQsFADB8MQswCQYDVQQGEwJVUzEQMA4GA1UE
CAwHTW9udGFuYTEQMA4GA1UEBwwHQm96ZW1hbjEUMBIGA1UECwwLRW5naW5lZXJp
bmcxEjAQBgNVBAMMCWxvY2FsaG9zdDEfMB0GCSqGSIb3DQEJARYQaW5mb0B3b2xm
c3NsLmNvbRcNMjEwNjE1MjIwMjMzWhcNMjQwMzExMjIwMjMzWqAOMAwwCgYDVR0U
BAMCAQEwDQYJKoZIhvcNAQELBQADggEBAABkRaB622o5+1usOBic3WKpjY92ZB9C
B4GBV+NYFM1cSVPLMPxOKA0pjhKW99NZhyfPuXCVedwqCM4M6Jb8lbPQiRiNeoBF
3GYyO+dlk+2HWfVLTcmI8lTjsNU9KR//AX8TiFsaDL2EwKvqesvqu4A1+uVdcowr
WkgttseQ+jJx5PXsWaC1OH4KaNfzq8ihM7YfVBHRpIfXppkvwQgKpuiREqnn/kaE
oqhqQMi1bCj1rYA0mGmupRbK6YUHITkRvoLwndxsrySKBekmFMLV8BK6c9xzuTEk
X6HVzKXy84UzsitQjzPJhbG5IDeoklVmRQbaPHuFwHBt/a7mF1t4QK4=
-----END X509 CRL-----
