Certificate Revocation List (CRL):
        Version 2 (0x1)
        Signature Algorithm: sha256WithRSAEncryption
        Issuer: C=US, ST=Montana, L=Bozeman, OU=Engineering, CN=www.nomatch.com, emailAddress=facts@wolfssl.com
        Last Update: Jun 11 21:44:33 2026 GMT
        Next Update: Mar  7 21:44:33 2029 GMT
        CRL extensions:
            X509v3 CRL Number: 
                1
No Revoked Certificates.
    Signature Algorithm: sha256WithRSAEncryption
    Signature Value:
        4a:02:b9:ed:a6:66:e0:e3:fc:af:72:1e:57:04:9c:7f:df:dc:
        5f:46:09:28:2f:33:90:ec:d2:09:5f:3e:44:b3:01:80:22:6f:
        05:4d:46:7f:c9:94:7e:b7:11:b2:1f:b8:d3:9d:f4:7f:3c:e8:
        3a:8f:0b:fc:54:e7:76:4f:ec:17:94:8e:44:df:8c:85:26:2b:
        57:3c:3e:b5:18:04:d5:a2:5c:eb:69:98:60:e9:b8:25:e9:95:
        88:17:57:13:0a:68:01:66:93:8d:a8:a9:b1:a0:a5:d9:4f:38:
        26:55:17:d3:1f:dc:84:60:d5:00:9b:0d:0b:54:8f:ae:2e:19:
        f5:e3:ae:6e:22:d8:76:e9:77:21:6d:ae:ef:85:dd:c1:05:a7:
        f5:99:22:f1:a9:13:49:5d:12:47:94:9c:bd:ba:a6:df:d9:9e:
        b4:d5:2b:be:06:4d:22:b4:b8:69:c8:72:3a:77:04:8d:57:d8:
        c1:ae:a6:e5:ea:8e:c4:50:9a:3a:dc:18:e6:70:99:cc:01:a0:
        31:4e:59:45:72:2f:9c:cb:3e:ab:b2:d2:c9:81:e5:ba:b7:e6:
        07:c1:bc:13:08:d1:20:4b:67:0d:3e:b9:39:50:42:11:6b:12:
        08:cc:c9:12:3d:5d:4c:cf:33:a0:75:c8:ea:37:a8:a2:23:6e:
        11:d1:53:bc
-----BEGIN X509 CRL-----
MIIB3TCBxgIBATANBgkqhkiG9w0BAQsFADCBgzELMAkGA1UEBhMCVVMxEDAOBgNV
BAgMB01vbnRhbmExEDAOBgNVBAcMB0JvemVtYW4xFDASBgNVBAsMC0VuZ2luZWVy
aW5nMRgwFgYDVQQDDA93d3cubm9tYXRjaC5jb20xIDAeBgkqhkiG9w0BCQEWEWZh
Y3RzQHdvbGZzc2wuY29tFw0yNjA2MTEyMTQ0MzNaFw0yOTAzMDcyMTQ0MzNaoA4w
DDAKBgNVHRQEAwIBATANBgkqhkiG9w0BAQsFAAOCAQEASgK57aZm4OP8r3IeVwSc
f9/cX0YJKC8zkOzSCV8+RLMBgCJvBU1Gf8mUfrcRsh+40530fzzoOo8L/FTndk/s
F5SORN+MhSYrVzw+tRgE1aJc62mYYOm4JemViBdXEwpoAWaTjaipsaCl2U84JlUX
0x/chGDVAJsNC1SPri4Z9eOubiLYdul3IW2u74XdwQWn9Zki8akTSV0SR5Scvbqm
39metNUrvgZNIrS4achyOncEjVfYwa6m5eqOxFCaOtwY5nCZzAGgMU5ZRXIvnMs+
q7LSyYHlurfmB8G8EwjRIEtnDT65OVBCEWsSCMzJEj1dTM8zoHXI6jeooiNuEdFT
vA==
-----END X509 CRL-----
