Certificate Revocation List (CRL):
        Version 2 (0x1)
        Signature Algorithm: sha256WithRSAEncryption
        Issuer: C=US, ST=Montana, L=Bozeman, OU=Engineering, CN=localhost, emailAddress=info@wolfssl.com
        Last Update: Nov 13 20:41:27 2025 GMT
        Next Update: Aug  9 20:41:27 2028 GMT
        CRL extensions:
            X509v3 CRL Number: 
                1
No Revoked Certificates.
    Signature Algorithm: sha256WithRSAEncryption
    Signature Value:
        a5:26:31:1b:cd:45:5f:05:55:70:e8:80:75:ca:65:16:79:aa:
        8e:1b:f5:2a:50:6b:1c:fc:f3:43:f9:c3:51:20:fa:48:cb:8c:
        ea:56:ae:44:e3:06:09:28:46:58:d0:a8:48:e4:a7:c7:46:48:
        26:97:b1:d3:10:ad:ce:e4:74:10:9c:0a:dc:d1:ef:e2:ac:27:
        3a:c0:5c:3b:20:1b:49:90:1b:ad:d7:bd:cf:59:91:5b:82:b3:
        a2:80:6d:50:fa:90:e6:c3:2f:a4:f3:4d:dd:20:42:de:67:4b:
        10:1c:2f:ee:92:c2:b0:a3:b2:40:bc:50:34:e2:16:d9:6d:af:
        75:3a:cd:13:80:1d:33:41:49:51:d6:b2:67:e4:1b:10:dd:71:
        d8:f9:f8:fc:e0:8f:3e:6e:aa:67:2c:ba:67:2d:f6:55:83:06:
        fa:96:95:10:86:dc:21:f8:13:bd:29:0f:d9:20:5e:4b:8c:e9:
        be:0f:71:14:98:3a:ee:d6:5d:a7:b6:30:34:46:74:21:57:03:
        aa:bf:e8:4e:e3:14:d7:a2:fe:0e:0f:88:5d:5c:3b:81:26:c9:
        39:47:70:59:6e:84:25:95:81:44:5e:38:89:2d:6f:f2:fc:cd:
        c2:ec:4c:0b:96:f3:ef:5d:c9:01:67:0b:6e:18:4a:40:aa:63:
        1b:7a:20:92
-----BEGIN X509 CRL-----
MIIB1TCBvgIBATANBgkqhkiG9w0BAQsFADB8MQswCQYDVQQGEwJVUzEQMA4GA1UE
CAwHTW9udGFuYTEQMA4GA1UEBwwHQm96ZW1hbjEUMBIGA1UECwwLRW5naW5lZXJp
bmcxEjAQBgNVBAMMCWxvY2FsaG9zdDEfMB0GCSqGSIb3DQEJARYQaW5mb0B3b2xm
c3NsLmNvbRcNMjUxMTEzMjA0MTI3WhcNMjgwODA5MjA0MTI3WqAOMAwwCgYDVR0U
BAMCAQEwDQYJKoZIhvcNAQELBQADggEBAKUmMRvNRV8FVXDogHXKZRZ5qo4b9SpQ
axz880P5w1Eg+kjLjOpWrkTjBgkoRljQqEjkp8dGSCaXsdMQrc7kdBCcCtzR7+Ks
JzrAXDsgG0mQG63Xvc9ZkVuCs6KAbVD6kObDL6TzTd0gQt5nSxAcL+6SwrCjskC8
UDTiFtltr3U6zROAHTNBSVHWsmfkGxDdcdj5+Pzgjz5uqmcsumct9lWDBvqWlRCG
3CH4E70pD9kgXkuM6b4PcRSYOu7WXae2MDRGdCFXA6q/6E7jFNei/g4PiF1cO4Em
yTlHcFluhCWVgUReOIktb/L8zcLsTAuW8+9dyQFnC24YSkCqYxt6IJI=
-----END X509 CRL-----
