Certificate:
    Data:
        Version: 3 (0x2)
        Serial Number:
            3b:1d:6e:96:2e:32:85:de:99:5a:63:dd:49:1c:eb:cc
        Signature Algorithm: sha256WithRSAEncryption
        Issuer: C = US, ST = Wahington, O = Seattle, OU = Development, CN = www.wolfssl.com
        Validity
            Not Before: Oct 10 03:44:23 2024 GMT
            Not After : Oct  8 03:44:23 2034 GMT
        Subject: C = US, ST = Wahington, O = Seattle, OU = Development, CN = www.wolfssl.com
        Subject Public Key Info:
            Public Key Algorithm: rsaEncryption
                Public-Key: (2048 bit)
                Modulus:
                    00:bc:40:43:0e:f1:8e:1e:0b:3b:36:f6:7e:aa:56:
                    77:d2:a7:db:55:4b:14:10:52:d8:24:01:58:26:20:
                    95:fe:e6:0d:cc:65:e7:fd:bd:1d:99:39:27:97:55:
                    78:9b:3a:5b:aa:d9:20:63:46:5c:eb:a2:b2:50:01:
                    76:3c:af:4e:e5:d7:e3:cd:16:97:f8:51:0a:fb:d3:
                    26:88:d7:13:bc:54:09:42:ff:39:85:aa:61:39:cc:
                    8f:0e:8e:a6:c7:e0:29:3c:af:ac:9a:33:e6:4f:34:
                    cd:b4:54:29:6f:92:82:00:ce:51:a7:55:ee:af:ce:
                    21:e9:36:e1:a7:0d:75:df:32:d6:0e:15:e3:66:78:
                    21:41:7b:ce:d5:9c:e8:c5:09:94:7e:84:7b:59:2a:
                    64:6b:91:4b:4b:f7:0d:f4:50:92:8f:f5:03:0d:73:
                    20:4c:4e:7b:a0:8d:ca:5f:94:cf:36:1c:e6:e1:bb:
                    14:41:90:16:68:02:41:53:92:c6:c4:6c:d3:ad:56:
                    05:22:4a:ae:9a:2a:de:fc:ea:d8:99:a2:5a:65:2f:
                    fe:43:ae:2b:e9:94:70:ae:35:dc:8f:13:72:61:bf:
                    ba:fc:48:b7:a1:ed:5c:ac:5c:9c:4b:c5:4d:49:da:
                    86:65:77:34:bb:ba:ae:6e:4c:f9:7d:f6:c2:82:90:
                    9c:e1
                Exponent: 65537 (0x10001)
        X509v3 extensions:
            X509v3 Key Usage: critical
                Digital Signature, Certificate Sign, CRL Sign
            X509v3 Basic Constraints: critical
                CA:TRUE
            X509v3 Subject Key Identifier: 
                49:CB:00:BF:AC:AD:4B:18:2C:DB:69:21:1E:60:EF:00:4E:FC:69:52
    Signature Algorithm: sha256WithRSAEncryption
    Signature Value:
        24:1c:cf:b6:3e:20:6e:99:e8:36:b3:7e:2d:67:0d:cb:b5:1c:
        69:ff:5a:bb:0b:2f:52:fd:d6:3e:73:5c:a2:47:8e:8d:1d:fc:
        96:e7:e0:ca:e6:b6:3d:af:fa:f1:77:77:e6:2e:67:e6:44:d7:
        84:36:ce:dc:cb:3e:3d:bf:bc:8b:48:53:30:fa:bf:43:81:5b:
        e0:a3:a7:db:44:c2:29:cd:4c:8a:68:e8:b9:3e:5d:eb:e4:06:
        17:6d:de:cf:76:e9:5a:6a:16:27:f8:6f:96:43:8a:4f:65:be:
        3a:f2:7e:fd:ad:55:93:ad:ac:00:b4:b5:f3:85:b0:d7:83:6d:
        ab:d0:8f:1a:23:36:e1:1f:c4:9d:54:e8:ee:20:cd:b9:da:56:
        a7:92:5a:a5:bd:36:c5:a2:ea:ac:06:24:98:e5:32:0a:e0:00:
        64:63:9c:7d:01:18:66:5a:7a:b1:d5:b4:24:9b:5e:8a:6b:a0:
        25:eb:39:52:cd:12:61:d0:62:6c:19:e7:f5:ae:32:a3:aa:d5:
        2f:05:fe:6f:cb:47:20:a0:32:1d:cb:88:96:59:ed:8e:69:dd:
        cf:f0:6f:83:85:ff:0a:59:ef:80:94:16:99:a6:35:ee:a7:b8:
        d4:e9:3c:4f:56:5b:77:0e:b5:bd:61:21:b9:93:ad:be:2c:55:
        9b:bf:01:19
-----BEGIN CERTIFICATE-----
MIIDkjCCAnqgAwIBAgIQOx1uli4yhd6ZWmPdSRzrzDANBgkqhkiG9w0BAQsFADBj
MQswCQYDVQQGEwJVUzESMBAGA1UECAwJV2FoaW5ndG9uMRAwDgYDVQQKDAdTZWF0
dGxlMRQwEgYDVQQLDAtEZXZlbG9wbWVudDEYMBYGA1UEAwwPd3d3LndvbGZzc2wu
Y29tMB4XDTI0MTAxMDAzNDQyM1oXDTM0MTAwODAzNDQyM1owYzELMAkGA1UEBhMC
VVMxEjAQBgNVBAgMCVdhaGluZ3RvbjEQMA4GA1UECgwHU2VhdHRsZTEUMBIGA1UE
CwwLRGV2ZWxvcG1lbnQxGDAWBgNVBAMMD3d3dy53b2xmc3NsLmNvbTCCASIwDQYJ
KoZIhvcNAQEBBQADggEPADCCAQoCggEBALxAQw7xjh4LOzb2fqpWd9Kn21VLFBBS
2CQBWCYglf7mDcxl5/29HZk5J5dVeJs6W6rZIGNGXOuislABdjyvTuXX480Wl/hR
CvvTJojXE7xUCUL/OYWqYTnMjw6OpsfgKTyvrJoz5k80zbRUKW+SggDOUadV7q/O
Iek24acNdd8y1g4V42Z4IUF7ztWc6MUJlH6Ee1kqZGuRS0v3DfRQko/1Aw1zIExO
e6CNyl+UzzYc5uG7FEGQFmgCQVOSxsRs061WBSJKrpoq3vzq2JmiWmUv/kOuK+mU
cK413I8TcmG/uvxIt6HtXKxcnEvFTUnahmV3NLu6rm5M+X32woKQnOECAwEAAaNC
MEAwDgYDVR0PAQH/BAQDAgGGMA8GA1UdEwEB/wQFMAMBAf8wHQYDVR0OBBYEFEnL
AL+srUsYLNtpIR5g7wBO/GlSMA0GCSqGSIb3DQEBCwUAA4IBAQAkHM+2PiBumeg2
s34tZw3LtRxp/1q7Cy9S/dY+c1yiR46NHfyW5+DK5rY9r/rxd3fmLmfmRNeENs7c
yz49v7yLSFMw+r9DgVvgo6fbRMIpzUyKaOi5Pl3r5AYXbd7PdulaahYn+G+WQ4pP
Zb468n79rVWTrawAtLXzhbDXg22r0I8aIzbhH8SdVOjuIM252lanklqlvTbFouqs
BiSY5TIK4ABkY5x9ARhmWnqx1bQkm16Ka6Al6zlSzRJh0GJsGef1rjKjqtUvBf5v
y0cgoDIdy4iWWe2Oad3P8G+Dhf8KWe+AlBaZpjXup7jU6TxPVlt3DrW9YSG5k62+
LFWbvwEZ
-----END CERTIFICATE-----
