Certificate:
    Data:
        Version: 3 (0x2)
        Serial Number:
            3b:1d:6e:96:2e:32:85:de:99:5a:63:dd:49:1c:eb:cd
        Signature Algorithm: sha256WithRSAEncryption
        Issuer: C = US, ST = Wahington, O = Seattle, OU = Development, CN = www.wolfssl.com
        Validity
            Not Before: Oct 10 03:44:23 2024 GMT
            Not After : Oct  8 03:44:23 2034 GMT
        Subject: C = US, ST = Wahington, O = Seattle, OU = Product_Support, CN = www.wolfssl.com
        Subject Public Key Info:
            Public Key Algorithm: rsaEncryption
                Public-Key: (2048 bit)
                Modulus:
                    00:b8:54:e9:e6:bf:f4:b2:53:dc:3c:92:5a:06:9e:
                    88:0e:2e:a7:ab:a6:9d:07:34:8f:3f:7c:e5:37:f8:
                    26:2b:e0:cd:26:11:32:ae:06:f2:3b:3e:45:c1:57:
                    45:4b:36:9b:a9:b7:93:26:02:08:bf:1f:54:17:6d:
                    e8:f1:36:20:6c:40:e2:e8:db:bf:0d:80:56:0f:a0:
                    d9:b5:39:d6:b3:43:93:de:5f:cf:a5:34:52:7b:38:
                    4a:bc:4c:11:d2:ae:2c:1f:26:e2:51:c8:d6:94:e4:
                    ca:fe:ab:17:13:0d:9c:78:f8:cb:eb:f1:c6:5b:99:
                    5a:12:2b:cb:39:4b:a0:d3:ec:22:66:62:34:9d:57:
                    9d:9a:07:c6:45:3a:3d:e9:b2:82:e7:12:c6:af:3c:
                    a8:b9:5a:4f:8e:05:1b:d0:9d:63:72:d3:2c:63:67:
                    d9:3e:31:dd:fd:81:98:84:6d:ec:df:43:2c:b7:53:
                    31:e2:ed:a5:1c:e8:ca:df:50:33:a9:98:0c:26:b9:
                    a1:3a:23:f7:1a:ce:d1:4f:1e:98:19:a9:3e:ec:bd:
                    ad:b4:44:fb:ce:2a:d0:61:b9:5c:b1:77:6e:e1:f5:
                    dc:c7:af:e6:43:ee:b7:3c:16:88:45:46:0e:6d:56:
                    d7:1c:0e:ae:35:fe:84:6f:cb:d0:8d:d6:e3:3d:f5:
                    ec:87
                Exponent: 65537 (0x10001)
        X509v3 extensions:
            X509v3 Basic Constraints: critical
                CA:FALSE
            Netscape Cert Type: 
                SSL Server
            X509v3 Subject Key Identifier: 
                D9:9F:9A:2E:FE:80:7F:EB:6C:92:A1:91:60:9B:65:7B:36:2A:F4:35
            X509v3 Key Usage: critical
                Digital Signature, Key Encipherment
            X509v3 Extended Key Usage: 
                TLS Web Client Authentication, TLS Web Server Authentication
            X509v3 Authority Key Identifier: 
                49:CB:00:BF:AC:AD:4B:18:2C:DB:69:21:1E:60:EF:00:4E:FC:69:52
    Signature Algorithm: sha256WithRSAEncryption
    Signature Value:
        87:de:e3:93:74:f5:56:64:e7:d9:43:14:20:2e:69:8a:e7:c4:
        aa:38:c7:61:49:f5:b6:aa:43:46:c3:a0:b7:91:9f:4d:b9:c1:
        94:5c:89:5d:21:cb:b7:16:9b:d2:fb:d1:ea:bf:0d:9d:c5:2e:
        f1:1d:4c:a3:14:22:1b:46:7c:f7:9f:cc:02:97:88:73:e0:12:
        8e:14:59:ae:ac:39:59:2a:79:65:a7:65:19:8e:a8:d1:00:a3:
        62:80:bb:4c:fc:d9:7e:46:e4:cc:fb:0b:81:91:52:8e:1d:7f:
        fb:31:51:25:02:7d:5d:a3:c5:d9:9b:1a:94:4e:68:04:56:17:
        04:8d:ba:ed:75:76:b2:f9:ef:d8:60:af:7a:6b:24:57:b9:02:
        38:83:66:a5:97:dc:af:64:b7:33:3e:43:04:46:7f:79:83:7f:
        c7:55:a5:78:1e:9d:b0:75:8c:6b:09:db:5f:0a:e7:0c:61:95:
        70:9c:6a:6f:a7:8c:4d:bf:74:dd:ee:55:94:21:ba:63:d4:f1:
        fb:af:fc:8f:76:8d:29:e7:0f:6e:ff:54:81:59:ac:10:0a:e5:
        65:1c:bb:de:83:85:1c:5a:23:26:9c:e0:c9:50:8c:ac:cd:09:
        9c:50:ed:e9:1d:c9:c3:a0:a3:da:00:b1:9b:03:b6:97:cc:eb:
        02:a9:e2:41
-----BEGIN CERTIFICATE-----
MIID6DCCAtCgAwIBAgIQOx1uli4yhd6ZWmPdSRzrzTANBgkqhkiG9w0BAQsFADBj
MQswCQYDVQQGEwJVUzESMBAGA1UECAwJV2FoaW5ndG9uMRAwDgYDVQQKDAdTZWF0
dGxlMRQwEgYDVQQLDAtEZXZlbG9wbWVudDEYMBYGA1UEAwwPd3d3LndvbGZzc2wu
Y29tMB4XDTI0MTAxMDAzNDQyM1oXDTM0MTAwODAzNDQyM1owZzELMAkGA1UEBhMC
VVMxEjAQBgNVBAgMCVdhaGluZ3RvbjEQMA4GA1UECgwHU2VhdHRsZTEYMBYGA1UE
CwwPUHJvZHVjdF9TdXBwb3J0MRgwFgYDVQQDDA93d3cud29sZnNzbC5jb20wggEi
MA0GCSqGSIb3DQEBAQUAA4IBDwAwggEKAoIBAQC4VOnmv/SyU9w8kloGnogOLqer
pp0HNI8/fOU3+CYr4M0mETKuBvI7PkXBV0VLNpupt5MmAgi/H1QXbejxNiBsQOLo
278NgFYPoNm1OdazQ5PeX8+lNFJ7OEq8TBHSriwfJuJRyNaU5Mr+qxcTDZx4+Mvr
8cZbmVoSK8s5S6DT7CJmYjSdV52aB8ZFOj3psoLnEsavPKi5Wk+OBRvQnWNy0yxj
Z9k+Md39gZiEbezfQyy3UzHi7aUc6MrfUDOpmAwmuaE6I/caztFPHpgZqT7sva20
RPvOKtBhuVyxd27h9dzHr+ZD7rc8FohFRg5tVtccDq41/oRvy9CN1uM99eyHAgMB
AAGjgZMwgZAwDAYDVR0TAQH/BAIwADARBglghkgBhvhCAQEEBAMCBkAwHQYDVR0O
BBYEFNmfmi7+gH/rbJKhkWCbZXs2KvQ1MA4GA1UdDwEB/wQEAwIFoDAdBgNVHSUE
FjAUBggrBgEFBQcDAgYIKwYBBQUHAwEwHwYDVR0jBBgwFoAUScsAv6ytSxgs22kh
HmDvAE78aVIwDQYJKoZIhvcNAQELBQADggEBAIfe45N09VZk59lDFCAuaYrnxKo4
x2FJ9baqQ0bDoLeRn025wZRciV0hy7cWm9L70eq/DZ3FLvEdTKMUIhtGfPefzAKX
iHPgEo4UWa6sOVkqeWWnZRmOqNEAo2KAu0z82X5G5Mz7C4GRUo4df/sxUSUCfV2j
xdmbGpROaARWFwSNuu11drL579hgr3prJFe5AjiDZqWX3K9ktzM+QwRGf3mDf8dV
pXgenbB1jGsJ218K5wxhlXCcam+njE2/dN3uVZQhumPU8fuv/I92jSnnD27/VIFZ
rBAK5WUcu96DhRxaIyac4MlQjKzNCZxQ7ekdycOgo9oAsZsDtpfM6wKp4kE=
-----END CERTIFICATE-----
