Certificate:
    Data:
        Version: 3 (0x2)
        Serial Number:
            df:0d:6c:4b:d6:db:eb:35:5f:41:a1:3a:7a:56:16:93
        Signature Algorithm: sha256WithRSAEncryption
        Issuer: C = US, ST = Wahington, O = Seattle, OU = Product_Support, CN = www.wolfssl.com
        Validity
            Not Before: Oct 10 03:44:23 2024 GMT
            Not After : Oct  8 03:44:23 2034 GMT
        Subject: C = US, ST = Wahington, O = Seattle, OU = Support, CN = www.wolfssl.com
        Subject Public Key Info:
            Public Key Algorithm: rsaEncryption
                Public-Key: (2048 bit)
                Modulus:
                    00:ba:20:62:2b:81:ac:58:ce:f3:22:5d:9f:46:90:
                    b7:e9:a4:b3:fc:e1:b7:69:d3:b6:14:87:cb:bb:31:
                    1e:bb:60:f2:3f:8c:6a:0d:63:55:a2:c8:03:4a:8d:
                    d6:a3:63:dd:fb:28:ef:31:95:70:cc:28:95:1f:f0:
                    9c:89:f4:f6:56:1e:00:81:53:1b:78:1b:f9:9f:e3:
                    10:65:8c:c6:40:36:21:cd:57:55:b2:14:71:9a:57:
                    39:ee:da:98:1b:af:89:e0:c3:2b:f9:a1:93:3f:4d:
                    65:41:2b:66:1d:66:9c:95:95:df:19:dc:8d:78:46:
                    f4:15:eb:64:5c:97:16:ec:e2:ec:ca:eb:e2:03:b8:
                    41:81:c5:f4:ca:a4:e4:ab:de:ed:1a:da:a3:8d:02:
                    39:8d:00:2c:5d:7e:ef:91:b1:d7:96:ba:65:c1:43:
                    ff:d4:6a:35:fa:17:50:cd:76:3e:1d:be:a4:69:f6:
                    ee:47:c3:7a:49:9a:80:6f:e6:9b:83:e0:e8:58:71:
                    fb:cd:6d:c1:b4:16:d2:37:64:a6:bc:b0:f4:fe:fb:
                    f4:72:a6:3c:79:32:7a:c0:b5:30:21:b1:35:df:d9:
                    45:7f:c4:f6:c5:1c:98:6d:53:d6:ff:36:c1:38:18:
                    b7:76:13:10:c8:45:6a:52:73:65:7e:b9:b9:66:d4:
                    3c:27
                Exponent: 65537 (0x10001)
        X509v3 extensions:
            X509v3 Basic Constraints: critical
                CA:FALSE
            Netscape Cert Type: 
                SSL Server
            X509v3 Subject Key Identifier: 
                10:71:71:98:BD:C2:B2:97:DD:6F:B6:CD:28:EA:23:0E:51:AE:44:34
            X509v3 Key Usage: critical
                Digital Signature, Key Encipherment
            X509v3 Extended Key Usage: 
                TLS Web Client Authentication, TLS Web Server Authentication
            X509v3 Subject Alternative Name: 
                DNS:www.wolfssl.com, DNS:wolfssl.jp
            X509v3 Authority Key Identifier: 
                D9:9F:9A:2E:FE:80:7F:EB:6C:92:A1:91:60:9B:65:7B:36:2A:F4:35
    Signature Algorithm: sha256WithRSAEncryption
    Signature Value:
        54:7d:68:93:69:e0:3b:ea:3d:d8:68:ae:b1:97:97:2b:17:5d:
        76:7c:0d:0b:70:c5:a4:ec:3c:23:55:a5:bc:d7:dd:42:57:32:
        dd:7e:9b:c9:b0:9c:8a:30:de:b6:7c:f9:ff:93:46:29:82:cf:
        8a:05:bb:b2:64:cf:22:db:15:bd:8e:56:14:2e:a4:5c:44:c2:
        3c:9d:3c:a0:dd:bd:a1:40:df:c3:8d:ff:71:73:6f:88:d6:57:
        f2:c8:6c:20:18:ad:48:b8:2f:4c:41:ba:2a:f6:36:21:97:1b:
        ee:7c:83:a8:43:80:08:8b:ac:a8:ed:df:dd:9c:7a:64:c9:6a:
        16:09:3b:57:1d:fc:f3:db:82:8f:c1:0e:e3:48:b7:d1:e8:19:
        1c:90:f0:b8:e6:ad:17:c5:82:b3:d5:15:bf:a3:c0:a6:4b:a7:
        97:98:86:93:4b:b0:1b:0e:62:61:16:d0:68:c2:e2:22:8a:f5:
        89:c7:bd:9d:38:65:0f:df:b1:38:9a:c7:e9:df:76:f4:5a:9f:
        f5:2b:17:aa:9b:32:37:0a:72:93:8a:db:1d:b2:81:ff:0e:12:
        b6:0a:31:46:7e:86:5e:0b:03:0d:7f:d0:bf:60:f2:f5:93:94:
        f2:78:4f:80:34:b9:f7:66:ee:d6:b9:80:ca:bb:52:d0:e2:2f:
        1a:ac:99:a7
-----BEGIN CERTIFICATE-----
MIIEDTCCAvWgAwIBAgIRAN8NbEvW2+s1X0GhOnpWFpMwDQYJKoZIhvcNAQELBQAw
ZzELMAkGA1UEBhMCVVMxEjAQBgNVBAgMCVdhaGluZ3RvbjEQMA4GA1UECgwHU2Vh
dHRsZTEYMBYGA1UECwwPUHJvZHVjdF9TdXBwb3J0MRgwFgYDVQQDDA93d3cud29s
ZnNzbC5jb20wHhcNMjQxMDEwMDM0NDIzWhcNMzQxMDA4MDM0NDIzWjBfMQswCQYD
VQQGEwJVUzESMBAGA1UECAwJV2FoaW5ndG9uMRAwDgYDVQQKDAdTZWF0dGxlMRAw
DgYDVQQLDAdTdXBwb3J0MRgwFgYDVQQDDA93d3cud29sZnNzbC5jb20wggEiMA0G
CSqGSIb3DQEBAQUAA4IBDwAwggEKAoIBAQC6IGIrgaxYzvMiXZ9GkLfppLP84bdp
07YUh8u7MR67YPI/jGoNY1WiyANKjdajY937KO8xlXDMKJUf8JyJ9PZWHgCBUxt4
G/mf4xBljMZANiHNV1WyFHGaVznu2pgbr4ngwyv5oZM/TWVBK2YdZpyVld8Z3I14
RvQV62Rclxbs4uzK6+IDuEGBxfTKpOSr3u0a2qONAjmNACxdfu+RsdeWumXBQ//U
ajX6F1DNdj4dvqRp9u5Hw3pJmoBv5puD4OhYcfvNbcG0FtI3ZKa8sPT++/Rypjx5
MnrAtTAhsTXf2UV/xPbFHJhtU9b/NsE4GLd2ExDIRWpSc2V+ublm1DwnAgMBAAGj
gbswgbgwDAYDVR0TAQH/BAIwADARBglghkgBhvhCAQEEBAMCBkAwHQYDVR0OBBYE
FBBxcZi9wrKX3W+2zSjqIw5RrkQ0MA4GA1UdDwEB/wQEAwIFoDAdBgNVHSUEFjAU
BggrBgEFBQcDAgYIKwYBBQUHAwEwJgYDVR0RBB8wHYIPd3d3LndvbGZzc2wuY29t
ggp3b2xmc3NsLmpwMB8GA1UdIwQYMBaAFNmfmi7+gH/rbJKhkWCbZXs2KvQ1MA0G
CSqGSIb3DQEBCwUAA4IBAQBUfWiTaeA76j3YaK6xl5crF112fA0LcMWk7DwjVaW8
191CVzLdfpvJsJyKMN62fPn/k0Ypgs+KBbuyZM8i2xW9jlYULqRcRMI8nTyg3b2h
QN/Djf9xc2+I1lfyyGwgGK1IuC9MQboq9jYhlxvufIOoQ4AIi6yo7d/dnHpkyWoW
CTtXHfzz24KPwQ7jSLfR6BkckPC45q0XxYKz1RW/o8CmS6eXmIaTS7AbDmJhFtBo
wuIiivWJx72dOGUP37E4msfp33b0Wp/1KxeqmzI3CnKTitsdsoH/DhK2CjFGfoZe
CwMNf9C/YPL1k5TyeE+ANLn3Zu7WuYDKu1LQ4i8arJmn
-----END CERTIFICATE-----
