Certificate:
    Data:
        Version: 3 (0x2)
        Serial Number:
            4f:1d:f3:64:ba:21:a8:e6:cb:74:3a:4e:44:a5:e6:79:19:e8:5b:81
        Signature Algorithm: sha256WithRSAEncryption
        Issuer: C = US, ST = Montana, L = Bozeman, O = Sawtooth, OU = Consulting, CN = www.wolfssl.com, emailAddress = info@wolfssl.com
        Validity
            Not Before: Sep 26 17:22:42 2023 GMT
            Not After : Jun 22 17:22:42 2026 GMT
        Subject: C = US, ST = Montana, L = Bozeman, O = Sawtooth, OU = Consulting, CN = www.wolfssl.com, emailAddress = info@wolfssl.com
        Subject Public Key Info:
            Public Key Algorithm: rsaEncryption
                Public-Key: (2048 bit)
                Modulus:
                    00:bf:0c:ca:2d:14:b2:1e:84:42:5b:cd:38:1f:4a:
                    f2:4d:75:10:f1:b6:35:9f:df:ca:7d:03:98:d3:ac:
                    de:03:66:ee:2a:f1:d8:b0:7d:6e:07:54:0b:10:98:
                    21:4d:80:cb:12:20:e7:cc:4f:de:45:7d:c9:72:77:
                    32:ea:ca:90:bb:69:52:10:03:2f:a8:f3:95:c5:f1:
                    8b:62:56:1b:ef:67:6f:a4:10:41:95:ad:0a:9b:e3:
                    a5:c0:b0:d2:70:76:50:30:5b:a8:e8:08:2c:7c:ed:
                    a7:a2:7a:8d:38:29:1c:ac:c7:ed:f2:7c:95:b0:95:
                    82:7d:49:5c:38:cd:77:25:ef:bd:80:75:53:94:3c:
                    3d:ca:63:5b:9f:15:b5:d3:1d:13:2f:19:d1:3c:db:
                    76:3a:cc:b8:7d:c9:e5:c2:d7:da:40:6f:d8:21:dc:
                    73:1b:42:2d:53:9c:fe:1a:fc:7d:ab:7a:36:3f:98:
                    de:84:7c:05:67:ce:6a:14:38:87:a9:f1:8c:b5:68:
                    cb:68:7f:71:20:2b:f5:a0:63:f5:56:2f:a3:26:d2:
                    b7:6f:b1:5a:17:d7:38:99:08:fe:93:58:6f:fe:c3:
                    13:49:08:16:0b:a7:4d:67:00:52:31:67:23:4e:98:
                    ed:51:45:1d:b9:04:d9:0b:ec:d8:28:b3:4b:bd:ed:
                    36:79
                Exponent: 65537 (0x10001)
        X509v3 extensions:
            X509v3 Subject Key Identifier: 
                27:8E:67:11:74:C3:26:1D:3F:ED:33:63:B3:A4:D8:1D:30:E5:E8:D5
            X509v3 Authority Key Identifier: 
                keyid:27:8E:67:11:74:C3:26:1D:3F:ED:33:63:B3:A4:D8:1D:30:E5:E8:D5
                DirName:/C=US/ST=Montana/L=Bozeman/O=Sawtooth/OU=Consulting/CN=www.wolfssl.com/emailAddress=info@wolfssl.com
                serial:4F:1D:F3:64:BA:21:A8:E6:CB:74:3A:4E:44:A5:E6:79:19:E8:5B:81
            X509v3 Basic Constraints: 
                CA:TRUE
            X509v3 Subject Alternative Name: 
                DNS:example.com, IP Address:127.0.0.1
            X509v3 Extended Key Usage: 
                TLS Web Server Authentication, TLS Web Client Authentication
    Signature Algorithm: sha256WithRSAEncryption
    Signature Value:
        37:93:7f:df:07:03:36:9d:cf:07:b8:a1:85:9b:ca:6b:8d:db:
        d0:bd:2d:06:9c:03:f5:af:4a:1c:16:ad:9e:37:5a:2a:eb:08:
        9e:62:64:41:30:2e:6e:44:ed:68:55:00:53:74:7e:9f:bb:6c:
        56:54:f1:9f:00:e7:27:73:5c:26:d7:25:74:f7:4d:38:24:78:
        32:a1:f5:5a:e3:7e:c6:b5:71:3d:f6:d6:79:8b:ea:e2:97:51:
        74:fa:89:72:56:be:56:fc:ff:7e:cf:d8:39:37:bf:c8:d2:47:
        43:7d:23:07:93:e9:06:80:0e:2f:80:fb:61:a9:81:1e:c1:f8:
        02:f9:97:85:ce:89:99:ea:42:03:53:46:53:40:ab:11:80:78:
        63:84:94:ab:e7:52:8d:60:60:ff:82:83:34:bb:51:4c:8e:2a:
        46:1d:a7:a5:dd:0d:eb:ce:78:4a:7f:c2:96:4a:78:97:4d:02:
        b1:23:8a:58:45:eb:28:6b:ef:f1:2a:4b:1b:51:28:06:ee:97:
        c8:45:6b:46:4e:64:e0:b0:7c:e7:51:57:11:bc:fd:b9:38:a0:
        fa:ac:cf:44:d4:ea:3f:96:9d:40:98:c7:fa:1d:8e:f4:7e:fe:
        21:59:9d:54:e3:ab:94:3d:72:c7:a3:b0:62:9b:b2:22:8f:b1:
        71:e8:1e:9d
-----BEGIN CERTIFICATE-----
MIIE/zCCA+egAwIBAgIUTx3zZLohqObLdDpORKXmeRnoW4EwDQYJKoZIhvcNAQEL
BQAwgZQxCzAJBgNVBAYTAlVTMRAwDgYDVQQIDAdNb250YW5hMRAwDgYDVQQHDAdC
b3plbWFuMREwDwYDVQQKDAhTYXd0b290aDETMBEGA1UECwwKQ29uc3VsdGluZzEY
MBYGA1UEAwwPd3d3LndvbGZzc2wuY29tMR8wHQYJKoZIhvcNAQkBFhBpbmZvQHdv
bGZzc2wuY29tMB4XDTIzMDkyNjE3MjI0MloXDTI2MDYyMjE3MjI0MlowgZQxCzAJ
BgNVBAYTAlVTMRAwDgYDVQQIDAdNb250YW5hMRAwDgYDVQQHDAdCb3plbWFuMREw
DwYDVQQKDAhTYXd0b290aDETMBEGA1UECwwKQ29uc3VsdGluZzEYMBYGA1UEAwwP
d3d3LndvbGZzc2wuY29tMR8wHQYJKoZIhvcNAQkBFhBpbmZvQHdvbGZzc2wuY29t
MIIBIjANBgkqhkiG9w0BAQEFAAOCAQ8AMIIBCgKCAQEAvwzKLRSyHoRCW804H0ry
TXUQ8bY1n9/KfQOY06zeA2buKvHYsH1uB1QLEJghTYDLEiDnzE/eRX3Jcncy6sqQ
u2lSEAMvqPOVxfGLYlYb72dvpBBBla0Km+OlwLDScHZQMFuo6AgsfO2nonqNOCkc
rMft8nyVsJWCfUlcOM13Je+9gHVTlDw9ymNbnxW10x0TLxnRPNt2Osy4fcnlwtfa
QG/YIdxzG0ItU5z+Gvx9q3o2P5jehHwFZ85qFDiHqfGMtWjLaH9xICv1oGP1Vi+j
JtK3b7FaF9c4mQj+k1hv/sMTSQgWC6dNZwBSMWcjTpjtUUUduQTZC+zYKLNLve02
eQIDAQABo4IBRTCCAUEwHQYDVR0OBBYEFCeOZxF0wyYdP+0zY7Ok2B0w5ejVMIHU
BgNVHSMEgcwwgcmAFCeOZxF0wyYdP+0zY7Ok2B0w5ejVoYGapIGXMIGUMQswCQYD
VQQGEwJVUzEQMA4GA1UECAwHTW9udGFuYTEQMA4GA1UEBwwHQm96ZW1hbjERMA8G
A1UECgwIU2F3dG9vdGgxEzARBgNVBAsMCkNvbnN1bHRpbmcxGDAWBgNVBAMMD3d3
dy53b2xmc3NsLmNvbTEfMB0GCSqGSIb3DQEJARYQaW5mb0B3b2xmc3NsLmNvbYIU
Tx3zZLohqObLdDpORKXmeRnoW4EwDAYDVR0TBAUwAwEB/zAcBgNVHREEFTATggtl
eGFtcGxlLmNvbYcEfwAAATAdBgNVHSUEFjAUBggrBgEFBQcDAQYIKwYBBQUHAwIw
DQYJKoZIhvcNAQELBQADggEBADeTf98HAzadzwe4oYWbymuN29C9LQacA/WvShwW
rZ43WirrCJ5iZEEwLm5E7WhVAFN0fp+7bFZU8Z8A5ydzXCbXJXT3TTgkeDKh9Vrj
fsa1cT321nmL6uKXUXT6iXJWvlb8/37P2Dk3v8jSR0N9IweT6QaADi+A+2GpgR7B
+AL5l4XOiZnqQgNTRlNAqxGAeGOElKvnUo1gYP+CgzS7UUyOKkYdp6XdDevOeEp/
wpZKeJdNArEjilhF6yhr7/EqSxtRKAbul8hFa0ZOZOCwfOdRVxG8/bk4oPqsz0TU
6j+WnUCYx/odjvR+/iFZnVTjq5Q9csejsGKbsiKPsXHoHp0=
-----END CERTIFICATE-----
