Certificate:
    Data:
        Version: 3 (0x2)
        Serial Number:
            3f:32:13:52:92:c6:df:4a:d5:42:05:6c:b0:b2:2e:46:c2:f8:b8:67
        Signature Algorithm: sha256WithRSAEncryption
        Issuer: C = US, ST = Montana, L = Bozeman, O = Sawtooth, OU = Consulting, CN = www.wolfssl.com, emailAddress = info@wolfssl.com
        Validity
            Not Before: May  7 07:39:04 2020 GMT
            Not After : Feb  1 07:39:04 2023 GMT
        Subject: C = US, ST = Montana, L = Bozeman, O = Sawtooth, OU = Consulting, CN = www.wolfssl.com, emailAddress = info@wolfssl.com
        Subject Public Key Info:
            Public Key Algorithm: rsaEncryption
                RSA Public-Key: (2048 bit)
                Modulus:
                    00:bf:0c:ca:2d:14:b2:1e:84:42:5b:cd:38:1f:4a:
                    f2:4d:75:10:f1:b6:35:9f:df:ca:7d:03:98:d3:ac:
                    de:03:66:ee:2a:f1:d8:b0:7d:6e:07:54:0b:10:98:
                    21:4d:80:cb:12:20:e7:cc:4f:de:45:7d:c9:72:77:
                    32:ea:ca:90:bb:69:52:10:03:2f:a8:f3:95:c5:f1:
                    8b:62:56:1b:ef:67:6f:a4:10:41:95:ad:0a:9b:e3:
                    a5:c0:b0:d2:70:76:50:30:5b:a8:e8:08:2c:7c:ed:
                    a7:a2:7a:8d:38:29:1c:ac:c7:ed:f2:7c:95:b0:95:
                    82:7d:49:5c:38:cd:77:25:ef:bd:80:75:53:94:3c:
                    3d:ca:63:5b:9f:15:b5:d3:1d:13:2f:19:d1:3c:db:
                    76:3a:cc:b8:7d:c9:e5:c2:d7:da:40:6f:d8:21:dc:
                    73:1b:42:2d:53:9c:fe:1a:fc:7d:ab:7a:36:3f:98:
                    de:84:7c:05:67:ce:6a:14:38:87:a9:f1:8c:b5:68:
                    cb:68:7f:71:20:2b:f5:a0:63:f5:56:2f:a3:26:d2:
                    b7:6f:b1:5a:17:d7:38:99:08:fe:93:58:6f:fe:c3:
                    13:49:08:16:0b:a7:4d:67:00:52:31:67:23:4e:98:
                    ed:51:45:1d:b9:04:d9:0b:ec:d8:28:b3:4b:bd:ed:
                    36:79
                Exponent: 65537 (0x10001)
        X509v3 extensions:
            X509v3 Subject Key Identifier: 
                27:8E:67:11:74:C3:26:1D:3F:ED:33:63:B3:A4:D8:1D:30:E5:E8:D5
            X509v3 Authority Key Identifier: 
                keyid:27:8E:67:11:74:C3:26:1D:3F:ED:33:63:B3:A4:D8:1D:30:E5:E8:D5
                DirName:/C=US/ST=Montana/L=Bozeman/O=Sawtooth/OU=Consulting/CN=www.wolfssl.com/emailAddress=info@wolfssl.com
                serial:3F:32:13:52:92:C6:DF:4A:D5:42:05:6C:B0:B2:2E:46:C2:F8:B8:67

            X509v3 Basic Constraints: 
                CA:TRUE
            X509v3 Subject Alternative Name: 
                DNS:example.com, IP Address:127.0.0.1
    Signature Algorithm: sha256WithRSAEncryption
         b0:7b:84:c9:1f:41:97:b8:03:14:0f:59:5b:6f:2c:15:45:1b:
         c4:02:6f:d9:92:e7:1a:dc:cc:db:0e:56:3d:59:db:71:f2:f1:
         08:9a:06:eb:ab:c5:25:9f:df:6a:6d:6e:6b:d0:a8:90:39:d9:
         48:6f:61:7f:bd:cd:ed:60:8b:e3:6c:23:52:b7:86:bc:2a:ff:
         90:f7:6d:5c:47:69:f3:8d:ee:9e:76:62:5c:7b:b3:22:e5:4e:
         ce:26:f6:3f:2f:b7:00:8c:20:d2:71:f6:31:4e:e1:4d:03:b9:
         f3:07:dd:04:a7:a6:9a:9c:b0:2e:99:0a:a7:fc:59:97:63:a5:
         7c:77:dd:77:61:a6:86:6a:b2:32:33:06:b4:bc:ca:ae:c2:c7:
         8e:dc:85:dc:ac:c2:e7:2b:fb:b9:50:6b:d4:5b:0f:6d:93:a9:
         51:d2:dd:75:5e:88:ae:bc:ca:40:c7:2b:e9:5e:5b:a7:cf:e2:
         e2:5d:0b:c9:69:20:d3:41:5a:7a:b9:14:17:f1:85:d7:b9:17:
         b0:ad:ca:17:6c:38:8d:73:8d:74:25:01:70:c1:34:cf:62:02:
         48:9a:56:d8:44:a4:0d:e7:32:a0:b0:4b:c5:a4:9b:95:66:00:
         fa:7e:97:0a:6b:08:ec:a0:9f:3f:90:99:57:39:63:81:76:f7:
         ed:ea:01:1d
-----BEGIN CERTIFICATE-----
MIIE4DCCA8igAwIBAgIUPzITUpLG30rVQgVssLIuRsL4uGcwDQYJKoZIhvcNAQEL
BQAwgZQxCzAJBgNVBAYTAlVTMRAwDgYDVQQIDAdNb250YW5hMRAwDgYDVQQHDAdC
b3plbWFuMREwDwYDVQQKDAhTYXd0b290aDETMBEGA1UECwwKQ29uc3VsdGluZzEY
MBYGA1UEAwwPd3d3LndvbGZzc2wuY29tMR8wHQYJKoZIhvcNAQkBFhBpbmZvQHdv
bGZzc2wuY29tMB4XDTIwMDUwNzA3MzkwNFoXDTIzMDIwMTA3MzkwNFowgZQxCzAJ
BgNVBAYTAlVTMRAwDgYDVQQIDAdNb250YW5hMRAwDgYDVQQHDAdCb3plbWFuMREw
DwYDVQQKDAhTYXd0b290aDETMBEGA1UECwwKQ29uc3VsdGluZzEYMBYGA1UEAwwP
d3d3LndvbGZzc2wuY29tMR8wHQYJKoZIhvcNAQkBFhBpbmZvQHdvbGZzc2wuY29t
MIIBIjANBgkqhkiG9w0BAQEFAAOCAQ8AMIIBCgKCAQEAvwzKLRSyHoRCW804H0ry
TXUQ8bY1n9/KfQOY06zeA2buKvHYsH1uB1QLEJghTYDLEiDnzE/eRX3Jcncy6sqQ
u2lSEAMvqPOVxfGLYlYb72dvpBBBla0Km+OlwLDScHZQMFuo6AgsfO2nonqNOCkc
rMft8nyVsJWCfUlcOM13Je+9gHVTlDw9ymNbnxW10x0TLxnRPNt2Osy4fcnlwtfa
QG/YIdxzG0ItU5z+Gvx9q3o2P5jehHwFZ85qFDiHqfGMtWjLaH9xICv1oGP1Vi+j
JtK3b7FaF9c4mQj+k1hv/sMTSQgWC6dNZwBSMWcjTpjtUUUduQTZC+zYKLNLve02
eQIDAQABo4IBJjCCASIwHQYDVR0OBBYEFCeOZxF0wyYdP+0zY7Ok2B0w5ejVMIHU
BgNVHSMEgcwwgcmAFCeOZxF0wyYdP+0zY7Ok2B0w5ejVoYGapIGXMIGUMQswCQYD
VQQGEwJVUzEQMA4GA1UECAwHTW9udGFuYTEQMA4GA1UEBwwHQm96ZW1hbjERMA8G
A1UECgwIU2F3dG9vdGgxEzARBgNVBAsMCkNvbnN1bHRpbmcxGDAWBgNVBAMMD3d3
dy53b2xmc3NsLmNvbTEfMB0GCSqGSIb3DQEJARYQaW5mb0B3b2xmc3NsLmNvbYIU
PzITUpLG30rVQgVssLIuRsL4uGcwDAYDVR0TBAUwAwEB/zAcBgNVHREEFTATggtl
eGFtcGxlLmNvbYcEfwAAATANBgkqhkiG9w0BAQsFAAOCAQEAsHuEyR9Bl7gDFA9Z
W28sFUUbxAJv2ZLnGtzM2w5WPVnbcfLxCJoG66vFJZ/fam1ua9CokDnZSG9hf73N
7WCL42wjUreGvCr/kPdtXEdp843unnZiXHuzIuVOzib2Py+3AIwg0nH2MU7hTQO5
8wfdBKemmpywLpkKp/xZl2OlfHfdd2GmhmqyMjMGtLzKrsLHjtyF3KzC5yv7uVBr
1FsPbZOpUdLddV6IrrzKQMcr6V5bp8/i4l0LyWkg00FaerkUF/GF17kXsK3KF2w4
jXONdCUBcME0z2ICSJpW2ESkDecyoLBLxaSblWYA+n6XCmsI7KCfP5CZVzljgXb3
7eoBHQ==
-----END CERTIFICATE-----
