Certificate:
    Data:
        Version: 3 (0x2)
        Serial Number: 11990332945272134785 (0xa6663849459bdc81)
    Signature Algorithm: sha256WithRSAEncryption
        Issuer: C=US, ST=Montana, L=Bozeman, O=Sawtooth, OU=Consulting, CN=www.wolfssl.com/emailAddress=info@wolfssl.com
        Validity
            Not Before: Nov 23 12:49:37 2015 GMT
            Not After : Aug 19 12:49:37 2018 GMT
        Subject: C=US, ST=Montana, L=Bozeman, O=Sawtooth, OU=Consulting, CN=www.wolfssl.com/emailAddress=info@wolfssl.com
        Subject Public Key Info:
            Public Key Algorithm: rsaEncryption
                Public-Key: (2048 bit)
                Modulus:
                    00:bf:0c:ca:2d:14:b2:1e:84:42:5b:cd:38:1f:4a:
                    f2:4d:75:10:f1:b6:35:9f:df:ca:7d:03:98:d3:ac:
                    de:03:66:ee:2a:f1:d8:b0:7d:6e:07:54:0b:10:98:
                    21:4d:80:cb:12:20:e7:cc:4f:de:45:7d:c9:72:77:
                    32:ea:ca:90:bb:69:52:10:03:2f:a8:f3:95:c5:f1:
                    8b:62:56:1b:ef:67:6f:a4:10:41:95:ad:0a:9b:e3:
                    a5:c0:b0:d2:70:76:50:30:5b:a8:e8:08:2c:7c:ed:
                    a7:a2:7a:8d:38:29:1c:ac:c7:ed:f2:7c:95:b0:95:
                    82:7d:49:5c:38:cd:77:25:ef:bd:80:75:53:94:3c:
                    3d:ca:63:5b:9f:15:b5:d3:1d:13:2f:19:d1:3c:db:
                    76:3a:cc:b8:7d:c9:e5:c2:d7:da:40:6f:d8:21:dc:
                    73:1b:42:2d:53:9c:fe:1a:fc:7d:ab:7a:36:3f:98:
                    de:84:7c:05:67:ce:6a:14:38:87:a9:f1:8c:b5:68:
                    cb:68:7f:71:20:2b:f5:a0:63:f5:56:2f:a3:26:d2:
                    b7:6f:b1:5a:17:d7:38:99:08:fe:93:58:6f:fe:c3:
                    13:49:08:16:0b:a7:4d:67:00:52:31:67:23:4e:98:
                    ed:51:45:1d:b9:04:d9:0b:ec:d8:28:b3:4b:bd:ed:
                    36:79
                Exponent: 65537 (0x10001)
        X509v3 extensions:
            X509v3 Subject Key Identifier: 
                27:8E:67:11:74:C3:26:1D:3F:ED:33:63:B3:A4:D8:1D:30:E5:E8:D5
            X509v3 Authority Key Identifier: 
                keyid:27:8E:67:11:74:C3:26:1D:3F:ED:33:63:B3:A4:D8:1D:30:E5:E8:D5
                DirName:/C=US/ST=Montana/L=Bozeman/O=Sawtooth/OU=Consulting/CN=www.wolfssl.com/emailAddress=info@wolfssl.com
                serial:A6:66:38:49:45:9B:DC:81

            X509v3 Basic Constraints: 
                CA:TRUE
            Authority Information Access: 
                OCSP - URI:http://localhost:22222

    Signature Algorithm: sha256WithRSAEncryption
         41:8f:fb:6b:65:6b:36:f2:56:4f:0c:48:b0:4d:8c:c2:cb:d6:
         58:7a:83:3a:30:7d:62:7b:86:f1:15:26:b3:26:02:77:f2:c8:
         57:e5:1e:60:68:8b:a4:e8:f3:a8:b2:88:a4:2f:e8:6e:25:8d:
         6b:dc:53:ab:2f:d3:47:8c:d6:27:ab:39:bc:d3:ca:d8:01:96:
         a4:44:57:38:93:ab:c3:f3:95:67:7f:cf:25:1d:b7:04:dc:06:
         c9:5d:24:c1:54:13:71:81:21:31:ee:9f:b4:9d:ce:98:66:a4:
         a0:77:c1:88:18:a4:d1:36:ee:cd:d8:c1:1b:bc:03:d6:85:9a:
         2e:21:82:95:4c:b2:2a:fe:69:db:ac:e4:97:e1:e9:0e:f1:d3:
         ef:20:86:03:01:66:6b:f0:26:0f:39:04:26:f5:42:98:3f:95:
         48:5f:b5:5d:bc:49:4c:81:38:d5:e9:72:32:1c:66:1b:12:80:
         0f:db:99:f0:97:67:61:79:ad:ab:be:6a:ea:aa:cc:3d:f9:40:
         99:00:93:bb:df:4b:41:d4:7f:f1:93:b2:70:83:3a:e3:6b:44:
         4b:1f:9f:77:53:ea:5d:e6:59:1e:c0:2d:4b:83:d6:f4:a3:d4:
         a9:c3:91:12:e7:61:3f:56:9d:8f:b8:19:29:62:1b:58:df:73:
         99:1f:49:63
-----BEGIN CERTIFICATE-----
MIIE4DCCA8igAwIBAgIJAKZmOElFm9yBMA0GCSqGSIb3DQEBCwUAMIGUMQswCQYD
VQQGEwJVUzEQMA4GA1UECAwHTW9udGFuYTEQMA4GA1UEBwwHQm96ZW1hbjERMA8G
A1UECgwIU2F3dG9vdGgxEzARBgNVBAsMCkNvbnN1bHRpbmcxGDAWBgNVBAMMD3d3
dy53b2xmc3NsLmNvbTEfMB0GCSqGSIb3DQEJARYQaW5mb0B3b2xmc3NsLmNvbTAe
Fw0xNTExMjMxMjQ5MzdaFw0xODA4MTkxMjQ5MzdaMIGUMQswCQYDVQQGEwJVUzEQ
MA4GA1UECAwHTW9udGFuYTEQMA4GA1UEBwwHQm96ZW1hbjERMA8GA1UECgwIU2F3
dG9vdGgxEzARBgNVBAsMCkNvbnN1bHRpbmcxGDAWBgNVBAMMD3d3dy53b2xmc3Ns
LmNvbTEfMB0GCSqGSIb3DQEJARYQaW5mb0B3b2xmc3NsLmNvbTCCASIwDQYJKoZI
hvcNAQEBBQADggEPADCCAQoCggEBAL8Myi0Ush6EQlvNOB9K8k11EPG2NZ/fyn0D
mNOs3gNm7irx2LB9bgdUCxCYIU2AyxIg58xP3kV9yXJ3MurKkLtpUhADL6jzlcXx
i2JWG+9nb6QQQZWtCpvjpcCw0nB2UDBbqOgILHztp6J6jTgpHKzH7fJ8lbCVgn1J
XDjNdyXvvYB1U5Q8PcpjW58VtdMdEy8Z0TzbdjrMuH3J5cLX2kBv2CHccxtCLVOc
/hr8fat6Nj+Y3oR8BWfOahQ4h6nxjLVoy2h/cSAr9aBj9VYvoybSt2+xWhfXOJkI
/pNYb/7DE0kIFgunTWcAUjFnI06Y7VFFHbkE2Qvs2CizS73tNnkCAwEAAaOCATEw
ggEtMB0GA1UdDgQWBBQnjmcRdMMmHT/tM2OzpNgdMOXo1TCByQYDVR0jBIHBMIG+
gBQnjmcRdMMmHT/tM2OzpNgdMOXo1aGBmqSBlzCBlDELMAkGA1UEBhMCVVMxEDAO
BgNVBAgMB01vbnRhbmExEDAOBgNVBAcMB0JvemVtYW4xETAPBgNVBAoMCFNhd3Rv
b3RoMRMwEQYDVQQLDApDb25zdWx0aW5nMRgwFgYDVQQDDA93d3cud29sZnNzbC5j
b20xHzAdBgkqhkiG9w0BCQEWEGluZm9Ad29sZnNzbC5jb22CCQCmZjhJRZvcgTAM
BgNVHRMEBTADAQH/MDIGCCsGAQUFBwEBBCYwJDAiBggrBgEFBQcwAYYWaHR0cDov
L2xvY2FsaG9zdDoyMjIyMjANBgkqhkiG9w0BAQsFAAOCAQEAQY/7a2VrNvJWTwxI
sE2MwsvWWHqDOjB9YnuG8RUmsyYCd/LIV+UeYGiLpOjzqLKIpC/obiWNa9xTqy/T
R4zWJ6s5vNPK2AGWpERXOJOrw/OVZ3/PJR23BNwGyV0kwVQTcYEhMe6ftJ3OmGak
oHfBiBik0TbuzdjBG7wD1oWaLiGClUyyKv5p26zkl+HpDvHT7yCGAwFma/AmDzkE
JvVCmD+VSF+1XbxJTIE41elyMhxmGxKAD9uZ8JdnYXmtq75q6qrMPflAmQCTu99L
QdR/8ZOycIM642tESx+fd1PqXeZZHsAtS4PW9KPUqcOREudhP1adj7gZKWIbWN9z
mR9JYw==
-----END CERTIFICATE-----
