Certificate:
    Data:
        Version: 3 (0x2)
        Serial Number:
            ab:7b:54:2b:4a:61:e6:c9
    Signature Algorithm: sha256WithRSAEncryption
        Issuer: C=US, ST=Montana, L=Bozeman, O=Sawtooth, OU=Consulting, CN=www.wolfssl.com/emailAddress=info@wolfssl.com
        Validity
            Not Before: Jul 25 18:56:34 2016 GMT
            Not After : Apr 21 18:56:34 2019 GMT
        Subject: C=US, ST=Montana, L=Bozeman, O=Sawtooth, OU=Consulting, CN=www.wolfssl.com/emailAddress=info@wolfssl.com
        Subject Public Key Info:
            Public Key Algorithm: rsaEncryption
                Public-Key: (2048 bit)
                Modulus:
                    00:bf:0c:ca:2d:14:b2:1e:84:42:5b:cd:38:1f:4a:
                    f2:4d:75:10:f1:b6:35:9f:df:ca:7d:03:98:d3:ac:
                    de:03:66:ee:2a:f1:d8:b0:7d:6e:07:54:0b:10:98:
                    21:4d:80:cb:12:20:e7:cc:4f:de:45:7d:c9:72:77:
                    32:ea:ca:90:bb:69:52:10:03:2f:a8:f3:95:c5:f1:
                    8b:62:56:1b:ef:67:6f:a4:10:41:95:ad:0a:9b:e3:
                    a5:c0:b0:d2:70:76:50:30:5b:a8:e8:08:2c:7c:ed:
                    a7:a2:7a:8d:38:29:1c:ac:c7:ed:f2:7c:95:b0:95:
                    82:7d:49:5c:38:cd:77:25:ef:bd:80:75:53:94:3c:
                    3d:ca:63:5b:9f:15:b5:d3:1d:13:2f:19:d1:3c:db:
                    76:3a:cc:b8:7d:c9:e5:c2:d7:da:40:6f:d8:21:dc:
                    73:1b:42:2d:53:9c:fe:1a:fc:7d:ab:7a:36:3f:98:
                    de:84:7c:05:67:ce:6a:14:38:87:a9:f1:8c:b5:68:
                    cb:68:7f:71:20:2b:f5:a0:63:f5:56:2f:a3:26:d2:
                    b7:6f:b1:5a:17:d7:38:99:08:fe:93:58:6f:fe:c3:
                    13:49:08:16:0b:a7:4d:67:00:52:31:67:23:4e:98:
                    ed:51:45:1d:b9:04:d9:0b:ec:d8:28:b3:4b:bd:ed:
                    36:79
                Exponent: 65537 (0x10001)
        X509v3 extensions:
            X509v3 Subject Key Identifier: 
                27:8E:67:11:74:C3:26:1D:3F:ED:33:63:B3:A4:D8:1D:30:E5:E8:D5
            X509v3 Authority Key Identifier: 
                keyid:27:8E:67:11:74:C3:26:1D:3F:ED:33:63:B3:A4:D8:1D:30:E5:E8:D5
                DirName:/C=US/ST=Montana/L=Bozeman/O=Sawtooth/OU=Consulting/CN=www.wolfssl.com/emailAddress=info@wolfssl.com
                serial:AB:7B:54:2B:4A:61:E6:C9

            X509v3 Basic Constraints: 
                CA:TRUE
    Signature Algorithm: sha256WithRSAEncryption
         43:34:44:86:00:1e:c3:0b:46:6f:4c:e6:84:47:b0:30:bd:e8:
         7e:5e:20:f4:d1:60:e1:56:a3:5d:41:d6:f7:74:94:88:f4:4e:
         2f:6c:a4:12:ae:0e:98:fd:0c:ef:9a:17:70:23:32:24:3b:97:
         01:a9:20:b2:92:ed:69:bd:98:74:be:db:b0:9d:fe:da:77:d4:
         51:46:d4:cb:fc:98:32:ea:c1:f2:df:f2:04:05:62:ee:f8:37:
         3d:5b:1b:d4:ab:a0:9a:13:e9:19:c0:01:41:7e:e3:cb:97:ba:
         b9:0b:6a:61:d8:9b:b5:ed:cb:2e:6c:42:a7:ea:db:fa:e9:48:
         93:52:9c:1b:4b:c0:17:8b:fb:1e:ba:09:23:56:ac:e4:d1:de:
         e7:c4:a9:48:80:1e:d2:9f:43:3e:f4:40:fb:38:fa:3f:62:52:
         ae:73:5e:3d:0e:be:21:4f:a6:5e:1d:4c:14:fd:f9:59:42:91:
         28:37:20:e3:5c:6a:08:51:4a:5e:04:ec:8b:98:97:4d:d0:3d:
         c9:af:33:22:d2:29:83:fd:b8:cb:99:96:95:c6:38:c8:39:1f:
         38:9c:8d:43:8c:33:5f:bf:6f:16:ff:68:1e:8b:b1:f9:b2:ae:
         9d:64:ad:54:dd:fa:e0:b0:7c:9b:dd:fd:96:8c:70:8c:5e:e7:
         d5:00:fa:f4
-----BEGIN CERTIFICATE-----
MIIEqjCCA5KgAwIBAgIJAKt7VCtKYebJMA0GCSqGSIb3DQEBCwUAMIGUMQswCQYD
VQQGEwJVUzEQMA4GA1UECAwHTW9udGFuYTEQMA4GA1UEBwwHQm96ZW1hbjERMA8G
A1UECgwIU2F3dG9vdGgxEzARBgNVBAsMCkNvbnN1bHRpbmcxGDAWBgNVBAMMD3d3
dy53b2xmc3NsLmNvbTEfMB0GCSqGSIb3DQEJARYQaW5mb0B3b2xmc3NsLmNvbTAe
Fw0xNjA3MjUxODU2MzRaFw0xOTA0MjExODU2MzRaMIGUMQswCQYDVQQGEwJVUzEQ
MA4GA1UECAwHTW9udGFuYTEQMA4GA1UEBwwHQm96ZW1hbjERMA8GA1UECgwIU2F3
dG9vdGgxEzARBgNVBAsMCkNvbnN1bHRpbmcxGDAWBgNVBAMMD3d3dy53b2xmc3Ns
LmNvbTEfMB0GCSqGSIb3DQEJARYQaW5mb0B3b2xmc3NsLmNvbTCCASIwDQYJKoZI
hvcNAQEBBQADggEPADCCAQoCggEBAL8Myi0Ush6EQlvNOB9K8k11EPG2NZ/fyn0D
mNOs3gNm7irx2LB9bgdUCxCYIU2AyxIg58xP3kV9yXJ3MurKkLtpUhADL6jzlcXx
i2JWG+9nb6QQQZWtCpvjpcCw0nB2UDBbqOgILHztp6J6jTgpHKzH7fJ8lbCVgn1J
XDjNdyXvvYB1U5Q8PcpjW58VtdMdEy8Z0TzbdjrMuH3J5cLX2kBv2CHccxtCLVOc
/hr8fat6Nj+Y3oR8BWfOahQ4h6nxjLVoy2h/cSAr9aBj9VYvoybSt2+xWhfXOJkI
/pNYb/7DE0kIFgunTWcAUjFnI06Y7VFFHbkE2Qvs2CizS73tNnkCAwEAAaOB/DCB
+TAdBgNVHQ4EFgQUJ45nEXTDJh0/7TNjs6TYHTDl6NUwgckGA1UdIwSBwTCBvoAU
J45nEXTDJh0/7TNjs6TYHTDl6NWhgZqkgZcwgZQxCzAJBgNVBAYTAlVTMRAwDgYD
VQQIDAdNb250YW5hMRAwDgYDVQQHDAdCb3plbWFuMREwDwYDVQQKDAhTYXd0b290
aDETMBEGA1UECwwKQ29uc3VsdGluZzEYMBYGA1UEAwwPd3d3LndvbGZzc2wuY29t
MR8wHQYJKoZIhvcNAQkBFhBpbmZvQHdvbGZzc2wuY29tggkAq3tUK0ph5skwDAYD
VR0TBAUwAwEB/zANBgkqhkiG9w0BAQsFAAOCAQEAQzREhgAewwtGb0zmhEewML3o
fl4g9NFg4VajXUHW93SUiPROL2ykEq4OmP0M75oXcCMyJDuXAakgspLtab2YdL7b
sJ3+2nfUUUbUy/yYMurB8t/yBAVi7vg3PVsb1KugmhPpGcABQX7jy5e6uQtqYdib
te3LLmxCp+rb+ulIk1KcG0vAF4v7HroJI1as5NHe58SpSIAe0p9DPvRA+zj6P2JS
rnNePQ6+IU+mXh1MFP35WUKRKDcg41xqCFFKXgTsi5iXTdA9ya8zItIpg/24y5mW
lcY4yDkfOJyNQ4wzX79vFv9oHoux+bKunWStVN364LB8m939loxwjF7n1QD69A==
-----END CERTIFICATE-----
