Certificate:
    Data:
        Version: 3 (0x2)
        Serial Number:
            3f:29:11:20:57:71:e7:8e:f9:18:0d:ca:70:4d:5b:15:2a:43:d6:24
        Signature Algorithm: sha256WithRSAEncryption
        Issuer: C=US, ST=Montana, L=Bozeman, O=Sawtooth, OU=Consulting, CN=www.wolfssl.com, emailAddress=info@wolfssl.com
        Validity
            Not Before: Nov 13 20:41:11 2025 GMT
            Not After : Aug  9 20:41:11 2028 GMT
        Subject: C=US, ST=Montana, L=Bozeman, O=Sawtooth, OU=Consulting, CN=www.wolfssl.com, emailAddress=info@wolfssl.com
        Subject Public Key Info:
            Public Key Algorithm: rsaEncryption
                Public-Key: (2048 bit)
                Modulus:
                    00:bf:0c:ca:2d:14:b2:1e:84:42:5b:cd:38:1f:4a:
                    f2:4d:75:10:f1:b6:35:9f:df:ca:7d:03:98:d3:ac:
                    de:03:66:ee:2a:f1:d8:b0:7d:6e:07:54:0b:10:98:
                    21:4d:80:cb:12:20:e7:cc:4f:de:45:7d:c9:72:77:
                    32:ea:ca:90:bb:69:52:10:03:2f:a8:f3:95:c5:f1:
                    8b:62:56:1b:ef:67:6f:a4:10:41:95:ad:0a:9b:e3:
                    a5:c0:b0:d2:70:76:50:30:5b:a8:e8:08:2c:7c:ed:
                    a7:a2:7a:8d:38:29:1c:ac:c7:ed:f2:7c:95:b0:95:
                    82:7d:49:5c:38:cd:77:25:ef:bd:80:75:53:94:3c:
                    3d:ca:63:5b:9f:15:b5:d3:1d:13:2f:19:d1:3c:db:
                    76:3a:cc:b8:7d:c9:e5:c2:d7:da:40:6f:d8:21:dc:
                    73:1b:42:2d:53:9c:fe:1a:fc:7d:ab:7a:36:3f:98:
                    de:84:7c:05:67:ce:6a:14:38:87:a9:f1:8c:b5:68:
                    cb:68:7f:71:20:2b:f5:a0:63:f5:56:2f:a3:26:d2:
                    b7:6f:b1:5a:17:d7:38:99:08:fe:93:58:6f:fe:c3:
                    13:49:08:16:0b:a7:4d:67:00:52:31:67:23:4e:98:
                    ed:51:45:1d:b9:04:d9:0b:ec:d8:28:b3:4b:bd:ed:
                    36:79
                Exponent: 65537 (0x10001)
        X509v3 extensions:
            X509v3 Subject Key Identifier: 
                27:8E:67:11:74:C3:26:1D:3F:ED:33:63:B3:A4:D8:1D:30:E5:E8:D5
            X509v3 Authority Key Identifier: 
                keyid:27:8E:67:11:74:C3:26:1D:3F:ED:33:63:B3:A4:D8:1D:30:E5:E8:D5
                DirName:/C=US/ST=Montana/L=Bozeman/O=Sawtooth/OU=Consulting/CN=www.wolfssl.com/emailAddress=info@wolfssl.com
                serial:3F:29:11:20:57:71:E7:8E:F9:18:0D:CA:70:4D:5B:15:2A:43:D6:24
            X509v3 Basic Constraints: 
                CA:TRUE
            X509v3 Subject Alternative Name: 
                DNS:example.com, IP Address:127.0.0.1
            X509v3 Extended Key Usage: 
                TLS Web Server Authentication, TLS Web Client Authentication
    Signature Algorithm: sha256WithRSAEncryption
    Signature Value:
        0f:ae:89:d5:68:e4:41:f8:9b:e0:c5:61:06:57:ff:a0:92:0f:
        b2:ed:d3:99:5b:99:5e:32:7e:97:c7:af:6c:fe:8c:a6:ae:32:
        a1:0d:ca:cd:fc:18:e5:d1:f8:20:5b:5a:38:81:46:5b:48:87:
        a5:3f:3b:7b:c7:ea:f5:35:29:31:15:39:38:5d:48:e6:01:81:
        5c:5e:7c:10:f5:16:e3:59:af:44:c8:b5:8d:c1:32:23:b3:b8:
        12:6e:5c:8d:e6:c2:d2:41:03:eb:17:42:e2:7f:bc:00:5d:a5:
        31:ef:c6:48:ee:db:cc:e0:f1:56:f5:d4:ca:45:a1:59:b5:e4:
        d7:60:9c:57:e0:a7:5a:f2:35:1e:a0:22:db:5e:1c:0c:61:bd:
        a1:c5:7b:9f:69:f2:d5:95:e2:bc:52:b9:1d:9c:2c:da:b6:73:
        75:4a:84:e5:94:b8:19:4d:dd:70:bd:7f:4c:b9:17:6a:58:16:
        89:22:44:37:57:55:26:42:e3:b7:e5:c7:2b:40:0c:e9:e4:7f:
        52:75:df:06:c9:fb:01:44:34:ac:20:3c:b4:be:2b:3e:ef:85:
        38:96:5b:9b:1e:25:86:18:4c:a4:06:70:06:6a:c8:4b:6f:5f:
        c4:05:1f:03:62:30:11:61:bc:c1:40:31:66:dc:64:f0:4f:6b:
        b9:ec:c8:29
-----BEGIN CERTIFICATE-----
MIIE/zCCA+egAwIBAgIUPykRIFdx5475GA3KcE1bFSpD1iQwDQYJKoZIhvcNAQEL
BQAwgZQxCzAJBgNVBAYTAlVTMRAwDgYDVQQIDAdNb250YW5hMRAwDgYDVQQHDAdC
b3plbWFuMREwDwYDVQQKDAhTYXd0b290aDETMBEGA1UECwwKQ29uc3VsdGluZzEY
MBYGA1UEAwwPd3d3LndvbGZzc2wuY29tMR8wHQYJKoZIhvcNAQkBFhBpbmZvQHdv
bGZzc2wuY29tMB4XDTI1MTExMzIwNDExMVoXDTI4MDgwOTIwNDExMVowgZQxCzAJ
BgNVBAYTAlVTMRAwDgYDVQQIDAdNb250YW5hMRAwDgYDVQQHDAdCb3plbWFuMREw
DwYDVQQKDAhTYXd0b290aDETMBEGA1UECwwKQ29uc3VsdGluZzEYMBYGA1UEAwwP
d3d3LndvbGZzc2wuY29tMR8wHQYJKoZIhvcNAQkBFhBpbmZvQHdvbGZzc2wuY29t
MIIBIjANBgkqhkiG9w0BAQEFAAOCAQ8AMIIBCgKCAQEAvwzKLRSyHoRCW804H0ry
TXUQ8bY1n9/KfQOY06zeA2buKvHYsH1uB1QLEJghTYDLEiDnzE/eRX3Jcncy6sqQ
u2lSEAMvqPOVxfGLYlYb72dvpBBBla0Km+OlwLDScHZQMFuo6AgsfO2nonqNOCkc
rMft8nyVsJWCfUlcOM13Je+9gHVTlDw9ymNbnxW10x0TLxnRPNt2Osy4fcnlwtfa
QG/YIdxzG0ItU5z+Gvx9q3o2P5jehHwFZ85qFDiHqfGMtWjLaH9xICv1oGP1Vi+j
JtK3b7FaF9c4mQj+k1hv/sMTSQgWC6dNZwBSMWcjTpjtUUUduQTZC+zYKLNLve02
eQIDAQABo4IBRTCCAUEwHQYDVR0OBBYEFCeOZxF0wyYdP+0zY7Ok2B0w5ejVMIHU
BgNVHSMEgcwwgcmAFCeOZxF0wyYdP+0zY7Ok2B0w5ejVoYGapIGXMIGUMQswCQYD
VQQGEwJVUzEQMA4GA1UECAwHTW9udGFuYTEQMA4GA1UEBwwHQm96ZW1hbjERMA8G
A1UECgwIU2F3dG9vdGgxEzARBgNVBAsMCkNvbnN1bHRpbmcxGDAWBgNVBAMMD3d3
dy53b2xmc3NsLmNvbTEfMB0GCSqGSIb3DQEJARYQaW5mb0B3b2xmc3NsLmNvbYIU
PykRIFdx5475GA3KcE1bFSpD1iQwDAYDVR0TBAUwAwEB/zAcBgNVHREEFTATggtl
eGFtcGxlLmNvbYcEfwAAATAdBgNVHSUEFjAUBggrBgEFBQcDAQYIKwYBBQUHAwIw
DQYJKoZIhvcNAQELBQADggEBAA+uidVo5EH4m+DFYQZX/6CSD7Lt05lbmV4yfpfH
r2z+jKauMqENys38GOXR+CBbWjiBRltIh6U/O3vH6vU1KTEVOThdSOYBgVxefBD1
FuNZr0TItY3BMiOzuBJuXI3mwtJBA+sXQuJ/vABdpTHvxkju28zg8Vb11MpFoVm1
5NdgnFfgp1ryNR6gItteHAxhvaHFe59p8tWV4rxSuR2cLNq2c3VKhOWUuBlN3XC9
f0y5F2pYFokiRDdXVSZC47flxytADOnkf1J13wbJ+wFENKwgPLS+Kz7vhTiWW5se
JYYYTKQGcAZqyEtvX8QFHwNiMBFhvMFAMWbcZPBPa7nsyCk=
-----END CERTIFICATE-----
