Certificate:
    Data:
        Version: 3 (0x2)
        Serial Number: 18049645117592769049 (0xfa7d389a73fb1219)
    Signature Algorithm: sha1WithRSAEncryption
        Issuer: C=US, ST=Montana, L=Bozeman, O=Sawtooth, OU=Consulting, CN=www.wolfssl.com/emailAddress=info@wolfssl.com
        Validity
            Not Before: Feb  5 06:33:30 2015 GMT
            Not After : Nov  1 06:33:30 2017 GMT
        Subject: C=US, ST=Montana, L=Bozeman, O=Sawtooth, OU=Consulting, CN=www.wolfssl.com/emailAddress=info@wolfssl.com
        Subject Public Key Info:
            Public Key Algorithm: rsaEncryption
                Public-Key: (2048 bit)
                Modulus:
                    00:bf:0c:ca:2d:14:b2:1e:84:42:5b:cd:38:1f:4a:
                    f2:4d:75:10:f1:b6:35:9f:df:ca:7d:03:98:d3:ac:
                    de:03:66:ee:2a:f1:d8:b0:7d:6e:07:54:0b:10:98:
                    21:4d:80:cb:12:20:e7:cc:4f:de:45:7d:c9:72:77:
                    32:ea:ca:90:bb:69:52:10:03:2f:a8:f3:95:c5:f1:
                    8b:62:56:1b:ef:67:6f:a4:10:41:95:ad:0a:9b:e3:
                    a5:c0:b0:d2:70:76:50:30:5b:a8:e8:08:2c:7c:ed:
                    a7:a2:7a:8d:38:29:1c:ac:c7:ed:f2:7c:95:b0:95:
                    82:7d:49:5c:38:cd:77:25:ef:bd:80:75:53:94:3c:
                    3d:ca:63:5b:9f:15:b5:d3:1d:13:2f:19:d1:3c:db:
                    76:3a:cc:b8:7d:c9:e5:c2:d7:da:40:6f:d8:21:dc:
                    73:1b:42:2d:53:9c:fe:1a:fc:7d:ab:7a:36:3f:98:
                    de:84:7c:05:67:ce:6a:14:38:87:a9:f1:8c:b5:68:
                    cb:68:7f:71:20:2b:f5:a0:63:f5:56:2f:a3:26:d2:
                    b7:6f:b1:5a:17:d7:38:99:08:fe:93:58:6f:fe:c3:
                    13:49:08:16:0b:a7:4d:67:00:52:31:67:23:4e:98:
                    ed:51:45:1d:b9:04:d9:0b:ec:d8:28:b3:4b:bd:ed:
                    36:79
                Exponent: 65537 (0x10001)
        X509v3 extensions:
            X509v3 Subject Key Identifier: 
                27:8E:67:11:74:C3:26:1D:3F:ED:33:63:B3:A4:D8:1D:30:E5:E8:D5
            X509v3 Authority Key Identifier: 
                keyid:27:8E:67:11:74:C3:26:1D:3F:ED:33:63:B3:A4:D8:1D:30:E5:E8:D5
                DirName:/C=US/ST=Montana/L=Bozeman/O=Sawtooth/OU=Consulting/CN=www.wolfssl.com/emailAddress=info@wolfssl.com
                serial:FA:7D:38:9A:73:FB:12:19

            X509v3 Basic Constraints: 
                CA:TRUE
    Signature Algorithm: sha1WithRSAEncryption
         2c:02:0c:de:b2:46:a1:d8:59:0f:08:69:ad:d2:52:2e:ee:55:
         78:bd:bb:71:d2:d7:b7:fe:7b:0f:8a:bc:6a:25:fd:d4:6d:1d:
         ab:00:e2:9d:d6:98:21:11:a4:41:e0:0d:4b:a4:38:7f:2e:0c:
         d6:80:dc:30:d7:cf:19:1b:43:2f:e7:b3:99:74:9c:b4:01:69:
         b1:c3:9b:9f:4a:89:2f:60:38:cb:7c:a1:78:93:38:5c:a8:ca:
         46:0d:23:2d:99:a3:cf:0a:49:38:eb:07:06:57:cd:4a:55:35:
         04:08:36:30:ca:75:69:4b:9a:84:08:c9:23:78:a9:f0:80:ce:
         8a:25:bb:31:07:0e:11:e6:4a:95:8c:53:df:85:d9:48:45:cb:
         5a:ef:de:92:c2:88:0e:da:ff:31:6b:4e:52:53:5f:f3:a8:3a:
         42:f8:e1:0d:0a:c0:84:af:ec:21:b3:a7:98:b0:c8:6b:77:04:
         ef:f5:06:a5:51:3b:20:6f:bf:55:80:8c:cf:d4:78:ee:a2:d9:
         e3:52:34:9a:17:3d:87:10:4d:23:21:38:9b:35:f7:18:ac:34:
         bd:18:ae:a4:e2:32:2f:5d:a4:41:4c:bc:aa:88:b7:9e:45:14:
         92:e9:e8:ee:fc:1d:28:f5:59:fd:de:bd:3d:73:dd:b4:9f:2e:
         77:c0:75:41
-----BEGIN CERTIFICATE-----
MIIEqjCCA5KgAwIBAgIJAPp9OJpz+xIZMA0GCSqGSIb3DQEBBQUAMIGUMQswCQYD
VQQGEwJVUzEQMA4GA1UECAwHTW9udGFuYTEQMA4GA1UEBwwHQm96ZW1hbjERMA8G
A1UECgwIU2F3dG9vdGgxEzARBgNVBAsMCkNvbnN1bHRpbmcxGDAWBgNVBAMMD3d3
dy53b2xmc3NsLmNvbTEfMB0GCSqGSIb3DQEJARYQaW5mb0B3b2xmc3NsLmNvbTAe
Fw0xNTAyMDUwNjMzMzBaFw0xNzExMDEwNjMzMzBaMIGUMQswCQYDVQQGEwJVUzEQ
MA4GA1UECAwHTW9udGFuYTEQMA4GA1UEBwwHQm96ZW1hbjERMA8GA1UECgwIU2F3
dG9vdGgxEzARBgNVBAsMCkNvbnN1bHRpbmcxGDAWBgNVBAMMD3d3dy53b2xmc3Ns
LmNvbTEfMB0GCSqGSIb3DQEJARYQaW5mb0B3b2xmc3NsLmNvbTCCASIwDQYJKoZI
hvcNAQEBBQADggEPADCCAQoCggEBAL8Myi0Ush6EQlvNOB9K8k11EPG2NZ/fyn0D
mNOs3gNm7irx2LB9bgdUCxCYIU2AyxIg58xP3kV9yXJ3MurKkLtpUhADL6jzlcXx
i2JWG+9nb6QQQZWtCpvjpcCw0nB2UDBbqOgILHztp6J6jTgpHKzH7fJ8lbCVgn1J
XDjNdyXvvYB1U5Q8PcpjW58VtdMdEy8Z0TzbdjrMuH3J5cLX2kBv2CHccxtCLVOc
/hr8fat6Nj+Y3oR8BWfOahQ4h6nxjLVoy2h/cSAr9aBj9VYvoybSt2+xWhfXOJkI
/pNYb/7DE0kIFgunTWcAUjFnI06Y7VFFHbkE2Qvs2CizS73tNnkCAwEAAaOB/DCB
+TAdBgNVHQ4EFgQUJ45nEXTDJh0/7TNjs6TYHTDl6NUwgckGA1UdIwSBwTCBvoAU
J45nEXTDJh0/7TNjs6TYHTDl6NWhgZqkgZcwgZQxCzAJBgNVBAYTAlVTMRAwDgYD
VQQIDAdNb250YW5hMRAwDgYDVQQHDAdCb3plbWFuMREwDwYDVQQKDAhTYXd0b290
aDETMBEGA1UECwwKQ29uc3VsdGluZzEYMBYGA1UEAwwPd3d3LndvbGZzc2wuY29t
MR8wHQYJKoZIhvcNAQkBFhBpbmZvQHdvbGZzc2wuY29tggkA+n04mnP7EhkwDAYD
VR0TBAUwAwEB/zANBgkqhkiG9w0BAQUFAAOCAQEALAIM3rJGodhZDwhprdJSLu5V
eL27cdLXt/57D4q8aiX91G0dqwDindaYIRGkQeANS6Q4fy4M1oDcMNfPGRtDL+ez
mXSctAFpscObn0qJL2A4y3yheJM4XKjKRg0jLZmjzwpJOOsHBlfNSlU1BAg2MMp1
aUuahAjJI3ip8IDOiiW7MQcOEeZKlYxT34XZSEXLWu/eksKIDtr/MWtOUlNf86g6
QvjhDQrAhK/sIbOnmLDIa3cE7/UGpVE7IG+/VYCMz9R47qLZ41I0mhc9hxBNIyE4
mzX3GKw0vRiupOIyL12kQUy8qoi3nkUUkuno7vwdKPVZ/d69PXPdtJ8ud8B1QQ==
-----END CERTIFICATE-----
