Certificate:
    Data:
        Version: 3 (0x2)
        Serial Number:
            2e:ea:f0:11:40:1e:ad:fa:a7:85:68:65:7a:25:2b:13:b7:61:d7:80
        Signature Algorithm: ecdsa-with-SHA384
        Issuer: C = US, ST = Washington, L = Seattle, O = wolfSSL, OU = Development, CN = www.wolfssl.com, emailAddress = info@wolfssl.com
        Validity
            Not Before: Dec 13 22:19:28 2023 GMT
            Not After : Sep  8 22:19:28 2026 GMT
        Subject: C = US, ST = Washington, L = Seattle, O = wolfSSL, OU = Development, CN = www.wolfssl.com, emailAddress = info@wolfssl.com
        Subject Public Key Info:
            Public Key Algorithm: id-ecPublicKey
                Public-Key: (384 bit)
                pub:
                    04:ee:82:d4:39:9a:b1:27:82:f4:d7:ea:c6:bc:03:
                    1d:4d:83:61:f4:03:ae:7e:bd:d8:5a:a5:b9:f0:8e:
                    a2:a5:da:ce:87:3b:5a:ab:44:16:9c:f5:9f:62:dd:
                    f6:20:cd:9c:76:3c:40:b1:3f:97:17:df:59:f6:cd:
                    de:cd:46:35:c0:ed:5e:2e:48:b6:66:91:71:74:b7:
                    0c:3f:b9:9a:b7:83:bd:93:3f:5f:50:2d:70:3f:de:
                    35:25:e1:90:3b:86:e0
                ASN1 OID: secp384r1
                NIST CURVE: P-384
        X509v3 extensions:
            X509v3 Subject Key Identifier: 
                AB:E0:C3:26:4C:18:D4:72:BB:D2:84:8C:9C:0A:05:92:80:12:53:52
            X509v3 Authority Key Identifier: 
                keyid:AB:E0:C3:26:4C:18:D4:72:BB:D2:84:8C:9C:0A:05:92:80:12:53:52

            X509v3 Basic Constraints: critical
                CA:TRUE
            X509v3 Key Usage: critical
                Digital Signature, Certificate Sign, CRL Sign
    Signature Algorithm: ecdsa-with-SHA384
         30:65:02:31:00:bd:2e:67:71:54:be:b8:5e:29:19:d3:18:f7:
         e1:ae:79:f0:cc:09:c3:91:c0:81:ab:d7:b7:21:f8:4f:da:bc:
         ad:0e:fc:3d:54:32:21:3a:67:c5:26:35:e9:33:b2:58:d2:02:
         30:64:2f:fb:10:d0:65:b5:ac:bb:b3:41:64:24:eb:0a:6b:ae:
         a4:ed:3e:c8:62:81:45:97:92:ad:61:eb:69:54:ce:42:83:bb:
         68:23:20:f7:b2:5a:55:0c:d4:e6:13:42:61
-----BEGIN CERTIFICATE-----
MIIC0jCCAligAwIBAgIULurwEUAerfqnhWhleiUrE7dh14AwCgYIKoZIzj0EAwMw
gZcxCzAJBgNVBAYTAlVTMRMwEQYDVQQIDApXYXNoaW5ndG9uMRAwDgYDVQQHDAdT
ZWF0dGxlMRAwDgYDVQQKDAd3b2xmU1NMMRQwEgYDVQQLDAtEZXZlbG9wbWVudDEY
MBYGA1UEAwwPd3d3LndvbGZzc2wuY29tMR8wHQYJKoZIhvcNAQkBFhBpbmZvQHdv
bGZzc2wuY29tMB4XDTIzMTIxMzIyMTkyOFoXDTI2MDkwODIyMTkyOFowgZcxCzAJ
BgNVBAYTAlVTMRMwEQYDVQQIDApXYXNoaW5ndG9uMRAwDgYDVQQHDAdTZWF0dGxl
MRAwDgYDVQQKDAd3b2xmU1NMMRQwEgYDVQQLDAtEZXZlbG9wbWVudDEYMBYGA1UE
AwwPd3d3LndvbGZzc2wuY29tMR8wHQYJKoZIhvcNAQkBFhBpbmZvQHdvbGZzc2wu
Y29tMHYwEAYHKoZIzj0CAQYFK4EEACIDYgAE7oLUOZqxJ4L01+rGvAMdTYNh9AOu
fr3YWqW58I6ipdrOhztaq0QWnPWfYt32IM2cdjxAsT+XF99Z9s3ezUY1wO1eLki2
ZpFxdLcMP7mat4O9kz9fUC1wP941JeGQO4bgo2MwYTAdBgNVHQ4EFgQUq+DDJkwY
1HK70oSMnAoFkoASU1IwHwYDVR0jBBgwFoAUq+DDJkwY1HK70oSMnAoFkoASU1Iw
DwYDVR0TAQH/BAUwAwEB/zAOBgNVHQ8BAf8EBAMCAYYwCgYIKoZIzj0EAwMDaAAw
ZQIxAL0uZ3FUvrheKRnTGPfhrnnwzAnDkcCBq9e3IfhP2rytDvw9VDIhOmfFJjXp
M7JY0gIwZC/7ENBltay7s0FkJOsKa66k7T7IYoFFl5KtYetpVM5Cg7toIyD3slpV
DNTmE0Jh
-----END CERTIFICATE-----
