Certificate:
    Data:
        Version: 3 (0x2)
        Serial Number:
            13:ad:2b:cb:23:10:9b:48:1f:5e:4d:02:bf:f4:f0:0f:66:aa:9b:25
        Signature Algorithm: ecdsa-with-SHA256
        Issuer: C=US, ST=Washington, L=Seattle, O=wolfSSL, OU=Development, CN=www.wolfssl.com, emailAddress=facts@wolfssl.com
        Validity
            Not Before: Jun 11 21:44:28 2026 GMT
            Not After : Mar  7 21:44:28 2029 GMT
        Subject: C=US, ST=Washington, L=Seattle, O=wolfSSL, OU=Development, CN=www.wolfssl.com, emailAddress=facts@wolfssl.com
        Subject Public Key Info:
            Public Key Algorithm: id-ecPublicKey
                Public-Key: (256 bit)
                pub:
                    04:02:d3:d9:6e:d6:01:8e:45:c8:b9:90:31:e5:c0:
                    4c:e3:9e:ad:29:38:98:ba:10:d6:e9:09:2a:80:a9:
                    2e:17:2a:b9:8a:bf:33:83:46:e3:95:0b:e4:77:40:
                    b5:3b:43:45:33:0f:61:53:7c:37:44:c1:cb:fc:80:
                    ca:e8:43:ea:a7
                ASN1 OID: prime256v1
                NIST CURVE: P-256
        X509v3 extensions:
            X509v3 Subject Key Identifier: 
                56:8E:9A:C3:F0:42:DE:18:B9:45:55:6E:F9:93:CF:EA:C3:F3:A5:21
            X509v3 Authority Key Identifier: 
                56:8E:9A:C3:F0:42:DE:18:B9:45:55:6E:F9:93:CF:EA:C3:F3:A5:21
            X509v3 Basic Constraints: critical
                CA:TRUE
            X509v3 Key Usage: critical
                Digital Signature, Certificate Sign, CRL Sign
    Signature Algorithm: ecdsa-with-SHA256
    Signature Value:
        30:45:02:20:3d:16:c7:71:cf:9f:5d:72:7f:c2:7e:94:37:e4:
        46:2f:58:03:77:54:c6:00:ac:0b:67:a9:89:df:db:30:18:c9:
        02:21:00:96:61:1b:13:b2:0b:9b:8a:79:d6:a9:d9:36:fd:d3:
        c9:4e:6c:ea:07:83:09:89:c4:f5:5d:58:64:ac:9e:d5:e1
-----BEGIN CERTIFICATE-----
MIIClzCCAj2gAwIBAgIUE60ryyMQm0gfXk0Cv/TwD2aqmyUwCgYIKoZIzj0EAwIw
gZgxCzAJBgNVBAYTAlVTMRMwEQYDVQQIDApXYXNoaW5ndG9uMRAwDgYDVQQHDAdT
ZWF0dGxlMRAwDgYDVQQKDAd3b2xmU1NMMRQwEgYDVQQLDAtEZXZlbG9wbWVudDEY
MBYGA1UEAwwPd3d3LndvbGZzc2wuY29tMSAwHgYJKoZIhvcNAQkBFhFmYWN0c0B3
b2xmc3NsLmNvbTAeFw0yNjA2MTEyMTQ0MjhaFw0yOTAzMDcyMTQ0MjhaMIGYMQsw
CQYDVQQGEwJVUzETMBEGA1UECAwKV2FzaGluZ3RvbjEQMA4GA1UEBwwHU2VhdHRs
ZTEQMA4GA1UECgwHd29sZlNTTDEUMBIGA1UECwwLRGV2ZWxvcG1lbnQxGDAWBgNV
BAMMD3d3dy53b2xmc3NsLmNvbTEgMB4GCSqGSIb3DQEJARYRZmFjdHNAd29sZnNz
bC5jb20wWTATBgcqhkjOPQIBBggqhkjOPQMBBwNCAAQC09lu1gGORci5kDHlwEzj
nq0pOJi6ENbpCSqAqS4XKrmKvzODRuOVC+R3QLU7Q0UzD2FTfDdEwcv8gMroQ+qn
o2MwYTAdBgNVHQ4EFgQUVo6aw/BC3hi5RVVu+ZPP6sPzpSEwHwYDVR0jBBgwFoAU
Vo6aw/BC3hi5RVVu+ZPP6sPzpSEwDwYDVR0TAQH/BAUwAwEB/zAOBgNVHQ8BAf8E
BAMCAYYwCgYIKoZIzj0EAwIDSAAwRQIgPRbHcc+fXXJ/wn6UN+RGL1gDd1TGAKwL
Z6mJ39swGMkCIQCWYRsTsgubinnWqdk2/dPJTmzqB4MJicT1XVhkrJ7V4Q==
-----END CERTIFICATE-----
