Certificate:
    Data:
        Version: 3 (0x2)
        Serial Number: 12125228858566244640 (0xa84577679727f920)
    Signature Algorithm: ecdsa-with-SHA384
        Issuer: C=US, ST=Washington, L=Seattle, O=wolfSSL, OU=Development, CN=www.wolfssl.com/emailAddress=info@wolfssl.com
        Validity
            Not Before: Oct 19 19:06:49 2017 GMT
            Not After : Oct 14 19:06:49 2037 GMT
        Subject: C=US, ST=Washington, L=Seattle, O=wolfSSL, OU=Development, CN=www.wolfssl.com/emailAddress=info@wolfssl.com
        Subject Public Key Info:
            Public Key Algorithm: id-ecPublicKey
                Public-Key: (384 bit)
                pub: 
                    04:11:3c:5c:d0:64:22:a7:0f:c8:b6:40:84:d7:e9:
                    42:13:88:b9:11:b5:8d:9e:bb:40:b4:9e:f7:20:35:
                    2b:f5:dc:59:70:00:19:32:63:de:56:55:6a:0b:d5:
                    29:ba:c1:26:53:3f:11:b4:9c:d1:0e:23:bf:03:2b:
                    46:45:4e:65:f4:77:22:0a:63:e2:49:5d:f0:a7:8c:
                    29:49:00:33:00:b1:40:19:bf:67:3f:d1:f2:4e:6e:
                    1d:18:81:50:eb:13:6a
                ASN1 OID: secp384r1
        X509v3 extensions:
            X509v3 Subject Key Identifier: 
                97:FD:B4:6D:CE:08:B3:02:57:AB:F3:40:D6:1D:AC:75:32:35:AA:F2
            X509v3 Authority Key Identifier: 
                keyid:97:FD:B4:6D:CE:08:B3:02:57:AB:F3:40:D6:1D:AC:75:32:35:AA:F2

            X509v3 Basic Constraints: critical
                CA:TRUE
            X509v3 Key Usage: critical
                Digital Signature, Certificate Sign, CRL Sign
    Signature Algorithm: ecdsa-with-SHA384
         30:65:02:31:00:9d:49:9e:68:10:55:b3:92:89:23:cf:58:fb:
         04:ee:ab:ed:3e:3c:f6:94:66:d1:bd:16:8e:ca:52:9f:39:f3:
         d6:47:c0:cb:45:e2:1e:c6:dd:50:08:37:37:ba:ae:e6:72:02:
         30:6b:38:53:41:32:3e:55:84:39:65:9b:a7:40:98:05:cd:16:
         fe:dd:54:3a:38:19:f0:63:b9:c1:45:46:dc:b4:4d:47:21:49:
         fc:5b:63:a8:16:4c:d8:3f:3b:a8:c9:fb:fa
-----BEGIN CERTIFICATE-----
MIICxzCCAk2gAwIBAgIJAKhFd2eXJ/kgMAoGCCqGSM49BAMDMIGXMQswCQYDVQQG
EwJVUzETMBEGA1UECAwKV2FzaGluZ3RvbjEQMA4GA1UEBwwHU2VhdHRsZTEQMA4G
A1UECgwHd29sZlNTTDEUMBIGA1UECwwLRGV2ZWxvcG1lbnQxGDAWBgNVBAMMD3d3
dy53b2xmc3NsLmNvbTEfMB0GCSqGSIb3DQEJARYQaW5mb0B3b2xmc3NsLmNvbTAe
Fw0xNzEwMTkxOTA2NDlaFw0zNzEwMTQxOTA2NDlaMIGXMQswCQYDVQQGEwJVUzET
MBEGA1UECAwKV2FzaGluZ3RvbjEQMA4GA1UEBwwHU2VhdHRsZTEQMA4GA1UECgwH
d29sZlNTTDEUMBIGA1UECwwLRGV2ZWxvcG1lbnQxGDAWBgNVBAMMD3d3dy53b2xm
c3NsLmNvbTEfMB0GCSqGSIb3DQEJARYQaW5mb0B3b2xmc3NsLmNvbTB2MBAGByqG
SM49AgEGBSuBBAAiA2IABBE8XNBkIqcPyLZAhNfpQhOIuRG1jZ67QLSe9yA1K/Xc
WXAAGTJj3lZVagvVKbrBJlM/EbSc0Q4jvwMrRkVOZfR3Igpj4kld8KeMKUkAMwCx
QBm/Zz/R8k5uHRiBUOsTaqNjMGEwHQYDVR0OBBYEFJf9tG3OCLMCV6vzQNYdrHUy
NaryMB8GA1UdIwQYMBaAFJf9tG3OCLMCV6vzQNYdrHUyNaryMA8GA1UdEwEB/wQF
MAMBAf8wDgYDVR0PAQH/BAQDAgGGMAoGCCqGSM49BAMDA2gAMGUCMQCdSZ5oEFWz
kokjz1j7BO6r7T489pRm0b0WjspSnznz1kfAy0XiHsbdUAg3N7qu5nICMGs4U0Ey
PlWEOWWbp0CYBc0W/t1UOjgZ8GO5wUVG3LRNRyFJ/FtjqBZM2D87qMn7+g==
-----END CERTIFICATE-----
