Certificate:
    Data:
        Version: 3 (0x2)
        Serial Number:
            07:fc:37:54:19:43:b3:66:fc:78:75:57:24:03:0d:f6:3e:60:47:f9
        Signature Algorithm: ecdsa-with-SHA384
        Issuer: C=US, ST=Washington, L=Seattle, O=wolfSSL, OU=Development, CN=www.wolfssl.com, emailAddress=facts@wolfssl.com
        Validity
            Not Before: Jun 11 21:44:29 2026 GMT
            Not After : Mar  7 21:44:29 2029 GMT
        Subject: C=US, ST=Washington, L=Seattle, O=wolfSSL, OU=Development, CN=www.wolfssl.com, emailAddress=facts@wolfssl.com
        Subject Public Key Info:
            Public Key Algorithm: id-ecPublicKey
                Public-Key: (384 bit)
                pub:
                    04:ee:82:d4:39:9a:b1:27:82:f4:d7:ea:c6:bc:03:
                    1d:4d:83:61:f4:03:ae:7e:bd:d8:5a:a5:b9:f0:8e:
                    a2:a5:da:ce:87:3b:5a:ab:44:16:9c:f5:9f:62:dd:
                    f6:20:cd:9c:76:3c:40:b1:3f:97:17:df:59:f6:cd:
                    de:cd:46:35:c0:ed:5e:2e:48:b6:66:91:71:74:b7:
                    0c:3f:b9:9a:b7:83:bd:93:3f:5f:50:2d:70:3f:de:
                    35:25:e1:90:3b:86:e0
                ASN1 OID: secp384r1
                NIST CURVE: P-384
        X509v3 extensions:
            X509v3 Subject Key Identifier: 
                AB:E0:C3:26:4C:18:D4:72:BB:D2:84:8C:9C:0A:05:92:80:12:53:52
            X509v3 Authority Key Identifier: 
                AB:E0:C3:26:4C:18:D4:72:BB:D2:84:8C:9C:0A:05:92:80:12:53:52
            X509v3 Basic Constraints: critical
                CA:TRUE
            X509v3 Key Usage: critical
                Digital Signature, Certificate Sign, CRL Sign
    Signature Algorithm: ecdsa-with-SHA384
    Signature Value:
        30:66:02:31:00:b5:e5:f9:ee:f8:32:f2:7f:18:b9:bd:a4:22:
        f7:05:49:44:20:f1:4f:df:ec:d9:03:a7:23:00:66:2a:e0:6f:
        81:61:cb:c3:e5:7c:09:95:ea:aa:b1:85:bf:ba:79:97:8e:02:
        31:00:bf:87:ae:61:e3:d1:b0:90:3f:06:56:26:30:70:d2:db:
        87:dc:6c:03:b2:9a:4e:7b:39:88:0a:ca:09:51:54:2d:42:1f:
        d7:dd:b5:2e:dd:8b:aa:a9:5f:8a:db:d0:6b:9f
-----BEGIN CERTIFICATE-----
MIIC1TCCAlqgAwIBAgIUB/w3VBlDs2b8eHVXJAMN9j5gR/kwCgYIKoZIzj0EAwMw
gZgxCzAJBgNVBAYTAlVTMRMwEQYDVQQIDApXYXNoaW5ndG9uMRAwDgYDVQQHDAdT
ZWF0dGxlMRAwDgYDVQQKDAd3b2xmU1NMMRQwEgYDVQQLDAtEZXZlbG9wbWVudDEY
MBYGA1UEAwwPd3d3LndvbGZzc2wuY29tMSAwHgYJKoZIhvcNAQkBFhFmYWN0c0B3
b2xmc3NsLmNvbTAeFw0yNjA2MTEyMTQ0MjlaFw0yOTAzMDcyMTQ0MjlaMIGYMQsw
CQYDVQQGEwJVUzETMBEGA1UECAwKV2FzaGluZ3RvbjEQMA4GA1UEBwwHU2VhdHRs
ZTEQMA4GA1UECgwHd29sZlNTTDEUMBIGA1UECwwLRGV2ZWxvcG1lbnQxGDAWBgNV
BAMMD3d3dy53b2xmc3NsLmNvbTEgMB4GCSqGSIb3DQEJARYRZmFjdHNAd29sZnNz
bC5jb20wdjAQBgcqhkjOPQIBBgUrgQQAIgNiAATugtQ5mrEngvTX6sa8Ax1Ng2H0
A65+vdhapbnwjqKl2s6HO1qrRBac9Z9i3fYgzZx2PECxP5cX31n2zd7NRjXA7V4u
SLZmkXF0tww/uZq3g72TP19QLXA/3jUl4ZA7huCjYzBhMB0GA1UdDgQWBBSr4MMm
TBjUcrvShIycCgWSgBJTUjAfBgNVHSMEGDAWgBSr4MMmTBjUcrvShIycCgWSgBJT
UjAPBgNVHRMBAf8EBTADAQH/MA4GA1UdDwEB/wQEAwIBhjAKBggqhkjOPQQDAwNp
ADBmAjEAteX57vgy8n8Yub2kIvcFSUQg8U/f7NkDpyMAZirgb4Fhy8PlfAmV6qqx
hb+6eZeOAjEAv4euYePRsJA/BlYmMHDS24fcbAOymk57OYgKyglRVC1CH9fdtS7d
i6qpX4rb0Guf
-----END CERTIFICATE-----
