Certificate:
    Data:
        Version: 3 (0x2)
        Serial Number:
            0f:17:46:70:fd:c2:70:d1:f9:42:49:9c:1a:c3:5d:dd:30:c8:5f:85
        Signature Algorithm: ecdsa-with-SHA256
        Issuer: C = US, ST = Washington, L = Seattle, O = wolfSSL, OU = Development, CN = www.wolfssl.com, emailAddress = info@wolfssl.com
        Validity
            Not Before: Dec 13 22:19:28 2023 GMT
            Not After : Sep  8 22:19:28 2026 GMT
        Subject: C = US, ST = Washington, L = Seattle, O = wolfSSL, OU = Development, CN = www.wolfssl.com, emailAddress = info@wolfssl.com
        Subject Public Key Info:
            Public Key Algorithm: id-ecPublicKey
                Public-Key: (256 bit)
                pub:
                    04:02:d3:d9:6e:d6:01:8e:45:c8:b9:90:31:e5:c0:
                    4c:e3:9e:ad:29:38:98:ba:10:d6:e9:09:2a:80:a9:
                    2e:17:2a:b9:8a:bf:33:83:46:e3:95:0b:e4:77:40:
                    b5:3b:43:45:33:0f:61:53:7c:37:44:c1:cb:fc:80:
                    ca:e8:43:ea:a7
                ASN1 OID: prime256v1
                NIST CURVE: P-256
        X509v3 extensions:
            X509v3 Subject Key Identifier: 
                56:8E:9A:C3:F0:42:DE:18:B9:45:55:6E:F9:93:CF:EA:C3:F3:A5:21
            X509v3 Authority Key Identifier: 
                keyid:56:8E:9A:C3:F0:42:DE:18:B9:45:55:6E:F9:93:CF:EA:C3:F3:A5:21

            X509v3 Basic Constraints: critical
                CA:TRUE
            X509v3 Key Usage: critical
                Digital Signature, Certificate Sign, CRL Sign
    Signature Algorithm: ecdsa-with-SHA256
         30:45:02:21:00:c8:64:7f:ee:4b:be:83:48:13:ea:92:f8:1a:
         82:1e:85:b1:5a:a4:1c:e3:e8:ea:25:44:6f:e7:70:fd:eb:f3:
         76:02:20:44:02:a2:ec:c5:a1:ae:e2:a4:8a:d9:13:95:2b:a6:
         5b:09:57:86:61:42:96:97:f0:95:62:0c:03:e6:53:04:25
-----BEGIN CERTIFICATE-----
MIIClTCCAjugAwIBAgIUDxdGcP3CcNH5QkmcGsNd3TDIX4UwCgYIKoZIzj0EAwIw
gZcxCzAJBgNVBAYTAlVTMRMwEQYDVQQIDApXYXNoaW5ndG9uMRAwDgYDVQQHDAdT
ZWF0dGxlMRAwDgYDVQQKDAd3b2xmU1NMMRQwEgYDVQQLDAtEZXZlbG9wbWVudDEY
MBYGA1UEAwwPd3d3LndvbGZzc2wuY29tMR8wHQYJKoZIhvcNAQkBFhBpbmZvQHdv
bGZzc2wuY29tMB4XDTIzMTIxMzIyMTkyOFoXDTI2MDkwODIyMTkyOFowgZcxCzAJ
BgNVBAYTAlVTMRMwEQYDVQQIDApXYXNoaW5ndG9uMRAwDgYDVQQHDAdTZWF0dGxl
MRAwDgYDVQQKDAd3b2xmU1NMMRQwEgYDVQQLDAtEZXZlbG9wbWVudDEYMBYGA1UE
AwwPd3d3LndvbGZzc2wuY29tMR8wHQYJKoZIhvcNAQkBFhBpbmZvQHdvbGZzc2wu
Y29tMFkwEwYHKoZIzj0CAQYIKoZIzj0DAQcDQgAEAtPZbtYBjkXIuZAx5cBM456t
KTiYuhDW6QkqgKkuFyq5ir8zg0bjlQvkd0C1O0NFMw9hU3w3RMHL/IDK6EPqp6Nj
MGEwHQYDVR0OBBYEFFaOmsPwQt4YuUVVbvmTz+rD86UhMB8GA1UdIwQYMBaAFFaO
msPwQt4YuUVVbvmTz+rD86UhMA8GA1UdEwEB/wQFMAMBAf8wDgYDVR0PAQH/BAQD
AgGGMAoGCCqGSM49BAMCA0gAMEUCIQDIZH/uS76DSBPqkvgagh6FsVqkHOPo6iVE
b+dw/evzdgIgRAKi7MWhruKkitkTlSumWwlXhmFClpfwlWIMA+ZTBCU=
-----END CERTIFICATE-----
