Certificate:
    Data:
        Version: 3 (0x2)
        Serial Number:
            29:66:97:2b:07:5d:f1:5b:37:1e:e8:5f:10:1c:c4:e9:aa:99:b7:73
        Signature Algorithm: ecdsa-with-SHA256
        Issuer: C=US, ST=Washington, L=Seattle, O=wolfSSL, OU=Development, CN=www.wolfssl.com, emailAddress=info@wolfssl.com
        Validity
            Not Before: Nov 13 20:41:12 2025 GMT
            Not After : Aug  9 20:41:12 2028 GMT
        Subject: C=US, ST=Washington, L=Seattle, O=wolfSSL, OU=Development, CN=www.wolfssl.com, emailAddress=info@wolfssl.com
        Subject Public Key Info:
            Public Key Algorithm: id-ecPublicKey
                Public-Key: (256 bit)
                pub:
                    04:02:d3:d9:6e:d6:01:8e:45:c8:b9:90:31:e5:c0:
                    4c:e3:9e:ad:29:38:98:ba:10:d6:e9:09:2a:80:a9:
                    2e:17:2a:b9:8a:bf:33:83:46:e3:95:0b:e4:77:40:
                    b5:3b:43:45:33:0f:61:53:7c:37:44:c1:cb:fc:80:
                    ca:e8:43:ea:a7
                ASN1 OID: prime256v1
                NIST CURVE: P-256
        X509v3 extensions:
            X509v3 Subject Key Identifier: 
                56:8E:9A:C3:F0:42:DE:18:B9:45:55:6E:F9:93:CF:EA:C3:F3:A5:21
            X509v3 Authority Key Identifier: 
                56:8E:9A:C3:F0:42:DE:18:B9:45:55:6E:F9:93:CF:EA:C3:F3:A5:21
            X509v3 Basic Constraints: critical
                CA:TRUE
            X509v3 Key Usage: critical
                Digital Signature, Certificate Sign, CRL Sign
    Signature Algorithm: ecdsa-with-SHA256
    Signature Value:
        30:44:02:20:40:55:70:46:7a:a1:eb:b5:c8:53:a7:78:b3:f3:
        b7:16:92:c5:9b:34:90:d5:44:68:a7:03:9b:9f:db:78:f0:51:
        02:20:61:a8:3a:c9:ff:ff:e9:63:c7:a7:14:d4:19:d2:9e:77:
        55:47:93:d1:7a:68:50:86:48:8f:3b:97:87:50:f5:42
-----BEGIN CERTIFICATE-----
MIIClDCCAjugAwIBAgIUKWaXKwdd8Vs3HuhfEBzE6aqZt3MwCgYIKoZIzj0EAwIw
gZcxCzAJBgNVBAYTAlVTMRMwEQYDVQQIDApXYXNoaW5ndG9uMRAwDgYDVQQHDAdT
ZWF0dGxlMRAwDgYDVQQKDAd3b2xmU1NMMRQwEgYDVQQLDAtEZXZlbG9wbWVudDEY
MBYGA1UEAwwPd3d3LndvbGZzc2wuY29tMR8wHQYJKoZIhvcNAQkBFhBpbmZvQHdv
bGZzc2wuY29tMB4XDTI1MTExMzIwNDExMloXDTI4MDgwOTIwNDExMlowgZcxCzAJ
BgNVBAYTAlVTMRMwEQYDVQQIDApXYXNoaW5ndG9uMRAwDgYDVQQHDAdTZWF0dGxl
MRAwDgYDVQQKDAd3b2xmU1NMMRQwEgYDVQQLDAtEZXZlbG9wbWVudDEYMBYGA1UE
AwwPd3d3LndvbGZzc2wuY29tMR8wHQYJKoZIhvcNAQkBFhBpbmZvQHdvbGZzc2wu
Y29tMFkwEwYHKoZIzj0CAQYIKoZIzj0DAQcDQgAEAtPZbtYBjkXIuZAx5cBM456t
KTiYuhDW6QkqgKkuFyq5ir8zg0bjlQvkd0C1O0NFMw9hU3w3RMHL/IDK6EPqp6Nj
MGEwHQYDVR0OBBYEFFaOmsPwQt4YuUVVbvmTz+rD86UhMB8GA1UdIwQYMBaAFFaO
msPwQt4YuUVVbvmTz+rD86UhMA8GA1UdEwEB/wQFMAMBAf8wDgYDVR0PAQH/BAQD
AgGGMAoGCCqGSM49BAMCA0cAMEQCIEBVcEZ6oeu1yFOneLPztxaSxZs0kNVEaKcD
m5/bePBRAiBhqDrJ///pY8enFNQZ0p53VUeT0XpoUIZIjzuXh1D1Qg==
-----END CERTIFICATE-----
