Certificate:
    Data:
        Version: 3 (0x2)
        Serial Number:
            67:a7:7b:83:4d:94:c2:18:53:0e:0c:98:82:c2:a2:5d:9e:3d:cd:b6
        Signature Algorithm: ecdsa-with-SHA384
        Issuer: C = US, ST = Washington, L = Seattle, O = wolfSSL, OU = Development, CN = www.wolfssl.com, emailAddress = info@wolfssl.com
        Validity
            Not Before: Feb 15 12:50:24 2022 GMT
            Not After : Nov 11 12:50:24 2024 GMT
        Subject: C = US, ST = Washington, L = Seattle, O = wolfSSL, OU = Development, CN = www.wolfssl.com, emailAddress = info@wolfssl.com
        Subject Public Key Info:
            Public Key Algorithm: id-ecPublicKey
                Public-Key: (384 bit)
                pub:
                    04:ee:82:d4:39:9a:b1:27:82:f4:d7:ea:c6:bc:03:
                    1d:4d:83:61:f4:03:ae:7e:bd:d8:5a:a5:b9:f0:8e:
                    a2:a5:da:ce:87:3b:5a:ab:44:16:9c:f5:9f:62:dd:
                    f6:20:cd:9c:76:3c:40:b1:3f:97:17:df:59:f6:cd:
                    de:cd:46:35:c0:ed:5e:2e:48:b6:66:91:71:74:b7:
                    0c:3f:b9:9a:b7:83:bd:93:3f:5f:50:2d:70:3f:de:
                    35:25:e1:90:3b:86:e0
                ASN1 OID: secp384r1
                NIST CURVE: P-384
        X509v3 extensions:
            X509v3 Subject Key Identifier: 
                AB:E0:C3:26:4C:18:D4:72:BB:D2:84:8C:9C:0A:05:92:80:12:53:52
            X509v3 Authority Key Identifier: 
                keyid:AB:E0:C3:26:4C:18:D4:72:BB:D2:84:8C:9C:0A:05:92:80:12:53:52

            X509v3 Basic Constraints: critical
                CA:TRUE
            X509v3 Key Usage: critical
                Digital Signature, Certificate Sign, CRL Sign
    Signature Algorithm: ecdsa-with-SHA384
         30:66:02:31:00:da:8a:d6:c6:2f:16:82:4b:0b:e1:16:58:2a:
         c3:f2:6a:c7:4a:68:8f:f8:cd:d9:90:95:6d:0e:c7:e1:41:2b:
         a1:c1:79:26:f7:bb:ca:40:c3:73:d7:96:9f:e4:02:31:33:02:
         31:00:b1:d0:27:de:94:6b:22:f2:d8:2c:14:a7:95:57:9c:a4:
         08:be:33:46:08:29:d3:a9:9a:48:3e:3b:c5:6f:3c:18:d5:61:
         43:03:fc:dc:b5:ca:01:c3:48:87:e8:96:1f:98
-----BEGIN CERTIFICATE-----
MIIC0zCCAligAwIBAgIUZ6d7g02UwhhTDgyYgsKiXZ49zbYwCgYIKoZIzj0EAwMw
gZcxCzAJBgNVBAYTAlVTMRMwEQYDVQQIDApXYXNoaW5ndG9uMRAwDgYDVQQHDAdT
ZWF0dGxlMRAwDgYDVQQKDAd3b2xmU1NMMRQwEgYDVQQLDAtEZXZlbG9wbWVudDEY
MBYGA1UEAwwPd3d3LndvbGZzc2wuY29tMR8wHQYJKoZIhvcNAQkBFhBpbmZvQHdv
bGZzc2wuY29tMB4XDTIyMDIxNTEyNTAyNFoXDTI0MTExMTEyNTAyNFowgZcxCzAJ
BgNVBAYTAlVTMRMwEQYDVQQIDApXYXNoaW5ndG9uMRAwDgYDVQQHDAdTZWF0dGxl
MRAwDgYDVQQKDAd3b2xmU1NMMRQwEgYDVQQLDAtEZXZlbG9wbWVudDEYMBYGA1UE
AwwPd3d3LndvbGZzc2wuY29tMR8wHQYJKoZIhvcNAQkBFhBpbmZvQHdvbGZzc2wu
Y29tMHYwEAYHKoZIzj0CAQYFK4EEACIDYgAE7oLUOZqxJ4L01+rGvAMdTYNh9AOu
fr3YWqW58I6ipdrOhztaq0QWnPWfYt32IM2cdjxAsT+XF99Z9s3ezUY1wO1eLki2
ZpFxdLcMP7mat4O9kz9fUC1wP941JeGQO4bgo2MwYTAdBgNVHQ4EFgQUq+DDJkwY
1HK70oSMnAoFkoASU1IwHwYDVR0jBBgwFoAUq+DDJkwY1HK70oSMnAoFkoASU1Iw
DwYDVR0TAQH/BAUwAwEB/zAOBgNVHQ8BAf8EBAMCAYYwCgYIKoZIzj0EAwMDaQAw
ZgIxANqK1sYvFoJLC+EWWCrD8mrHSmiP+M3ZkJVtDsfhQSuhwXkm97vKQMNz15af
5AIxMwIxALHQJ96UayLy2CwUp5VXnKQIvjNGCCnTqZpIPjvFbzwY1WFDA/zctcoB
w0iH6JYfmA==
-----END CERTIFICATE-----
