Certificate:
    Data:
        Version: 3 (0x2)
        Serial Number: 10982604883445917224 (0x986a0cf40243a628)
    Signature Algorithm: ecdsa-with-SHA256
        Issuer: C=US, ST=Washington, L=Seattle, O=wolfSSL, OU=Development, CN=www.wolfssl.com/emailAddress=info@wolfssl.com
        Validity
            Not Before: Oct 19 19:06:49 2017 GMT
            Not After : Oct 14 19:06:49 2037 GMT
        Subject: C=US, ST=Washington, L=Seattle, O=wolfSSL, OU=Development, CN=www.wolfssl.com/emailAddress=info@wolfssl.com
        Subject Public Key Info:
            Public Key Algorithm: id-ecPublicKey
                Public-Key: (256 bit)
                pub: 
                    04:e6:38:df:16:e3:4b:ea:aa:9f:91:a3:f3:32:40:
                    f6:6c:7e:a1:55:01:38:05:fe:6b:39:37:1c:ea:f9:
                    f9:4d:87:4b:2d:2f:4b:54:e5:9b:4a:1a:ba:0d:02:
                    a5:1c:ec:c1:51:30:c9:3c:94:ac:2e:5b:2f:40:f6:
                    3c:a7:7a:d0:68
                ASN1 OID: prime256v1
        X509v3 extensions:
            X509v3 Subject Key Identifier: 
                FD:9D:85:D5:C1:6F:47:EA:C6:75:96:59:25:37:46:8C:61:DB:E1:C3
            X509v3 Authority Key Identifier: 
                keyid:FD:9D:85:D5:C1:6F:47:EA:C6:75:96:59:25:37:46:8C:61:DB:E1:C3

            X509v3 Basic Constraints: critical
                CA:TRUE
            X509v3 Key Usage: critical
                Digital Signature, Certificate Sign, CRL Sign
    Signature Algorithm: ecdsa-with-SHA256
         30:44:02:20:03:cf:3f:6e:26:f7:76:be:98:81:20:57:6b:4a:
         55:f7:16:19:21:a0:4c:c8:a1:19:83:4c:66:55:2d:43:36:e1:
         02:20:4d:26:29:2b:f2:38:94:85:7e:a0:13:b6:c5:8d:61:be:
         96:15:ad:fe:ae:61:ed:a1:88:f9:79:c6:40:57:e4:9b
-----BEGIN CERTIFICATE-----
MIICiTCCAjCgAwIBAgIJAJhqDPQCQ6YoMAoGCCqGSM49BAMCMIGXMQswCQYDVQQG
EwJVUzETMBEGA1UECAwKV2FzaGluZ3RvbjEQMA4GA1UEBwwHU2VhdHRsZTEQMA4G
A1UECgwHd29sZlNTTDEUMBIGA1UECwwLRGV2ZWxvcG1lbnQxGDAWBgNVBAMMD3d3
dy53b2xmc3NsLmNvbTEfMB0GCSqGSIb3DQEJARYQaW5mb0B3b2xmc3NsLmNvbTAe
Fw0xNzEwMTkxOTA2NDlaFw0zNzEwMTQxOTA2NDlaMIGXMQswCQYDVQQGEwJVUzET
MBEGA1UECAwKV2FzaGluZ3RvbjEQMA4GA1UEBwwHU2VhdHRsZTEQMA4GA1UECgwH
d29sZlNTTDEUMBIGA1UECwwLRGV2ZWxvcG1lbnQxGDAWBgNVBAMMD3d3dy53b2xm
c3NsLmNvbTEfMB0GCSqGSIb3DQEJARYQaW5mb0B3b2xmc3NsLmNvbTBZMBMGByqG
SM49AgEGCCqGSM49AwEHA0IABOY43xbjS+qqn5Gj8zJA9mx+oVUBOAX+azk3HOr5
+U2HSy0vS1Tlm0oaug0CpRzswVEwyTyUrC5bL0D2PKd60GijYzBhMB0GA1UdDgQW
BBT9nYXVwW9H6sZ1llklN0aMYdvhwzAfBgNVHSMEGDAWgBT9nYXVwW9H6sZ1llkl
N0aMYdvhwzAPBgNVHRMBAf8EBTADAQH/MA4GA1UdDwEB/wQEAwIBhjAKBggqhkjO
PQQDAgNHADBEAiADzz9uJvd2vpiBIFdrSlX3FhkhoEzIoRmDTGZVLUM24QIgTSYp
K/I4lIV+oBO2xY1hvpYVrf6uYe2hiPl5xkBX5Js=
-----END CERTIFICATE-----
