Certificate:
    Data:
        Version: 3 (0x2)
        Serial Number:
            5f:b1:4e:91:98:c0:60:33:b2:ae:31:e4:61:c7:80:1a:f5:be:40:b7
        Signature Algorithm: ecdsa-with-SHA384
        Issuer: C=US, ST=Washington, L=Seattle, O=wolfSSL, OU=Development, CN=www.wolfssl.com, emailAddress=info@wolfssl.com
        Validity
            Not Before: Nov 13 20:41:12 2025 GMT
            Not After : Aug  9 20:41:12 2028 GMT
        Subject: C=US, ST=Washington, L=Seattle, O=wolfSSL, OU=Development, CN=www.wolfssl.com, emailAddress=info@wolfssl.com
        Subject Public Key Info:
            Public Key Algorithm: id-ecPublicKey
                Public-Key: (384 bit)
                pub:
                    04:ee:82:d4:39:9a:b1:27:82:f4:d7:ea:c6:bc:03:
                    1d:4d:83:61:f4:03:ae:7e:bd:d8:5a:a5:b9:f0:8e:
                    a2:a5:da:ce:87:3b:5a:ab:44:16:9c:f5:9f:62:dd:
                    f6:20:cd:9c:76:3c:40:b1:3f:97:17:df:59:f6:cd:
                    de:cd:46:35:c0:ed:5e:2e:48:b6:66:91:71:74:b7:
                    0c:3f:b9:9a:b7:83:bd:93:3f:5f:50:2d:70:3f:de:
                    35:25:e1:90:3b:86:e0
                ASN1 OID: secp384r1
                NIST CURVE: P-384
        X509v3 extensions:
            X509v3 Subject Key Identifier: 
                AB:E0:C3:26:4C:18:D4:72:BB:D2:84:8C:9C:0A:05:92:80:12:53:52
            X509v3 Authority Key Identifier: 
                AB:E0:C3:26:4C:18:D4:72:BB:D2:84:8C:9C:0A:05:92:80:12:53:52
            X509v3 Basic Constraints: critical
                CA:TRUE
            X509v3 Key Usage: critical
                Digital Signature, Certificate Sign, CRL Sign
    Signature Algorithm: ecdsa-with-SHA384
    Signature Value:
        30:65:02:31:00:a8:5a:b8:bb:38:90:e1:3e:39:e0:28:66:19:
        69:39:3b:ac:94:a8:5d:d8:03:60:76:29:88:f9:23:3e:22:31:
        19:df:0d:c4:c0:11:ec:89:38:a1:a5:01:96:87:e5:29:66:02:
        30:42:c8:cc:cf:fe:c1:33:f3:a4:79:f2:6a:df:6a:69:d9:bd:
        18:f0:13:ae:f8:0d:d4:8f:02:e7:b1:43:89:ae:2a:f8:cb:30:
        0e:96:7d:06:22:83:06:75:8c:4d:ff:c4:59
-----BEGIN CERTIFICATE-----
MIIC0jCCAligAwIBAgIUX7FOkZjAYDOyrjHkYceAGvW+QLcwCgYIKoZIzj0EAwMw
gZcxCzAJBgNVBAYTAlVTMRMwEQYDVQQIDApXYXNoaW5ndG9uMRAwDgYDVQQHDAdT
ZWF0dGxlMRAwDgYDVQQKDAd3b2xmU1NMMRQwEgYDVQQLDAtEZXZlbG9wbWVudDEY
MBYGA1UEAwwPd3d3LndvbGZzc2wuY29tMR8wHQYJKoZIhvcNAQkBFhBpbmZvQHdv
bGZzc2wuY29tMB4XDTI1MTExMzIwNDExMloXDTI4MDgwOTIwNDExMlowgZcxCzAJ
BgNVBAYTAlVTMRMwEQYDVQQIDApXYXNoaW5ndG9uMRAwDgYDVQQHDAdTZWF0dGxl
MRAwDgYDVQQKDAd3b2xmU1NMMRQwEgYDVQQLDAtEZXZlbG9wbWVudDEYMBYGA1UE
AwwPd3d3LndvbGZzc2wuY29tMR8wHQYJKoZIhvcNAQkBFhBpbmZvQHdvbGZzc2wu
Y29tMHYwEAYHKoZIzj0CAQYFK4EEACIDYgAE7oLUOZqxJ4L01+rGvAMdTYNh9AOu
fr3YWqW58I6ipdrOhztaq0QWnPWfYt32IM2cdjxAsT+XF99Z9s3ezUY1wO1eLki2
ZpFxdLcMP7mat4O9kz9fUC1wP941JeGQO4bgo2MwYTAdBgNVHQ4EFgQUq+DDJkwY
1HK70oSMnAoFkoASU1IwHwYDVR0jBBgwFoAUq+DDJkwY1HK70oSMnAoFkoASU1Iw
DwYDVR0TAQH/BAUwAwEB/zAOBgNVHQ8BAf8EBAMCAYYwCgYIKoZIzj0EAwMDaAAw
ZQIxAKhauLs4kOE+OeAoZhlpOTuslKhd2ANgdimI+SM+IjEZ3w3EwBHsiTihpQGW
h+UpZgIwQsjMz/7BM/OkefJq32pp2b0Y8BOu+A3UjwLnsUOJrir4yzAOln0GIoMG
dYxN/8RZ
-----END CERTIFICATE-----
