Certificate:
    Data:
        Version: 3 (0x2)
        Serial Number: 12132976075216541034 (0xa860fd750798556a)
    Signature Algorithm: ecdsa-with-SHA384
        Issuer: C=US, ST=Washington, L=Seattle, O=wolfSSL, OU=Development, CN=www.wolfssl.com/emailAddress=info@wolfssl.com
        Validity
            Not Before: Feb 10 19:49:53 2021 GMT
            Not After : Nov  7 19:49:53 2023 GMT
        Subject: C=US, ST=Washington, L=Seattle, O=wolfSSL, OU=Development, CN=www.wolfssl.com/emailAddress=info@wolfssl.com
        Subject Public Key Info:
            Public Key Algorithm: id-ecPublicKey
                Public-Key: (384 bit)
                pub: 
                    04:ee:82:d4:39:9a:b1:27:82:f4:d7:ea:c6:bc:03:
                    1d:4d:83:61:f4:03:ae:7e:bd:d8:5a:a5:b9:f0:8e:
                    a2:a5:da:ce:87:3b:5a:ab:44:16:9c:f5:9f:62:dd:
                    f6:20:cd:9c:76:3c:40:b1:3f:97:17:df:59:f6:cd:
                    de:cd:46:35:c0:ed:5e:2e:48:b6:66:91:71:74:b7:
                    0c:3f:b9:9a:b7:83:bd:93:3f:5f:50:2d:70:3f:de:
                    35:25:e1:90:3b:86:e0
                ASN1 OID: secp384r1
                NIST CURVE: P-384
        X509v3 extensions:
            X509v3 Subject Key Identifier: 
                AB:E0:C3:26:4C:18:D4:72:BB:D2:84:8C:9C:0A:05:92:80:12:53:52
            X509v3 Authority Key Identifier: 
                keyid:AB:E0:C3:26:4C:18:D4:72:BB:D2:84:8C:9C:0A:05:92:80:12:53:52

            X509v3 Basic Constraints: critical
                CA:TRUE
            X509v3 Key Usage: critical
                Digital Signature, Certificate Sign, CRL Sign
    Signature Algorithm: ecdsa-with-SHA384
         30:65:02:30:47:a2:36:33:f4:27:bd:d0:5c:e6:8d:3e:31:a9:
         4e:51:57:a9:93:28:72:0a:72:ab:6e:f9:56:c0:f5:70:02:9f:
         9c:b2:4a:9c:3e:9f:fb:c5:64:26:7a:88:dc:4a:2a:25:02:31:
         00:88:f8:e2:d5:20:82:f2:de:7b:cb:13:ac:cd:ff:e8:1e:4e:
         84:3d:9c:af:5d:f9:01:e7:4f:d4:03:09:84:3d:7b:2b:83:e2:
         ae:08:68:2e:5b:85:6f:43:f5:41:e0:c7:c9
-----BEGIN CERTIFICATE-----
MIICxzCCAk2gAwIBAgIJAKhg/XUHmFVqMAoGCCqGSM49BAMDMIGXMQswCQYDVQQG
EwJVUzETMBEGA1UECAwKV2FzaGluZ3RvbjEQMA4GA1UEBwwHU2VhdHRsZTEQMA4G
A1UECgwHd29sZlNTTDEUMBIGA1UECwwLRGV2ZWxvcG1lbnQxGDAWBgNVBAMMD3d3
dy53b2xmc3NsLmNvbTEfMB0GCSqGSIb3DQEJARYQaW5mb0B3b2xmc3NsLmNvbTAe
Fw0yMTAyMTAxOTQ5NTNaFw0yMzExMDcxOTQ5NTNaMIGXMQswCQYDVQQGEwJVUzET
MBEGA1UECAwKV2FzaGluZ3RvbjEQMA4GA1UEBwwHU2VhdHRsZTEQMA4GA1UECgwH
d29sZlNTTDEUMBIGA1UECwwLRGV2ZWxvcG1lbnQxGDAWBgNVBAMMD3d3dy53b2xm
c3NsLmNvbTEfMB0GCSqGSIb3DQEJARYQaW5mb0B3b2xmc3NsLmNvbTB2MBAGByqG
SM49AgEGBSuBBAAiA2IABO6C1DmasSeC9NfqxrwDHU2DYfQDrn692FqlufCOoqXa
zoc7WqtEFpz1n2Ld9iDNnHY8QLE/lxffWfbN3s1GNcDtXi5ItmaRcXS3DD+5mreD
vZM/X1AtcD/eNSXhkDuG4KNjMGEwHQYDVR0OBBYEFKvgwyZMGNRyu9KEjJwKBZKA
ElNSMB8GA1UdIwQYMBaAFKvgwyZMGNRyu9KEjJwKBZKAElNSMA8GA1UdEwEB/wQF
MAMBAf8wDgYDVR0PAQH/BAQDAgGGMAoGCCqGSM49BAMDA2gAMGUCMEeiNjP0J73Q
XOaNPjGpTlFXqZMocgpyq275VsD1cAKfnLJKnD6f+8VkJnqI3EoqJQIxAIj44tUg
gvLee8sTrM3/6B5OhD2cr135AedP1AMJhD17K4PirghoLluFb0P1QeDHyQ==
-----END CERTIFICATE-----
