Certificate:
    Data:
        Version: 3 (0x2)
        Serial Number:
            30:b9:30:50:f8:1a:0d:ff:ad:68:d1:6d:e8:a3:6b:58:23:33:7a:84
        Signature Algorithm: ecdsa-with-SHA256
        Issuer: C = US, ST = Washington, L = Seattle, O = wolfSSL, OU = Development, CN = www.wolfssl.com, emailAddress = info@wolfssl.com
        Validity
            Not Before: Dec 18 21:25:29 2024 GMT
            Not After : Sep 14 21:25:29 2027 GMT
        Subject: C = US, ST = Washington, L = Seattle, O = wolfSSL, OU = Development, CN = www.wolfssl.com, emailAddress = info@wolfssl.com
        Subject Public Key Info:
            Public Key Algorithm: id-ecPublicKey
                Public-Key: (256 bit)
                pub:
                    04:02:d3:d9:6e:d6:01:8e:45:c8:b9:90:31:e5:c0:
                    4c:e3:9e:ad:29:38:98:ba:10:d6:e9:09:2a:80:a9:
                    2e:17:2a:b9:8a:bf:33:83:46:e3:95:0b:e4:77:40:
                    b5:3b:43:45:33:0f:61:53:7c:37:44:c1:cb:fc:80:
                    ca:e8:43:ea:a7
                ASN1 OID: prime256v1
                NIST CURVE: P-256
        X509v3 extensions:
            X509v3 Subject Key Identifier: 
                56:8E:9A:C3:F0:42:DE:18:B9:45:55:6E:F9:93:CF:EA:C3:F3:A5:21
            X509v3 Authority Key Identifier: 
                56:8E:9A:C3:F0:42:DE:18:B9:45:55:6E:F9:93:CF:EA:C3:F3:A5:21
            X509v3 Basic Constraints: critical
                CA:TRUE
            X509v3 Key Usage: critical
                Digital Signature, Certificate Sign, CRL Sign
    Signature Algorithm: ecdsa-with-SHA256
    Signature Value:
        30:45:02:21:00:88:cc:7f:00:f5:a9:4e:c0:69:6e:36:39:24:
        8f:83:45:4d:fa:d0:39:14:b8:c8:7f:95:51:f2:c5:98:c0:b7:
        e2:02:20:2a:93:61:b0:06:de:eb:da:fd:af:6b:39:bf:88:17:
        f1:ba:2a:7d:59:a8:de:e7:0a:11:83:4f:92:77:8d:92:3b
-----BEGIN CERTIFICATE-----
MIIClTCCAjugAwIBAgIUMLkwUPgaDf+taNFt6KNrWCMzeoQwCgYIKoZIzj0EAwIw
gZcxCzAJBgNVBAYTAlVTMRMwEQYDVQQIDApXYXNoaW5ndG9uMRAwDgYDVQQHDAdT
ZWF0dGxlMRAwDgYDVQQKDAd3b2xmU1NMMRQwEgYDVQQLDAtEZXZlbG9wbWVudDEY
MBYGA1UEAwwPd3d3LndvbGZzc2wuY29tMR8wHQYJKoZIhvcNAQkBFhBpbmZvQHdv
bGZzc2wuY29tMB4XDTI0MTIxODIxMjUyOVoXDTI3MDkxNDIxMjUyOVowgZcxCzAJ
BgNVBAYTAlVTMRMwEQYDVQQIDApXYXNoaW5ndG9uMRAwDgYDVQQHDAdTZWF0dGxl
MRAwDgYDVQQKDAd3b2xmU1NMMRQwEgYDVQQLDAtEZXZlbG9wbWVudDEYMBYGA1UE
AwwPd3d3LndvbGZzc2wuY29tMR8wHQYJKoZIhvcNAQkBFhBpbmZvQHdvbGZzc2wu
Y29tMFkwEwYHKoZIzj0CAQYIKoZIzj0DAQcDQgAEAtPZbtYBjkXIuZAx5cBM456t
KTiYuhDW6QkqgKkuFyq5ir8zg0bjlQvkd0C1O0NFMw9hU3w3RMHL/IDK6EPqp6Nj
MGEwHQYDVR0OBBYEFFaOmsPwQt4YuUVVbvmTz+rD86UhMB8GA1UdIwQYMBaAFFaO
msPwQt4YuUVVbvmTz+rD86UhMA8GA1UdEwEB/wQFMAMBAf8wDgYDVR0PAQH/BAQD
AgGGMAoGCCqGSM49BAMCA0gAMEUCIQCIzH8A9alOwGluNjkkj4NFTfrQORS4yH+V
UfLFmMC34gIgKpNhsAbe69r9r2s5v4gX8boqfVmo3ucKEYNPkneNkjs=
-----END CERTIFICATE-----
