Certificate:
    Data:
        Version: 3 (0x2)
        Serial Number: 9459666439398825038 (0x83477c81d60d1c4e)
    Signature Algorithm: ecdsa-with-SHA256
        Issuer: C=US, ST=Washington, L=Seattle, O=wolfSSL, OU=Development, CN=www.wolfssl.com/emailAddress=info@wolfssl.com
        Validity
            Not Before: Feb 10 19:49:53 2021 GMT
            Not After : Nov  7 19:49:53 2023 GMT
        Subject: C=US, ST=Washington, L=Seattle, O=wolfSSL, OU=Development, CN=www.wolfssl.com/emailAddress=info@wolfssl.com
        Subject Public Key Info:
            Public Key Algorithm: id-ecPublicKey
                Public-Key: (256 bit)
                pub: 
                    04:02:d3:d9:6e:d6:01:8e:45:c8:b9:90:31:e5:c0:
                    4c:e3:9e:ad:29:38:98:ba:10:d6:e9:09:2a:80:a9:
                    2e:17:2a:b9:8a:bf:33:83:46:e3:95:0b:e4:77:40:
                    b5:3b:43:45:33:0f:61:53:7c:37:44:c1:cb:fc:80:
                    ca:e8:43:ea:a7
                ASN1 OID: prime256v1
                NIST CURVE: P-256
        X509v3 extensions:
            X509v3 Subject Key Identifier: 
                56:8E:9A:C3:F0:42:DE:18:B9:45:55:6E:F9:93:CF:EA:C3:F3:A5:21
            X509v3 Authority Key Identifier: 
                keyid:56:8E:9A:C3:F0:42:DE:18:B9:45:55:6E:F9:93:CF:EA:C3:F3:A5:21

            X509v3 Basic Constraints: critical
                CA:TRUE
            X509v3 Key Usage: critical
                Digital Signature, Certificate Sign, CRL Sign
    Signature Algorithm: ecdsa-with-SHA256
         30:45:02:21:00:c5:83:ff:1e:51:f7:a1:e9:f1:42:c4:be:ed:
         38:bd:38:32:8f:ae:3f:c7:6d:11:90:e9:99:ab:61:a2:db:a7:
         4b:02:20:28:40:d9:ba:45:cc:a6:ea:fa:3f:3e:71:44:8e:02:
         03:2f:41:0b:56:78:2d:a6:e8:5e:f6:ff:da:62:8c:f9:df
-----BEGIN CERTIFICATE-----
MIICijCCAjCgAwIBAgIJAINHfIHWDRxOMAoGCCqGSM49BAMCMIGXMQswCQYDVQQG
EwJVUzETMBEGA1UECAwKV2FzaGluZ3RvbjEQMA4GA1UEBwwHU2VhdHRsZTEQMA4G
A1UECgwHd29sZlNTTDEUMBIGA1UECwwLRGV2ZWxvcG1lbnQxGDAWBgNVBAMMD3d3
dy53b2xmc3NsLmNvbTEfMB0GCSqGSIb3DQEJARYQaW5mb0B3b2xmc3NsLmNvbTAe
Fw0yMTAyMTAxOTQ5NTNaFw0yMzExMDcxOTQ5NTNaMIGXMQswCQYDVQQGEwJVUzET
MBEGA1UECAwKV2FzaGluZ3RvbjEQMA4GA1UEBwwHU2VhdHRsZTEQMA4GA1UECgwH
d29sZlNTTDEUMBIGA1UECwwLRGV2ZWxvcG1lbnQxGDAWBgNVBAMMD3d3dy53b2xm
c3NsLmNvbTEfMB0GCSqGSIb3DQEJARYQaW5mb0B3b2xmc3NsLmNvbTBZMBMGByqG
SM49AgEGCCqGSM49AwEHA0IABALT2W7WAY5FyLmQMeXATOOerSk4mLoQ1ukJKoCp
LhcquYq/M4NG45UL5HdAtTtDRTMPYVN8N0TBy/yAyuhD6qejYzBhMB0GA1UdDgQW
BBRWjprD8ELeGLlFVW75k8/qw/OlITAfBgNVHSMEGDAWgBRWjprD8ELeGLlFVW75
k8/qw/OlITAPBgNVHRMBAf8EBTADAQH/MA4GA1UdDwEB/wQEAwIBhjAKBggqhkjO
PQQDAgNIADBFAiEAxYP/HlH3oenxQsS+7Ti9ODKPrj/HbRGQ6ZmrYaLbp0sCIChA
2bpFzKbq+j8+cUSOAgMvQQtWeC2m6F72/9pijPnf
-----END CERTIFICATE-----
