Certificate:
    Data:
        Version: 3 (0x2)
        Serial Number:
            1a:57:7f:62:de:7e:f2:6d:93:d2:83:35:86:82:7f:09:5a:8b:a4:09
        Signature Algorithm: ecdsa-with-SHA384
        Issuer: C = US, ST = Washington, L = Seattle, O = wolfSSL, OU = Development, CN = www.wolfssl.com, emailAddress = info@wolfssl.com
        Validity
            Not Before: Dec 20 23:07:24 2021 GMT
            Not After : Sep 15 23:07:24 2024 GMT
        Subject: C = US, ST = Washington, L = Seattle, O = wolfSSL, OU = Development, CN = www.wolfssl.com, emailAddress = info@wolfssl.com
        Subject Public Key Info:
            Public Key Algorithm: id-ecPublicKey
                Public-Key: (384 bit)
                pub:
                    04:ee:82:d4:39:9a:b1:27:82:f4:d7:ea:c6:bc:03:
                    1d:4d:83:61:f4:03:ae:7e:bd:d8:5a:a5:b9:f0:8e:
                    a2:a5:da:ce:87:3b:5a:ab:44:16:9c:f5:9f:62:dd:
                    f6:20:cd:9c:76:3c:40:b1:3f:97:17:df:59:f6:cd:
                    de:cd:46:35:c0:ed:5e:2e:48:b6:66:91:71:74:b7:
                    0c:3f:b9:9a:b7:83:bd:93:3f:5f:50:2d:70:3f:de:
                    35:25:e1:90:3b:86:e0
                ASN1 OID: secp384r1
                NIST CURVE: P-384
        X509v3 extensions:
            X509v3 Subject Key Identifier: 
                AB:E0:C3:26:4C:18:D4:72:BB:D2:84:8C:9C:0A:05:92:80:12:53:52
            X509v3 Authority Key Identifier: 
                keyid:AB:E0:C3:26:4C:18:D4:72:BB:D2:84:8C:9C:0A:05:92:80:12:53:52

            X509v3 Basic Constraints: critical
                CA:TRUE
            X509v3 Key Usage: critical
                Digital Signature, Certificate Sign, CRL Sign
    Signature Algorithm: ecdsa-with-SHA384
         30:65:02:30:78:da:52:4f:11:fa:4f:a9:7b:02:af:63:40:a7:
         54:bf:08:8b:cb:e4:ce:7d:35:38:46:d9:90:40:f5:f1:16:42:
         e5:ef:7b:b0:8f:3d:b0:a0:07:a6:23:3e:8f:a3:be:57:02:31:
         00:de:d2:23:84:4c:71:6a:2e:d0:17:73:55:b2:8b:e7:ac:4f:
         83:21:f8:f1:7a:9a:f5:8b:a5:17:7b:06:03:dc:7e:90:29:81:
         3e:6f:70:e7:50:f0:d4:a6:96:dc:28:51:96
-----BEGIN CERTIFICATE-----
MIIC0jCCAligAwIBAgIUGld/Yt5+8m2T0oM1hoJ/CVqLpAkwCgYIKoZIzj0EAwMw
gZcxCzAJBgNVBAYTAlVTMRMwEQYDVQQIDApXYXNoaW5ndG9uMRAwDgYDVQQHDAdT
ZWF0dGxlMRAwDgYDVQQKDAd3b2xmU1NMMRQwEgYDVQQLDAtEZXZlbG9wbWVudDEY
MBYGA1UEAwwPd3d3LndvbGZzc2wuY29tMR8wHQYJKoZIhvcNAQkBFhBpbmZvQHdv
bGZzc2wuY29tMB4XDTIxMTIyMDIzMDcyNFoXDTI0MDkxNTIzMDcyNFowgZcxCzAJ
BgNVBAYTAlVTMRMwEQYDVQQIDApXYXNoaW5ndG9uMRAwDgYDVQQHDAdTZWF0dGxl
MRAwDgYDVQQKDAd3b2xmU1NMMRQwEgYDVQQLDAtEZXZlbG9wbWVudDEYMBYGA1UE
AwwPd3d3LndvbGZzc2wuY29tMR8wHQYJKoZIhvcNAQkBFhBpbmZvQHdvbGZzc2wu
Y29tMHYwEAYHKoZIzj0CAQYFK4EEACIDYgAE7oLUOZqxJ4L01+rGvAMdTYNh9AOu
fr3YWqW58I6ipdrOhztaq0QWnPWfYt32IM2cdjxAsT+XF99Z9s3ezUY1wO1eLki2
ZpFxdLcMP7mat4O9kz9fUC1wP941JeGQO4bgo2MwYTAdBgNVHQ4EFgQUq+DDJkwY
1HK70oSMnAoFkoASU1IwHwYDVR0jBBgwFoAUq+DDJkwY1HK70oSMnAoFkoASU1Iw
DwYDVR0TAQH/BAUwAwEB/zAOBgNVHQ8BAf8EBAMCAYYwCgYIKoZIzj0EAwMDaAAw
ZQIweNpSTxH6T6l7Aq9jQKdUvwiLy+TOfTU4RtmQQPXxFkLl73uwjz2woAemIz6P
o75XAjEA3tIjhExxai7QF3NVsovnrE+DIfjxepr1i6UXewYD3H6QKYE+b3DnUPDU
ppbcKFGW
-----END CERTIFICATE-----
