Certificate:
    Data:
        Version: 3 (0x2)
        Serial Number:
            20:da:85:3f:78:c9:83:3b:ae:aa:5a:67:49:27:78:ba:90:de:66:6e
        Signature Algorithm: ecdsa-with-SHA384
        Issuer: C = US, ST = Washington, L = Seattle, O = wolfSSL, OU = Development, CN = www.wolfssl.com, emailAddress = info@wolfssl.com
        Validity
            Not Before: Jun 19 13:23:41 2020 GMT
            Not After : Mar 16 13:23:41 2023 GMT
        Subject: C = US, ST = Washington, L = Seattle, O = wolfSSL, OU = Development, CN = www.wolfssl.com, emailAddress = info@wolfssl.com
        Subject Public Key Info:
            Public Key Algorithm: id-ecPublicKey
                Public-Key: (384 bit)
                pub:
                    04:ee:82:d4:39:9a:b1:27:82:f4:d7:ea:c6:bc:03:
                    1d:4d:83:61:f4:03:ae:7e:bd:d8:5a:a5:b9:f0:8e:
                    a2:a5:da:ce:87:3b:5a:ab:44:16:9c:f5:9f:62:dd:
                    f6:20:cd:9c:76:3c:40:b1:3f:97:17:df:59:f6:cd:
                    de:cd:46:35:c0:ed:5e:2e:48:b6:66:91:71:74:b7:
                    0c:3f:b9:9a:b7:83:bd:93:3f:5f:50:2d:70:3f:de:
                    35:25:e1:90:3b:86:e0
                ASN1 OID: secp384r1
                NIST CURVE: P-384
        X509v3 extensions:
            X509v3 Subject Key Identifier: 
                AB:E0:C3:26:4C:18:D4:72:BB:D2:84:8C:9C:0A:05:92:80:12:53:52
            X509v3 Authority Key Identifier: 
                keyid:AB:E0:C3:26:4C:18:D4:72:BB:D2:84:8C:9C:0A:05:92:80:12:53:52

            X509v3 Basic Constraints: critical
                CA:TRUE
            X509v3 Key Usage: critical
                Digital Signature, Certificate Sign, CRL Sign
    Signature Algorithm: ecdsa-with-SHA384
         30:66:02:31:00:d2:4e:24:af:70:3e:93:0b:2e:d5:7c:71:f3:
         61:3e:8e:71:6d:2e:60:de:fb:ef:3f:be:02:b6:14:45:9b:0a:
         12:af:af:41:d6:bb:79:ab:d1:4e:8d:9d:dc:98:25:4e:aa:02:
         31:00:cf:2f:b7:32:70:e7:85:69:17:df:53:75:2b:36:74:d6:
         1b:a2:62:f9:80:19:c1:3a:ea:9a:05:80:b6:c5:f8:a2:a2:ff:
         f6:3d:aa:34:d6:e1:1f:e3:93:66:e7:91:4d:fa
-----BEGIN CERTIFICATE-----
MIIC0zCCAligAwIBAgIUINqFP3jJgzuuqlpnSSd4upDeZm4wCgYIKoZIzj0EAwMw
gZcxCzAJBgNVBAYTAlVTMRMwEQYDVQQIDApXYXNoaW5ndG9uMRAwDgYDVQQHDAdT
ZWF0dGxlMRAwDgYDVQQKDAd3b2xmU1NMMRQwEgYDVQQLDAtEZXZlbG9wbWVudDEY
MBYGA1UEAwwPd3d3LndvbGZzc2wuY29tMR8wHQYJKoZIhvcNAQkBFhBpbmZvQHdv
bGZzc2wuY29tMB4XDTIwMDYxOTEzMjM0MVoXDTIzMDMxNjEzMjM0MVowgZcxCzAJ
BgNVBAYTAlVTMRMwEQYDVQQIDApXYXNoaW5ndG9uMRAwDgYDVQQHDAdTZWF0dGxl
MRAwDgYDVQQKDAd3b2xmU1NMMRQwEgYDVQQLDAtEZXZlbG9wbWVudDEYMBYGA1UE
AwwPd3d3LndvbGZzc2wuY29tMR8wHQYJKoZIhvcNAQkBFhBpbmZvQHdvbGZzc2wu
Y29tMHYwEAYHKoZIzj0CAQYFK4EEACIDYgAE7oLUOZqxJ4L01+rGvAMdTYNh9AOu
fr3YWqW58I6ipdrOhztaq0QWnPWfYt32IM2cdjxAsT+XF99Z9s3ezUY1wO1eLki2
ZpFxdLcMP7mat4O9kz9fUC1wP941JeGQO4bgo2MwYTAdBgNVHQ4EFgQUq+DDJkwY
1HK70oSMnAoFkoASU1IwHwYDVR0jBBgwFoAUq+DDJkwY1HK70oSMnAoFkoASU1Iw
DwYDVR0TAQH/BAUwAwEB/zAOBgNVHQ8BAf8EBAMCAYYwCgYIKoZIzj0EAwMDaQAw
ZgIxANJOJK9wPpMLLtV8cfNhPo5xbS5g3vvvP74CthRFmwoSr69B1rt5q9FOjZ3c
mCVOqgIxAM8vtzJw54VpF99TdSs2dNYbomL5gBnBOuqaBYC2xfiiov/2Pao01uEf
45Nm55FN+g==
-----END CERTIFICATE-----
