Certificate:
    Data:
        Version: 3 (0x2)
        Serial Number:
            23:96:25:0f:15:5c:40:c4:f2:6d:3f:a6:2e:42:7f:e2:dc:18:d7:99
        Signature Algorithm: sha256WithRSAEncryption
        Issuer: C=US, ST=Montana, L=Bozeman, O=wolfSSL_2048, OU=URI, CN=www.wolfssl.com, emailAddress=facts@wolfssl.com
        Validity
            Not Before: Jun 11 21:44:27 2026 GMT
            Not After : Mar  7 21:44:27 2029 GMT
        Subject: C=US, ST=Montana, L=Bozeman, O=wolfSSL_2048, OU=URI, CN=www.wolfssl.com, emailAddress=facts@wolfssl.com
        Subject Public Key Info:
            Public Key Algorithm: rsaEncryption
                Public-Key: (2048 bit)
                Modulus:
                    00:c3:03:d1:2b:fe:39:a4:32:45:3b:53:c8:84:2b:
                    2a:7c:74:9a:bd:aa:2a:52:07:47:d6:a6:36:b2:07:
                    32:8e:d0:ba:69:7b:c6:c3:44:9e:d4:81:48:fd:2d:
                    68:a2:8b:67:bb:a1:75:c8:36:2c:4a:d2:1b:f7:8b:
                    ba:cf:0d:f9:ef:ec:f1:81:1e:7b:9b:03:47:9a:bf:
                    65:cc:7f:65:24:69:a6:e8:14:89:5b:e4:34:f7:c5:
                    b0:14:93:f5:67:7b:3a:7a:78:e1:01:56:56:91:a6:
                    13:42:8d:d2:3c:40:9c:4c:ef:d1:86:df:37:51:1b:
                    0c:a1:3b:f5:f1:a3:4a:35:e4:e1:ce:96:df:1b:7e:
                    bf:4e:97:d0:10:e8:a8:08:30:81:af:20:0b:43:14:
                    c5:74:67:b4:32:82:6f:8d:86:c2:88:40:99:36:83:
                    ba:1e:40:72:22:17:d7:52:65:24:73:b0:ce:ef:19:
                    cd:ae:ff:78:6c:7b:c0:12:03:d4:4e:72:0d:50:6d:
                    3b:a3:3b:a3:99:5e:9d:c8:d9:0c:85:b3:d9:8a:d9:
                    54:26:db:6d:fa:ac:bb:ff:25:4c:c4:d1:79:f4:71:
                    d3:86:40:18:13:b0:63:b5:72:4e:30:c4:97:84:86:
                    2d:56:2f:d7:15:f7:7f:c0:ae:f5:fc:5b:e5:fb:a1:
                    ba:d3
                Exponent: 65537 (0x10001)
        X509v3 extensions:
            X509v3 Subject Key Identifier: 
                33:D8:45:66:D7:68:87:18:7E:54:0D:70:27:91:C7:26:D7:85:65:C0
            X509v3 Authority Key Identifier: 
                keyid:33:D8:45:66:D7:68:87:18:7E:54:0D:70:27:91:C7:26:D7:85:65:C0
                DirName:/C=US/ST=Montana/L=Bozeman/O=wolfSSL_2048/OU=URI/CN=www.wolfssl.com/emailAddress=facts@wolfssl.com
                serial:23:96:25:0F:15:5C:40:C4:F2:6D:3F:A6:2E:42:7F:E2:DC:18:D7:99
            X509v3 Basic Constraints: 
                CA:FALSE
            X509v3 Subject Alternative Name: 
                URI:https://www.wolfssl.com
    Signature Algorithm: sha256WithRSAEncryption
    Signature Value:
        1a:0f:18:58:bf:97:a0:55:9c:d5:1b:23:18:5c:9f:fd:d0:77:
        ea:73:07:49:56:cb:53:35:59:01:e1:7c:3a:6e:7b:df:27:7b:
        99:79:60:2d:93:31:10:e5:02:4e:b5:8c:82:7f:9a:a6:45:e3:
        47:a4:ad:16:c3:8c:0d:da:55:1c:75:45:7b:b8:68:7a:f0:4e:
        0b:b7:30:9b:d5:57:0b:ab:41:7c:91:1d:28:a2:05:55:d1:22:
        01:5d:85:3d:c0:cc:c1:b1:7f:77:2e:5c:29:69:5b:5a:04:00:
        b3:88:43:56:73:1c:d8:bb:1a:71:3b:b5:04:db:f3:71:12:60:
        d0:5b:33:2e:dd:92:aa:94:b3:18:e1:fd:41:8b:63:15:c2:87:
        07:70:89:fd:cb:b1:f0:a8:65:ca:1d:1c:8d:ad:e5:66:5d:4d:
        14:78:ab:fd:c3:ff:90:2e:a9:20:35:c4:cd:36:5e:ad:4f:ad:
        21:88:7b:3d:ea:79:e7:e2:72:04:2d:1f:ce:35:18:f9:47:9b:
        cc:49:94:55:c6:a0:0a:08:e1:af:95:2e:d2:6d:c0:62:ea:e4:
        db:22:43:f5:9c:fa:81:ce:4f:bb:9d:cb:e1:16:a1:da:7f:81:
        8c:18:8b:fc:66:1f:8f:ab:02:2a:b6:b0:d6:0e:9c:1e:b2:05:
        ef:a5:1e:9b
-----BEGIN CERTIFICATE-----
MIIE3TCCA8WgAwIBAgIUI5YlDxVcQMTybT+mLkJ/4twY15kwDQYJKoZIhvcNAQEL
BQAwgZIxCzAJBgNVBAYTAlVTMRAwDgYDVQQIDAdNb250YW5hMRAwDgYDVQQHDAdC
b3plbWFuMRUwEwYDVQQKDAx3b2xmU1NMXzIwNDgxDDAKBgNVBAsMA1VSSTEYMBYG
A1UEAwwPd3d3LndvbGZzc2wuY29tMSAwHgYJKoZIhvcNAQkBFhFmYWN0c0B3b2xm
c3NsLmNvbTAeFw0yNjA2MTEyMTQ0MjdaFw0yOTAzMDcyMTQ0MjdaMIGSMQswCQYD
VQQGEwJVUzEQMA4GA1UECAwHTW9udGFuYTEQMA4GA1UEBwwHQm96ZW1hbjEVMBMG
A1UECgwMd29sZlNTTF8yMDQ4MQwwCgYDVQQLDANVUkkxGDAWBgNVBAMMD3d3dy53
b2xmc3NsLmNvbTEgMB4GCSqGSIb3DQEJARYRZmFjdHNAd29sZnNzbC5jb20wggEi
MA0GCSqGSIb3DQEBAQUAA4IBDwAwggEKAoIBAQDDA9Er/jmkMkU7U8iEKyp8dJq9
qipSB0fWpjayBzKO0Lppe8bDRJ7UgUj9LWiii2e7oXXINixK0hv3i7rPDfnv7PGB
HnubA0eav2XMf2UkaaboFIlb5DT3xbAUk/Vnezp6eOEBVlaRphNCjdI8QJxM79GG
3zdRGwyhO/Xxo0o15OHOlt8bfr9Ol9AQ6KgIMIGvIAtDFMV0Z7Qygm+NhsKIQJk2
g7oeQHIiF9dSZSRzsM7vGc2u/3hse8ASA9ROcg1QbTujO6OZXp3I2QyFs9mK2VQm
2236rLv/JUzE0Xn0cdOGQBgTsGO1ck4wxJeEhi1WL9cV93/ArvX8W+X7obrTAgMB
AAGjggEnMIIBIzAdBgNVHQ4EFgQUM9hFZtdohxh+VA1wJ5HHJteFZcAwgdIGA1Ud
IwSByjCBx4AUM9hFZtdohxh+VA1wJ5HHJteFZcChgZikgZUwgZIxCzAJBgNVBAYT
AlVTMRAwDgYDVQQIDAdNb250YW5hMRAwDgYDVQQHDAdCb3plbWFuMRUwEwYDVQQK
DAx3b2xmU1NMXzIwNDgxDDAKBgNVBAsMA1VSSTEYMBYGA1UEAwwPd3d3LndvbGZz
c2wuY29tMSAwHgYJKoZIhvcNAQkBFhFmYWN0c0B3b2xmc3NsLmNvbYIUI5YlDxVc
QMTybT+mLkJ/4twY15kwCQYDVR0TBAIwADAiBgNVHREEGzAZhhdodHRwczovL3d3
dy53b2xmc3NsLmNvbTANBgkqhkiG9w0BAQsFAAOCAQEAGg8YWL+XoFWc1RsjGFyf
/dB36nMHSVbLUzVZAeF8Om573yd7mXlgLZMxEOUCTrWMgn+apkXjR6StFsOMDdpV
HHVFe7hoevBOC7cwm9VXC6tBfJEdKKIFVdEiAV2FPcDMwbF/dy5cKWlbWgQAs4hD
VnMc2LsacTu1BNvzcRJg0FszLt2SqpSzGOH9QYtjFcKHB3CJ/cux8Khlyh0cja3l
Zl1NFHir/cP/kC6pIDXEzTZerU+tIYh7Pep55+JyBC0fzjUY+UebzEmUVcagCgjh
r5Uu0m3AYurk2yJD9Zz6gc5Pu53L4Rah2n+BjBiL/GYfj6sCKraw1g6cHrIF76Ue
mw==
-----END CERTIFICATE-----
