Certificate:
    Data:
        Version: 3 (0x2)
        Serial Number:
            57:1a:e0:ff:6d:26:10:11:c4:99:cb:45:eb:dc:6b:a4:5c:8e:2b:f2
        Signature Algorithm: sha256WithRSAEncryption
        Issuer: C=US, ST=Montana, L=Bozeman, O=wolfSSL_2048, OU=CRL_DIST, CN=www.wolfssl.com, emailAddress=facts@wolfssl.com
        Validity
            Not Before: Jun 11 21:44:27 2026 GMT
            Not After : Mar  7 21:44:27 2029 GMT
        Subject: C=US, ST=Montana, L=Bozeman, O=wolfSSL_2048, OU=CRL_DIST, CN=www.wolfssl.com, emailAddress=facts@wolfssl.com
        Subject Public Key Info:
            Public Key Algorithm: rsaEncryption
                Public-Key: (2048 bit)
                Modulus:
                    00:c3:03:d1:2b:fe:39:a4:32:45:3b:53:c8:84:2b:
                    2a:7c:74:9a:bd:aa:2a:52:07:47:d6:a6:36:b2:07:
                    32:8e:d0:ba:69:7b:c6:c3:44:9e:d4:81:48:fd:2d:
                    68:a2:8b:67:bb:a1:75:c8:36:2c:4a:d2:1b:f7:8b:
                    ba:cf:0d:f9:ef:ec:f1:81:1e:7b:9b:03:47:9a:bf:
                    65:cc:7f:65:24:69:a6:e8:14:89:5b:e4:34:f7:c5:
                    b0:14:93:f5:67:7b:3a:7a:78:e1:01:56:56:91:a6:
                    13:42:8d:d2:3c:40:9c:4c:ef:d1:86:df:37:51:1b:
                    0c:a1:3b:f5:f1:a3:4a:35:e4:e1:ce:96:df:1b:7e:
                    bf:4e:97:d0:10:e8:a8:08:30:81:af:20:0b:43:14:
                    c5:74:67:b4:32:82:6f:8d:86:c2:88:40:99:36:83:
                    ba:1e:40:72:22:17:d7:52:65:24:73:b0:ce:ef:19:
                    cd:ae:ff:78:6c:7b:c0:12:03:d4:4e:72:0d:50:6d:
                    3b:a3:3b:a3:99:5e:9d:c8:d9:0c:85:b3:d9:8a:d9:
                    54:26:db:6d:fa:ac:bb:ff:25:4c:c4:d1:79:f4:71:
                    d3:86:40:18:13:b0:63:b5:72:4e:30:c4:97:84:86:
                    2d:56:2f:d7:15:f7:7f:c0:ae:f5:fc:5b:e5:fb:a1:
                    ba:d3
                Exponent: 65537 (0x10001)
        X509v3 extensions:
            X509v3 CRL Distribution Points: 
                Full Name:
                  URI:http://www.wolfssl.com/crl.pem

            X509v3 Subject Key Identifier: 
                33:D8:45:66:D7:68:87:18:7E:54:0D:70:27:91:C7:26:D7:85:65:C0
    Signature Algorithm: sha256WithRSAEncryption
    Signature Value:
        40:c6:4d:84:71:d0:30:75:8f:56:2d:dd:1a:58:95:69:6b:6f:
        aa:b8:0a:0a:50:1a:2f:11:63:61:49:e7:82:35:00:a6:d7:46:
        d3:51:29:aa:41:4b:92:cf:8c:93:43:ac:ab:c8:34:17:1b:cd:
        08:72:2c:42:d0:73:24:39:22:8e:a2:08:7a:f7:8e:da:ae:69:
        69:29:bf:33:43:69:b3:66:79:e4:b2:49:f2:d0:62:b3:35:4d:
        48:be:59:aa:34:f9:7f:20:2d:81:7d:47:9e:01:62:94:04:bf:
        c7:c2:ab:f8:74:40:1c:79:ff:08:62:8c:72:1d:ae:8b:8e:f8:
        df:e2:a8:4c:00:be:24:75:bd:c6:78:d0:f6:4f:5a:32:e4:1f:
        d0:4e:9f:92:89:74:0c:f4:ed:27:e5:19:f9:be:8b:8c:73:17:
        8d:5e:a7:95:3a:55:54:89:5f:fe:75:c2:fd:47:5c:bb:7d:ee:
        53:9a:45:91:f2:7d:0c:2b:af:42:5f:c8:19:f1:91:6a:08:6a:
        c2:2f:7a:35:3f:04:21:8b:fe:f4:a6:03:05:84:0c:52:2a:8c:
        20:3a:78:1f:df:1e:82:a5:4f:7d:b8:49:87:c7:0d:31:79:bd:
        7d:db:db:73:b1:1a:de:1e:7a:87:22:47:17:91:41:08:ad:44:
        21:84:16:d1
-----BEGIN CERTIFICATE-----
MIIEEDCCAvigAwIBAgIUVxrg/20mEBHEmctF69xrpFyOK/IwDQYJKoZIhvcNAQEL
BQAwgZcxCzAJBgNVBAYTAlVTMRAwDgYDVQQIDAdNb250YW5hMRAwDgYDVQQHDAdC
b3plbWFuMRUwEwYDVQQKDAx3b2xmU1NMXzIwNDgxETAPBgNVBAsMCENSTF9ESVNU
MRgwFgYDVQQDDA93d3cud29sZnNzbC5jb20xIDAeBgkqhkiG9w0BCQEWEWZhY3Rz
QHdvbGZzc2wuY29tMB4XDTI2MDYxMTIxNDQyN1oXDTI5MDMwNzIxNDQyN1owgZcx
CzAJBgNVBAYTAlVTMRAwDgYDVQQIDAdNb250YW5hMRAwDgYDVQQHDAdCb3plbWFu
MRUwEwYDVQQKDAx3b2xmU1NMXzIwNDgxETAPBgNVBAsMCENSTF9ESVNUMRgwFgYD
VQQDDA93d3cud29sZnNzbC5jb20xIDAeBgkqhkiG9w0BCQEWEWZhY3RzQHdvbGZz
c2wuY29tMIIBIjANBgkqhkiG9w0BAQEFAAOCAQ8AMIIBCgKCAQEAwwPRK/45pDJF
O1PIhCsqfHSavaoqUgdH1qY2sgcyjtC6aXvGw0Se1IFI/S1oootnu6F1yDYsStIb
94u6zw357+zxgR57mwNHmr9lzH9lJGmm6BSJW+Q098WwFJP1Z3s6enjhAVZWkaYT
Qo3SPECcTO/Rht83URsMoTv18aNKNeThzpbfG36/TpfQEOioCDCBryALQxTFdGe0
MoJvjYbCiECZNoO6HkByIhfXUmUkc7DO7xnNrv94bHvAEgPUTnINUG07ozujmV6d
yNkMhbPZitlUJttt+qy7/yVMxNF59HHThkAYE7BjtXJOMMSXhIYtVi/XFfd/wK71
/Fvl+6G60wIDAQABo1IwUDAvBgNVHR8EKDAmMCSgIqAghh5odHRwOi8vd3d3Lndv
bGZzc2wuY29tL2NybC5wZW0wHQYDVR0OBBYEFDPYRWbXaIcYflQNcCeRxybXhWXA
MA0GCSqGSIb3DQEBCwUAA4IBAQBAxk2EcdAwdY9WLd0aWJVpa2+quAoKUBovEWNh
SeeCNQCm10bTUSmqQUuSz4yTQ6yryDQXG80IcixC0HMkOSKOogh6947armlpKb8z
Q2mzZnnkskny0GKzNU1IvlmqNPl/IC2BfUeeAWKUBL/Hwqv4dEAcef8IYoxyHa6L
jvjf4qhMAL4kdb3GeND2T1oy5B/QTp+SiXQM9O0n5Rn5vouMcxeNXqeVOlVUiV/+
dcL9R1y7fe5TmkWR8n0MK69CX8gZ8ZFqCGrCL3o1PwQhi/70pgMFhAxSKowgOngf
3x6CpU99uEmHxw0xeb1929tzsRreHnqHIkcXkUEIrUQhhBbR
-----END CERTIFICATE-----
