Certificate:
    Data:
        Version: 3 (0x2)
        Serial Number:
            d2:fe:4a:9e:aa:a9:46:31
    Signature Algorithm: sha256WithRSAEncryption
        Issuer: C=US, ST=Montana, L=Bozeman, O=wolfSSL_2048, OU=Programming-2048, CN=www.wolfssl.com/emailAddress=info@wolfssl.com
        Validity
            Not Before: Jul 25 18:56:34 2016 GMT
            Not After : Apr 21 18:56:34 2019 GMT
        Subject: C=US, ST=Montana, L=Bozeman, O=wolfSSL_2048, OU=Programming-2048, CN=www.wolfssl.com/emailAddress=info@wolfssl.com
        Subject Public Key Info:
            Public Key Algorithm: rsaEncryption
                Public-Key: (2048 bit)
                Modulus:
                    00:c3:03:d1:2b:fe:39:a4:32:45:3b:53:c8:84:2b:
                    2a:7c:74:9a:bd:aa:2a:52:07:47:d6:a6:36:b2:07:
                    32:8e:d0:ba:69:7b:c6:c3:44:9e:d4:81:48:fd:2d:
                    68:a2:8b:67:bb:a1:75:c8:36:2c:4a:d2:1b:f7:8b:
                    ba:cf:0d:f9:ef:ec:f1:81:1e:7b:9b:03:47:9a:bf:
                    65:cc:7f:65:24:69:a6:e8:14:89:5b:e4:34:f7:c5:
                    b0:14:93:f5:67:7b:3a:7a:78:e1:01:56:56:91:a6:
                    13:42:8d:d2:3c:40:9c:4c:ef:d1:86:df:37:51:1b:
                    0c:a1:3b:f5:f1:a3:4a:35:e4:e1:ce:96:df:1b:7e:
                    bf:4e:97:d0:10:e8:a8:08:30:81:af:20:0b:43:14:
                    c5:74:67:b4:32:82:6f:8d:86:c2:88:40:99:36:83:
                    ba:1e:40:72:22:17:d7:52:65:24:73:b0:ce:ef:19:
                    cd:ae:ff:78:6c:7b:c0:12:03:d4:4e:72:0d:50:6d:
                    3b:a3:3b:a3:99:5e:9d:c8:d9:0c:85:b3:d9:8a:d9:
                    54:26:db:6d:fa:ac:bb:ff:25:4c:c4:d1:79:f4:71:
                    d3:86:40:18:13:b0:63:b5:72:4e:30:c4:97:84:86:
                    2d:56:2f:d7:15:f7:7f:c0:ae:f5:fc:5b:e5:fb:a1:
                    ba:d3
                Exponent: 65537 (0x10001)
        X509v3 extensions:
            X509v3 Subject Key Identifier: 
                33:D8:45:66:D7:68:87:18:7E:54:0D:70:27:91:C7:26:D7:85:65:C0
            X509v3 Authority Key Identifier: 
                keyid:33:D8:45:66:D7:68:87:18:7E:54:0D:70:27:91:C7:26:D7:85:65:C0
                DirName:/C=US/ST=Montana/L=Bozeman/O=wolfSSL_2048/OU=Programming-2048/CN=www.wolfssl.com/emailAddress=info@wolfssl.com
                serial:D2:FE:4A:9E:AA:A9:46:31

            X509v3 Basic Constraints: 
                CA:TRUE
    Signature Algorithm: sha256WithRSAEncryption
         87:f1:ab:95:97:e3:c7:71:5d:a9:3d:63:80:be:e2:c0:77:dc:
         02:43:70:c5:f2:45:2d:f8:d8:69:92:b6:e8:77:ec:53:49:3a:
         37:fc:b7:13:2e:34:60:6d:21:59:da:02:4a:0e:fd:f6:c0:a5:
         26:34:a6:6a:9f:c4:7d:28:e1:fd:fb:12:28:b8:b6:01:7f:57:
         66:fc:46:85:d2:23:b4:e6:54:0b:ee:2e:9b:a8:e0:70:28:4d:
         e7:a5:f5:3d:db:4e:98:98:24:e2:30:99:c9:a0:bf:2b:00:57:
         d0:df:9d:fa:57:cf:93:fc:e6:36:0c:a5:58:a1:65:2b:1d:be:
         65:79:a0:6b:29:61:d1:52:ef:0f:86:21:76:d2:13:c2:de:73:
         17:51:08:65:3e:1d:f9:30:5b:36:76:11:6f:3c:d3:0c:03:6b:
         3e:f7:5c:b1:26:a8:1b:a5:01:3a:9a:18:6d:ea:10:29:67:9e:
         7b:24:2a:e0:80:dc:6f:35:60:f6:2c:65:02:56:dc:00:84:11:
         13:21:23:95:a2:ed:55:ce:79:ed:c2:7b:51:d5:f8:8b:aa:43:
         a0:e3:03:5f:17:12:a6:8b:22:a6:83:11:41:b6:4f:c6:71:d2:
         80:4d:61:ee:a5:6d:07:26:1a:1d:9c:f4:7b:07:64:a6:d3:9f:
         2d:a2:c2:ce
-----BEGIN CERTIFICATE-----
MIIEyjCCA7KgAwIBAgIJANL+Sp6qqUYxMA0GCSqGSIb3DQEBCwUAMIGeMQswCQYD
VQQGEwJVUzEQMA4GA1UECAwHTW9udGFuYTEQMA4GA1UEBwwHQm96ZW1hbjEVMBMG
A1UECgwMd29sZlNTTF8yMDQ4MRkwFwYDVQQLDBBQcm9ncmFtbWluZy0yMDQ4MRgw
FgYDVQQDDA93d3cud29sZnNzbC5jb20xHzAdBgkqhkiG9w0BCQEWEGluZm9Ad29s
ZnNzbC5jb20wHhcNMTYwNzI1MTg1NjM0WhcNMTkwNDIxMTg1NjM0WjCBnjELMAkG
A1UEBhMCVVMxEDAOBgNVBAgMB01vbnRhbmExEDAOBgNVBAcMB0JvemVtYW4xFTAT
BgNVBAoMDHdvbGZTU0xfMjA0ODEZMBcGA1UECwwQUHJvZ3JhbW1pbmctMjA0ODEY
MBYGA1UEAwwPd3d3LndvbGZzc2wuY29tMR8wHQYJKoZIhvcNAQkBFhBpbmZvQHdv
bGZzc2wuY29tMIIBIjANBgkqhkiG9w0BAQEFAAOCAQ8AMIIBCgKCAQEAwwPRK/45
pDJFO1PIhCsqfHSavaoqUgdH1qY2sgcyjtC6aXvGw0Se1IFI/S1oootnu6F1yDYs
StIb94u6zw357+zxgR57mwNHmr9lzH9lJGmm6BSJW+Q098WwFJP1Z3s6enjhAVZW
kaYTQo3SPECcTO/Rht83URsMoTv18aNKNeThzpbfG36/TpfQEOioCDCBryALQxTF
dGe0MoJvjYbCiECZNoO6HkByIhfXUmUkc7DO7xnNrv94bHvAEgPUTnINUG07ozuj
mV6dyNkMhbPZitlUJttt+qy7/yVMxNF59HHThkAYE7BjtXJOMMSXhIYtVi/XFfd/
wK71/Fvl+6G60wIDAQABo4IBBzCCAQMwHQYDVR0OBBYEFDPYRWbXaIcYflQNcCeR
xybXhWXAMIHTBgNVHSMEgcswgciAFDPYRWbXaIcYflQNcCeRxybXhWXAoYGkpIGh
MIGeMQswCQYDVQQGEwJVUzEQMA4GA1UECAwHTW9udGFuYTEQMA4GA1UEBwwHQm96
ZW1hbjEVMBMGA1UECgwMd29sZlNTTF8yMDQ4MRkwFwYDVQQLDBBQcm9ncmFtbWlu
Zy0yMDQ4MRgwFgYDVQQDDA93d3cud29sZnNzbC5jb20xHzAdBgkqhkiG9w0BCQEW
EGluZm9Ad29sZnNzbC5jb22CCQDS/kqeqqlGMTAMBgNVHRMEBTADAQH/MA0GCSqG
SIb3DQEBCwUAA4IBAQCH8auVl+PHcV2pPWOAvuLAd9wCQ3DF8kUt+Nhpkrbod+xT
STo3/LcTLjRgbSFZ2gJKDv32wKUmNKZqn8R9KOH9+xIouLYBf1dm/EaF0iO05lQL
7i6bqOBwKE3npfU9206YmCTiMJnJoL8rAFfQ3536V8+T/OY2DKVYoWUrHb5leaBr
KWHRUu8PhiF20hPC3nMXUQhlPh35MFs2dhFvPNMMA2s+91yxJqgbpQE6mhht6hAp
Z557JCrggNxvNWD2LGUCVtwAhBETISOVou1VznntwntR1fiLqkOg4wNfFxKmiyKm
gxFBtk/GcdKATWHupW0HJhodnPR7B2Sm058tosLO
-----END CERTIFICATE-----
