Certificate:
    Data:
        Version: 3 (0x2)
        Serial Number:
            3a:28:4d:83:0d:77:0e:21:3b:e9:1c:4d:09:a4:d7:65:69:d1:aa:f7
        Signature Algorithm: sha256WithRSAEncryption
        Issuer: C=US, ST=Montana, L=Bozeman, O=wolfSSL_2048, OU=CRL_DIST, CN=www.wolfssl.com, emailAddress=info@wolfssl.com
        Validity
            Not Before: Nov 13 20:41:10 2025 GMT
            Not After : Aug  9 20:41:10 2028 GMT
        Subject: C=US, ST=Montana, L=Bozeman, O=wolfSSL_2048, OU=CRL_DIST, CN=www.wolfssl.com, emailAddress=info@wolfssl.com
        Subject Public Key Info:
            Public Key Algorithm: rsaEncryption
                Public-Key: (2048 bit)
                Modulus:
                    00:c3:03:d1:2b:fe:39:a4:32:45:3b:53:c8:84:2b:
                    2a:7c:74:9a:bd:aa:2a:52:07:47:d6:a6:36:b2:07:
                    32:8e:d0:ba:69:7b:c6:c3:44:9e:d4:81:48:fd:2d:
                    68:a2:8b:67:bb:a1:75:c8:36:2c:4a:d2:1b:f7:8b:
                    ba:cf:0d:f9:ef:ec:f1:81:1e:7b:9b:03:47:9a:bf:
                    65:cc:7f:65:24:69:a6:e8:14:89:5b:e4:34:f7:c5:
                    b0:14:93:f5:67:7b:3a:7a:78:e1:01:56:56:91:a6:
                    13:42:8d:d2:3c:40:9c:4c:ef:d1:86:df:37:51:1b:
                    0c:a1:3b:f5:f1:a3:4a:35:e4:e1:ce:96:df:1b:7e:
                    bf:4e:97:d0:10:e8:a8:08:30:81:af:20:0b:43:14:
                    c5:74:67:b4:32:82:6f:8d:86:c2:88:40:99:36:83:
                    ba:1e:40:72:22:17:d7:52:65:24:73:b0:ce:ef:19:
                    cd:ae:ff:78:6c:7b:c0:12:03:d4:4e:72:0d:50:6d:
                    3b:a3:3b:a3:99:5e:9d:c8:d9:0c:85:b3:d9:8a:d9:
                    54:26:db:6d:fa:ac:bb:ff:25:4c:c4:d1:79:f4:71:
                    d3:86:40:18:13:b0:63:b5:72:4e:30:c4:97:84:86:
                    2d:56:2f:d7:15:f7:7f:c0:ae:f5:fc:5b:e5:fb:a1:
                    ba:d3
                Exponent: 65537 (0x10001)
        X509v3 extensions:
            X509v3 CRL Distribution Points: 
                Full Name:
                  URI:http://www.wolfssl.com/crl.pem

            X509v3 Subject Key Identifier: 
                33:D8:45:66:D7:68:87:18:7E:54:0D:70:27:91:C7:26:D7:85:65:C0
    Signature Algorithm: sha256WithRSAEncryption
    Signature Value:
        b5:1a:d6:5e:65:2c:8b:23:94:fc:2c:a2:19:35:bf:83:e2:33:
        66:49:fc:a0:3a:79:91:26:2e:4a:52:ec:90:69:90:6a:96:96:
        39:f3:1a:8d:14:a9:15:8d:68:38:63:4d:71:ab:06:cc:2d:7f:
        15:b8:35:48:23:ad:20:03:e5:1d:d7:87:27:5d:69:5a:86:43:
        b6:83:98:87:05:23:ae:70:0f:23:ed:7b:a8:6a:70:35:e5:a4:
        cd:84:ab:b5:0f:a0:0f:7b:81:e6:01:a7:dc:1c:75:d5:ac:21:
        b2:f7:1a:bb:d0:47:21:4e:b2:1c:75:6c:c5:4c:5e:44:c9:b1:
        90:18:5d:ac:de:2d:40:82:cc:b3:cb:a8:dc:e4:0f:82:6d:2e:
        b9:e8:1d:fc:57:8f:c0:21:73:51:b4:c9:be:0d:1b:6a:60:82:
        67:6a:d9:fc:e3:96:78:ee:f2:0e:32:30:22:5b:c3:d0:d8:33:
        b9:5f:9f:e4:77:43:69:ef:12:48:5b:f4:ac:6a:a5:d4:bf:8a:
        18:dc:60:66:18:a0:af:92:77:8e:09:a0:32:ec:79:bf:18:50:
        54:d4:f3:72:12:5d:cc:81:16:67:bc:88:99:36:e7:af:c9:78:
        10:05:66:44:1a:56:26:69:03:68:49:98:ac:c2:15:6d:11:f0:
        83:42:b9:82
-----BEGIN CERTIFICATE-----
MIIEDjCCAvagAwIBAgIUOihNgw13DiE76RxNCaTXZWnRqvcwDQYJKoZIhvcNAQEL
BQAwgZYxCzAJBgNVBAYTAlVTMRAwDgYDVQQIDAdNb250YW5hMRAwDgYDVQQHDAdC
b3plbWFuMRUwEwYDVQQKDAx3b2xmU1NMXzIwNDgxETAPBgNVBAsMCENSTF9ESVNU
MRgwFgYDVQQDDA93d3cud29sZnNzbC5jb20xHzAdBgkqhkiG9w0BCQEWEGluZm9A
d29sZnNzbC5jb20wHhcNMjUxMTEzMjA0MTEwWhcNMjgwODA5MjA0MTEwWjCBljEL
MAkGA1UEBhMCVVMxEDAOBgNVBAgMB01vbnRhbmExEDAOBgNVBAcMB0JvemVtYW4x
FTATBgNVBAoMDHdvbGZTU0xfMjA0ODERMA8GA1UECwwIQ1JMX0RJU1QxGDAWBgNV
BAMMD3d3dy53b2xmc3NsLmNvbTEfMB0GCSqGSIb3DQEJARYQaW5mb0B3b2xmc3Ns
LmNvbTCCASIwDQYJKoZIhvcNAQEBBQADggEPADCCAQoCggEBAMMD0Sv+OaQyRTtT
yIQrKnx0mr2qKlIHR9amNrIHMo7Quml7xsNEntSBSP0taKKLZ7uhdcg2LErSG/eL
us8N+e/s8YEee5sDR5q/Zcx/ZSRppugUiVvkNPfFsBST9Wd7Onp44QFWVpGmE0KN
0jxAnEzv0YbfN1EbDKE79fGjSjXk4c6W3xt+v06X0BDoqAgwga8gC0MUxXRntDKC
b42GwohAmTaDuh5AciIX11JlJHOwzu8Zza7/eGx7wBID1E5yDVBtO6M7o5lencjZ
DIWz2YrZVCbbbfqsu/8lTMTRefRx04ZAGBOwY7VyTjDEl4SGLVYv1xX3f8Cu9fxb
5fuhutMCAwEAAaNSMFAwLwYDVR0fBCgwJjAkoCKgIIYeaHR0cDovL3d3dy53b2xm
c3NsLmNvbS9jcmwucGVtMB0GA1UdDgQWBBQz2EVm12iHGH5UDXAnkccm14VlwDAN
BgkqhkiG9w0BAQsFAAOCAQEAtRrWXmUsiyOU/CyiGTW/g+IzZkn8oDp5kSYuSlLs
kGmQapaWOfMajRSpFY1oOGNNcasGzC1/Fbg1SCOtIAPlHdeHJ11pWoZDtoOYhwUj
rnAPI+17qGpwNeWkzYSrtQ+gD3uB5gGn3Bx11awhsvcau9BHIU6yHHVsxUxeRMmx
kBhdrN4tQILMs8uo3OQPgm0uuegd/FePwCFzUbTJvg0bamCCZ2rZ/OOWeO7yDjIw
IlvD0NgzuV+f5HdDae8SSFv0rGql1L+KGNxgZhigr5J3jgmgMux5vxhQVNTzchJd
zIEWZ7yImTbnr8l4EAVmRBpWJmkDaEmYrMIVbRHwg0K5gg==
-----END CERTIFICATE-----
