Certificate:
    Data:
        Version: 3 (0x2)
        Serial Number: 4661 (0x1235)
        Signature Algorithm: sha256WithRSAEncryption
        Issuer: C = US, ST = Montana, L = Bozeman, O = Sawtooth, OU = Consulting, CN = www.wolfssl.com, emailAddress = info@wolfssl.com
        Validity
            Not Before: Jan 24 20:31:13 2026 GMT
            Not After : Oct 20 20:31:13 2028 GMT
        Subject: C = US, ST = Montana, L = Bozeman, O = wolfSSL_2048, OU = Programming-2048, CN = www.wolfssl.com, emailAddress = info@wolfssl.com
        Subject Public Key Info:
            Public Key Algorithm: rsaEncryption
                Public-Key: (2048 bit)
                Modulus:
                    00:c3:03:d1:2b:fe:39:a4:32:45:3b:53:c8:84:2b:
                    2a:7c:74:9a:bd:aa:2a:52:07:47:d6:a6:36:b2:07:
                    32:8e:d0:ba:69:7b:c6:c3:44:9e:d4:81:48:fd:2d:
                    68:a2:8b:67:bb:a1:75:c8:36:2c:4a:d2:1b:f7:8b:
                    ba:cf:0d:f9:ef:ec:f1:81:1e:7b:9b:03:47:9a:bf:
                    65:cc:7f:65:24:69:a6:e8:14:89:5b:e4:34:f7:c5:
                    b0:14:93:f5:67:7b:3a:7a:78:e1:01:56:56:91:a6:
                    13:42:8d:d2:3c:40:9c:4c:ef:d1:86:df:37:51:1b:
                    0c:a1:3b:f5:f1:a3:4a:35:e4:e1:ce:96:df:1b:7e:
                    bf:4e:97:d0:10:e8:a8:08:30:81:af:20:0b:43:14:
                    c5:74:67:b4:32:82:6f:8d:86:c2:88:40:99:36:83:
                    ba:1e:40:72:22:17:d7:52:65:24:73:b0:ce:ef:19:
                    cd:ae:ff:78:6c:7b:c0:12:03:d4:4e:72:0d:50:6d:
                    3b:a3:3b:a3:99:5e:9d:c8:d9:0c:85:b3:d9:8a:d9:
                    54:26:db:6d:fa:ac:bb:ff:25:4c:c4:d1:79:f4:71:
                    d3:86:40:18:13:b0:63:b5:72:4e:30:c4:97:84:86:
                    2d:56:2f:d7:15:f7:7f:c0:ae:f5:fc:5b:e5:fb:a1:
                    ba:d3
                Exponent: 65537 (0x10001)
        X509v3 extensions:
            X509v3 Basic Constraints: critical
                CA:FALSE
            X509v3 Key Usage: critical
                Digital Signature, Key Encipherment
            X509v3 Extended Key Usage: 
                TLS Web Client Authentication
            X509v3 Subject Key Identifier: 
                33:D8:45:66:D7:68:87:18:7E:54:0D:70:27:91:C7:26:D7:85:65:C0
            X509v3 Authority Key Identifier: 
                keyid:27:8E:67:11:74:C3:26:1D:3F:ED:33:63:B3:A4:D8:1D:30:E5:E8:D5
                DirName:/C=US/ST=Montana/L=Bozeman/O=Sawtooth/OU=Consulting/CN=www.wolfssl.com/emailAddress=info@wolfssl.com
                serial:3F:29:11:20:57:71:E7:8E:F9:18:0D:CA:70:4D:5B:15:2A:43:D6:24
    Signature Algorithm: sha256WithRSAEncryption
    Signature Value:
        7f:71:41:b2:72:c1:a9:ba:c9:52:40:ea:6d:3d:3d:c0:ae:1e:
        44:cd:f9:a5:d6:ac:34:5f:8b:ed:cd:91:81:0f:05:0f:5e:4b:
        b3:18:bf:33:7a:61:a5:25:f1:91:55:c1:12:66:b7:26:3b:9c:
        bb:21:1a:0c:72:78:88:57:fa:49:22:e7:80:2f:c1:40:01:66:
        3d:20:63:e7:e3:38:a9:54:39:52:42:d2:b6:38:6b:08:7d:45:
        49:1a:de:b5:64:70:c9:65:ce:0b:94:24:ee:b4:46:67:3c:74:
        f0:2a:61:4d:b2:fc:6e:ca:c0:36:a9:b0:d3:5a:e2:15:72:f5:
        a4:90:73:b2:37:58:b4:10:39:d3:85:5f:56:91:7e:cf:54:5d:
        c6:a7:40:36:bd:ed:f2:af:e5:ce:b6:ea:38:be:47:32:6f:ed:
        d2:ba:9d:70:e1:74:2e:f0:27:e4:72:53:75:43:ce:0a:07:b4:
        7e:74:17:00:55:b5:d1:92:e4:42:39:ca:84:51:84:f8:23:a6:
        41:27:fb:20:e2:43:e3:74:d3:ce:95:4e:1f:06:de:65:5e:e3:
        38:e2:eb:f1:a6:ca:6b:7c:56:51:c0:02:1e:6e:3f:51:c1:d5:
        04:c0:3d:57:56:15:65:76:a4:f4:eb:43:27:2c:c3:58:29:5c:
        18:da:e8:fd
-----BEGIN CERTIFICATE-----
MIIE3zCCA8egAwIBAgICEjUwDQYJKoZIhvcNAQELBQAwgZQxCzAJBgNVBAYTAlVT
MRAwDgYDVQQIDAdNb250YW5hMRAwDgYDVQQHDAdCb3plbWFuMREwDwYDVQQKDAhT
YXd0b290aDETMBEGA1UECwwKQ29uc3VsdGluZzEYMBYGA1UEAwwPd3d3LndvbGZz
c2wuY29tMR8wHQYJKoZIhvcNAQkBFhBpbmZvQHdvbGZzc2wuY29tMB4XDTI2MDEy
NDIwMzExM1oXDTI4MTAyMDIwMzExM1owgZ4xCzAJBgNVBAYTAlVTMRAwDgYDVQQI
DAdNb250YW5hMRAwDgYDVQQHDAdCb3plbWFuMRUwEwYDVQQKDAx3b2xmU1NMXzIw
NDgxGTAXBgNVBAsMEFByb2dyYW1taW5nLTIwNDgxGDAWBgNVBAMMD3d3dy53b2xm
c3NsLmNvbTEfMB0GCSqGSIb3DQEJARYQaW5mb0B3b2xmc3NsLmNvbTCCASIwDQYJ
KoZIhvcNAQEBBQADggEPADCCAQoCggEBAMMD0Sv+OaQyRTtTyIQrKnx0mr2qKlIH
R9amNrIHMo7Quml7xsNEntSBSP0taKKLZ7uhdcg2LErSG/eLus8N+e/s8YEee5sD
R5q/Zcx/ZSRppugUiVvkNPfFsBST9Wd7Onp44QFWVpGmE0KN0jxAnEzv0YbfN1Eb
DKE79fGjSjXk4c6W3xt+v06X0BDoqAgwga8gC0MUxXRntDKCb42GwohAmTaDuh5A
ciIX11JlJHOwzu8Zza7/eGx7wBID1E5yDVBtO6M7o5lencjZDIWz2YrZVCbbbfqs
u/8lTMTRefRx04ZAGBOwY7VyTjDEl4SGLVYv1xX3f8Cu9fxb5fuhutMCAwEAAaOC
AS0wggEpMAwGA1UdEwEB/wQCMAAwDgYDVR0PAQH/BAQDAgWgMBMGA1UdJQQMMAoG
CCsGAQUFBwMCMB0GA1UdDgQWBBQz2EVm12iHGH5UDXAnkccm14VlwDCB1AYDVR0j
BIHMMIHJgBQnjmcRdMMmHT/tM2OzpNgdMOXo1aGBmqSBlzCBlDELMAkGA1UEBhMC
VVMxEDAOBgNVBAgMB01vbnRhbmExEDAOBgNVBAcMB0JvemVtYW4xETAPBgNVBAoM
CFNhd3Rvb3RoMRMwEQYDVQQLDApDb25zdWx0aW5nMRgwFgYDVQQDDA93d3cud29s
ZnNzbC5jb20xHzAdBgkqhkiG9w0BCQEWEGluZm9Ad29sZnNzbC5jb22CFD8pESBX
ceeO+RgNynBNWxUqQ9YkMA0GCSqGSIb3DQEBCwUAA4IBAQB/cUGycsGpuslSQOpt
PT3Arh5Ezfml1qw0X4vtzZGBDwUPXkuzGL8zemGlJfGRVcESZrcmO5y7IRoMcniI
V/pJIueAL8FAAWY9IGPn4zipVDlSQtK2OGsIfUVJGt61ZHDJZc4LlCTutEZnPHTw
KmFNsvxuysA2qbDTWuIVcvWkkHOyN1i0EDnThV9WkX7PVF3Gp0A2ve3yr+XOtuo4
vkcyb+3Sup1w4XQu8CfkclN1Q84KB7R+dBcAVbXRkuRCOcqEUYT4I6ZBJ/sg4kPj
dNPOlU4fBt5lXuM44uvxpsprfFZRwAIebj9RwdUEwD1XVhVldqT060MnLMNYKVwY
2uj9
-----END CERTIFICATE-----
