Certificate:
    Data:
        Version: 3 (0x2)
        Serial Number:
            5c:07:e6:13:57:41:c7:db:42:a8:a3:4c:b9:6d:f6:c1:3f:a9:63:cc
        Signature Algorithm: sha256WithRSAEncryption
        Issuer: C = US, ST = Montana, L = Bozeman, O = wolfSSL_2048, OU = URI, CN = www.wolfssl.com, emailAddress = info@wolfssl.com
        Validity
            Not Before: May  7 07:39:03 2020 GMT
            Not After : Feb  1 07:39:03 2023 GMT
        Subject: C = US, ST = Montana, L = Bozeman, O = wolfSSL_2048, OU = URI, CN = www.wolfssl.com, emailAddress = info@wolfssl.com
        Subject Public Key Info:
            Public Key Algorithm: rsaEncryption
                RSA Public-Key: (2048 bit)
                Modulus:
                    00:c3:03:d1:2b:fe:39:a4:32:45:3b:53:c8:84:2b:
                    2a:7c:74:9a:bd:aa:2a:52:07:47:d6:a6:36:b2:07:
                    32:8e:d0:ba:69:7b:c6:c3:44:9e:d4:81:48:fd:2d:
                    68:a2:8b:67:bb:a1:75:c8:36:2c:4a:d2:1b:f7:8b:
                    ba:cf:0d:f9:ef:ec:f1:81:1e:7b:9b:03:47:9a:bf:
                    65:cc:7f:65:24:69:a6:e8:14:89:5b:e4:34:f7:c5:
                    b0:14:93:f5:67:7b:3a:7a:78:e1:01:56:56:91:a6:
                    13:42:8d:d2:3c:40:9c:4c:ef:d1:86:df:37:51:1b:
                    0c:a1:3b:f5:f1:a3:4a:35:e4:e1:ce:96:df:1b:7e:
                    bf:4e:97:d0:10:e8:a8:08:30:81:af:20:0b:43:14:
                    c5:74:67:b4:32:82:6f:8d:86:c2:88:40:99:36:83:
                    ba:1e:40:72:22:17:d7:52:65:24:73:b0:ce:ef:19:
                    cd:ae:ff:78:6c:7b:c0:12:03:d4:4e:72:0d:50:6d:
                    3b:a3:3b:a3:99:5e:9d:c8:d9:0c:85:b3:d9:8a:d9:
                    54:26:db:6d:fa:ac:bb:ff:25:4c:c4:d1:79:f4:71:
                    d3:86:40:18:13:b0:63:b5:72:4e:30:c4:97:84:86:
                    2d:56:2f:d7:15:f7:7f:c0:ae:f5:fc:5b:e5:fb:a1:
                    ba:d3
                Exponent: 65537 (0x10001)
        X509v3 extensions:
            X509v3 Subject Key Identifier: 
                33:D8:45:66:D7:68:87:18:7E:54:0D:70:27:91:C7:26:D7:85:65:C0
            X509v3 Authority Key Identifier: 
                keyid:33:D8:45:66:D7:68:87:18:7E:54:0D:70:27:91:C7:26:D7:85:65:C0
                DirName:/C=US/ST=Montana/L=Bozeman/O=wolfSSL_2048/OU=URI/CN=www.wolfssl.com/emailAddress=info@wolfssl.com
                serial:5C:07:E6:13:57:41:C7:DB:42:A8:A3:4C:B9:6D:F6:C1:3F:A9:63:CC

            X509v3 Basic Constraints: 
                CA:FALSE
            X509v3 Subject Alternative Name: 
                URI:https://www.wolfssl.com
    Signature Algorithm: sha256WithRSAEncryption
         9a:6c:2c:53:cc:26:b6:9d:76:ae:ef:9a:e7:35:8a:6d:19:ec:
         93:6f:1f:cf:a0:c6:1e:54:74:2c:eb:3b:75:00:88:25:fc:ca:
         2d:60:54:ad:cc:a2:78:18:54:99:ed:d8:27:9d:0d:a5:a3:bf:
         bd:c2:5c:bf:55:71:11:51:ac:a9:e4:32:7b:89:c8:cc:78:4d:
         c5:16:79:a1:56:f6:46:e3:38:5b:e7:76:d5:d0:5c:df:b1:1f:
         d6:0a:8e:7e:a2:65:1a:83:9d:69:ba:54:13:fb:e3:93:fa:70:
         8b:40:90:79:e1:14:db:b0:e6:49:d2:1e:e1:ef:52:be:55:10:
         2d:63:07:45:70:87:fc:5a:25:5c:57:9a:56:94:77:ca:49:0f:
         a0:d1:83:00:f8:d3:9a:cc:8e:7f:06:f5:98:bc:ed:02:cf:fa:
         0d:3e:3a:3d:dc:8e:2f:a0:57:b3:dc:1e:71:54:59:50:15:f8:
         5e:69:9f:9c:de:09:d7:e5:39:4e:66:61:e3:99:61:f7:70:c6:
         05:ba:21:5e:be:f9:82:52:8e:f9:4a:2e:9a:8e:16:47:15:35:
         34:3c:fb:75:39:0d:f7:c5:e5:fe:ef:a4:f2:7f:3d:4d:59:d6:
         39:26:f0:df:3d:26:9e:e0:dd:1a:d6:08:7c:bf:b9:a6:1f:f6:
         54:d0:19:24
-----BEGIN CERTIFICATE-----
MIIE2jCCA8KgAwIBAgIUXAfmE1dBx9tCqKNMuW32wT+pY8wwDQYJKoZIhvcNAQEL
BQAwgZExCzAJBgNVBAYTAlVTMRAwDgYDVQQIDAdNb250YW5hMRAwDgYDVQQHDAdC
b3plbWFuMRUwEwYDVQQKDAx3b2xmU1NMXzIwNDgxDDAKBgNVBAsMA1VSSTEYMBYG
A1UEAwwPd3d3LndvbGZzc2wuY29tMR8wHQYJKoZIhvcNAQkBFhBpbmZvQHdvbGZz
c2wuY29tMB4XDTIwMDUwNzA3MzkwM1oXDTIzMDIwMTA3MzkwM1owgZExCzAJBgNV
BAYTAlVTMRAwDgYDVQQIDAdNb250YW5hMRAwDgYDVQQHDAdCb3plbWFuMRUwEwYD
VQQKDAx3b2xmU1NMXzIwNDgxDDAKBgNVBAsMA1VSSTEYMBYGA1UEAwwPd3d3Lndv
bGZzc2wuY29tMR8wHQYJKoZIhvcNAQkBFhBpbmZvQHdvbGZzc2wuY29tMIIBIjAN
BgkqhkiG9w0BAQEFAAOCAQ8AMIIBCgKCAQEAwwPRK/45pDJFO1PIhCsqfHSavaoq
UgdH1qY2sgcyjtC6aXvGw0Se1IFI/S1oootnu6F1yDYsStIb94u6zw357+zxgR57
mwNHmr9lzH9lJGmm6BSJW+Q098WwFJP1Z3s6enjhAVZWkaYTQo3SPECcTO/Rht83
URsMoTv18aNKNeThzpbfG36/TpfQEOioCDCBryALQxTFdGe0MoJvjYbCiECZNoO6
HkByIhfXUmUkc7DO7xnNrv94bHvAEgPUTnINUG07ozujmV6dyNkMhbPZitlUJttt
+qy7/yVMxNF59HHThkAYE7BjtXJOMMSXhIYtVi/XFfd/wK71/Fvl+6G60wIDAQAB
o4IBJjCCASIwHQYDVR0OBBYEFDPYRWbXaIcYflQNcCeRxybXhWXAMIHRBgNVHSME
gckwgcaAFDPYRWbXaIcYflQNcCeRxybXhWXAoYGXpIGUMIGRMQswCQYDVQQGEwJV
UzEQMA4GA1UECAwHTW9udGFuYTEQMA4GA1UEBwwHQm96ZW1hbjEVMBMGA1UECgwM
d29sZlNTTF8yMDQ4MQwwCgYDVQQLDANVUkkxGDAWBgNVBAMMD3d3dy53b2xmc3Ns
LmNvbTEfMB0GCSqGSIb3DQEJARYQaW5mb0B3b2xmc3NsLmNvbYIUXAfmE1dBx9tC
qKNMuW32wT+pY8wwCQYDVR0TBAIwADAiBgNVHREEGzAZhhdodHRwczovL3d3dy53
b2xmc3NsLmNvbTANBgkqhkiG9w0BAQsFAAOCAQEAmmwsU8wmtp12ru+a5zWKbRns
k28fz6DGHlR0LOs7dQCIJfzKLWBUrcyieBhUme3YJ50NpaO/vcJcv1VxEVGsqeQy
e4nIzHhNxRZ5oVb2RuM4W+d21dBc37Ef1gqOfqJlGoOdabpUE/vjk/pwi0CQeeEU
27DmSdIe4e9SvlUQLWMHRXCH/FolXFeaVpR3ykkPoNGDAPjTmsyOfwb1mLztAs/6
DT46PdyOL6BXs9wecVRZUBX4XmmfnN4J1+U5TmZh45lh93DGBbohXr75glKO+Uou
mo4WRxU1NDz7dTkN98Xl/u+k8n89TVnWOSbw3z0mnuDdGtYIfL+5ph/2VNAZJA==
-----END CERTIFICATE-----
