Certificate:
    Data:
        Version: 3 (0x2)
        Serial Number:
            4b:c0:41:38:ac:9d:10:ca:2e:5b:14:5f:c8:4c:13:5b:36:91:8f:e1
        Signature Algorithm: sha256WithRSAEncryption
        Issuer: C = US, ST = Montana, L = Bozeman, O = wolfSSL_2048, OU = Programming-2048, CN = www.wolfssl.com, emailAddress = info@wolfssl.com
        Validity
            Not Before: Feb 15 12:50:24 2022 GMT
            Not After : Nov 11 12:50:24 2024 GMT
        Subject: C = US, ST = Montana, L = Bozeman, O = wolfSSL_2048, OU = Programming-2048, CN = www.wolfssl.com, emailAddress = info@wolfssl.com
        Subject Public Key Info:
            Public Key Algorithm: rsaEncryption
                RSA Public-Key: (2048 bit)
                Modulus:
                    00:c3:03:d1:2b:fe:39:a4:32:45:3b:53:c8:84:2b:
                    2a:7c:74:9a:bd:aa:2a:52:07:47:d6:a6:36:b2:07:
                    32:8e:d0:ba:69:7b:c6:c3:44:9e:d4:81:48:fd:2d:
                    68:a2:8b:67:bb:a1:75:c8:36:2c:4a:d2:1b:f7:8b:
                    ba:cf:0d:f9:ef:ec:f1:81:1e:7b:9b:03:47:9a:bf:
                    65:cc:7f:65:24:69:a6:e8:14:89:5b:e4:34:f7:c5:
                    b0:14:93:f5:67:7b:3a:7a:78:e1:01:56:56:91:a6:
                    13:42:8d:d2:3c:40:9c:4c:ef:d1:86:df:37:51:1b:
                    0c:a1:3b:f5:f1:a3:4a:35:e4:e1:ce:96:df:1b:7e:
                    bf:4e:97:d0:10:e8:a8:08:30:81:af:20:0b:43:14:
                    c5:74:67:b4:32:82:6f:8d:86:c2:88:40:99:36:83:
                    ba:1e:40:72:22:17:d7:52:65:24:73:b0:ce:ef:19:
                    cd:ae:ff:78:6c:7b:c0:12:03:d4:4e:72:0d:50:6d:
                    3b:a3:3b:a3:99:5e:9d:c8:d9:0c:85:b3:d9:8a:d9:
                    54:26:db:6d:fa:ac:bb:ff:25:4c:c4:d1:79:f4:71:
                    d3:86:40:18:13:b0:63:b5:72:4e:30:c4:97:84:86:
                    2d:56:2f:d7:15:f7:7f:c0:ae:f5:fc:5b:e5:fb:a1:
                    ba:d3
                Exponent: 65537 (0x10001)
        X509v3 extensions:
            X509v3 Subject Key Identifier: 
                33:D8:45:66:D7:68:87:18:7E:54:0D:70:27:91:C7:26:D7:85:65:C0
            X509v3 Authority Key Identifier: 
                keyid:33:D8:45:66:D7:68:87:18:7E:54:0D:70:27:91:C7:26:D7:85:65:C0
                DirName:/C=US/ST=Montana/L=Bozeman/O=wolfSSL_2048/OU=Programming-2048/CN=www.wolfssl.com/emailAddress=info@wolfssl.com
                serial:4B:C0:41:38:AC:9D:10:CA:2E:5B:14:5F:C8:4C:13:5B:36:91:8F:E1

            X509v3 Basic Constraints: 
                CA:TRUE
            X509v3 Subject Alternative Name: 
                DNS:example.com
            X509v3 Key Usage: critical
                Digital Signature, Certificate Sign, CRL Sign
    Signature Algorithm: sha256WithRSAEncryption
         4f:16:4d:95:e3:a0:77:4b:10:0c:b2:8b:db:19:37:fb:3c:be:
         9f:58:40:f6:0f:26:5c:07:4d:02:d5:01:48:a6:a7:6a:85:c0:
         31:d8:58:f6:8c:6c:cc:02:08:9c:94:a8:4c:a7:73:5f:20:a3:
         e5:dc:be:28:e2:20:24:b8:58:87:15:d8:c4:bf:c6:d9:39:2f:
         f1:95:41:35:91:0d:1e:f0:8e:25:32:5a:80:d7:0b:93:ad:31:
         68:a0:0d:db:de:39:61:bf:8c:12:e8:e7:cb:a9:e2:6e:91:7e:
         e2:2b:1a:e5:4a:d0:0f:ad:d0:5a:d3:d9:b7:d4:3f:2b:41:ec:
         58:94:4f:a8:16:99:e1:b5:62:df:ee:fa:90:e1:cb:76:5a:93:
         fa:76:41:d9:46:8b:5f:89:30:fc:c6:fa:21:e3:05:78:3f:f3:
         92:70:3d:43:fc:cf:57:80:c3:a7:e3:8d:d0:6f:f0:66:70:ef:
         a1:45:37:de:e2:45:d3:48:7d:9a:b8:2a:74:b1:dc:35:32:e9:
         b0:62:2c:f6:ad:79:2c:3c:ea:0c:7b:d7:a7:3f:37:3a:d7:96:
         08:2e:8d:da:25:d0:14:ae:d9:a2:f4:ef:bb:3f:76:c9:6d:44:
         22:ac:2a:5f:ee:fc:c2:f9:09:0b:a9:5c:a4:b4:43:82:19:51:
         5e:bf:c6:40
-----BEGIN CERTIFICATE-----
MIIFCDCCA/CgAwIBAgIUS8BBOKydEMouWxRfyEwTWzaRj+EwDQYJKoZIhvcNAQEL
BQAwgZ4xCzAJBgNVBAYTAlVTMRAwDgYDVQQIDAdNb250YW5hMRAwDgYDVQQHDAdC
b3plbWFuMRUwEwYDVQQKDAx3b2xmU1NMXzIwNDgxGTAXBgNVBAsMEFByb2dyYW1t
aW5nLTIwNDgxGDAWBgNVBAMMD3d3dy53b2xmc3NsLmNvbTEfMB0GCSqGSIb3DQEJ
ARYQaW5mb0B3b2xmc3NsLmNvbTAeFw0yMjAyMTUxMjUwMjRaFw0yNDExMTExMjUw
MjRaMIGeMQswCQYDVQQGEwJVUzEQMA4GA1UECAwHTW9udGFuYTEQMA4GA1UEBwwH
Qm96ZW1hbjEVMBMGA1UECgwMd29sZlNTTF8yMDQ4MRkwFwYDVQQLDBBQcm9ncmFt
bWluZy0yMDQ4MRgwFgYDVQQDDA93d3cud29sZnNzbC5jb20xHzAdBgkqhkiG9w0B
CQEWEGluZm9Ad29sZnNzbC5jb20wggEiMA0GCSqGSIb3DQEBAQUAA4IBDwAwggEK
AoIBAQDDA9Er/jmkMkU7U8iEKyp8dJq9qipSB0fWpjayBzKO0Lppe8bDRJ7UgUj9
LWiii2e7oXXINixK0hv3i7rPDfnv7PGBHnubA0eav2XMf2UkaaboFIlb5DT3xbAU
k/Vnezp6eOEBVlaRphNCjdI8QJxM79GG3zdRGwyhO/Xxo0o15OHOlt8bfr9Ol9AQ
6KgIMIGvIAtDFMV0Z7Qygm+NhsKIQJk2g7oeQHIiF9dSZSRzsM7vGc2u/3hse8AS
A9ROcg1QbTujO6OZXp3I2QyFs9mK2VQm2236rLv/JUzE0Xn0cdOGQBgTsGO1ck4w
xJeEhi1WL9cV93/ArvX8W+X7obrTAgMBAAGjggE6MIIBNjAdBgNVHQ4EFgQUM9hF
Ztdohxh+VA1wJ5HHJteFZcAwgd4GA1UdIwSB1jCB04AUM9hFZtdohxh+VA1wJ5HH
JteFZcChgaSkgaEwgZ4xCzAJBgNVBAYTAlVTMRAwDgYDVQQIDAdNb250YW5hMRAw
DgYDVQQHDAdCb3plbWFuMRUwEwYDVQQKDAx3b2xmU1NMXzIwNDgxGTAXBgNVBAsM
EFByb2dyYW1taW5nLTIwNDgxGDAWBgNVBAMMD3d3dy53b2xmc3NsLmNvbTEfMB0G
CSqGSIb3DQEJARYQaW5mb0B3b2xmc3NsLmNvbYIUS8BBOKydEMouWxRfyEwTWzaR
j+EwDAYDVR0TBAUwAwEB/zAWBgNVHREEDzANggtleGFtcGxlLmNvbTAOBgNVHQ8B
Af8EBAMCAYYwDQYJKoZIhvcNAQELBQADggEBAE8WTZXjoHdLEAyyi9sZN/s8vp9Y
QPYPJlwHTQLVAUimp2qFwDHYWPaMbMwCCJyUqEync18go+XcvijiICS4WIcV2MS/
xtk5L/GVQTWRDR7wjiUyWoDXC5OtMWigDdveOWG/jBLo58up4m6RfuIrGuVK0A+t
0FrT2bfUPytB7FiUT6gWmeG1Yt/u+pDhy3Zak/p2QdlGi1+JMPzG+iHjBXg/85Jw
PUP8z1eAw6fjjdBv8GZw76FFN97iRdNIfZq4KnSx3DUy6bBiLPateSw86gx716c/
NzrXlggujdol0BSu2aL077s/dsltRCKsKl/u/ML5CQupXKS0Q4IZUV6/xkA=
-----END CERTIFICATE-----
