Certificate:
    Data:
        Version: 3 (0x2)
        Serial Number:
            23:a1:03:97:86:ca:57:02:1c:21:00:25:07:d8:b9:89:1c:1e:df:f2
        Signature Algorithm: sha256WithRSAEncryption
        Issuer: C = US, ST = Montana, L = Bozeman, O = wolfSSL_2048, OU = URI, CN = www.wolfssl.com, emailAddress = info@wolfssl.com
        Validity
            Not Before: Jun 19 13:23:41 2020 GMT
            Not After : Mar 16 13:23:41 2023 GMT
        Subject: C = US, ST = Montana, L = Bozeman, O = wolfSSL_2048, OU = URI, CN = www.wolfssl.com, emailAddress = info@wolfssl.com
        Subject Public Key Info:
            Public Key Algorithm: rsaEncryption
                RSA Public-Key: (2048 bit)
                Modulus:
                    00:c3:03:d1:2b:fe:39:a4:32:45:3b:53:c8:84:2b:
                    2a:7c:74:9a:bd:aa:2a:52:07:47:d6:a6:36:b2:07:
                    32:8e:d0:ba:69:7b:c6:c3:44:9e:d4:81:48:fd:2d:
                    68:a2:8b:67:bb:a1:75:c8:36:2c:4a:d2:1b:f7:8b:
                    ba:cf:0d:f9:ef:ec:f1:81:1e:7b:9b:03:47:9a:bf:
                    65:cc:7f:65:24:69:a6:e8:14:89:5b:e4:34:f7:c5:
                    b0:14:93:f5:67:7b:3a:7a:78:e1:01:56:56:91:a6:
                    13:42:8d:d2:3c:40:9c:4c:ef:d1:86:df:37:51:1b:
                    0c:a1:3b:f5:f1:a3:4a:35:e4:e1:ce:96:df:1b:7e:
                    bf:4e:97:d0:10:e8:a8:08:30:81:af:20:0b:43:14:
                    c5:74:67:b4:32:82:6f:8d:86:c2:88:40:99:36:83:
                    ba:1e:40:72:22:17:d7:52:65:24:73:b0:ce:ef:19:
                    cd:ae:ff:78:6c:7b:c0:12:03:d4:4e:72:0d:50:6d:
                    3b:a3:3b:a3:99:5e:9d:c8:d9:0c:85:b3:d9:8a:d9:
                    54:26:db:6d:fa:ac:bb:ff:25:4c:c4:d1:79:f4:71:
                    d3:86:40:18:13:b0:63:b5:72:4e:30:c4:97:84:86:
                    2d:56:2f:d7:15:f7:7f:c0:ae:f5:fc:5b:e5:fb:a1:
                    ba:d3
                Exponent: 65537 (0x10001)
        X509v3 extensions:
            X509v3 Subject Key Identifier: 
                33:D8:45:66:D7:68:87:18:7E:54:0D:70:27:91:C7:26:D7:85:65:C0
            X509v3 Authority Key Identifier: 
                keyid:33:D8:45:66:D7:68:87:18:7E:54:0D:70:27:91:C7:26:D7:85:65:C0
                DirName:/C=US/ST=Montana/L=Bozeman/O=wolfSSL_2048/OU=URI/CN=www.wolfssl.com/emailAddress=info@wolfssl.com
                serial:23:A1:03:97:86:CA:57:02:1C:21:00:25:07:D8:B9:89:1C:1E:DF:F2

            X509v3 Basic Constraints: 
                CA:FALSE
            X509v3 Subject Alternative Name: 
                URI:https://www.wolfssl.com
    Signature Algorithm: sha256WithRSAEncryption
         08:27:81:4b:56:bb:e4:06:57:3c:b6:83:e4:34:8a:65:33:76:
         a7:55:c7:e9:eb:e4:7d:12:b7:24:b0:88:ad:fb:28:7d:36:0f:
         2d:5c:09:98:62:4d:fe:73:25:ff:f2:79:e4:2c:85:38:44:44:
         2a:9f:6d:35:ff:95:d5:b2:48:4f:40:6b:d7:a6:fd:a1:f4:e8:
         46:69:68:a9:c1:97:68:a1:fb:ab:b8:f2:c0:58:71:6a:4e:f3:
         ae:96:b5:9e:22:61:ca:d6:bc:3c:a9:bc:30:6c:1d:73:dc:e6:
         a0:cd:a1:d5:e6:6f:9d:9c:56:a3:dd:56:27:cc:42:52:4a:6b:
         48:b7:d2:b6:45:83:23:03:94:c2:1e:9d:d2:a4:86:9a:8f:2e:
         65:49:a4:07:40:90:45:04:48:a0:f8:67:f0:5f:d8:02:34:1f:
         4b:5f:b6:ab:80:a2:33:c6:0d:04:a7:ff:b4:45:ed:c2:07:00:
         c4:58:2a:b9:cf:40:23:d2:b5:5d:e5:d7:00:1a:81:91:d8:ca:
         da:fe:87:7c:91:77:72:2d:cc:ad:72:a4:5f:1b:19:62:57:f4:
         47:c0:47:a8:7e:c4:ed:6f:52:c1:ff:7f:22:fa:ca:2d:d8:1d:
         73:b3:3b:09:aa:08:b6:67:e9:fd:73:92:73:e4:0f:dd:40:25:
         5a:1a:61:43
-----BEGIN CERTIFICATE-----
MIIE2jCCA8KgAwIBAgIUI6EDl4bKVwIcIQAlB9i5iRwe3/IwDQYJKoZIhvcNAQEL
BQAwgZExCzAJBgNVBAYTAlVTMRAwDgYDVQQIDAdNb250YW5hMRAwDgYDVQQHDAdC
b3plbWFuMRUwEwYDVQQKDAx3b2xmU1NMXzIwNDgxDDAKBgNVBAsMA1VSSTEYMBYG
A1UEAwwPd3d3LndvbGZzc2wuY29tMR8wHQYJKoZIhvcNAQkBFhBpbmZvQHdvbGZz
c2wuY29tMB4XDTIwMDYxOTEzMjM0MVoXDTIzMDMxNjEzMjM0MVowgZExCzAJBgNV
BAYTAlVTMRAwDgYDVQQIDAdNb250YW5hMRAwDgYDVQQHDAdCb3plbWFuMRUwEwYD
VQQKDAx3b2xmU1NMXzIwNDgxDDAKBgNVBAsMA1VSSTEYMBYGA1UEAwwPd3d3Lndv
bGZzc2wuY29tMR8wHQYJKoZIhvcNAQkBFhBpbmZvQHdvbGZzc2wuY29tMIIBIjAN
BgkqhkiG9w0BAQEFAAOCAQ8AMIIBCgKCAQEAwwPRK/45pDJFO1PIhCsqfHSavaoq
UgdH1qY2sgcyjtC6aXvGw0Se1IFI/S1oootnu6F1yDYsStIb94u6zw357+zxgR57
mwNHmr9lzH9lJGmm6BSJW+Q098WwFJP1Z3s6enjhAVZWkaYTQo3SPECcTO/Rht83
URsMoTv18aNKNeThzpbfG36/TpfQEOioCDCBryALQxTFdGe0MoJvjYbCiECZNoO6
HkByIhfXUmUkc7DO7xnNrv94bHvAEgPUTnINUG07ozujmV6dyNkMhbPZitlUJttt
+qy7/yVMxNF59HHThkAYE7BjtXJOMMSXhIYtVi/XFfd/wK71/Fvl+6G60wIDAQAB
o4IBJjCCASIwHQYDVR0OBBYEFDPYRWbXaIcYflQNcCeRxybXhWXAMIHRBgNVHSME
gckwgcaAFDPYRWbXaIcYflQNcCeRxybXhWXAoYGXpIGUMIGRMQswCQYDVQQGEwJV
UzEQMA4GA1UECAwHTW9udGFuYTEQMA4GA1UEBwwHQm96ZW1hbjEVMBMGA1UECgwM
d29sZlNTTF8yMDQ4MQwwCgYDVQQLDANVUkkxGDAWBgNVBAMMD3d3dy53b2xmc3Ns
LmNvbTEfMB0GCSqGSIb3DQEJARYQaW5mb0B3b2xmc3NsLmNvbYIUI6EDl4bKVwIc
IQAlB9i5iRwe3/IwCQYDVR0TBAIwADAiBgNVHREEGzAZhhdodHRwczovL3d3dy53
b2xmc3NsLmNvbTANBgkqhkiG9w0BAQsFAAOCAQEACCeBS1a75AZXPLaD5DSKZTN2
p1XH6evkfRK3JLCIrfsofTYPLVwJmGJN/nMl//J55CyFOEREKp9tNf+V1bJIT0Br
16b9ofToRmloqcGXaKH7q7jywFhxak7zrpa1niJhyta8PKm8MGwdc9zmoM2h1eZv
nZxWo91WJ8xCUkprSLfStkWDIwOUwh6d0qSGmo8uZUmkB0CQRQRIoPhn8F/YAjQf
S1+2q4CiM8YNBKf/tEXtwgcAxFgquc9AI9K1XeXXABqBkdjK2v6HfJF3ci3MrXKk
XxsZYlf0R8BHqH7E7W9Swf9/IvrKLdgdc7M7CaoItmfp/XOSc+QP3UAlWhphQw==
-----END CERTIFICATE-----
