Certificate:
    Data:
        Version: 3 (0x2)
        Serial Number:
            7f:34:4c:d7:45:be:63:97:73:23:3b:64:81:1b:f6:88:3c:61:47:20
        Signature Algorithm: sha256WithRSAEncryption
        Issuer: C = US, ST = Montana, L = Bozeman, O = wolfSSL_2048, OU = Programming-2048, CN = www.wolfssl.com, emailAddress = info@wolfssl.com
        Validity
            Not Before: Sep 26 17:22:42 2023 GMT
            Not After : Jun 22 17:22:42 2026 GMT
        Subject: C = US, ST = Montana, L = Bozeman, O = wolfSSL_2048, OU = Programming-2048, CN = www.wolfssl.com, emailAddress = info@wolfssl.com
        Subject Public Key Info:
            Public Key Algorithm: rsaEncryption
                Public-Key: (2048 bit)
                Modulus:
                    00:c3:03:d1:2b:fe:39:a4:32:45:3b:53:c8:84:2b:
                    2a:7c:74:9a:bd:aa:2a:52:07:47:d6:a6:36:b2:07:
                    32:8e:d0:ba:69:7b:c6:c3:44:9e:d4:81:48:fd:2d:
                    68:a2:8b:67:bb:a1:75:c8:36:2c:4a:d2:1b:f7:8b:
                    ba:cf:0d:f9:ef:ec:f1:81:1e:7b:9b:03:47:9a:bf:
                    65:cc:7f:65:24:69:a6:e8:14:89:5b:e4:34:f7:c5:
                    b0:14:93:f5:67:7b:3a:7a:78:e1:01:56:56:91:a6:
                    13:42:8d:d2:3c:40:9c:4c:ef:d1:86:df:37:51:1b:
                    0c:a1:3b:f5:f1:a3:4a:35:e4:e1:ce:96:df:1b:7e:
                    bf:4e:97:d0:10:e8:a8:08:30:81:af:20:0b:43:14:
                    c5:74:67:b4:32:82:6f:8d:86:c2:88:40:99:36:83:
                    ba:1e:40:72:22:17:d7:52:65:24:73:b0:ce:ef:19:
                    cd:ae:ff:78:6c:7b:c0:12:03:d4:4e:72:0d:50:6d:
                    3b:a3:3b:a3:99:5e:9d:c8:d9:0c:85:b3:d9:8a:d9:
                    54:26:db:6d:fa:ac:bb:ff:25:4c:c4:d1:79:f4:71:
                    d3:86:40:18:13:b0:63:b5:72:4e:30:c4:97:84:86:
                    2d:56:2f:d7:15:f7:7f:c0:ae:f5:fc:5b:e5:fb:a1:
                    ba:d3
                Exponent: 65537 (0x10001)
        X509v3 extensions:
            X509v3 Subject Key Identifier: 
                33:D8:45:66:D7:68:87:18:7E:54:0D:70:27:91:C7:26:D7:85:65:C0
            X509v3 Authority Key Identifier: 
                keyid:33:D8:45:66:D7:68:87:18:7E:54:0D:70:27:91:C7:26:D7:85:65:C0
                DirName:/C=US/ST=Montana/L=Bozeman/O=wolfSSL_2048/OU=Programming-2048/CN=www.wolfssl.com/emailAddress=info@wolfssl.com
                serial:7F:34:4C:D7:45:BE:63:97:73:23:3B:64:81:1B:F6:88:3C:61:47:20
            X509v3 Basic Constraints: 
                CA:TRUE
            X509v3 Subject Alternative Name: 
                DNS:example.com, IP Address:127.0.0.1
            X509v3 Extended Key Usage: 
                TLS Web Server Authentication, TLS Web Client Authentication
    Signature Algorithm: sha256WithRSAEncryption
    Signature Value:
        8a:e8:79:2f:4c:7c:b1:7c:1e:64:75:b6:1f:5a:4d:ae:92:e2:
        e2:fc:d6:a2:33:9f:cc:b5:ab:f3:66:21:b2:41:2e:95:7e:4d:
        f4:f5:80:04:0d:35:47:81:6f:19:d4:58:43:8b:42:ac:a6:ab:
        37:65:3e:21:21:70:85:38:e4:fe:73:4c:bb:96:59:eb:f4:43:
        7f:7a:19:ed:79:bd:4b:af:f7:84:45:ea:01:15:e0:a3:7e:f8:
        08:1d:fa:4d:38:b7:ac:17:14:24:3b:a0:bc:a9:e5:e3:98:55:
        24:35:18:f6:66:f0:f7:12:98:c6:7e:eb:29:99:99:38:46:b0:
        55:7a:53:61:1c:86:42:ab:aa:59:ed:fb:64:b5:0e:6f:6c:3d:
        9e:d2:40:b7:c0:03:43:88:a3:39:02:e8:25:8b:2c:11:0c:8c:
        1e:5b:f1:59:cf:97:f9:90:d2:5d:c9:1c:27:4f:54:4a:59:7d:
        90:35:bb:60:c8:40:33:14:a9:f6:1d:2e:e6:e4:8e:44:5f:fa:
        53:4c:12:d7:20:dd:4b:9f:c6:26:49:16:9a:ce:42:58:fc:a5:
        12:16:f5:49:20:5a:88:84:be:d0:e7:29:00:ba:4d:00:fa:ff:
        47:95:9e:6f:4a:87:35:05:cc:20:36:86:aa:3d:59:97:19:c5:
        98:7a:8e:4a
-----BEGIN CERTIFICATE-----
MIIFHTCCBAWgAwIBAgIUfzRM10W+Y5dzIztkgRv2iDxhRyAwDQYJKoZIhvcNAQEL
BQAwgZ4xCzAJBgNVBAYTAlVTMRAwDgYDVQQIDAdNb250YW5hMRAwDgYDVQQHDAdC
b3plbWFuMRUwEwYDVQQKDAx3b2xmU1NMXzIwNDgxGTAXBgNVBAsMEFByb2dyYW1t
aW5nLTIwNDgxGDAWBgNVBAMMD3d3dy53b2xmc3NsLmNvbTEfMB0GCSqGSIb3DQEJ
ARYQaW5mb0B3b2xmc3NsLmNvbTAeFw0yMzA5MjYxNzIyNDJaFw0yNjA2MjIxNzIy
NDJaMIGeMQswCQYDVQQGEwJVUzEQMA4GA1UECAwHTW9udGFuYTEQMA4GA1UEBwwH
Qm96ZW1hbjEVMBMGA1UECgwMd29sZlNTTF8yMDQ4MRkwFwYDVQQLDBBQcm9ncmFt
bWluZy0yMDQ4MRgwFgYDVQQDDA93d3cud29sZnNzbC5jb20xHzAdBgkqhkiG9w0B
CQEWEGluZm9Ad29sZnNzbC5jb20wggEiMA0GCSqGSIb3DQEBAQUAA4IBDwAwggEK
AoIBAQDDA9Er/jmkMkU7U8iEKyp8dJq9qipSB0fWpjayBzKO0Lppe8bDRJ7UgUj9
LWiii2e7oXXINixK0hv3i7rPDfnv7PGBHnubA0eav2XMf2UkaaboFIlb5DT3xbAU
k/Vnezp6eOEBVlaRphNCjdI8QJxM79GG3zdRGwyhO/Xxo0o15OHOlt8bfr9Ol9AQ
6KgIMIGvIAtDFMV0Z7Qygm+NhsKIQJk2g7oeQHIiF9dSZSRzsM7vGc2u/3hse8AS
A9ROcg1QbTujO6OZXp3I2QyFs9mK2VQm2236rLv/JUzE0Xn0cdOGQBgTsGO1ck4w
xJeEhi1WL9cV93/ArvX8W+X7obrTAgMBAAGjggFPMIIBSzAdBgNVHQ4EFgQUM9hF
Ztdohxh+VA1wJ5HHJteFZcAwgd4GA1UdIwSB1jCB04AUM9hFZtdohxh+VA1wJ5HH
JteFZcChgaSkgaEwgZ4xCzAJBgNVBAYTAlVTMRAwDgYDVQQIDAdNb250YW5hMRAw
DgYDVQQHDAdCb3plbWFuMRUwEwYDVQQKDAx3b2xmU1NMXzIwNDgxGTAXBgNVBAsM
EFByb2dyYW1taW5nLTIwNDgxGDAWBgNVBAMMD3d3dy53b2xmc3NsLmNvbTEfMB0G
CSqGSIb3DQEJARYQaW5mb0B3b2xmc3NsLmNvbYIUfzRM10W+Y5dzIztkgRv2iDxh
RyAwDAYDVR0TBAUwAwEB/zAcBgNVHREEFTATggtleGFtcGxlLmNvbYcEfwAAATAd
BgNVHSUEFjAUBggrBgEFBQcDAQYIKwYBBQUHAwIwDQYJKoZIhvcNAQELBQADggEB
AIroeS9MfLF8HmR1th9aTa6S4uL81qIzn8y1q/NmIbJBLpV+TfT1gAQNNUeBbxnU
WEOLQqymqzdlPiEhcIU45P5zTLuWWev0Q396Ge15vUuv94RF6gEV4KN++Agd+k04
t6wXFCQ7oLyp5eOYVSQ1GPZm8PcSmMZ+6ymZmThGsFV6U2EchkKrqlnt+2S1Dm9s
PZ7SQLfAA0OIozkC6CWLLBEMjB5b8VnPl/mQ0l3JHCdPVEpZfZA1u2DIQDMUqfYd
LubkjkRf+lNMEtcg3UufxiZJFprOQlj8pRIW9UkgWoiEvtDnKQC6TQD6/0eVnm9K
hzUFzCA2hqo9WZcZxZh6jko=
-----END CERTIFICATE-----
