Certificate:
    Data:
        Version: 3 (0x2)
        Serial Number:
            56:d8:75:ca:fc:57:ee:e0:9a:b8:1c:18:a2:9e:2f:b2:27:f4:4a:6c
        Signature Algorithm: ecdsa-with-SHA256
        Issuer: C=US, ST=Oregon, L=Salem, O=Client ECC, OU=Fast, CN=www.wolfssl.com, emailAddress=facts@wolfssl.com
        Validity
            Not Before: Jun 11 21:44:29 2026 GMT
            Not After : Mar  7 21:44:29 2029 GMT
        Subject: C=US, ST=Oregon, L=Salem, O=Client ECC, OU=Fast, CN=www.wolfssl.com, emailAddress=facts@wolfssl.com
        Subject Public Key Info:
            Public Key Algorithm: id-ecPublicKey
                Public-Key: (256 bit)
                pub:
                    04:55:bf:f4:0f:44:50:9a:3d:ce:9b:b7:f0:c5:4d:
                    f5:70:7b:d4:ec:24:8e:19:80:ec:5a:4c:a2:24:03:
                    62:2c:9b:da:ef:a2:35:12:43:84:76:16:c6:56:95:
                    06:cc:01:a9:bd:f6:75:1a:42:f7:bd:a9:b2:36:22:
                    5f:c7:5d:7f:b4
                ASN1 OID: prime256v1
                NIST CURVE: P-256
        X509v3 extensions:
            X509v3 Subject Key Identifier: 
                EB:D4:4B:59:6B:95:61:3F:51:57:B6:04:4D:89:41:88:44:5C:AB:F2
            X509v3 Authority Key Identifier: 
                keyid:EB:D4:4B:59:6B:95:61:3F:51:57:B6:04:4D:89:41:88:44:5C:AB:F2
                DirName:/C=US/ST=Oregon/L=Salem/O=Client ECC/OU=Fast/CN=www.wolfssl.com/emailAddress=facts@wolfssl.com
                serial:56:D8:75:CA:FC:57:EE:E0:9A:B8:1C:18:A2:9E:2F:B2:27:F4:4A:6C
            X509v3 Basic Constraints: 
                CA:TRUE
            X509v3 Subject Alternative Name: 
                DNS:example.com, IP Address:127.0.0.1
            X509v3 Extended Key Usage: 
                TLS Web Server Authentication, TLS Web Client Authentication
    Signature Algorithm: ecdsa-with-SHA256
    Signature Value:
        30:46:02:21:00:a2:55:14:ca:d1:0b:5e:8b:3c:51:e6:b7:51:
        91:8a:81:86:8c:c6:ef:9a:33:41:3c:f0:0c:96:d8:35:f6:90:
        0c:02:21:00:81:ba:96:7e:78:bb:65:62:9d:c8:a8:45:d1:b3:
        a3:e5:7c:35:62:e6:da:32:2a:4f:d2:8f:8b:c1:76:87:dc:aa
-----BEGIN CERTIFICATE-----
MIIDYjCCAwegAwIBAgIUVth1yvxX7uCauBwYop4vsif0SmwwCgYIKoZIzj0EAwIw
gY4xCzAJBgNVBAYTAlVTMQ8wDQYDVQQIDAZPcmVnb24xDjAMBgNVBAcMBVNhbGVt
MRMwEQYDVQQKDApDbGllbnQgRUNDMQ0wCwYDVQQLDARGYXN0MRgwFgYDVQQDDA93
d3cud29sZnNzbC5jb20xIDAeBgkqhkiG9w0BCQEWEWZhY3RzQHdvbGZzc2wuY29t
MB4XDTI2MDYxMTIxNDQyOVoXDTI5MDMwNzIxNDQyOVowgY4xCzAJBgNVBAYTAlVT
MQ8wDQYDVQQIDAZPcmVnb24xDjAMBgNVBAcMBVNhbGVtMRMwEQYDVQQKDApDbGll
bnQgRUNDMQ0wCwYDVQQLDARGYXN0MRgwFgYDVQQDDA93d3cud29sZnNzbC5jb20x
IDAeBgkqhkiG9w0BCQEWEWZhY3RzQHdvbGZzc2wuY29tMFkwEwYHKoZIzj0CAQYI
KoZIzj0DAQcDQgAEVb/0D0RQmj3Om7fwxU31cHvU7CSOGYDsWkyiJANiLJva76I1
EkOEdhbGVpUGzAGpvfZ1GkL3vamyNiJfx11/tKOCAT8wggE7MB0GA1UdDgQWBBTr
1EtZa5VhP1FXtgRNiUGIRFyr8jCBzgYDVR0jBIHGMIHDgBTr1EtZa5VhP1FXtgRN
iUGIRFyr8qGBlKSBkTCBjjELMAkGA1UEBhMCVVMxDzANBgNVBAgMBk9yZWdvbjEO
MAwGA1UEBwwFU2FsZW0xEzARBgNVBAoMCkNsaWVudCBFQ0MxDTALBgNVBAsMBEZh
c3QxGDAWBgNVBAMMD3d3dy53b2xmc3NsLmNvbTEgMB4GCSqGSIb3DQEJARYRZmFj
dHNAd29sZnNzbC5jb22CFFbYdcr8V+7gmrgcGKKeL7In9EpsMAwGA1UdEwQFMAMB
Af8wHAYDVR0RBBUwE4ILZXhhbXBsZS5jb22HBH8AAAEwHQYDVR0lBBYwFAYIKwYB
BQUHAwEGCCsGAQUFBwMCMAoGCCqGSM49BAMCA0kAMEYCIQCiVRTK0QteizxR5rdR
kYqBhozG75ozQTzwDJbYNfaQDAIhAIG6ln54u2VincioRdGzo+V8NWLm2jIqT9KP
i8F2h9yq
-----END CERTIFICATE-----
