Certificate:
    Data:
        Version: 3 (0x2)
        Serial Number:
            51:81:88:a5:25:d7:20:cb:b4:f1:23:61:14:99:a6:e5:4f:8a:99:36
        Signature Algorithm: sha256WithRSAEncryption
        Issuer: C = US, ST = Montana, L = Bozeman, O = wolfSSL_2048, OU = Programming-2048, CN = www.wolfssl.com, emailAddress = info@wolfssl.com
        Validity
            Not Before: Sep 26 17:22:42 2023 GMT
            Not After : Jun 22 17:22:42 2026 GMT
        Subject: C = US, ST = Montana, L = Bozeman, O = wolfSSL_2048, OU = Programming-2048, CN = www.wolfssl.com, emailAddress = info@wolfssl.com
        Subject Public Key Info:
            Public Key Algorithm: rsaEncryption
                Public-Key: (2048 bit)
                Modulus:
                    00:c3:03:d1:2b:fe:39:a4:32:45:3b:53:c8:84:2b:
                    2a:7c:74:9a:bd:aa:2a:52:07:47:d6:a6:36:b2:07:
                    32:8e:d0:ba:69:7b:c6:c3:44:9e:d4:81:48:fd:2d:
                    68:a2:8b:67:bb:a1:75:c8:36:2c:4a:d2:1b:f7:8b:
                    ba:cf:0d:f9:ef:ec:f1:81:1e:7b:9b:03:47:9a:bf:
                    65:cc:7f:65:24:69:a6:e8:14:89:5b:e4:34:f7:c5:
                    b0:14:93:f5:67:7b:3a:7a:78:e1:01:56:56:91:a6:
                    13:42:8d:d2:3c:40:9c:4c:ef:d1:86:df:37:51:1b:
                    0c:a1:3b:f5:f1:a3:4a:35:e4:e1:ce:96:df:1b:7e:
                    bf:4e:97:d0:10:e8:a8:08:30:81:af:20:0b:43:14:
                    c5:74:67:b4:32:82:6f:8d:86:c2:88:40:99:36:83:
                    ba:1e:40:72:22:17:d7:52:65:24:73:b0:ce:ef:19:
                    cd:ae:ff:78:6c:7b:c0:12:03:d4:4e:72:0d:50:6d:
                    3b:a3:3b:a3:99:5e:9d:c8:d9:0c:85:b3:d9:8a:d9:
                    54:26:db:6d:fa:ac:bb:ff:25:4c:c4:d1:79:f4:71:
                    d3:86:40:18:13:b0:63:b5:72:4e:30:c4:97:84:86:
                    2d:56:2f:d7:15:f7:7f:c0:ae:f5:fc:5b:e5:fb:a1:
                    ba:d3
                Exponent: 65537 (0x10001)
        X509v3 extensions:
            X509v3 Subject Key Identifier: 
                33:D8:45:66:D7:68:87:18:7E:54:0D:70:27:91:C7:26:D7:85:65:C0
            X509v3 Authority Key Identifier: 
                keyid:33:D8:45:66:D7:68:87:18:7E:54:0D:70:27:91:C7:26:D7:85:65:C0
                DirName:/C=US/ST=Montana/L=Bozeman/O=wolfSSL_2048/OU=Programming-2048/CN=www.wolfssl.com/emailAddress=info@wolfssl.com
                serial:51:81:88:A5:25:D7:20:CB:B4:F1:23:61:14:99:A6:E5:4F:8A:99:36
            X509v3 Basic Constraints: 
                CA:TRUE
            X509v3 Subject Alternative Name: 
                DNS:example.com
            X509v3 Key Usage: critical
                Digital Signature, Certificate Sign, CRL Sign
    Signature Algorithm: sha256WithRSAEncryption
    Signature Value:
        b2:6f:d5:d4:cb:b9:cb:c3:06:62:68:b6:23:f2:2b:a2:07:a4:
        d9:2e:fa:26:3b:33:4f:8a:dd:93:e7:5c:41:0c:8c:e0:26:af:
        6f:cc:42:be:29:aa:20:cf:de:a4:38:7f:b1:bd:41:c0:a1:62:
        f1:16:ec:d2:7d:26:ff:46:5d:19:15:1f:98:9a:01:c8:b4:41:
        ac:1e:d8:82:a0:57:54:55:cb:8b:7e:bb:a3:51:63:d9:a2:95:
        27:ec:e3:52:a2:47:73:fa:29:d1:4a:75:35:c7:11:a4:1d:16:
        53:2d:73:03:d0:34:7d:1b:04:02:a8:42:2d:40:c4:4a:49:c6:
        1e:95:ad:e4:2e:8a:75:0d:a1:44:ea:e3:2f:42:5b:5c:23:af:
        64:67:76:04:5d:0c:69:0d:98:90:45:c4:ff:29:80:75:61:d2:
        20:6c:e6:57:4f:3d:a9:0c:10:a7:a6:de:4b:ff:72:09:c8:e3:
        bd:be:79:5a:ae:46:51:20:66:a2:f9:91:21:23:fd:62:2c:46:
        8b:3b:78:41:e1:2e:7b:5a:ef:81:84:78:47:fc:f0:b0:27:6c:
        3e:d6:aa:95:77:04:81:ad:0c:32:41:a0:9d:02:8e:91:8b:2e:
        5c:d3:1d:45:8f:ab:52:b5:3d:14:e7:79:0f:64:da:d4:6c:c8:
        da:1c:bc:c4
-----BEGIN CERTIFICATE-----
MIIFCDCCA/CgAwIBAgIUUYGIpSXXIMu08SNhFJmm5U+KmTYwDQYJKoZIhvcNAQEL
BQAwgZ4xCzAJBgNVBAYTAlVTMRAwDgYDVQQIDAdNb250YW5hMRAwDgYDVQQHDAdC
b3plbWFuMRUwEwYDVQQKDAx3b2xmU1NMXzIwNDgxGTAXBgNVBAsMEFByb2dyYW1t
aW5nLTIwNDgxGDAWBgNVBAMMD3d3dy53b2xmc3NsLmNvbTEfMB0GCSqGSIb3DQEJ
ARYQaW5mb0B3b2xmc3NsLmNvbTAeFw0yMzA5MjYxNzIyNDJaFw0yNjA2MjIxNzIy
NDJaMIGeMQswCQYDVQQGEwJVUzEQMA4GA1UECAwHTW9udGFuYTEQMA4GA1UEBwwH
Qm96ZW1hbjEVMBMGA1UECgwMd29sZlNTTF8yMDQ4MRkwFwYDVQQLDBBQcm9ncmFt
bWluZy0yMDQ4MRgwFgYDVQQDDA93d3cud29sZnNzbC5jb20xHzAdBgkqhkiG9w0B
CQEWEGluZm9Ad29sZnNzbC5jb20wggEiMA0GCSqGSIb3DQEBAQUAA4IBDwAwggEK
AoIBAQDDA9Er/jmkMkU7U8iEKyp8dJq9qipSB0fWpjayBzKO0Lppe8bDRJ7UgUj9
LWiii2e7oXXINixK0hv3i7rPDfnv7PGBHnubA0eav2XMf2UkaaboFIlb5DT3xbAU
k/Vnezp6eOEBVlaRphNCjdI8QJxM79GG3zdRGwyhO/Xxo0o15OHOlt8bfr9Ol9AQ
6KgIMIGvIAtDFMV0Z7Qygm+NhsKIQJk2g7oeQHIiF9dSZSRzsM7vGc2u/3hse8AS
A9ROcg1QbTujO6OZXp3I2QyFs9mK2VQm2236rLv/JUzE0Xn0cdOGQBgTsGO1ck4w
xJeEhi1WL9cV93/ArvX8W+X7obrTAgMBAAGjggE6MIIBNjAdBgNVHQ4EFgQUM9hF
Ztdohxh+VA1wJ5HHJteFZcAwgd4GA1UdIwSB1jCB04AUM9hFZtdohxh+VA1wJ5HH
JteFZcChgaSkgaEwgZ4xCzAJBgNVBAYTAlVTMRAwDgYDVQQIDAdNb250YW5hMRAw
DgYDVQQHDAdCb3plbWFuMRUwEwYDVQQKDAx3b2xmU1NMXzIwNDgxGTAXBgNVBAsM
EFByb2dyYW1taW5nLTIwNDgxGDAWBgNVBAMMD3d3dy53b2xmc3NsLmNvbTEfMB0G
CSqGSIb3DQEJARYQaW5mb0B3b2xmc3NsLmNvbYIUUYGIpSXXIMu08SNhFJmm5U+K
mTYwDAYDVR0TBAUwAwEB/zAWBgNVHREEDzANggtleGFtcGxlLmNvbTAOBgNVHQ8B
Af8EBAMCAYYwDQYJKoZIhvcNAQELBQADggEBALJv1dTLucvDBmJotiPyK6IHpNku
+iY7M0+K3ZPnXEEMjOAmr2/MQr4pqiDP3qQ4f7G9QcChYvEW7NJ9Jv9GXRkVH5ia
Aci0Qawe2IKgV1RVy4t+u6NRY9milSfs41KiR3P6KdFKdTXHEaQdFlMtcwPQNH0b
BAKoQi1AxEpJxh6VreQuinUNoUTq4y9CW1wjr2RndgRdDGkNmJBFxP8pgHVh0iBs
5ldPPakMEKem3kv/cgnI472+eVquRlEgZqL5kSEj/WIsRos7eEHhLnta74GEeEf8
8LAnbD7WqpV3BIGtDDJBoJ0CjpGLLlzTHUWPq1K1PRTneQ9k2tRsyNocvMQ=
-----END CERTIFICATE-----
