Certificate:
    Data:
        Version: 3 (0x2)
        Serial Number:
            6b:61:49:45:ff:4a:d1:54:16:b4:35:37:c4:98:5d:a9:f6:67:60:91
        Signature Algorithm: sha256WithRSAEncryption
        Issuer: C=US, ST=Montana, L=Bozeman, O=wolfSSL_2048, OU=Programming-2048, CN=www.wolfssl.com, emailAddress=info@wolfssl.com
        Validity
            Not Before: Nov 13 20:41:10 2025 GMT
            Not After : Aug  9 20:41:10 2028 GMT
        Subject: C=US, ST=Montana, L=Bozeman, O=wolfSSL_2048, OU=Programming-2048, CN=www.wolfssl.com, emailAddress=info@wolfssl.com
        Subject Public Key Info:
            Public Key Algorithm: rsaEncryption
                Public-Key: (2048 bit)
                Modulus:
                    00:c3:03:d1:2b:fe:39:a4:32:45:3b:53:c8:84:2b:
                    2a:7c:74:9a:bd:aa:2a:52:07:47:d6:a6:36:b2:07:
                    32:8e:d0:ba:69:7b:c6:c3:44:9e:d4:81:48:fd:2d:
                    68:a2:8b:67:bb:a1:75:c8:36:2c:4a:d2:1b:f7:8b:
                    ba:cf:0d:f9:ef:ec:f1:81:1e:7b:9b:03:47:9a:bf:
                    65:cc:7f:65:24:69:a6:e8:14:89:5b:e4:34:f7:c5:
                    b0:14:93:f5:67:7b:3a:7a:78:e1:01:56:56:91:a6:
                    13:42:8d:d2:3c:40:9c:4c:ef:d1:86:df:37:51:1b:
                    0c:a1:3b:f5:f1:a3:4a:35:e4:e1:ce:96:df:1b:7e:
                    bf:4e:97:d0:10:e8:a8:08:30:81:af:20:0b:43:14:
                    c5:74:67:b4:32:82:6f:8d:86:c2:88:40:99:36:83:
                    ba:1e:40:72:22:17:d7:52:65:24:73:b0:ce:ef:19:
                    cd:ae:ff:78:6c:7b:c0:12:03:d4:4e:72:0d:50:6d:
                    3b:a3:3b:a3:99:5e:9d:c8:d9:0c:85:b3:d9:8a:d9:
                    54:26:db:6d:fa:ac:bb:ff:25:4c:c4:d1:79:f4:71:
                    d3:86:40:18:13:b0:63:b5:72:4e:30:c4:97:84:86:
                    2d:56:2f:d7:15:f7:7f:c0:ae:f5:fc:5b:e5:fb:a1:
                    ba:d3
                Exponent: 65537 (0x10001)
        X509v3 extensions:
            X509v3 Subject Key Identifier: 
                33:D8:45:66:D7:68:87:18:7E:54:0D:70:27:91:C7:26:D7:85:65:C0
            X509v3 Authority Key Identifier: 
                keyid:33:D8:45:66:D7:68:87:18:7E:54:0D:70:27:91:C7:26:D7:85:65:C0
                DirName:/C=US/ST=Montana/L=Bozeman/O=wolfSSL_2048/OU=Programming-2048/CN=www.wolfssl.com/emailAddress=info@wolfssl.com
                serial:6B:61:49:45:FF:4A:D1:54:16:B4:35:37:C4:98:5D:A9:F6:67:60:91
            X509v3 Basic Constraints: 
                CA:TRUE
            X509v3 Subject Alternative Name: 
                DNS:example.com, IP Address:127.0.0.1
            X509v3 Extended Key Usage: 
                TLS Web Server Authentication, TLS Web Client Authentication
    Signature Algorithm: sha256WithRSAEncryption
    Signature Value:
        85:8e:aa:c0:bd:0a:a7:a9:d2:33:ec:39:42:e8:3a:ca:ca:c0:
        32:37:50:5f:ee:5c:5b:16:01:35:3e:e6:ad:53:46:f5:5e:1c:
        ff:ce:5f:03:89:08:14:ee:c7:d9:1e:4b:85:42:0a:0d:c1:96:
        61:4b:66:11:e1:a1:fd:6b:80:ee:cf:cd:02:96:d4:61:9f:54:
        79:0e:07:4e:c5:5f:e2:64:dc:8f:fd:53:3a:4b:05:0d:9c:cb:
        f8:02:c8:82:12:65:c8:62:f0:e7:27:cd:58:38:87:19:3a:cf:
        a8:5e:f3:27:1b:e7:83:68:ad:36:71:42:20:70:bd:7e:84:a7:
        56:d8:49:9f:8f:1e:3a:ad:86:0d:da:fb:f5:0c:0f:01:18:27:
        6e:fb:6b:be:6b:78:f5:a0:c0:6d:5f:0a:56:d5:13:49:a4:4e:
        6a:c3:0a:6e:89:f2:29:3a:30:49:be:99:84:a4:85:33:5f:8e:
        41:f4:c3:4b:eb:d5:01:2e:f8:0e:f3:01:49:d4:45:08:f3:fd:
        25:6a:1d:65:ac:9c:c8:46:2a:b9:1c:c6:a7:7b:82:60:31:bb:
        0f:3d:87:8e:12:3d:c3:47:0b:bd:2d:97:22:b5:83:ec:9a:0f:
        f3:29:ea:c9:ea:59:1d:75:2d:81:48:0f:e2:a6:69:e3:9c:03:
        92:a2:0f:2d
-----BEGIN CERTIFICATE-----
MIIFHTCCBAWgAwIBAgIUa2FJRf9K0VQWtDU3xJhdqfZnYJEwDQYJKoZIhvcNAQEL
BQAwgZ4xCzAJBgNVBAYTAlVTMRAwDgYDVQQIDAdNb250YW5hMRAwDgYDVQQHDAdC
b3plbWFuMRUwEwYDVQQKDAx3b2xmU1NMXzIwNDgxGTAXBgNVBAsMEFByb2dyYW1t
aW5nLTIwNDgxGDAWBgNVBAMMD3d3dy53b2xmc3NsLmNvbTEfMB0GCSqGSIb3DQEJ
ARYQaW5mb0B3b2xmc3NsLmNvbTAeFw0yNTExMTMyMDQxMTBaFw0yODA4MDkyMDQx
MTBaMIGeMQswCQYDVQQGEwJVUzEQMA4GA1UECAwHTW9udGFuYTEQMA4GA1UEBwwH
Qm96ZW1hbjEVMBMGA1UECgwMd29sZlNTTF8yMDQ4MRkwFwYDVQQLDBBQcm9ncmFt
bWluZy0yMDQ4MRgwFgYDVQQDDA93d3cud29sZnNzbC5jb20xHzAdBgkqhkiG9w0B
CQEWEGluZm9Ad29sZnNzbC5jb20wggEiMA0GCSqGSIb3DQEBAQUAA4IBDwAwggEK
AoIBAQDDA9Er/jmkMkU7U8iEKyp8dJq9qipSB0fWpjayBzKO0Lppe8bDRJ7UgUj9
LWiii2e7oXXINixK0hv3i7rPDfnv7PGBHnubA0eav2XMf2UkaaboFIlb5DT3xbAU
k/Vnezp6eOEBVlaRphNCjdI8QJxM79GG3zdRGwyhO/Xxo0o15OHOlt8bfr9Ol9AQ
6KgIMIGvIAtDFMV0Z7Qygm+NhsKIQJk2g7oeQHIiF9dSZSRzsM7vGc2u/3hse8AS
A9ROcg1QbTujO6OZXp3I2QyFs9mK2VQm2236rLv/JUzE0Xn0cdOGQBgTsGO1ck4w
xJeEhi1WL9cV93/ArvX8W+X7obrTAgMBAAGjggFPMIIBSzAdBgNVHQ4EFgQUM9hF
Ztdohxh+VA1wJ5HHJteFZcAwgd4GA1UdIwSB1jCB04AUM9hFZtdohxh+VA1wJ5HH
JteFZcChgaSkgaEwgZ4xCzAJBgNVBAYTAlVTMRAwDgYDVQQIDAdNb250YW5hMRAw
DgYDVQQHDAdCb3plbWFuMRUwEwYDVQQKDAx3b2xmU1NMXzIwNDgxGTAXBgNVBAsM
EFByb2dyYW1taW5nLTIwNDgxGDAWBgNVBAMMD3d3dy53b2xmc3NsLmNvbTEfMB0G
CSqGSIb3DQEJARYQaW5mb0B3b2xmc3NsLmNvbYIUa2FJRf9K0VQWtDU3xJhdqfZn
YJEwDAYDVR0TBAUwAwEB/zAcBgNVHREEFTATggtleGFtcGxlLmNvbYcEfwAAATAd
BgNVHSUEFjAUBggrBgEFBQcDAQYIKwYBBQUHAwIwDQYJKoZIhvcNAQELBQADggEB
AIWOqsC9Cqep0jPsOULoOsrKwDI3UF/uXFsWATU+5q1TRvVeHP/OXwOJCBTux9ke
S4VCCg3BlmFLZhHhof1rgO7PzQKW1GGfVHkOB07FX+Jk3I/9UzpLBQ2cy/gCyIIS
Zchi8OcnzVg4hxk6z6he8ycb54NorTZxQiBwvX6Ep1bYSZ+PHjqthg3a+/UMDwEY
J277a75rePWgwG1fClbVE0mkTmrDCm6J8ik6MEm+mYSkhTNfjkH0w0vr1QEu+A7z
AUnURQjz/SVqHWWsnMhGKrkcxqd7gmAxuw89h44SPcNHC70tlyK1g+yaD/Mp6snq
WR11LYFID+KmaeOcA5KiDy0=
-----END CERTIFICATE-----
