Certificate:
    Data:
        Version: 3 (0x2)
        Serial Number: 4660 (0x1234)
        Signature Algorithm: ecdsa-with-SHA256
        Issuer: C = US, ST = Washington, L = Seattle, O = wolfSSL, OU = Development, CN = www.wolfssl.com, emailAddress = info@wolfssl.com
        Validity
            Not Before: Jan 24 20:12:22 2026 GMT
            Not After : Oct 20 20:12:22 2028 GMT
        Subject: C = US, ST = Oregon, L = Salem, O = Client ECC, OU = Fast, CN = www.wolfssl.com, emailAddress = info@wolfssl.com
        Subject Public Key Info:
            Public Key Algorithm: id-ecPublicKey
                Public-Key: (256 bit)
                pub:
                    04:55:bf:f4:0f:44:50:9a:3d:ce:9b:b7:f0:c5:4d:
                    f5:70:7b:d4:ec:24:8e:19:80:ec:5a:4c:a2:24:03:
                    62:2c:9b:da:ef:a2:35:12:43:84:76:16:c6:56:95:
                    06:cc:01:a9:bd:f6:75:1a:42:f7:bd:a9:b2:36:22:
                    5f:c7:5d:7f:b4
                ASN1 OID: prime256v1
                NIST CURVE: P-256
        X509v3 extensions:
            X509v3 Subject Key Identifier: 
                EB:D4:4B:59:6B:95:61:3F:51:57:B6:04:4D:89:41:88:44:5C:AB:F2
            X509v3 Authority Key Identifier: 
                56:8E:9A:C3:F0:42:DE:18:B9:45:55:6E:F9:93:CF:EA:C3:F3:A5:21
            X509v3 Basic Constraints: critical
                CA:FALSE
            X509v3 Key Usage: critical
                Digital Signature, Key Encipherment, Key Agreement
            X509v3 Extended Key Usage: 
                TLS Web Client Authentication
    Signature Algorithm: ecdsa-with-SHA256
    Signature Value:
        30:45:02:21:00:9d:4d:72:4a:fb:f7:19:96:e3:d3:c2:75:ed:
        b5:39:18:44:e7:61:7d:5e:31:d0:3c:eb:45:b3:6f:38:68:f9:
        1d:02:20:57:c1:19:e8:c8:8a:14:e7:37:d1:93:b3:46:f5:eb:
        8f:24:31:6c:78:d7:cd:b7:c9:8e:09:54:6e:4d:3b:7b:7b
-----BEGIN CERTIFICATE-----
MIICizCCAjGgAwIBAgICEjQwCgYIKoZIzj0EAwIwgZcxCzAJBgNVBAYTAlVTMRMw
EQYDVQQIDApXYXNoaW5ndG9uMRAwDgYDVQQHDAdTZWF0dGxlMRAwDgYDVQQKDAd3
b2xmU1NMMRQwEgYDVQQLDAtEZXZlbG9wbWVudDEYMBYGA1UEAwwPd3d3LndvbGZz
c2wuY29tMR8wHQYJKoZIhvcNAQkBFhBpbmZvQHdvbGZzc2wuY29tMB4XDTI2MDEy
NDIwMTIyMloXDTI4MTAyMDIwMTIyMlowgY0xCzAJBgNVBAYTAlVTMQ8wDQYDVQQI
DAZPcmVnb24xDjAMBgNVBAcMBVNhbGVtMRMwEQYDVQQKDApDbGllbnQgRUNDMQ0w
CwYDVQQLDARGYXN0MRgwFgYDVQQDDA93d3cud29sZnNzbC5jb20xHzAdBgkqhkiG
9w0BCQEWEGluZm9Ad29sZnNzbC5jb20wWTATBgcqhkjOPQIBBggqhkjOPQMBBwNC
AARVv/QPRFCaPc6bt/DFTfVwe9TsJI4ZgOxaTKIkA2Ism9rvojUSQ4R2FsZWlQbM
Aam99nUaQve9qbI2Il/HXX+0o3UwczAdBgNVHQ4EFgQU69RLWWuVYT9RV7YETYlB
iERcq/IwHwYDVR0jBBgwFoAUVo6aw/BC3hi5RVVu+ZPP6sPzpSEwDAYDVR0TAQH/
BAIwADAOBgNVHQ8BAf8EBAMCA6gwEwYDVR0lBAwwCgYIKwYBBQUHAwIwCgYIKoZI
zj0EAwIDSAAwRQIhAJ1Nckr79xmW49PCde21ORhE52F9XjHQPOtFs284aPkdAiBX
wRnoyIoU5zfRk7NG9euPJDFseNfNt8mOCVRuTTt7ew==
-----END CERTIFICATE-----
