Certificate:
    Data:
        Version: 3 (0x2)
        Serial Number:
            6f:b0:b4:88:a8:2e:e4:23:a4:dc:af:14:4c:33:40:79:52:47:ef:97
        Signature Algorithm: sha256WithRSAEncryption
        Issuer: C = US, ST = Montana, L = Bozeman, O = wolfSSL_2048, OU = Programming-2048, CN = www.wolfssl.com, emailAddress = info@wolfssl.com
        Validity
            Not Before: May  7 07:39:03 2020 GMT
            Not After : Feb  1 07:39:03 2023 GMT
        Subject: C = US, ST = Montana, L = Bozeman, O = wolfSSL_2048, OU = Programming-2048, CN = www.wolfssl.com, emailAddress = info@wolfssl.com
        Subject Public Key Info:
            Public Key Algorithm: rsaEncryption
                RSA Public-Key: (2048 bit)
                Modulus:
                    00:c3:03:d1:2b:fe:39:a4:32:45:3b:53:c8:84:2b:
                    2a:7c:74:9a:bd:aa:2a:52:07:47:d6:a6:36:b2:07:
                    32:8e:d0:ba:69:7b:c6:c3:44:9e:d4:81:48:fd:2d:
                    68:a2:8b:67:bb:a1:75:c8:36:2c:4a:d2:1b:f7:8b:
                    ba:cf:0d:f9:ef:ec:f1:81:1e:7b:9b:03:47:9a:bf:
                    65:cc:7f:65:24:69:a6:e8:14:89:5b:e4:34:f7:c5:
                    b0:14:93:f5:67:7b:3a:7a:78:e1:01:56:56:91:a6:
                    13:42:8d:d2:3c:40:9c:4c:ef:d1:86:df:37:51:1b:
                    0c:a1:3b:f5:f1:a3:4a:35:e4:e1:ce:96:df:1b:7e:
                    bf:4e:97:d0:10:e8:a8:08:30:81:af:20:0b:43:14:
                    c5:74:67:b4:32:82:6f:8d:86:c2:88:40:99:36:83:
                    ba:1e:40:72:22:17:d7:52:65:24:73:b0:ce:ef:19:
                    cd:ae:ff:78:6c:7b:c0:12:03:d4:4e:72:0d:50:6d:
                    3b:a3:3b:a3:99:5e:9d:c8:d9:0c:85:b3:d9:8a:d9:
                    54:26:db:6d:fa:ac:bb:ff:25:4c:c4:d1:79:f4:71:
                    d3:86:40:18:13:b0:63:b5:72:4e:30:c4:97:84:86:
                    2d:56:2f:d7:15:f7:7f:c0:ae:f5:fc:5b:e5:fb:a1:
                    ba:d3
                Exponent: 65537 (0x10001)
        X509v3 extensions:
            X509v3 Subject Key Identifier: 
                33:D8:45:66:D7:68:87:18:7E:54:0D:70:27:91:C7:26:D7:85:65:C0
            X509v3 Authority Key Identifier: 
                keyid:33:D8:45:66:D7:68:87:18:7E:54:0D:70:27:91:C7:26:D7:85:65:C0
                DirName:/C=US/ST=Montana/L=Bozeman/O=wolfSSL_2048/OU=Programming-2048/CN=www.wolfssl.com/emailAddress=info@wolfssl.com
                serial:6F:B0:B4:88:A8:2E:E4:23:A4:DC:AF:14:4C:33:40:79:52:47:EF:97

            X509v3 Basic Constraints: 
                CA:TRUE
            X509v3 Subject Alternative Name: 
                DNS:example.com, IP Address:127.0.0.1
    Signature Algorithm: sha256WithRSAEncryption
         33:fe:14:e8:37:91:19:d4:15:bf:53:81:48:b9:21:3a:9b:0a:
         8a:4a:02:59:89:2b:37:8f:54:c8:33:41:8f:3f:4b:80:31:62:
         fc:73:bd:64:04:24:c7:c1:f9:f0:da:21:0b:5d:f1:11:c8:3a:
         12:88:a0:84:57:43:d9:df:16:c3:b2:d9:f6:48:5c:be:22:23:
         e0:de:0f:a7:51:22:67:38:9a:26:37:6a:cc:9e:77:8f:50:0d:
         e8:f2:e0:d8:74:47:ea:7e:7f:00:a9:01:e4:54:c7:b0:f5:56:
         ea:7d:b7:2d:4e:2e:ff:4e:38:a1:ee:f8:4d:90:cd:1e:dc:43:
         44:66:a4:00:d8:b7:5d:3b:6f:da:d1:90:e3:5a:43:b9:30:de:
         52:a2:ce:84:89:da:fc:02:f5:87:38:14:84:14:6f:8b:49:15:
         33:aa:1f:04:5b:42:ec:02:7e:b2:5c:9b:62:5b:67:43:f4:f7:
         ec:e5:52:e9:0e:04:83:23:64:ca:a5:dc:3d:d6:e7:a7:6a:3e:
         bd:de:f5:58:a7:04:5e:cd:75:74:c2:12:eb:49:1a:d6:8f:38:
         60:df:1a:5e:30:ad:d6:45:56:29:ab:0a:53:d7:66:d9:b4:ab:
         5b:5b:2a:22:4a:19:f4:42:aa:d3:de:dc:b4:9f:1d:25:b7:91:
         ca:3d:07:9d
-----BEGIN CERTIFICATE-----
MIIE/jCCA+agAwIBAgIUb7C0iKgu5COk3K8UTDNAeVJH75cwDQYJKoZIhvcNAQEL
BQAwgZ4xCzAJBgNVBAYTAlVTMRAwDgYDVQQIDAdNb250YW5hMRAwDgYDVQQHDAdC
b3plbWFuMRUwEwYDVQQKDAx3b2xmU1NMXzIwNDgxGTAXBgNVBAsMEFByb2dyYW1t
aW5nLTIwNDgxGDAWBgNVBAMMD3d3dy53b2xmc3NsLmNvbTEfMB0GCSqGSIb3DQEJ
ARYQaW5mb0B3b2xmc3NsLmNvbTAeFw0yMDA1MDcwNzM5MDNaFw0yMzAyMDEwNzM5
MDNaMIGeMQswCQYDVQQGEwJVUzEQMA4GA1UECAwHTW9udGFuYTEQMA4GA1UEBwwH
Qm96ZW1hbjEVMBMGA1UECgwMd29sZlNTTF8yMDQ4MRkwFwYDVQQLDBBQcm9ncmFt
bWluZy0yMDQ4MRgwFgYDVQQDDA93d3cud29sZnNzbC5jb20xHzAdBgkqhkiG9w0B
CQEWEGluZm9Ad29sZnNzbC5jb20wggEiMA0GCSqGSIb3DQEBAQUAA4IBDwAwggEK
AoIBAQDDA9Er/jmkMkU7U8iEKyp8dJq9qipSB0fWpjayBzKO0Lppe8bDRJ7UgUj9
LWiii2e7oXXINixK0hv3i7rPDfnv7PGBHnubA0eav2XMf2UkaaboFIlb5DT3xbAU
k/Vnezp6eOEBVlaRphNCjdI8QJxM79GG3zdRGwyhO/Xxo0o15OHOlt8bfr9Ol9AQ
6KgIMIGvIAtDFMV0Z7Qygm+NhsKIQJk2g7oeQHIiF9dSZSRzsM7vGc2u/3hse8AS
A9ROcg1QbTujO6OZXp3I2QyFs9mK2VQm2236rLv/JUzE0Xn0cdOGQBgTsGO1ck4w
xJeEhi1WL9cV93/ArvX8W+X7obrTAgMBAAGjggEwMIIBLDAdBgNVHQ4EFgQUM9hF
Ztdohxh+VA1wJ5HHJteFZcAwgd4GA1UdIwSB1jCB04AUM9hFZtdohxh+VA1wJ5HH
JteFZcChgaSkgaEwgZ4xCzAJBgNVBAYTAlVTMRAwDgYDVQQIDAdNb250YW5hMRAw
DgYDVQQHDAdCb3plbWFuMRUwEwYDVQQKDAx3b2xmU1NMXzIwNDgxGTAXBgNVBAsM
EFByb2dyYW1taW5nLTIwNDgxGDAWBgNVBAMMD3d3dy53b2xmc3NsLmNvbTEfMB0G
CSqGSIb3DQEJARYQaW5mb0B3b2xmc3NsLmNvbYIUb7C0iKgu5COk3K8UTDNAeVJH
75cwDAYDVR0TBAUwAwEB/zAcBgNVHREEFTATggtleGFtcGxlLmNvbYcEfwAAATAN
BgkqhkiG9w0BAQsFAAOCAQEAM/4U6DeRGdQVv1OBSLkhOpsKikoCWYkrN49UyDNB
jz9LgDFi/HO9ZAQkx8H58NohC13xEcg6EoighFdD2d8Ww7LZ9khcviIj4N4Pp1Ei
ZziaJjdqzJ53j1AN6PLg2HRH6n5/AKkB5FTHsPVW6n23LU4u/044oe74TZDNHtxD
RGakANi3XTtv2tGQ41pDuTDeUqLOhIna/AL1hzgUhBRvi0kVM6ofBFtC7AJ+slyb
YltnQ/T37OVS6Q4EgyNkyqXcPdbnp2o+vd71WKcEXs11dMIS60ka1o84YN8aXjCt
1kVWKasKU9dm2bSrW1sqIkoZ9EKq097ctJ8dJbeRyj0HnQ==
-----END CERTIFICATE-----
