Certificate:
    Data:
        Version: 3 (0x2)
        Serial Number: 14802441915251815387 (0xcd6cd67ec6eff3db)
    Signature Algorithm: sha1WithRSAEncryption
        Issuer: C=US, ST=Montana, L=Bozeman, O=wolfSSL, OU=Programming, CN=www.wolfssl.com/emailAddress=info@wolfssl.com
        Validity
            Not Before: Feb  5 06:33:30 2015 GMT
            Not After : Nov  1 06:33:30 2017 GMT
        Subject: C=US, ST=Montana, L=Bozeman, O=wolfSSL, OU=Programming, CN=www.wolfssl.com/emailAddress=info@wolfssl.com
        Subject Public Key Info:
            Public Key Algorithm: rsaEncryption
                Public-Key: (2048 bit)
                Modulus:
                    00:c3:03:d1:2b:fe:39:a4:32:45:3b:53:c8:84:2b:
                    2a:7c:74:9a:bd:aa:2a:52:07:47:d6:a6:36:b2:07:
                    32:8e:d0:ba:69:7b:c6:c3:44:9e:d4:81:48:fd:2d:
                    68:a2:8b:67:bb:a1:75:c8:36:2c:4a:d2:1b:f7:8b:
                    ba:cf:0d:f9:ef:ec:f1:81:1e:7b:9b:03:47:9a:bf:
                    65:cc:7f:65:24:69:a6:e8:14:89:5b:e4:34:f7:c5:
                    b0:14:93:f5:67:7b:3a:7a:78:e1:01:56:56:91:a6:
                    13:42:8d:d2:3c:40:9c:4c:ef:d1:86:df:37:51:1b:
                    0c:a1:3b:f5:f1:a3:4a:35:e4:e1:ce:96:df:1b:7e:
                    bf:4e:97:d0:10:e8:a8:08:30:81:af:20:0b:43:14:
                    c5:74:67:b4:32:82:6f:8d:86:c2:88:40:99:36:83:
                    ba:1e:40:72:22:17:d7:52:65:24:73:b0:ce:ef:19:
                    cd:ae:ff:78:6c:7b:c0:12:03:d4:4e:72:0d:50:6d:
                    3b:a3:3b:a3:99:5e:9d:c8:d9:0c:85:b3:d9:8a:d9:
                    54:26:db:6d:fa:ac:bb:ff:25:4c:c4:d1:79:f4:71:
                    d3:86:40:18:13:b0:63:b5:72:4e:30:c4:97:84:86:
                    2d:56:2f:d7:15:f7:7f:c0:ae:f5:fc:5b:e5:fb:a1:
                    ba:d3
                Exponent: 65537 (0x10001)
        X509v3 extensions:
            X509v3 Subject Key Identifier: 
                33:D8:45:66:D7:68:87:18:7E:54:0D:70:27:91:C7:26:D7:85:65:C0
            X509v3 Authority Key Identifier: 
                keyid:33:D8:45:66:D7:68:87:18:7E:54:0D:70:27:91:C7:26:D7:85:65:C0
                DirName:/C=US/ST=Montana/L=Bozeman/O=wolfSSL/OU=Programming/CN=www.wolfssl.com/emailAddress=info@wolfssl.com
                serial:CD:6C:D6:7E:C6:EF:F3:DB

            X509v3 Basic Constraints: 
                CA:TRUE
    Signature Algorithm: sha1WithRSAEncryption
         7e:41:65:73:cd:18:5a:2f:4d:ab:fe:5a:3c:37:63:82:3d:2e:
         8a:a2:02:c9:bd:ee:cd:a7:f7:c4:3b:47:33:1b:10:41:7f:27:
         75:ff:76:79:a6:08:15:00:f9:86:df:91:b2:cc:99:fa:fe:b9:
         eb:93:55:e9:01:d0:77:e0:d8:6e:b3:d9:a3:26:06:25:e1:e9:
         8b:7c:fe:5d:d7:39:5a:c2:f7:e2:f6:de:6a:76:02:18:7e:16:
         d0:d0:d3:09:8c:92:38:a2:ca:7e:a8:b9:cc:08:4c:f0:59:aa:
         25:35:b9:d3:aa:1c:10:1c:dc:0b:d5:61:fc:9c:f1:95:f1:ce:
         47:fd:56:a0:3c:c1:4d:ca:54:cc:00:2f:3e:75:8e:17:40:14:
         49:01:bb:a5:fb:52:0a:bf:bb:09:21:d4:a6:33:58:28:ee:33:
         dc:fe:f8:76:c4:f4:8e:bb:67:68:97:5b:c6:7a:23:85:dd:6a:
         8e:8c:02:05:1d:ee:e2:3d:b4:9c:bb:63:6e:31:5d:5b:8d:bd:
         3c:17:da:c9:3a:a0:39:1f:de:8a:cc:1e:7d:72:25:3b:56:ff:
         8b:bb:af:5a:a7:64:2c:f8:a0:c4:f2:70:57:f0:cf:38:48:7c:
         6c:a2:6a:e2:55:f4:cf:a9:21:b7:3e:42:e1:d8:11:57:e5:40:
         f1:66:95:df
-----BEGIN CERTIFICATE-----
MIIEqjCCA5KgAwIBAgIJAM1s1n7G7/PbMA0GCSqGSIb3DQEBBQUAMIGUMQswCQYD
VQQGEwJVUzEQMA4GA1UECAwHTW9udGFuYTEQMA4GA1UEBwwHQm96ZW1hbjEQMA4G
A1UECgwHd29sZlNTTDEUMBIGA1UECwwLUHJvZ3JhbW1pbmcxGDAWBgNVBAMMD3d3
dy53b2xmc3NsLmNvbTEfMB0GCSqGSIb3DQEJARYQaW5mb0B3b2xmc3NsLmNvbTAe
Fw0xNTAyMDUwNjMzMzBaFw0xNzExMDEwNjMzMzBaMIGUMQswCQYDVQQGEwJVUzEQ
MA4GA1UECAwHTW9udGFuYTEQMA4GA1UEBwwHQm96ZW1hbjEQMA4GA1UECgwHd29s
ZlNTTDEUMBIGA1UECwwLUHJvZ3JhbW1pbmcxGDAWBgNVBAMMD3d3dy53b2xmc3Ns
LmNvbTEfMB0GCSqGSIb3DQEJARYQaW5mb0B3b2xmc3NsLmNvbTCCASIwDQYJKoZI
hvcNAQEBBQADggEPADCCAQoCggEBAMMD0Sv+OaQyRTtTyIQrKnx0mr2qKlIHR9am
NrIHMo7Quml7xsNEntSBSP0taKKLZ7uhdcg2LErSG/eLus8N+e/s8YEee5sDR5q/
Zcx/ZSRppugUiVvkNPfFsBST9Wd7Onp44QFWVpGmE0KN0jxAnEzv0YbfN1EbDKE7
9fGjSjXk4c6W3xt+v06X0BDoqAgwga8gC0MUxXRntDKCb42GwohAmTaDuh5AciIX
11JlJHOwzu8Zza7/eGx7wBID1E5yDVBtO6M7o5lencjZDIWz2YrZVCbbbfqsu/8l
TMTRefRx04ZAGBOwY7VyTjDEl4SGLVYv1xX3f8Cu9fxb5fuhutMCAwEAAaOB/DCB
+TAdBgNVHQ4EFgQUM9hFZtdohxh+VA1wJ5HHJteFZcAwgckGA1UdIwSBwTCBvoAU
M9hFZtdohxh+VA1wJ5HHJteFZcChgZqkgZcwgZQxCzAJBgNVBAYTAlVTMRAwDgYD
VQQIDAdNb250YW5hMRAwDgYDVQQHDAdCb3plbWFuMRAwDgYDVQQKDAd3b2xmU1NM
MRQwEgYDVQQLDAtQcm9ncmFtbWluZzEYMBYGA1UEAwwPd3d3LndvbGZzc2wuY29t
MR8wHQYJKoZIhvcNAQkBFhBpbmZvQHdvbGZzc2wuY29tggkAzWzWfsbv89swDAYD
VR0TBAUwAwEB/zANBgkqhkiG9w0BAQUFAAOCAQEAfkFlc80YWi9Nq/5aPDdjgj0u
iqICyb3uzaf3xDtHMxsQQX8ndf92eaYIFQD5ht+RssyZ+v6565NV6QHQd+DYbrPZ
oyYGJeHpi3z+Xdc5WsL34vbeanYCGH4W0NDTCYySOKLKfqi5zAhM8FmqJTW506oc
EBzcC9Vh/JzxlfHOR/1WoDzBTcpUzAAvPnWOF0AUSQG7pftSCr+7CSHUpjNYKO4z
3P74dsT0jrtnaJdbxnojhd1qjowCBR3u4j20nLtjbjFdW429PBfayTqgOR/eiswe
fXIlO1b/i7uvWqdkLPigxPJwV/DPOEh8bKJq4lX0z6khtz5C4dgRV+VA8WaV3w==
-----END CERTIFICATE-----
