Certificate:
    Data:
        Version: 3 (0x2)
        Serial Number:
            1e:ed:f5:29:ba:b9:06:b1:25:8b:d5:ab:05:6f:66:d8:74:09:da:43
        Signature Algorithm: sha256WithRSAEncryption
        Issuer: C = US, ST = Montana, L = Bozeman, O = wolfSSL_2048, OU = URI, CN = www.wolfssl.com, emailAddress = info@wolfssl.com
        Validity
            Not Before: Dec 18 21:25:29 2024 GMT
            Not After : Sep 14 21:25:29 2027 GMT
        Subject: C = US, ST = Montana, L = Bozeman, O = wolfSSL_2048, OU = URI, CN = www.wolfssl.com, emailAddress = info@wolfssl.com
        Subject Public Key Info:
            Public Key Algorithm: rsaEncryption
                Public-Key: (2048 bit)
                Modulus:
                    00:c3:03:d1:2b:fe:39:a4:32:45:3b:53:c8:84:2b:
                    2a:7c:74:9a:bd:aa:2a:52:07:47:d6:a6:36:b2:07:
                    32:8e:d0:ba:69:7b:c6:c3:44:9e:d4:81:48:fd:2d:
                    68:a2:8b:67:bb:a1:75:c8:36:2c:4a:d2:1b:f7:8b:
                    ba:cf:0d:f9:ef:ec:f1:81:1e:7b:9b:03:47:9a:bf:
                    65:cc:7f:65:24:69:a6:e8:14:89:5b:e4:34:f7:c5:
                    b0:14:93:f5:67:7b:3a:7a:78:e1:01:56:56:91:a6:
                    13:42:8d:d2:3c:40:9c:4c:ef:d1:86:df:37:51:1b:
                    0c:a1:3b:f5:f1:a3:4a:35:e4:e1:ce:96:df:1b:7e:
                    bf:4e:97:d0:10:e8:a8:08:30:81:af:20:0b:43:14:
                    c5:74:67:b4:32:82:6f:8d:86:c2:88:40:99:36:83:
                    ba:1e:40:72:22:17:d7:52:65:24:73:b0:ce:ef:19:
                    cd:ae:ff:78:6c:7b:c0:12:03:d4:4e:72:0d:50:6d:
                    3b:a3:3b:a3:99:5e:9d:c8:d9:0c:85:b3:d9:8a:d9:
                    54:26:db:6d:fa:ac:bb:ff:25:4c:c4:d1:79:f4:71:
                    d3:86:40:18:13:b0:63:b5:72:4e:30:c4:97:84:86:
                    2d:56:2f:d7:15:f7:7f:c0:ae:f5:fc:5b:e5:fb:a1:
                    ba:d3
                Exponent: 65537 (0x10001)
        X509v3 extensions:
            X509v3 Subject Key Identifier: 
                33:D8:45:66:D7:68:87:18:7E:54:0D:70:27:91:C7:26:D7:85:65:C0
            X509v3 Authority Key Identifier: 
                keyid:33:D8:45:66:D7:68:87:18:7E:54:0D:70:27:91:C7:26:D7:85:65:C0
                DirName:/C=US/ST=Montana/L=Bozeman/O=wolfSSL_2048/OU=URI/CN=www.wolfssl.com/emailAddress=info@wolfssl.com
                serial:1E:ED:F5:29:BA:B9:06:B1:25:8B:D5:AB:05:6F:66:D8:74:09:DA:43
            X509v3 Basic Constraints: 
                CA:FALSE
            X509v3 Subject Alternative Name: 
                URI:https://www.wolfssl.com
    Signature Algorithm: sha256WithRSAEncryption
    Signature Value:
        4a:f0:dc:9b:15:c3:a1:a6:ea:20:5f:3e:07:c6:6b:dc:35:46:
        96:0b:0d:92:60:84:a4:e4:1f:ca:36:54:31:62:2e:3c:b2:b0:
        c8:99:e8:e7:13:a7:5b:bb:15:81:a9:6c:ed:67:ef:1c:9a:c9:
        e8:92:4d:16:36:40:0e:88:88:86:17:ba:c9:27:d9:ff:fc:df:
        80:db:8f:96:6b:ac:b2:f9:ed:51:69:5a:66:e7:2f:83:19:38:
        b8:a4:69:12:66:b5:9e:83:55:c9:9a:cc:85:b0:21:a2:08:e4:
        00:00:eb:c5:d1:de:a2:28:53:08:f1:7a:9e:4c:52:b8:04:26:
        1a:92:63:40:82:92:80:8d:f2:3f:a0:6e:8f:19:2e:b9:cf:cf:
        40:21:8e:a4:74:2c:21:97:c2:b2:5d:f7:48:ac:d7:93:c1:d5:
        ae:29:bc:b9:0a:d3:cb:2d:f8:60:e3:ef:f0:24:fc:d1:6f:4d:
        8f:65:64:2c:8b:ec:6e:14:d1:c5:f6:e6:d1:7b:cc:57:37:2d:
        8c:1e:02:e9:91:ca:38:06:3c:7f:9d:ad:8e:ef:d8:91:74:5c:
        22:9f:e0:ce:69:ee:8b:f2:e1:ac:34:59:64:c4:b2:74:1d:09:
        71:22:e6:5f:a2:39:82:8f:d2:bc:b1:fa:28:bc:b7:02:7c:db:
        8c:18:31:2c
-----BEGIN CERTIFICATE-----
MIIE2jCCA8KgAwIBAgIUHu31Kbq5BrEli9WrBW9m2HQJ2kMwDQYJKoZIhvcNAQEL
BQAwgZExCzAJBgNVBAYTAlVTMRAwDgYDVQQIDAdNb250YW5hMRAwDgYDVQQHDAdC
b3plbWFuMRUwEwYDVQQKDAx3b2xmU1NMXzIwNDgxDDAKBgNVBAsMA1VSSTEYMBYG
A1UEAwwPd3d3LndvbGZzc2wuY29tMR8wHQYJKoZIhvcNAQkBFhBpbmZvQHdvbGZz
c2wuY29tMB4XDTI0MTIxODIxMjUyOVoXDTI3MDkxNDIxMjUyOVowgZExCzAJBgNV
BAYTAlVTMRAwDgYDVQQIDAdNb250YW5hMRAwDgYDVQQHDAdCb3plbWFuMRUwEwYD
VQQKDAx3b2xmU1NMXzIwNDgxDDAKBgNVBAsMA1VSSTEYMBYGA1UEAwwPd3d3Lndv
bGZzc2wuY29tMR8wHQYJKoZIhvcNAQkBFhBpbmZvQHdvbGZzc2wuY29tMIIBIjAN
BgkqhkiG9w0BAQEFAAOCAQ8AMIIBCgKCAQEAwwPRK/45pDJFO1PIhCsqfHSavaoq
UgdH1qY2sgcyjtC6aXvGw0Se1IFI/S1oootnu6F1yDYsStIb94u6zw357+zxgR57
mwNHmr9lzH9lJGmm6BSJW+Q098WwFJP1Z3s6enjhAVZWkaYTQo3SPECcTO/Rht83
URsMoTv18aNKNeThzpbfG36/TpfQEOioCDCBryALQxTFdGe0MoJvjYbCiECZNoO6
HkByIhfXUmUkc7DO7xnNrv94bHvAEgPUTnINUG07ozujmV6dyNkMhbPZitlUJttt
+qy7/yVMxNF59HHThkAYE7BjtXJOMMSXhIYtVi/XFfd/wK71/Fvl+6G60wIDAQAB
o4IBJjCCASIwHQYDVR0OBBYEFDPYRWbXaIcYflQNcCeRxybXhWXAMIHRBgNVHSME
gckwgcaAFDPYRWbXaIcYflQNcCeRxybXhWXAoYGXpIGUMIGRMQswCQYDVQQGEwJV
UzEQMA4GA1UECAwHTW9udGFuYTEQMA4GA1UEBwwHQm96ZW1hbjEVMBMGA1UECgwM
d29sZlNTTF8yMDQ4MQwwCgYDVQQLDANVUkkxGDAWBgNVBAMMD3d3dy53b2xmc3Ns
LmNvbTEfMB0GCSqGSIb3DQEJARYQaW5mb0B3b2xmc3NsLmNvbYIUHu31Kbq5BrEl
i9WrBW9m2HQJ2kMwCQYDVR0TBAIwADAiBgNVHREEGzAZhhdodHRwczovL3d3dy53
b2xmc3NsLmNvbTANBgkqhkiG9w0BAQsFAAOCAQEASvDcmxXDoabqIF8+B8Zr3DVG
lgsNkmCEpOQfyjZUMWIuPLKwyJno5xOnW7sVgals7WfvHJrJ6JJNFjZADoiIhhe6
ySfZ//zfgNuPlmussvntUWlaZucvgxk4uKRpEma1noNVyZrMhbAhogjkAADrxdHe
oihTCPF6nkxSuAQmGpJjQIKSgI3yP6Bujxkuuc/PQCGOpHQsIZfCsl33SKzXk8HV
rim8uQrTyy34YOPv8CT80W9Nj2VkLIvsbhTRxfbm0XvMVzctjB4C6ZHKOAY8f52t
ju/YkXRcIp/gzmnui/LhrDRZZMSydB0JcSLmX6I5go/SvLH6KLy3AnzbjBgxLA==
-----END CERTIFICATE-----
