Certificate:
    Data:
        Version: 3 (0x2)
        Serial Number:
            5a:3e:54:33:b4:88:fe:ad:22:40:07:62:9b:28:b1:56:7b:af:a6:eb
        Signature Algorithm: sha256WithRSAEncryption
        Issuer: C = US, ST = Montana, L = Bozeman, O = wolfSSL_2048, OU = ABSOLUTE_URN, CN = www.wolfssl.com, emailAddress = info@wolfssl.com
        Validity
            Not Before: Dec 13 22:19:28 2023 GMT
            Not After : Sep  8 22:19:28 2026 GMT
        Subject: C = US, ST = Montana, L = Bozeman, O = wolfSSL_2048, OU = ABSOLUTE_URN, CN = www.wolfssl.com, emailAddress = info@wolfssl.com
        Subject Public Key Info:
            Public Key Algorithm: rsaEncryption
                RSA Public-Key: (2048 bit)
                Modulus:
                    00:c3:03:d1:2b:fe:39:a4:32:45:3b:53:c8:84:2b:
                    2a:7c:74:9a:bd:aa:2a:52:07:47:d6:a6:36:b2:07:
                    32:8e:d0:ba:69:7b:c6:c3:44:9e:d4:81:48:fd:2d:
                    68:a2:8b:67:bb:a1:75:c8:36:2c:4a:d2:1b:f7:8b:
                    ba:cf:0d:f9:ef:ec:f1:81:1e:7b:9b:03:47:9a:bf:
                    65:cc:7f:65:24:69:a6:e8:14:89:5b:e4:34:f7:c5:
                    b0:14:93:f5:67:7b:3a:7a:78:e1:01:56:56:91:a6:
                    13:42:8d:d2:3c:40:9c:4c:ef:d1:86:df:37:51:1b:
                    0c:a1:3b:f5:f1:a3:4a:35:e4:e1:ce:96:df:1b:7e:
                    bf:4e:97:d0:10:e8:a8:08:30:81:af:20:0b:43:14:
                    c5:74:67:b4:32:82:6f:8d:86:c2:88:40:99:36:83:
                    ba:1e:40:72:22:17:d7:52:65:24:73:b0:ce:ef:19:
                    cd:ae:ff:78:6c:7b:c0:12:03:d4:4e:72:0d:50:6d:
                    3b:a3:3b:a3:99:5e:9d:c8:d9:0c:85:b3:d9:8a:d9:
                    54:26:db:6d:fa:ac:bb:ff:25:4c:c4:d1:79:f4:71:
                    d3:86:40:18:13:b0:63:b5:72:4e:30:c4:97:84:86:
                    2d:56:2f:d7:15:f7:7f:c0:ae:f5:fc:5b:e5:fb:a1:
                    ba:d3
                Exponent: 65537 (0x10001)
        X509v3 extensions:
            X509v3 Subject Key Identifier: 
                33:D8:45:66:D7:68:87:18:7E:54:0D:70:27:91:C7:26:D7:85:65:C0
            X509v3 Authority Key Identifier: 
                keyid:33:D8:45:66:D7:68:87:18:7E:54:0D:70:27:91:C7:26:D7:85:65:C0
                DirName:/C=US/ST=Montana/L=Bozeman/O=wolfSSL_2048/OU=ABSOLUTE_URN/CN=www.wolfssl.com/emailAddress=info@wolfssl.com
                serial:5A:3E:54:33:B4:88:FE:AD:22:40:07:62:9B:28:B1:56:7B:AF:A6:EB

            X509v3 Basic Constraints: 
                CA:FALSE
            X509v3 Subject Alternative Name: 
                URI:urn:example:test
    Signature Algorithm: sha256WithRSAEncryption
         28:ec:66:1b:7e:f7:62:fe:44:8e:b3:65:0a:9c:10:d3:c3:72:
         a1:97:85:1d:5a:1c:de:74:1f:28:63:18:f6:28:d0:d1:8e:55:
         c3:98:7d:c2:21:a8:a2:6f:7e:9a:98:dd:2f:2c:ab:51:69:9b:
         27:1f:04:9e:01:22:ce:fb:3a:a6:c6:37:27:c7:0f:11:93:f8:
         74:9c:18:88:2a:f7:d4:50:da:fc:54:00:f8:5e:57:08:52:fb:
         47:48:d0:a3:7d:9f:3e:87:09:b4:4f:07:c7:46:89:e3:52:a5:
         d9:a8:e9:04:51:58:99:ef:61:9c:51:f4:98:fe:89:fa:d0:1a:
         bd:9f:63:81:e2:9a:f3:67:17:6d:df:8c:be:34:e8:c2:96:a2:
         fc:28:e7:5a:23:fe:c1:02:c8:af:bd:db:4a:d0:8c:28:fd:c9:
         a3:1c:1e:ab:ca:e6:d3:90:b7:25:c5:29:04:b9:76:08:f2:f1:
         14:e5:e7:8a:30:06:0b:bc:5d:30:4f:b0:12:3b:93:d7:99:a2:
         de:57:0f:85:b8:c8:47:ee:dc:5b:6a:71:b7:7e:85:a1:fd:9d:
         3a:d2:fa:2b:0f:7c:51:8c:d9:ef:9e:37:c9:3a:4a:75:85:b1:
         16:ef:f9:cc:48:b4:15:8e:08:5f:ea:82:5b:32:07:a9:56:d4:
         76:5e:bc:a4
-----BEGIN CERTIFICATE-----
MIIE7jCCA9agAwIBAgIUWj5UM7SI/q0iQAdimyixVnuvpuswDQYJKoZIhvcNAQEL
BQAwgZoxCzAJBgNVBAYTAlVTMRAwDgYDVQQIDAdNb250YW5hMRAwDgYDVQQHDAdC
b3plbWFuMRUwEwYDVQQKDAx3b2xmU1NMXzIwNDgxFTATBgNVBAsMDEFCU09MVVRF
X1VSTjEYMBYGA1UEAwwPd3d3LndvbGZzc2wuY29tMR8wHQYJKoZIhvcNAQkBFhBp
bmZvQHdvbGZzc2wuY29tMB4XDTIzMTIxMzIyMTkyOFoXDTI2MDkwODIyMTkyOFow
gZoxCzAJBgNVBAYTAlVTMRAwDgYDVQQIDAdNb250YW5hMRAwDgYDVQQHDAdCb3pl
bWFuMRUwEwYDVQQKDAx3b2xmU1NMXzIwNDgxFTATBgNVBAsMDEFCU09MVVRFX1VS
TjEYMBYGA1UEAwwPd3d3LndvbGZzc2wuY29tMR8wHQYJKoZIhvcNAQkBFhBpbmZv
QHdvbGZzc2wuY29tMIIBIjANBgkqhkiG9w0BAQEFAAOCAQ8AMIIBCgKCAQEAwwPR
K/45pDJFO1PIhCsqfHSavaoqUgdH1qY2sgcyjtC6aXvGw0Se1IFI/S1oootnu6F1
yDYsStIb94u6zw357+zxgR57mwNHmr9lzH9lJGmm6BSJW+Q098WwFJP1Z3s6enjh
AVZWkaYTQo3SPECcTO/Rht83URsMoTv18aNKNeThzpbfG36/TpfQEOioCDCBryAL
QxTFdGe0MoJvjYbCiECZNoO6HkByIhfXUmUkc7DO7xnNrv94bHvAEgPUTnINUG07
ozujmV6dyNkMhbPZitlUJttt+qy7/yVMxNF59HHThkAYE7BjtXJOMMSXhIYtVi/X
Ffd/wK71/Fvl+6G60wIDAQABo4IBKDCCASQwHQYDVR0OBBYEFDPYRWbXaIcYflQN
cCeRxybXhWXAMIHaBgNVHSMEgdIwgc+AFDPYRWbXaIcYflQNcCeRxybXhWXAoYGg
pIGdMIGaMQswCQYDVQQGEwJVUzEQMA4GA1UECAwHTW9udGFuYTEQMA4GA1UEBwwH
Qm96ZW1hbjEVMBMGA1UECgwMd29sZlNTTF8yMDQ4MRUwEwYDVQQLDAxBQlNPTFVU
RV9VUk4xGDAWBgNVBAMMD3d3dy53b2xmc3NsLmNvbTEfMB0GCSqGSIb3DQEJARYQ
aW5mb0B3b2xmc3NsLmNvbYIUWj5UM7SI/q0iQAdimyixVnuvpuswCQYDVR0TBAIw
ADAbBgNVHREEFDAShhB1cm46ZXhhbXBsZTp0ZXN0MA0GCSqGSIb3DQEBCwUAA4IB
AQAo7GYbfvdi/kSOs2UKnBDTw3Khl4UdWhzedB8oYxj2KNDRjlXDmH3CIaiib36a
mN0vLKtRaZsnHwSeASLO+zqmxjcnxw8Rk/h0nBiIKvfUUNr8VAD4XlcIUvtHSNCj
fZ8+hwm0TwfHRonjUqXZqOkEUViZ72GcUfSY/on60Bq9n2OB4przZxdt34y+NOjC
lqL8KOdaI/7BAsivvdtK0Iwo/cmjHB6ryubTkLclxSkEuXYI8vEU5eeKMAYLvF0w
T7ASO5PXmaLeVw+FuMhH7txbanG3foWh/Z060vorD3xRjNnvnjfJOkp1hbEW7/nM
SLQVjghf6oJbMgepVtR2Xryk
-----END CERTIFICATE-----
