Certificate:
    Data:
        Version: 3 (0x2)
        Serial Number: 4660 (0x1234)
        Signature Algorithm: ecdsa-with-SHA256
        Issuer: C=US, ST=Washington, L=Seattle, O=wolfSSL, OU=Development, CN=www.wolfssl.com, emailAddress=facts@wolfssl.com
        Validity
            Not Before: Jun 11 21:44:41 2026 GMT
            Not After : Mar  7 21:44:41 2029 GMT
        Subject: C=US, ST=Oregon, L=Salem, O=Client ECC, OU=Fast, CN=www.wolfssl.com, emailAddress= facts@wolfssl.com
        Subject Public Key Info:
            Public Key Algorithm: id-ecPublicKey
                Public-Key: (256 bit)
                pub:
                    04:55:bf:f4:0f:44:50:9a:3d:ce:9b:b7:f0:c5:4d:
                    f5:70:7b:d4:ec:24:8e:19:80:ec:5a:4c:a2:24:03:
                    62:2c:9b:da:ef:a2:35:12:43:84:76:16:c6:56:95:
                    06:cc:01:a9:bd:f6:75:1a:42:f7:bd:a9:b2:36:22:
                    5f:c7:5d:7f:b4
                ASN1 OID: prime256v1
                NIST CURVE: P-256
        X509v3 extensions:
            X509v3 Subject Key Identifier: 
                EB:D4:4B:59:6B:95:61:3F:51:57:B6:04:4D:89:41:88:44:5C:AB:F2
            X509v3 Authority Key Identifier: 
                56:8E:9A:C3:F0:42:DE:18:B9:45:55:6E:F9:93:CF:EA:C3:F3:A5:21
            X509v3 Basic Constraints: critical
                CA:FALSE
            X509v3 Key Usage: critical
                Digital Signature, Key Encipherment, Key Agreement
            X509v3 Extended Key Usage: 
                TLS Web Client Authentication
    Signature Algorithm: ecdsa-with-SHA256
    Signature Value:
        30:44:02:20:3a:89:f9:4e:36:2e:6b:b2:4a:48:04:4f:a7:29:
        6a:c2:c2:a2:cd:19:2c:23:31:39:52:1b:2c:13:67:23:5b:11:
        02:20:5d:c9:73:3e:78:34:ff:97:94:ac:1b:f1:e7:90:9d:6e:
        35:af:b0:21:d8:8d:db:90:bd:37:d4:65:7b:05:40:9d
-----BEGIN CERTIFICATE-----
MIICjTCCAjSgAwIBAgICEjQwCgYIKoZIzj0EAwIwgZgxCzAJBgNVBAYTAlVTMRMw
EQYDVQQIDApXYXNoaW5ndG9uMRAwDgYDVQQHDAdTZWF0dGxlMRAwDgYDVQQKDAd3
b2xmU1NMMRQwEgYDVQQLDAtEZXZlbG9wbWVudDEYMBYGA1UEAwwPd3d3LndvbGZz
c2wuY29tMSAwHgYJKoZIhvcNAQkBFhFmYWN0c0B3b2xmc3NsLmNvbTAeFw0yNjA2
MTEyMTQ0NDFaFw0yOTAzMDcyMTQ0NDFaMIGPMQswCQYDVQQGEwJVUzEPMA0GA1UE
CAwGT3JlZ29uMQ4wDAYDVQQHDAVTYWxlbTETMBEGA1UECgwKQ2xpZW50IEVDQzEN
MAsGA1UECwwERmFzdDEYMBYGA1UEAwwPd3d3LndvbGZzc2wuY29tMSEwHwYJKoZI
hvcNAQkBFhIgZmFjdHNAd29sZnNzbC5jb20wWTATBgcqhkjOPQIBBggqhkjOPQMB
BwNCAARVv/QPRFCaPc6bt/DFTfVwe9TsJI4ZgOxaTKIkA2Ism9rvojUSQ4R2FsZW
lQbMAam99nUaQve9qbI2Il/HXX+0o3UwczAdBgNVHQ4EFgQU69RLWWuVYT9RV7YE
TYlBiERcq/IwHwYDVR0jBBgwFoAUVo6aw/BC3hi5RVVu+ZPP6sPzpSEwDAYDVR0T
AQH/BAIwADAOBgNVHQ8BAf8EBAMCA6gwEwYDVR0lBAwwCgYIKwYBBQUHAwIwCgYI
KoZIzj0EAwIDRwAwRAIgOon5TjYua7JKSARPpylqwsKizRksIzE5UhssE2cjWxEC
IF3Jcz54NP+XlKwb8eeQnW41r7Ah2I3bkL031GV7BUCd
-----END CERTIFICATE-----
