Certificate:
    Data:
        Version: 3 (0x2)
        Serial Number: 10273515510344552519 (0x8e92dbecdc8d9047)
    Signature Algorithm: sha256WithRSAEncryption
        Issuer: C=US, ST=Montana, L=Bozeman, O=wolfSSL_2048, OU=RELATIVE_URI, CN=www.wolfssl.com/emailAddress=info@wolfssl.com
        Validity
            Not Before: Feb 10 19:49:52 2021 GMT
            Not After : Nov  7 19:49:52 2023 GMT
        Subject: C=US, ST=Montana, L=Bozeman, O=wolfSSL_2048, OU=RELATIVE_URI, CN=www.wolfssl.com/emailAddress=info@wolfssl.com
        Subject Public Key Info:
            Public Key Algorithm: rsaEncryption
                Public-Key: (2048 bit)
                Modulus:
                    00:c3:03:d1:2b:fe:39:a4:32:45:3b:53:c8:84:2b:
                    2a:7c:74:9a:bd:aa:2a:52:07:47:d6:a6:36:b2:07:
                    32:8e:d0:ba:69:7b:c6:c3:44:9e:d4:81:48:fd:2d:
                    68:a2:8b:67:bb:a1:75:c8:36:2c:4a:d2:1b:f7:8b:
                    ba:cf:0d:f9:ef:ec:f1:81:1e:7b:9b:03:47:9a:bf:
                    65:cc:7f:65:24:69:a6:e8:14:89:5b:e4:34:f7:c5:
                    b0:14:93:f5:67:7b:3a:7a:78:e1:01:56:56:91:a6:
                    13:42:8d:d2:3c:40:9c:4c:ef:d1:86:df:37:51:1b:
                    0c:a1:3b:f5:f1:a3:4a:35:e4:e1:ce:96:df:1b:7e:
                    bf:4e:97:d0:10:e8:a8:08:30:81:af:20:0b:43:14:
                    c5:74:67:b4:32:82:6f:8d:86:c2:88:40:99:36:83:
                    ba:1e:40:72:22:17:d7:52:65:24:73:b0:ce:ef:19:
                    cd:ae:ff:78:6c:7b:c0:12:03:d4:4e:72:0d:50:6d:
                    3b:a3:3b:a3:99:5e:9d:c8:d9:0c:85:b3:d9:8a:d9:
                    54:26:db:6d:fa:ac:bb:ff:25:4c:c4:d1:79:f4:71:
                    d3:86:40:18:13:b0:63:b5:72:4e:30:c4:97:84:86:
                    2d:56:2f:d7:15:f7:7f:c0:ae:f5:fc:5b:e5:fb:a1:
                    ba:d3
                Exponent: 65537 (0x10001)
        X509v3 extensions:
            X509v3 Subject Key Identifier: 
                33:D8:45:66:D7:68:87:18:7E:54:0D:70:27:91:C7:26:D7:85:65:C0
            X509v3 Authority Key Identifier: 
                keyid:33:D8:45:66:D7:68:87:18:7E:54:0D:70:27:91:C7:26:D7:85:65:C0
                DirName:/C=US/ST=Montana/L=Bozeman/O=wolfSSL_2048/OU=RELATIVE_URI/CN=www.wolfssl.com/emailAddress=info@wolfssl.com
                serial:8E:92:DB:EC:DC:8D:90:47

            X509v3 Basic Constraints: 
                CA:FALSE
            X509v3 Subject Alternative Name: 
                URI:../relative/page.html
    Signature Algorithm: sha256WithRSAEncryption
         b4:68:57:4f:dd:9b:14:4e:61:2e:7d:96:88:cc:bb:b9:9d:46:
         70:48:ee:f3:ce:6e:cd:0a:06:5d:95:80:28:f5:e7:9c:50:8f:
         a9:3a:6b:32:b1:33:92:87:13:6f:f6:ce:82:ef:5f:e7:a5:97:
         23:1f:12:ff:a9:f3:33:54:4a:c9:92:68:47:12:51:89:84:48:
         45:60:2e:9e:45:ca:3d:05:91:0f:dc:ef:0f:0e:3c:cb:95:f0:
         68:f0:db:66:c6:06:35:88:8e:cd:18:94:2e:2c:7f:e8:b8:17:
         fa:e8:31:2c:84:5a:f2:2d:92:47:e3:fa:8a:d2:5e:9a:16:ba:
         fd:5f:75:cd:17:12:bd:e8:5f:61:93:ea:09:8b:da:ef:a1:9e:
         4c:03:da:55:75:4e:b3:88:bb:a2:3a:5c:0b:90:41:60:63:84:
         40:cf:c4:dd:87:6f:77:29:7b:00:c7:56:41:ce:04:5d:46:4e:
         c1:6c:b0:75:dc:f2:b1:fd:35:68:79:b5:7e:9f:5d:00:b0:be:
         b6:b6:19:71:44:bb:d3:41:1f:54:16:90:fb:32:41:0a:44:35:
         59:0c:cc:a3:40:ff:02:fb:a1:e4:97:08:3a:e2:93:ed:6d:cf:
         c8:a0:42:61:19:72:ee:e6:e4:30:af:5d:3b:76:e1:5c:7f:ca:
         06:d5:20:0d
-----BEGIN CERTIFICATE-----
MIIE3TCCA8WgAwIBAgIJAI6S2+zcjZBHMA0GCSqGSIb3DQEBCwUAMIGaMQswCQYD
VQQGEwJVUzEQMA4GA1UECAwHTW9udGFuYTEQMA4GA1UEBwwHQm96ZW1hbjEVMBMG
A1UECgwMd29sZlNTTF8yMDQ4MRUwEwYDVQQLDAxSRUxBVElWRV9VUkkxGDAWBgNV
BAMMD3d3dy53b2xmc3NsLmNvbTEfMB0GCSqGSIb3DQEJARYQaW5mb0B3b2xmc3Ns
LmNvbTAeFw0yMTAyMTAxOTQ5NTJaFw0yMzExMDcxOTQ5NTJaMIGaMQswCQYDVQQG
EwJVUzEQMA4GA1UECAwHTW9udGFuYTEQMA4GA1UEBwwHQm96ZW1hbjEVMBMGA1UE
CgwMd29sZlNTTF8yMDQ4MRUwEwYDVQQLDAxSRUxBVElWRV9VUkkxGDAWBgNVBAMM
D3d3dy53b2xmc3NsLmNvbTEfMB0GCSqGSIb3DQEJARYQaW5mb0B3b2xmc3NsLmNv
bTCCASIwDQYJKoZIhvcNAQEBBQADggEPADCCAQoCggEBAMMD0Sv+OaQyRTtTyIQr
Knx0mr2qKlIHR9amNrIHMo7Quml7xsNEntSBSP0taKKLZ7uhdcg2LErSG/eLus8N
+e/s8YEee5sDR5q/Zcx/ZSRppugUiVvkNPfFsBST9Wd7Onp44QFWVpGmE0KN0jxA
nEzv0YbfN1EbDKE79fGjSjXk4c6W3xt+v06X0BDoqAgwga8gC0MUxXRntDKCb42G
wohAmTaDuh5AciIX11JlJHOwzu8Zza7/eGx7wBID1E5yDVBtO6M7o5lencjZDIWz
2YrZVCbbbfqsu/8lTMTRefRx04ZAGBOwY7VyTjDEl4SGLVYv1xX3f8Cu9fxb5fuh
utMCAwEAAaOCASIwggEeMB0GA1UdDgQWBBQz2EVm12iHGH5UDXAnkccm14VlwDCB
zwYDVR0jBIHHMIHEgBQz2EVm12iHGH5UDXAnkccm14VlwKGBoKSBnTCBmjELMAkG
A1UEBhMCVVMxEDAOBgNVBAgMB01vbnRhbmExEDAOBgNVBAcMB0JvemVtYW4xFTAT
BgNVBAoMDHdvbGZTU0xfMjA0ODEVMBMGA1UECwwMUkVMQVRJVkVfVVJJMRgwFgYD
VQQDDA93d3cud29sZnNzbC5jb20xHzAdBgkqhkiG9w0BCQEWEGluZm9Ad29sZnNz
bC5jb22CCQCOktvs3I2QRzAJBgNVHRMEAjAAMCAGA1UdEQQZMBeGFS4uL3JlbGF0
aXZlL3BhZ2UuaHRtbDANBgkqhkiG9w0BAQsFAAOCAQEAtGhXT92bFE5hLn2WiMy7
uZ1GcEju885uzQoGXZWAKPXnnFCPqTprMrEzkocTb/bOgu9f56WXIx8S/6nzM1RK
yZJoRxJRiYRIRWAunkXKPQWRD9zvDw48y5XwaPDbZsYGNYiOzRiULix/6LgX+ugx
LIRa8i2SR+P6itJemha6/V91zRcSvehfYZPqCYva76GeTAPaVXVOs4i7ojpcC5BB
YGOEQM/E3Ydvdyl7AMdWQc4EXUZOwWywddzysf01aHm1fp9dALC+trYZcUS700Ef
VBaQ+zJBCkQ1WQzMo0D/Avuh5JcIOuKT7W3PyKBCYRly7ubkMK9dO3bhXH/KBtUg
DQ==
-----END CERTIFICATE-----
