Certificate:
    Data:
        Version: 3 (0x2)
        Serial Number: 16416369391847057450 (0xe3d2a8fbf6a3a82a)
    Signature Algorithm: ecdsa-with-SHA1
        Issuer: C=US, ST=Montana, L=Bozeman, O=wolfSSL, OU=Programming, CN=www.wolfssl.com/emailAddress=info@wolfssl.com
        Validity
            Not Before: Feb  5 06:33:30 2015 GMT
            Not After : Nov  1 06:33:30 2017 GMT
        Subject: C=US, ST=Montana, L=Bozeman, O=wolfSSL, OU=Programming, CN=www.wolfssl.com/emailAddress=info@wolfssl.com
        Subject Public Key Info:
            Public Key Algorithm: id-ecPublicKey
                Public-Key: (256 bit)
                pub: 
                    04:55:bf:f4:0f:44:50:9a:3d:ce:9b:b7:f0:c5:4d:
                    f5:70:7b:d4:ec:24:8e:19:80:ec:5a:4c:a2:24:03:
                    62:2c:9b:da:ef:a2:35:12:43:84:76:16:c6:56:95:
                    06:cc:01:a9:bd:f6:75:1a:42:f7:bd:a9:b2:36:22:
                    5f:c7:5d:7f:b4
                ASN1 OID: prime256v1
        X509v3 extensions:
            X509v3 Subject Key Identifier: 
                EB:D4:4B:59:6B:95:61:3F:51:57:B6:04:4D:89:41:88:44:5C:AB:F2
            X509v3 Authority Key Identifier: 
                keyid:EB:D4:4B:59:6B:95:61:3F:51:57:B6:04:4D:89:41:88:44:5C:AB:F2
                DirName:/C=US/ST=Montana/L=Bozeman/O=wolfSSL/OU=Programming/CN=www.wolfssl.com/emailAddress=info@wolfssl.com
                serial:E3:D2:A8:FB:F6:A3:A8:2A

            X509v3 Basic Constraints: 
                CA:TRUE
    Signature Algorithm: ecdsa-with-SHA1
         30:45:02:20:53:ef:f2:14:43:34:cd:80:bd:e8:ca:7b:2d:da:
         f6:8c:88:23:4d:4c:d9:c7:16:3d:1f:42:75:ca:b6:eb:f5:88:
         02:21:00:d7:73:f2:14:8e:09:1e:80:bd:c1:43:11:dd:a7:5d:
         51:a7:4b:e1:0d:28:2f:38:41:5b:3a:e1:de:44:3a:84:2f
-----BEGIN CERTIFICATE-----
MIIDHDCCAsOgAwIBAgIJAOPSqPv2o6gqMAkGByqGSM49BAEwgZQxCzAJBgNVBAYT
AlVTMRAwDgYDVQQIDAdNb250YW5hMRAwDgYDVQQHDAdCb3plbWFuMRAwDgYDVQQK
DAd3b2xmU1NMMRQwEgYDVQQLDAtQcm9ncmFtbWluZzEYMBYGA1UEAwwPd3d3Lndv
bGZzc2wuY29tMR8wHQYJKoZIhvcNAQkBFhBpbmZvQHdvbGZzc2wuY29tMB4XDTE1
MDIwNTA2MzMzMFoXDTE3MTEwMTA2MzMzMFowgZQxCzAJBgNVBAYTAlVTMRAwDgYD
VQQIDAdNb250YW5hMRAwDgYDVQQHDAdCb3plbWFuMRAwDgYDVQQKDAd3b2xmU1NM
MRQwEgYDVQQLDAtQcm9ncmFtbWluZzEYMBYGA1UEAwwPd3d3LndvbGZzc2wuY29t
MR8wHQYJKoZIhvcNAQkBFhBpbmZvQHdvbGZzc2wuY29tMFkwEwYHKoZIzj0CAQYI
KoZIzj0DAQcDQgAEVb/0D0RQmj3Om7fwxU31cHvU7CSOGYDsWkyiJANiLJva76I1
EkOEdhbGVpUGzAGpvfZ1GkL3vamyNiJfx11/tKOB/DCB+TAdBgNVHQ4EFgQU69RL
WWuVYT9RV7YETYlBiERcq/IwgckGA1UdIwSBwTCBvoAU69RLWWuVYT9RV7YETYlB
iERcq/KhgZqkgZcwgZQxCzAJBgNVBAYTAlVTMRAwDgYDVQQIDAdNb250YW5hMRAw
DgYDVQQHDAdCb3plbWFuMRAwDgYDVQQKDAd3b2xmU1NMMRQwEgYDVQQLDAtQcm9n
cmFtbWluZzEYMBYGA1UEAwwPd3d3LndvbGZzc2wuY29tMR8wHQYJKoZIhvcNAQkB
FhBpbmZvQHdvbGZzc2wuY29tggkA49Ko+/ajqCowDAYDVR0TBAUwAwEB/zAJBgcq
hkjOPQQBA0gAMEUCIFPv8hRDNM2AvejKey3a9oyII01M2ccWPR9Cdcq26/WIAiEA
13PyFI4JHoC9wUMR3addUadL4Q0oLzhBWzrh3kQ6hC8=
-----END CERTIFICATE-----
