Certificate:
    Data:
        Version: 3 (0x2)
        Serial Number: 14951923003315625164 (0xcf7fe6c0b99e9ccc)
    Signature Algorithm: sha256WithRSAEncryption
        Issuer: C=US, ST=Montana, L=Bozeman, O=wolfSSL_2048, OU=URI, CN=www.wolfssl.com/emailAddress=info@wolfssl.com
        Validity
            Not Before: Feb 10 19:49:52 2021 GMT
            Not After : Nov  7 19:49:52 2023 GMT
        Subject: C=US, ST=Montana, L=Bozeman, O=wolfSSL_2048, OU=URI, CN=www.wolfssl.com/emailAddress=info@wolfssl.com
        Subject Public Key Info:
            Public Key Algorithm: rsaEncryption
                Public-Key: (2048 bit)
                Modulus:
                    00:c3:03:d1:2b:fe:39:a4:32:45:3b:53:c8:84:2b:
                    2a:7c:74:9a:bd:aa:2a:52:07:47:d6:a6:36:b2:07:
                    32:8e:d0:ba:69:7b:c6:c3:44:9e:d4:81:48:fd:2d:
                    68:a2:8b:67:bb:a1:75:c8:36:2c:4a:d2:1b:f7:8b:
                    ba:cf:0d:f9:ef:ec:f1:81:1e:7b:9b:03:47:9a:bf:
                    65:cc:7f:65:24:69:a6:e8:14:89:5b:e4:34:f7:c5:
                    b0:14:93:f5:67:7b:3a:7a:78:e1:01:56:56:91:a6:
                    13:42:8d:d2:3c:40:9c:4c:ef:d1:86:df:37:51:1b:
                    0c:a1:3b:f5:f1:a3:4a:35:e4:e1:ce:96:df:1b:7e:
                    bf:4e:97:d0:10:e8:a8:08:30:81:af:20:0b:43:14:
                    c5:74:67:b4:32:82:6f:8d:86:c2:88:40:99:36:83:
                    ba:1e:40:72:22:17:d7:52:65:24:73:b0:ce:ef:19:
                    cd:ae:ff:78:6c:7b:c0:12:03:d4:4e:72:0d:50:6d:
                    3b:a3:3b:a3:99:5e:9d:c8:d9:0c:85:b3:d9:8a:d9:
                    54:26:db:6d:fa:ac:bb:ff:25:4c:c4:d1:79:f4:71:
                    d3:86:40:18:13:b0:63:b5:72:4e:30:c4:97:84:86:
                    2d:56:2f:d7:15:f7:7f:c0:ae:f5:fc:5b:e5:fb:a1:
                    ba:d3
                Exponent: 65537 (0x10001)
        X509v3 extensions:
            X509v3 Subject Key Identifier: 
                33:D8:45:66:D7:68:87:18:7E:54:0D:70:27:91:C7:26:D7:85:65:C0
            X509v3 Authority Key Identifier: 
                keyid:33:D8:45:66:D7:68:87:18:7E:54:0D:70:27:91:C7:26:D7:85:65:C0
                DirName:/C=US/ST=Montana/L=Bozeman/O=wolfSSL_2048/OU=URI/CN=www.wolfssl.com/emailAddress=info@wolfssl.com
                serial:CF:7F:E6:C0:B9:9E:9C:CC

            X509v3 Basic Constraints: 
                CA:FALSE
            X509v3 Subject Alternative Name: 
                URI:https://www.wolfssl.com
    Signature Algorithm: sha256WithRSAEncryption
         4b:f2:ec:8e:47:35:a9:fc:3c:36:98:48:b4:64:6c:3e:65:bd:
         c9:d4:a7:38:3f:33:e2:60:ee:7f:aa:16:70:3f:c8:28:02:3e:
         5c:d2:fe:a1:a7:d2:fb:e8:f6:6d:9f:c4:a4:b1:81:f4:6e:80:
         3d:bc:27:f6:6e:d8:93:85:5e:cc:dd:5d:87:16:b3:75:85:72:
         76:dd:9a:32:93:df:01:fa:4d:d2:d3:a4:27:fc:e3:bd:7a:f1:
         9d:3d:08:2e:e7:1f:e3:b8:96:9e:11:0d:88:3b:ba:1f:b5:d8:
         c7:67:9e:74:56:27:5b:55:88:5b:79:dc:2c:56:64:a0:71:72:
         1a:06:d8:d4:0f:41:bf:9d:f3:3e:59:9e:b1:e5:41:6d:4a:a0:
         44:e2:7a:d2:0b:3f:3a:45:14:ff:d5:42:8f:aa:8b:7d:ff:38:
         e7:a9:c2:92:b0:4e:dc:c6:13:35:8c:25:ef:49:c1:06:c2:3b:
         21:91:de:0f:14:0c:79:7d:3c:d6:14:57:ce:eb:9b:49:3f:c5:
         ff:5c:5a:a8:81:cf:ba:0f:51:ec:01:82:56:0a:de:98:41:6f:
         ec:43:47:6d:45:a4:92:67:f2:08:c0:65:d3:8c:47:9c:73:0e:
         de:27:b7:44:33:44:eb:51:d5:ad:80:00:e1:f2:e3:ef:04:8c:
         05:94:af:f6
-----BEGIN CERTIFICATE-----
MIIExDCCA6ygAwIBAgIJAM9/5sC5npzMMA0GCSqGSIb3DQEBCwUAMIGRMQswCQYD
VQQGEwJVUzEQMA4GA1UECAwHTW9udGFuYTEQMA4GA1UEBwwHQm96ZW1hbjEVMBMG
A1UECgwMd29sZlNTTF8yMDQ4MQwwCgYDVQQLDANVUkkxGDAWBgNVBAMMD3d3dy53
b2xmc3NsLmNvbTEfMB0GCSqGSIb3DQEJARYQaW5mb0B3b2xmc3NsLmNvbTAeFw0y
MTAyMTAxOTQ5NTJaFw0yMzExMDcxOTQ5NTJaMIGRMQswCQYDVQQGEwJVUzEQMA4G
A1UECAwHTW9udGFuYTEQMA4GA1UEBwwHQm96ZW1hbjEVMBMGA1UECgwMd29sZlNT
TF8yMDQ4MQwwCgYDVQQLDANVUkkxGDAWBgNVBAMMD3d3dy53b2xmc3NsLmNvbTEf
MB0GCSqGSIb3DQEJARYQaW5mb0B3b2xmc3NsLmNvbTCCASIwDQYJKoZIhvcNAQEB
BQADggEPADCCAQoCggEBAMMD0Sv+OaQyRTtTyIQrKnx0mr2qKlIHR9amNrIHMo7Q
uml7xsNEntSBSP0taKKLZ7uhdcg2LErSG/eLus8N+e/s8YEee5sDR5q/Zcx/ZSRp
pugUiVvkNPfFsBST9Wd7Onp44QFWVpGmE0KN0jxAnEzv0YbfN1EbDKE79fGjSjXk
4c6W3xt+v06X0BDoqAgwga8gC0MUxXRntDKCb42GwohAmTaDuh5AciIX11JlJHOw
zu8Zza7/eGx7wBID1E5yDVBtO6M7o5lencjZDIWz2YrZVCbbbfqsu/8lTMTRefRx
04ZAGBOwY7VyTjDEl4SGLVYv1xX3f8Cu9fxb5fuhutMCAwEAAaOCARswggEXMB0G
A1UdDgQWBBQz2EVm12iHGH5UDXAnkccm14VlwDCBxgYDVR0jBIG+MIG7gBQz2EVm
12iHGH5UDXAnkccm14VlwKGBl6SBlDCBkTELMAkGA1UEBhMCVVMxEDAOBgNVBAgM
B01vbnRhbmExEDAOBgNVBAcMB0JvemVtYW4xFTATBgNVBAoMDHdvbGZTU0xfMjA0
ODEMMAoGA1UECwwDVVJJMRgwFgYDVQQDDA93d3cud29sZnNzbC5jb20xHzAdBgkq
hkiG9w0BCQEWEGluZm9Ad29sZnNzbC5jb22CCQDPf+bAuZ6czDAJBgNVHRMEAjAA
MCIGA1UdEQQbMBmGF2h0dHBzOi8vd3d3LndvbGZzc2wuY29tMA0GCSqGSIb3DQEB
CwUAA4IBAQBL8uyORzWp/Dw2mEi0ZGw+Zb3J1Kc4PzPiYO5/qhZwP8goAj5c0v6h
p9L76PZtn8SksYH0boA9vCf2btiThV7M3V2HFrN1hXJ23Zoyk98B+k3S06Qn/OO9
evGdPQgu5x/juJaeEQ2IO7oftdjHZ550VidbVYhbedwsVmSgcXIaBtjUD0G/nfM+
WZ6x5UFtSqBE4nrSCz86RRT/1UKPqot9/zjnqcKSsE7cxhM1jCXvScEGwjshkd4P
FAx5fTzWFFfO65tJP8X/XFqogc+6D1HsAYJWCt6YQW/sQ0dtRaSSZ/IIwGXTjEec
cw7eJ7dEM0TrUdWtgADh8uPvBIwFlK/2
-----END CERTIFICATE-----
