Certificate:
    Data:
        Version: 3 (0x2)
        Serial Number:
            2d:0c:20:1f:34:e5:10:0f:f6:16:3b:74:50:7e:f1:fd:ae:1e:e0:c0
        Signature Algorithm: sha256WithRSAEncryption
        Issuer: C=US, ST=Montana, L=Bozeman, O=wolfSSL_2048, OU=URI, CN=www.wolfssl.com, emailAddress=info@wolfssl.com
        Validity
            Not Before: Nov 13 20:41:08 2025 GMT
            Not After : Aug  9 20:41:08 2028 GMT
        Subject: C=US, ST=Montana, L=Bozeman, O=wolfSSL_2048, OU=URI, CN=www.wolfssl.com, emailAddress=info@wolfssl.com
        Subject Public Key Info:
            Public Key Algorithm: rsaEncryption
                Public-Key: (2048 bit)
                Modulus:
                    00:c3:03:d1:2b:fe:39:a4:32:45:3b:53:c8:84:2b:
                    2a:7c:74:9a:bd:aa:2a:52:07:47:d6:a6:36:b2:07:
                    32:8e:d0:ba:69:7b:c6:c3:44:9e:d4:81:48:fd:2d:
                    68:a2:8b:67:bb:a1:75:c8:36:2c:4a:d2:1b:f7:8b:
                    ba:cf:0d:f9:ef:ec:f1:81:1e:7b:9b:03:47:9a:bf:
                    65:cc:7f:65:24:69:a6:e8:14:89:5b:e4:34:f7:c5:
                    b0:14:93:f5:67:7b:3a:7a:78:e1:01:56:56:91:a6:
                    13:42:8d:d2:3c:40:9c:4c:ef:d1:86:df:37:51:1b:
                    0c:a1:3b:f5:f1:a3:4a:35:e4:e1:ce:96:df:1b:7e:
                    bf:4e:97:d0:10:e8:a8:08:30:81:af:20:0b:43:14:
                    c5:74:67:b4:32:82:6f:8d:86:c2:88:40:99:36:83:
                    ba:1e:40:72:22:17:d7:52:65:24:73:b0:ce:ef:19:
                    cd:ae:ff:78:6c:7b:c0:12:03:d4:4e:72:0d:50:6d:
                    3b:a3:3b:a3:99:5e:9d:c8:d9:0c:85:b3:d9:8a:d9:
                    54:26:db:6d:fa:ac:bb:ff:25:4c:c4:d1:79:f4:71:
                    d3:86:40:18:13:b0:63:b5:72:4e:30:c4:97:84:86:
                    2d:56:2f:d7:15:f7:7f:c0:ae:f5:fc:5b:e5:fb:a1:
                    ba:d3
                Exponent: 65537 (0x10001)
        X509v3 extensions:
            X509v3 Subject Key Identifier: 
                33:D8:45:66:D7:68:87:18:7E:54:0D:70:27:91:C7:26:D7:85:65:C0
            X509v3 Authority Key Identifier: 
                keyid:33:D8:45:66:D7:68:87:18:7E:54:0D:70:27:91:C7:26:D7:85:65:C0
                DirName:/C=US/ST=Montana/L=Bozeman/O=wolfSSL_2048/OU=URI/CN=www.wolfssl.com/emailAddress=info@wolfssl.com
                serial:2D:0C:20:1F:34:E5:10:0F:F6:16:3B:74:50:7E:F1:FD:AE:1E:E0:C0
            X509v3 Basic Constraints: 
                CA:FALSE
            X509v3 Subject Alternative Name: 
                URI:https://www.wolfssl.com
    Signature Algorithm: sha256WithRSAEncryption
    Signature Value:
        18:af:95:3b:87:75:f3:93:09:3f:81:03:4c:9b:48:89:9a:4c:
        bf:cd:ce:79:b6:c8:42:d4:d5:ae:aa:7d:1a:e2:c2:28:24:c7:
        7e:3c:20:7f:49:cb:ae:83:4e:b0:d2:c3:2c:65:99:0e:59:8f:
        75:0d:af:95:23:54:68:76:2d:bd:59:92:91:36:26:76:73:5c:
        c0:b5:61:56:e0:a1:5c:78:5e:7a:fe:92:8d:4d:a3:5b:6e:c2:
        61:56:1f:2b:bb:a7:d8:d9:5e:1b:e7:64:ec:04:43:c7:72:fe:
        26:a2:f3:c8:a3:25:36:c3:7b:f7:c5:03:23:bd:6e:f8:92:b1:
        b0:5f:10:28:58:7e:a3:d8:31:b3:c6:39:cb:89:ac:d6:9e:85:
        c0:a8:48:3a:dd:85:e1:8a:a6:13:ef:4f:ab:83:07:9c:2e:23:
        37:82:e0:da:8f:7e:fc:51:f8:b1:d3:fc:4b:59:90:42:94:19:
        14:a0:a6:1f:5e:ad:97:ca:2f:e7:c5:41:e4:9c:8e:c5:c3:be:
        2a:47:66:ed:78:7f:3b:57:43:b8:ff:82:91:d3:00:de:70:db:
        46:30:36:f9:c9:ec:36:69:1e:d3:f7:d4:25:70:d1:70:50:70:
        e0:a2:7e:2b:3e:c6:38:a2:f1:02:96:9a:f5:ad:ad:f8:d7:02:
        bc:5d:3a:a8
-----BEGIN CERTIFICATE-----
MIIE2jCCA8KgAwIBAgIULQwgHzTlEA/2Fjt0UH7x/a4e4MAwDQYJKoZIhvcNAQEL
BQAwgZExCzAJBgNVBAYTAlVTMRAwDgYDVQQIDAdNb250YW5hMRAwDgYDVQQHDAdC
b3plbWFuMRUwEwYDVQQKDAx3b2xmU1NMXzIwNDgxDDAKBgNVBAsMA1VSSTEYMBYG
A1UEAwwPd3d3LndvbGZzc2wuY29tMR8wHQYJKoZIhvcNAQkBFhBpbmZvQHdvbGZz
c2wuY29tMB4XDTI1MTExMzIwNDEwOFoXDTI4MDgwOTIwNDEwOFowgZExCzAJBgNV
BAYTAlVTMRAwDgYDVQQIDAdNb250YW5hMRAwDgYDVQQHDAdCb3plbWFuMRUwEwYD
VQQKDAx3b2xmU1NMXzIwNDgxDDAKBgNVBAsMA1VSSTEYMBYGA1UEAwwPd3d3Lndv
bGZzc2wuY29tMR8wHQYJKoZIhvcNAQkBFhBpbmZvQHdvbGZzc2wuY29tMIIBIjAN
BgkqhkiG9w0BAQEFAAOCAQ8AMIIBCgKCAQEAwwPRK/45pDJFO1PIhCsqfHSavaoq
UgdH1qY2sgcyjtC6aXvGw0Se1IFI/S1oootnu6F1yDYsStIb94u6zw357+zxgR57
mwNHmr9lzH9lJGmm6BSJW+Q098WwFJP1Z3s6enjhAVZWkaYTQo3SPECcTO/Rht83
URsMoTv18aNKNeThzpbfG36/TpfQEOioCDCBryALQxTFdGe0MoJvjYbCiECZNoO6
HkByIhfXUmUkc7DO7xnNrv94bHvAEgPUTnINUG07ozujmV6dyNkMhbPZitlUJttt
+qy7/yVMxNF59HHThkAYE7BjtXJOMMSXhIYtVi/XFfd/wK71/Fvl+6G60wIDAQAB
o4IBJjCCASIwHQYDVR0OBBYEFDPYRWbXaIcYflQNcCeRxybXhWXAMIHRBgNVHSME
gckwgcaAFDPYRWbXaIcYflQNcCeRxybXhWXAoYGXpIGUMIGRMQswCQYDVQQGEwJV
UzEQMA4GA1UECAwHTW9udGFuYTEQMA4GA1UEBwwHQm96ZW1hbjEVMBMGA1UECgwM
d29sZlNTTF8yMDQ4MQwwCgYDVQQLDANVUkkxGDAWBgNVBAMMD3d3dy53b2xmc3Ns
LmNvbTEfMB0GCSqGSIb3DQEJARYQaW5mb0B3b2xmc3NsLmNvbYIULQwgHzTlEA/2
Fjt0UH7x/a4e4MAwCQYDVR0TBAIwADAiBgNVHREEGzAZhhdodHRwczovL3d3dy53
b2xmc3NsLmNvbTANBgkqhkiG9w0BAQsFAAOCAQEAGK+VO4d185MJP4EDTJtIiZpM
v83OebbIQtTVrqp9GuLCKCTHfjwgf0nLroNOsNLDLGWZDlmPdQ2vlSNUaHYtvVmS
kTYmdnNcwLVhVuChXHheev6SjU2jW27CYVYfK7un2NleG+dk7ARDx3L+JqLzyKMl
NsN798UDI71u+JKxsF8QKFh+o9gxs8Y5y4ms1p6FwKhIOt2F4YqmE+9Pq4MHnC4j
N4Lg2o9+/FH4sdP8S1mQQpQZFKCmH16tl8ov58VB5JyOxcO+Kkdm7Xh/O1dDuP+C
kdMA3nDbRjA2+cnsNmke0/fUJXDRcFBw4KJ+Kz7GOKLxApaa9a2t+NcCvF06qA==
-----END CERTIFICATE-----
