Certificate:
    Data:
        Version: 3 (0x2)
        Serial Number:
            4e:4b:a3:8d:2d:2b:10:08:9c:05:89:89:3b:c1:6d:f4:fa:ab:6c:75
        Signature Algorithm: sha256WithRSAEncryption
        Issuer: C = US, ST = Montana, L = Bozeman, O = wolfSSL_2048, OU = ABSOLUTE_URN, CN = www.wolfssl.com, emailAddress = info@wolfssl.com
        Validity
            Not Before: Dec 18 21:25:29 2024 GMT
            Not After : Sep 14 21:25:29 2027 GMT
        Subject: C = US, ST = Montana, L = Bozeman, O = wolfSSL_2048, OU = ABSOLUTE_URN, CN = www.wolfssl.com, emailAddress = info@wolfssl.com
        Subject Public Key Info:
            Public Key Algorithm: rsaEncryption
                Public-Key: (2048 bit)
                Modulus:
                    00:c3:03:d1:2b:fe:39:a4:32:45:3b:53:c8:84:2b:
                    2a:7c:74:9a:bd:aa:2a:52:07:47:d6:a6:36:b2:07:
                    32:8e:d0:ba:69:7b:c6:c3:44:9e:d4:81:48:fd:2d:
                    68:a2:8b:67:bb:a1:75:c8:36:2c:4a:d2:1b:f7:8b:
                    ba:cf:0d:f9:ef:ec:f1:81:1e:7b:9b:03:47:9a:bf:
                    65:cc:7f:65:24:69:a6:e8:14:89:5b:e4:34:f7:c5:
                    b0:14:93:f5:67:7b:3a:7a:78:e1:01:56:56:91:a6:
                    13:42:8d:d2:3c:40:9c:4c:ef:d1:86:df:37:51:1b:
                    0c:a1:3b:f5:f1:a3:4a:35:e4:e1:ce:96:df:1b:7e:
                    bf:4e:97:d0:10:e8:a8:08:30:81:af:20:0b:43:14:
                    c5:74:67:b4:32:82:6f:8d:86:c2:88:40:99:36:83:
                    ba:1e:40:72:22:17:d7:52:65:24:73:b0:ce:ef:19:
                    cd:ae:ff:78:6c:7b:c0:12:03:d4:4e:72:0d:50:6d:
                    3b:a3:3b:a3:99:5e:9d:c8:d9:0c:85:b3:d9:8a:d9:
                    54:26:db:6d:fa:ac:bb:ff:25:4c:c4:d1:79:f4:71:
                    d3:86:40:18:13:b0:63:b5:72:4e:30:c4:97:84:86:
                    2d:56:2f:d7:15:f7:7f:c0:ae:f5:fc:5b:e5:fb:a1:
                    ba:d3
                Exponent: 65537 (0x10001)
        X509v3 extensions:
            X509v3 Subject Key Identifier: 
                33:D8:45:66:D7:68:87:18:7E:54:0D:70:27:91:C7:26:D7:85:65:C0
            X509v3 Authority Key Identifier: 
                keyid:33:D8:45:66:D7:68:87:18:7E:54:0D:70:27:91:C7:26:D7:85:65:C0
                DirName:/C=US/ST=Montana/L=Bozeman/O=wolfSSL_2048/OU=ABSOLUTE_URN/CN=www.wolfssl.com/emailAddress=info@wolfssl.com
                serial:4E:4B:A3:8D:2D:2B:10:08:9C:05:89:89:3B:C1:6D:F4:FA:AB:6C:75
            X509v3 Basic Constraints: 
                CA:FALSE
            X509v3 Subject Alternative Name: 
                URI:urn:example:test
    Signature Algorithm: sha256WithRSAEncryption
    Signature Value:
        56:e2:74:63:d9:98:fd:a9:49:a4:60:86:60:cd:2e:37:c3:b5:
        ad:bf:b4:5f:36:14:3d:16:00:f5:5e:cc:50:41:9d:5d:7e:e2:
        91:3d:a0:cf:37:56:dc:e1:3c:93:fb:c8:3f:46:db:5a:b6:f0:
        71:43:f3:9e:09:b3:6f:a6:c3:43:97:43:27:96:ec:37:4a:56:
        dd:99:49:16:ef:1f:5d:c2:37:b0:6e:3f:f6:21:94:ca:df:eb:
        6b:1f:e0:81:95:4d:a7:c1:07:8a:65:d6:f9:e4:d4:42:72:49:
        46:32:c2:29:90:98:f1:90:1f:99:b9:4a:57:18:5c:99:54:ee:
        43:a9:48:52:39:d5:54:91:40:45:2a:f2:8e:58:8e:d6:06:ba:
        f9:04:55:f7:51:84:e4:2a:59:a9:41:ad:40:f3:32:51:21:8d:
        8e:bd:83:0d:9e:3c:2f:b8:24:d0:dd:81:11:99:95:1c:eb:cf:
        ee:1a:ac:85:16:ca:4b:fb:45:47:d0:01:d9:41:da:3a:58:a5:
        df:bd:e3:aa:36:f9:60:d6:20:ac:2c:f5:cd:41:5d:f5:cd:15:
        c4:4a:b5:90:c3:08:ac:12:38:af:7b:bb:d6:1b:b6:4b:0a:38:
        50:af:86:9e:5f:fc:bd:cf:58:68:4b:ce:7c:30:48:ef:da:5a:
        8f:2f:f8:4a
-----BEGIN CERTIFICATE-----
MIIE7jCCA9agAwIBAgIUTkujjS0rEAicBYmJO8Ft9PqrbHUwDQYJKoZIhvcNAQEL
BQAwgZoxCzAJBgNVBAYTAlVTMRAwDgYDVQQIDAdNb250YW5hMRAwDgYDVQQHDAdC
b3plbWFuMRUwEwYDVQQKDAx3b2xmU1NMXzIwNDgxFTATBgNVBAsMDEFCU09MVVRF
X1VSTjEYMBYGA1UEAwwPd3d3LndvbGZzc2wuY29tMR8wHQYJKoZIhvcNAQkBFhBp
bmZvQHdvbGZzc2wuY29tMB4XDTI0MTIxODIxMjUyOVoXDTI3MDkxNDIxMjUyOVow
gZoxCzAJBgNVBAYTAlVTMRAwDgYDVQQIDAdNb250YW5hMRAwDgYDVQQHDAdCb3pl
bWFuMRUwEwYDVQQKDAx3b2xmU1NMXzIwNDgxFTATBgNVBAsMDEFCU09MVVRFX1VS
TjEYMBYGA1UEAwwPd3d3LndvbGZzc2wuY29tMR8wHQYJKoZIhvcNAQkBFhBpbmZv
QHdvbGZzc2wuY29tMIIBIjANBgkqhkiG9w0BAQEFAAOCAQ8AMIIBCgKCAQEAwwPR
K/45pDJFO1PIhCsqfHSavaoqUgdH1qY2sgcyjtC6aXvGw0Se1IFI/S1oootnu6F1
yDYsStIb94u6zw357+zxgR57mwNHmr9lzH9lJGmm6BSJW+Q098WwFJP1Z3s6enjh
AVZWkaYTQo3SPECcTO/Rht83URsMoTv18aNKNeThzpbfG36/TpfQEOioCDCBryAL
QxTFdGe0MoJvjYbCiECZNoO6HkByIhfXUmUkc7DO7xnNrv94bHvAEgPUTnINUG07
ozujmV6dyNkMhbPZitlUJttt+qy7/yVMxNF59HHThkAYE7BjtXJOMMSXhIYtVi/X
Ffd/wK71/Fvl+6G60wIDAQABo4IBKDCCASQwHQYDVR0OBBYEFDPYRWbXaIcYflQN
cCeRxybXhWXAMIHaBgNVHSMEgdIwgc+AFDPYRWbXaIcYflQNcCeRxybXhWXAoYGg
pIGdMIGaMQswCQYDVQQGEwJVUzEQMA4GA1UECAwHTW9udGFuYTEQMA4GA1UEBwwH
Qm96ZW1hbjEVMBMGA1UECgwMd29sZlNTTF8yMDQ4MRUwEwYDVQQLDAxBQlNPTFVU
RV9VUk4xGDAWBgNVBAMMD3d3dy53b2xmc3NsLmNvbTEfMB0GCSqGSIb3DQEJARYQ
aW5mb0B3b2xmc3NsLmNvbYIUTkujjS0rEAicBYmJO8Ft9PqrbHUwCQYDVR0TBAIw
ADAbBgNVHREEFDAShhB1cm46ZXhhbXBsZTp0ZXN0MA0GCSqGSIb3DQEBCwUAA4IB
AQBW4nRj2Zj9qUmkYIZgzS43w7Wtv7RfNhQ9FgD1XsxQQZ1dfuKRPaDPN1bc4TyT
+8g/RttatvBxQ/OeCbNvpsNDl0Mnluw3SlbdmUkW7x9dwjewbj/2IZTK3+trH+CB
lU2nwQeKZdb55NRCcklGMsIpkJjxkB+ZuUpXGFyZVO5DqUhSOdVUkUBFKvKOWI7W
Brr5BFX3UYTkKlmpQa1A8zJRIY2OvYMNnjwvuCTQ3YERmZUc68/uGqyFFspL+0VH
0AHZQdo6WKXfveOqNvlg1iCsLPXNQV31zRXESrWQwwisEjive7vWG7ZLCjhQr4ae
X/y9z1hoS858MEjv2lqPL/hK
-----END CERTIFICATE-----
