Certificate:
    Data:
        Version: 3 (0x2)
        Serial Number: 4661 (0x1235)
        Signature Algorithm: sha256WithRSAEncryption
        Issuer: C=US, ST=Montana, L=Bozeman, O=Sawtooth, OU=Consulting, CN=www.wolfssl.com, emailAddress=facts@wolfssl.com
        Validity
            Not Before: Jun 11 21:44:41 2026 GMT
            Not After : Mar  7 21:44:41 2029 GMT
        Subject: C=US, ST=Montana, L=Bozeman, O=wolfSSL_2048, OU=Programming-2048, CN= www.wolfssl.com, emailAddress=facts@wolfssl.com
        Subject Public Key Info:
            Public Key Algorithm: rsaEncryption
                Public-Key: (2048 bit)
                Modulus:
                    00:c3:03:d1:2b:fe:39:a4:32:45:3b:53:c8:84:2b:
                    2a:7c:74:9a:bd:aa:2a:52:07:47:d6:a6:36:b2:07:
                    32:8e:d0:ba:69:7b:c6:c3:44:9e:d4:81:48:fd:2d:
                    68:a2:8b:67:bb:a1:75:c8:36:2c:4a:d2:1b:f7:8b:
                    ba:cf:0d:f9:ef:ec:f1:81:1e:7b:9b:03:47:9a:bf:
                    65:cc:7f:65:24:69:a6:e8:14:89:5b:e4:34:f7:c5:
                    b0:14:93:f5:67:7b:3a:7a:78:e1:01:56:56:91:a6:
                    13:42:8d:d2:3c:40:9c:4c:ef:d1:86:df:37:51:1b:
                    0c:a1:3b:f5:f1:a3:4a:35:e4:e1:ce:96:df:1b:7e:
                    bf:4e:97:d0:10:e8:a8:08:30:81:af:20:0b:43:14:
                    c5:74:67:b4:32:82:6f:8d:86:c2:88:40:99:36:83:
                    ba:1e:40:72:22:17:d7:52:65:24:73:b0:ce:ef:19:
                    cd:ae:ff:78:6c:7b:c0:12:03:d4:4e:72:0d:50:6d:
                    3b:a3:3b:a3:99:5e:9d:c8:d9:0c:85:b3:d9:8a:d9:
                    54:26:db:6d:fa:ac:bb:ff:25:4c:c4:d1:79:f4:71:
                    d3:86:40:18:13:b0:63:b5:72:4e:30:c4:97:84:86:
                    2d:56:2f:d7:15:f7:7f:c0:ae:f5:fc:5b:e5:fb:a1:
                    ba:d3
                Exponent: 65537 (0x10001)
        X509v3 extensions:
            X509v3 Subject Key Identifier: 
                33:D8:45:66:D7:68:87:18:7E:54:0D:70:27:91:C7:26:D7:85:65:C0
            X509v3 Authority Key Identifier: 
                keyid:27:8E:67:11:74:C3:26:1D:3F:ED:33:63:B3:A4:D8:1D:30:E5:E8:D5
                DirName:/C=US/ST=Montana/L=Bozeman/O=Sawtooth/OU=Consulting/CN=www.wolfssl.com/emailAddress=facts@wolfssl.com
                serial:67:19:D2:A8:7F:E3:2D:FA:75:7A:4F:E7:B2:02:D9:AD:C4:77:5E:F8
            X509v3 Basic Constraints: critical
                CA:FALSE
            X509v3 Key Usage: critical
                Digital Signature, Key Encipherment
            X509v3 Extended Key Usage: 
                TLS Web Client Authentication
    Signature Algorithm: sha256WithRSAEncryption
    Signature Value:
        53:fd:47:c8:ec:38:79:62:09:33:2f:f5:5a:a6:bb:c2:43:72:
        7b:1f:9d:70:75:b0:c0:f5:d0:80:06:e2:21:c1:44:78:2b:b7:
        41:47:52:09:a3:68:0e:e2:60:fc:25:86:7e:fc:e7:c4:4f:a5:
        7f:78:06:fe:05:fe:b2:25:55:70:3d:37:65:96:68:fb:51:82:
        9a:48:14:2c:a8:a3:3b:02:24:a1:ec:2d:6b:9e:55:b6:ec:4e:
        a7:b4:27:b4:0a:96:76:d1:73:f5:8d:58:49:18:f7:09:e9:37:
        10:b2:13:7b:5d:18:09:25:d8:84:31:ba:ff:09:18:b3:4f:70:
        49:5a:8e:75:56:25:ff:48:f4:00:d8:1d:a0:cd:25:27:6c:b4:
        97:c1:1f:4e:f7:2f:c4:f9:3a:10:67:43:d9:bb:ba:47:bc:91:
        15:33:9a:19:44:bc:69:d4:1d:dc:53:19:2e:04:43:08:bf:86:
        96:0c:70:84:b9:5a:10:73:f1:c7:90:ee:41:5e:43:c2:01:aa:
        f2:4d:2c:19:ad:e6:42:57:76:f0:34:fb:26:d7:e2:06:e3:38:
        e3:58:0c:cb:63:c9:c2:f4:fa:bc:8a:52:bb:51:0a:ab:99:e6:
        0a:55:07:8a:0e:fb:22:64:49:c0:ab:a5:1f:40:8c:57:0b:05:
        d8:21:e8:cf
-----BEGIN CERTIFICATE-----
MIIE4zCCA8ugAwIBAgICEjUwDQYJKoZIhvcNAQELBQAwgZUxCzAJBgNVBAYTAlVT
MRAwDgYDVQQIDAdNb250YW5hMRAwDgYDVQQHDAdCb3plbWFuMREwDwYDVQQKDAhT
YXd0b290aDETMBEGA1UECwwKQ29uc3VsdGluZzEYMBYGA1UEAwwPd3d3LndvbGZz
c2wuY29tMSAwHgYJKoZIhvcNAQkBFhFmYWN0c0B3b2xmc3NsLmNvbTAeFw0yNjA2
MTEyMTQ0NDFaFw0yOTAzMDcyMTQ0NDFaMIGgMQswCQYDVQQGEwJVUzEQMA4GA1UE
CAwHTW9udGFuYTEQMA4GA1UEBwwHQm96ZW1hbjEVMBMGA1UECgwMd29sZlNTTF8y
MDQ4MRkwFwYDVQQLDBBQcm9ncmFtbWluZy0yMDQ4MRkwFwYDVQQDDBAgd3d3Lndv
bGZzc2wuY29tMSAwHgYJKoZIhvcNAQkBFhFmYWN0c0B3b2xmc3NsLmNvbTCCASIw
DQYJKoZIhvcNAQEBBQADggEPADCCAQoCggEBAMMD0Sv+OaQyRTtTyIQrKnx0mr2q
KlIHR9amNrIHMo7Quml7xsNEntSBSP0taKKLZ7uhdcg2LErSG/eLus8N+e/s8YEe
e5sDR5q/Zcx/ZSRppugUiVvkNPfFsBST9Wd7Onp44QFWVpGmE0KN0jxAnEzv0Ybf
N1EbDKE79fGjSjXk4c6W3xt+v06X0BDoqAgwga8gC0MUxXRntDKCb42GwohAmTaD
uh5AciIX11JlJHOwzu8Zza7/eGx7wBID1E5yDVBtO6M7o5lencjZDIWz2YrZVCbb
bfqsu/8lTMTRefRx04ZAGBOwY7VyTjDEl4SGLVYv1xX3f8Cu9fxb5fuhutMCAwEA
AaOCAS4wggEqMB0GA1UdDgQWBBQz2EVm12iHGH5UDXAnkccm14VlwDCB1QYDVR0j
BIHNMIHKgBQnjmcRdMMmHT/tM2OzpNgdMOXo1aGBm6SBmDCBlTELMAkGA1UEBhMC
VVMxEDAOBgNVBAgMB01vbnRhbmExEDAOBgNVBAcMB0JvemVtYW4xETAPBgNVBAoM
CFNhd3Rvb3RoMRMwEQYDVQQLDApDb25zdWx0aW5nMRgwFgYDVQQDDA93d3cud29s
ZnNzbC5jb20xIDAeBgkqhkiG9w0BCQEWEWZhY3RzQHdvbGZzc2wuY29tghRnGdKo
f+Mt+nV6T+eyAtmtxHde+DAMBgNVHRMBAf8EAjAAMA4GA1UdDwEB/wQEAwIFoDAT
BgNVHSUEDDAKBggrBgEFBQcDAjANBgkqhkiG9w0BAQsFAAOCAQEAU/1HyOw4eWIJ
My/1Wqa7wkNyex+dcHWwwPXQgAbiIcFEeCu3QUdSCaNoDuJg/CWGfvznxE+lf3gG
/gX+siVVcD03ZZZo+1GCmkgULKijOwIkoewta55VtuxOp7QntAqWdtFz9Y1YSRj3
Cek3ELITe10YCSXYhDG6/wkYs09wSVqOdVYl/0j0ANgdoM0lJ2y0l8EfTvcvxPk6
EGdD2bu6R7yRFTOaGUS8adQd3FMZLgRDCL+GlgxwhLlaEHPxx5DuQV5DwgGq8k0s
Ga3mQld28DT7JtfiBuM441gMy2PJwvT6vIpSu1EKq5nmClUHig77ImRJwKulH0CM
VwsF2CHozw==
-----END CERTIFICATE-----
