Certificate:
    Data:
        Version: 3 (0x2)
        Serial Number:
            6c:db:85:16:35:c9:91:ba:bd:a5:39:4c:f7:11:ab:34:dd:b2:bf:1e
        Signature Algorithm: sha256WithRSAEncryption
        Issuer: C=US, ST=Montana, L=Bozeman, O=wolfSSL_2048, OU=Programming-2048, CN=www.wolfssl.com, emailAddress=facts@wolfssl.com
        Validity
            Not Before: Jun 11 21:44:27 2026 GMT
            Not After : Mar  7 21:44:27 2029 GMT
        Subject: C=US, ST=Montana, L=Bozeman, O=wolfSSL_2048, OU=Programming-2048, CN=www.wolfssl.com, emailAddress=facts@wolfssl.com
        Subject Public Key Info:
            Public Key Algorithm: rsaEncryption
                Public-Key: (2048 bit)
                Modulus:
                    00:c3:03:d1:2b:fe:39:a4:32:45:3b:53:c8:84:2b:
                    2a:7c:74:9a:bd:aa:2a:52:07:47:d6:a6:36:b2:07:
                    32:8e:d0:ba:69:7b:c6:c3:44:9e:d4:81:48:fd:2d:
                    68:a2:8b:67:bb:a1:75:c8:36:2c:4a:d2:1b:f7:8b:
                    ba:cf:0d:f9:ef:ec:f1:81:1e:7b:9b:03:47:9a:bf:
                    65:cc:7f:65:24:69:a6:e8:14:89:5b:e4:34:f7:c5:
                    b0:14:93:f5:67:7b:3a:7a:78:e1:01:56:56:91:a6:
                    13:42:8d:d2:3c:40:9c:4c:ef:d1:86:df:37:51:1b:
                    0c:a1:3b:f5:f1:a3:4a:35:e4:e1:ce:96:df:1b:7e:
                    bf:4e:97:d0:10:e8:a8:08:30:81:af:20:0b:43:14:
                    c5:74:67:b4:32:82:6f:8d:86:c2:88:40:99:36:83:
                    ba:1e:40:72:22:17:d7:52:65:24:73:b0:ce:ef:19:
                    cd:ae:ff:78:6c:7b:c0:12:03:d4:4e:72:0d:50:6d:
                    3b:a3:3b:a3:99:5e:9d:c8:d9:0c:85:b3:d9:8a:d9:
                    54:26:db:6d:fa:ac:bb:ff:25:4c:c4:d1:79:f4:71:
                    d3:86:40:18:13:b0:63:b5:72:4e:30:c4:97:84:86:
                    2d:56:2f:d7:15:f7:7f:c0:ae:f5:fc:5b:e5:fb:a1:
                    ba:d3
                Exponent: 65537 (0x10001)
        X509v3 extensions:
            X509v3 Subject Key Identifier: 
                33:D8:45:66:D7:68:87:18:7E:54:0D:70:27:91:C7:26:D7:85:65:C0
            X509v3 Authority Key Identifier: 
                keyid:33:D8:45:66:D7:68:87:18:7E:54:0D:70:27:91:C7:26:D7:85:65:C0
                DirName:/C=US/ST=Montana/L=Bozeman/O=wolfSSL_2048/OU=Programming-2048/CN=www.wolfssl.com/emailAddress=facts@wolfssl.com
                serial:6C:DB:85:16:35:C9:91:BA:BD:A5:39:4C:F7:11:AB:34:DD:B2:BF:1E
            X509v3 Basic Constraints: 
                CA:TRUE
            X509v3 Subject Alternative Name: 
                DNS:example.com
            X509v3 Key Usage: critical
                Digital Signature, Certificate Sign, CRL Sign
    Signature Algorithm: sha256WithRSAEncryption
    Signature Value:
        bb:8d:d8:e1:8b:1d:f5:9f:c5:05:fb:91:58:59:4f:f6:be:7b:
        71:ac:ed:9f:b6:a4:eb:91:6c:29:63:73:04:ba:d2:e8:53:64:
        e0:23:81:fc:50:ee:ca:bd:7e:83:24:4f:24:66:17:cc:22:08:
        1b:d3:81:70:8e:17:e0:56:60:7e:c6:42:ab:86:2b:87:72:d7:
        74:7f:c8:e1:08:9d:82:70:ba:88:d7:fb:66:84:9b:ce:f0:fa:
        fa:b0:fd:66:95:9f:42:3e:8b:0c:bf:9b:87:55:5c:51:42:df:
        12:95:cd:9c:fc:0c:c5:e0:24:cc:ce:67:42:bd:90:53:35:5d:
        d6:c4:37:0b:3a:07:d8:a7:b4:bf:52:82:00:27:07:d0:67:50:
        53:49:75:1b:fb:3c:c6:0d:c3:a7:a0:15:a3:73:bb:12:60:4c:
        06:1a:69:15:5f:0e:64:be:e4:f8:98:81:ba:83:34:17:c3:ad:
        55:00:a5:ce:9f:40:ce:68:08:02:ee:3c:83:e1:64:e3:5b:bb:
        0b:ba:71:ee:20:12:48:4f:d8:2b:7e:d8:22:50:07:d0:09:bc:
        04:d5:d5:5d:08:c2:c1:c8:80:fe:8a:a0:b5:ff:68:9d:1a:b7:
        41:1c:3c:08:94:99:25:4f:06:1d:af:1d:f1:76:1c:c2:2f:3e:
        16:02:2a:6b
-----BEGIN CERTIFICATE-----
MIIFCzCCA/OgAwIBAgIUbNuFFjXJkbq9pTlM9xGrNN2yvx4wDQYJKoZIhvcNAQEL
BQAwgZ8xCzAJBgNVBAYTAlVTMRAwDgYDVQQIDAdNb250YW5hMRAwDgYDVQQHDAdC
b3plbWFuMRUwEwYDVQQKDAx3b2xmU1NMXzIwNDgxGTAXBgNVBAsMEFByb2dyYW1t
aW5nLTIwNDgxGDAWBgNVBAMMD3d3dy53b2xmc3NsLmNvbTEgMB4GCSqGSIb3DQEJ
ARYRZmFjdHNAd29sZnNzbC5jb20wHhcNMjYwNjExMjE0NDI3WhcNMjkwMzA3MjE0
NDI3WjCBnzELMAkGA1UEBhMCVVMxEDAOBgNVBAgMB01vbnRhbmExEDAOBgNVBAcM
B0JvemVtYW4xFTATBgNVBAoMDHdvbGZTU0xfMjA0ODEZMBcGA1UECwwQUHJvZ3Jh
bW1pbmctMjA0ODEYMBYGA1UEAwwPd3d3LndvbGZzc2wuY29tMSAwHgYJKoZIhvcN
AQkBFhFmYWN0c0B3b2xmc3NsLmNvbTCCASIwDQYJKoZIhvcNAQEBBQADggEPADCC
AQoCggEBAMMD0Sv+OaQyRTtTyIQrKnx0mr2qKlIHR9amNrIHMo7Quml7xsNEntSB
SP0taKKLZ7uhdcg2LErSG/eLus8N+e/s8YEee5sDR5q/Zcx/ZSRppugUiVvkNPfF
sBST9Wd7Onp44QFWVpGmE0KN0jxAnEzv0YbfN1EbDKE79fGjSjXk4c6W3xt+v06X
0BDoqAgwga8gC0MUxXRntDKCb42GwohAmTaDuh5AciIX11JlJHOwzu8Zza7/eGx7
wBID1E5yDVBtO6M7o5lencjZDIWz2YrZVCbbbfqsu/8lTMTRefRx04ZAGBOwY7Vy
TjDEl4SGLVYv1xX3f8Cu9fxb5fuhutMCAwEAAaOCATswggE3MB0GA1UdDgQWBBQz
2EVm12iHGH5UDXAnkccm14VlwDCB3wYDVR0jBIHXMIHUgBQz2EVm12iHGH5UDXAn
kccm14VlwKGBpaSBojCBnzELMAkGA1UEBhMCVVMxEDAOBgNVBAgMB01vbnRhbmEx
EDAOBgNVBAcMB0JvemVtYW4xFTATBgNVBAoMDHdvbGZTU0xfMjA0ODEZMBcGA1UE
CwwQUHJvZ3JhbW1pbmctMjA0ODEYMBYGA1UEAwwPd3d3LndvbGZzc2wuY29tMSAw
HgYJKoZIhvcNAQkBFhFmYWN0c0B3b2xmc3NsLmNvbYIUbNuFFjXJkbq9pTlM9xGr
NN2yvx4wDAYDVR0TBAUwAwEB/zAWBgNVHREEDzANggtleGFtcGxlLmNvbTAOBgNV
HQ8BAf8EBAMCAYYwDQYJKoZIhvcNAQELBQADggEBALuN2OGLHfWfxQX7kVhZT/a+
e3Gs7Z+2pOuRbCljcwS60uhTZOAjgfxQ7sq9foMkTyRmF8wiCBvTgXCOF+BWYH7G
QquGK4dy13R/yOEInYJwuojX+2aEm87w+vqw/WaVn0I+iwy/m4dVXFFC3xKVzZz8
DMXgJMzOZ0K9kFM1XdbENws6B9intL9SggAnB9BnUFNJdRv7PMYNw6egFaNzuxJg
TAYaaRVfDmS+5PiYgbqDNBfDrVUApc6fQM5oCALuPIPhZONbuwu6ce4gEkhP2Ct+
2CJQB9AJvATV1V0IwsHIgP6KoLX/aJ0at0EcPAiUmSVPBh2vHfF2HMIvPhYCKms=
-----END CERTIFICATE-----
