Certificate:
    Data:
        Version: 3 (0x2)
        Serial Number:
            18:30:15:64:49:85:1c:47:af:51:9c:5d:e4:2d:7e:dd:65:2b:f7:3c
        Signature Algorithm: sha256WithRSAEncryption
        Issuer: C = US, ST = Montana, L = Bozeman, O = wolfSSL_2048, OU = RELATIVE_URI, CN = www.wolfssl.com, emailAddress = info@wolfssl.com
        Validity
            Not Before: May  7 07:39:03 2020 GMT
            Not After : Feb  1 07:39:03 2023 GMT
        Subject: C = US, ST = Montana, L = Bozeman, O = wolfSSL_2048, OU = RELATIVE_URI, CN = www.wolfssl.com, emailAddress = info@wolfssl.com
        Subject Public Key Info:
            Public Key Algorithm: rsaEncryption
                RSA Public-Key: (2048 bit)
                Modulus:
                    00:c3:03:d1:2b:fe:39:a4:32:45:3b:53:c8:84:2b:
                    2a:7c:74:9a:bd:aa:2a:52:07:47:d6:a6:36:b2:07:
                    32:8e:d0:ba:69:7b:c6:c3:44:9e:d4:81:48:fd:2d:
                    68:a2:8b:67:bb:a1:75:c8:36:2c:4a:d2:1b:f7:8b:
                    ba:cf:0d:f9:ef:ec:f1:81:1e:7b:9b:03:47:9a:bf:
                    65:cc:7f:65:24:69:a6:e8:14:89:5b:e4:34:f7:c5:
                    b0:14:93:f5:67:7b:3a:7a:78:e1:01:56:56:91:a6:
                    13:42:8d:d2:3c:40:9c:4c:ef:d1:86:df:37:51:1b:
                    0c:a1:3b:f5:f1:a3:4a:35:e4:e1:ce:96:df:1b:7e:
                    bf:4e:97:d0:10:e8:a8:08:30:81:af:20:0b:43:14:
                    c5:74:67:b4:32:82:6f:8d:86:c2:88:40:99:36:83:
                    ba:1e:40:72:22:17:d7:52:65:24:73:b0:ce:ef:19:
                    cd:ae:ff:78:6c:7b:c0:12:03:d4:4e:72:0d:50:6d:
                    3b:a3:3b:a3:99:5e:9d:c8:d9:0c:85:b3:d9:8a:d9:
                    54:26:db:6d:fa:ac:bb:ff:25:4c:c4:d1:79:f4:71:
                    d3:86:40:18:13:b0:63:b5:72:4e:30:c4:97:84:86:
                    2d:56:2f:d7:15:f7:7f:c0:ae:f5:fc:5b:e5:fb:a1:
                    ba:d3
                Exponent: 65537 (0x10001)
        X509v3 extensions:
            X509v3 Subject Key Identifier: 
                33:D8:45:66:D7:68:87:18:7E:54:0D:70:27:91:C7:26:D7:85:65:C0
            X509v3 Authority Key Identifier: 
                keyid:33:D8:45:66:D7:68:87:18:7E:54:0D:70:27:91:C7:26:D7:85:65:C0
                DirName:/C=US/ST=Montana/L=Bozeman/O=wolfSSL_2048/OU=RELATIVE_URI/CN=www.wolfssl.com/emailAddress=info@wolfssl.com
                serial:18:30:15:64:49:85:1C:47:AF:51:9C:5D:E4:2D:7E:DD:65:2B:F7:3C

            X509v3 Basic Constraints: 
                CA:FALSE
            X509v3 Subject Alternative Name: 
                URI:../relative/page.html
    Signature Algorithm: sha256WithRSAEncryption
         3e:6a:b5:99:4f:e9:44:c0:64:53:21:d7:d4:29:6b:73:a9:98:
         5f:90:2a:89:45:35:bf:cb:0d:1b:73:eb:5e:c6:bf:64:21:9f:
         d7:5d:b2:ee:20:04:3d:db:5c:f1:80:05:d3:fc:62:d3:b4:50:
         1e:b9:14:ac:2e:d6:75:8d:04:f4:76:cd:05:dc:aa:be:65:0c:
         be:0d:70:d7:6e:27:37:fb:26:42:00:f6:0e:b1:32:36:ef:09:
         eb:98:e0:22:2f:df:15:92:2a:bf:6a:76:bf:b9:c7:65:22:5a:
         a5:01:68:f2:51:eb:53:46:45:89:ce:54:83:da:98:1a:cb:73:
         5b:54:43:13:ea:54:72:b6:e4:f7:fc:69:63:86:e3:9e:23:c8:
         c0:f9:6c:62:84:0b:71:fc:6b:0b:0b:4b:a9:18:c3:cd:70:6f:
         e3:e7:5e:e4:5e:c0:4e:4f:38:8d:bb:8f:b7:c7:2e:96:2a:c2:
         1c:ed:b7:65:8f:48:8d:79:89:ac:2e:86:12:c7:e2:c1:e0:80:
         70:7f:c7:57:2f:96:d2:ba:77:bb:e9:71:5c:05:74:cc:9a:ea:
         87:49:a5:63:e5:05:85:d0:a5:1a:45:d9:f0:f5:48:1f:55:ed:
         29:36:0c:aa:86:7d:c1:7a:6b:9c:e2:a5:7d:35:77:d4:2a:c5:
         f3:e2:c7:42
-----BEGIN CERTIFICATE-----
MIIE8zCCA9ugAwIBAgIUGDAVZEmFHEevUZxd5C1+3WUr9zwwDQYJKoZIhvcNAQEL
BQAwgZoxCzAJBgNVBAYTAlVTMRAwDgYDVQQIDAdNb250YW5hMRAwDgYDVQQHDAdC
b3plbWFuMRUwEwYDVQQKDAx3b2xmU1NMXzIwNDgxFTATBgNVBAsMDFJFTEFUSVZF
X1VSSTEYMBYGA1UEAwwPd3d3LndvbGZzc2wuY29tMR8wHQYJKoZIhvcNAQkBFhBp
bmZvQHdvbGZzc2wuY29tMB4XDTIwMDUwNzA3MzkwM1oXDTIzMDIwMTA3MzkwM1ow
gZoxCzAJBgNVBAYTAlVTMRAwDgYDVQQIDAdNb250YW5hMRAwDgYDVQQHDAdCb3pl
bWFuMRUwEwYDVQQKDAx3b2xmU1NMXzIwNDgxFTATBgNVBAsMDFJFTEFUSVZFX1VS
STEYMBYGA1UEAwwPd3d3LndvbGZzc2wuY29tMR8wHQYJKoZIhvcNAQkBFhBpbmZv
QHdvbGZzc2wuY29tMIIBIjANBgkqhkiG9w0BAQEFAAOCAQ8AMIIBCgKCAQEAwwPR
K/45pDJFO1PIhCsqfHSavaoqUgdH1qY2sgcyjtC6aXvGw0Se1IFI/S1oootnu6F1
yDYsStIb94u6zw357+zxgR57mwNHmr9lzH9lJGmm6BSJW+Q098WwFJP1Z3s6enjh
AVZWkaYTQo3SPECcTO/Rht83URsMoTv18aNKNeThzpbfG36/TpfQEOioCDCBryAL
QxTFdGe0MoJvjYbCiECZNoO6HkByIhfXUmUkc7DO7xnNrv94bHvAEgPUTnINUG07
ozujmV6dyNkMhbPZitlUJttt+qy7/yVMxNF59HHThkAYE7BjtXJOMMSXhIYtVi/X
Ffd/wK71/Fvl+6G60wIDAQABo4IBLTCCASkwHQYDVR0OBBYEFDPYRWbXaIcYflQN
cCeRxybXhWXAMIHaBgNVHSMEgdIwgc+AFDPYRWbXaIcYflQNcCeRxybXhWXAoYGg
pIGdMIGaMQswCQYDVQQGEwJVUzEQMA4GA1UECAwHTW9udGFuYTEQMA4GA1UEBwwH
Qm96ZW1hbjEVMBMGA1UECgwMd29sZlNTTF8yMDQ4MRUwEwYDVQQLDAxSRUxBVElW
RV9VUkkxGDAWBgNVBAMMD3d3dy53b2xmc3NsLmNvbTEfMB0GCSqGSIb3DQEJARYQ
aW5mb0B3b2xmc3NsLmNvbYIUGDAVZEmFHEevUZxd5C1+3WUr9zwwCQYDVR0TBAIw
ADAgBgNVHREEGTAXhhUuLi9yZWxhdGl2ZS9wYWdlLmh0bWwwDQYJKoZIhvcNAQEL
BQADggEBAD5qtZlP6UTAZFMh19Qpa3OpmF+QKolFNb/LDRtz617Gv2Qhn9ddsu4g
BD3bXPGABdP8YtO0UB65FKwu1nWNBPR2zQXcqr5lDL4NcNduJzf7JkIA9g6xMjbv
CeuY4CIv3xWSKr9qdr+5x2UiWqUBaPJR61NGRYnOVIPamBrLc1tUQxPqVHK25Pf8
aWOG454jyMD5bGKEC3H8awsLS6kYw81wb+PnXuRewE5POI27j7fHLpYqwhztt2WP
SI15iawuhhLH4sHggHB/x1cvltK6d7vpcVwFdMya6odJpWPlBYXQpRpF2fD1SB9V
7Sk2DKqGfcF6a5zipX01d9QqxfPix0I=
-----END CERTIFICATE-----
