Certificate:
    Data:
        Version: 3 (0x2)
        Serial Number: 16666221217456835267 (0xe74a4fe55697cac3)
    Signature Algorithm: ecdsa-with-SHA256
        Issuer: C=US, ST=Oregon, L=Salem, O=Client ECC, OU=Fast, CN=www.wolfssl.com/emailAddress=info@wolfssl.com
        Validity
            Not Before: Feb 10 19:49:53 2021 GMT
            Not After : Nov  7 19:49:53 2023 GMT
        Subject: C=US, ST=Oregon, L=Salem, O=Client ECC, OU=Fast, CN=www.wolfssl.com/emailAddress=info@wolfssl.com
        Subject Public Key Info:
            Public Key Algorithm: id-ecPublicKey
                Public-Key: (256 bit)
                pub: 
                    04:55:bf:f4:0f:44:50:9a:3d:ce:9b:b7:f0:c5:4d:
                    f5:70:7b:d4:ec:24:8e:19:80:ec:5a:4c:a2:24:03:
                    62:2c:9b:da:ef:a2:35:12:43:84:76:16:c6:56:95:
                    06:cc:01:a9:bd:f6:75:1a:42:f7:bd:a9:b2:36:22:
                    5f:c7:5d:7f:b4
                ASN1 OID: prime256v1
                NIST CURVE: P-256
        X509v3 extensions:
            X509v3 Subject Key Identifier: 
                EB:D4:4B:59:6B:95:61:3F:51:57:B6:04:4D:89:41:88:44:5C:AB:F2
            X509v3 Authority Key Identifier: 
                keyid:EB:D4:4B:59:6B:95:61:3F:51:57:B6:04:4D:89:41:88:44:5C:AB:F2
                DirName:/C=US/ST=Oregon/L=Salem/O=Client ECC/OU=Fast/CN=www.wolfssl.com/emailAddress=info@wolfssl.com
                serial:E7:4A:4F:E5:56:97:CA:C3

            X509v3 Basic Constraints: 
                CA:TRUE
            X509v3 Subject Alternative Name: 
                DNS:example.com, IP Address:127.0.0.1
            X509v3 Extended Key Usage: 
                TLS Web Server Authentication, TLS Web Client Authentication
    Signature Algorithm: ecdsa-with-SHA256
         30:46:02:21:00:e3:bb:ca:0e:31:2d:39:1d:94:25:81:90:d5:
         11:f9:09:6d:58:16:23:be:9f:a9:18:64:83:3c:25:03:58:58:
         39:02:21:00:a4:aa:b3:f0:09:c9:0c:2f:f7:b1:d4:8e:9f:a6:
         b6:ab:1a:c7:37:ed:70:4d:34:04:a0:9b:3d:84:86:10:a0:f0
-----BEGIN CERTIFICATE-----
MIIDSTCCAu6gAwIBAgIJAOdKT+VWl8rDMAoGCCqGSM49BAMCMIGNMQswCQYDVQQG
EwJVUzEPMA0GA1UECAwGT3JlZ29uMQ4wDAYDVQQHDAVTYWxlbTETMBEGA1UECgwK
Q2xpZW50IEVDQzENMAsGA1UECwwERmFzdDEYMBYGA1UEAwwPd3d3LndvbGZzc2wu
Y29tMR8wHQYJKoZIhvcNAQkBFhBpbmZvQHdvbGZzc2wuY29tMB4XDTIxMDIxMDE5
NDk1M1oXDTIzMTEwNzE5NDk1M1owgY0xCzAJBgNVBAYTAlVTMQ8wDQYDVQQIDAZP
cmVnb24xDjAMBgNVBAcMBVNhbGVtMRMwEQYDVQQKDApDbGllbnQgRUNDMQ0wCwYD
VQQLDARGYXN0MRgwFgYDVQQDDA93d3cud29sZnNzbC5jb20xHzAdBgkqhkiG9w0B
CQEWEGluZm9Ad29sZnNzbC5jb20wWTATBgcqhkjOPQIBBggqhkjOPQMBBwNCAARV
v/QPRFCaPc6bt/DFTfVwe9TsJI4ZgOxaTKIkA2Ism9rvojUSQ4R2FsZWlQbMAam9
9nUaQve9qbI2Il/HXX+0o4IBMzCCAS8wHQYDVR0OBBYEFOvUS1lrlWE/UVe2BE2J
QYhEXKvyMIHCBgNVHSMEgbowgbeAFOvUS1lrlWE/UVe2BE2JQYhEXKvyoYGTpIGQ
MIGNMQswCQYDVQQGEwJVUzEPMA0GA1UECAwGT3JlZ29uMQ4wDAYDVQQHDAVTYWxl
bTETMBEGA1UECgwKQ2xpZW50IEVDQzENMAsGA1UECwwERmFzdDEYMBYGA1UEAwwP
d3d3LndvbGZzc2wuY29tMR8wHQYJKoZIhvcNAQkBFhBpbmZvQHdvbGZzc2wuY29t
ggkA50pP5VaXysMwDAYDVR0TBAUwAwEB/zAcBgNVHREEFTATggtleGFtcGxlLmNv
bYcEfwAAATAdBgNVHSUEFjAUBggrBgEFBQcDAQYIKwYBBQUHAwIwCgYIKoZIzj0E
AwIDSQAwRgIhAOO7yg4xLTkdlCWBkNUR+QltWBYjvp+pGGSDPCUDWFg5AiEApKqz
8AnJDC/3sdSOn6a2qxrHN+1wTTQEoJs9hIYQoPA=
-----END CERTIFICATE-----
