Certificate:
    Data:
        Version: 3 (0x2)
        Serial Number:
            4f:66:6a:6b:e2:e1:36:fd:c6:87:c1:92:2e:07:00:5e:50:cc:c2:c7
        Signature Algorithm: sha256WithRSAEncryption
        Issuer: C = US, ST = Montana, L = Bozeman, O = wolfSSL_2048, OU = URI, CN = www.wolfssl.com, emailAddress = info@wolfssl.com
        Validity
            Not Before: Dec 20 23:07:24 2021 GMT
            Not After : Sep 15 23:07:24 2024 GMT
        Subject: C = US, ST = Montana, L = Bozeman, O = wolfSSL_2048, OU = URI, CN = www.wolfssl.com, emailAddress = info@wolfssl.com
        Subject Public Key Info:
            Public Key Algorithm: rsaEncryption
                RSA Public-Key: (2048 bit)
                Modulus:
                    00:c3:03:d1:2b:fe:39:a4:32:45:3b:53:c8:84:2b:
                    2a:7c:74:9a:bd:aa:2a:52:07:47:d6:a6:36:b2:07:
                    32:8e:d0:ba:69:7b:c6:c3:44:9e:d4:81:48:fd:2d:
                    68:a2:8b:67:bb:a1:75:c8:36:2c:4a:d2:1b:f7:8b:
                    ba:cf:0d:f9:ef:ec:f1:81:1e:7b:9b:03:47:9a:bf:
                    65:cc:7f:65:24:69:a6:e8:14:89:5b:e4:34:f7:c5:
                    b0:14:93:f5:67:7b:3a:7a:78:e1:01:56:56:91:a6:
                    13:42:8d:d2:3c:40:9c:4c:ef:d1:86:df:37:51:1b:
                    0c:a1:3b:f5:f1:a3:4a:35:e4:e1:ce:96:df:1b:7e:
                    bf:4e:97:d0:10:e8:a8:08:30:81:af:20:0b:43:14:
                    c5:74:67:b4:32:82:6f:8d:86:c2:88:40:99:36:83:
                    ba:1e:40:72:22:17:d7:52:65:24:73:b0:ce:ef:19:
                    cd:ae:ff:78:6c:7b:c0:12:03:d4:4e:72:0d:50:6d:
                    3b:a3:3b:a3:99:5e:9d:c8:d9:0c:85:b3:d9:8a:d9:
                    54:26:db:6d:fa:ac:bb:ff:25:4c:c4:d1:79:f4:71:
                    d3:86:40:18:13:b0:63:b5:72:4e:30:c4:97:84:86:
                    2d:56:2f:d7:15:f7:7f:c0:ae:f5:fc:5b:e5:fb:a1:
                    ba:d3
                Exponent: 65537 (0x10001)
        X509v3 extensions:
            X509v3 Subject Key Identifier: 
                33:D8:45:66:D7:68:87:18:7E:54:0D:70:27:91:C7:26:D7:85:65:C0
            X509v3 Authority Key Identifier: 
                keyid:33:D8:45:66:D7:68:87:18:7E:54:0D:70:27:91:C7:26:D7:85:65:C0
                DirName:/C=US/ST=Montana/L=Bozeman/O=wolfSSL_2048/OU=URI/CN=www.wolfssl.com/emailAddress=info@wolfssl.com
                serial:4F:66:6A:6B:E2:E1:36:FD:C6:87:C1:92:2E:07:00:5E:50:CC:C2:C7

            X509v3 Basic Constraints: 
                CA:FALSE
            X509v3 Subject Alternative Name: 
                URI:https://www.wolfssl.com
    Signature Algorithm: sha256WithRSAEncryption
         48:88:32:c6:f3:41:f3:54:ef:85:22:6a:57:75:27:87:ac:0e:
         5c:0f:ee:e5:93:15:54:27:93:b2:e3:5a:1b:15:63:f8:97:2c:
         19:af:11:46:5d:92:ea:e0:b7:07:3f:13:0e:82:51:a3:24:6a:
         1d:e9:4b:47:da:ed:93:1b:95:39:58:fc:6a:6f:d7:64:52:9f:
         b0:92:b7:31:5b:8c:c1:bb:8f:a5:38:99:9e:69:fc:39:16:4d:
         60:65:74:19:29:a1:29:50:38:a5:58:80:34:b4:ec:ae:2e:2f:
         27:f9:a2:6c:af:8b:c9:99:2e:1e:d3:ff:20:53:03:0d:9c:62:
         38:b8:ee:7c:79:e9:c7:ac:2c:d1:65:bb:26:b7:a5:db:db:12:
         86:22:bc:e5:c0:71:97:c5:aa:29:c9:2f:8e:0c:9d:bf:91:2c:
         d3:2e:db:d6:e5:e7:ae:c3:76:21:b4:a1:62:a4:4a:c9:13:d2:
         df:62:fb:83:a7:0a:61:77:fe:a8:96:0e:ba:cb:a2:5d:12:05:
         94:27:3a:e8:b8:3e:2b:fa:7d:38:26:84:d0:e7:ce:ae:d5:73:
         e4:c3:cb:2f:5a:43:3f:0b:69:5e:28:e7:0a:fe:a2:85:1e:1f:
         be:f1:72:c3:25:3b:fb:19:3d:73:d5:a8:af:f5:84:0f:29:f7:
         0b:68:f5:a8
-----BEGIN CERTIFICATE-----
MIIE2jCCA8KgAwIBAgIUT2Zqa+LhNv3Gh8GSLgcAXlDMwscwDQYJKoZIhvcNAQEL
BQAwgZExCzAJBgNVBAYTAlVTMRAwDgYDVQQIDAdNb250YW5hMRAwDgYDVQQHDAdC
b3plbWFuMRUwEwYDVQQKDAx3b2xmU1NMXzIwNDgxDDAKBgNVBAsMA1VSSTEYMBYG
A1UEAwwPd3d3LndvbGZzc2wuY29tMR8wHQYJKoZIhvcNAQkBFhBpbmZvQHdvbGZz
c2wuY29tMB4XDTIxMTIyMDIzMDcyNFoXDTI0MDkxNTIzMDcyNFowgZExCzAJBgNV
BAYTAlVTMRAwDgYDVQQIDAdNb250YW5hMRAwDgYDVQQHDAdCb3plbWFuMRUwEwYD
VQQKDAx3b2xmU1NMXzIwNDgxDDAKBgNVBAsMA1VSSTEYMBYGA1UEAwwPd3d3Lndv
bGZzc2wuY29tMR8wHQYJKoZIhvcNAQkBFhBpbmZvQHdvbGZzc2wuY29tMIIBIjAN
BgkqhkiG9w0BAQEFAAOCAQ8AMIIBCgKCAQEAwwPRK/45pDJFO1PIhCsqfHSavaoq
UgdH1qY2sgcyjtC6aXvGw0Se1IFI/S1oootnu6F1yDYsStIb94u6zw357+zxgR57
mwNHmr9lzH9lJGmm6BSJW+Q098WwFJP1Z3s6enjhAVZWkaYTQo3SPECcTO/Rht83
URsMoTv18aNKNeThzpbfG36/TpfQEOioCDCBryALQxTFdGe0MoJvjYbCiECZNoO6
HkByIhfXUmUkc7DO7xnNrv94bHvAEgPUTnINUG07ozujmV6dyNkMhbPZitlUJttt
+qy7/yVMxNF59HHThkAYE7BjtXJOMMSXhIYtVi/XFfd/wK71/Fvl+6G60wIDAQAB
o4IBJjCCASIwHQYDVR0OBBYEFDPYRWbXaIcYflQNcCeRxybXhWXAMIHRBgNVHSME
gckwgcaAFDPYRWbXaIcYflQNcCeRxybXhWXAoYGXpIGUMIGRMQswCQYDVQQGEwJV
UzEQMA4GA1UECAwHTW9udGFuYTEQMA4GA1UEBwwHQm96ZW1hbjEVMBMGA1UECgwM
d29sZlNTTF8yMDQ4MQwwCgYDVQQLDANVUkkxGDAWBgNVBAMMD3d3dy53b2xmc3Ns
LmNvbTEfMB0GCSqGSIb3DQEJARYQaW5mb0B3b2xmc3NsLmNvbYIUT2Zqa+LhNv3G
h8GSLgcAXlDMwscwCQYDVR0TBAIwADAiBgNVHREEGzAZhhdodHRwczovL3d3dy53
b2xmc3NsLmNvbTANBgkqhkiG9w0BAQsFAAOCAQEASIgyxvNB81TvhSJqV3Unh6wO
XA/u5ZMVVCeTsuNaGxVj+JcsGa8RRl2S6uC3Bz8TDoJRoyRqHelLR9rtkxuVOVj8
am/XZFKfsJK3MVuMwbuPpTiZnmn8ORZNYGV0GSmhKVA4pViANLTsri4vJ/mibK+L
yZkuHtP/IFMDDZxiOLjufHnpx6ws0WW7Jrel29sShiK85cBxl8WqKckvjgydv5Es
0y7b1uXnrsN2IbShYqRKyRPS32L7g6cKYXf+qJYOusuiXRIFlCc66Lg+K/p9OCaE
0OfOrtVz5MPLL1pDPwtpXijnCv6ihR4fvvFywyU7+xk9c9Wor/WEDyn3C2j1qA==
-----END CERTIFICATE-----
