Certificate:
    Data:
        Version: 3 (0x2)
        Serial Number:
            79:e8:9a:d6:04:66:81:c3:a1:de:3c:17:7a:4b:d1:d6:a9:e0:98:23
        Signature Algorithm: sha256WithRSAEncryption
        Issuer: C = US, ST = Montana, L = Bozeman, O = wolfSSL_2048, OU = ABSOLUTE_URN, CN = www.wolfssl.com, emailAddress = info@wolfssl.com
        Validity
            Not Before: Sep 26 17:22:42 2023 GMT
            Not After : Jun 22 17:22:42 2026 GMT
        Subject: C = US, ST = Montana, L = Bozeman, O = wolfSSL_2048, OU = ABSOLUTE_URN, CN = www.wolfssl.com, emailAddress = info@wolfssl.com
        Subject Public Key Info:
            Public Key Algorithm: rsaEncryption
                Public-Key: (2048 bit)
                Modulus:
                    00:c3:03:d1:2b:fe:39:a4:32:45:3b:53:c8:84:2b:
                    2a:7c:74:9a:bd:aa:2a:52:07:47:d6:a6:36:b2:07:
                    32:8e:d0:ba:69:7b:c6:c3:44:9e:d4:81:48:fd:2d:
                    68:a2:8b:67:bb:a1:75:c8:36:2c:4a:d2:1b:f7:8b:
                    ba:cf:0d:f9:ef:ec:f1:81:1e:7b:9b:03:47:9a:bf:
                    65:cc:7f:65:24:69:a6:e8:14:89:5b:e4:34:f7:c5:
                    b0:14:93:f5:67:7b:3a:7a:78:e1:01:56:56:91:a6:
                    13:42:8d:d2:3c:40:9c:4c:ef:d1:86:df:37:51:1b:
                    0c:a1:3b:f5:f1:a3:4a:35:e4:e1:ce:96:df:1b:7e:
                    bf:4e:97:d0:10:e8:a8:08:30:81:af:20:0b:43:14:
                    c5:74:67:b4:32:82:6f:8d:86:c2:88:40:99:36:83:
                    ba:1e:40:72:22:17:d7:52:65:24:73:b0:ce:ef:19:
                    cd:ae:ff:78:6c:7b:c0:12:03:d4:4e:72:0d:50:6d:
                    3b:a3:3b:a3:99:5e:9d:c8:d9:0c:85:b3:d9:8a:d9:
                    54:26:db:6d:fa:ac:bb:ff:25:4c:c4:d1:79:f4:71:
                    d3:86:40:18:13:b0:63:b5:72:4e:30:c4:97:84:86:
                    2d:56:2f:d7:15:f7:7f:c0:ae:f5:fc:5b:e5:fb:a1:
                    ba:d3
                Exponent: 65537 (0x10001)
        X509v3 extensions:
            X509v3 Subject Key Identifier: 
                33:D8:45:66:D7:68:87:18:7E:54:0D:70:27:91:C7:26:D7:85:65:C0
            X509v3 Authority Key Identifier: 
                keyid:33:D8:45:66:D7:68:87:18:7E:54:0D:70:27:91:C7:26:D7:85:65:C0
                DirName:/C=US/ST=Montana/L=Bozeman/O=wolfSSL_2048/OU=ABSOLUTE_URN/CN=www.wolfssl.com/emailAddress=info@wolfssl.com
                serial:79:E8:9A:D6:04:66:81:C3:A1:DE:3C:17:7A:4B:D1:D6:A9:E0:98:23
            X509v3 Basic Constraints: 
                CA:FALSE
            X509v3 Subject Alternative Name: 
                URI:urn:example:test
    Signature Algorithm: sha256WithRSAEncryption
    Signature Value:
        4e:92:cc:26:00:b7:c7:9e:1b:ba:16:a0:5c:ba:a1:be:d7:bf:
        0d:5b:ef:69:4f:8e:2d:b5:ff:87:9c:b3:08:c1:fc:6b:f5:93:
        7f:2c:3e:cb:5c:99:3e:6e:03:99:26:cd:95:f8:54:61:da:27:
        0e:43:3b:be:b4:e8:46:61:a0:43:5b:40:13:5e:7d:4d:34:83:
        2c:fd:b8:b6:c5:d8:a7:20:94:47:7f:9f:50:6b:8a:f5:de:89:
        64:7c:5d:81:c9:3d:ac:90:96:f7:7b:c6:9e:76:18:7f:bd:be:
        ae:9d:31:be:55:04:d2:80:b6:a7:2a:ba:1a:b7:7b:0b:0d:ef:
        5b:4f:be:a1:e4:44:27:1d:86:e8:24:99:dd:88:db:99:f7:60:
        1f:aa:20:6c:73:25:48:62:57:09:ee:29:fe:e2:22:3c:ae:eb:
        a8:da:44:29:e6:06:a5:3c:ab:f1:60:73:db:f6:e1:ec:f0:8e:
        97:d8:fb:a6:db:ac:57:a8:13:ac:57:b5:70:a8:5b:01:18:1d:
        77:40:8f:43:c1:ab:c2:a1:f8:9c:ec:5d:b0:f6:f8:a4:7b:9e:
        a4:36:bf:d3:51:3b:66:31:77:b7:13:f9:07:40:77:30:3e:60:
        85:35:c7:3f:c1:26:25:f1:1d:f6:a5:60:7c:d1:33:a7:83:fb:
        ea:e5:4e:cc
-----BEGIN CERTIFICATE-----
MIIE7jCCA9agAwIBAgIUeeia1gRmgcOh3jwXekvR1qngmCMwDQYJKoZIhvcNAQEL
BQAwgZoxCzAJBgNVBAYTAlVTMRAwDgYDVQQIDAdNb250YW5hMRAwDgYDVQQHDAdC
b3plbWFuMRUwEwYDVQQKDAx3b2xmU1NMXzIwNDgxFTATBgNVBAsMDEFCU09MVVRF
X1VSTjEYMBYGA1UEAwwPd3d3LndvbGZzc2wuY29tMR8wHQYJKoZIhvcNAQkBFhBp
bmZvQHdvbGZzc2wuY29tMB4XDTIzMDkyNjE3MjI0MloXDTI2MDYyMjE3MjI0Mlow
gZoxCzAJBgNVBAYTAlVTMRAwDgYDVQQIDAdNb250YW5hMRAwDgYDVQQHDAdCb3pl
bWFuMRUwEwYDVQQKDAx3b2xmU1NMXzIwNDgxFTATBgNVBAsMDEFCU09MVVRFX1VS
TjEYMBYGA1UEAwwPd3d3LndvbGZzc2wuY29tMR8wHQYJKoZIhvcNAQkBFhBpbmZv
QHdvbGZzc2wuY29tMIIBIjANBgkqhkiG9w0BAQEFAAOCAQ8AMIIBCgKCAQEAwwPR
K/45pDJFO1PIhCsqfHSavaoqUgdH1qY2sgcyjtC6aXvGw0Se1IFI/S1oootnu6F1
yDYsStIb94u6zw357+zxgR57mwNHmr9lzH9lJGmm6BSJW+Q098WwFJP1Z3s6enjh
AVZWkaYTQo3SPECcTO/Rht83URsMoTv18aNKNeThzpbfG36/TpfQEOioCDCBryAL
QxTFdGe0MoJvjYbCiECZNoO6HkByIhfXUmUkc7DO7xnNrv94bHvAEgPUTnINUG07
ozujmV6dyNkMhbPZitlUJttt+qy7/yVMxNF59HHThkAYE7BjtXJOMMSXhIYtVi/X
Ffd/wK71/Fvl+6G60wIDAQABo4IBKDCCASQwHQYDVR0OBBYEFDPYRWbXaIcYflQN
cCeRxybXhWXAMIHaBgNVHSMEgdIwgc+AFDPYRWbXaIcYflQNcCeRxybXhWXAoYGg
pIGdMIGaMQswCQYDVQQGEwJVUzEQMA4GA1UECAwHTW9udGFuYTEQMA4GA1UEBwwH
Qm96ZW1hbjEVMBMGA1UECgwMd29sZlNTTF8yMDQ4MRUwEwYDVQQLDAxBQlNPTFVU
RV9VUk4xGDAWBgNVBAMMD3d3dy53b2xmc3NsLmNvbTEfMB0GCSqGSIb3DQEJARYQ
aW5mb0B3b2xmc3NsLmNvbYIUeeia1gRmgcOh3jwXekvR1qngmCMwCQYDVR0TBAIw
ADAbBgNVHREEFDAShhB1cm46ZXhhbXBsZTp0ZXN0MA0GCSqGSIb3DQEBCwUAA4IB
AQBOkswmALfHnhu6FqBcuqG+178NW+9pT44ttf+HnLMIwfxr9ZN/LD7LXJk+bgOZ
Js2V+FRh2icOQzu+tOhGYaBDW0ATXn1NNIMs/bi2xdinIJRHf59Qa4r13olkfF2B
yT2skJb3e8aedhh/vb6unTG+VQTSgLanKroat3sLDe9bT76h5EQnHYboJJndiNuZ
92AfqiBscyVIYlcJ7in+4iI8ruuo2kQp5galPKvxYHPb9uHs8I6X2Pum26xXqBOs
V7VwqFsBGB13QI9DwavCofic7F2w9vike56kNr/TUTtmMXe3E/kHQHcwPmCFNcc/
wSYl8R32pWB80TOng/vq5U7M
-----END CERTIFICATE-----
