Certificate:
    Data:
        Version: 3 (0x2)
        Serial Number:
            4b:1d:f0:6c:c9:49:8e:f6:fd:5d:79:fc:6a:77:38:da:93:0f:9d:58
        Signature Algorithm: sha256WithRSAEncryption
        Issuer: C = US, ST = Montana, L = Bozeman, O = wolfSSL_2048, OU = RELATIVE_URI, CN = www.wolfssl.com, emailAddress = info@wolfssl.com
        Validity
            Not Before: Feb 15 12:50:24 2022 GMT
            Not After : Nov 11 12:50:24 2024 GMT
        Subject: C = US, ST = Montana, L = Bozeman, O = wolfSSL_2048, OU = RELATIVE_URI, CN = www.wolfssl.com, emailAddress = info@wolfssl.com
        Subject Public Key Info:
            Public Key Algorithm: rsaEncryption
                RSA Public-Key: (2048 bit)
                Modulus:
                    00:c3:03:d1:2b:fe:39:a4:32:45:3b:53:c8:84:2b:
                    2a:7c:74:9a:bd:aa:2a:52:07:47:d6:a6:36:b2:07:
                    32:8e:d0:ba:69:7b:c6:c3:44:9e:d4:81:48:fd:2d:
                    68:a2:8b:67:bb:a1:75:c8:36:2c:4a:d2:1b:f7:8b:
                    ba:cf:0d:f9:ef:ec:f1:81:1e:7b:9b:03:47:9a:bf:
                    65:cc:7f:65:24:69:a6:e8:14:89:5b:e4:34:f7:c5:
                    b0:14:93:f5:67:7b:3a:7a:78:e1:01:56:56:91:a6:
                    13:42:8d:d2:3c:40:9c:4c:ef:d1:86:df:37:51:1b:
                    0c:a1:3b:f5:f1:a3:4a:35:e4:e1:ce:96:df:1b:7e:
                    bf:4e:97:d0:10:e8:a8:08:30:81:af:20:0b:43:14:
                    c5:74:67:b4:32:82:6f:8d:86:c2:88:40:99:36:83:
                    ba:1e:40:72:22:17:d7:52:65:24:73:b0:ce:ef:19:
                    cd:ae:ff:78:6c:7b:c0:12:03:d4:4e:72:0d:50:6d:
                    3b:a3:3b:a3:99:5e:9d:c8:d9:0c:85:b3:d9:8a:d9:
                    54:26:db:6d:fa:ac:bb:ff:25:4c:c4:d1:79:f4:71:
                    d3:86:40:18:13:b0:63:b5:72:4e:30:c4:97:84:86:
                    2d:56:2f:d7:15:f7:7f:c0:ae:f5:fc:5b:e5:fb:a1:
                    ba:d3
                Exponent: 65537 (0x10001)
        X509v3 extensions:
            X509v3 Subject Key Identifier: 
                33:D8:45:66:D7:68:87:18:7E:54:0D:70:27:91:C7:26:D7:85:65:C0
            X509v3 Authority Key Identifier: 
                keyid:33:D8:45:66:D7:68:87:18:7E:54:0D:70:27:91:C7:26:D7:85:65:C0
                DirName:/C=US/ST=Montana/L=Bozeman/O=wolfSSL_2048/OU=RELATIVE_URI/CN=www.wolfssl.com/emailAddress=info@wolfssl.com
                serial:4B:1D:F0:6C:C9:49:8E:F6:FD:5D:79:FC:6A:77:38:DA:93:0F:9D:58

            X509v3 Basic Constraints: 
                CA:FALSE
            X509v3 Subject Alternative Name: 
                URI:../relative/page.html
    Signature Algorithm: sha256WithRSAEncryption
         a1:13:43:f8:ac:fd:fe:9f:2f:81:b4:e0:55:9c:b0:e9:0a:2d:
         7d:7e:ec:d5:23:61:d9:56:57:e7:39:d6:38:ff:7f:59:41:b8:
         dd:c2:6d:ba:e4:17:f0:df:d3:b9:ec:5e:19:85:ad:09:63:a1:
         a4:2c:a6:c6:38:50:ab:97:93:ae:eb:9b:97:0c:5e:72:52:4e:
         d7:77:69:5b:19:76:97:7c:7b:82:9a:d3:2a:97:0a:35:04:53:
         ff:00:eb:41:cf:98:58:f2:23:7e:fd:22:56:d3:e1:34:83:c3:
         44:9d:50:73:f5:ec:fb:66:70:98:76:e2:6a:1f:fc:1f:88:09:
         09:02:9d:d4:cc:c0:25:4d:9c:a1:2e:00:1a:2c:b3:62:5c:fc:
         2d:ed:9a:80:e7:fa:ca:49:b3:10:53:b3:02:e7:45:26:b7:f0:
         b3:47:3f:d3:df:6e:36:21:1e:11:a1:4b:20:91:ca:c3:98:7a:
         25:34:57:14:6e:aa:1e:9c:28:19:95:86:68:bb:81:b0:f0:5a:
         9d:8a:76:53:40:17:2b:63:15:b9:bc:54:af:60:a4:64:18:ee:
         c8:0f:6a:84:db:aa:a4:7e:06:10:a6:80:6b:3f:cf:9f:27:34:
         e6:2e:e0:bc:a4:91:3a:cc:0b:29:4f:c5:b2:7c:cb:c5:12:6f:
         5e:d7:f1:a7
-----BEGIN CERTIFICATE-----
MIIE8zCCA9ugAwIBAgIUSx3wbMlJjvb9XXn8anc42pMPnVgwDQYJKoZIhvcNAQEL
BQAwgZoxCzAJBgNVBAYTAlVTMRAwDgYDVQQIDAdNb250YW5hMRAwDgYDVQQHDAdC
b3plbWFuMRUwEwYDVQQKDAx3b2xmU1NMXzIwNDgxFTATBgNVBAsMDFJFTEFUSVZF
X1VSSTEYMBYGA1UEAwwPd3d3LndvbGZzc2wuY29tMR8wHQYJKoZIhvcNAQkBFhBp
bmZvQHdvbGZzc2wuY29tMB4XDTIyMDIxNTEyNTAyNFoXDTI0MTExMTEyNTAyNFow
gZoxCzAJBgNVBAYTAlVTMRAwDgYDVQQIDAdNb250YW5hMRAwDgYDVQQHDAdCb3pl
bWFuMRUwEwYDVQQKDAx3b2xmU1NMXzIwNDgxFTATBgNVBAsMDFJFTEFUSVZFX1VS
STEYMBYGA1UEAwwPd3d3LndvbGZzc2wuY29tMR8wHQYJKoZIhvcNAQkBFhBpbmZv
QHdvbGZzc2wuY29tMIIBIjANBgkqhkiG9w0BAQEFAAOCAQ8AMIIBCgKCAQEAwwPR
K/45pDJFO1PIhCsqfHSavaoqUgdH1qY2sgcyjtC6aXvGw0Se1IFI/S1oootnu6F1
yDYsStIb94u6zw357+zxgR57mwNHmr9lzH9lJGmm6BSJW+Q098WwFJP1Z3s6enjh
AVZWkaYTQo3SPECcTO/Rht83URsMoTv18aNKNeThzpbfG36/TpfQEOioCDCBryAL
QxTFdGe0MoJvjYbCiECZNoO6HkByIhfXUmUkc7DO7xnNrv94bHvAEgPUTnINUG07
ozujmV6dyNkMhbPZitlUJttt+qy7/yVMxNF59HHThkAYE7BjtXJOMMSXhIYtVi/X
Ffd/wK71/Fvl+6G60wIDAQABo4IBLTCCASkwHQYDVR0OBBYEFDPYRWbXaIcYflQN
cCeRxybXhWXAMIHaBgNVHSMEgdIwgc+AFDPYRWbXaIcYflQNcCeRxybXhWXAoYGg
pIGdMIGaMQswCQYDVQQGEwJVUzEQMA4GA1UECAwHTW9udGFuYTEQMA4GA1UEBwwH
Qm96ZW1hbjEVMBMGA1UECgwMd29sZlNTTF8yMDQ4MRUwEwYDVQQLDAxSRUxBVElW
RV9VUkkxGDAWBgNVBAMMD3d3dy53b2xmc3NsLmNvbTEfMB0GCSqGSIb3DQEJARYQ
aW5mb0B3b2xmc3NsLmNvbYIUSx3wbMlJjvb9XXn8anc42pMPnVgwCQYDVR0TBAIw
ADAgBgNVHREEGTAXhhUuLi9yZWxhdGl2ZS9wYWdlLmh0bWwwDQYJKoZIhvcNAQEL
BQADggEBAKETQ/is/f6fL4G04FWcsOkKLX1+7NUjYdlWV+c51jj/f1lBuN3Cbbrk
F/Df07nsXhmFrQljoaQspsY4UKuXk67rm5cMXnJSTtd3aVsZdpd8e4Ka0yqXCjUE
U/8A60HPmFjyI379IlbT4TSDw0SdUHP17PtmcJh24mof/B+ICQkCndTMwCVNnKEu
ABoss2Jc/C3tmoDn+spJsxBTswLnRSa38LNHP9PfbjYhHhGhSyCRysOYeiU0VxRu
qh6cKBmVhmi7gbDwWp2KdlNAFytjFbm8VK9gpGQY7sgPaoTbqqR+BhCmgGs/z58n
NOYu4LykkTrMCylPxbJ8y8USb17X8ac=
-----END CERTIFICATE-----
