Certificate:
    Data:
        Version: 3 (0x2)
        Serial Number:
            7a:65:40:12:3e:1c:49:57:0a:f7:c6:7d:63:b7:25:6a:d7:cb:83:38
        Signature Algorithm: sha256WithRSAEncryption
        Issuer: C = US, ST = Montana, L = Bozeman, O = wolfSSL_2048, OU = URI, CN = www.wolfssl.com, emailAddress = info@wolfssl.com
        Validity
            Not Before: Dec 13 22:19:28 2023 GMT
            Not After : Sep  8 22:19:28 2026 GMT
        Subject: C = US, ST = Montana, L = Bozeman, O = wolfSSL_2048, OU = URI, CN = www.wolfssl.com, emailAddress = info@wolfssl.com
        Subject Public Key Info:
            Public Key Algorithm: rsaEncryption
                RSA Public-Key: (2048 bit)
                Modulus:
                    00:c3:03:d1:2b:fe:39:a4:32:45:3b:53:c8:84:2b:
                    2a:7c:74:9a:bd:aa:2a:52:07:47:d6:a6:36:b2:07:
                    32:8e:d0:ba:69:7b:c6:c3:44:9e:d4:81:48:fd:2d:
                    68:a2:8b:67:bb:a1:75:c8:36:2c:4a:d2:1b:f7:8b:
                    ba:cf:0d:f9:ef:ec:f1:81:1e:7b:9b:03:47:9a:bf:
                    65:cc:7f:65:24:69:a6:e8:14:89:5b:e4:34:f7:c5:
                    b0:14:93:f5:67:7b:3a:7a:78:e1:01:56:56:91:a6:
                    13:42:8d:d2:3c:40:9c:4c:ef:d1:86:df:37:51:1b:
                    0c:a1:3b:f5:f1:a3:4a:35:e4:e1:ce:96:df:1b:7e:
                    bf:4e:97:d0:10:e8:a8:08:30:81:af:20:0b:43:14:
                    c5:74:67:b4:32:82:6f:8d:86:c2:88:40:99:36:83:
                    ba:1e:40:72:22:17:d7:52:65:24:73:b0:ce:ef:19:
                    cd:ae:ff:78:6c:7b:c0:12:03:d4:4e:72:0d:50:6d:
                    3b:a3:3b:a3:99:5e:9d:c8:d9:0c:85:b3:d9:8a:d9:
                    54:26:db:6d:fa:ac:bb:ff:25:4c:c4:d1:79:f4:71:
                    d3:86:40:18:13:b0:63:b5:72:4e:30:c4:97:84:86:
                    2d:56:2f:d7:15:f7:7f:c0:ae:f5:fc:5b:e5:fb:a1:
                    ba:d3
                Exponent: 65537 (0x10001)
        X509v3 extensions:
            X509v3 Subject Key Identifier: 
                33:D8:45:66:D7:68:87:18:7E:54:0D:70:27:91:C7:26:D7:85:65:C0
            X509v3 Authority Key Identifier: 
                keyid:33:D8:45:66:D7:68:87:18:7E:54:0D:70:27:91:C7:26:D7:85:65:C0
                DirName:/C=US/ST=Montana/L=Bozeman/O=wolfSSL_2048/OU=URI/CN=www.wolfssl.com/emailAddress=info@wolfssl.com
                serial:7A:65:40:12:3E:1C:49:57:0A:F7:C6:7D:63:B7:25:6A:D7:CB:83:38

            X509v3 Basic Constraints: 
                CA:FALSE
            X509v3 Subject Alternative Name: 
                URI:https://www.wolfssl.com
    Signature Algorithm: sha256WithRSAEncryption
         5d:a4:3a:35:ae:40:5b:fb:1e:7b:09:41:32:4b:0b:0e:88:6e:
         77:04:87:6c:dd:f6:bb:48:f0:38:25:d1:62:e8:fc:b8:b9:32:
         ad:bf:2d:66:92:8e:fb:62:2b:f2:f9:64:8f:c0:48:93:1b:d5:
         a5:34:10:da:09:27:a3:c0:67:80:4e:b6:69:0a:56:8d:63:12:
         90:21:8b:a1:74:a0:5e:60:a3:3e:b5:4b:bf:12:a4:9f:37:ad:
         4e:1f:08:fa:3c:b0:ab:64:ba:78:70:da:4a:b8:5a:0b:8f:ca:
         19:3d:7d:0e:c6:20:d7:7d:99:19:26:26:d5:fd:dd:df:30:69:
         89:ff:4d:0c:94:6c:11:2e:ff:6d:71:42:b3:76:5a:c3:f4:a4:
         17:83:d0:1a:85:58:12:04:9b:77:39:f3:34:0b:75:bd:1f:98:
         96:6c:b9:6a:9f:e7:49:ed:ca:5d:09:f9:3a:62:82:57:f3:ba:
         5d:73:b6:da:c3:bd:7c:31:9e:e4:92:41:6c:8b:64:4f:cd:bd:
         9d:02:73:29:53:2d:e0:2b:83:36:3d:c5:a2:34:43:c0:7a:03:
         1b:74:e3:75:02:84:ef:92:bf:e8:a5:43:53:04:0c:ea:bb:ba:
         3a:e1:28:b6:c8:15:dd:5a:bb:ae:b0:47:81:5b:09:c2:47:5b:
         f8:7a:87:bc
-----BEGIN CERTIFICATE-----
MIIE2jCCA8KgAwIBAgIUemVAEj4cSVcK98Z9Y7clatfLgzgwDQYJKoZIhvcNAQEL
BQAwgZExCzAJBgNVBAYTAlVTMRAwDgYDVQQIDAdNb250YW5hMRAwDgYDVQQHDAdC
b3plbWFuMRUwEwYDVQQKDAx3b2xmU1NMXzIwNDgxDDAKBgNVBAsMA1VSSTEYMBYG
A1UEAwwPd3d3LndvbGZzc2wuY29tMR8wHQYJKoZIhvcNAQkBFhBpbmZvQHdvbGZz
c2wuY29tMB4XDTIzMTIxMzIyMTkyOFoXDTI2MDkwODIyMTkyOFowgZExCzAJBgNV
BAYTAlVTMRAwDgYDVQQIDAdNb250YW5hMRAwDgYDVQQHDAdCb3plbWFuMRUwEwYD
VQQKDAx3b2xmU1NMXzIwNDgxDDAKBgNVBAsMA1VSSTEYMBYGA1UEAwwPd3d3Lndv
bGZzc2wuY29tMR8wHQYJKoZIhvcNAQkBFhBpbmZvQHdvbGZzc2wuY29tMIIBIjAN
BgkqhkiG9w0BAQEFAAOCAQ8AMIIBCgKCAQEAwwPRK/45pDJFO1PIhCsqfHSavaoq
UgdH1qY2sgcyjtC6aXvGw0Se1IFI/S1oootnu6F1yDYsStIb94u6zw357+zxgR57
mwNHmr9lzH9lJGmm6BSJW+Q098WwFJP1Z3s6enjhAVZWkaYTQo3SPECcTO/Rht83
URsMoTv18aNKNeThzpbfG36/TpfQEOioCDCBryALQxTFdGe0MoJvjYbCiECZNoO6
HkByIhfXUmUkc7DO7xnNrv94bHvAEgPUTnINUG07ozujmV6dyNkMhbPZitlUJttt
+qy7/yVMxNF59HHThkAYE7BjtXJOMMSXhIYtVi/XFfd/wK71/Fvl+6G60wIDAQAB
o4IBJjCCASIwHQYDVR0OBBYEFDPYRWbXaIcYflQNcCeRxybXhWXAMIHRBgNVHSME
gckwgcaAFDPYRWbXaIcYflQNcCeRxybXhWXAoYGXpIGUMIGRMQswCQYDVQQGEwJV
UzEQMA4GA1UECAwHTW9udGFuYTEQMA4GA1UEBwwHQm96ZW1hbjEVMBMGA1UECgwM
d29sZlNTTF8yMDQ4MQwwCgYDVQQLDANVUkkxGDAWBgNVBAMMD3d3dy53b2xmc3Ns
LmNvbTEfMB0GCSqGSIb3DQEJARYQaW5mb0B3b2xmc3NsLmNvbYIUemVAEj4cSVcK
98Z9Y7clatfLgzgwCQYDVR0TBAIwADAiBgNVHREEGzAZhhdodHRwczovL3d3dy53
b2xmc3NsLmNvbTANBgkqhkiG9w0BAQsFAAOCAQEAXaQ6Na5AW/seewlBMksLDohu
dwSHbN32u0jwOCXRYuj8uLkyrb8tZpKO+2Ir8vlkj8BIkxvVpTQQ2gkno8BngE62
aQpWjWMSkCGLoXSgXmCjPrVLvxKknzetTh8I+jywq2S6eHDaSrhaC4/KGT19DsYg
132ZGSYm1f3d3zBpif9NDJRsES7/bXFCs3Zaw/SkF4PQGoVYEgSbdznzNAt1vR+Y
lmy5ap/nSe3KXQn5OmKCV/O6XXO22sO9fDGe5JJBbItkT829nQJzKVMt4CuDNj3F
ojRDwHoDG3TjdQKE75K/6KVDUwQM6ru6OuEotsgV3Vq7rrBHgVsJwkdb+HqHvA==
-----END CERTIFICATE-----
