Certificate:
    Data:
        Version: 3 (0x2)
        Serial Number:
            6c:a2:3d:0d:73:b8:06:f0:8b:1c:16:b4:38:8a:e8:62:86:51:fe:83
        Signature Algorithm: sha256WithRSAEncryption
        Issuer: C=US, ST=Montana, L=Bozeman, O=wolfSSL_2048, OU=ABSOLUTE_URN, CN=www.wolfssl.com, emailAddress=info@wolfssl.com
        Validity
            Not Before: Nov 13 20:41:09 2025 GMT
            Not After : Aug  9 20:41:09 2028 GMT
        Subject: C=US, ST=Montana, L=Bozeman, O=wolfSSL_2048, OU=ABSOLUTE_URN, CN=www.wolfssl.com, emailAddress=info@wolfssl.com
        Subject Public Key Info:
            Public Key Algorithm: rsaEncryption
                Public-Key: (2048 bit)
                Modulus:
                    00:c3:03:d1:2b:fe:39:a4:32:45:3b:53:c8:84:2b:
                    2a:7c:74:9a:bd:aa:2a:52:07:47:d6:a6:36:b2:07:
                    32:8e:d0:ba:69:7b:c6:c3:44:9e:d4:81:48:fd:2d:
                    68:a2:8b:67:bb:a1:75:c8:36:2c:4a:d2:1b:f7:8b:
                    ba:cf:0d:f9:ef:ec:f1:81:1e:7b:9b:03:47:9a:bf:
                    65:cc:7f:65:24:69:a6:e8:14:89:5b:e4:34:f7:c5:
                    b0:14:93:f5:67:7b:3a:7a:78:e1:01:56:56:91:a6:
                    13:42:8d:d2:3c:40:9c:4c:ef:d1:86:df:37:51:1b:
                    0c:a1:3b:f5:f1:a3:4a:35:e4:e1:ce:96:df:1b:7e:
                    bf:4e:97:d0:10:e8:a8:08:30:81:af:20:0b:43:14:
                    c5:74:67:b4:32:82:6f:8d:86:c2:88:40:99:36:83:
                    ba:1e:40:72:22:17:d7:52:65:24:73:b0:ce:ef:19:
                    cd:ae:ff:78:6c:7b:c0:12:03:d4:4e:72:0d:50:6d:
                    3b:a3:3b:a3:99:5e:9d:c8:d9:0c:85:b3:d9:8a:d9:
                    54:26:db:6d:fa:ac:bb:ff:25:4c:c4:d1:79:f4:71:
                    d3:86:40:18:13:b0:63:b5:72:4e:30:c4:97:84:86:
                    2d:56:2f:d7:15:f7:7f:c0:ae:f5:fc:5b:e5:fb:a1:
                    ba:d3
                Exponent: 65537 (0x10001)
        X509v3 extensions:
            X509v3 Subject Key Identifier: 
                33:D8:45:66:D7:68:87:18:7E:54:0D:70:27:91:C7:26:D7:85:65:C0
            X509v3 Authority Key Identifier: 
                keyid:33:D8:45:66:D7:68:87:18:7E:54:0D:70:27:91:C7:26:D7:85:65:C0
                DirName:/C=US/ST=Montana/L=Bozeman/O=wolfSSL_2048/OU=ABSOLUTE_URN/CN=www.wolfssl.com/emailAddress=info@wolfssl.com
                serial:6C:A2:3D:0D:73:B8:06:F0:8B:1C:16:B4:38:8A:E8:62:86:51:FE:83
            X509v3 Basic Constraints: 
                CA:FALSE
            X509v3 Subject Alternative Name: 
                URI:urn:example:test
    Signature Algorithm: sha256WithRSAEncryption
    Signature Value:
        45:bf:6c:dc:bd:54:c0:7c:5d:e4:ce:db:c8:59:1c:cd:ad:d1:
        79:5f:9e:21:f0:f5:1f:b0:8e:38:1d:89:a1:e9:b7:33:0f:26:
        67:97:fd:db:f9:2f:6f:b7:8d:21:54:cd:e8:03:e8:f5:a2:81:
        10:60:09:5c:f2:32:39:8f:19:94:49:90:62:c4:48:f1:b0:00:
        9d:eb:90:66:c6:32:10:69:68:62:4f:f3:ea:28:f6:2d:62:f4:
        e7:23:c0:0b:c6:53:ce:08:05:ec:04:fb:b5:fa:11:d8:63:88:
        23:27:a8:38:9a:23:69:8b:1b:fc:e2:fc:b4:a2:0e:88:60:d1:
        3d:9f:32:a4:db:3e:7b:67:4b:9e:f8:b1:26:cf:ab:09:10:78:
        7a:21:0e:85:1f:f2:b5:82:2e:a9:62:92:8c:62:e3:61:29:d1:
        2f:11:dd:ed:c0:b0:52:a7:7d:b2:ae:7b:a7:63:6e:65:d8:c4:
        22:18:87:af:52:67:47:4d:d0:c5:4e:bd:47:66:02:fe:25:58:
        f6:aa:59:a1:55:85:7a:78:d0:76:72:74:ce:52:86:83:56:30:
        98:9f:bd:58:d6:0a:dd:1b:b0:f9:52:be:cb:2a:e0:c6:90:85:
        6d:21:19:1a:3f:29:19:a3:3e:af:38:e2:3e:1c:22:22:67:1e:
        04:f9:f6:36
-----BEGIN CERTIFICATE-----
MIIE7jCCA9agAwIBAgIUbKI9DXO4BvCLHBa0OIroYoZR/oMwDQYJKoZIhvcNAQEL
BQAwgZoxCzAJBgNVBAYTAlVTMRAwDgYDVQQIDAdNb250YW5hMRAwDgYDVQQHDAdC
b3plbWFuMRUwEwYDVQQKDAx3b2xmU1NMXzIwNDgxFTATBgNVBAsMDEFCU09MVVRF
X1VSTjEYMBYGA1UEAwwPd3d3LndvbGZzc2wuY29tMR8wHQYJKoZIhvcNAQkBFhBp
bmZvQHdvbGZzc2wuY29tMB4XDTI1MTExMzIwNDEwOVoXDTI4MDgwOTIwNDEwOVow
gZoxCzAJBgNVBAYTAlVTMRAwDgYDVQQIDAdNb250YW5hMRAwDgYDVQQHDAdCb3pl
bWFuMRUwEwYDVQQKDAx3b2xmU1NMXzIwNDgxFTATBgNVBAsMDEFCU09MVVRFX1VS
TjEYMBYGA1UEAwwPd3d3LndvbGZzc2wuY29tMR8wHQYJKoZIhvcNAQkBFhBpbmZv
QHdvbGZzc2wuY29tMIIBIjANBgkqhkiG9w0BAQEFAAOCAQ8AMIIBCgKCAQEAwwPR
K/45pDJFO1PIhCsqfHSavaoqUgdH1qY2sgcyjtC6aXvGw0Se1IFI/S1oootnu6F1
yDYsStIb94u6zw357+zxgR57mwNHmr9lzH9lJGmm6BSJW+Q098WwFJP1Z3s6enjh
AVZWkaYTQo3SPECcTO/Rht83URsMoTv18aNKNeThzpbfG36/TpfQEOioCDCBryAL
QxTFdGe0MoJvjYbCiECZNoO6HkByIhfXUmUkc7DO7xnNrv94bHvAEgPUTnINUG07
ozujmV6dyNkMhbPZitlUJttt+qy7/yVMxNF59HHThkAYE7BjtXJOMMSXhIYtVi/X
Ffd/wK71/Fvl+6G60wIDAQABo4IBKDCCASQwHQYDVR0OBBYEFDPYRWbXaIcYflQN
cCeRxybXhWXAMIHaBgNVHSMEgdIwgc+AFDPYRWbXaIcYflQNcCeRxybXhWXAoYGg
pIGdMIGaMQswCQYDVQQGEwJVUzEQMA4GA1UECAwHTW9udGFuYTEQMA4GA1UEBwwH
Qm96ZW1hbjEVMBMGA1UECgwMd29sZlNTTF8yMDQ4MRUwEwYDVQQLDAxBQlNPTFVU
RV9VUk4xGDAWBgNVBAMMD3d3dy53b2xmc3NsLmNvbTEfMB0GCSqGSIb3DQEJARYQ
aW5mb0B3b2xmc3NsLmNvbYIUbKI9DXO4BvCLHBa0OIroYoZR/oMwCQYDVR0TBAIw
ADAbBgNVHREEFDAShhB1cm46ZXhhbXBsZTp0ZXN0MA0GCSqGSIb3DQEBCwUAA4IB
AQBFv2zcvVTAfF3kztvIWRzNrdF5X54h8PUfsI44HYmh6bczDyZnl/3b+S9vt40h
VM3oA+j1ooEQYAlc8jI5jxmUSZBixEjxsACd65BmxjIQaWhiT/PqKPYtYvTnI8AL
xlPOCAXsBPu1+hHYY4gjJ6g4miNpixv84vy0og6IYNE9nzKk2z57Z0ue+LEmz6sJ
EHh6IQ6FH/K1gi6pYpKMYuNhKdEvEd3twLBSp32yrnunY25l2MQiGIevUmdHTdDF
Tr1HZgL+JVj2qlmhVYV6eNB2cnTOUoaDVjCYn71Y1grdG7D5Ur7LKuDGkIVtIRka
PykZoz6vOOI+HCIiZx4E+fY2
-----END CERTIFICATE-----
