Certificate:
    Data:
        Version: 3 (0x2)
        Serial Number:
            28:2c:d3:e8:22:39:f9:1d:be:90:1c:5e:99:59:bb:59:d7:0e:25:de
        Signature Algorithm: sha256WithRSAEncryption
        Issuer: C = US, ST = Montana, L = Bozeman, O = wolfSSL_2048, OU = RELATIVE_URI, CN = www.wolfssl.com, emailAddress = info@wolfssl.com
        Validity
            Not Before: Dec 13 22:19:28 2023 GMT
            Not After : Sep  8 22:19:28 2026 GMT
        Subject: C = US, ST = Montana, L = Bozeman, O = wolfSSL_2048, OU = RELATIVE_URI, CN = www.wolfssl.com, emailAddress = info@wolfssl.com
        Subject Public Key Info:
            Public Key Algorithm: rsaEncryption
                RSA Public-Key: (2048 bit)
                Modulus:
                    00:c3:03:d1:2b:fe:39:a4:32:45:3b:53:c8:84:2b:
                    2a:7c:74:9a:bd:aa:2a:52:07:47:d6:a6:36:b2:07:
                    32:8e:d0:ba:69:7b:c6:c3:44:9e:d4:81:48:fd:2d:
                    68:a2:8b:67:bb:a1:75:c8:36:2c:4a:d2:1b:f7:8b:
                    ba:cf:0d:f9:ef:ec:f1:81:1e:7b:9b:03:47:9a:bf:
                    65:cc:7f:65:24:69:a6:e8:14:89:5b:e4:34:f7:c5:
                    b0:14:93:f5:67:7b:3a:7a:78:e1:01:56:56:91:a6:
                    13:42:8d:d2:3c:40:9c:4c:ef:d1:86:df:37:51:1b:
                    0c:a1:3b:f5:f1:a3:4a:35:e4:e1:ce:96:df:1b:7e:
                    bf:4e:97:d0:10:e8:a8:08:30:81:af:20:0b:43:14:
                    c5:74:67:b4:32:82:6f:8d:86:c2:88:40:99:36:83:
                    ba:1e:40:72:22:17:d7:52:65:24:73:b0:ce:ef:19:
                    cd:ae:ff:78:6c:7b:c0:12:03:d4:4e:72:0d:50:6d:
                    3b:a3:3b:a3:99:5e:9d:c8:d9:0c:85:b3:d9:8a:d9:
                    54:26:db:6d:fa:ac:bb:ff:25:4c:c4:d1:79:f4:71:
                    d3:86:40:18:13:b0:63:b5:72:4e:30:c4:97:84:86:
                    2d:56:2f:d7:15:f7:7f:c0:ae:f5:fc:5b:e5:fb:a1:
                    ba:d3
                Exponent: 65537 (0x10001)
        X509v3 extensions:
            X509v3 Subject Key Identifier: 
                33:D8:45:66:D7:68:87:18:7E:54:0D:70:27:91:C7:26:D7:85:65:C0
            X509v3 Authority Key Identifier: 
                keyid:33:D8:45:66:D7:68:87:18:7E:54:0D:70:27:91:C7:26:D7:85:65:C0
                DirName:/C=US/ST=Montana/L=Bozeman/O=wolfSSL_2048/OU=RELATIVE_URI/CN=www.wolfssl.com/emailAddress=info@wolfssl.com
                serial:28:2C:D3:E8:22:39:F9:1D:BE:90:1C:5E:99:59:BB:59:D7:0E:25:DE

            X509v3 Basic Constraints: 
                CA:FALSE
            X509v3 Subject Alternative Name: 
                URI:../relative/page.html
    Signature Algorithm: sha256WithRSAEncryption
         9a:6f:69:6c:4a:a8:1a:c7:42:04:ae:d8:d3:d0:b0:ce:ae:d6:
         68:5c:e6:91:37:39:d8:6c:64:43:11:fd:a9:ea:4a:47:e8:bc:
         6c:dc:12:b9:70:94:12:a8:5e:21:1a:e9:a2:fa:cf:c2:19:47:
         22:5d:6c:9e:4e:a3:6a:1d:7f:75:8f:a7:06:56:2f:c2:ac:d6:
         2e:56:90:ef:53:01:70:5f:a2:e0:6d:28:79:ab:bb:24:40:cd:
         62:6e:18:b5:5d:33:6a:d0:1c:84:c6:8f:82:77:1d:7b:85:c9:
         60:db:41:b2:6e:d2:4a:3e:ed:eb:76:62:59:82:93:21:1c:b5:
         8f:d6:9e:c2:5c:d8:a3:ca:cf:2f:16:a0:03:2d:7c:d9:3c:ec:
         1b:55:57:da:22:49:67:c6:9d:da:9a:1a:27:d8:1f:ea:e5:74:
         53:14:a2:9d:ba:a3:fa:0a:c9:52:fc:50:33:2a:d5:b5:25:39:
         5a:b4:e4:8a:2e:b8:c5:5f:f7:ac:2b:b0:ec:fe:cf:a5:23:58:
         6c:18:2c:68:2d:56:c5:16:2d:8a:0a:c1:2d:aa:cd:33:15:1c:
         80:e3:af:91:30:f6:f4:ce:28:57:4c:32:b8:09:ac:29:b7:07:
         47:1d:7d:bd:4a:5a:5d:97:0b:4b:c8:22:bc:f9:35:29:72:58:
         0f:f6:34:a3
-----BEGIN CERTIFICATE-----
MIIE8zCCA9ugAwIBAgIUKCzT6CI5+R2+kBxemVm7WdcOJd4wDQYJKoZIhvcNAQEL
BQAwgZoxCzAJBgNVBAYTAlVTMRAwDgYDVQQIDAdNb250YW5hMRAwDgYDVQQHDAdC
b3plbWFuMRUwEwYDVQQKDAx3b2xmU1NMXzIwNDgxFTATBgNVBAsMDFJFTEFUSVZF
X1VSSTEYMBYGA1UEAwwPd3d3LndvbGZzc2wuY29tMR8wHQYJKoZIhvcNAQkBFhBp
bmZvQHdvbGZzc2wuY29tMB4XDTIzMTIxMzIyMTkyOFoXDTI2MDkwODIyMTkyOFow
gZoxCzAJBgNVBAYTAlVTMRAwDgYDVQQIDAdNb250YW5hMRAwDgYDVQQHDAdCb3pl
bWFuMRUwEwYDVQQKDAx3b2xmU1NMXzIwNDgxFTATBgNVBAsMDFJFTEFUSVZFX1VS
STEYMBYGA1UEAwwPd3d3LndvbGZzc2wuY29tMR8wHQYJKoZIhvcNAQkBFhBpbmZv
QHdvbGZzc2wuY29tMIIBIjANBgkqhkiG9w0BAQEFAAOCAQ8AMIIBCgKCAQEAwwPR
K/45pDJFO1PIhCsqfHSavaoqUgdH1qY2sgcyjtC6aXvGw0Se1IFI/S1oootnu6F1
yDYsStIb94u6zw357+zxgR57mwNHmr9lzH9lJGmm6BSJW+Q098WwFJP1Z3s6enjh
AVZWkaYTQo3SPECcTO/Rht83URsMoTv18aNKNeThzpbfG36/TpfQEOioCDCBryAL
QxTFdGe0MoJvjYbCiECZNoO6HkByIhfXUmUkc7DO7xnNrv94bHvAEgPUTnINUG07
ozujmV6dyNkMhbPZitlUJttt+qy7/yVMxNF59HHThkAYE7BjtXJOMMSXhIYtVi/X
Ffd/wK71/Fvl+6G60wIDAQABo4IBLTCCASkwHQYDVR0OBBYEFDPYRWbXaIcYflQN
cCeRxybXhWXAMIHaBgNVHSMEgdIwgc+AFDPYRWbXaIcYflQNcCeRxybXhWXAoYGg
pIGdMIGaMQswCQYDVQQGEwJVUzEQMA4GA1UECAwHTW9udGFuYTEQMA4GA1UEBwwH
Qm96ZW1hbjEVMBMGA1UECgwMd29sZlNTTF8yMDQ4MRUwEwYDVQQLDAxSRUxBVElW
RV9VUkkxGDAWBgNVBAMMD3d3dy53b2xmc3NsLmNvbTEfMB0GCSqGSIb3DQEJARYQ
aW5mb0B3b2xmc3NsLmNvbYIUKCzT6CI5+R2+kBxemVm7WdcOJd4wCQYDVR0TBAIw
ADAgBgNVHREEGTAXhhUuLi9yZWxhdGl2ZS9wYWdlLmh0bWwwDQYJKoZIhvcNAQEL
BQADggEBAJpvaWxKqBrHQgSu2NPQsM6u1mhc5pE3OdhsZEMR/anqSkfovGzcErlw
lBKoXiEa6aL6z8IZRyJdbJ5Oo2odf3WPpwZWL8Ks1i5WkO9TAXBfouBtKHmruyRA
zWJuGLVdM2rQHITGj4J3HXuFyWDbQbJu0ko+7et2YlmCkyEctY/WnsJc2KPKzy8W
oAMtfNk87BtVV9oiSWfGndqaGifYH+rldFMUop26o/oKyVL8UDMq1bUlOVq05Iou
uMVf96wrsOz+z6UjWGwYLGgtVsUWLYoKwS2qzTMVHIDjr5Ew9vTOKFdMMrgJrCm3
B0cdfb1KWl2XC0vIIrz5NSlyWA/2NKM=
-----END CERTIFICATE-----
