Certificate:
    Data:
        Version: 3 (0x2)
        Serial Number:
            37:67:2a:05:24:b5:2b:b6:ae:40:6b:e1:75:e0:97:cc:1d:12:8b:2a
        Signature Algorithm: ecdsa-with-SHA256
        Issuer: C = US, ST = Oregon, L = Salem, O = Client ECC, OU = Fast, CN = www.wolfssl.com, emailAddress = info@wolfssl.com
        Validity
            Not Before: Dec 13 22:19:28 2023 GMT
            Not After : Sep  8 22:19:28 2026 GMT
        Subject: C = US, ST = Oregon, L = Salem, O = Client ECC, OU = Fast, CN = www.wolfssl.com, emailAddress = info@wolfssl.com
        Subject Public Key Info:
            Public Key Algorithm: id-ecPublicKey
                Public-Key: (256 bit)
                pub:
                    04:55:bf:f4:0f:44:50:9a:3d:ce:9b:b7:f0:c5:4d:
                    f5:70:7b:d4:ec:24:8e:19:80:ec:5a:4c:a2:24:03:
                    62:2c:9b:da:ef:a2:35:12:43:84:76:16:c6:56:95:
                    06:cc:01:a9:bd:f6:75:1a:42:f7:bd:a9:b2:36:22:
                    5f:c7:5d:7f:b4
                ASN1 OID: prime256v1
                NIST CURVE: P-256
        X509v3 extensions:
            X509v3 Subject Key Identifier: 
                EB:D4:4B:59:6B:95:61:3F:51:57:B6:04:4D:89:41:88:44:5C:AB:F2
            X509v3 Authority Key Identifier: 
                keyid:EB:D4:4B:59:6B:95:61:3F:51:57:B6:04:4D:89:41:88:44:5C:AB:F2
                DirName:/C=US/ST=Oregon/L=Salem/O=Client ECC/OU=Fast/CN=www.wolfssl.com/emailAddress=info@wolfssl.com
                serial:37:67:2A:05:24:B5:2B:B6:AE:40:6B:E1:75:E0:97:CC:1D:12:8B:2A

            X509v3 Basic Constraints: 
                CA:TRUE
            X509v3 Subject Alternative Name: 
                DNS:example.com, IP Address:127.0.0.1
            X509v3 Extended Key Usage: 
                TLS Web Server Authentication, TLS Web Client Authentication
    Signature Algorithm: ecdsa-with-SHA256
         30:44:02:20:7a:6d:c5:bd:6f:9d:54:4f:c5:4c:d0:12:8c:31:
         3b:b6:17:80:9e:c7:34:f8:c5:da:fb:61:23:35:e6:93:35:b4:
         02:20:1b:6a:86:c4:11:be:7c:15:a7:5e:ab:85:ee:b7:8c:20:
         dc:eb:17:a3:f2:66:63:aa:6b:67:e0:62:1f:17:3e:ac
-----BEGIN CERTIFICATE-----
MIIDXTCCAwSgAwIBAgIUN2cqBSS1K7auQGvhdeCXzB0SiyowCgYIKoZIzj0EAwIw
gY0xCzAJBgNVBAYTAlVTMQ8wDQYDVQQIDAZPcmVnb24xDjAMBgNVBAcMBVNhbGVt
MRMwEQYDVQQKDApDbGllbnQgRUNDMQ0wCwYDVQQLDARGYXN0MRgwFgYDVQQDDA93
d3cud29sZnNzbC5jb20xHzAdBgkqhkiG9w0BCQEWEGluZm9Ad29sZnNzbC5jb20w
HhcNMjMxMjEzMjIxOTI4WhcNMjYwOTA4MjIxOTI4WjCBjTELMAkGA1UEBhMCVVMx
DzANBgNVBAgMBk9yZWdvbjEOMAwGA1UEBwwFU2FsZW0xEzARBgNVBAoMCkNsaWVu
dCBFQ0MxDTALBgNVBAsMBEZhc3QxGDAWBgNVBAMMD3d3dy53b2xmc3NsLmNvbTEf
MB0GCSqGSIb3DQEJARYQaW5mb0B3b2xmc3NsLmNvbTBZMBMGByqGSM49AgEGCCqG
SM49AwEHA0IABFW/9A9EUJo9zpu38MVN9XB71OwkjhmA7FpMoiQDYiyb2u+iNRJD
hHYWxlaVBswBqb32dRpC972psjYiX8ddf7SjggE+MIIBOjAdBgNVHQ4EFgQU69RL
WWuVYT9RV7YETYlBiERcq/Iwgc0GA1UdIwSBxTCBwoAU69RLWWuVYT9RV7YETYlB
iERcq/KhgZOkgZAwgY0xCzAJBgNVBAYTAlVTMQ8wDQYDVQQIDAZPcmVnb24xDjAM
BgNVBAcMBVNhbGVtMRMwEQYDVQQKDApDbGllbnQgRUNDMQ0wCwYDVQQLDARGYXN0
MRgwFgYDVQQDDA93d3cud29sZnNzbC5jb20xHzAdBgkqhkiG9w0BCQEWEGluZm9A
d29sZnNzbC5jb22CFDdnKgUktSu2rkBr4XXgl8wdEosqMAwGA1UdEwQFMAMBAf8w
HAYDVR0RBBUwE4ILZXhhbXBsZS5jb22HBH8AAAEwHQYDVR0lBBYwFAYIKwYBBQUH
AwEGCCsGAQUFBwMCMAoGCCqGSM49BAMCA0cAMEQCIHptxb1vnVRPxUzQEowxO7YX
gJ7HNPjF2vthIzXmkzW0AiAbaobEEb58Fadeq4Xut4wg3OsXo/JmY6prZ+BiHxc+
rA==
-----END CERTIFICATE-----
