Certificate:
    Data:
        Version: 3 (0x2)
        Serial Number:
            7b:e6:70:2d:0a:4c:00:e5:a1:ff:a5:1b:15:c6:7a:73:5d:7a:fb:d9
        Signature Algorithm: sha256WithRSAEncryption
        Issuer: C = US, ST = Montana, L = Bozeman, O = wolfSSL_2048, OU = CRL_DIST, CN = www.wolfssl.com, emailAddress = info@wolfssl.com
        Validity
            Not Before: Sep 26 17:22:42 2023 GMT
            Not After : Jun 22 17:22:42 2026 GMT
        Subject: C = US, ST = Montana, L = Bozeman, O = wolfSSL_2048, OU = CRL_DIST, CN = www.wolfssl.com, emailAddress = info@wolfssl.com
        Subject Public Key Info:
            Public Key Algorithm: rsaEncryption
                Public-Key: (2048 bit)
                Modulus:
                    00:c3:03:d1:2b:fe:39:a4:32:45:3b:53:c8:84:2b:
                    2a:7c:74:9a:bd:aa:2a:52:07:47:d6:a6:36:b2:07:
                    32:8e:d0:ba:69:7b:c6:c3:44:9e:d4:81:48:fd:2d:
                    68:a2:8b:67:bb:a1:75:c8:36:2c:4a:d2:1b:f7:8b:
                    ba:cf:0d:f9:ef:ec:f1:81:1e:7b:9b:03:47:9a:bf:
                    65:cc:7f:65:24:69:a6:e8:14:89:5b:e4:34:f7:c5:
                    b0:14:93:f5:67:7b:3a:7a:78:e1:01:56:56:91:a6:
                    13:42:8d:d2:3c:40:9c:4c:ef:d1:86:df:37:51:1b:
                    0c:a1:3b:f5:f1:a3:4a:35:e4:e1:ce:96:df:1b:7e:
                    bf:4e:97:d0:10:e8:a8:08:30:81:af:20:0b:43:14:
                    c5:74:67:b4:32:82:6f:8d:86:c2:88:40:99:36:83:
                    ba:1e:40:72:22:17:d7:52:65:24:73:b0:ce:ef:19:
                    cd:ae:ff:78:6c:7b:c0:12:03:d4:4e:72:0d:50:6d:
                    3b:a3:3b:a3:99:5e:9d:c8:d9:0c:85:b3:d9:8a:d9:
                    54:26:db:6d:fa:ac:bb:ff:25:4c:c4:d1:79:f4:71:
                    d3:86:40:18:13:b0:63:b5:72:4e:30:c4:97:84:86:
                    2d:56:2f:d7:15:f7:7f:c0:ae:f5:fc:5b:e5:fb:a1:
                    ba:d3
                Exponent: 65537 (0x10001)
        X509v3 extensions:
            X509v3 CRL Distribution Points: 
                Full Name:
                  URI:http://www.wolfssl.com/crl.pem
            X509v3 Subject Key Identifier: 
                33:D8:45:66:D7:68:87:18:7E:54:0D:70:27:91:C7:26:D7:85:65:C0
    Signature Algorithm: sha256WithRSAEncryption
    Signature Value:
        4b:01:1a:b5:06:78:98:df:e3:57:3a:22:2b:00:10:e1:8d:cf:
        19:85:ca:1f:ca:33:6f:64:16:63:f3:5b:44:22:09:09:55:da:
        ca:7b:1c:f8:07:82:93:af:e8:e0:3a:15:bd:75:80:19:1e:c1:
        9a:f3:26:9c:3d:c6:5f:6e:5e:ec:42:03:00:5a:e3:17:ac:0b:
        2f:83:0f:83:c9:49:dc:8c:9f:d1:f7:9c:a6:eb:43:05:30:11:
        05:f4:24:ac:a6:8b:7a:68:28:85:b3:fe:5b:32:d8:80:d7:f3:
        f5:5a:9a:68:7b:29:14:46:3c:63:7f:b9:1e:13:68:2b:e7:e7:
        c5:44:a7:13:42:d2:d9:b0:36:75:b0:09:e9:85:22:b8:39:5a:
        7a:ff:3e:23:40:f1:4c:c9:ef:97:1b:91:08:c1:ca:ad:a9:fe:
        b8:8a:3d:9b:91:e6:19:60:a6:ea:17:e1:2d:9b:fb:38:4a:68:
        9e:4e:7d:e2:d9:4e:d1:bd:3c:74:20:65:b0:d0:88:76:11:09:
        2f:64:8e:52:7f:5e:bf:f4:da:b0:b9:13:5f:3a:fd:d2:39:c8:
        ee:87:89:84:51:9c:5c:6b:28:48:a0:e7:86:c6:a5:e5:13:85:
        8b:c4:ba:32:f8:15:b2:c6:bc:57:fa:bb:de:b4:8c:aa:22:d7:
        80:8e:f1:c3
-----BEGIN CERTIFICATE-----
MIIEDjCCAvagAwIBAgIUe+ZwLQpMAOWh/6UbFcZ6c116+9kwDQYJKoZIhvcNAQEL
BQAwgZYxCzAJBgNVBAYTAlVTMRAwDgYDVQQIDAdNb250YW5hMRAwDgYDVQQHDAdC
b3plbWFuMRUwEwYDVQQKDAx3b2xmU1NMXzIwNDgxETAPBgNVBAsMCENSTF9ESVNU
MRgwFgYDVQQDDA93d3cud29sZnNzbC5jb20xHzAdBgkqhkiG9w0BCQEWEGluZm9A
d29sZnNzbC5jb20wHhcNMjMwOTI2MTcyMjQyWhcNMjYwNjIyMTcyMjQyWjCBljEL
MAkGA1UEBhMCVVMxEDAOBgNVBAgMB01vbnRhbmExEDAOBgNVBAcMB0JvemVtYW4x
FTATBgNVBAoMDHdvbGZTU0xfMjA0ODERMA8GA1UECwwIQ1JMX0RJU1QxGDAWBgNV
BAMMD3d3dy53b2xmc3NsLmNvbTEfMB0GCSqGSIb3DQEJARYQaW5mb0B3b2xmc3Ns
LmNvbTCCASIwDQYJKoZIhvcNAQEBBQADggEPADCCAQoCggEBAMMD0Sv+OaQyRTtT
yIQrKnx0mr2qKlIHR9amNrIHMo7Quml7xsNEntSBSP0taKKLZ7uhdcg2LErSG/eL
us8N+e/s8YEee5sDR5q/Zcx/ZSRppugUiVvkNPfFsBST9Wd7Onp44QFWVpGmE0KN
0jxAnEzv0YbfN1EbDKE79fGjSjXk4c6W3xt+v06X0BDoqAgwga8gC0MUxXRntDKC
b42GwohAmTaDuh5AciIX11JlJHOwzu8Zza7/eGx7wBID1E5yDVBtO6M7o5lencjZ
DIWz2YrZVCbbbfqsu/8lTMTRefRx04ZAGBOwY7VyTjDEl4SGLVYv1xX3f8Cu9fxb
5fuhutMCAwEAAaNSMFAwLwYDVR0fBCgwJjAkoCKgIIYeaHR0cDovL3d3dy53b2xm
c3NsLmNvbS9jcmwucGVtMB0GA1UdDgQWBBQz2EVm12iHGH5UDXAnkccm14VlwDAN
BgkqhkiG9w0BAQsFAAOCAQEASwEatQZ4mN/jVzoiKwAQ4Y3PGYXKH8ozb2QWY/Nb
RCIJCVXaynsc+AeCk6/o4DoVvXWAGR7BmvMmnD3GX25e7EIDAFrjF6wLL4MPg8lJ
3Iyf0fecputDBTARBfQkrKaLemgohbP+WzLYgNfz9VqaaHspFEY8Y3+5HhNoK+fn
xUSnE0LS2bA2dbAJ6YUiuDlaev8+I0DxTMnvlxuRCMHKran+uIo9m5HmGWCm6hfh
LZv7OEponk594tlO0b08dCBlsNCIdhEJL2SOUn9ev/TasLkTXzr90jnI7oeJhFGc
XGsoSKDnhsal5ROFi8S6MvgVssa8V/q73rSMqiLXgI7xww==
-----END CERTIFICATE-----
