Certificate:
    Data:
        Version: 3 (0x2)
        Serial Number: 10761354931173564369 (0x9558034b367f9fd1)
    Signature Algorithm: ecdsa-with-SHA1
        Issuer: C=US, ST=Montana, L=Bozeman, O=wolfSSL, OU=Programming, CN=www.wolfssl.com/emailAddress=info@wolfssl.com
        Validity
            Not Before: Feb  2 15:59:46 2015 GMT
            Not After : Oct 29 15:59:46 2017 GMT
        Subject: C=US, ST=Montana, L=Bozeman, O=wolfSSL, OU=Programming, CN=www.wolfssl.com/emailAddress=info@wolfssl.com
        Subject Public Key Info:
            Public Key Algorithm: id-ecPublicKey
                Public-Key: (256 bit)
                pub: 
                    04:55:bf:f4:0f:44:50:9a:3d:ce:9b:b7:f0:c5:4d:
                    f5:70:7b:d4:ec:24:8e:19:80:ec:5a:4c:a2:24:03:
                    62:2c:9b:da:ef:a2:35:12:43:84:76:16:c6:56:95:
                    06:cc:01:a9:bd:f6:75:1a:42:f7:bd:a9:b2:36:22:
                    5f:c7:5d:7f:b4
                ASN1 OID: prime256v1
        X509v3 extensions:
            X509v3 Subject Key Identifier: 
                EB:D4:4B:59:6B:95:61:3F:51:57:B6:04:4D:89:41:88:44:5C:AB:F2
            X509v3 Authority Key Identifier: 
                keyid:EB:D4:4B:59:6B:95:61:3F:51:57:B6:04:4D:89:41:88:44:5C:AB:F2
                DirName:/C=US/ST=Montana/L=Bozeman/O=wolfSSL/OU=Programming/CN=www.wolfssl.com/emailAddress=info@wolfssl.com
                serial:95:58:03:4B:36:7F:9F:D1

            X509v3 Basic Constraints: 
                CA:TRUE
    Signature Algorithm: ecdsa-with-SHA1
         30:45:02:21:00:a5:ad:1f:db:11:32:91:8d:4e:a9:25:6d:a1:
         af:e5:0e:f6:47:0a:f2:6a:f5:b3:27:3e:93:3b:d6:b2:a9:3f:
         2a:02:20:55:13:2a:1c:77:57:3c:ce:c3:a8:43:cd:78:cb:89:
         30:11:83:98:e6:2a:47:67:39:38:0f:52:95:61:39:aa:5d
-----BEGIN CERTIFICATE-----
MIIDHDCCAsOgAwIBAgIJAJVYA0s2f5/RMAkGByqGSM49BAEwgZQxCzAJBgNVBAYT
AlVTMRAwDgYDVQQIDAdNb250YW5hMRAwDgYDVQQHDAdCb3plbWFuMRAwDgYDVQQK
DAd3b2xmU1NMMRQwEgYDVQQLDAtQcm9ncmFtbWluZzEYMBYGA1UEAwwPd3d3Lndv
bGZzc2wuY29tMR8wHQYJKoZIhvcNAQkBFhBpbmZvQHdvbGZzc2wuY29tMB4XDTE1
MDIwMjE1NTk0NloXDTE3MTAyOTE1NTk0NlowgZQxCzAJBgNVBAYTAlVTMRAwDgYD
VQQIDAdNb250YW5hMRAwDgYDVQQHDAdCb3plbWFuMRAwDgYDVQQKDAd3b2xmU1NM
MRQwEgYDVQQLDAtQcm9ncmFtbWluZzEYMBYGA1UEAwwPd3d3LndvbGZzc2wuY29t
MR8wHQYJKoZIhvcNAQkBFhBpbmZvQHdvbGZzc2wuY29tMFkwEwYHKoZIzj0CAQYI
KoZIzj0DAQcDQgAEVb/0D0RQmj3Om7fwxU31cHvU7CSOGYDsWkyiJANiLJva76I1
EkOEdhbGVpUGzAGpvfZ1GkL3vamyNiJfx11/tKOB/DCB+TAdBgNVHQ4EFgQU69RL
WWuVYT9RV7YETYlBiERcq/IwgckGA1UdIwSBwTCBvoAU69RLWWuVYT9RV7YETYlB
iERcq/KhgZqkgZcwgZQxCzAJBgNVBAYTAlVTMRAwDgYDVQQIDAdNb250YW5hMRAw
DgYDVQQHDAdCb3plbWFuMRAwDgYDVQQKDAd3b2xmU1NMMRQwEgYDVQQLDAtQcm9n
cmFtbWluZzEYMBYGA1UEAwwPd3d3LndvbGZzc2wuY29tMR8wHQYJKoZIhvcNAQkB
FhBpbmZvQHdvbGZzc2wuY29tggkAlVgDSzZ/n9EwDAYDVR0TBAUwAwEB/zAJBgcq
hkjOPQQBA0gAMEUCIQClrR/bETKRjU6pJW2hr+UO9kcK8mr1syc+kzvWsqk/KgIg
VRMqHHdXPM7DqEPNeMuJMBGDmOYqR2c5OA9SlWE5ql0=
-----END CERTIFICATE-----
