Certificate:
    Data:
        Version: 3 (0x2)
        Serial Number:
            41:c6:1d:e4:25:8a:b8:79:bf:f5:e3:3b:f1:3a:02:e7:e4:76:a2:77
        Signature Algorithm: sha256WithRSAEncryption
        Issuer: C = US, ST = Montana, L = Bozeman, O = wolfSSL_2048, OU = URI, CN = www.wolfssl.com, emailAddress = info@wolfssl.com
        Validity
            Not Before: Feb 15 12:50:24 2022 GMT
            Not After : Nov 11 12:50:24 2024 GMT
        Subject: C = US, ST = Montana, L = Bozeman, O = wolfSSL_2048, OU = URI, CN = www.wolfssl.com, emailAddress = info@wolfssl.com
        Subject Public Key Info:
            Public Key Algorithm: rsaEncryption
                RSA Public-Key: (2048 bit)
                Modulus:
                    00:c3:03:d1:2b:fe:39:a4:32:45:3b:53:c8:84:2b:
                    2a:7c:74:9a:bd:aa:2a:52:07:47:d6:a6:36:b2:07:
                    32:8e:d0:ba:69:7b:c6:c3:44:9e:d4:81:48:fd:2d:
                    68:a2:8b:67:bb:a1:75:c8:36:2c:4a:d2:1b:f7:8b:
                    ba:cf:0d:f9:ef:ec:f1:81:1e:7b:9b:03:47:9a:bf:
                    65:cc:7f:65:24:69:a6:e8:14:89:5b:e4:34:f7:c5:
                    b0:14:93:f5:67:7b:3a:7a:78:e1:01:56:56:91:a6:
                    13:42:8d:d2:3c:40:9c:4c:ef:d1:86:df:37:51:1b:
                    0c:a1:3b:f5:f1:a3:4a:35:e4:e1:ce:96:df:1b:7e:
                    bf:4e:97:d0:10:e8:a8:08:30:81:af:20:0b:43:14:
                    c5:74:67:b4:32:82:6f:8d:86:c2:88:40:99:36:83:
                    ba:1e:40:72:22:17:d7:52:65:24:73:b0:ce:ef:19:
                    cd:ae:ff:78:6c:7b:c0:12:03:d4:4e:72:0d:50:6d:
                    3b:a3:3b:a3:99:5e:9d:c8:d9:0c:85:b3:d9:8a:d9:
                    54:26:db:6d:fa:ac:bb:ff:25:4c:c4:d1:79:f4:71:
                    d3:86:40:18:13:b0:63:b5:72:4e:30:c4:97:84:86:
                    2d:56:2f:d7:15:f7:7f:c0:ae:f5:fc:5b:e5:fb:a1:
                    ba:d3
                Exponent: 65537 (0x10001)
        X509v3 extensions:
            X509v3 Subject Key Identifier: 
                33:D8:45:66:D7:68:87:18:7E:54:0D:70:27:91:C7:26:D7:85:65:C0
            X509v3 Authority Key Identifier: 
                keyid:33:D8:45:66:D7:68:87:18:7E:54:0D:70:27:91:C7:26:D7:85:65:C0
                DirName:/C=US/ST=Montana/L=Bozeman/O=wolfSSL_2048/OU=URI/CN=www.wolfssl.com/emailAddress=info@wolfssl.com
                serial:41:C6:1D:E4:25:8A:B8:79:BF:F5:E3:3B:F1:3A:02:E7:E4:76:A2:77

            X509v3 Basic Constraints: 
                CA:FALSE
            X509v3 Subject Alternative Name: 
                URI:https://www.wolfssl.com
    Signature Algorithm: sha256WithRSAEncryption
         1e:72:9b:74:12:43:af:f8:12:f7:40:f5:f1:bd:ff:14:45:f7:
         16:0a:0a:29:de:f6:de:3b:82:67:43:81:7c:66:7f:7b:c0:51:
         4f:bb:9b:6b:46:ff:02:94:a5:78:2c:c2:75:16:70:b5:18:ac:
         90:c9:19:3e:6e:b3:11:c3:a7:0f:18:83:2e:68:81:9c:9f:73:
         13:20:ad:79:a2:64:fa:f1:37:77:22:22:ca:e6:d4:a4:75:ad:
         94:ef:c4:f0:b7:40:22:e3:e8:6d:e2:29:f2:17:10:99:10:11:
         6f:87:55:f6:c7:e3:fe:61:b2:98:04:90:dc:5a:12:58:72:b6:
         3f:3f:27:d5:32:27:c3:df:22:7c:37:e0:46:84:f1:87:8a:05:
         15:af:82:29:a4:36:b9:f9:35:dd:0d:8d:00:62:24:d1:d1:b2:
         66:c0:6e:a0:39:85:94:40:62:38:4d:90:36:3e:de:26:d4:79:
         98:1f:98:f2:59:fe:9a:fc:80:15:6c:de:61:de:03:72:45:24:
         0b:64:b6:1d:e8:1c:fc:6a:af:87:b4:1c:19:93:9a:ad:7d:b0:
         72:c9:50:b4:c5:75:2c:89:26:c1:43:bd:a6:e6:16:35:cb:b4:
         73:8a:a4:88:aa:29:5d:ef:5b:2d:bd:a6:34:38:13:8a:c4:6a:
         42:5b:e9:f0
-----BEGIN CERTIFICATE-----
MIIE2jCCA8KgAwIBAgIUQcYd5CWKuHm/9eM78ToC5+R2oncwDQYJKoZIhvcNAQEL
BQAwgZExCzAJBgNVBAYTAlVTMRAwDgYDVQQIDAdNb250YW5hMRAwDgYDVQQHDAdC
b3plbWFuMRUwEwYDVQQKDAx3b2xmU1NMXzIwNDgxDDAKBgNVBAsMA1VSSTEYMBYG
A1UEAwwPd3d3LndvbGZzc2wuY29tMR8wHQYJKoZIhvcNAQkBFhBpbmZvQHdvbGZz
c2wuY29tMB4XDTIyMDIxNTEyNTAyNFoXDTI0MTExMTEyNTAyNFowgZExCzAJBgNV
BAYTAlVTMRAwDgYDVQQIDAdNb250YW5hMRAwDgYDVQQHDAdCb3plbWFuMRUwEwYD
VQQKDAx3b2xmU1NMXzIwNDgxDDAKBgNVBAsMA1VSSTEYMBYGA1UEAwwPd3d3Lndv
bGZzc2wuY29tMR8wHQYJKoZIhvcNAQkBFhBpbmZvQHdvbGZzc2wuY29tMIIBIjAN
BgkqhkiG9w0BAQEFAAOCAQ8AMIIBCgKCAQEAwwPRK/45pDJFO1PIhCsqfHSavaoq
UgdH1qY2sgcyjtC6aXvGw0Se1IFI/S1oootnu6F1yDYsStIb94u6zw357+zxgR57
mwNHmr9lzH9lJGmm6BSJW+Q098WwFJP1Z3s6enjhAVZWkaYTQo3SPECcTO/Rht83
URsMoTv18aNKNeThzpbfG36/TpfQEOioCDCBryALQxTFdGe0MoJvjYbCiECZNoO6
HkByIhfXUmUkc7DO7xnNrv94bHvAEgPUTnINUG07ozujmV6dyNkMhbPZitlUJttt
+qy7/yVMxNF59HHThkAYE7BjtXJOMMSXhIYtVi/XFfd/wK71/Fvl+6G60wIDAQAB
o4IBJjCCASIwHQYDVR0OBBYEFDPYRWbXaIcYflQNcCeRxybXhWXAMIHRBgNVHSME
gckwgcaAFDPYRWbXaIcYflQNcCeRxybXhWXAoYGXpIGUMIGRMQswCQYDVQQGEwJV
UzEQMA4GA1UECAwHTW9udGFuYTEQMA4GA1UEBwwHQm96ZW1hbjEVMBMGA1UECgwM
d29sZlNTTF8yMDQ4MQwwCgYDVQQLDANVUkkxGDAWBgNVBAMMD3d3dy53b2xmc3Ns
LmNvbTEfMB0GCSqGSIb3DQEJARYQaW5mb0B3b2xmc3NsLmNvbYIUQcYd5CWKuHm/
9eM78ToC5+R2oncwCQYDVR0TBAIwADAiBgNVHREEGzAZhhdodHRwczovL3d3dy53
b2xmc3NsLmNvbTANBgkqhkiG9w0BAQsFAAOCAQEAHnKbdBJDr/gS90D18b3/FEX3
FgoKKd723juCZ0OBfGZ/e8BRT7uba0b/ApSleCzCdRZwtRiskMkZPm6zEcOnDxiD
LmiBnJ9zEyCteaJk+vE3dyIiyubUpHWtlO/E8LdAIuPobeIp8hcQmRARb4dV9sfj
/mGymASQ3FoSWHK2Pz8n1TInw98ifDfgRoTxh4oFFa+CKaQ2ufk13Q2NAGIk0dGy
ZsBuoDmFlEBiOE2QNj7eJtR5mB+Y8ln+mvyAFWzeYd4DckUkC2S2Hegc/Gqvh7Qc
GZOarX2wcslQtMV1LIkmwUO9puYWNcu0c4qkiKopXe9bLb2mNDgTisRqQlvp8A==
-----END CERTIFICATE-----
