Certificate:
    Data:
        Version: 3 (0x2)
        Serial Number:
            5a:7c:49:24:74:7e:a1:99:49:53:16:17:1f:1b:15:4e:70:4f:d9:8f
        Signature Algorithm: sha256WithRSAEncryption
        Issuer: C=US, ST=Montana, L=Bozeman, O=wolfSSL_2048, OU=ABSOLUTE_URN, CN=www.wolfssl.com, emailAddress=facts@wolfssl.com
        Validity
            Not Before: Jun 11 21:44:27 2026 GMT
            Not After : Mar  7 21:44:27 2029 GMT
        Subject: C=US, ST=Montana, L=Bozeman, O=wolfSSL_2048, OU=ABSOLUTE_URN, CN=www.wolfssl.com, emailAddress=facts@wolfssl.com
        Subject Public Key Info:
            Public Key Algorithm: rsaEncryption
                Public-Key: (2048 bit)
                Modulus:
                    00:c3:03:d1:2b:fe:39:a4:32:45:3b:53:c8:84:2b:
                    2a:7c:74:9a:bd:aa:2a:52:07:47:d6:a6:36:b2:07:
                    32:8e:d0:ba:69:7b:c6:c3:44:9e:d4:81:48:fd:2d:
                    68:a2:8b:67:bb:a1:75:c8:36:2c:4a:d2:1b:f7:8b:
                    ba:cf:0d:f9:ef:ec:f1:81:1e:7b:9b:03:47:9a:bf:
                    65:cc:7f:65:24:69:a6:e8:14:89:5b:e4:34:f7:c5:
                    b0:14:93:f5:67:7b:3a:7a:78:e1:01:56:56:91:a6:
                    13:42:8d:d2:3c:40:9c:4c:ef:d1:86:df:37:51:1b:
                    0c:a1:3b:f5:f1:a3:4a:35:e4:e1:ce:96:df:1b:7e:
                    bf:4e:97:d0:10:e8:a8:08:30:81:af:20:0b:43:14:
                    c5:74:67:b4:32:82:6f:8d:86:c2:88:40:99:36:83:
                    ba:1e:40:72:22:17:d7:52:65:24:73:b0:ce:ef:19:
                    cd:ae:ff:78:6c:7b:c0:12:03:d4:4e:72:0d:50:6d:
                    3b:a3:3b:a3:99:5e:9d:c8:d9:0c:85:b3:d9:8a:d9:
                    54:26:db:6d:fa:ac:bb:ff:25:4c:c4:d1:79:f4:71:
                    d3:86:40:18:13:b0:63:b5:72:4e:30:c4:97:84:86:
                    2d:56:2f:d7:15:f7:7f:c0:ae:f5:fc:5b:e5:fb:a1:
                    ba:d3
                Exponent: 65537 (0x10001)
        X509v3 extensions:
            X509v3 Subject Key Identifier: 
                33:D8:45:66:D7:68:87:18:7E:54:0D:70:27:91:C7:26:D7:85:65:C0
            X509v3 Authority Key Identifier: 
                keyid:33:D8:45:66:D7:68:87:18:7E:54:0D:70:27:91:C7:26:D7:85:65:C0
                DirName:/C=US/ST=Montana/L=Bozeman/O=wolfSSL_2048/OU=ABSOLUTE_URN/CN=www.wolfssl.com/emailAddress=facts@wolfssl.com
                serial:5A:7C:49:24:74:7E:A1:99:49:53:16:17:1F:1B:15:4E:70:4F:D9:8F
            X509v3 Basic Constraints: 
                CA:FALSE
            X509v3 Subject Alternative Name: 
                URI:urn:example:test
    Signature Algorithm: sha256WithRSAEncryption
    Signature Value:
        4f:ab:76:f9:df:a0:7c:63:7a:7f:8e:44:a7:f2:3e:ec:5a:9c:
        44:45:6c:86:73:9a:a7:bb:24:8e:cf:0d:79:51:ca:b3:e3:d1:
        b5:71:11:dc:c0:4e:11:e7:c2:b4:54:99:8c:1f:b1:25:99:1c:
        94:90:2e:9a:36:32:92:52:f8:d5:e1:d0:7b:4f:1c:77:80:5a:
        97:17:16:b3:c2:80:19:f3:08:7b:2a:e7:e1:5f:db:a0:ba:e7:
        0b:5c:eb:4a:30:4f:90:bb:88:57:fa:19:91:87:20:6b:3b:43:
        2a:9f:96:35:b0:62:58:b4:91:6e:87:9d:d1:5c:38:88:69:ec:
        aa:9a:53:29:8a:99:cc:e1:b9:73:3a:45:59:6b:de:cb:f3:fa:
        b6:1d:c2:84:d6:70:98:81:fe:7d:11:3d:ef:2e:36:d6:6a:96:
        36:f1:9c:6d:0e:7c:4e:95:8b:a5:eb:77:47:40:2b:41:75:87:
        e0:12:0d:a1:dd:4a:05:47:24:f0:5e:28:e1:c7:77:56:6a:41:
        ed:94:db:60:fb:4b:30:27:47:6b:98:f9:d7:02:28:20:fa:f1:
        41:21:65:7b:b4:3b:9e:9f:10:0f:21:73:0e:b7:6c:2d:df:e6:
        36:bd:81:97:ce:a9:dc:f6:af:b5:19:f4:10:5d:8d:0e:63:b0:
        b8:1b:d0:3f
-----BEGIN CERTIFICATE-----
MIIE8TCCA9mgAwIBAgIUWnxJJHR+oZlJUxYXHxsVTnBP2Y8wDQYJKoZIhvcNAQEL
BQAwgZsxCzAJBgNVBAYTAlVTMRAwDgYDVQQIDAdNb250YW5hMRAwDgYDVQQHDAdC
b3plbWFuMRUwEwYDVQQKDAx3b2xmU1NMXzIwNDgxFTATBgNVBAsMDEFCU09MVVRF
X1VSTjEYMBYGA1UEAwwPd3d3LndvbGZzc2wuY29tMSAwHgYJKoZIhvcNAQkBFhFm
YWN0c0B3b2xmc3NsLmNvbTAeFw0yNjA2MTEyMTQ0MjdaFw0yOTAzMDcyMTQ0Mjda
MIGbMQswCQYDVQQGEwJVUzEQMA4GA1UECAwHTW9udGFuYTEQMA4GA1UEBwwHQm96
ZW1hbjEVMBMGA1UECgwMd29sZlNTTF8yMDQ4MRUwEwYDVQQLDAxBQlNPTFVURV9V
Uk4xGDAWBgNVBAMMD3d3dy53b2xmc3NsLmNvbTEgMB4GCSqGSIb3DQEJARYRZmFj
dHNAd29sZnNzbC5jb20wggEiMA0GCSqGSIb3DQEBAQUAA4IBDwAwggEKAoIBAQDD
A9Er/jmkMkU7U8iEKyp8dJq9qipSB0fWpjayBzKO0Lppe8bDRJ7UgUj9LWiii2e7
oXXINixK0hv3i7rPDfnv7PGBHnubA0eav2XMf2UkaaboFIlb5DT3xbAUk/Vnezp6
eOEBVlaRphNCjdI8QJxM79GG3zdRGwyhO/Xxo0o15OHOlt8bfr9Ol9AQ6KgIMIGv
IAtDFMV0Z7Qygm+NhsKIQJk2g7oeQHIiF9dSZSRzsM7vGc2u/3hse8ASA9ROcg1Q
bTujO6OZXp3I2QyFs9mK2VQm2236rLv/JUzE0Xn0cdOGQBgTsGO1ck4wxJeEhi1W
L9cV93/ArvX8W+X7obrTAgMBAAGjggEpMIIBJTAdBgNVHQ4EFgQUM9hFZtdohxh+
VA1wJ5HHJteFZcAwgdsGA1UdIwSB0zCB0IAUM9hFZtdohxh+VA1wJ5HHJteFZcCh
gaGkgZ4wgZsxCzAJBgNVBAYTAlVTMRAwDgYDVQQIDAdNb250YW5hMRAwDgYDVQQH
DAdCb3plbWFuMRUwEwYDVQQKDAx3b2xmU1NMXzIwNDgxFTATBgNVBAsMDEFCU09M
VVRFX1VSTjEYMBYGA1UEAwwPd3d3LndvbGZzc2wuY29tMSAwHgYJKoZIhvcNAQkB
FhFmYWN0c0B3b2xmc3NsLmNvbYIUWnxJJHR+oZlJUxYXHxsVTnBP2Y8wCQYDVR0T
BAIwADAbBgNVHREEFDAShhB1cm46ZXhhbXBsZTp0ZXN0MA0GCSqGSIb3DQEBCwUA
A4IBAQBPq3b536B8Y3p/jkSn8j7sWpxERWyGc5qnuySOzw15Ucqz49G1cRHcwE4R
58K0VJmMH7ElmRyUkC6aNjKSUvjV4dB7Txx3gFqXFxazwoAZ8wh7KufhX9uguucL
XOtKME+Qu4hX+hmRhyBrO0Mqn5Y1sGJYtJFuh53RXDiIaeyqmlMpipnM4blzOkVZ
a97L8/q2HcKE1nCYgf59ET3vLjbWapY28ZxtDnxOlYul63dHQCtBdYfgEg2h3UoF
RyTwXijhx3dWakHtlNtg+0swJ0drmPnXAigg+vFBIWV7tDuenxAPIXMOt2wt3+Y2
vYGXzqnc9q+1GfQQXY0OY7C4G9A/
-----END CERTIFICATE-----
