Certificate:
    Data:
        Version: 3 (0x2)
        Serial Number:
            1b:aa:70:3c:26:6d:64:c7:da:2b:f7:2c:90:f0:38:e7:11:7c:15:a7
        Signature Algorithm: sha256WithRSAEncryption
        Issuer: C = US, ST = Montana, L = Bozeman, O = wolfSSL_2048, OU = RELATIVE_URI, CN = www.wolfssl.com, emailAddress = info@wolfssl.com
        Validity
            Not Before: Dec 18 21:25:29 2024 GMT
            Not After : Sep 14 21:25:29 2027 GMT
        Subject: C = US, ST = Montana, L = Bozeman, O = wolfSSL_2048, OU = RELATIVE_URI, CN = www.wolfssl.com, emailAddress = info@wolfssl.com
        Subject Public Key Info:
            Public Key Algorithm: rsaEncryption
                Public-Key: (2048 bit)
                Modulus:
                    00:c3:03:d1:2b:fe:39:a4:32:45:3b:53:c8:84:2b:
                    2a:7c:74:9a:bd:aa:2a:52:07:47:d6:a6:36:b2:07:
                    32:8e:d0:ba:69:7b:c6:c3:44:9e:d4:81:48:fd:2d:
                    68:a2:8b:67:bb:a1:75:c8:36:2c:4a:d2:1b:f7:8b:
                    ba:cf:0d:f9:ef:ec:f1:81:1e:7b:9b:03:47:9a:bf:
                    65:cc:7f:65:24:69:a6:e8:14:89:5b:e4:34:f7:c5:
                    b0:14:93:f5:67:7b:3a:7a:78:e1:01:56:56:91:a6:
                    13:42:8d:d2:3c:40:9c:4c:ef:d1:86:df:37:51:1b:
                    0c:a1:3b:f5:f1:a3:4a:35:e4:e1:ce:96:df:1b:7e:
                    bf:4e:97:d0:10:e8:a8:08:30:81:af:20:0b:43:14:
                    c5:74:67:b4:32:82:6f:8d:86:c2:88:40:99:36:83:
                    ba:1e:40:72:22:17:d7:52:65:24:73:b0:ce:ef:19:
                    cd:ae:ff:78:6c:7b:c0:12:03:d4:4e:72:0d:50:6d:
                    3b:a3:3b:a3:99:5e:9d:c8:d9:0c:85:b3:d9:8a:d9:
                    54:26:db:6d:fa:ac:bb:ff:25:4c:c4:d1:79:f4:71:
                    d3:86:40:18:13:b0:63:b5:72:4e:30:c4:97:84:86:
                    2d:56:2f:d7:15:f7:7f:c0:ae:f5:fc:5b:e5:fb:a1:
                    ba:d3
                Exponent: 65537 (0x10001)
        X509v3 extensions:
            X509v3 Subject Key Identifier: 
                33:D8:45:66:D7:68:87:18:7E:54:0D:70:27:91:C7:26:D7:85:65:C0
            X509v3 Authority Key Identifier: 
                keyid:33:D8:45:66:D7:68:87:18:7E:54:0D:70:27:91:C7:26:D7:85:65:C0
                DirName:/C=US/ST=Montana/L=Bozeman/O=wolfSSL_2048/OU=RELATIVE_URI/CN=www.wolfssl.com/emailAddress=info@wolfssl.com
                serial:1B:AA:70:3C:26:6D:64:C7:DA:2B:F7:2C:90:F0:38:E7:11:7C:15:A7
            X509v3 Basic Constraints: 
                CA:FALSE
            X509v3 Subject Alternative Name: 
                URI:../relative/page.html
    Signature Algorithm: sha256WithRSAEncryption
    Signature Value:
        03:7e:2f:52:a6:93:a3:75:d4:e3:af:a9:c4:0a:44:11:23:8c:
        d6:3f:74:d3:f7:ab:d2:cf:b8:2c:56:38:ed:61:a5:8e:88:f1:
        5c:fc:51:30:9a:32:4d:41:c7:09:8f:96:ae:89:76:df:f5:4f:
        a3:a3:a9:46:a5:39:ed:79:fc:4e:ed:44:22:c2:13:b7:8c:d1:
        63:ad:7d:c9:be:3a:38:0e:0c:5b:75:0a:b0:60:f9:f7:3c:35:
        81:67:d6:1a:13:32:00:60:96:b9:35:b4:f6:84:01:dc:c6:46:
        81:b1:bd:de:a9:dc:6d:ff:6b:ef:d1:77:13:f2:05:26:80:12:
        fa:a0:82:25:4c:ae:4f:48:b1:15:46:08:79:9f:60:24:7c:40:
        e5:65:96:f7:1e:69:90:de:1a:ad:53:7a:a6:d1:97:e5:7d:89:
        e3:33:7c:0f:6d:37:82:04:05:5f:e2:46:e8:62:da:03:67:93:
        28:ff:fd:80:2b:7f:42:e4:ce:7f:90:bd:c9:2e:74:4d:d8:75:
        99:23:07:5c:15:d7:07:65:56:a3:ee:13:29:3c:a2:55:e0:9e:
        0e:3b:b1:e3:78:c3:0f:ff:8e:bc:d9:db:87:e6:f8:ad:41:f8:
        db:a8:4f:12:ed:ac:64:12:45:c6:95:50:ee:48:6c:28:1c:65:
        de:18:04:69
-----BEGIN CERTIFICATE-----
MIIE8zCCA9ugAwIBAgIUG6pwPCZtZMfaK/cskPA45xF8FacwDQYJKoZIhvcNAQEL
BQAwgZoxCzAJBgNVBAYTAlVTMRAwDgYDVQQIDAdNb250YW5hMRAwDgYDVQQHDAdC
b3plbWFuMRUwEwYDVQQKDAx3b2xmU1NMXzIwNDgxFTATBgNVBAsMDFJFTEFUSVZF
X1VSSTEYMBYGA1UEAwwPd3d3LndvbGZzc2wuY29tMR8wHQYJKoZIhvcNAQkBFhBp
bmZvQHdvbGZzc2wuY29tMB4XDTI0MTIxODIxMjUyOVoXDTI3MDkxNDIxMjUyOVow
gZoxCzAJBgNVBAYTAlVTMRAwDgYDVQQIDAdNb250YW5hMRAwDgYDVQQHDAdCb3pl
bWFuMRUwEwYDVQQKDAx3b2xmU1NMXzIwNDgxFTATBgNVBAsMDFJFTEFUSVZFX1VS
STEYMBYGA1UEAwwPd3d3LndvbGZzc2wuY29tMR8wHQYJKoZIhvcNAQkBFhBpbmZv
QHdvbGZzc2wuY29tMIIBIjANBgkqhkiG9w0BAQEFAAOCAQ8AMIIBCgKCAQEAwwPR
K/45pDJFO1PIhCsqfHSavaoqUgdH1qY2sgcyjtC6aXvGw0Se1IFI/S1oootnu6F1
yDYsStIb94u6zw357+zxgR57mwNHmr9lzH9lJGmm6BSJW+Q098WwFJP1Z3s6enjh
AVZWkaYTQo3SPECcTO/Rht83URsMoTv18aNKNeThzpbfG36/TpfQEOioCDCBryAL
QxTFdGe0MoJvjYbCiECZNoO6HkByIhfXUmUkc7DO7xnNrv94bHvAEgPUTnINUG07
ozujmV6dyNkMhbPZitlUJttt+qy7/yVMxNF59HHThkAYE7BjtXJOMMSXhIYtVi/X
Ffd/wK71/Fvl+6G60wIDAQABo4IBLTCCASkwHQYDVR0OBBYEFDPYRWbXaIcYflQN
cCeRxybXhWXAMIHaBgNVHSMEgdIwgc+AFDPYRWbXaIcYflQNcCeRxybXhWXAoYGg
pIGdMIGaMQswCQYDVQQGEwJVUzEQMA4GA1UECAwHTW9udGFuYTEQMA4GA1UEBwwH
Qm96ZW1hbjEVMBMGA1UECgwMd29sZlNTTF8yMDQ4MRUwEwYDVQQLDAxSRUxBVElW
RV9VUkkxGDAWBgNVBAMMD3d3dy53b2xmc3NsLmNvbTEfMB0GCSqGSIb3DQEJARYQ
aW5mb0B3b2xmc3NsLmNvbYIUG6pwPCZtZMfaK/cskPA45xF8FacwCQYDVR0TBAIw
ADAgBgNVHREEGTAXhhUuLi9yZWxhdGl2ZS9wYWdlLmh0bWwwDQYJKoZIhvcNAQEL
BQADggEBAAN+L1Kmk6N11OOvqcQKRBEjjNY/dNP3q9LPuCxWOO1hpY6I8Vz8UTCa
Mk1BxwmPlq6Jdt/1T6OjqUalOe15/E7tRCLCE7eM0WOtfcm+OjgODFt1CrBg+fc8
NYFn1hoTMgBglrk1tPaEAdzGRoGxvd6p3G3/a+/RdxPyBSaAEvqggiVMrk9IsRVG
CHmfYCR8QOVllvceaZDeGq1TeqbRl+V9ieMzfA9tN4IEBV/iRuhi2gNnkyj//YAr
f0Lkzn+QvckudE3YdZkjB1wV1wdlVqPuEyk8olXgng47seN4ww//jrzZ24fm+K1B
+NuoTxLtrGQSRcaVUO5IbCgcZd4YBGk=
-----END CERTIFICATE-----
