Certificate:
    Data:
        Version: 3 (0x2)
        Serial Number:
            4b:fb:e6:7a:af:6c:19:2e:6a:b9:4c:cc:af:a9:1e:8e:7c:de:ea:09
        Signature Algorithm: sha256WithRSAEncryption
        Issuer: C = US, ST = Montana, L = Bozeman, O = wolfSSL_2048, OU = CRL_DIST, CN = www.wolfssl.com, emailAddress = info@wolfssl.com
        Validity
            Not Before: Dec 13 22:19:28 2023 GMT
            Not After : Sep  8 22:19:28 2026 GMT
        Subject: C = US, ST = Montana, L = Bozeman, O = wolfSSL_2048, OU = CRL_DIST, CN = www.wolfssl.com, emailAddress = info@wolfssl.com
        Subject Public Key Info:
            Public Key Algorithm: rsaEncryption
                RSA Public-Key: (2048 bit)
                Modulus:
                    00:c3:03:d1:2b:fe:39:a4:32:45:3b:53:c8:84:2b:
                    2a:7c:74:9a:bd:aa:2a:52:07:47:d6:a6:36:b2:07:
                    32:8e:d0:ba:69:7b:c6:c3:44:9e:d4:81:48:fd:2d:
                    68:a2:8b:67:bb:a1:75:c8:36:2c:4a:d2:1b:f7:8b:
                    ba:cf:0d:f9:ef:ec:f1:81:1e:7b:9b:03:47:9a:bf:
                    65:cc:7f:65:24:69:a6:e8:14:89:5b:e4:34:f7:c5:
                    b0:14:93:f5:67:7b:3a:7a:78:e1:01:56:56:91:a6:
                    13:42:8d:d2:3c:40:9c:4c:ef:d1:86:df:37:51:1b:
                    0c:a1:3b:f5:f1:a3:4a:35:e4:e1:ce:96:df:1b:7e:
                    bf:4e:97:d0:10:e8:a8:08:30:81:af:20:0b:43:14:
                    c5:74:67:b4:32:82:6f:8d:86:c2:88:40:99:36:83:
                    ba:1e:40:72:22:17:d7:52:65:24:73:b0:ce:ef:19:
                    cd:ae:ff:78:6c:7b:c0:12:03:d4:4e:72:0d:50:6d:
                    3b:a3:3b:a3:99:5e:9d:c8:d9:0c:85:b3:d9:8a:d9:
                    54:26:db:6d:fa:ac:bb:ff:25:4c:c4:d1:79:f4:71:
                    d3:86:40:18:13:b0:63:b5:72:4e:30:c4:97:84:86:
                    2d:56:2f:d7:15:f7:7f:c0:ae:f5:fc:5b:e5:fb:a1:
                    ba:d3
                Exponent: 65537 (0x10001)
        X509v3 extensions:
            X509v3 CRL Distribution Points: 

                Full Name:
                  URI:http://www.wolfssl.com/crl.pem

    Signature Algorithm: sha256WithRSAEncryption
         2d:cc:22:e7:1f:88:8f:59:86:50:9d:98:17:64:1b:7f:20:5d:
         5d:41:11:c1:b4:17:1f:93:64:b6:55:ae:a2:48:b9:60:ff:6f:
         e4:1e:5f:70:31:50:95:b5:b0:85:9b:48:13:e7:ea:18:1a:04:
         33:cd:bc:ae:32:83:eb:e6:78:77:73:25:a2:eb:c2:fc:6f:09:
         0e:5e:85:9d:93:98:9d:19:b9:48:3c:8c:29:c6:83:b2:8c:3c:
         dd:47:8b:89:f1:da:ab:0e:73:64:43:61:45:74:bf:b7:8c:72:
         79:b5:6e:29:7b:5d:df:36:9f:92:57:eb:23:ba:96:93:ba:e6:
         53:75:ec:77:0f:9b:7d:fa:9f:2a:37:6d:fd:ce:9e:59:31:bb:
         19:b0:72:ce:e8:34:9e:73:ae:4a:d3:47:36:b7:1c:52:a7:4a:
         f0:86:fe:4c:51:6e:f4:d1:51:f3:5c:6f:83:c7:d1:15:07:d8:
         c3:47:2a:80:23:fd:65:eb:38:14:5c:32:77:ff:3c:35:02:d4:
         95:99:31:40:43:42:5b:b1:8b:30:f2:dc:6a:fe:81:08:d1:c8:
         8e:58:9a:e5:42:91:eb:8b:4a:ae:cd:85:c6:62:f5:05:ff:5a:
         6c:d3:27:47:32:94:60:16:96:94:25:be:82:08:fd:0c:ae:71:
         5c:cd:aa:18
-----BEGIN CERTIFICATE-----
MIID7zCCAtegAwIBAgIUS/vmeq9sGS5quUzMr6kejnze6gkwDQYJKoZIhvcNAQEL
BQAwgZYxCzAJBgNVBAYTAlVTMRAwDgYDVQQIDAdNb250YW5hMRAwDgYDVQQHDAdC
b3plbWFuMRUwEwYDVQQKDAx3b2xmU1NMXzIwNDgxETAPBgNVBAsMCENSTF9ESVNU
MRgwFgYDVQQDDA93d3cud29sZnNzbC5jb20xHzAdBgkqhkiG9w0BCQEWEGluZm9A
d29sZnNzbC5jb20wHhcNMjMxMjEzMjIxOTI4WhcNMjYwOTA4MjIxOTI4WjCBljEL
MAkGA1UEBhMCVVMxEDAOBgNVBAgMB01vbnRhbmExEDAOBgNVBAcMB0JvemVtYW4x
FTATBgNVBAoMDHdvbGZTU0xfMjA0ODERMA8GA1UECwwIQ1JMX0RJU1QxGDAWBgNV
BAMMD3d3dy53b2xmc3NsLmNvbTEfMB0GCSqGSIb3DQEJARYQaW5mb0B3b2xmc3Ns
LmNvbTCCASIwDQYJKoZIhvcNAQEBBQADggEPADCCAQoCggEBAMMD0Sv+OaQyRTtT
yIQrKnx0mr2qKlIHR9amNrIHMo7Quml7xsNEntSBSP0taKKLZ7uhdcg2LErSG/eL
us8N+e/s8YEee5sDR5q/Zcx/ZSRppugUiVvkNPfFsBST9Wd7Onp44QFWVpGmE0KN
0jxAnEzv0YbfN1EbDKE79fGjSjXk4c6W3xt+v06X0BDoqAgwga8gC0MUxXRntDKC
b42GwohAmTaDuh5AciIX11JlJHOwzu8Zza7/eGx7wBID1E5yDVBtO6M7o5lencjZ
DIWz2YrZVCbbbfqsu/8lTMTRefRx04ZAGBOwY7VyTjDEl4SGLVYv1xX3f8Cu9fxb
5fuhutMCAwEAAaMzMDEwLwYDVR0fBCgwJjAkoCKgIIYeaHR0cDovL3d3dy53b2xm
c3NsLmNvbS9jcmwucGVtMA0GCSqGSIb3DQEBCwUAA4IBAQAtzCLnH4iPWYZQnZgX
ZBt/IF1dQRHBtBcfk2S2Va6iSLlg/2/kHl9wMVCVtbCFm0gT5+oYGgQzzbyuMoPr
5nh3cyWi68L8bwkOXoWdk5idGblIPIwpxoOyjDzdR4uJ8dqrDnNkQ2FFdL+3jHJ5
tW4pe13fNp+SV+sjupaTuuZTdex3D5t9+p8qN239zp5ZMbsZsHLO6DSec65K00c2
txxSp0rwhv5MUW700VHzXG+Dx9EVB9jDRyqAI/1l6zgUXDJ3/zw1AtSVmTFAQ0Jb
sYsw8txq/oEI0ciOWJrlQpHri0quzYXGYvUF/1ps0ydHMpRgFpaUJb6CCP0MrnFc
zaoY
-----END CERTIFICATE-----
