Certificate:
    Data:
        Version: 3 (0x2)
        Serial Number:
            60:ee:3f:b5:d7:49:3d:a8:9b:a7:c6:c9:4d:fd:d4:aa:3f:d4:b1:b1
        Signature Algorithm: sha256WithRSAEncryption
        Issuer: C = US, ST = Montana, L = Bozeman, O = wolfSSL_2048, OU = CRL_DIST, CN = www.wolfssl.com, emailAddress = info@wolfssl.com
        Validity
            Not Before: Dec 20 23:07:24 2021 GMT
            Not After : Sep 15 23:07:24 2024 GMT
        Subject: C = US, ST = Montana, L = Bozeman, O = wolfSSL_2048, OU = CRL_DIST, CN = www.wolfssl.com, emailAddress = info@wolfssl.com
        Subject Public Key Info:
            Public Key Algorithm: rsaEncryption
                RSA Public-Key: (2048 bit)
                Modulus:
                    00:c3:03:d1:2b:fe:39:a4:32:45:3b:53:c8:84:2b:
                    2a:7c:74:9a:bd:aa:2a:52:07:47:d6:a6:36:b2:07:
                    32:8e:d0:ba:69:7b:c6:c3:44:9e:d4:81:48:fd:2d:
                    68:a2:8b:67:bb:a1:75:c8:36:2c:4a:d2:1b:f7:8b:
                    ba:cf:0d:f9:ef:ec:f1:81:1e:7b:9b:03:47:9a:bf:
                    65:cc:7f:65:24:69:a6:e8:14:89:5b:e4:34:f7:c5:
                    b0:14:93:f5:67:7b:3a:7a:78:e1:01:56:56:91:a6:
                    13:42:8d:d2:3c:40:9c:4c:ef:d1:86:df:37:51:1b:
                    0c:a1:3b:f5:f1:a3:4a:35:e4:e1:ce:96:df:1b:7e:
                    bf:4e:97:d0:10:e8:a8:08:30:81:af:20:0b:43:14:
                    c5:74:67:b4:32:82:6f:8d:86:c2:88:40:99:36:83:
                    ba:1e:40:72:22:17:d7:52:65:24:73:b0:ce:ef:19:
                    cd:ae:ff:78:6c:7b:c0:12:03:d4:4e:72:0d:50:6d:
                    3b:a3:3b:a3:99:5e:9d:c8:d9:0c:85:b3:d9:8a:d9:
                    54:26:db:6d:fa:ac:bb:ff:25:4c:c4:d1:79:f4:71:
                    d3:86:40:18:13:b0:63:b5:72:4e:30:c4:97:84:86:
                    2d:56:2f:d7:15:f7:7f:c0:ae:f5:fc:5b:e5:fb:a1:
                    ba:d3
                Exponent: 65537 (0x10001)
        X509v3 extensions:
            X509v3 CRL Distribution Points: 

                Full Name:
                  URI:http://www.wolfssl.com/crl.pem

    Signature Algorithm: sha256WithRSAEncryption
         36:98:93:7f:51:bf:cb:d3:ed:2f:91:89:5e:0f:4c:a0:64:3e:
         6a:ea:26:df:79:4b:a0:b0:89:a4:fe:87:e0:c0:84:da:cf:62:
         53:46:60:f1:ef:44:8e:a5:67:c9:d8:98:c5:6d:de:be:5e:2a:
         04:73:d0:28:e6:26:8b:5a:28:e5:9d:c2:93:09:76:ae:5e:29:
         56:7e:82:9d:64:72:fc:c7:c7:58:59:40:e8:64:ad:ab:f7:58:
         88:e4:4b:72:54:30:4b:d5:08:48:9a:93:4d:c2:74:89:83:63:
         c5:be:16:21:a3:9f:19:77:74:8f:77:46:77:67:a4:39:06:2a:
         c6:a8:78:96:e3:98:f6:6d:74:81:30:8b:ec:a1:b7:5a:63:69:
         1d:3b:13:31:b8:1b:8d:b2:6d:43:a5:cf:55:9c:ea:89:72:0d:
         f5:ad:cb:e7:35:a3:f5:fc:8a:65:a6:2d:7f:f8:19:5a:7c:27:
         a1:18:d0:2a:e5:6a:ad:5e:fb:08:cc:72:fd:af:1b:f4:9d:2e:
         1e:29:80:4e:eb:9d:85:59:2a:d9:b9:2b:a1:de:63:56:a5:e0:
         17:ae:af:da:18:f9:e6:83:55:f3:62:09:ff:fc:2e:1b:49:13:
         69:1a:bd:27:81:a5:d0:6c:54:21:52:1b:55:b2:3e:14:b5:6f:
         6a:ab:68:52
-----BEGIN CERTIFICATE-----
MIID7zCCAtegAwIBAgIUYO4/tddJPaibp8bJTf3Uqj/UsbEwDQYJKoZIhvcNAQEL
BQAwgZYxCzAJBgNVBAYTAlVTMRAwDgYDVQQIDAdNb250YW5hMRAwDgYDVQQHDAdC
b3plbWFuMRUwEwYDVQQKDAx3b2xmU1NMXzIwNDgxETAPBgNVBAsMCENSTF9ESVNU
MRgwFgYDVQQDDA93d3cud29sZnNzbC5jb20xHzAdBgkqhkiG9w0BCQEWEGluZm9A
d29sZnNzbC5jb20wHhcNMjExMjIwMjMwNzI0WhcNMjQwOTE1MjMwNzI0WjCBljEL
MAkGA1UEBhMCVVMxEDAOBgNVBAgMB01vbnRhbmExEDAOBgNVBAcMB0JvemVtYW4x
FTATBgNVBAoMDHdvbGZTU0xfMjA0ODERMA8GA1UECwwIQ1JMX0RJU1QxGDAWBgNV
BAMMD3d3dy53b2xmc3NsLmNvbTEfMB0GCSqGSIb3DQEJARYQaW5mb0B3b2xmc3Ns
LmNvbTCCASIwDQYJKoZIhvcNAQEBBQADggEPADCCAQoCggEBAMMD0Sv+OaQyRTtT
yIQrKnx0mr2qKlIHR9amNrIHMo7Quml7xsNEntSBSP0taKKLZ7uhdcg2LErSG/eL
us8N+e/s8YEee5sDR5q/Zcx/ZSRppugUiVvkNPfFsBST9Wd7Onp44QFWVpGmE0KN
0jxAnEzv0YbfN1EbDKE79fGjSjXk4c6W3xt+v06X0BDoqAgwga8gC0MUxXRntDKC
b42GwohAmTaDuh5AciIX11JlJHOwzu8Zza7/eGx7wBID1E5yDVBtO6M7o5lencjZ
DIWz2YrZVCbbbfqsu/8lTMTRefRx04ZAGBOwY7VyTjDEl4SGLVYv1xX3f8Cu9fxb
5fuhutMCAwEAAaMzMDEwLwYDVR0fBCgwJjAkoCKgIIYeaHR0cDovL3d3dy53b2xm
c3NsLmNvbS9jcmwucGVtMA0GCSqGSIb3DQEBCwUAA4IBAQA2mJN/Ub/L0+0vkYle
D0ygZD5q6ibfeUugsImk/ofgwITaz2JTRmDx70SOpWfJ2JjFbd6+XioEc9Ao5iaL
WijlncKTCXauXilWfoKdZHL8x8dYWUDoZK2r91iI5EtyVDBL1QhImpNNwnSJg2PF
vhYho58Zd3SPd0Z3Z6Q5BirGqHiW45j2bXSBMIvsobdaY2kdOxMxuBuNsm1Dpc9V
nOqJcg31rcvnNaP1/Iplpi1/+BlafCehGNAq5WqtXvsIzHL9rxv0nS4eKYBO652F
WSrZuSuh3mNWpeAXrq/aGPnmg1XzYgn//C4bSRNpGr0ngaXQbFQhUhtVsj4UtW9q
q2hS
-----END CERTIFICATE-----
