Certificate:
    Data:
        Version: 3 (0x2)
        Serial Number:
            7f:64:06:76:ee:6f:ef:d3:b9:c7:d9:89:4a:04:ed:42:de:d1:58:26
        Signature Algorithm: sha256WithRSAEncryption
        Issuer: C = US, ST = Montana, L = Bozeman, O = wolfSSL_2048, OU = CRL_DIST, CN = www.wolfssl.com, emailAddress = info@wolfssl.com
        Validity
            Not Before: Dec 18 21:25:29 2024 GMT
            Not After : Sep 14 21:25:29 2027 GMT
        Subject: C = US, ST = Montana, L = Bozeman, O = wolfSSL_2048, OU = CRL_DIST, CN = www.wolfssl.com, emailAddress = info@wolfssl.com
        Subject Public Key Info:
            Public Key Algorithm: rsaEncryption
                Public-Key: (2048 bit)
                Modulus:
                    00:c3:03:d1:2b:fe:39:a4:32:45:3b:53:c8:84:2b:
                    2a:7c:74:9a:bd:aa:2a:52:07:47:d6:a6:36:b2:07:
                    32:8e:d0:ba:69:7b:c6:c3:44:9e:d4:81:48:fd:2d:
                    68:a2:8b:67:bb:a1:75:c8:36:2c:4a:d2:1b:f7:8b:
                    ba:cf:0d:f9:ef:ec:f1:81:1e:7b:9b:03:47:9a:bf:
                    65:cc:7f:65:24:69:a6:e8:14:89:5b:e4:34:f7:c5:
                    b0:14:93:f5:67:7b:3a:7a:78:e1:01:56:56:91:a6:
                    13:42:8d:d2:3c:40:9c:4c:ef:d1:86:df:37:51:1b:
                    0c:a1:3b:f5:f1:a3:4a:35:e4:e1:ce:96:df:1b:7e:
                    bf:4e:97:d0:10:e8:a8:08:30:81:af:20:0b:43:14:
                    c5:74:67:b4:32:82:6f:8d:86:c2:88:40:99:36:83:
                    ba:1e:40:72:22:17:d7:52:65:24:73:b0:ce:ef:19:
                    cd:ae:ff:78:6c:7b:c0:12:03:d4:4e:72:0d:50:6d:
                    3b:a3:3b:a3:99:5e:9d:c8:d9:0c:85:b3:d9:8a:d9:
                    54:26:db:6d:fa:ac:bb:ff:25:4c:c4:d1:79:f4:71:
                    d3:86:40:18:13:b0:63:b5:72:4e:30:c4:97:84:86:
                    2d:56:2f:d7:15:f7:7f:c0:ae:f5:fc:5b:e5:fb:a1:
                    ba:d3
                Exponent: 65537 (0x10001)
        X509v3 extensions:
            X509v3 CRL Distribution Points: 
                Full Name:
                  URI:http://www.wolfssl.com/crl.pem
            X509v3 Subject Key Identifier: 
                33:D8:45:66:D7:68:87:18:7E:54:0D:70:27:91:C7:26:D7:85:65:C0
    Signature Algorithm: sha256WithRSAEncryption
    Signature Value:
        65:5f:bb:09:c9:22:21:e3:38:99:5b:c7:ad:97:a3:32:17:53:
        fc:1c:ea:35:e1:74:95:e2:aa:2f:62:11:af:a5:a6:c9:92:ae:
        50:25:77:6d:4d:67:16:f8:4b:0d:ca:a7:dc:c7:c5:67:2b:5d:
        e2:f8:65:8d:e7:5b:48:40:8b:9e:d5:6e:1d:02:0e:95:19:76:
        29:e6:28:8f:a3:7a:00:98:fb:57:d5:7f:bf:34:09:46:9b:15:
        ae:52:30:04:bc:85:c8:4d:b3:da:79:65:d3:5e:64:fd:e0:ee:
        8c:ad:9e:a5:b5:12:d4:00:0f:b7:e3:de:27:59:18:92:5e:7c:
        09:45:90:50:35:4a:a4:c5:2b:be:3a:d9:2e:74:2c:2c:75:50:
        16:34:cc:fe:c4:b4:f8:d2:ad:cc:2d:70:09:33:61:40:ef:07:
        6f:a8:7b:d9:7a:9f:61:20:49:1b:ab:ef:32:65:32:5d:b9:77:
        cc:39:6f:c1:13:ff:d5:a4:77:c9:c7:03:a2:12:0c:eb:7e:bd:
        15:17:66:bc:f5:65:48:5e:6f:05:9e:a1:6a:42:05:fc:90:cb:
        4a:71:96:ce:a8:20:27:fc:d5:ae:83:1d:0b:c1:90:a4:f9:71:
        9c:f2:20:e4:cd:4e:62:40:74:81:a6:5c:8e:45:f3:8e:5b:64:
        46:e3:aa:e2
-----BEGIN CERTIFICATE-----
MIIEDjCCAvagAwIBAgIUf2QGdu5v79O5x9mJSgTtQt7RWCYwDQYJKoZIhvcNAQEL
BQAwgZYxCzAJBgNVBAYTAlVTMRAwDgYDVQQIDAdNb250YW5hMRAwDgYDVQQHDAdC
b3plbWFuMRUwEwYDVQQKDAx3b2xmU1NMXzIwNDgxETAPBgNVBAsMCENSTF9ESVNU
MRgwFgYDVQQDDA93d3cud29sZnNzbC5jb20xHzAdBgkqhkiG9w0BCQEWEGluZm9A
d29sZnNzbC5jb20wHhcNMjQxMjE4MjEyNTI5WhcNMjcwOTE0MjEyNTI5WjCBljEL
MAkGA1UEBhMCVVMxEDAOBgNVBAgMB01vbnRhbmExEDAOBgNVBAcMB0JvemVtYW4x
FTATBgNVBAoMDHdvbGZTU0xfMjA0ODERMA8GA1UECwwIQ1JMX0RJU1QxGDAWBgNV
BAMMD3d3dy53b2xmc3NsLmNvbTEfMB0GCSqGSIb3DQEJARYQaW5mb0B3b2xmc3Ns
LmNvbTCCASIwDQYJKoZIhvcNAQEBBQADggEPADCCAQoCggEBAMMD0Sv+OaQyRTtT
yIQrKnx0mr2qKlIHR9amNrIHMo7Quml7xsNEntSBSP0taKKLZ7uhdcg2LErSG/eL
us8N+e/s8YEee5sDR5q/Zcx/ZSRppugUiVvkNPfFsBST9Wd7Onp44QFWVpGmE0KN
0jxAnEzv0YbfN1EbDKE79fGjSjXk4c6W3xt+v06X0BDoqAgwga8gC0MUxXRntDKC
b42GwohAmTaDuh5AciIX11JlJHOwzu8Zza7/eGx7wBID1E5yDVBtO6M7o5lencjZ
DIWz2YrZVCbbbfqsu/8lTMTRefRx04ZAGBOwY7VyTjDEl4SGLVYv1xX3f8Cu9fxb
5fuhutMCAwEAAaNSMFAwLwYDVR0fBCgwJjAkoCKgIIYeaHR0cDovL3d3dy53b2xm
c3NsLmNvbS9jcmwucGVtMB0GA1UdDgQWBBQz2EVm12iHGH5UDXAnkccm14VlwDAN
BgkqhkiG9w0BAQsFAAOCAQEAZV+7CckiIeM4mVvHrZejMhdT/BzqNeF0leKqL2IR
r6WmyZKuUCV3bU1nFvhLDcqn3MfFZytd4vhljedbSECLntVuHQIOlRl2KeYoj6N6
AJj7V9V/vzQJRpsVrlIwBLyFyE2z2nll015k/eDujK2epbUS1AAPt+PeJ1kYkl58
CUWQUDVKpMUrvjrZLnQsLHVQFjTM/sS0+NKtzC1wCTNhQO8Hb6h72XqfYSBJG6vv
MmUyXbl3zDlvwRP/1aR3yccDohIM6369FRdmvPVlSF5vBZ6hakIF/JDLSnGWzqgg
J/zVroMdC8GQpPlxnPIg5M1OYkB0gaZcjkXzjltkRuOq4g==
-----END CERTIFICATE-----
