Certificate:
    Data:
        Version: 3 (0x2)
        Serial Number: 17391944375755183620 (0xf15c9943663d9604)
    Signature Algorithm: sha256WithRSAEncryption
        Issuer: C=US, ST=Montana, L=Bozeman, O=wolfSSL_2048, OU=Programming-2048, CN=www.wolfssl.com/emailAddress=info@wolfssl.com
        Validity
            Not Before: Feb 10 19:49:52 2021 GMT
            Not After : Nov  7 19:49:52 2023 GMT
        Subject: C=US, ST=Montana, L=Bozeman, O=wolfSSL_2048, OU=Programming-2048, CN=www.wolfssl.com/emailAddress=info@wolfssl.com
        Subject Public Key Info:
            Public Key Algorithm: rsaEncryption
                Public-Key: (2048 bit)
                Modulus:
                    00:c3:03:d1:2b:fe:39:a4:32:45:3b:53:c8:84:2b:
                    2a:7c:74:9a:bd:aa:2a:52:07:47:d6:a6:36:b2:07:
                    32:8e:d0:ba:69:7b:c6:c3:44:9e:d4:81:48:fd:2d:
                    68:a2:8b:67:bb:a1:75:c8:36:2c:4a:d2:1b:f7:8b:
                    ba:cf:0d:f9:ef:ec:f1:81:1e:7b:9b:03:47:9a:bf:
                    65:cc:7f:65:24:69:a6:e8:14:89:5b:e4:34:f7:c5:
                    b0:14:93:f5:67:7b:3a:7a:78:e1:01:56:56:91:a6:
                    13:42:8d:d2:3c:40:9c:4c:ef:d1:86:df:37:51:1b:
                    0c:a1:3b:f5:f1:a3:4a:35:e4:e1:ce:96:df:1b:7e:
                    bf:4e:97:d0:10:e8:a8:08:30:81:af:20:0b:43:14:
                    c5:74:67:b4:32:82:6f:8d:86:c2:88:40:99:36:83:
                    ba:1e:40:72:22:17:d7:52:65:24:73:b0:ce:ef:19:
                    cd:ae:ff:78:6c:7b:c0:12:03:d4:4e:72:0d:50:6d:
                    3b:a3:3b:a3:99:5e:9d:c8:d9:0c:85:b3:d9:8a:d9:
                    54:26:db:6d:fa:ac:bb:ff:25:4c:c4:d1:79:f4:71:
                    d3:86:40:18:13:b0:63:b5:72:4e:30:c4:97:84:86:
                    2d:56:2f:d7:15:f7:7f:c0:ae:f5:fc:5b:e5:fb:a1:
                    ba:d3
                Exponent: 65537 (0x10001)
        X509v3 extensions:
            X509v3 Subject Key Identifier: 
                33:D8:45:66:D7:68:87:18:7E:54:0D:70:27:91:C7:26:D7:85:65:C0
            X509v3 Authority Key Identifier: 
                keyid:33:D8:45:66:D7:68:87:18:7E:54:0D:70:27:91:C7:26:D7:85:65:C0
                DirName:/C=US/ST=Montana/L=Bozeman/O=wolfSSL_2048/OU=Programming-2048/CN=www.wolfssl.com/emailAddress=info@wolfssl.com
                serial:F1:5C:99:43:66:3D:96:04

            X509v3 Basic Constraints: 
                CA:TRUE
            X509v3 Subject Alternative Name: 
                DNS:example.com, IP Address:127.0.0.1
            X509v3 Extended Key Usage: 
                TLS Web Server Authentication, TLS Web Client Authentication
    Signature Algorithm: sha256WithRSAEncryption
         ba:2b:48:d1:a8:e3:c2:84:42:96:a1:7c:e5:f1:46:ba:4c:f7:
         87:57:c7:78:c8:c1:32:c4:69:ff:85:bb:5d:6a:dd:c9:87:7e:
         fe:bb:f4:fd:15:0a:4c:94:95:80:30:90:45:03:f8:33:87:ca:
         5f:74:38:a4:d0:5a:c7:65:38:c3:b0:e8:87:b1:49:32:b9:ac:
         e9:fb:d3:08:1d:a4:51:7b:d7:d9:4b:79:35:a2:3a:0b:e4:0c:
         a0:02:9c:a1:68:e1:5d:6c:8e:2e:3a:24:de:bb:d6:1c:a7:ac:
         2e:cd:57:44:48:f6:72:e0:c7:5b:93:dc:7d:5b:64:0e:17:84:
         68:2c:95:1d:2c:86:d6:b0:74:67:51:6e:7b:f4:d5:61:38:51:
         b3:18:e3:10:16:73:4b:36:8a:8a:62:05:f5:56:8a:be:21:e1:
         78:7d:bf:ad:45:f9:0b:f5:af:a0:62:01:fd:3f:49:df:39:3c:
         ff:46:e8:0a:fe:5c:6b:bb:41:a5:64:f1:5c:9b:51:4c:bc:6d:
         9f:a3:20:ed:e9:48:e1:a9:be:08:2d:85:42:59:d6:43:7d:47:
         22:a5:fa:1f:a2:58:76:0b:70:1c:1d:59:1d:aa:be:5d:2d:25:
         7c:b1:06:b6:c0:aa:28:aa:93:7c:d0:bd:43:ad:91:50:1c:7b:
         4d:f3:e4:d7
-----BEGIN CERTIFICATE-----
MIIFBzCCA++gAwIBAgIJAPFcmUNmPZYEMA0GCSqGSIb3DQEBCwUAMIGeMQswCQYD
VQQGEwJVUzEQMA4GA1UECAwHTW9udGFuYTEQMA4GA1UEBwwHQm96ZW1hbjEVMBMG
A1UECgwMd29sZlNTTF8yMDQ4MRkwFwYDVQQLDBBQcm9ncmFtbWluZy0yMDQ4MRgw
FgYDVQQDDA93d3cud29sZnNzbC5jb20xHzAdBgkqhkiG9w0BCQEWEGluZm9Ad29s
ZnNzbC5jb20wHhcNMjEwMjEwMTk0OTUyWhcNMjMxMTA3MTk0OTUyWjCBnjELMAkG
A1UEBhMCVVMxEDAOBgNVBAgMB01vbnRhbmExEDAOBgNVBAcMB0JvemVtYW4xFTAT
BgNVBAoMDHdvbGZTU0xfMjA0ODEZMBcGA1UECwwQUHJvZ3JhbW1pbmctMjA0ODEY
MBYGA1UEAwwPd3d3LndvbGZzc2wuY29tMR8wHQYJKoZIhvcNAQkBFhBpbmZvQHdv
bGZzc2wuY29tMIIBIjANBgkqhkiG9w0BAQEFAAOCAQ8AMIIBCgKCAQEAwwPRK/45
pDJFO1PIhCsqfHSavaoqUgdH1qY2sgcyjtC6aXvGw0Se1IFI/S1oootnu6F1yDYs
StIb94u6zw357+zxgR57mwNHmr9lzH9lJGmm6BSJW+Q098WwFJP1Z3s6enjhAVZW
kaYTQo3SPECcTO/Rht83URsMoTv18aNKNeThzpbfG36/TpfQEOioCDCBryALQxTF
dGe0MoJvjYbCiECZNoO6HkByIhfXUmUkc7DO7xnNrv94bHvAEgPUTnINUG07ozuj
mV6dyNkMhbPZitlUJttt+qy7/yVMxNF59HHThkAYE7BjtXJOMMSXhIYtVi/XFfd/
wK71/Fvl+6G60wIDAQABo4IBRDCCAUAwHQYDVR0OBBYEFDPYRWbXaIcYflQNcCeR
xybXhWXAMIHTBgNVHSMEgcswgciAFDPYRWbXaIcYflQNcCeRxybXhWXAoYGkpIGh
MIGeMQswCQYDVQQGEwJVUzEQMA4GA1UECAwHTW9udGFuYTEQMA4GA1UEBwwHQm96
ZW1hbjEVMBMGA1UECgwMd29sZlNTTF8yMDQ4MRkwFwYDVQQLDBBQcm9ncmFtbWlu
Zy0yMDQ4MRgwFgYDVQQDDA93d3cud29sZnNzbC5jb20xHzAdBgkqhkiG9w0BCQEW
EGluZm9Ad29sZnNzbC5jb22CCQDxXJlDZj2WBDAMBgNVHRMEBTADAQH/MBwGA1Ud
EQQVMBOCC2V4YW1wbGUuY29thwR/AAABMB0GA1UdJQQWMBQGCCsGAQUFBwMBBggr
BgEFBQcDAjANBgkqhkiG9w0BAQsFAAOCAQEAuitI0ajjwoRClqF85fFGukz3h1fH
eMjBMsRp/4W7XWrdyYd+/rv0/RUKTJSVgDCQRQP4M4fKX3Q4pNBax2U4w7Doh7FJ
Mrms6fvTCB2kUXvX2Ut5NaI6C+QMoAKcoWjhXWyOLjok3rvWHKesLs1XREj2cuDH
W5PcfVtkDheEaCyVHSyG1rB0Z1Fue/TVYThRsxjjEBZzSzaKimIF9VaKviHheH2/
rUX5C/WvoGIB/T9J3zk8/0boCv5ca7tBpWTxXJtRTLxtn6Mg7elI4am+CC2FQlnW
Q31HIqX6H6JYdgtwHB1ZHaq+XS0lfLEGtsCqKKqTfNC9Q62RUBx7TfPk1w==
-----END CERTIFICATE-----
