Certificate:
    Data:
        Version: 3 (0x2)
        Serial Number:
            45:2f:b8:eb:8b:d9:8c:fa:64:98:25:05:8c:8c:02:88:e8:d4:b0:59
        Signature Algorithm: sha256WithRSAEncryption
        Issuer: C = US, ST = Montana, L = Bozeman, O = wolfSSL_2048, OU = CRL_DIST, CN = www.wolfssl.com, emailAddress = info@wolfssl.com
        Validity
            Not Before: Feb 15 12:50:24 2022 GMT
            Not After : Nov 11 12:50:24 2024 GMT
        Subject: C = US, ST = Montana, L = Bozeman, O = wolfSSL_2048, OU = CRL_DIST, CN = www.wolfssl.com, emailAddress = info@wolfssl.com
        Subject Public Key Info:
            Public Key Algorithm: rsaEncryption
                RSA Public-Key: (2048 bit)
                Modulus:
                    00:c3:03:d1:2b:fe:39:a4:32:45:3b:53:c8:84:2b:
                    2a:7c:74:9a:bd:aa:2a:52:07:47:d6:a6:36:b2:07:
                    32:8e:d0:ba:69:7b:c6:c3:44:9e:d4:81:48:fd:2d:
                    68:a2:8b:67:bb:a1:75:c8:36:2c:4a:d2:1b:f7:8b:
                    ba:cf:0d:f9:ef:ec:f1:81:1e:7b:9b:03:47:9a:bf:
                    65:cc:7f:65:24:69:a6:e8:14:89:5b:e4:34:f7:c5:
                    b0:14:93:f5:67:7b:3a:7a:78:e1:01:56:56:91:a6:
                    13:42:8d:d2:3c:40:9c:4c:ef:d1:86:df:37:51:1b:
                    0c:a1:3b:f5:f1:a3:4a:35:e4:e1:ce:96:df:1b:7e:
                    bf:4e:97:d0:10:e8:a8:08:30:81:af:20:0b:43:14:
                    c5:74:67:b4:32:82:6f:8d:86:c2:88:40:99:36:83:
                    ba:1e:40:72:22:17:d7:52:65:24:73:b0:ce:ef:19:
                    cd:ae:ff:78:6c:7b:c0:12:03:d4:4e:72:0d:50:6d:
                    3b:a3:3b:a3:99:5e:9d:c8:d9:0c:85:b3:d9:8a:d9:
                    54:26:db:6d:fa:ac:bb:ff:25:4c:c4:d1:79:f4:71:
                    d3:86:40:18:13:b0:63:b5:72:4e:30:c4:97:84:86:
                    2d:56:2f:d7:15:f7:7f:c0:ae:f5:fc:5b:e5:fb:a1:
                    ba:d3
                Exponent: 65537 (0x10001)
        X509v3 extensions:
            X509v3 CRL Distribution Points: 

                Full Name:
                  URI:http://www.wolfssl.com/crl.pem

    Signature Algorithm: sha256WithRSAEncryption
         7f:ec:c1:4f:4b:d4:8d:f5:f1:8a:2f:18:9c:83:bf:53:94:33:
         04:e2:f6:5d:1c:8d:32:11:2e:d9:ee:2e:98:7e:77:88:55:65:
         be:80:76:7c:62:fb:5f:40:e9:fe:5d:d1:e7:00:43:39:0e:a7:
         03:7f:96:a5:4d:39:93:4a:f6:1e:94:04:0e:99:da:7b:ac:1e:
         10:91:16:f1:76:12:b8:7d:d6:dc:31:c8:19:95:28:86:b5:f8:
         88:ae:40:31:35:fc:60:32:a4:9e:d8:37:8c:8b:d1:a7:d6:60:
         20:ef:cd:e1:83:31:f6:35:10:74:89:3b:2e:e9:bc:32:8e:87:
         9e:a7:d9:c7:59:ef:3f:aa:b8:c1:8a:bb:63:1f:06:1a:46:62:
         6d:06:87:60:a0:fe:3e:89:90:68:3f:9e:f0:d7:13:78:c6:56:
         28:e8:94:be:f0:76:c9:fb:71:c4:8b:90:9a:ad:60:f2:6b:d9:
         de:21:20:0c:35:13:22:0f:90:8f:6b:4a:7c:30:29:d7:d8:f3:
         bd:64:35:e3:85:54:6c:6a:44:c6:89:20:12:eb:6c:88:bd:16:
         90:f5:87:ed:59:05:26:09:e3:29:cd:01:50:12:e0:bd:29:2f:
         0c:49:05:90:c6:22:ca:fe:de:ac:04:6d:3f:9b:ff:80:95:4d:
         eb:45:16:f0
-----BEGIN CERTIFICATE-----
MIID7zCCAtegAwIBAgIURS+464vZjPpkmCUFjIwCiOjUsFkwDQYJKoZIhvcNAQEL
BQAwgZYxCzAJBgNVBAYTAlVTMRAwDgYDVQQIDAdNb250YW5hMRAwDgYDVQQHDAdC
b3plbWFuMRUwEwYDVQQKDAx3b2xmU1NMXzIwNDgxETAPBgNVBAsMCENSTF9ESVNU
MRgwFgYDVQQDDA93d3cud29sZnNzbC5jb20xHzAdBgkqhkiG9w0BCQEWEGluZm9A
d29sZnNzbC5jb20wHhcNMjIwMjE1MTI1MDI0WhcNMjQxMTExMTI1MDI0WjCBljEL
MAkGA1UEBhMCVVMxEDAOBgNVBAgMB01vbnRhbmExEDAOBgNVBAcMB0JvemVtYW4x
FTATBgNVBAoMDHdvbGZTU0xfMjA0ODERMA8GA1UECwwIQ1JMX0RJU1QxGDAWBgNV
BAMMD3d3dy53b2xmc3NsLmNvbTEfMB0GCSqGSIb3DQEJARYQaW5mb0B3b2xmc3Ns
LmNvbTCCASIwDQYJKoZIhvcNAQEBBQADggEPADCCAQoCggEBAMMD0Sv+OaQyRTtT
yIQrKnx0mr2qKlIHR9amNrIHMo7Quml7xsNEntSBSP0taKKLZ7uhdcg2LErSG/eL
us8N+e/s8YEee5sDR5q/Zcx/ZSRppugUiVvkNPfFsBST9Wd7Onp44QFWVpGmE0KN
0jxAnEzv0YbfN1EbDKE79fGjSjXk4c6W3xt+v06X0BDoqAgwga8gC0MUxXRntDKC
b42GwohAmTaDuh5AciIX11JlJHOwzu8Zza7/eGx7wBID1E5yDVBtO6M7o5lencjZ
DIWz2YrZVCbbbfqsu/8lTMTRefRx04ZAGBOwY7VyTjDEl4SGLVYv1xX3f8Cu9fxb
5fuhutMCAwEAAaMzMDEwLwYDVR0fBCgwJjAkoCKgIIYeaHR0cDovL3d3dy53b2xm
c3NsLmNvbS9jcmwucGVtMA0GCSqGSIb3DQEBCwUAA4IBAQB/7MFPS9SN9fGKLxic
g79TlDME4vZdHI0yES7Z7i6YfneIVWW+gHZ8YvtfQOn+XdHnAEM5DqcDf5alTTmT
SvYelAQOmdp7rB4QkRbxdhK4fdbcMcgZlSiGtfiIrkAxNfxgMqSe2DeMi9Gn1mAg
783hgzH2NRB0iTsu6bwyjoeep9nHWe8/qrjBirtjHwYaRmJtBodgoP4+iZBoP57w
1xN4xlYo6JS+8HbJ+3HEi5CarWDya9neISAMNRMiD5CPa0p8MCnX2PO9ZDXjhVRs
akTGiSAS62yIvRaQ9YftWQUmCeMpzQFQEuC9KS8MSQWQxiLK/t6sBG0/m/+AlU3r
RRbw
-----END CERTIFICATE-----
