Certificate:
    Data:
        Version: 3 (0x2)
        Serial Number:
            12:37:de:bf:76:06:c4:e6:74:0c:38:84:53:e2:19:d4:b9:d3:68:d3
        Signature Algorithm: sha256WithRSAEncryption
        Issuer: C = US, ST = Montana, L = Bozeman, O = wolfSSL_2048, OU = Programming-2048, CN = www.wolfssl.com, emailAddress = info@wolfssl.com
        Validity
            Not Before: Dec 13 22:19:28 2023 GMT
            Not After : Sep  8 22:19:28 2026 GMT
        Subject: C = US, ST = Montana, L = Bozeman, O = wolfSSL_2048, OU = Programming-2048, CN = www.wolfssl.com, emailAddress = info@wolfssl.com
        Subject Public Key Info:
            Public Key Algorithm: rsaEncryption
                RSA Public-Key: (2048 bit)
                Modulus:
                    00:c3:03:d1:2b:fe:39:a4:32:45:3b:53:c8:84:2b:
                    2a:7c:74:9a:bd:aa:2a:52:07:47:d6:a6:36:b2:07:
                    32:8e:d0:ba:69:7b:c6:c3:44:9e:d4:81:48:fd:2d:
                    68:a2:8b:67:bb:a1:75:c8:36:2c:4a:d2:1b:f7:8b:
                    ba:cf:0d:f9:ef:ec:f1:81:1e:7b:9b:03:47:9a:bf:
                    65:cc:7f:65:24:69:a6:e8:14:89:5b:e4:34:f7:c5:
                    b0:14:93:f5:67:7b:3a:7a:78:e1:01:56:56:91:a6:
                    13:42:8d:d2:3c:40:9c:4c:ef:d1:86:df:37:51:1b:
                    0c:a1:3b:f5:f1:a3:4a:35:e4:e1:ce:96:df:1b:7e:
                    bf:4e:97:d0:10:e8:a8:08:30:81:af:20:0b:43:14:
                    c5:74:67:b4:32:82:6f:8d:86:c2:88:40:99:36:83:
                    ba:1e:40:72:22:17:d7:52:65:24:73:b0:ce:ef:19:
                    cd:ae:ff:78:6c:7b:c0:12:03:d4:4e:72:0d:50:6d:
                    3b:a3:3b:a3:99:5e:9d:c8:d9:0c:85:b3:d9:8a:d9:
                    54:26:db:6d:fa:ac:bb:ff:25:4c:c4:d1:79:f4:71:
                    d3:86:40:18:13:b0:63:b5:72:4e:30:c4:97:84:86:
                    2d:56:2f:d7:15:f7:7f:c0:ae:f5:fc:5b:e5:fb:a1:
                    ba:d3
                Exponent: 65537 (0x10001)
        X509v3 extensions:
            X509v3 Subject Key Identifier: 
                33:D8:45:66:D7:68:87:18:7E:54:0D:70:27:91:C7:26:D7:85:65:C0
            X509v3 Authority Key Identifier: 
                keyid:33:D8:45:66:D7:68:87:18:7E:54:0D:70:27:91:C7:26:D7:85:65:C0
                DirName:/C=US/ST=Montana/L=Bozeman/O=wolfSSL_2048/OU=Programming-2048/CN=www.wolfssl.com/emailAddress=info@wolfssl.com
                serial:12:37:DE:BF:76:06:C4:E6:74:0C:38:84:53:E2:19:D4:B9:D3:68:D3

            X509v3 Basic Constraints: 
                CA:TRUE
            X509v3 Subject Alternative Name: 
                DNS:example.com
            X509v3 Key Usage: critical
                Digital Signature, Certificate Sign, CRL Sign
    Signature Algorithm: sha256WithRSAEncryption
         ac:be:4c:63:00:b5:d9:d5:9e:b1:83:61:a3:7a:1f:a8:b7:ad:
         e0:0a:c8:c4:42:b2:ff:96:18:99:3d:16:b9:58:05:94:7b:1b:
         da:66:27:e3:48:5b:e6:4d:7b:0f:51:c5:8e:e4:b5:c3:0b:48:
         96:56:95:bb:3c:4d:91:c9:2c:51:61:24:37:d2:ef:ec:6c:97:
         92:cc:b4:fc:4f:fc:db:f7:7d:71:a9:3c:3a:a1:fb:e1:14:1a:
         c2:a3:51:e8:fc:c5:fb:57:44:73:97:93:bd:79:9a:10:9e:27:
         e1:f2:cd:43:94:8f:6a:01:ce:40:51:e4:fa:06:d2:de:0a:10:
         93:ff:0f:10:44:85:8a:00:60:2b:bf:86:40:5b:2e:28:11:e9:
         8e:8a:ad:00:e9:0e:c6:67:ee:fc:53:8d:19:6a:33:91:0e:42:
         16:83:5e:67:3b:24:05:85:b8:2a:bf:16:5b:d4:b0:a7:02:de:
         29:6b:7b:fc:45:c1:1e:9f:d9:91:3c:92:9d:2e:c6:a7:a0:ea:
         d7:b0:97:d6:58:14:03:4c:12:d5:f1:81:e3:a9:07:94:3f:53:
         78:d1:61:e9:44:87:59:8b:b8:e7:c1:cc:3f:11:eb:00:e9:b5:
         b7:6a:05:49:f7:5c:e0:e8:b4:6c:7c:f0:fc:67:5a:67:35:7e:
         85:43:cb:b6
-----BEGIN CERTIFICATE-----
MIIFCDCCA/CgAwIBAgIUEjfev3YGxOZ0DDiEU+IZ1LnTaNMwDQYJKoZIhvcNAQEL
BQAwgZ4xCzAJBgNVBAYTAlVTMRAwDgYDVQQIDAdNb250YW5hMRAwDgYDVQQHDAdC
b3plbWFuMRUwEwYDVQQKDAx3b2xmU1NMXzIwNDgxGTAXBgNVBAsMEFByb2dyYW1t
aW5nLTIwNDgxGDAWBgNVBAMMD3d3dy53b2xmc3NsLmNvbTEfMB0GCSqGSIb3DQEJ
ARYQaW5mb0B3b2xmc3NsLmNvbTAeFw0yMzEyMTMyMjE5MjhaFw0yNjA5MDgyMjE5
MjhaMIGeMQswCQYDVQQGEwJVUzEQMA4GA1UECAwHTW9udGFuYTEQMA4GA1UEBwwH
Qm96ZW1hbjEVMBMGA1UECgwMd29sZlNTTF8yMDQ4MRkwFwYDVQQLDBBQcm9ncmFt
bWluZy0yMDQ4MRgwFgYDVQQDDA93d3cud29sZnNzbC5jb20xHzAdBgkqhkiG9w0B
CQEWEGluZm9Ad29sZnNzbC5jb20wggEiMA0GCSqGSIb3DQEBAQUAA4IBDwAwggEK
AoIBAQDDA9Er/jmkMkU7U8iEKyp8dJq9qipSB0fWpjayBzKO0Lppe8bDRJ7UgUj9
LWiii2e7oXXINixK0hv3i7rPDfnv7PGBHnubA0eav2XMf2UkaaboFIlb5DT3xbAU
k/Vnezp6eOEBVlaRphNCjdI8QJxM79GG3zdRGwyhO/Xxo0o15OHOlt8bfr9Ol9AQ
6KgIMIGvIAtDFMV0Z7Qygm+NhsKIQJk2g7oeQHIiF9dSZSRzsM7vGc2u/3hse8AS
A9ROcg1QbTujO6OZXp3I2QyFs9mK2VQm2236rLv/JUzE0Xn0cdOGQBgTsGO1ck4w
xJeEhi1WL9cV93/ArvX8W+X7obrTAgMBAAGjggE6MIIBNjAdBgNVHQ4EFgQUM9hF
Ztdohxh+VA1wJ5HHJteFZcAwgd4GA1UdIwSB1jCB04AUM9hFZtdohxh+VA1wJ5HH
JteFZcChgaSkgaEwgZ4xCzAJBgNVBAYTAlVTMRAwDgYDVQQIDAdNb250YW5hMRAw
DgYDVQQHDAdCb3plbWFuMRUwEwYDVQQKDAx3b2xmU1NMXzIwNDgxGTAXBgNVBAsM
EFByb2dyYW1taW5nLTIwNDgxGDAWBgNVBAMMD3d3dy53b2xmc3NsLmNvbTEfMB0G
CSqGSIb3DQEJARYQaW5mb0B3b2xmc3NsLmNvbYIUEjfev3YGxOZ0DDiEU+IZ1LnT
aNMwDAYDVR0TBAUwAwEB/zAWBgNVHREEDzANggtleGFtcGxlLmNvbTAOBgNVHQ8B
Af8EBAMCAYYwDQYJKoZIhvcNAQELBQADggEBAKy+TGMAtdnVnrGDYaN6H6i3reAK
yMRCsv+WGJk9FrlYBZR7G9pmJ+NIW+ZNew9RxY7ktcMLSJZWlbs8TZHJLFFhJDfS
7+xsl5LMtPxP/Nv3fXGpPDqh++EUGsKjUej8xftXRHOXk715mhCeJ+HyzUOUj2oB
zkBR5PoG0t4KEJP/DxBEhYoAYCu/hkBbLigR6Y6KrQDpDsZn7vxTjRlqM5EOQhaD
Xmc7JAWFuCq/FlvUsKcC3ilre/xFwR6f2ZE8kp0uxqeg6tewl9ZYFANMEtXxgeOp
B5Q/U3jRYelEh1mLuOfBzD8R6wDptbdqBUn3XODotGx88PxnWmc1foVDy7Y=
-----END CERTIFICATE-----
