Certificate:
    Data:
        Version: 3 (0x2)
        Serial Number: 17391944375755183620 (0xf15c9943663d9604)
    Signature Algorithm: sha256WithRSAEncryption
        Issuer: C=US, ST=Montana, L=Bozeman, O=wolfSSL_2048, OU=Programming-2048, CN=www.wolfssl.com/emailAddress=info@wolfssl.com
        Validity
            Not Before: Feb 10 19:49:52 2021 GMT
            Not After : Nov  7 19:49:52 2023 GMT
        Subject: C=US, ST=Montana, L=Bozeman, O=wolfSSL_2048, OU=Programming-2048, CN=www.wolfssl.com/emailAddress=info@wolfssl.com
        Subject Public Key Info:
            Public Key Algorithm: rsaEncryption
                Public-Key: (2048 bit)
                Modulus:
                    00:c3:03:d1:2b:fe:39:a4:32:45:3b:53:c8:84:2b:
                    2a:7c:74:9a:bd:aa:2a:52:07:47:d6:a6:36:b2:07:
                    32:8e:d0:ba:69:7b:c6:c3:44:9e:d4:81:48:fd:2d:
                    68:a2:8b:67:bb:a1:75:c8:36:2c:4a:d2:1b:f7:8b:
                    ba:cf:0d:f9:ef:ec:f1:81:1e:7b:9b:03:47:9a:bf:
                    65:cc:7f:65:24:69:a6:e8:14:89:5b:e4:34:f7:c5:
                    b0:14:93:f5:67:7b:3a:7a:78:e1:01:56:56:91:a6:
                    13:42:8d:d2:3c:40:9c:4c:ef:d1:86:df:37:51:1b:
                    0c:a1:3b:f5:f1:a3:4a:35:e4:e1:ce:96:df:1b:7e:
                    bf:4e:97:d0:10:e8:a8:08:30:81:af:20:0b:43:14:
                    c5:74:67:b4:32:82:6f:8d:86:c2:88:40:99:36:83:
                    ba:1e:40:72:22:17:d7:52:65:24:73:b0:ce:ef:19:
                    cd:ae:ff:78:6c:7b:c0:12:03:d4:4e:72:0d:50:6d:
                    3b:a3:3b:a3:99:5e:9d:c8:d9:0c:85:b3:d9:8a:d9:
                    54:26:db:6d:fa:ac:bb:ff:25:4c:c4:d1:79:f4:71:
                    d3:86:40:18:13:b0:63:b5:72:4e:30:c4:97:84:86:
                    2d:56:2f:d7:15:f7:7f:c0:ae:f5:fc:5b:e5:fb:a1:
                    ba:d3
                Exponent: 65537 (0x10001)
        X509v3 extensions:
            X509v3 Subject Key Identifier: 
                33:D8:45:66:D7:68:87:18:7E:54:0D:70:27:91:C7:26:D7:85:65:C0
            X509v3 Authority Key Identifier: 
                keyid:33:D8:45:66:D7:68:87:18:7E:54:0D:70:27:91:C7:26:D7:85:65:C0
                DirName:/C=US/ST=Montana/L=Bozeman/O=wolfSSL_2048/OU=Programming-2048/CN=www.wolfssl.com/emailAddress=info@wolfssl.com
                serial:F1:5C:99:43:66:3D:96:04

            X509v3 Basic Constraints: 
                CA:TRUE
            X509v3 Subject Alternative Name: 
                DNS:example.com, IP Address:127.0.0.1
            X509v3 Extended Key Usage: 
                TLS Web Server Authentication, TLS Web Client Authentication
    Signature Algorithm: sha256WithRSAEncryption
         ba:2b:48:d1:a8:e3:c2:84:42:96:a1:7c:e5:f1:46:ba:4c:f7:
         87:57:c7:78:c8:c1:32:c4:69:ff:85:bb:5d:6a:dd:c9:87:7e:
         fe:bb:f4:fd:15:0a:4c:94:95:80:30:90:45:03:f8:33:87:ca:
         5f:74:38:a4:d0:5a:c7:65:38:c3:b0:e8:87:b1:49:32:b9:ac:
         e9:fb:d3:08:1d:a4:51:7b:d7:d9:4b:79:35:a2:3a:0b:e4:0c:
         a0:02:9c:a1:68:e1:5d:6c:8e:2e:3a:24:de:bb:d6:1c:a7:ac:
         2e:cd:57:44:48:f6:72:e0:c7:5b:93:dc:7d:5b:64:0e:17:84:
         68:2c:95:1d:2c:86:d6:b0:74:67:51:6e:7b:f4:d5:61:38:51:
         b3:18:e3:10:16:73:4b:36:8a:8a:62:05:f5:56:8a:be:21:e1:
         78:7d:bf:ad:45:f9:0b:f5:af:a0:62:01:fd:3f:49:df:39:3c:
         ff:46:e8:0a:fe:5c:6b:bb:41:a5:64:f1:5c:9b:51:4c:bc:6d:
         9f:a3:20:ed:e9:48:e1:a9:be:08:2d:85:42:59:d6:43:7d:47:
         22:a5:fa:1f:a2:58:76:0b:70:1c:1d:59:1d:aa:be:5d:2d:25:
         7c:b1:06:b6:c0:aa:28:aa:93:7c:d0:bd:43:ad:91:50:1c:7b:
         4d:f3:e4:d7
-----BEGIN CERTIFICATE-----
MIIFBzCCA++gAwIBAgIJAPFcmUNmPZYEMA0GCSqGSIb3DQEBCwUAMIGeMQswCQYD
VQQGEwJVUzEQMA4GA1UECAwHTW9udGFuYTEQMA4GA1UEBwwHQm96ZW1hbjEVMBMG
A1UECgwMd29sZlNTTF8yMDQ4MRkwFwYDVQQLDBBQcm9ncmFtbWluZy0yMDQ4MRgw
FgYDVQQDDA93d3cud29sZnNzbC5jb20xHzAdBgkqhkiG9w0BCQEWEGluZm9Ad29s
ZnNzbC5jb20wHhcNMjEwMjEwMTk0OTUyWhcNMjMxMTA3MTk0OTUyWjCBnjELMAkG
A1UEBhMCVVMxEDAOBgNVBAgMB01vbnRhbmExEDAOBgNVBAcMB0JvemVtYW4xFTAT
BgNVBAoMDHdvbGZTU0xfMjA0ODEZMBcGA1UECwwQUHJvZ3JhbW1pbmctMjA0ODEY
MBYGA1UEAwwPd3d3LndvbGZzc2wuY29tMR8wHQYJKoZIhvcNAQkBFhBpbmZvQHdv
bGZzc2wuY29tMIIBIjANBgkqhkiG9w0BAQEFAAOCAQ8AMIIBCgKCAQEAwwPRK/45
pDJFO1PIhCsqfHSavaoqUgdH1qY2sgcyjtC6aXvGw0Se1IFI/S1oootnu6F1yDYs
StIb94u6zw357+zxgR57mwNHmr9lzH9lJGmm6BSJW+Q098WwFJP1Z3s6enjhAVZW
kaYTQo3SPECcTO/Rht83URsMoTv18aNKNeThzpbfG36/TpfQEOioCDCBryALQxTF
dGe0MoJvjYbCiECZNoO6HkByIhfXUmUkc7DO7xnNrv94bHvAEgPUTnINUG07ozuj
mV6dyNkMhbPZitlUJttt+qy7/yVMxNF59HHThkAYE7BjtXJOMMSXhIYtVi/XFfd/
wK71/Fvl+6G60wIDAQABo4IBRDCCAUAwHQYDVR0OBBYEFDPYRWbXaIcYflQNcCeR
xybXhWXAMIHTBgNVHSMEgcswgciAFDPYRWbXaIcYflQNcCeRxybXhWXAoYGkpIGh
MIGeMQswCQYDVQQGEwJVUzEQMA4GA1UECAwHTW9udGFuYTEQMA4GA1UEBwwHQm96
ZW1hbjEVMBMGA1UECgwMd29sZlNTTF8yMDQ4MRkwFwYDVQQLDBBQcm9ncmFtbWlu
Zy0yMDQ4MRgwFgYDVQQDDA93d3cud29sZnNzbC5jb20xHzAdBgkqhkiG9w0BCQEW
EGluZm9Ad29sZnNzbC5jb22CCQDxXJlDZj2WBDAMBgNVHRMEBTADAQH/MBwGA1Ud
EQQVMBOCC2V4YW1wbGUuY29thwR/AAABMB0GA1UdJQQWMBQGCCsGAQUFBwMBBggr
BgEFBQcDAjANBgkqhkiG9w0BAQsFAAOCAQEAuitI0ajjwoRClqF85fFGukz3h1fH
eMjBMsRp/4W7XWrdyYd+/rv0/RUKTJSVgDCQRQP4M4fKX3Q4pNBax2U4w7Doh7FJ
Mrms6fvTCB2kUXvX2Ut5NaI6C+QMoAKcoWjhXWyOLjok3rvWHKesLs1XREj2cuDH
W5PcfVtkDheEaCyVHSyG1rB0Z1Fue/TVYThRsxjjEBZzSzaKimIF9VaKviHheH2/
rUX5C/WvoGIB/T9J3zk8/0boCv5ca7tBpWTxXJtRTLxtn6Mg7elI4am+CC2FQlnW
Q31HIqX6H6JYdgtwHB1ZHaq+XS0lfLEGtsCqKKqTfNC9Q62RUBx7TfPk1w==
-----END CERTIFICATE-----
Certificate:
    Data:
        Version: 3 (0x2)
        Serial Number: 16666221217456835267 (0xe74a4fe55697cac3)
    Signature Algorithm: ecdsa-with-SHA256
        Issuer: C=US, ST=Oregon, L=Salem, O=Client ECC, OU=Fast, CN=www.wolfssl.com/emailAddress=info@wolfssl.com
        Validity
            Not Before: Feb 10 19:49:53 2021 GMT
            Not After : Nov  7 19:49:53 2023 GMT
        Subject: C=US, ST=Oregon, L=Salem, O=Client ECC, OU=Fast, CN=www.wolfssl.com/emailAddress=info@wolfssl.com
        Subject Public Key Info:
            Public Key Algorithm: id-ecPublicKey
                Public-Key: (256 bit)
                pub: 
                    04:55:bf:f4:0f:44:50:9a:3d:ce:9b:b7:f0:c5:4d:
                    f5:70:7b:d4:ec:24:8e:19:80:ec:5a:4c:a2:24:03:
                    62:2c:9b:da:ef:a2:35:12:43:84:76:16:c6:56:95:
                    06:cc:01:a9:bd:f6:75:1a:42:f7:bd:a9:b2:36:22:
                    5f:c7:5d:7f:b4
                ASN1 OID: prime256v1
                NIST CURVE: P-256
        X509v3 extensions:
            X509v3 Subject Key Identifier: 
                EB:D4:4B:59:6B:95:61:3F:51:57:B6:04:4D:89:41:88:44:5C:AB:F2
            X509v3 Authority Key Identifier: 
                keyid:EB:D4:4B:59:6B:95:61:3F:51:57:B6:04:4D:89:41:88:44:5C:AB:F2
                DirName:/C=US/ST=Oregon/L=Salem/O=Client ECC/OU=Fast/CN=www.wolfssl.com/emailAddress=info@wolfssl.com
                serial:E7:4A:4F:E5:56:97:CA:C3

            X509v3 Basic Constraints: 
                CA:TRUE
            X509v3 Subject Alternative Name: 
                DNS:example.com, IP Address:127.0.0.1
            X509v3 Extended Key Usage: 
                TLS Web Server Authentication, TLS Web Client Authentication
    Signature Algorithm: ecdsa-with-SHA256
         30:46:02:21:00:e3:bb:ca:0e:31:2d:39:1d:94:25:81:90:d5:
         11:f9:09:6d:58:16:23:be:9f:a9:18:64:83:3c:25:03:58:58:
         39:02:21:00:a4:aa:b3:f0:09:c9:0c:2f:f7:b1:d4:8e:9f:a6:
         b6:ab:1a:c7:37:ed:70:4d:34:04:a0:9b:3d:84:86:10:a0:f0
-----BEGIN CERTIFICATE-----
MIIDSTCCAu6gAwIBAgIJAOdKT+VWl8rDMAoGCCqGSM49BAMCMIGNMQswCQYDVQQG
EwJVUzEPMA0GA1UECAwGT3JlZ29uMQ4wDAYDVQQHDAVTYWxlbTETMBEGA1UECgwK
Q2xpZW50IEVDQzENMAsGA1UECwwERmFzdDEYMBYGA1UEAwwPd3d3LndvbGZzc2wu
Y29tMR8wHQYJKoZIhvcNAQkBFhBpbmZvQHdvbGZzc2wuY29tMB4XDTIxMDIxMDE5
NDk1M1oXDTIzMTEwNzE5NDk1M1owgY0xCzAJBgNVBAYTAlVTMQ8wDQYDVQQIDAZP
cmVnb24xDjAMBgNVBAcMBVNhbGVtMRMwEQYDVQQKDApDbGllbnQgRUNDMQ0wCwYD
VQQLDARGYXN0MRgwFgYDVQQDDA93d3cud29sZnNzbC5jb20xHzAdBgkqhkiG9w0B
CQEWEGluZm9Ad29sZnNzbC5jb20wWTATBgcqhkjOPQIBBggqhkjOPQMBBwNCAARV
v/QPRFCaPc6bt/DFTfVwe9TsJI4ZgOxaTKIkA2Ism9rvojUSQ4R2FsZWlQbMAam9
9nUaQve9qbI2Il/HXX+0o4IBMzCCAS8wHQYDVR0OBBYEFOvUS1lrlWE/UVe2BE2J
QYhEXKvyMIHCBgNVHSMEgbowgbeAFOvUS1lrlWE/UVe2BE2JQYhEXKvyoYGTpIGQ
MIGNMQswCQYDVQQGEwJVUzEPMA0GA1UECAwGT3JlZ29uMQ4wDAYDVQQHDAVTYWxl
bTETMBEGA1UECgwKQ2xpZW50IEVDQzENMAsGA1UECwwERmFzdDEYMBYGA1UEAwwP
d3d3LndvbGZzc2wuY29tMR8wHQYJKoZIhvcNAQkBFhBpbmZvQHdvbGZzc2wuY29t
ggkA50pP5VaXysMwDAYDVR0TBAUwAwEB/zAcBgNVHREEFTATggtleGFtcGxlLmNv
bYcEfwAAATAdBgNVHSUEFjAUBggrBgEFBQcDAQYIKwYBBQUHAwIwCgYIKoZIzj0E
AwIDSQAwRgIhAOO7yg4xLTkdlCWBkNUR+QltWBYjvp+pGGSDPCUDWFg5AiEApKqz
8AnJDC/3sdSOn6a2qxrHN+1wTTQEoJs9hIYQoPA=
-----END CERTIFICATE-----
