Certificate:
    Data:
        Version: 3 (0x2)
        Serial Number:
            21:e5:09:ec:95:19:31:a3:cb:58:ee:53:ea:d8:7c:a3:a2:7a:1f:f5
        Signature Algorithm: sha256WithRSAEncryption
        Issuer: C = US, ST = Montana, L = Bozeman, O = wolfSSL_2048, OU = Programming-2048, CN = www.wolfssl.com, emailAddress = info@wolfssl.com
        Validity
            Not Before: Dec 18 21:25:29 2024 GMT
            Not After : Sep 14 21:25:29 2027 GMT
        Subject: C = US, ST = Montana, L = Bozeman, O = wolfSSL_2048, OU = Programming-2048, CN = www.wolfssl.com, emailAddress = info@wolfssl.com
        Subject Public Key Info:
            Public Key Algorithm: rsaEncryption
                Public-Key: (2048 bit)
                Modulus:
                    00:c3:03:d1:2b:fe:39:a4:32:45:3b:53:c8:84:2b:
                    2a:7c:74:9a:bd:aa:2a:52:07:47:d6:a6:36:b2:07:
                    32:8e:d0:ba:69:7b:c6:c3:44:9e:d4:81:48:fd:2d:
                    68:a2:8b:67:bb:a1:75:c8:36:2c:4a:d2:1b:f7:8b:
                    ba:cf:0d:f9:ef:ec:f1:81:1e:7b:9b:03:47:9a:bf:
                    65:cc:7f:65:24:69:a6:e8:14:89:5b:e4:34:f7:c5:
                    b0:14:93:f5:67:7b:3a:7a:78:e1:01:56:56:91:a6:
                    13:42:8d:d2:3c:40:9c:4c:ef:d1:86:df:37:51:1b:
                    0c:a1:3b:f5:f1:a3:4a:35:e4:e1:ce:96:df:1b:7e:
                    bf:4e:97:d0:10:e8:a8:08:30:81:af:20:0b:43:14:
                    c5:74:67:b4:32:82:6f:8d:86:c2:88:40:99:36:83:
                    ba:1e:40:72:22:17:d7:52:65:24:73:b0:ce:ef:19:
                    cd:ae:ff:78:6c:7b:c0:12:03:d4:4e:72:0d:50:6d:
                    3b:a3:3b:a3:99:5e:9d:c8:d9:0c:85:b3:d9:8a:d9:
                    54:26:db:6d:fa:ac:bb:ff:25:4c:c4:d1:79:f4:71:
                    d3:86:40:18:13:b0:63:b5:72:4e:30:c4:97:84:86:
                    2d:56:2f:d7:15:f7:7f:c0:ae:f5:fc:5b:e5:fb:a1:
                    ba:d3
                Exponent: 65537 (0x10001)
        X509v3 extensions:
            X509v3 Subject Key Identifier: 
                33:D8:45:66:D7:68:87:18:7E:54:0D:70:27:91:C7:26:D7:85:65:C0
            X509v3 Authority Key Identifier: 
                keyid:33:D8:45:66:D7:68:87:18:7E:54:0D:70:27:91:C7:26:D7:85:65:C0
                DirName:/C=US/ST=Montana/L=Bozeman/O=wolfSSL_2048/OU=Programming-2048/CN=www.wolfssl.com/emailAddress=info@wolfssl.com
                serial:21:E5:09:EC:95:19:31:A3:CB:58:EE:53:EA:D8:7C:A3:A2:7A:1F:F5
            X509v3 Basic Constraints: 
                CA:TRUE
            X509v3 Subject Alternative Name: 
                DNS:example.com
            X509v3 Key Usage: critical
                Digital Signature, Certificate Sign, CRL Sign
    Signature Algorithm: sha256WithRSAEncryption
    Signature Value:
        9b:85:16:e2:26:24:59:e5:de:18:33:d0:49:ec:33:cc:5c:85:
        fb:9d:a8:bc:e1:aa:9c:3a:0f:68:27:47:82:87:20:63:04:54:
        22:a1:3c:09:fe:ad:3c:d5:1b:93:86:73:b3:6e:9a:3e:91:70:
        a2:11:b8:49:a6:58:ec:6d:da:28:7b:6d:fe:d4:77:75:8d:82:
        ff:f1:3a:1d:8b:e6:b6:e3:0f:89:5a:fd:fa:7d:b4:a2:af:e5:
        a7:a0:1b:27:67:0d:36:6f:8a:ac:14:31:46:fe:71:7f:cd:ec:
        32:03:3f:86:f0:24:35:7c:63:7b:52:b1:44:7d:65:53:9e:e5:
        77:ad:bf:c7:dd:74:e1:0a:8e:66:06:0b:c9:d0:f4:5e:ab:34:
        a7:15:eb:91:1f:79:aa:0a:c2:72:df:b5:d8:ed:60:e9:ef:9e:
        d2:41:b0:7e:6e:09:ab:dc:b6:c0:c1:e5:e3:d3:a1:7f:ba:ce:
        6f:6d:6f:bb:ba:9f:ab:68:37:53:07:e4:9c:37:54:11:0d:a1:
        91:99:e2:11:9d:85:7c:fb:e2:4f:ce:73:21:4a:b6:55:4c:e2:
        30:2d:34:3e:7a:60:2c:d7:a4:dc:0b:65:0f:06:2d:00:e5:d5:
        38:99:05:ba:d1:80:42:6e:0d:6b:c9:ed:bb:fc:0e:2b:49:0e:
        b5:a3:c5:43
-----BEGIN CERTIFICATE-----
MIIFCDCCA/CgAwIBAgIUIeUJ7JUZMaPLWO5T6th8o6J6H/UwDQYJKoZIhvcNAQEL
BQAwgZ4xCzAJBgNVBAYTAlVTMRAwDgYDVQQIDAdNb250YW5hMRAwDgYDVQQHDAdC
b3plbWFuMRUwEwYDVQQKDAx3b2xmU1NMXzIwNDgxGTAXBgNVBAsMEFByb2dyYW1t
aW5nLTIwNDgxGDAWBgNVBAMMD3d3dy53b2xmc3NsLmNvbTEfMB0GCSqGSIb3DQEJ
ARYQaW5mb0B3b2xmc3NsLmNvbTAeFw0yNDEyMTgyMTI1MjlaFw0yNzA5MTQyMTI1
MjlaMIGeMQswCQYDVQQGEwJVUzEQMA4GA1UECAwHTW9udGFuYTEQMA4GA1UEBwwH
Qm96ZW1hbjEVMBMGA1UECgwMd29sZlNTTF8yMDQ4MRkwFwYDVQQLDBBQcm9ncmFt
bWluZy0yMDQ4MRgwFgYDVQQDDA93d3cud29sZnNzbC5jb20xHzAdBgkqhkiG9w0B
CQEWEGluZm9Ad29sZnNzbC5jb20wggEiMA0GCSqGSIb3DQEBAQUAA4IBDwAwggEK
AoIBAQDDA9Er/jmkMkU7U8iEKyp8dJq9qipSB0fWpjayBzKO0Lppe8bDRJ7UgUj9
LWiii2e7oXXINixK0hv3i7rPDfnv7PGBHnubA0eav2XMf2UkaaboFIlb5DT3xbAU
k/Vnezp6eOEBVlaRphNCjdI8QJxM79GG3zdRGwyhO/Xxo0o15OHOlt8bfr9Ol9AQ
6KgIMIGvIAtDFMV0Z7Qygm+NhsKIQJk2g7oeQHIiF9dSZSRzsM7vGc2u/3hse8AS
A9ROcg1QbTujO6OZXp3I2QyFs9mK2VQm2236rLv/JUzE0Xn0cdOGQBgTsGO1ck4w
xJeEhi1WL9cV93/ArvX8W+X7obrTAgMBAAGjggE6MIIBNjAdBgNVHQ4EFgQUM9hF
Ztdohxh+VA1wJ5HHJteFZcAwgd4GA1UdIwSB1jCB04AUM9hFZtdohxh+VA1wJ5HH
JteFZcChgaSkgaEwgZ4xCzAJBgNVBAYTAlVTMRAwDgYDVQQIDAdNb250YW5hMRAw
DgYDVQQHDAdCb3plbWFuMRUwEwYDVQQKDAx3b2xmU1NMXzIwNDgxGTAXBgNVBAsM
EFByb2dyYW1taW5nLTIwNDgxGDAWBgNVBAMMD3d3dy53b2xmc3NsLmNvbTEfMB0G
CSqGSIb3DQEJARYQaW5mb0B3b2xmc3NsLmNvbYIUIeUJ7JUZMaPLWO5T6th8o6J6
H/UwDAYDVR0TBAUwAwEB/zAWBgNVHREEDzANggtleGFtcGxlLmNvbTAOBgNVHQ8B
Af8EBAMCAYYwDQYJKoZIhvcNAQELBQADggEBAJuFFuImJFnl3hgz0EnsM8xchfud
qLzhqpw6D2gnR4KHIGMEVCKhPAn+rTzVG5OGc7Numj6RcKIRuEmmWOxt2ih7bf7U
d3WNgv/xOh2L5rbjD4la/fp9tKKv5aegGydnDTZviqwUMUb+cX/N7DIDP4bwJDV8
Y3tSsUR9ZVOe5Xetv8fddOEKjmYGC8nQ9F6rNKcV65EfeaoKwnLftdjtYOnvntJB
sH5uCavctsDB5ePToX+6zm9tb7u6n6toN1MH5Jw3VBENoZGZ4hGdhXz74k/OcyFK
tlVM4jAtND56YCzXpNwLZQ8GLQDl1TiZBbrRgEJuDWvJ7bv8DitJDrWjxUM=
-----END CERTIFICATE-----
