Certificate:
    Data:
        Version: 3 (0x2)
        Serial Number:
            01:1a:eb:56:ab:dc:8b:f3:a6:1e:f4:93:60:89:b7:05:07:29:01:2c
        Signature Algorithm: sha256WithRSAEncryption
        Issuer: C = US, ST = Montana, L = Bozeman, O = wolfSSL_2048, OU = Programming-2048, CN = www.wolfssl.com, emailAddress = info@wolfssl.com
        Validity
            Not Before: Feb 15 12:50:24 2022 GMT
            Not After : Nov 11 12:50:24 2024 GMT
        Subject: C = US, ST = Montana, L = Bozeman, O = wolfSSL_2048, OU = Programming-2048, CN = www.wolfssl.com, emailAddress = info@wolfssl.com
        Subject Public Key Info:
            Public Key Algorithm: rsaEncryption
                RSA Public-Key: (2048 bit)
                Modulus:
                    00:c3:03:d1:2b:fe:39:a4:32:45:3b:53:c8:84:2b:
                    2a:7c:74:9a:bd:aa:2a:52:07:47:d6:a6:36:b2:07:
                    32:8e:d0:ba:69:7b:c6:c3:44:9e:d4:81:48:fd:2d:
                    68:a2:8b:67:bb:a1:75:c8:36:2c:4a:d2:1b:f7:8b:
                    ba:cf:0d:f9:ef:ec:f1:81:1e:7b:9b:03:47:9a:bf:
                    65:cc:7f:65:24:69:a6:e8:14:89:5b:e4:34:f7:c5:
                    b0:14:93:f5:67:7b:3a:7a:78:e1:01:56:56:91:a6:
                    13:42:8d:d2:3c:40:9c:4c:ef:d1:86:df:37:51:1b:
                    0c:a1:3b:f5:f1:a3:4a:35:e4:e1:ce:96:df:1b:7e:
                    bf:4e:97:d0:10:e8:a8:08:30:81:af:20:0b:43:14:
                    c5:74:67:b4:32:82:6f:8d:86:c2:88:40:99:36:83:
                    ba:1e:40:72:22:17:d7:52:65:24:73:b0:ce:ef:19:
                    cd:ae:ff:78:6c:7b:c0:12:03:d4:4e:72:0d:50:6d:
                    3b:a3:3b:a3:99:5e:9d:c8:d9:0c:85:b3:d9:8a:d9:
                    54:26:db:6d:fa:ac:bb:ff:25:4c:c4:d1:79:f4:71:
                    d3:86:40:18:13:b0:63:b5:72:4e:30:c4:97:84:86:
                    2d:56:2f:d7:15:f7:7f:c0:ae:f5:fc:5b:e5:fb:a1:
                    ba:d3
                Exponent: 65537 (0x10001)
        X509v3 extensions:
            X509v3 Subject Key Identifier: 
                33:D8:45:66:D7:68:87:18:7E:54:0D:70:27:91:C7:26:D7:85:65:C0
            X509v3 Authority Key Identifier: 
                keyid:33:D8:45:66:D7:68:87:18:7E:54:0D:70:27:91:C7:26:D7:85:65:C0
                DirName:/C=US/ST=Montana/L=Bozeman/O=wolfSSL_2048/OU=Programming-2048/CN=www.wolfssl.com/emailAddress=info@wolfssl.com
                serial:01:1A:EB:56:AB:DC:8B:F3:A6:1E:F4:93:60:89:B7:05:07:29:01:2C

            X509v3 Basic Constraints: 
                CA:TRUE
            X509v3 Subject Alternative Name: 
                DNS:example.com, IP Address:127.0.0.1
            X509v3 Extended Key Usage: 
                TLS Web Server Authentication, TLS Web Client Authentication
    Signature Algorithm: sha256WithRSAEncryption
         64:6d:a6:4a:a8:9f:a7:e9:75:2c:f3:85:3d:3e:af:38:fb:6c:
         c7:eb:c7:d0:2b:a2:45:b5:65:be:d0:13:2c:f7:a3:c1:eb:3c:
         b1:f8:b8:3d:63:8f:ca:08:4e:65:1d:2c:ce:34:6e:35:96:87:
         93:30:5d:aa:c8:e9:a0:9c:9b:84:78:3a:52:a1:33:48:6e:84:
         66:71:9c:cf:d1:c7:7b:02:4c:e1:49:7c:69:47:fc:b7:01:f9:
         a0:39:3b:ab:b9:c6:d9:ca:27:85:f0:5c:b6:a4:e6:dc:f2:52:
         fe:44:00:b6:f0:47:f2:6f:3f:d5:0f:ff:31:93:53:88:8c:c7:
         fb:56:10:4b:3b:43:e6:8a:9c:b7:b4:9a:dd:5c:e3:cd:9c:bd:
         a7:0c:c1:d9:96:f0:93:f3:ab:bd:d2:1e:77:8a:42:cd:0f:fe:
         48:da:57:34:61:46:a3:89:2e:31:d2:4a:d4:43:2f:56:85:44:
         75:ca:6b:36:e2:e8:3a:b2:95:95:3a:28:90:8d:c0:23:fb:3c:
         d2:1a:73:6b:ef:fd:d6:1b:eb:6d:67:2a:e1:eb:2a:83:22:ad:
         e3:95:19:e5:93:ee:14:dc:b5:7d:e7:cf:89:8c:d7:8f:d2:3f:
         68:7e:a9:74:7c:1b:38:65:f9:28:4d:ff:50:c8:ee:51:3a:8f:
         1d:9e:55:5e
-----BEGIN CERTIFICATE-----
MIIFHTCCBAWgAwIBAgIUARrrVqvci/OmHvSTYIm3BQcpASwwDQYJKoZIhvcNAQEL
BQAwgZ4xCzAJBgNVBAYTAlVTMRAwDgYDVQQIDAdNb250YW5hMRAwDgYDVQQHDAdC
b3plbWFuMRUwEwYDVQQKDAx3b2xmU1NMXzIwNDgxGTAXBgNVBAsMEFByb2dyYW1t
aW5nLTIwNDgxGDAWBgNVBAMMD3d3dy53b2xmc3NsLmNvbTEfMB0GCSqGSIb3DQEJ
ARYQaW5mb0B3b2xmc3NsLmNvbTAeFw0yMjAyMTUxMjUwMjRaFw0yNDExMTExMjUw
MjRaMIGeMQswCQYDVQQGEwJVUzEQMA4GA1UECAwHTW9udGFuYTEQMA4GA1UEBwwH
Qm96ZW1hbjEVMBMGA1UECgwMd29sZlNTTF8yMDQ4MRkwFwYDVQQLDBBQcm9ncmFt
bWluZy0yMDQ4MRgwFgYDVQQDDA93d3cud29sZnNzbC5jb20xHzAdBgkqhkiG9w0B
CQEWEGluZm9Ad29sZnNzbC5jb20wggEiMA0GCSqGSIb3DQEBAQUAA4IBDwAwggEK
AoIBAQDDA9Er/jmkMkU7U8iEKyp8dJq9qipSB0fWpjayBzKO0Lppe8bDRJ7UgUj9
LWiii2e7oXXINixK0hv3i7rPDfnv7PGBHnubA0eav2XMf2UkaaboFIlb5DT3xbAU
k/Vnezp6eOEBVlaRphNCjdI8QJxM79GG3zdRGwyhO/Xxo0o15OHOlt8bfr9Ol9AQ
6KgIMIGvIAtDFMV0Z7Qygm+NhsKIQJk2g7oeQHIiF9dSZSRzsM7vGc2u/3hse8AS
A9ROcg1QbTujO6OZXp3I2QyFs9mK2VQm2236rLv/JUzE0Xn0cdOGQBgTsGO1ck4w
xJeEhi1WL9cV93/ArvX8W+X7obrTAgMBAAGjggFPMIIBSzAdBgNVHQ4EFgQUM9hF
Ztdohxh+VA1wJ5HHJteFZcAwgd4GA1UdIwSB1jCB04AUM9hFZtdohxh+VA1wJ5HH
JteFZcChgaSkgaEwgZ4xCzAJBgNVBAYTAlVTMRAwDgYDVQQIDAdNb250YW5hMRAw
DgYDVQQHDAdCb3plbWFuMRUwEwYDVQQKDAx3b2xmU1NMXzIwNDgxGTAXBgNVBAsM
EFByb2dyYW1taW5nLTIwNDgxGDAWBgNVBAMMD3d3dy53b2xmc3NsLmNvbTEfMB0G
CSqGSIb3DQEJARYQaW5mb0B3b2xmc3NsLmNvbYIUARrrVqvci/OmHvSTYIm3BQcp
ASwwDAYDVR0TBAUwAwEB/zAcBgNVHREEFTATggtleGFtcGxlLmNvbYcEfwAAATAd
BgNVHSUEFjAUBggrBgEFBQcDAQYIKwYBBQUHAwIwDQYJKoZIhvcNAQELBQADggEB
AGRtpkqon6fpdSzzhT0+rzj7bMfrx9ArokW1Zb7QEyz3o8HrPLH4uD1jj8oITmUd
LM40bjWWh5MwXarI6aCcm4R4OlKhM0huhGZxnM/Rx3sCTOFJfGlH/LcB+aA5O6u5
xtnKJ4XwXLak5tzyUv5EALbwR/JvP9UP/zGTU4iMx/tWEEs7Q+aKnLe0mt1c482c
vacMwdmW8JPzq73SHneKQs0P/kjaVzRhRqOJLjHSStRDL1aFRHXKazbi6DqylZU6
KJCNwCP7PNIac2vv/dYb621nKuHrKoMireOVGeWT7hTctX3nz4mM14/SP2h+qXR8
Gzhl+ShN/1DI7lE6jx2eVV4=
-----END CERTIFICATE-----
