Certificate:
    Data:
        Version: 3 (0x2)
        Serial Number:
            15:7a:fc:3f:63:cb:8d:db:76:d2:2a:71:25:78:b6:f5:cf:38:51:1c
        Signature Algorithm: ecdsa-with-SHA256
        Issuer: C = US, ST = Oregon, L = Salem, O = Client ECC, OU = Fast, CN = www.wolfssl.com, emailAddress = info@wolfssl.com
        Validity
            Not Before: May  7 07:39:04 2020 GMT
            Not After : Feb  1 07:39:04 2023 GMT
        Subject: C = US, ST = Oregon, L = Salem, O = Client ECC, OU = Fast, CN = www.wolfssl.com, emailAddress = info@wolfssl.com
        Subject Public Key Info:
            Public Key Algorithm: id-ecPublicKey
                Public-Key: (256 bit)
                pub:
                    04:55:bf:f4:0f:44:50:9a:3d:ce:9b:b7:f0:c5:4d:
                    f5:70:7b:d4:ec:24:8e:19:80:ec:5a:4c:a2:24:03:
                    62:2c:9b:da:ef:a2:35:12:43:84:76:16:c6:56:95:
                    06:cc:01:a9:bd:f6:75:1a:42:f7:bd:a9:b2:36:22:
                    5f:c7:5d:7f:b4
                ASN1 OID: prime256v1
                NIST CURVE: P-256
        X509v3 extensions:
            X509v3 Subject Key Identifier: 
                EB:D4:4B:59:6B:95:61:3F:51:57:B6:04:4D:89:41:88:44:5C:AB:F2
            X509v3 Authority Key Identifier: 
                keyid:EB:D4:4B:59:6B:95:61:3F:51:57:B6:04:4D:89:41:88:44:5C:AB:F2
                DirName:/C=US/ST=Oregon/L=Salem/O=Client ECC/OU=Fast/CN=www.wolfssl.com/emailAddress=info@wolfssl.com
                serial:15:7A:FC:3F:63:CB:8D:DB:76:D2:2A:71:25:78:B6:F5:CF:38:51:1C

            X509v3 Basic Constraints: 
                CA:TRUE
            X509v3 Subject Alternative Name: 
                DNS:example.com, IP Address:127.0.0.1
    Signature Algorithm: ecdsa-with-SHA256
         30:45:02:21:00:9d:66:d9:5e:ea:33:82:61:20:17:fa:3e:55:
         c5:e1:45:fc:64:8c:9d:57:06:77:16:6c:c8:04:a6:3a:9e:b1:
         61:02:20:05:b9:c0:2b:6b:21:0e:45:6b:2d:b4:15:62:80:28:
         2a:f1:b3:e0:4d:d2:68:ae:8a:4e:2e:5b:83:e2:3d:04:b1
-----BEGIN CERTIFICATE-----
MIIDPzCCAuWgAwIBAgIUFXr8P2PLjdt20ipxJXi29c84URwwCgYIKoZIzj0EAwIw
gY0xCzAJBgNVBAYTAlVTMQ8wDQYDVQQIDAZPcmVnb24xDjAMBgNVBAcMBVNhbGVt
MRMwEQYDVQQKDApDbGllbnQgRUNDMQ0wCwYDVQQLDARGYXN0MRgwFgYDVQQDDA93
d3cud29sZnNzbC5jb20xHzAdBgkqhkiG9w0BCQEWEGluZm9Ad29sZnNzbC5jb20w
HhcNMjAwNTA3MDczOTA0WhcNMjMwMjAxMDczOTA0WjCBjTELMAkGA1UEBhMCVVMx
DzANBgNVBAgMBk9yZWdvbjEOMAwGA1UEBwwFU2FsZW0xEzARBgNVBAoMCkNsaWVu
dCBFQ0MxDTALBgNVBAsMBEZhc3QxGDAWBgNVBAMMD3d3dy53b2xmc3NsLmNvbTEf
MB0GCSqGSIb3DQEJARYQaW5mb0B3b2xmc3NsLmNvbTBZMBMGByqGSM49AgEGCCqG
SM49AwEHA0IABFW/9A9EUJo9zpu38MVN9XB71OwkjhmA7FpMoiQDYiyb2u+iNRJD
hHYWxlaVBswBqb32dRpC972psjYiX8ddf7SjggEfMIIBGzAdBgNVHQ4EFgQU69RL
WWuVYT9RV7YETYlBiERcq/Iwgc0GA1UdIwSBxTCBwoAU69RLWWuVYT9RV7YETYlB
iERcq/KhgZOkgZAwgY0xCzAJBgNVBAYTAlVTMQ8wDQYDVQQIDAZPcmVnb24xDjAM
BgNVBAcMBVNhbGVtMRMwEQYDVQQKDApDbGllbnQgRUNDMQ0wCwYDVQQLDARGYXN0
MRgwFgYDVQQDDA93d3cud29sZnNzbC5jb20xHzAdBgkqhkiG9w0BCQEWEGluZm9A
d29sZnNzbC5jb22CFBV6/D9jy43bdtIqcSV4tvXPOFEcMAwGA1UdEwQFMAMBAf8w
HAYDVR0RBBUwE4ILZXhhbXBsZS5jb22HBH8AAAEwCgYIKoZIzj0EAwIDSAAwRQIh
AJ1m2V7qM4JhIBf6PlXF4UX8ZIydVwZ3FmzIBKY6nrFhAiAFucArayEORWsttBVi
gCgq8bPgTdJoropOLluD4j0EsQ==
-----END CERTIFICATE-----
