Certificate:
    Data:
        Version: 3 (0x2)
        Serial Number:
            36:5c:68:33:d4:ad:f2:ad:80:43:e8:2d:82:e9:24:81:13:03:85:f8
        Signature Algorithm: ecdsa-with-SHA256
        Issuer: C = US, ST = Oregon, L = Salem, O = Client ECC, OU = Fast, CN = www.wolfssl.com, emailAddress = info@wolfssl.com
        Validity
            Not Before: Sep 26 17:22:42 2023 GMT
            Not After : Jun 22 17:22:42 2026 GMT
        Subject: C = US, ST = Oregon, L = Salem, O = Client ECC, OU = Fast, CN = www.wolfssl.com, emailAddress = info@wolfssl.com
        Subject Public Key Info:
            Public Key Algorithm: id-ecPublicKey
                Public-Key: (256 bit)
                pub:
                    04:55:bf:f4:0f:44:50:9a:3d:ce:9b:b7:f0:c5:4d:
                    f5:70:7b:d4:ec:24:8e:19:80:ec:5a:4c:a2:24:03:
                    62:2c:9b:da:ef:a2:35:12:43:84:76:16:c6:56:95:
                    06:cc:01:a9:bd:f6:75:1a:42:f7:bd:a9:b2:36:22:
                    5f:c7:5d:7f:b4
                ASN1 OID: prime256v1
                NIST CURVE: P-256
        X509v3 extensions:
            X509v3 Subject Key Identifier: 
                EB:D4:4B:59:6B:95:61:3F:51:57:B6:04:4D:89:41:88:44:5C:AB:F2
            X509v3 Authority Key Identifier: 
                keyid:EB:D4:4B:59:6B:95:61:3F:51:57:B6:04:4D:89:41:88:44:5C:AB:F2
                DirName:/C=US/ST=Oregon/L=Salem/O=Client ECC/OU=Fast/CN=www.wolfssl.com/emailAddress=info@wolfssl.com
                serial:36:5C:68:33:D4:AD:F2:AD:80:43:E8:2D:82:E9:24:81:13:03:85:F8
            X509v3 Basic Constraints: 
                CA:TRUE
            X509v3 Subject Alternative Name: 
                DNS:example.com, IP Address:127.0.0.1
            X509v3 Extended Key Usage: 
                TLS Web Server Authentication, TLS Web Client Authentication
    Signature Algorithm: ecdsa-with-SHA256
    Signature Value:
        30:44:02:20:3a:ec:24:f1:6a:06:9d:e6:15:90:c5:41:da:6d:
        4d:39:bb:eb:13:0c:20:27:f6:32:2c:c4:d7:f6:36:82:10:32:
        02:20:4e:b5:37:bb:df:6e:1f:06:cc:6e:e8:2a:9d:ad:24:a0:
        f8:9b:68:31:38:83:93:a1:b3:91:7d:ad:72:e1:28:c8
-----BEGIN CERTIFICATE-----
MIIDXTCCAwSgAwIBAgIUNlxoM9St8q2AQ+gtgukkgRMDhfgwCgYIKoZIzj0EAwIw
gY0xCzAJBgNVBAYTAlVTMQ8wDQYDVQQIDAZPcmVnb24xDjAMBgNVBAcMBVNhbGVt
MRMwEQYDVQQKDApDbGllbnQgRUNDMQ0wCwYDVQQLDARGYXN0MRgwFgYDVQQDDA93
d3cud29sZnNzbC5jb20xHzAdBgkqhkiG9w0BCQEWEGluZm9Ad29sZnNzbC5jb20w
HhcNMjMwOTI2MTcyMjQyWhcNMjYwNjIyMTcyMjQyWjCBjTELMAkGA1UEBhMCVVMx
DzANBgNVBAgMBk9yZWdvbjEOMAwGA1UEBwwFU2FsZW0xEzARBgNVBAoMCkNsaWVu
dCBFQ0MxDTALBgNVBAsMBEZhc3QxGDAWBgNVBAMMD3d3dy53b2xmc3NsLmNvbTEf
MB0GCSqGSIb3DQEJARYQaW5mb0B3b2xmc3NsLmNvbTBZMBMGByqGSM49AgEGCCqG
SM49AwEHA0IABFW/9A9EUJo9zpu38MVN9XB71OwkjhmA7FpMoiQDYiyb2u+iNRJD
hHYWxlaVBswBqb32dRpC972psjYiX8ddf7SjggE+MIIBOjAdBgNVHQ4EFgQU69RL
WWuVYT9RV7YETYlBiERcq/Iwgc0GA1UdIwSBxTCBwoAU69RLWWuVYT9RV7YETYlB
iERcq/KhgZOkgZAwgY0xCzAJBgNVBAYTAlVTMQ8wDQYDVQQIDAZPcmVnb24xDjAM
BgNVBAcMBVNhbGVtMRMwEQYDVQQKDApDbGllbnQgRUNDMQ0wCwYDVQQLDARGYXN0
MRgwFgYDVQQDDA93d3cud29sZnNzbC5jb20xHzAdBgkqhkiG9w0BCQEWEGluZm9A
d29sZnNzbC5jb22CFDZcaDPUrfKtgEPoLYLpJIETA4X4MAwGA1UdEwQFMAMBAf8w
HAYDVR0RBBUwE4ILZXhhbXBsZS5jb22HBH8AAAEwHQYDVR0lBBYwFAYIKwYBBQUH
AwEGCCsGAQUFBwMCMAoGCCqGSM49BAMCA0cAMEQCIDrsJPFqBp3mFZDFQdptTTm7
6xMMICf2MizE1/Y2ghAyAiBOtTe7324fBsxu6CqdrSSg+JtoMTiDk6GzkX2tcuEo
yA==
-----END CERTIFICATE-----
