Certificate:
    Data:
        Version: 3 (0x2)
        Serial Number:
            02:f4:19:c0:e7:0a:07:8d:10:b6:e1:74:6f:e7:ce:da:e6:35:56:06
        Signature Algorithm: ecdsa-with-SHA256
        Issuer: C=US, ST=Oregon, L=Salem, O=Client ECC, OU=Fast, CN=www.wolfssl.com, emailAddress=info@wolfssl.com
        Validity
            Not Before: Nov 13 20:41:15 2025 GMT
            Not After : Aug  9 20:41:15 2028 GMT
        Subject: C=US, ST=Oregon, L=Salem, O=Client ECC, OU=Fast, CN=www.wolfssl.com, emailAddress=info@wolfssl.com
        Subject Public Key Info:
            Public Key Algorithm: id-ecPublicKey
                Public-Key: (256 bit)
                pub:
                    04:55:bf:f4:0f:44:50:9a:3d:ce:9b:b7:f0:c5:4d:
                    f5:70:7b:d4:ec:24:8e:19:80:ec:5a:4c:a2:24:03:
                    62:2c:9b:da:ef:a2:35:12:43:84:76:16:c6:56:95:
                    06:cc:01:a9:bd:f6:75:1a:42:f7:bd:a9:b2:36:22:
                    5f:c7:5d:7f:b4
                ASN1 OID: prime256v1
                NIST CURVE: P-256
        X509v3 extensions:
            X509v3 Subject Key Identifier: 
                EB:D4:4B:59:6B:95:61:3F:51:57:B6:04:4D:89:41:88:44:5C:AB:F2
            X509v3 Authority Key Identifier: 
                keyid:EB:D4:4B:59:6B:95:61:3F:51:57:B6:04:4D:89:41:88:44:5C:AB:F2
                DirName:/C=US/ST=Oregon/L=Salem/O=Client ECC/OU=Fast/CN=www.wolfssl.com/emailAddress=info@wolfssl.com
                serial:02:F4:19:C0:E7:0A:07:8D:10:B6:E1:74:6F:E7:CE:DA:E6:35:56:06
            X509v3 Basic Constraints: 
                CA:TRUE
            X509v3 Subject Alternative Name: 
                DNS:example.com, IP Address:127.0.0.1
            X509v3 Extended Key Usage: 
                TLS Web Server Authentication, TLS Web Client Authentication
    Signature Algorithm: ecdsa-with-SHA256
    Signature Value:
        30:44:02:20:13:c9:89:7e:31:21:9a:7b:1e:6c:cd:69:35:d1:
        99:9e:65:a4:9c:07:35:b0:fb:56:e9:3c:17:e6:4b:a3:76:d9:
        02:20:4a:e1:3e:e3:02:4c:f0:da:dd:c2:ac:7a:d1:41:0c:ef:
        e6:aa:a3:88:7b:cb:0b:13:df:fd:b5:7f:ff:5a:90:41
-----BEGIN CERTIFICATE-----
MIIDXTCCAwSgAwIBAgIUAvQZwOcKB40QtuF0b+fO2uY1VgYwCgYIKoZIzj0EAwIw
gY0xCzAJBgNVBAYTAlVTMQ8wDQYDVQQIDAZPcmVnb24xDjAMBgNVBAcMBVNhbGVt
MRMwEQYDVQQKDApDbGllbnQgRUNDMQ0wCwYDVQQLDARGYXN0MRgwFgYDVQQDDA93
d3cud29sZnNzbC5jb20xHzAdBgkqhkiG9w0BCQEWEGluZm9Ad29sZnNzbC5jb20w
HhcNMjUxMTEzMjA0MTE1WhcNMjgwODA5MjA0MTE1WjCBjTELMAkGA1UEBhMCVVMx
DzANBgNVBAgMBk9yZWdvbjEOMAwGA1UEBwwFU2FsZW0xEzARBgNVBAoMCkNsaWVu
dCBFQ0MxDTALBgNVBAsMBEZhc3QxGDAWBgNVBAMMD3d3dy53b2xmc3NsLmNvbTEf
MB0GCSqGSIb3DQEJARYQaW5mb0B3b2xmc3NsLmNvbTBZMBMGByqGSM49AgEGCCqG
SM49AwEHA0IABFW/9A9EUJo9zpu38MVN9XB71OwkjhmA7FpMoiQDYiyb2u+iNRJD
hHYWxlaVBswBqb32dRpC972psjYiX8ddf7SjggE+MIIBOjAdBgNVHQ4EFgQU69RL
WWuVYT9RV7YETYlBiERcq/Iwgc0GA1UdIwSBxTCBwoAU69RLWWuVYT9RV7YETYlB
iERcq/KhgZOkgZAwgY0xCzAJBgNVBAYTAlVTMQ8wDQYDVQQIDAZPcmVnb24xDjAM
BgNVBAcMBVNhbGVtMRMwEQYDVQQKDApDbGllbnQgRUNDMQ0wCwYDVQQLDARGYXN0
MRgwFgYDVQQDDA93d3cud29sZnNzbC5jb20xHzAdBgkqhkiG9w0BCQEWEGluZm9A
d29sZnNzbC5jb22CFAL0GcDnCgeNELbhdG/nztrmNVYGMAwGA1UdEwQFMAMBAf8w
HAYDVR0RBBUwE4ILZXhhbXBsZS5jb22HBH8AAAEwHQYDVR0lBBYwFAYIKwYBBQUH
AwEGCCsGAQUFBwMCMAoGCCqGSM49BAMCA0cAMEQCIBPJiX4xIZp7HmzNaTXRmZ5l
pJwHNbD7Vuk8F+ZLo3bZAiBK4T7jAkzw2t3CrHrRQQzv5qqjiHvLCxPf/bV//1qQ
QQ==
-----END CERTIFICATE-----
