Certificate:
    Data:
        Version: 3 (0x2)
        Serial Number:
            1d:83:d7:56:71:81:7d:3e:9e:99:ee:94:90:79:f5:cc:b4:98:0d:95
        Signature Algorithm: sha256WithRSAEncryption
        Issuer: C = US, ST = Montana, L = Bozeman, O = wolfSSL_2048, OU = URI, CN = www.wolfssl.com, emailAddress = info@wolfssl.com
        Validity
            Not Before: Sep 26 17:22:42 2023 GMT
            Not After : Jun 22 17:22:42 2026 GMT
        Subject: C = US, ST = Montana, L = Bozeman, O = wolfSSL_2048, OU = URI, CN = www.wolfssl.com, emailAddress = info@wolfssl.com
        Subject Public Key Info:
            Public Key Algorithm: rsaEncryption
                Public-Key: (2048 bit)
                Modulus:
                    00:c3:03:d1:2b:fe:39:a4:32:45:3b:53:c8:84:2b:
                    2a:7c:74:9a:bd:aa:2a:52:07:47:d6:a6:36:b2:07:
                    32:8e:d0:ba:69:7b:c6:c3:44:9e:d4:81:48:fd:2d:
                    68:a2:8b:67:bb:a1:75:c8:36:2c:4a:d2:1b:f7:8b:
                    ba:cf:0d:f9:ef:ec:f1:81:1e:7b:9b:03:47:9a:bf:
                    65:cc:7f:65:24:69:a6:e8:14:89:5b:e4:34:f7:c5:
                    b0:14:93:f5:67:7b:3a:7a:78:e1:01:56:56:91:a6:
                    13:42:8d:d2:3c:40:9c:4c:ef:d1:86:df:37:51:1b:
                    0c:a1:3b:f5:f1:a3:4a:35:e4:e1:ce:96:df:1b:7e:
                    bf:4e:97:d0:10:e8:a8:08:30:81:af:20:0b:43:14:
                    c5:74:67:b4:32:82:6f:8d:86:c2:88:40:99:36:83:
                    ba:1e:40:72:22:17:d7:52:65:24:73:b0:ce:ef:19:
                    cd:ae:ff:78:6c:7b:c0:12:03:d4:4e:72:0d:50:6d:
                    3b:a3:3b:a3:99:5e:9d:c8:d9:0c:85:b3:d9:8a:d9:
                    54:26:db:6d:fa:ac:bb:ff:25:4c:c4:d1:79:f4:71:
                    d3:86:40:18:13:b0:63:b5:72:4e:30:c4:97:84:86:
                    2d:56:2f:d7:15:f7:7f:c0:ae:f5:fc:5b:e5:fb:a1:
                    ba:d3
                Exponent: 65537 (0x10001)
        X509v3 extensions:
            X509v3 Subject Key Identifier: 
                33:D8:45:66:D7:68:87:18:7E:54:0D:70:27:91:C7:26:D7:85:65:C0
            X509v3 Authority Key Identifier: 
                keyid:33:D8:45:66:D7:68:87:18:7E:54:0D:70:27:91:C7:26:D7:85:65:C0
                DirName:/C=US/ST=Montana/L=Bozeman/O=wolfSSL_2048/OU=URI/CN=www.wolfssl.com/emailAddress=info@wolfssl.com
                serial:1D:83:D7:56:71:81:7D:3E:9E:99:EE:94:90:79:F5:CC:B4:98:0D:95
            X509v3 Basic Constraints: 
                CA:FALSE
            X509v3 Subject Alternative Name: 
                URI:https://www.wolfssl.com
    Signature Algorithm: sha256WithRSAEncryption
    Signature Value:
        91:c3:41:1a:2c:38:da:ba:52:a0:fd:6c:30:60:04:4c:ab:ab:
        c8:5c:38:25:45:a1:79:14:ad:4b:c0:c9:10:a4:c2:57:3d:fb:
        36:eb:bf:8e:17:c4:e9:3c:10:39:6a:98:92:4d:e0:27:b5:41:
        e5:48:0d:5a:8c:be:fb:33:f2:d9:fe:38:b5:c1:8c:e7:6c:e3:
        7b:ad:c0:63:ec:04:84:6a:10:e0:22:4d:fc:67:0a:db:cf:58:
        44:22:8f:7d:0e:54:fa:85:37:7d:07:a9:69:67:de:5b:5a:61:
        cf:65:18:0d:7f:0e:93:29:83:ae:ec:9f:68:78:1e:f5:60:f4:
        05:5f:5f:d0:97:f0:e8:2e:7d:b1:5c:2f:f4:48:f3:88:08:d9:
        b4:98:ce:37:3b:ed:98:43:6b:99:d3:b7:26:e2:bb:d2:3c:a3:
        85:04:5d:1d:9f:40:74:f1:e1:bb:e8:8d:12:b5:fc:0b:7f:b4:
        4e:3f:8c:92:8a:2b:99:bc:d7:06:d2:ac:a4:1c:dc:6d:03:77:
        16:a4:2c:2b:9c:d8:ed:52:d5:3a:7a:67:6e:87:6c:29:80:42:
        ab:5c:53:57:71:b8:2e:4f:78:83:b7:b4:bf:aa:0f:dd:f3:d4:
        0a:fd:c3:56:b6:bc:a1:2e:38:12:ac:d3:cc:c4:0c:d6:f2:2f:
        d9:0c:fd:f4
-----BEGIN CERTIFICATE-----
MIIE2jCCA8KgAwIBAgIUHYPXVnGBfT6eme6UkHn1zLSYDZUwDQYJKoZIhvcNAQEL
BQAwgZExCzAJBgNVBAYTAlVTMRAwDgYDVQQIDAdNb250YW5hMRAwDgYDVQQHDAdC
b3plbWFuMRUwEwYDVQQKDAx3b2xmU1NMXzIwNDgxDDAKBgNVBAsMA1VSSTEYMBYG
A1UEAwwPd3d3LndvbGZzc2wuY29tMR8wHQYJKoZIhvcNAQkBFhBpbmZvQHdvbGZz
c2wuY29tMB4XDTIzMDkyNjE3MjI0MloXDTI2MDYyMjE3MjI0MlowgZExCzAJBgNV
BAYTAlVTMRAwDgYDVQQIDAdNb250YW5hMRAwDgYDVQQHDAdCb3plbWFuMRUwEwYD
VQQKDAx3b2xmU1NMXzIwNDgxDDAKBgNVBAsMA1VSSTEYMBYGA1UEAwwPd3d3Lndv
bGZzc2wuY29tMR8wHQYJKoZIhvcNAQkBFhBpbmZvQHdvbGZzc2wuY29tMIIBIjAN
BgkqhkiG9w0BAQEFAAOCAQ8AMIIBCgKCAQEAwwPRK/45pDJFO1PIhCsqfHSavaoq
UgdH1qY2sgcyjtC6aXvGw0Se1IFI/S1oootnu6F1yDYsStIb94u6zw357+zxgR57
mwNHmr9lzH9lJGmm6BSJW+Q098WwFJP1Z3s6enjhAVZWkaYTQo3SPECcTO/Rht83
URsMoTv18aNKNeThzpbfG36/TpfQEOioCDCBryALQxTFdGe0MoJvjYbCiECZNoO6
HkByIhfXUmUkc7DO7xnNrv94bHvAEgPUTnINUG07ozujmV6dyNkMhbPZitlUJttt
+qy7/yVMxNF59HHThkAYE7BjtXJOMMSXhIYtVi/XFfd/wK71/Fvl+6G60wIDAQAB
o4IBJjCCASIwHQYDVR0OBBYEFDPYRWbXaIcYflQNcCeRxybXhWXAMIHRBgNVHSME
gckwgcaAFDPYRWbXaIcYflQNcCeRxybXhWXAoYGXpIGUMIGRMQswCQYDVQQGEwJV
UzEQMA4GA1UECAwHTW9udGFuYTEQMA4GA1UEBwwHQm96ZW1hbjEVMBMGA1UECgwM
d29sZlNTTF8yMDQ4MQwwCgYDVQQLDANVUkkxGDAWBgNVBAMMD3d3dy53b2xmc3Ns
LmNvbTEfMB0GCSqGSIb3DQEJARYQaW5mb0B3b2xmc3NsLmNvbYIUHYPXVnGBfT6e
me6UkHn1zLSYDZUwCQYDVR0TBAIwADAiBgNVHREEGzAZhhdodHRwczovL3d3dy53
b2xmc3NsLmNvbTANBgkqhkiG9w0BAQsFAAOCAQEAkcNBGiw42rpSoP1sMGAETKur
yFw4JUWheRStS8DJEKTCVz37Nuu/jhfE6TwQOWqYkk3gJ7VB5UgNWoy++zPy2f44
tcGM52zje63AY+wEhGoQ4CJN/GcK289YRCKPfQ5U+oU3fQepaWfeW1phz2UYDX8O
kymDruyfaHge9WD0BV9f0Jfw6C59sVwv9EjziAjZtJjONzvtmENrmdO3JuK70jyj
hQRdHZ9AdPHhu+iNErX8C3+0Tj+MkoormbzXBtKspBzcbQN3FqQsK5zY7VLVOnpn
bodsKYBCq1xTV3G4Lk94g7e0v6oP3fPUCv3DVra8oS44EqzTzMQM1vIv2Qz99A==
-----END CERTIFICATE-----
