Certificate:
    Data:
        Version: 3 (0x2)
        Serial Number:
            7b:16:f7:12:b0:51:4e:f5:f4:29:04:00:4f:91:6b:ed:db:e0:31:c6
        Signature Algorithm: sha256WithRSAEncryption
        Issuer: C = US, ST = Montana, L = Bozeman, O = wolfSSL_2048, OU = RELATIVE_URI, CN = www.wolfssl.com, emailAddress = info@wolfssl.com
        Validity
            Not Before: Sep 26 17:22:42 2023 GMT
            Not After : Jun 22 17:22:42 2026 GMT
        Subject: C = US, ST = Montana, L = Bozeman, O = wolfSSL_2048, OU = RELATIVE_URI, CN = www.wolfssl.com, emailAddress = info@wolfssl.com
        Subject Public Key Info:
            Public Key Algorithm: rsaEncryption
                Public-Key: (2048 bit)
                Modulus:
                    00:c3:03:d1:2b:fe:39:a4:32:45:3b:53:c8:84:2b:
                    2a:7c:74:9a:bd:aa:2a:52:07:47:d6:a6:36:b2:07:
                    32:8e:d0:ba:69:7b:c6:c3:44:9e:d4:81:48:fd:2d:
                    68:a2:8b:67:bb:a1:75:c8:36:2c:4a:d2:1b:f7:8b:
                    ba:cf:0d:f9:ef:ec:f1:81:1e:7b:9b:03:47:9a:bf:
                    65:cc:7f:65:24:69:a6:e8:14:89:5b:e4:34:f7:c5:
                    b0:14:93:f5:67:7b:3a:7a:78:e1:01:56:56:91:a6:
                    13:42:8d:d2:3c:40:9c:4c:ef:d1:86:df:37:51:1b:
                    0c:a1:3b:f5:f1:a3:4a:35:e4:e1:ce:96:df:1b:7e:
                    bf:4e:97:d0:10:e8:a8:08:30:81:af:20:0b:43:14:
                    c5:74:67:b4:32:82:6f:8d:86:c2:88:40:99:36:83:
                    ba:1e:40:72:22:17:d7:52:65:24:73:b0:ce:ef:19:
                    cd:ae:ff:78:6c:7b:c0:12:03:d4:4e:72:0d:50:6d:
                    3b:a3:3b:a3:99:5e:9d:c8:d9:0c:85:b3:d9:8a:d9:
                    54:26:db:6d:fa:ac:bb:ff:25:4c:c4:d1:79:f4:71:
                    d3:86:40:18:13:b0:63:b5:72:4e:30:c4:97:84:86:
                    2d:56:2f:d7:15:f7:7f:c0:ae:f5:fc:5b:e5:fb:a1:
                    ba:d3
                Exponent: 65537 (0x10001)
        X509v3 extensions:
            X509v3 Subject Key Identifier: 
                33:D8:45:66:D7:68:87:18:7E:54:0D:70:27:91:C7:26:D7:85:65:C0
            X509v3 Authority Key Identifier: 
                keyid:33:D8:45:66:D7:68:87:18:7E:54:0D:70:27:91:C7:26:D7:85:65:C0
                DirName:/C=US/ST=Montana/L=Bozeman/O=wolfSSL_2048/OU=RELATIVE_URI/CN=www.wolfssl.com/emailAddress=info@wolfssl.com
                serial:7B:16:F7:12:B0:51:4E:F5:F4:29:04:00:4F:91:6B:ED:DB:E0:31:C6
            X509v3 Basic Constraints: 
                CA:FALSE
            X509v3 Subject Alternative Name: 
                URI:../relative/page.html
    Signature Algorithm: sha256WithRSAEncryption
    Signature Value:
        6a:07:f7:ce:da:44:db:48:bd:72:b1:1b:6e:48:54:45:3e:5c:
        84:dc:33:1e:15:2a:a1:8e:2c:b1:e6:7e:db:ce:e5:bd:d0:1d:
        cf:ef:20:8a:28:37:51:98:98:b7:f3:0a:9b:1f:db:e4:99:3e:
        f9:45:a8:7f:7d:62:e4:10:dc:06:29:34:6d:84:21:cf:86:1f:
        0b:f4:09:18:51:d1:ef:d0:1e:c7:5d:79:6d:14:c6:5b:fd:d2:
        15:64:7b:ba:82:99:54:04:af:91:2c:44:f9:3c:a1:f5:9a:08:
        45:a0:ba:a5:29:5b:a6:c6:6e:62:11:7b:71:86:9e:9d:74:a5:
        66:d1:df:63:07:93:d9:26:11:e9:96:43:00:15:7f:35:ce:25:
        8e:1c:7a:0d:67:04:e5:57:bb:e3:a7:41:5a:b3:01:24:84:81:
        0c:40:a8:bc:6f:45:b9:42:e1:8f:dd:f3:f8:d5:65:43:85:fe:
        56:f7:83:02:0b:75:5f:0a:25:b0:08:7c:e9:39:f0:b5:01:8d:
        7d:b0:14:3f:19:64:45:93:f1:26:7f:ea:6f:20:9c:f9:2e:4c:
        93:e9:18:4b:3a:20:1f:35:0d:35:34:8d:a4:c0:c6:c4:94:eb:
        97:b0:62:ee:49:2b:fa:4f:b4:f2:42:8d:fb:fc:e1:70:48:f1:
        2e:38:2c:93
-----BEGIN CERTIFICATE-----
MIIE8zCCA9ugAwIBAgIUexb3ErBRTvX0KQQAT5Fr7dvgMcYwDQYJKoZIhvcNAQEL
BQAwgZoxCzAJBgNVBAYTAlVTMRAwDgYDVQQIDAdNb250YW5hMRAwDgYDVQQHDAdC
b3plbWFuMRUwEwYDVQQKDAx3b2xmU1NMXzIwNDgxFTATBgNVBAsMDFJFTEFUSVZF
X1VSSTEYMBYGA1UEAwwPd3d3LndvbGZzc2wuY29tMR8wHQYJKoZIhvcNAQkBFhBp
bmZvQHdvbGZzc2wuY29tMB4XDTIzMDkyNjE3MjI0MloXDTI2MDYyMjE3MjI0Mlow
gZoxCzAJBgNVBAYTAlVTMRAwDgYDVQQIDAdNb250YW5hMRAwDgYDVQQHDAdCb3pl
bWFuMRUwEwYDVQQKDAx3b2xmU1NMXzIwNDgxFTATBgNVBAsMDFJFTEFUSVZFX1VS
STEYMBYGA1UEAwwPd3d3LndvbGZzc2wuY29tMR8wHQYJKoZIhvcNAQkBFhBpbmZv
QHdvbGZzc2wuY29tMIIBIjANBgkqhkiG9w0BAQEFAAOCAQ8AMIIBCgKCAQEAwwPR
K/45pDJFO1PIhCsqfHSavaoqUgdH1qY2sgcyjtC6aXvGw0Se1IFI/S1oootnu6F1
yDYsStIb94u6zw357+zxgR57mwNHmr9lzH9lJGmm6BSJW+Q098WwFJP1Z3s6enjh
AVZWkaYTQo3SPECcTO/Rht83URsMoTv18aNKNeThzpbfG36/TpfQEOioCDCBryAL
QxTFdGe0MoJvjYbCiECZNoO6HkByIhfXUmUkc7DO7xnNrv94bHvAEgPUTnINUG07
ozujmV6dyNkMhbPZitlUJttt+qy7/yVMxNF59HHThkAYE7BjtXJOMMSXhIYtVi/X
Ffd/wK71/Fvl+6G60wIDAQABo4IBLTCCASkwHQYDVR0OBBYEFDPYRWbXaIcYflQN
cCeRxybXhWXAMIHaBgNVHSMEgdIwgc+AFDPYRWbXaIcYflQNcCeRxybXhWXAoYGg
pIGdMIGaMQswCQYDVQQGEwJVUzEQMA4GA1UECAwHTW9udGFuYTEQMA4GA1UEBwwH
Qm96ZW1hbjEVMBMGA1UECgwMd29sZlNTTF8yMDQ4MRUwEwYDVQQLDAxSRUxBVElW
RV9VUkkxGDAWBgNVBAMMD3d3dy53b2xmc3NsLmNvbTEfMB0GCSqGSIb3DQEJARYQ
aW5mb0B3b2xmc3NsLmNvbYIUexb3ErBRTvX0KQQAT5Fr7dvgMcYwCQYDVR0TBAIw
ADAgBgNVHREEGTAXhhUuLi9yZWxhdGl2ZS9wYWdlLmh0bWwwDQYJKoZIhvcNAQEL
BQADggEBAGoH987aRNtIvXKxG25IVEU+XITcMx4VKqGOLLHmftvO5b3QHc/vIIoo
N1GYmLfzCpsf2+SZPvlFqH99YuQQ3AYpNG2EIc+GHwv0CRhR0e/QHsddeW0Uxlv9
0hVke7qCmVQEr5EsRPk8ofWaCEWguqUpW6bGbmIRe3GGnp10pWbR32MHk9kmEemW
QwAVfzXOJY4ceg1nBOVXu+OnQVqzASSEgQxAqLxvRblC4Y/d8/jVZUOF/lb3gwIL
dV8KJbAIfOk58LUBjX2wFD8ZZEWT8SZ/6m8gnPkuTJPpGEs6IB81DTU0jaTAxsSU
65ewYu5JK/pPtPJCjfv84XBI8S44LJM=
-----END CERTIFICATE-----
