Certificate:
    Data:
        Version: 3 (0x2)
        Serial Number:
            4e:b5:44:5a:f6:c7:eb:36:14:4d:24:cf:36:17:41:be:87:f1:52:d9
        Signature Algorithm: sha256WithRSAEncryption
        Issuer: C = US, ST = Montana, L = Bozeman, O = wolfSSL_2048, OU = CRL_DIST, CN = www.wolfssl.com, emailAddress = info@wolfssl.com
        Validity
            Not Before: Aug  5 20:11:31 2021 GMT
            Not After : May  1 20:11:31 2024 GMT
        Subject: C = US, ST = Montana, L = Bozeman, O = wolfSSL_2048, OU = CRL_DIST, CN = www.wolfssl.com, emailAddress = info@wolfssl.com
        Subject Public Key Info:
            Public Key Algorithm: rsaEncryption
                RSA Public-Key: (2048 bit)
                Modulus:
                    00:c3:03:d1:2b:fe:39:a4:32:45:3b:53:c8:84:2b:
                    2a:7c:74:9a:bd:aa:2a:52:07:47:d6:a6:36:b2:07:
                    32:8e:d0:ba:69:7b:c6:c3:44:9e:d4:81:48:fd:2d:
                    68:a2:8b:67:bb:a1:75:c8:36:2c:4a:d2:1b:f7:8b:
                    ba:cf:0d:f9:ef:ec:f1:81:1e:7b:9b:03:47:9a:bf:
                    65:cc:7f:65:24:69:a6:e8:14:89:5b:e4:34:f7:c5:
                    b0:14:93:f5:67:7b:3a:7a:78:e1:01:56:56:91:a6:
                    13:42:8d:d2:3c:40:9c:4c:ef:d1:86:df:37:51:1b:
                    0c:a1:3b:f5:f1:a3:4a:35:e4:e1:ce:96:df:1b:7e:
                    bf:4e:97:d0:10:e8:a8:08:30:81:af:20:0b:43:14:
                    c5:74:67:b4:32:82:6f:8d:86:c2:88:40:99:36:83:
                    ba:1e:40:72:22:17:d7:52:65:24:73:b0:ce:ef:19:
                    cd:ae:ff:78:6c:7b:c0:12:03:d4:4e:72:0d:50:6d:
                    3b:a3:3b:a3:99:5e:9d:c8:d9:0c:85:b3:d9:8a:d9:
                    54:26:db:6d:fa:ac:bb:ff:25:4c:c4:d1:79:f4:71:
                    d3:86:40:18:13:b0:63:b5:72:4e:30:c4:97:84:86:
                    2d:56:2f:d7:15:f7:7f:c0:ae:f5:fc:5b:e5:fb:a1:
                    ba:d3
                Exponent: 65537 (0x10001)
        X509v3 extensions:
            X509v3 CRL Distribution Points: 

                Full Name:
                  URI:http://www.wolfssl.com/crl.pem

    Signature Algorithm: sha256WithRSAEncryption
         09:17:d1:10:ce:7d:ae:6f:ec:cf:5e:1d:38:1e:87:3b:41:7c:
         30:b1:83:80:f8:6f:6d:4b:c9:91:f0:5c:cc:11:58:cf:ab:cd:
         84:30:c2:e3:76:01:87:47:3a:ee:d9:1b:56:f6:dd:7a:4e:8c:
         db:a9:af:46:98:56:80:81:57:e2:2d:e7:0d:bb:a4:3e:b4:b3:
         d4:9d:fd:cc:06:56:13:4d:c0:18:2a:f0:4c:b9:2e:af:26:a6:
         3a:2f:02:77:93:7d:92:de:c0:69:96:d4:c3:65:1e:6e:f8:7c:
         c6:9b:12:87:a3:dd:9c:53:a7:e4:8f:d8:1e:cb:6c:0f:34:25:
         a5:4a:70:f5:d8:de:44:dd:d9:f1:53:ed:3c:5d:77:0d:03:ae:
         a5:6b:98:c2:53:d2:72:7f:7f:ee:ff:e3:2c:a0:56:be:c1:a7:
         a3:16:9d:8e:0a:3c:69:1f:35:b1:31:00:0f:f4:72:a3:0a:e6:
         6f:87:9b:e1:b2:e6:bd:57:fd:d2:84:99:48:dc:07:37:c4:a1:
         c9:ad:55:6e:98:db:64:dc:74:83:21:32:9c:a8:a9:66:e6:06:
         60:1d:22:86:70:61:6a:13:27:c7:7b:50:b3:37:cc:b2:cb:39:
         fd:b6:02:60:c1:52:de:51:f1:fb:62:46:22:8a:37:ac:f0:17:
         fe:42:79:cd
-----BEGIN CERTIFICATE-----
MIID7zCCAtegAwIBAgIUTrVEWvbH6zYUTSTPNhdBvofxUtkwDQYJKoZIhvcNAQEL
BQAwgZYxCzAJBgNVBAYTAlVTMRAwDgYDVQQIDAdNb250YW5hMRAwDgYDVQQHDAdC
b3plbWFuMRUwEwYDVQQKDAx3b2xmU1NMXzIwNDgxETAPBgNVBAsMCENSTF9ESVNU
MRgwFgYDVQQDDA93d3cud29sZnNzbC5jb20xHzAdBgkqhkiG9w0BCQEWEGluZm9A
d29sZnNzbC5jb20wHhcNMjEwODA1MjAxMTMxWhcNMjQwNTAxMjAxMTMxWjCBljEL
MAkGA1UEBhMCVVMxEDAOBgNVBAgMB01vbnRhbmExEDAOBgNVBAcMB0JvemVtYW4x
FTATBgNVBAoMDHdvbGZTU0xfMjA0ODERMA8GA1UECwwIQ1JMX0RJU1QxGDAWBgNV
BAMMD3d3dy53b2xmc3NsLmNvbTEfMB0GCSqGSIb3DQEJARYQaW5mb0B3b2xmc3Ns
LmNvbTCCASIwDQYJKoZIhvcNAQEBBQADggEPADCCAQoCggEBAMMD0Sv+OaQyRTtT
yIQrKnx0mr2qKlIHR9amNrIHMo7Quml7xsNEntSBSP0taKKLZ7uhdcg2LErSG/eL
us8N+e/s8YEee5sDR5q/Zcx/ZSRppugUiVvkNPfFsBST9Wd7Onp44QFWVpGmE0KN
0jxAnEzv0YbfN1EbDKE79fGjSjXk4c6W3xt+v06X0BDoqAgwga8gC0MUxXRntDKC
b42GwohAmTaDuh5AciIX11JlJHOwzu8Zza7/eGx7wBID1E5yDVBtO6M7o5lencjZ
DIWz2YrZVCbbbfqsu/8lTMTRefRx04ZAGBOwY7VyTjDEl4SGLVYv1xX3f8Cu9fxb
5fuhutMCAwEAAaMzMDEwLwYDVR0fBCgwJjAkoCKgIIYeaHR0cDovL3d3dy53b2xm
c3NsLmNvbS9jcmwucGVtMA0GCSqGSIb3DQEBCwUAA4IBAQAJF9EQzn2ub+zPXh04
Hoc7QXwwsYOA+G9tS8mR8FzMEVjPq82EMMLjdgGHRzru2RtW9t16Tozbqa9GmFaA
gVfiLecNu6Q+tLPUnf3MBlYTTcAYKvBMuS6vJqY6LwJ3k32S3sBpltTDZR5u+HzG
mxKHo92cU6fkj9gey2wPNCWlSnD12N5E3dnxU+08XXcNA66la5jCU9Jyf3/u/+Ms
oFa+waejFp2OCjxpHzWxMQAP9HKjCuZvh5vhsua9V/3ShJlI3Ac3xKHJrVVumNtk
3HSDITKcqKlm5gZgHSKGcGFqEyfHe1CzN8yyyzn9tgJgwVLeUfH7YkYiijes8Bf+
QnnN
-----END CERTIFICATE-----
