Certificate:
    Data:
        Version: 3 (0x2)
        Serial Number:
            4f:0d:8c:c5:fa:ee:a2:9b:b7:35:9e:e9:4a:17:99:f0:cc:23:f2:ec
        Signature Algorithm: sha256WithRSAEncryption
        Issuer: C = US, ST = Montana, L = Bozeman, O = wolfSSL_2048, OU = Programming-2048, CN = www.wolfssl.com, emailAddress = info@wolfssl.com
        Validity
            Not Before: Dec 18 21:25:29 2024 GMT
            Not After : Sep 14 21:25:29 2027 GMT
        Subject: C = US, ST = Montana, L = Bozeman, O = wolfSSL_2048, OU = Programming-2048, CN = www.wolfssl.com, emailAddress = info@wolfssl.com
        Subject Public Key Info:
            Public Key Algorithm: rsaEncryption
                Public-Key: (2048 bit)
                Modulus:
                    00:c3:03:d1:2b:fe:39:a4:32:45:3b:53:c8:84:2b:
                    2a:7c:74:9a:bd:aa:2a:52:07:47:d6:a6:36:b2:07:
                    32:8e:d0:ba:69:7b:c6:c3:44:9e:d4:81:48:fd:2d:
                    68:a2:8b:67:bb:a1:75:c8:36:2c:4a:d2:1b:f7:8b:
                    ba:cf:0d:f9:ef:ec:f1:81:1e:7b:9b:03:47:9a:bf:
                    65:cc:7f:65:24:69:a6:e8:14:89:5b:e4:34:f7:c5:
                    b0:14:93:f5:67:7b:3a:7a:78:e1:01:56:56:91:a6:
                    13:42:8d:d2:3c:40:9c:4c:ef:d1:86:df:37:51:1b:
                    0c:a1:3b:f5:f1:a3:4a:35:e4:e1:ce:96:df:1b:7e:
                    bf:4e:97:d0:10:e8:a8:08:30:81:af:20:0b:43:14:
                    c5:74:67:b4:32:82:6f:8d:86:c2:88:40:99:36:83:
                    ba:1e:40:72:22:17:d7:52:65:24:73:b0:ce:ef:19:
                    cd:ae:ff:78:6c:7b:c0:12:03:d4:4e:72:0d:50:6d:
                    3b:a3:3b:a3:99:5e:9d:c8:d9:0c:85:b3:d9:8a:d9:
                    54:26:db:6d:fa:ac:bb:ff:25:4c:c4:d1:79:f4:71:
                    d3:86:40:18:13:b0:63:b5:72:4e:30:c4:97:84:86:
                    2d:56:2f:d7:15:f7:7f:c0:ae:f5:fc:5b:e5:fb:a1:
                    ba:d3
                Exponent: 65537 (0x10001)
        X509v3 extensions:
            X509v3 Subject Key Identifier: 
                33:D8:45:66:D7:68:87:18:7E:54:0D:70:27:91:C7:26:D7:85:65:C0
            X509v3 Authority Key Identifier: 
                keyid:33:D8:45:66:D7:68:87:18:7E:54:0D:70:27:91:C7:26:D7:85:65:C0
                DirName:/C=US/ST=Montana/L=Bozeman/O=wolfSSL_2048/OU=Programming-2048/CN=www.wolfssl.com/emailAddress=info@wolfssl.com
                serial:4F:0D:8C:C5:FA:EE:A2:9B:B7:35:9E:E9:4A:17:99:F0:CC:23:F2:EC
            X509v3 Basic Constraints: 
                CA:TRUE
            X509v3 Subject Alternative Name: 
                DNS:example.com, IP Address:127.0.0.1
            X509v3 Extended Key Usage: 
                TLS Web Server Authentication, TLS Web Client Authentication
    Signature Algorithm: sha256WithRSAEncryption
    Signature Value:
        46:ab:e4:6d:ae:49:5b:6a:0b:a9:87:e1:95:32:a6:d7:ae:de:
        28:dc:c7:99:68:e2:5f:c9:5a:4c:64:b8:f5:28:42:5a:e8:5c:
        59:32:fe:d0:1f:0b:55:89:db:67:e7:78:f3:70:cf:18:51:57:
        8b:f3:2b:a4:66:0b:f6:03:6e:11:ac:83:52:16:7e:a2:7c:36:
        77:f6:bb:13:19:40:2c:b8:8c:ca:d6:7e:79:7d:f4:14:8d:b5:
        a4:09:f6:2d:4c:e7:f9:b8:25:41:15:78:f4:ca:80:41:ea:3a:
        05:08:f6:b5:5b:a1:3b:5b:48:a8:4b:8c:19:8d:6c:87:31:76:
        74:02:16:8b:dd:7f:d1:11:62:27:42:39:e0:9a:63:26:31:19:
        ce:3d:41:d5:24:47:32:0f:76:d6:41:37:44:ad:73:f1:b8:ec:
        2b:6e:9c:4f:84:c4:4e:d7:92:10:7e:23:32:a0:75:6a:e7:fe:
        55:95:9f:0a:ad:df:f9:2a:a2:1a:59:d5:82:63:d6:5d:7d:79:
        f4:a7:2d:dc:8c:04:cd:98:b0:42:0e:84:fa:86:50:10:61:ac:
        73:cd:79:45:30:e8:42:a1:6a:f6:77:55:ec:07:db:52:29:ca:
        7a:c8:a2:da:e9:f5:98:33:6a:e8:bc:89:ed:01:e2:fe:44:86:
        86:80:39:ec
-----BEGIN CERTIFICATE-----
MIIFHTCCBAWgAwIBAgIUTw2Mxfruopu3NZ7pSheZ8Mwj8uwwDQYJKoZIhvcNAQEL
BQAwgZ4xCzAJBgNVBAYTAlVTMRAwDgYDVQQIDAdNb250YW5hMRAwDgYDVQQHDAdC
b3plbWFuMRUwEwYDVQQKDAx3b2xmU1NMXzIwNDgxGTAXBgNVBAsMEFByb2dyYW1t
aW5nLTIwNDgxGDAWBgNVBAMMD3d3dy53b2xmc3NsLmNvbTEfMB0GCSqGSIb3DQEJ
ARYQaW5mb0B3b2xmc3NsLmNvbTAeFw0yNDEyMTgyMTI1MjlaFw0yNzA5MTQyMTI1
MjlaMIGeMQswCQYDVQQGEwJVUzEQMA4GA1UECAwHTW9udGFuYTEQMA4GA1UEBwwH
Qm96ZW1hbjEVMBMGA1UECgwMd29sZlNTTF8yMDQ4MRkwFwYDVQQLDBBQcm9ncmFt
bWluZy0yMDQ4MRgwFgYDVQQDDA93d3cud29sZnNzbC5jb20xHzAdBgkqhkiG9w0B
CQEWEGluZm9Ad29sZnNzbC5jb20wggEiMA0GCSqGSIb3DQEBAQUAA4IBDwAwggEK
AoIBAQDDA9Er/jmkMkU7U8iEKyp8dJq9qipSB0fWpjayBzKO0Lppe8bDRJ7UgUj9
LWiii2e7oXXINixK0hv3i7rPDfnv7PGBHnubA0eav2XMf2UkaaboFIlb5DT3xbAU
k/Vnezp6eOEBVlaRphNCjdI8QJxM79GG3zdRGwyhO/Xxo0o15OHOlt8bfr9Ol9AQ
6KgIMIGvIAtDFMV0Z7Qygm+NhsKIQJk2g7oeQHIiF9dSZSRzsM7vGc2u/3hse8AS
A9ROcg1QbTujO6OZXp3I2QyFs9mK2VQm2236rLv/JUzE0Xn0cdOGQBgTsGO1ck4w
xJeEhi1WL9cV93/ArvX8W+X7obrTAgMBAAGjggFPMIIBSzAdBgNVHQ4EFgQUM9hF
Ztdohxh+VA1wJ5HHJteFZcAwgd4GA1UdIwSB1jCB04AUM9hFZtdohxh+VA1wJ5HH
JteFZcChgaSkgaEwgZ4xCzAJBgNVBAYTAlVTMRAwDgYDVQQIDAdNb250YW5hMRAw
DgYDVQQHDAdCb3plbWFuMRUwEwYDVQQKDAx3b2xmU1NMXzIwNDgxGTAXBgNVBAsM
EFByb2dyYW1taW5nLTIwNDgxGDAWBgNVBAMMD3d3dy53b2xmc3NsLmNvbTEfMB0G
CSqGSIb3DQEJARYQaW5mb0B3b2xmc3NsLmNvbYIUTw2Mxfruopu3NZ7pSheZ8Mwj
8uwwDAYDVR0TBAUwAwEB/zAcBgNVHREEFTATggtleGFtcGxlLmNvbYcEfwAAATAd
BgNVHSUEFjAUBggrBgEFBQcDAQYIKwYBBQUHAwIwDQYJKoZIhvcNAQELBQADggEB
AEar5G2uSVtqC6mH4ZUypteu3ijcx5lo4l/JWkxkuPUoQlroXFky/tAfC1WJ22fn
ePNwzxhRV4vzK6RmC/YDbhGsg1IWfqJ8Nnf2uxMZQCy4jMrWfnl99BSNtaQJ9i1M
5/m4JUEVePTKgEHqOgUI9rVboTtbSKhLjBmNbIcxdnQCFovdf9ERYidCOeCaYyYx
Gc49QdUkRzIPdtZBN0Stc/G47CtunE+ExE7XkhB+IzKgdWrn/lWVnwqt3/kqohpZ
1YJj1l19efSnLdyMBM2YsEIOhPqGUBBhrHPNeUUw6EKhavZ3VewH21IpynrIotrp
9Zgzaui8ie0B4v5EhoaAOew=
-----END CERTIFICATE-----
