Certificate:
    Data:
        Version: 3 (0x2)
        Serial Number:
            31:a3:17:40:4e:fb:ba:fe:19:56:3a:3d:f3:f1:e4:0d:d9:9b:66:7e
        Signature Algorithm: sha256WithRSAEncryption
        Issuer: C = US, ST = Montana, L = Bozeman, O = wolfSSL_2048, OU = RELATIVE_URI, CN = www.wolfssl.com, emailAddress = info@wolfssl.com
        Validity
            Not Before: Jun 19 13:23:41 2020 GMT
            Not After : Mar 16 13:23:41 2023 GMT
        Subject: C = US, ST = Montana, L = Bozeman, O = wolfSSL_2048, OU = RELATIVE_URI, CN = www.wolfssl.com, emailAddress = info@wolfssl.com
        Subject Public Key Info:
            Public Key Algorithm: rsaEncryption
                RSA Public-Key: (2048 bit)
                Modulus:
                    00:c3:03:d1:2b:fe:39:a4:32:45:3b:53:c8:84:2b:
                    2a:7c:74:9a:bd:aa:2a:52:07:47:d6:a6:36:b2:07:
                    32:8e:d0:ba:69:7b:c6:c3:44:9e:d4:81:48:fd:2d:
                    68:a2:8b:67:bb:a1:75:c8:36:2c:4a:d2:1b:f7:8b:
                    ba:cf:0d:f9:ef:ec:f1:81:1e:7b:9b:03:47:9a:bf:
                    65:cc:7f:65:24:69:a6:e8:14:89:5b:e4:34:f7:c5:
                    b0:14:93:f5:67:7b:3a:7a:78:e1:01:56:56:91:a6:
                    13:42:8d:d2:3c:40:9c:4c:ef:d1:86:df:37:51:1b:
                    0c:a1:3b:f5:f1:a3:4a:35:e4:e1:ce:96:df:1b:7e:
                    bf:4e:97:d0:10:e8:a8:08:30:81:af:20:0b:43:14:
                    c5:74:67:b4:32:82:6f:8d:86:c2:88:40:99:36:83:
                    ba:1e:40:72:22:17:d7:52:65:24:73:b0:ce:ef:19:
                    cd:ae:ff:78:6c:7b:c0:12:03:d4:4e:72:0d:50:6d:
                    3b:a3:3b:a3:99:5e:9d:c8:d9:0c:85:b3:d9:8a:d9:
                    54:26:db:6d:fa:ac:bb:ff:25:4c:c4:d1:79:f4:71:
                    d3:86:40:18:13:b0:63:b5:72:4e:30:c4:97:84:86:
                    2d:56:2f:d7:15:f7:7f:c0:ae:f5:fc:5b:e5:fb:a1:
                    ba:d3
                Exponent: 65537 (0x10001)
        X509v3 extensions:
            X509v3 Subject Key Identifier: 
                33:D8:45:66:D7:68:87:18:7E:54:0D:70:27:91:C7:26:D7:85:65:C0
            X509v3 Authority Key Identifier: 
                keyid:33:D8:45:66:D7:68:87:18:7E:54:0D:70:27:91:C7:26:D7:85:65:C0
                DirName:/C=US/ST=Montana/L=Bozeman/O=wolfSSL_2048/OU=RELATIVE_URI/CN=www.wolfssl.com/emailAddress=info@wolfssl.com
                serial:31:A3:17:40:4E:FB:BA:FE:19:56:3A:3D:F3:F1:E4:0D:D9:9B:66:7E

            X509v3 Basic Constraints: 
                CA:FALSE
            X509v3 Subject Alternative Name: 
                URI:../relative/page.html
    Signature Algorithm: sha256WithRSAEncryption
         43:41:a6:92:63:52:da:bc:83:90:02:b4:a0:9b:be:4c:1e:bf:
         b5:33:67:81:6d:4c:69:6b:d2:d0:50:50:69:85:56:ab:67:0d:
         3e:5e:21:9a:f5:ff:f6:5c:e1:7d:c5:e8:63:c1:11:e5:d0:31:
         44:4d:d1:bd:14:e9:2d:a8:3d:b5:db:50:88:ef:9f:2a:25:94:
         df:41:b3:b6:84:93:36:13:cd:17:46:18:c7:44:01:d7:20:42:
         66:0e:42:e1:91:7c:61:f6:3a:e1:c5:69:cc:da:3b:51:58:2a:
         8c:3d:d4:66:d2:eb:77:b1:4b:ae:24:d5:99:c3:5f:49:92:9f:
         86:11:5a:c6:b6:81:2d:b7:31:b4:65:55:69:2c:cf:b2:b8:57:
         6b:46:9f:fe:f7:d8:06:b6:b3:8e:1c:24:dc:f8:e3:e8:69:39:
         e1:c9:97:06:5f:92:27:fa:ac:d6:ae:d3:a0:08:e5:76:ff:5a:
         e0:4c:be:40:c8:5b:d8:65:c4:43:06:a1:3f:71:b0:ee:f2:0d:
         85:cb:0f:f6:10:93:62:64:26:09:ad:a8:ff:3d:39:61:4c:0b:
         2e:6f:cf:c8:00:59:8e:13:17:3a:f1:ff:30:21:71:ac:7a:ee:
         52:e8:0e:82:1f:75:41:ed:36:4e:1e:5b:4a:95:ce:38:4b:7f:
         20:ca:d7:86
-----BEGIN CERTIFICATE-----
MIIE8zCCA9ugAwIBAgIUMaMXQE77uv4ZVjo98/HkDdmbZn4wDQYJKoZIhvcNAQEL
BQAwgZoxCzAJBgNVBAYTAlVTMRAwDgYDVQQIDAdNb250YW5hMRAwDgYDVQQHDAdC
b3plbWFuMRUwEwYDVQQKDAx3b2xmU1NMXzIwNDgxFTATBgNVBAsMDFJFTEFUSVZF
X1VSSTEYMBYGA1UEAwwPd3d3LndvbGZzc2wuY29tMR8wHQYJKoZIhvcNAQkBFhBp
bmZvQHdvbGZzc2wuY29tMB4XDTIwMDYxOTEzMjM0MVoXDTIzMDMxNjEzMjM0MVow
gZoxCzAJBgNVBAYTAlVTMRAwDgYDVQQIDAdNb250YW5hMRAwDgYDVQQHDAdCb3pl
bWFuMRUwEwYDVQQKDAx3b2xmU1NMXzIwNDgxFTATBgNVBAsMDFJFTEFUSVZFX1VS
STEYMBYGA1UEAwwPd3d3LndvbGZzc2wuY29tMR8wHQYJKoZIhvcNAQkBFhBpbmZv
QHdvbGZzc2wuY29tMIIBIjANBgkqhkiG9w0BAQEFAAOCAQ8AMIIBCgKCAQEAwwPR
K/45pDJFO1PIhCsqfHSavaoqUgdH1qY2sgcyjtC6aXvGw0Se1IFI/S1oootnu6F1
yDYsStIb94u6zw357+zxgR57mwNHmr9lzH9lJGmm6BSJW+Q098WwFJP1Z3s6enjh
AVZWkaYTQo3SPECcTO/Rht83URsMoTv18aNKNeThzpbfG36/TpfQEOioCDCBryAL
QxTFdGe0MoJvjYbCiECZNoO6HkByIhfXUmUkc7DO7xnNrv94bHvAEgPUTnINUG07
ozujmV6dyNkMhbPZitlUJttt+qy7/yVMxNF59HHThkAYE7BjtXJOMMSXhIYtVi/X
Ffd/wK71/Fvl+6G60wIDAQABo4IBLTCCASkwHQYDVR0OBBYEFDPYRWbXaIcYflQN
cCeRxybXhWXAMIHaBgNVHSMEgdIwgc+AFDPYRWbXaIcYflQNcCeRxybXhWXAoYGg
pIGdMIGaMQswCQYDVQQGEwJVUzEQMA4GA1UECAwHTW9udGFuYTEQMA4GA1UEBwwH
Qm96ZW1hbjEVMBMGA1UECgwMd29sZlNTTF8yMDQ4MRUwEwYDVQQLDAxSRUxBVElW
RV9VUkkxGDAWBgNVBAMMD3d3dy53b2xmc3NsLmNvbTEfMB0GCSqGSIb3DQEJARYQ
aW5mb0B3b2xmc3NsLmNvbYIUMaMXQE77uv4ZVjo98/HkDdmbZn4wCQYDVR0TBAIw
ADAgBgNVHREEGTAXhhUuLi9yZWxhdGl2ZS9wYWdlLmh0bWwwDQYJKoZIhvcNAQEL
BQADggEBAENBppJjUtq8g5ACtKCbvkwev7UzZ4FtTGlr0tBQUGmFVqtnDT5eIZr1
//Zc4X3F6GPBEeXQMURN0b0U6S2oPbXbUIjvnyollN9Bs7aEkzYTzRdGGMdEAdcg
QmYOQuGRfGH2OuHFaczaO1FYKow91GbS63exS64k1ZnDX0mSn4YRWsa2gS23MbRl
VWksz7K4V2tGn/732Aa2s44cJNz44+hpOeHJlwZfkif6rNau06AI5Xb/WuBMvkDI
W9hlxEMGoT9xsO7yDYXLD/YQk2JkJgmtqP89OWFMCy5vz8gAWY4TFzrx/zAhcax6
7lLoDoIfdUHtNk4eW0qVzjhLfyDK14Y=
-----END CERTIFICATE-----
