Certificate:
    Data:
        Version: 3 (0x2)
        Serial Number:
            3c:27:16:70:2f:e7:c3:f3:d2:34:b5:d2:6a:9b:98:84:43:91:a8:06
        Signature Algorithm: sha256WithRSAEncryption
        Issuer: C=US, ST=Montana, L=Bozeman, O=wolfSSL_2048, OU=Programming-2048, CN=www.wolfssl.com, emailAddress=info@wolfssl.com
        Validity
            Not Before: Nov 13 20:41:09 2025 GMT
            Not After : Aug  9 20:41:09 2028 GMT
        Subject: C=US, ST=Montana, L=Bozeman, O=wolfSSL_2048, OU=Programming-2048, CN=www.wolfssl.com, emailAddress=info@wolfssl.com
        Subject Public Key Info:
            Public Key Algorithm: rsaEncryption
                Public-Key: (2048 bit)
                Modulus:
                    00:c3:03:d1:2b:fe:39:a4:32:45:3b:53:c8:84:2b:
                    2a:7c:74:9a:bd:aa:2a:52:07:47:d6:a6:36:b2:07:
                    32:8e:d0:ba:69:7b:c6:c3:44:9e:d4:81:48:fd:2d:
                    68:a2:8b:67:bb:a1:75:c8:36:2c:4a:d2:1b:f7:8b:
                    ba:cf:0d:f9:ef:ec:f1:81:1e:7b:9b:03:47:9a:bf:
                    65:cc:7f:65:24:69:a6:e8:14:89:5b:e4:34:f7:c5:
                    b0:14:93:f5:67:7b:3a:7a:78:e1:01:56:56:91:a6:
                    13:42:8d:d2:3c:40:9c:4c:ef:d1:86:df:37:51:1b:
                    0c:a1:3b:f5:f1:a3:4a:35:e4:e1:ce:96:df:1b:7e:
                    bf:4e:97:d0:10:e8:a8:08:30:81:af:20:0b:43:14:
                    c5:74:67:b4:32:82:6f:8d:86:c2:88:40:99:36:83:
                    ba:1e:40:72:22:17:d7:52:65:24:73:b0:ce:ef:19:
                    cd:ae:ff:78:6c:7b:c0:12:03:d4:4e:72:0d:50:6d:
                    3b:a3:3b:a3:99:5e:9d:c8:d9:0c:85:b3:d9:8a:d9:
                    54:26:db:6d:fa:ac:bb:ff:25:4c:c4:d1:79:f4:71:
                    d3:86:40:18:13:b0:63:b5:72:4e:30:c4:97:84:86:
                    2d:56:2f:d7:15:f7:7f:c0:ae:f5:fc:5b:e5:fb:a1:
                    ba:d3
                Exponent: 65537 (0x10001)
        X509v3 extensions:
            X509v3 Subject Key Identifier: 
                33:D8:45:66:D7:68:87:18:7E:54:0D:70:27:91:C7:26:D7:85:65:C0
            X509v3 Authority Key Identifier: 
                keyid:33:D8:45:66:D7:68:87:18:7E:54:0D:70:27:91:C7:26:D7:85:65:C0
                DirName:/C=US/ST=Montana/L=Bozeman/O=wolfSSL_2048/OU=Programming-2048/CN=www.wolfssl.com/emailAddress=info@wolfssl.com
                serial:3C:27:16:70:2F:E7:C3:F3:D2:34:B5:D2:6A:9B:98:84:43:91:A8:06
            X509v3 Basic Constraints: 
                CA:TRUE
            X509v3 Subject Alternative Name: 
                DNS:example.com
            X509v3 Key Usage: critical
                Digital Signature, Certificate Sign, CRL Sign
    Signature Algorithm: sha256WithRSAEncryption
    Signature Value:
        9a:42:07:65:59:43:8a:96:fa:90:ba:1b:6d:c8:6c:98:dd:05:
        c8:89:24:0a:9e:fd:cb:19:c5:f0:31:2e:5d:7b:e4:86:f0:7d:
        d9:28:26:0e:be:90:fd:08:ed:d4:96:6b:99:01:ae:10:67:f5:
        8f:2b:0b:21:47:46:a0:f5:32:51:a9:41:d1:f4:07:b3:dd:a9:
        e8:09:7d:aa:98:04:0f:75:62:fb:96:af:fa:6e:1c:5c:91:90:
        0d:fc:15:dc:26:0c:66:5b:00:d1:db:1c:2e:56:14:29:01:59:
        1a:08:86:11:01:dd:17:01:54:a3:f6:08:c8:b4:77:ac:56:1c:
        f6:da:26:7c:98:f1:e5:8e:56:ee:3e:69:a8:65:82:8e:a4:3e:
        8e:5d:9f:33:9b:e8:e0:a9:85:ae:3e:43:6b:ac:42:e9:8f:59:
        1f:67:e6:9f:23:90:6f:78:4a:8e:0c:7b:5b:63:3d:e2:9c:bc:
        4d:90:bb:b9:c2:db:3d:46:5e:67:bf:7b:53:dd:cc:72:8f:ce:
        a7:5f:0f:c1:04:1e:8e:13:c9:03:d3:a5:f4:20:8f:57:eb:84:
        4a:6d:41:fd:f9:90:f4:7d:f9:dd:9f:da:bf:53:f0:3a:62:f5:
        16:f6:a0:de:e9:d6:cf:df:17:29:9b:6e:34:b5:27:b9:21:75:
        53:de:6c:99
-----BEGIN CERTIFICATE-----
MIIFCDCCA/CgAwIBAgIUPCcWcC/nw/PSNLXSapuYhEORqAYwDQYJKoZIhvcNAQEL
BQAwgZ4xCzAJBgNVBAYTAlVTMRAwDgYDVQQIDAdNb250YW5hMRAwDgYDVQQHDAdC
b3plbWFuMRUwEwYDVQQKDAx3b2xmU1NMXzIwNDgxGTAXBgNVBAsMEFByb2dyYW1t
aW5nLTIwNDgxGDAWBgNVBAMMD3d3dy53b2xmc3NsLmNvbTEfMB0GCSqGSIb3DQEJ
ARYQaW5mb0B3b2xmc3NsLmNvbTAeFw0yNTExMTMyMDQxMDlaFw0yODA4MDkyMDQx
MDlaMIGeMQswCQYDVQQGEwJVUzEQMA4GA1UECAwHTW9udGFuYTEQMA4GA1UEBwwH
Qm96ZW1hbjEVMBMGA1UECgwMd29sZlNTTF8yMDQ4MRkwFwYDVQQLDBBQcm9ncmFt
bWluZy0yMDQ4MRgwFgYDVQQDDA93d3cud29sZnNzbC5jb20xHzAdBgkqhkiG9w0B
CQEWEGluZm9Ad29sZnNzbC5jb20wggEiMA0GCSqGSIb3DQEBAQUAA4IBDwAwggEK
AoIBAQDDA9Er/jmkMkU7U8iEKyp8dJq9qipSB0fWpjayBzKO0Lppe8bDRJ7UgUj9
LWiii2e7oXXINixK0hv3i7rPDfnv7PGBHnubA0eav2XMf2UkaaboFIlb5DT3xbAU
k/Vnezp6eOEBVlaRphNCjdI8QJxM79GG3zdRGwyhO/Xxo0o15OHOlt8bfr9Ol9AQ
6KgIMIGvIAtDFMV0Z7Qygm+NhsKIQJk2g7oeQHIiF9dSZSRzsM7vGc2u/3hse8AS
A9ROcg1QbTujO6OZXp3I2QyFs9mK2VQm2236rLv/JUzE0Xn0cdOGQBgTsGO1ck4w
xJeEhi1WL9cV93/ArvX8W+X7obrTAgMBAAGjggE6MIIBNjAdBgNVHQ4EFgQUM9hF
Ztdohxh+VA1wJ5HHJteFZcAwgd4GA1UdIwSB1jCB04AUM9hFZtdohxh+VA1wJ5HH
JteFZcChgaSkgaEwgZ4xCzAJBgNVBAYTAlVTMRAwDgYDVQQIDAdNb250YW5hMRAw
DgYDVQQHDAdCb3plbWFuMRUwEwYDVQQKDAx3b2xmU1NMXzIwNDgxGTAXBgNVBAsM
EFByb2dyYW1taW5nLTIwNDgxGDAWBgNVBAMMD3d3dy53b2xmc3NsLmNvbTEfMB0G
CSqGSIb3DQEJARYQaW5mb0B3b2xmc3NsLmNvbYIUPCcWcC/nw/PSNLXSapuYhEOR
qAYwDAYDVR0TBAUwAwEB/zAWBgNVHREEDzANggtleGFtcGxlLmNvbTAOBgNVHQ8B
Af8EBAMCAYYwDQYJKoZIhvcNAQELBQADggEBAJpCB2VZQ4qW+pC6G23IbJjdBciJ
JAqe/csZxfAxLl175IbwfdkoJg6+kP0I7dSWa5kBrhBn9Y8rCyFHRqD1MlGpQdH0
B7PdqegJfaqYBA91YvuWr/puHFyRkA38FdwmDGZbANHbHC5WFCkBWRoIhhEB3RcB
VKP2CMi0d6xWHPbaJnyY8eWOVu4+aahlgo6kPo5dnzOb6OCpha4+Q2usQumPWR9n
5p8jkG94So4Me1tjPeKcvE2Qu7nC2z1GXme/e1PdzHKPzqdfD8EEHo4TyQPTpfQg
j1frhEptQf35kPR9+d2f2r9T8Dpi9Rb2oN7p1s/fFymbbjS1J7khdVPebJk=
-----END CERTIFICATE-----
