Certificate:
    Data:
        Version: 3 (0x2)
        Serial Number:
            49:5a:8b:94:7d:d7:9e:20:53:f4:6c:ea:2a:93:28:4e:2d:50:d3:66
        Signature Algorithm: sha256WithRSAEncryption
        Issuer: C = US, ST = Montana, L = Bozeman, O = wolfSSL_2048, OU = Programming-2048, CN = www.wolfssl.com, emailAddress = info@wolfssl.com
        Validity
            Not Before: Dec 20 23:07:24 2021 GMT
            Not After : Sep 15 23:07:24 2024 GMT
        Subject: C = US, ST = Montana, L = Bozeman, O = wolfSSL_2048, OU = Programming-2048, CN = www.wolfssl.com, emailAddress = info@wolfssl.com
        Subject Public Key Info:
            Public Key Algorithm: rsaEncryption
                RSA Public-Key: (2048 bit)
                Modulus:
                    00:c3:03:d1:2b:fe:39:a4:32:45:3b:53:c8:84:2b:
                    2a:7c:74:9a:bd:aa:2a:52:07:47:d6:a6:36:b2:07:
                    32:8e:d0:ba:69:7b:c6:c3:44:9e:d4:81:48:fd:2d:
                    68:a2:8b:67:bb:a1:75:c8:36:2c:4a:d2:1b:f7:8b:
                    ba:cf:0d:f9:ef:ec:f1:81:1e:7b:9b:03:47:9a:bf:
                    65:cc:7f:65:24:69:a6:e8:14:89:5b:e4:34:f7:c5:
                    b0:14:93:f5:67:7b:3a:7a:78:e1:01:56:56:91:a6:
                    13:42:8d:d2:3c:40:9c:4c:ef:d1:86:df:37:51:1b:
                    0c:a1:3b:f5:f1:a3:4a:35:e4:e1:ce:96:df:1b:7e:
                    bf:4e:97:d0:10:e8:a8:08:30:81:af:20:0b:43:14:
                    c5:74:67:b4:32:82:6f:8d:86:c2:88:40:99:36:83:
                    ba:1e:40:72:22:17:d7:52:65:24:73:b0:ce:ef:19:
                    cd:ae:ff:78:6c:7b:c0:12:03:d4:4e:72:0d:50:6d:
                    3b:a3:3b:a3:99:5e:9d:c8:d9:0c:85:b3:d9:8a:d9:
                    54:26:db:6d:fa:ac:bb:ff:25:4c:c4:d1:79:f4:71:
                    d3:86:40:18:13:b0:63:b5:72:4e:30:c4:97:84:86:
                    2d:56:2f:d7:15:f7:7f:c0:ae:f5:fc:5b:e5:fb:a1:
                    ba:d3
                Exponent: 65537 (0x10001)
        X509v3 extensions:
            X509v3 Subject Key Identifier: 
                33:D8:45:66:D7:68:87:18:7E:54:0D:70:27:91:C7:26:D7:85:65:C0
            X509v3 Authority Key Identifier: 
                keyid:33:D8:45:66:D7:68:87:18:7E:54:0D:70:27:91:C7:26:D7:85:65:C0
                DirName:/C=US/ST=Montana/L=Bozeman/O=wolfSSL_2048/OU=Programming-2048/CN=www.wolfssl.com/emailAddress=info@wolfssl.com
                serial:49:5A:8B:94:7D:D7:9E:20:53:F4:6C:EA:2A:93:28:4E:2D:50:D3:66

            X509v3 Basic Constraints: 
                CA:TRUE
            X509v3 Subject Alternative Name: 
                DNS:example.com
            X509v3 Key Usage: critical
                Digital Signature, Certificate Sign, CRL Sign
    Signature Algorithm: sha256WithRSAEncryption
         a0:ef:c6:76:4c:e4:0e:69:ef:eb:a3:67:60:58:97:b1:cc:a2:
         d5:b5:25:a1:7a:5f:83:50:94:ce:2a:46:bb:4d:b0:63:64:d8:
         67:8f:52:3c:41:76:c6:7f:6f:56:1c:5f:d6:70:60:b5:1f:4b:
         b7:ff:b4:d5:2c:2d:89:c3:c4:d8:ca:d6:43:be:78:59:21:80:
         78:fa:ea:e3:0e:b4:34:1f:18:8b:9c:5f:37:05:1b:8e:d6:59:
         11:d4:30:2c:a4:9d:0b:3c:e8:cf:0b:26:cb:88:1e:bb:42:dd:
         15:80:a8:d4:25:70:d5:2b:0c:0e:b4:cd:4f:97:d6:9c:aa:3a:
         b9:97:71:e7:54:47:0b:fb:de:9f:ae:95:ad:40:72:87:f4:de:
         87:2b:82:a9:c4:b9:f1:97:25:08:c0:48:aa:9f:f1:0c:3c:3b:
         3f:72:6d:24:8e:43:09:82:6f:ca:10:b4:16:63:07:3f:51:c5:
         0d:9d:4e:eb:0b:ea:07:02:9f:ac:63:1d:27:6a:f8:f9:03:e4:
         1a:e5:11:e2:82:46:43:a3:50:6e:ef:1c:25:08:a1:9a:7e:0a:
         f4:51:34:10:de:b4:cb:ee:4c:7e:37:67:67:5d:11:26:1d:90:
         f6:e4:a8:8e:8b:87:b5:3c:1b:b5:34:00:e7:78:05:c0:94:7c:
         57:9a:ff:f5
-----BEGIN CERTIFICATE-----
MIIFCDCCA/CgAwIBAgIUSVqLlH3XniBT9GzqKpMoTi1Q02YwDQYJKoZIhvcNAQEL
BQAwgZ4xCzAJBgNVBAYTAlVTMRAwDgYDVQQIDAdNb250YW5hMRAwDgYDVQQHDAdC
b3plbWFuMRUwEwYDVQQKDAx3b2xmU1NMXzIwNDgxGTAXBgNVBAsMEFByb2dyYW1t
aW5nLTIwNDgxGDAWBgNVBAMMD3d3dy53b2xmc3NsLmNvbTEfMB0GCSqGSIb3DQEJ
ARYQaW5mb0B3b2xmc3NsLmNvbTAeFw0yMTEyMjAyMzA3MjRaFw0yNDA5MTUyMzA3
MjRaMIGeMQswCQYDVQQGEwJVUzEQMA4GA1UECAwHTW9udGFuYTEQMA4GA1UEBwwH
Qm96ZW1hbjEVMBMGA1UECgwMd29sZlNTTF8yMDQ4MRkwFwYDVQQLDBBQcm9ncmFt
bWluZy0yMDQ4MRgwFgYDVQQDDA93d3cud29sZnNzbC5jb20xHzAdBgkqhkiG9w0B
CQEWEGluZm9Ad29sZnNzbC5jb20wggEiMA0GCSqGSIb3DQEBAQUAA4IBDwAwggEK
AoIBAQDDA9Er/jmkMkU7U8iEKyp8dJq9qipSB0fWpjayBzKO0Lppe8bDRJ7UgUj9
LWiii2e7oXXINixK0hv3i7rPDfnv7PGBHnubA0eav2XMf2UkaaboFIlb5DT3xbAU
k/Vnezp6eOEBVlaRphNCjdI8QJxM79GG3zdRGwyhO/Xxo0o15OHOlt8bfr9Ol9AQ
6KgIMIGvIAtDFMV0Z7Qygm+NhsKIQJk2g7oeQHIiF9dSZSRzsM7vGc2u/3hse8AS
A9ROcg1QbTujO6OZXp3I2QyFs9mK2VQm2236rLv/JUzE0Xn0cdOGQBgTsGO1ck4w
xJeEhi1WL9cV93/ArvX8W+X7obrTAgMBAAGjggE6MIIBNjAdBgNVHQ4EFgQUM9hF
Ztdohxh+VA1wJ5HHJteFZcAwgd4GA1UdIwSB1jCB04AUM9hFZtdohxh+VA1wJ5HH
JteFZcChgaSkgaEwgZ4xCzAJBgNVBAYTAlVTMRAwDgYDVQQIDAdNb250YW5hMRAw
DgYDVQQHDAdCb3plbWFuMRUwEwYDVQQKDAx3b2xmU1NMXzIwNDgxGTAXBgNVBAsM
EFByb2dyYW1taW5nLTIwNDgxGDAWBgNVBAMMD3d3dy53b2xmc3NsLmNvbTEfMB0G
CSqGSIb3DQEJARYQaW5mb0B3b2xmc3NsLmNvbYIUSVqLlH3XniBT9GzqKpMoTi1Q
02YwDAYDVR0TBAUwAwEB/zAWBgNVHREEDzANggtleGFtcGxlLmNvbTAOBgNVHQ8B
Af8EBAMCAYYwDQYJKoZIhvcNAQELBQADggEBAKDvxnZM5A5p7+ujZ2BYl7HMotW1
JaF6X4NQlM4qRrtNsGNk2GePUjxBdsZ/b1YcX9ZwYLUfS7f/tNUsLYnDxNjK1kO+
eFkhgHj66uMOtDQfGIucXzcFG47WWRHUMCyknQs86M8LJsuIHrtC3RWAqNQlcNUr
DA60zU+X1pyqOrmXcedURwv73p+ula1Acof03ocrgqnEufGXJQjASKqf8Qw8Oz9y
bSSOQwmCb8oQtBZjBz9RxQ2dTusL6gcCn6xjHSdq+PkD5BrlEeKCRkOjUG7vHCUI
oZp+CvRRNBDetMvuTH43Z2ddESYdkPbkqI6Lh7U8G7U0AOd4BcCUfFea//U=
-----END CERTIFICATE-----
