Certificate:
    Data:
        Version: 3 (0x2)
        Serial Number: 10777134365807824960 (0x9590129b22a15040)
    Signature Algorithm: sha256WithRSAEncryption
        Issuer: C=US, ST=Montana, L=Bozeman, O=wolfSSL_2048, OU=Programming-2048, CN=www.wolfssl.com/emailAddress=info@wolfssl.com
        Validity
            Not Before: Nov 23 12:49:37 2015 GMT
            Not After : Aug 19 12:49:37 2018 GMT
        Subject: C=US, ST=Montana, L=Bozeman, O=wolfSSL_2048, OU=Programming-2048, CN=www.wolfssl.com/emailAddress=info@wolfssl.com
        Subject Public Key Info:
            Public Key Algorithm: rsaEncryption
                Public-Key: (2048 bit)
                Modulus:
                    00:c3:03:d1:2b:fe:39:a4:32:45:3b:53:c8:84:2b:
                    2a:7c:74:9a:bd:aa:2a:52:07:47:d6:a6:36:b2:07:
                    32:8e:d0:ba:69:7b:c6:c3:44:9e:d4:81:48:fd:2d:
                    68:a2:8b:67:bb:a1:75:c8:36:2c:4a:d2:1b:f7:8b:
                    ba:cf:0d:f9:ef:ec:f1:81:1e:7b:9b:03:47:9a:bf:
                    65:cc:7f:65:24:69:a6:e8:14:89:5b:e4:34:f7:c5:
                    b0:14:93:f5:67:7b:3a:7a:78:e1:01:56:56:91:a6:
                    13:42:8d:d2:3c:40:9c:4c:ef:d1:86:df:37:51:1b:
                    0c:a1:3b:f5:f1:a3:4a:35:e4:e1:ce:96:df:1b:7e:
                    bf:4e:97:d0:10:e8:a8:08:30:81:af:20:0b:43:14:
                    c5:74:67:b4:32:82:6f:8d:86:c2:88:40:99:36:83:
                    ba:1e:40:72:22:17:d7:52:65:24:73:b0:ce:ef:19:
                    cd:ae:ff:78:6c:7b:c0:12:03:d4:4e:72:0d:50:6d:
                    3b:a3:3b:a3:99:5e:9d:c8:d9:0c:85:b3:d9:8a:d9:
                    54:26:db:6d:fa:ac:bb:ff:25:4c:c4:d1:79:f4:71:
                    d3:86:40:18:13:b0:63:b5:72:4e:30:c4:97:84:86:
                    2d:56:2f:d7:15:f7:7f:c0:ae:f5:fc:5b:e5:fb:a1:
                    ba:d3
                Exponent: 65537 (0x10001)
        X509v3 extensions:
            X509v3 Subject Key Identifier: 
                33:D8:45:66:D7:68:87:18:7E:54:0D:70:27:91:C7:26:D7:85:65:C0
            X509v3 Authority Key Identifier: 
                keyid:33:D8:45:66:D7:68:87:18:7E:54:0D:70:27:91:C7:26:D7:85:65:C0
                DirName:/C=US/ST=Montana/L=Bozeman/O=wolfSSL_2048/OU=Programming-2048/CN=www.wolfssl.com/emailAddress=info@wolfssl.com
                serial:95:90:12:9B:22:A1:50:40

            X509v3 Basic Constraints: 
                CA:TRUE
            Authority Information Access: 
                OCSP - URI:http://localhost:22222

    Signature Algorithm: sha256WithRSAEncryption
         7b:91:63:8d:39:54:64:3c:b4:3f:d5:c8:4f:bf:0b:bf:af:5c:
         9c:41:c7:0b:52:6d:c6:f0:de:7c:ff:9b:4e:fe:f3:22:a5:00:
         13:9f:81:e4:6d:70:2c:f9:7a:f4:d8:50:be:72:e1:04:8b:b0:
         05:e3:61:82:3f:65:de:f9:e9:d3:3d:97:7d:88:b7:99:85:c1:
         e5:5c:57:a7:9c:1f:f2:b8:ce:ec:d7:d1:9b:ec:fb:0e:6f:02:
         ad:51:c0:76:dd:66:0a:ce:0d:09:e6:a8:42:b0:06:c3:04:e7:
         1c:c7:10:83:07:f2:e6:11:1a:cd:a7:b9:7e:17:ef:ea:63:9c:
         f2:a5:be:6b:b6:df:eb:5a:75:01:59:05:f7:ec:49:75:10:dd:
         40:1a:25:25:4f:78:6e:e1:92:21:b5:b8:82:2f:33:b3:5b:b6:
         81:b8:b1:a4:0c:8d:98:74:74:da:0d:90:33:c8:a7:aa:0d:06:
         5a:04:eb:37:d3:e4:55:0c:93:b6:c8:3a:e8:a7:2b:4e:b8:90:
         bb:36:0b:db:7f:2e:99:23:76:68:81:a8:73:74:e7:68:fb:1d:
         ff:5b:ec:b5:6b:30:d1:d0:2b:89:a6:c6:a9:fc:03:66:fe:b5:
         8c:af:de:8e:2a:b4:78:9c:d7:4a:fc:9c:c4:7c:19:20:83:0e:
         fd:3f:4d:a7
-----BEGIN CERTIFICATE-----
MIIE/jCCA+agAwIBAgIJAJWQEpsioVBAMA0GCSqGSIb3DQEBCwUAMIGeMQswCQYD
VQQGEwJVUzEQMA4GA1UECAwHTW9udGFuYTEQMA4GA1UEBwwHQm96ZW1hbjEVMBMG
A1UECgwMd29sZlNTTF8yMDQ4MRkwFwYDVQQLDBBQcm9ncmFtbWluZy0yMDQ4MRgw
FgYDVQQDDA93d3cud29sZnNzbC5jb20xHzAdBgkqhkiG9w0BCQEWEGluZm9Ad29s
ZnNzbC5jb20wHhcNMTUxMTIzMTI0OTM3WhcNMTgwODE5MTI0OTM3WjCBnjELMAkG
A1UEBhMCVVMxEDAOBgNVBAgMB01vbnRhbmExEDAOBgNVBAcMB0JvemVtYW4xFTAT
BgNVBAoMDHdvbGZTU0xfMjA0ODEZMBcGA1UECwwQUHJvZ3JhbW1pbmctMjA0ODEY
MBYGA1UEAwwPd3d3LndvbGZzc2wuY29tMR8wHQYJKoZIhvcNAQkBFhBpbmZvQHdv
bGZzc2wuY29tMIIBIjANBgkqhkiG9w0BAQEFAAOCAQ8AMIIBCgKCAQEAwwPRK/45
pDJFO1PIhCsqfHSavaoqUgdH1qY2sgcyjtC6aXvGw0Se1IFI/S1oootnu6F1yDYs
StIb94u6zw357+zxgR57mwNHmr9lzH9lJGmm6BSJW+Q098WwFJP1Z3s6enjhAVZW
kaYTQo3SPECcTO/Rht83URsMoTv18aNKNeThzpbfG36/TpfQEOioCDCBryALQxTF
dGe0MoJvjYbCiECZNoO6HkByIhfXUmUkc7DO7xnNrv94bHvAEgPUTnINUG07ozuj
mV6dyNkMhbPZitlUJttt+qy7/yVMxNF59HHThkAYE7BjtXJOMMSXhIYtVi/XFfd/
wK71/Fvl+6G60wIDAQABo4IBOzCCATcwHQYDVR0OBBYEFDPYRWbXaIcYflQNcCeR
xybXhWXAMIHTBgNVHSMEgcswgciAFDPYRWbXaIcYflQNcCeRxybXhWXAoYGkpIGh
MIGeMQswCQYDVQQGEwJVUzEQMA4GA1UECAwHTW9udGFuYTEQMA4GA1UEBwwHQm96
ZW1hbjEVMBMGA1UECgwMd29sZlNTTF8yMDQ4MRkwFwYDVQQLDBBQcm9ncmFtbWlu
Zy0yMDQ4MRgwFgYDVQQDDA93d3cud29sZnNzbC5jb20xHzAdBgkqhkiG9w0BCQEW
EGluZm9Ad29sZnNzbC5jb22CCQCVkBKbIqFQQDAMBgNVHRMEBTADAQH/MDIGCCsG
AQUFBwEBBCYwJDAiBggrBgEFBQcwAYYWaHR0cDovL2xvY2FsaG9zdDoyMjIyMjAN
BgkqhkiG9w0BAQsFAAOCAQEAe5FjjTlUZDy0P9XIT78Lv69cnEHHC1JtxvDefP+b
Tv7zIqUAE5+B5G1wLPl69NhQvnLhBIuwBeNhgj9l3vnp0z2XfYi3mYXB5VxXp5wf
8rjO7NfRm+z7Dm8CrVHAdt1mCs4NCeaoQrAGwwTnHMcQgwfy5hEazae5fhfv6mOc
8qW+a7bf61p1AVkF9+xJdRDdQBolJU94buGSIbW4gi8zs1u2gbixpAyNmHR02g2Q
M8inqg0GWgTrN9PkVQyTtsg66KcrTriQuzYL238umSN2aIGoc3TnaPsd/1vstWsw
0dAriabGqfwDZv61jK/ejiq0eJzXSvycxHwZIIMO/T9Npw==
-----END CERTIFICATE-----
