Certificate:
    Data:
        Version: 3 (0x2)
        Serial Number: 14757985853299502082 (0xcccee5f142282c02)
    Signature Algorithm: ecdsa-with-SHA256
        Issuer: C=US, ST=Oregon, L=Salem, O=Client ECC, OU=Fast, CN=www.wolfssl.com/emailAddress=info@wolfssl.com
        Validity
            Not Before: Nov 23 12:49:37 2015 GMT
            Not After : Aug 19 12:49:37 2018 GMT
        Subject: C=US, ST=Oregon, L=Salem, O=Client ECC, OU=Fast, CN=www.wolfssl.com/emailAddress=info@wolfssl.com
        Subject Public Key Info:
            Public Key Algorithm: id-ecPublicKey
                Public-Key: (256 bit)
                pub: 
                    04:55:bf:f4:0f:44:50:9a:3d:ce:9b:b7:f0:c5:4d:
                    f5:70:7b:d4:ec:24:8e:19:80:ec:5a:4c:a2:24:03:
                    62:2c:9b:da:ef:a2:35:12:43:84:76:16:c6:56:95:
                    06:cc:01:a9:bd:f6:75:1a:42:f7:bd:a9:b2:36:22:
                    5f:c7:5d:7f:b4
                ASN1 OID: prime256v1
        X509v3 extensions:
            X509v3 Subject Key Identifier: 
                EB:D4:4B:59:6B:95:61:3F:51:57:B6:04:4D:89:41:88:44:5C:AB:F2
            X509v3 Authority Key Identifier: 
                keyid:EB:D4:4B:59:6B:95:61:3F:51:57:B6:04:4D:89:41:88:44:5C:AB:F2
                DirName:/C=US/ST=Oregon/L=Salem/O=Client ECC/OU=Fast/CN=www.wolfssl.com/emailAddress=info@wolfssl.com
                serial:CC:CE:E5:F1:42:28:2C:02

            X509v3 Basic Constraints: 
                CA:TRUE
            Authority Information Access: 
                OCSP - URI:http://localhost:22222

    Signature Algorithm: ecdsa-with-SHA256
         30:45:02:21:00:9f:24:c2:3b:e6:e5:2a:2d:d1:99:67:ca:f5:
         ed:d1:d6:90:19:16:16:f8:9e:56:a9:ed:1b:19:92:54:0e:a7:
         e2:02:20:51:c1:57:81:ba:50:7f:09:38:b6:16:7d:dc:63:50:
         f3:f3:ed:b0:8d:56:75:94:91:21:71:32:b7:c2:59:c9:60
-----BEGIN CERTIFICATE-----
MIIDPzCCAuWgAwIBAgIJAMzO5fFCKCwCMAoGCCqGSM49BAMCMIGNMQswCQYDVQQG
EwJVUzEPMA0GA1UECAwGT3JlZ29uMQ4wDAYDVQQHDAVTYWxlbTETMBEGA1UECgwK
Q2xpZW50IEVDQzENMAsGA1UECwwERmFzdDEYMBYGA1UEAwwPd3d3LndvbGZzc2wu
Y29tMR8wHQYJKoZIhvcNAQkBFhBpbmZvQHdvbGZzc2wuY29tMB4XDTE1MTEyMzEy
NDkzN1oXDTE4MDgxOTEyNDkzN1owgY0xCzAJBgNVBAYTAlVTMQ8wDQYDVQQIDAZP
cmVnb24xDjAMBgNVBAcMBVNhbGVtMRMwEQYDVQQKDApDbGllbnQgRUNDMQ0wCwYD
VQQLDARGYXN0MRgwFgYDVQQDDA93d3cud29sZnNzbC5jb20xHzAdBgkqhkiG9w0B
CQEWEGluZm9Ad29sZnNzbC5jb20wWTATBgcqhkjOPQIBBggqhkjOPQMBBwNCAARV
v/QPRFCaPc6bt/DFTfVwe9TsJI4ZgOxaTKIkA2Ism9rvojUSQ4R2FsZWlQbMAam9
9nUaQve9qbI2Il/HXX+0o4IBKjCCASYwHQYDVR0OBBYEFOvUS1lrlWE/UVe2BE2J
QYhEXKvyMIHCBgNVHSMEgbowgbeAFOvUS1lrlWE/UVe2BE2JQYhEXKvyoYGTpIGQ
MIGNMQswCQYDVQQGEwJVUzEPMA0GA1UECAwGT3JlZ29uMQ4wDAYDVQQHDAVTYWxl
bTETMBEGA1UECgwKQ2xpZW50IEVDQzENMAsGA1UECwwERmFzdDEYMBYGA1UEAwwP
d3d3LndvbGZzc2wuY29tMR8wHQYJKoZIhvcNAQkBFhBpbmZvQHdvbGZzc2wuY29t
ggkAzM7l8UIoLAIwDAYDVR0TBAUwAwEB/zAyBggrBgEFBQcBAQQmMCQwIgYIKwYB
BQUHMAGGFmh0dHA6Ly9sb2NhbGhvc3Q6MjIyMjIwCgYIKoZIzj0EAwIDSAAwRQIh
AJ8kwjvm5Sot0ZlnyvXt0daQGRYW+J5Wqe0bGZJUDqfiAiBRwVeBulB/CTi2Fn3c
Y1Dz8+2wjVZ1lJEhcTK3wlnJYA==
-----END CERTIFICATE-----
