Certificate:
    Data:
        Version: 3 (0x2)
        Serial Number:
            3f:22:48:98:11:ed:42:2a:57:f7:d2:7a:bf:df:4d:ec:21:56:46:16
        Signature Algorithm: sha256WithRSAEncryption
        Issuer: C=US, ST=Montana, L=Bozeman, O=wolfSSL_2048, OU=RELATIVE_URI, CN=www.wolfssl.com, emailAddress=info@wolfssl.com
        Validity
            Not Before: Nov 13 20:41:09 2025 GMT
            Not After : Aug  9 20:41:09 2028 GMT
        Subject: C=US, ST=Montana, L=Bozeman, O=wolfSSL_2048, OU=RELATIVE_URI, CN=www.wolfssl.com, emailAddress=info@wolfssl.com
        Subject Public Key Info:
            Public Key Algorithm: rsaEncryption
                Public-Key: (2048 bit)
                Modulus:
                    00:c3:03:d1:2b:fe:39:a4:32:45:3b:53:c8:84:2b:
                    2a:7c:74:9a:bd:aa:2a:52:07:47:d6:a6:36:b2:07:
                    32:8e:d0:ba:69:7b:c6:c3:44:9e:d4:81:48:fd:2d:
                    68:a2:8b:67:bb:a1:75:c8:36:2c:4a:d2:1b:f7:8b:
                    ba:cf:0d:f9:ef:ec:f1:81:1e:7b:9b:03:47:9a:bf:
                    65:cc:7f:65:24:69:a6:e8:14:89:5b:e4:34:f7:c5:
                    b0:14:93:f5:67:7b:3a:7a:78:e1:01:56:56:91:a6:
                    13:42:8d:d2:3c:40:9c:4c:ef:d1:86:df:37:51:1b:
                    0c:a1:3b:f5:f1:a3:4a:35:e4:e1:ce:96:df:1b:7e:
                    bf:4e:97:d0:10:e8:a8:08:30:81:af:20:0b:43:14:
                    c5:74:67:b4:32:82:6f:8d:86:c2:88:40:99:36:83:
                    ba:1e:40:72:22:17:d7:52:65:24:73:b0:ce:ef:19:
                    cd:ae:ff:78:6c:7b:c0:12:03:d4:4e:72:0d:50:6d:
                    3b:a3:3b:a3:99:5e:9d:c8:d9:0c:85:b3:d9:8a:d9:
                    54:26:db:6d:fa:ac:bb:ff:25:4c:c4:d1:79:f4:71:
                    d3:86:40:18:13:b0:63:b5:72:4e:30:c4:97:84:86:
                    2d:56:2f:d7:15:f7:7f:c0:ae:f5:fc:5b:e5:fb:a1:
                    ba:d3
                Exponent: 65537 (0x10001)
        X509v3 extensions:
            X509v3 Subject Key Identifier: 
                33:D8:45:66:D7:68:87:18:7E:54:0D:70:27:91:C7:26:D7:85:65:C0
            X509v3 Authority Key Identifier: 
                keyid:33:D8:45:66:D7:68:87:18:7E:54:0D:70:27:91:C7:26:D7:85:65:C0
                DirName:/C=US/ST=Montana/L=Bozeman/O=wolfSSL_2048/OU=RELATIVE_URI/CN=www.wolfssl.com/emailAddress=info@wolfssl.com
                serial:3F:22:48:98:11:ED:42:2A:57:F7:D2:7A:BF:DF:4D:EC:21:56:46:16
            X509v3 Basic Constraints: 
                CA:FALSE
            X509v3 Subject Alternative Name: 
                URI:../relative/page.html
    Signature Algorithm: sha256WithRSAEncryption
    Signature Value:
        37:b3:bb:45:35:21:fa:f4:26:06:f4:87:44:c1:86:e5:25:e1:
        69:0d:41:32:fb:a0:f6:ea:21:cd:3e:24:d8:5f:fe:28:89:62:
        93:4c:30:04:7a:00:f1:7d:3e:d7:1f:21:d2:fd:c7:26:9d:00:
        b4:5a:2f:24:a7:ea:5c:96:6d:07:0f:99:19:08:8e:ea:d5:33:
        c1:9d:48:91:1f:48:d4:a1:76:f5:a6:c8:76:a1:d9:5c:cc:20:
        97:2e:0b:a2:e1:28:2b:8f:1f:7b:d0:95:f2:7b:77:97:7d:64:
        77:48:72:86:93:f1:11:da:aa:6c:67:16:b5:40:17:14:40:33:
        df:36:f9:82:c1:41:22:5b:5c:e6:5c:65:b9:a2:b3:0a:eb:3f:
        aa:ed:08:f9:ac:1e:35:e6:58:59:d3:fa:fa:8a:b4:f5:dc:c9:
        8b:da:56:93:dc:3a:c1:f0:60:fd:55:b9:42:cf:8c:f0:cd:20:
        88:80:3e:95:87:99:94:98:54:bc:7a:d4:4c:ca:6e:0f:6e:44:
        79:cf:3f:eb:f6:fc:e5:96:f1:24:b5:58:c9:2c:c3:e1:ea:36:
        08:da:33:f0:a0:9e:df:4a:68:57:ab:25:63:32:e7:87:ff:fa:
        4e:9c:74:f3:cc:6d:b2:f4:54:50:9b:85:1c:3b:ef:b0:17:97:
        6f:81:73:d9
-----BEGIN CERTIFICATE-----
MIIE8zCCA9ugAwIBAgIUPyJImBHtQipX99J6v99N7CFWRhYwDQYJKoZIhvcNAQEL
BQAwgZoxCzAJBgNVBAYTAlVTMRAwDgYDVQQIDAdNb250YW5hMRAwDgYDVQQHDAdC
b3plbWFuMRUwEwYDVQQKDAx3b2xmU1NMXzIwNDgxFTATBgNVBAsMDFJFTEFUSVZF
X1VSSTEYMBYGA1UEAwwPd3d3LndvbGZzc2wuY29tMR8wHQYJKoZIhvcNAQkBFhBp
bmZvQHdvbGZzc2wuY29tMB4XDTI1MTExMzIwNDEwOVoXDTI4MDgwOTIwNDEwOVow
gZoxCzAJBgNVBAYTAlVTMRAwDgYDVQQIDAdNb250YW5hMRAwDgYDVQQHDAdCb3pl
bWFuMRUwEwYDVQQKDAx3b2xmU1NMXzIwNDgxFTATBgNVBAsMDFJFTEFUSVZFX1VS
STEYMBYGA1UEAwwPd3d3LndvbGZzc2wuY29tMR8wHQYJKoZIhvcNAQkBFhBpbmZv
QHdvbGZzc2wuY29tMIIBIjANBgkqhkiG9w0BAQEFAAOCAQ8AMIIBCgKCAQEAwwPR
K/45pDJFO1PIhCsqfHSavaoqUgdH1qY2sgcyjtC6aXvGw0Se1IFI/S1oootnu6F1
yDYsStIb94u6zw357+zxgR57mwNHmr9lzH9lJGmm6BSJW+Q098WwFJP1Z3s6enjh
AVZWkaYTQo3SPECcTO/Rht83URsMoTv18aNKNeThzpbfG36/TpfQEOioCDCBryAL
QxTFdGe0MoJvjYbCiECZNoO6HkByIhfXUmUkc7DO7xnNrv94bHvAEgPUTnINUG07
ozujmV6dyNkMhbPZitlUJttt+qy7/yVMxNF59HHThkAYE7BjtXJOMMSXhIYtVi/X
Ffd/wK71/Fvl+6G60wIDAQABo4IBLTCCASkwHQYDVR0OBBYEFDPYRWbXaIcYflQN
cCeRxybXhWXAMIHaBgNVHSMEgdIwgc+AFDPYRWbXaIcYflQNcCeRxybXhWXAoYGg
pIGdMIGaMQswCQYDVQQGEwJVUzEQMA4GA1UECAwHTW9udGFuYTEQMA4GA1UEBwwH
Qm96ZW1hbjEVMBMGA1UECgwMd29sZlNTTF8yMDQ4MRUwEwYDVQQLDAxSRUxBVElW
RV9VUkkxGDAWBgNVBAMMD3d3dy53b2xmc3NsLmNvbTEfMB0GCSqGSIb3DQEJARYQ
aW5mb0B3b2xmc3NsLmNvbYIUPyJImBHtQipX99J6v99N7CFWRhYwCQYDVR0TBAIw
ADAgBgNVHREEGTAXhhUuLi9yZWxhdGl2ZS9wYWdlLmh0bWwwDQYJKoZIhvcNAQEL
BQADggEBADezu0U1Ifr0Jgb0h0TBhuUl4WkNQTL7oPbqIc0+JNhf/iiJYpNMMAR6
APF9PtcfIdL9xyadALRaLySn6lyWbQcPmRkIjurVM8GdSJEfSNShdvWmyHah2VzM
IJcuC6LhKCuPH3vQlfJ7d5d9ZHdIcoaT8RHaqmxnFrVAFxRAM982+YLBQSJbXOZc
ZbmiswrrP6rtCPmsHjXmWFnT+vqKtPXcyYvaVpPcOsHwYP1VuULPjPDNIIiAPpWH
mZSYVLx61EzKbg9uRHnPP+v2/OWW8SS1WMksw+HqNgjaM/Cgnt9KaFerJWMy54f/
+k6cdPPMbbL0VFCbhRw777AXl2+Bc9k=
-----END CERTIFICATE-----
