Certificate:
    Data:
        Version: 3 (0x2)
        Serial Number:
            75:90:2e:a0:c3:e1:96:e1:92:48:b7:a5:c5:83:a1:c9:a7:3e:e9:5f
        Signature Algorithm: sha256WithRSAEncryption
        Issuer: C=US, ST=Montana, L=Bozeman, O=wolfSSL_2048, OU=Programming-2048, CN=www.wolfssl.com, emailAddress=facts@wolfssl.com
        Validity
            Not Before: Jun 11 21:44:27 2026 GMT
            Not After : Mar  7 21:44:27 2029 GMT
        Subject: C=US, ST=Montana, L=Bozeman, O=wolfSSL_2048, OU=Programming-2048, CN=www.wolfssl.com, emailAddress=facts@wolfssl.com
        Subject Public Key Info:
            Public Key Algorithm: rsaEncryption
                Public-Key: (2048 bit)
                Modulus:
                    00:c3:03:d1:2b:fe:39:a4:32:45:3b:53:c8:84:2b:
                    2a:7c:74:9a:bd:aa:2a:52:07:47:d6:a6:36:b2:07:
                    32:8e:d0:ba:69:7b:c6:c3:44:9e:d4:81:48:fd:2d:
                    68:a2:8b:67:bb:a1:75:c8:36:2c:4a:d2:1b:f7:8b:
                    ba:cf:0d:f9:ef:ec:f1:81:1e:7b:9b:03:47:9a:bf:
                    65:cc:7f:65:24:69:a6:e8:14:89:5b:e4:34:f7:c5:
                    b0:14:93:f5:67:7b:3a:7a:78:e1:01:56:56:91:a6:
                    13:42:8d:d2:3c:40:9c:4c:ef:d1:86:df:37:51:1b:
                    0c:a1:3b:f5:f1:a3:4a:35:e4:e1:ce:96:df:1b:7e:
                    bf:4e:97:d0:10:e8:a8:08:30:81:af:20:0b:43:14:
                    c5:74:67:b4:32:82:6f:8d:86:c2:88:40:99:36:83:
                    ba:1e:40:72:22:17:d7:52:65:24:73:b0:ce:ef:19:
                    cd:ae:ff:78:6c:7b:c0:12:03:d4:4e:72:0d:50:6d:
                    3b:a3:3b:a3:99:5e:9d:c8:d9:0c:85:b3:d9:8a:d9:
                    54:26:db:6d:fa:ac:bb:ff:25:4c:c4:d1:79:f4:71:
                    d3:86:40:18:13:b0:63:b5:72:4e:30:c4:97:84:86:
                    2d:56:2f:d7:15:f7:7f:c0:ae:f5:fc:5b:e5:fb:a1:
                    ba:d3
                Exponent: 65537 (0x10001)
        X509v3 extensions:
            X509v3 Subject Key Identifier: 
                33:D8:45:66:D7:68:87:18:7E:54:0D:70:27:91:C7:26:D7:85:65:C0
            X509v3 Authority Key Identifier: 
                keyid:33:D8:45:66:D7:68:87:18:7E:54:0D:70:27:91:C7:26:D7:85:65:C0
                DirName:/C=US/ST=Montana/L=Bozeman/O=wolfSSL_2048/OU=Programming-2048/CN=www.wolfssl.com/emailAddress=facts@wolfssl.com
                serial:75:90:2E:A0:C3:E1:96:E1:92:48:B7:A5:C5:83:A1:C9:A7:3E:E9:5F
            X509v3 Basic Constraints: 
                CA:TRUE
            X509v3 Subject Alternative Name: 
                DNS:example.com, IP Address:127.0.0.1
            X509v3 Extended Key Usage: 
                TLS Web Server Authentication, TLS Web Client Authentication
    Signature Algorithm: sha256WithRSAEncryption
    Signature Value:
        4f:7c:37:d9:bf:b6:b7:18:12:2e:fb:6b:a8:0c:9e:24:03:f1:
        c3:7e:a0:c0:33:da:13:83:ee:a3:52:11:0d:66:0c:20:1b:9d:
        89:91:0f:1c:a6:e0:16:e7:f7:d3:c5:d7:d7:11:31:c5:17:90:
        0f:12:96:95:dc:c5:ca:6c:33:fa:35:f0:df:3b:0b:b4:10:86:
        31:e6:a5:11:90:c2:d1:95:f2:3f:86:fa:29:9e:d1:6c:c0:1f:
        97:76:13:e4:b0:26:65:9c:d6:3e:43:d2:2e:aa:0c:14:95:aa:
        8e:65:d5:f5:61:1c:d6:a3:c0:4c:2c:90:49:ab:eb:3c:13:5f:
        85:8c:f8:22:20:a9:3a:94:ea:fb:fd:40:a4:88:20:06:31:e3:
        ee:6e:c8:6d:77:ad:f6:c4:1e:d8:7a:8e:a4:64:1a:73:6c:e6:
        7d:79:d9:1e:44:18:d1:31:b0:97:85:e9:c9:f0:8e:df:0e:f8:
        78:ec:48:9c:70:c8:12:38:f0:04:4f:3e:ad:bd:90:dd:d8:5d:
        66:67:b3:e9:a7:6b:79:ab:9c:04:79:91:e0:e6:36:e5:1f:82:
        81:4c:20:71:ea:09:83:9f:ce:a7:42:74:00:c2:15:77:8a:a2:
        c6:91:47:94:01:2d:0d:d7:de:78:5f:d4:2a:43:f4:fc:79:53:
        6d:c4:61:8f
-----BEGIN CERTIFICATE-----
MIIFIDCCBAigAwIBAgIUdZAuoMPhluGSSLelxYOhyac+6V8wDQYJKoZIhvcNAQEL
BQAwgZ8xCzAJBgNVBAYTAlVTMRAwDgYDVQQIDAdNb250YW5hMRAwDgYDVQQHDAdC
b3plbWFuMRUwEwYDVQQKDAx3b2xmU1NMXzIwNDgxGTAXBgNVBAsMEFByb2dyYW1t
aW5nLTIwNDgxGDAWBgNVBAMMD3d3dy53b2xmc3NsLmNvbTEgMB4GCSqGSIb3DQEJ
ARYRZmFjdHNAd29sZnNzbC5jb20wHhcNMjYwNjExMjE0NDI3WhcNMjkwMzA3MjE0
NDI3WjCBnzELMAkGA1UEBhMCVVMxEDAOBgNVBAgMB01vbnRhbmExEDAOBgNVBAcM
B0JvemVtYW4xFTATBgNVBAoMDHdvbGZTU0xfMjA0ODEZMBcGA1UECwwQUHJvZ3Jh
bW1pbmctMjA0ODEYMBYGA1UEAwwPd3d3LndvbGZzc2wuY29tMSAwHgYJKoZIhvcN
AQkBFhFmYWN0c0B3b2xmc3NsLmNvbTCCASIwDQYJKoZIhvcNAQEBBQADggEPADCC
AQoCggEBAMMD0Sv+OaQyRTtTyIQrKnx0mr2qKlIHR9amNrIHMo7Quml7xsNEntSB
SP0taKKLZ7uhdcg2LErSG/eLus8N+e/s8YEee5sDR5q/Zcx/ZSRppugUiVvkNPfF
sBST9Wd7Onp44QFWVpGmE0KN0jxAnEzv0YbfN1EbDKE79fGjSjXk4c6W3xt+v06X
0BDoqAgwga8gC0MUxXRntDKCb42GwohAmTaDuh5AciIX11JlJHOwzu8Zza7/eGx7
wBID1E5yDVBtO6M7o5lencjZDIWz2YrZVCbbbfqsu/8lTMTRefRx04ZAGBOwY7Vy
TjDEl4SGLVYv1xX3f8Cu9fxb5fuhutMCAwEAAaOCAVAwggFMMB0GA1UdDgQWBBQz
2EVm12iHGH5UDXAnkccm14VlwDCB3wYDVR0jBIHXMIHUgBQz2EVm12iHGH5UDXAn
kccm14VlwKGBpaSBojCBnzELMAkGA1UEBhMCVVMxEDAOBgNVBAgMB01vbnRhbmEx
EDAOBgNVBAcMB0JvemVtYW4xFTATBgNVBAoMDHdvbGZTU0xfMjA0ODEZMBcGA1UE
CwwQUHJvZ3JhbW1pbmctMjA0ODEYMBYGA1UEAwwPd3d3LndvbGZzc2wuY29tMSAw
HgYJKoZIhvcNAQkBFhFmYWN0c0B3b2xmc3NsLmNvbYIUdZAuoMPhluGSSLelxYOh
yac+6V8wDAYDVR0TBAUwAwEB/zAcBgNVHREEFTATggtleGFtcGxlLmNvbYcEfwAA
ATAdBgNVHSUEFjAUBggrBgEFBQcDAQYIKwYBBQUHAwIwDQYJKoZIhvcNAQELBQAD
ggEBAE98N9m/trcYEi77a6gMniQD8cN+oMAz2hOD7qNSEQ1mDCAbnYmRDxym4Bbn
99PF19cRMcUXkA8SlpXcxcpsM/o18N87C7QQhjHmpRGQwtGV8j+G+ime0WzAH5d2
E+SwJmWc1j5D0i6qDBSVqo5l1fVhHNajwEwskEmr6zwTX4WM+CIgqTqU6vv9QKSI
IAYx4+5uyG13rfbEHth6jqRkGnNs5n152R5EGNExsJeF6cnwjt8O+HjsSJxwyBI4
8ARPPq29kN3YXWZns+mna3mrnAR5keDmNuUfgoFMIHHqCYOfzqdCdADCFXeKosaR
R5QBLQ3X3nhf1CpD9Px5U23EYY8=
-----END CERTIFICATE-----
Certificate:
    Data:
        Version: 3 (0x2)
        Serial Number:
            56:d8:75:ca:fc:57:ee:e0:9a:b8:1c:18:a2:9e:2f:b2:27:f4:4a:6c
        Signature Algorithm: ecdsa-with-SHA256
        Issuer: C=US, ST=Oregon, L=Salem, O=Client ECC, OU=Fast, CN=www.wolfssl.com, emailAddress=facts@wolfssl.com
        Validity
            Not Before: Jun 11 21:44:29 2026 GMT
            Not After : Mar  7 21:44:29 2029 GMT
        Subject: C=US, ST=Oregon, L=Salem, O=Client ECC, OU=Fast, CN=www.wolfssl.com, emailAddress=facts@wolfssl.com
        Subject Public Key Info:
            Public Key Algorithm: id-ecPublicKey
                Public-Key: (256 bit)
                pub:
                    04:55:bf:f4:0f:44:50:9a:3d:ce:9b:b7:f0:c5:4d:
                    f5:70:7b:d4:ec:24:8e:19:80:ec:5a:4c:a2:24:03:
                    62:2c:9b:da:ef:a2:35:12:43:84:76:16:c6:56:95:
                    06:cc:01:a9:bd:f6:75:1a:42:f7:bd:a9:b2:36:22:
                    5f:c7:5d:7f:b4
                ASN1 OID: prime256v1
                NIST CURVE: P-256
        X509v3 extensions:
            X509v3 Subject Key Identifier: 
                EB:D4:4B:59:6B:95:61:3F:51:57:B6:04:4D:89:41:88:44:5C:AB:F2
            X509v3 Authority Key Identifier: 
                keyid:EB:D4:4B:59:6B:95:61:3F:51:57:B6:04:4D:89:41:88:44:5C:AB:F2
                DirName:/C=US/ST=Oregon/L=Salem/O=Client ECC/OU=Fast/CN=www.wolfssl.com/emailAddress=facts@wolfssl.com
                serial:56:D8:75:CA:FC:57:EE:E0:9A:B8:1C:18:A2:9E:2F:B2:27:F4:4A:6C
            X509v3 Basic Constraints: 
                CA:TRUE
            X509v3 Subject Alternative Name: 
                DNS:example.com, IP Address:127.0.0.1
            X509v3 Extended Key Usage: 
                TLS Web Server Authentication, TLS Web Client Authentication
    Signature Algorithm: ecdsa-with-SHA256
    Signature Value:
        30:46:02:21:00:a2:55:14:ca:d1:0b:5e:8b:3c:51:e6:b7:51:
        91:8a:81:86:8c:c6:ef:9a:33:41:3c:f0:0c:96:d8:35:f6:90:
        0c:02:21:00:81:ba:96:7e:78:bb:65:62:9d:c8:a8:45:d1:b3:
        a3:e5:7c:35:62:e6:da:32:2a:4f:d2:8f:8b:c1:76:87:dc:aa
-----BEGIN CERTIFICATE-----
MIIDYjCCAwegAwIBAgIUVth1yvxX7uCauBwYop4vsif0SmwwCgYIKoZIzj0EAwIw
gY4xCzAJBgNVBAYTAlVTMQ8wDQYDVQQIDAZPcmVnb24xDjAMBgNVBAcMBVNhbGVt
MRMwEQYDVQQKDApDbGllbnQgRUNDMQ0wCwYDVQQLDARGYXN0MRgwFgYDVQQDDA93
d3cud29sZnNzbC5jb20xIDAeBgkqhkiG9w0BCQEWEWZhY3RzQHdvbGZzc2wuY29t
MB4XDTI2MDYxMTIxNDQyOVoXDTI5MDMwNzIxNDQyOVowgY4xCzAJBgNVBAYTAlVT
MQ8wDQYDVQQIDAZPcmVnb24xDjAMBgNVBAcMBVNhbGVtMRMwEQYDVQQKDApDbGll
bnQgRUNDMQ0wCwYDVQQLDARGYXN0MRgwFgYDVQQDDA93d3cud29sZnNzbC5jb20x
IDAeBgkqhkiG9w0BCQEWEWZhY3RzQHdvbGZzc2wuY29tMFkwEwYHKoZIzj0CAQYI
KoZIzj0DAQcDQgAEVb/0D0RQmj3Om7fwxU31cHvU7CSOGYDsWkyiJANiLJva76I1
EkOEdhbGVpUGzAGpvfZ1GkL3vamyNiJfx11/tKOCAT8wggE7MB0GA1UdDgQWBBTr
1EtZa5VhP1FXtgRNiUGIRFyr8jCBzgYDVR0jBIHGMIHDgBTr1EtZa5VhP1FXtgRN
iUGIRFyr8qGBlKSBkTCBjjELMAkGA1UEBhMCVVMxDzANBgNVBAgMBk9yZWdvbjEO
MAwGA1UEBwwFU2FsZW0xEzARBgNVBAoMCkNsaWVudCBFQ0MxDTALBgNVBAsMBEZh
c3QxGDAWBgNVBAMMD3d3dy53b2xmc3NsLmNvbTEgMB4GCSqGSIb3DQEJARYRZmFj
dHNAd29sZnNzbC5jb22CFFbYdcr8V+7gmrgcGKKeL7In9EpsMAwGA1UdEwQFMAMB
Af8wHAYDVR0RBBUwE4ILZXhhbXBsZS5jb22HBH8AAAEwHQYDVR0lBBYwFAYIKwYB
BQUHAwEGCCsGAQUFBwMCMAoGCCqGSM49BAMCA0kAMEYCIQCiVRTK0QteizxR5rdR
kYqBhozG75ozQTzwDJbYNfaQDAIhAIG6ln54u2VincioRdGzo+V8NWLm2jIqT9KP
i8F2h9yq
-----END CERTIFICATE-----
