Certificate:
    Data:
        Version: 3 (0x2)
        Serial Number:
            5a:cb:8f:e5:df:1f:3f:51:f7:da:7f:14:e1:1a:e3:1b:4a:16:ad:89
        Signature Algorithm: sha256WithRSAEncryption
        Issuer: C = US, ST = Montana, L = Bozeman, O = wolfSSL_2048, OU = RELATIVE_URI, CN = www.wolfssl.com, emailAddress = info@wolfssl.com
        Validity
            Not Before: Dec 20 23:07:24 2021 GMT
            Not After : Sep 15 23:07:24 2024 GMT
        Subject: C = US, ST = Montana, L = Bozeman, O = wolfSSL_2048, OU = RELATIVE_URI, CN = www.wolfssl.com, emailAddress = info@wolfssl.com
        Subject Public Key Info:
            Public Key Algorithm: rsaEncryption
                RSA Public-Key: (2048 bit)
                Modulus:
                    00:c3:03:d1:2b:fe:39:a4:32:45:3b:53:c8:84:2b:
                    2a:7c:74:9a:bd:aa:2a:52:07:47:d6:a6:36:b2:07:
                    32:8e:d0:ba:69:7b:c6:c3:44:9e:d4:81:48:fd:2d:
                    68:a2:8b:67:bb:a1:75:c8:36:2c:4a:d2:1b:f7:8b:
                    ba:cf:0d:f9:ef:ec:f1:81:1e:7b:9b:03:47:9a:bf:
                    65:cc:7f:65:24:69:a6:e8:14:89:5b:e4:34:f7:c5:
                    b0:14:93:f5:67:7b:3a:7a:78:e1:01:56:56:91:a6:
                    13:42:8d:d2:3c:40:9c:4c:ef:d1:86:df:37:51:1b:
                    0c:a1:3b:f5:f1:a3:4a:35:e4:e1:ce:96:df:1b:7e:
                    bf:4e:97:d0:10:e8:a8:08:30:81:af:20:0b:43:14:
                    c5:74:67:b4:32:82:6f:8d:86:c2:88:40:99:36:83:
                    ba:1e:40:72:22:17:d7:52:65:24:73:b0:ce:ef:19:
                    cd:ae:ff:78:6c:7b:c0:12:03:d4:4e:72:0d:50:6d:
                    3b:a3:3b:a3:99:5e:9d:c8:d9:0c:85:b3:d9:8a:d9:
                    54:26:db:6d:fa:ac:bb:ff:25:4c:c4:d1:79:f4:71:
                    d3:86:40:18:13:b0:63:b5:72:4e:30:c4:97:84:86:
                    2d:56:2f:d7:15:f7:7f:c0:ae:f5:fc:5b:e5:fb:a1:
                    ba:d3
                Exponent: 65537 (0x10001)
        X509v3 extensions:
            X509v3 Subject Key Identifier: 
                33:D8:45:66:D7:68:87:18:7E:54:0D:70:27:91:C7:26:D7:85:65:C0
            X509v3 Authority Key Identifier: 
                keyid:33:D8:45:66:D7:68:87:18:7E:54:0D:70:27:91:C7:26:D7:85:65:C0
                DirName:/C=US/ST=Montana/L=Bozeman/O=wolfSSL_2048/OU=RELATIVE_URI/CN=www.wolfssl.com/emailAddress=info@wolfssl.com
                serial:5A:CB:8F:E5:DF:1F:3F:51:F7:DA:7F:14:E1:1A:E3:1B:4A:16:AD:89

            X509v3 Basic Constraints: 
                CA:FALSE
            X509v3 Subject Alternative Name: 
                URI:../relative/page.html
    Signature Algorithm: sha256WithRSAEncryption
         3e:74:e8:ec:bf:d8:23:17:cb:99:0b:78:b8:e4:44:4b:dd:c1:
         c2:a9:3e:89:2d:e4:9c:c2:17:c0:4c:7a:c2:79:ef:30:ec:eb:
         fd:6e:bf:46:29:42:a1:23:1a:87:b3:fd:9f:e9:f0:61:cd:28:
         b8:35:1a:b2:42:32:fc:2e:71:e3:ec:a5:fc:b3:d9:39:f3:6e:
         85:fc:5b:81:cb:a8:99:53:7a:6f:49:b2:a8:9e:8b:a4:1c:b4:
         93:e6:c7:72:08:e2:53:09:43:5f:03:4a:f4:b4:7c:06:83:28:
         00:42:73:bd:03:e0:7c:c9:33:d2:ea:08:12:76:08:6f:b1:e4:
         b1:a9:eb:fa:27:c7:c1:02:16:4f:db:79:a4:a7:6b:4c:1d:79:
         0d:7e:c6:5f:b6:2e:01:2d:e4:7d:52:f1:f4:72:53:92:3e:0d:
         72:ae:49:c3:7c:65:22:cd:ad:22:b5:72:25:59:a4:15:50:d1:
         5b:9c:c4:11:b7:ec:74:8b:37:ca:29:4e:6b:58:37:35:66:a8:
         18:4b:45:00:b4:0c:aa:98:9c:80:8b:a6:46:74:d8:99:b4:80:
         ce:bb:a7:13:f6:5e:05:1f:a6:93:94:b5:3e:40:73:38:ca:1b:
         79:28:d6:65:3f:1a:60:d1:57:01:81:79:2c:27:0c:7c:dd:e0:
         54:ea:df:c6
-----BEGIN CERTIFICATE-----
MIIE8zCCA9ugAwIBAgIUWsuP5d8fP1H32n8U4RrjG0oWrYkwDQYJKoZIhvcNAQEL
BQAwgZoxCzAJBgNVBAYTAlVTMRAwDgYDVQQIDAdNb250YW5hMRAwDgYDVQQHDAdC
b3plbWFuMRUwEwYDVQQKDAx3b2xmU1NMXzIwNDgxFTATBgNVBAsMDFJFTEFUSVZF
X1VSSTEYMBYGA1UEAwwPd3d3LndvbGZzc2wuY29tMR8wHQYJKoZIhvcNAQkBFhBp
bmZvQHdvbGZzc2wuY29tMB4XDTIxMTIyMDIzMDcyNFoXDTI0MDkxNTIzMDcyNFow
gZoxCzAJBgNVBAYTAlVTMRAwDgYDVQQIDAdNb250YW5hMRAwDgYDVQQHDAdCb3pl
bWFuMRUwEwYDVQQKDAx3b2xmU1NMXzIwNDgxFTATBgNVBAsMDFJFTEFUSVZFX1VS
STEYMBYGA1UEAwwPd3d3LndvbGZzc2wuY29tMR8wHQYJKoZIhvcNAQkBFhBpbmZv
QHdvbGZzc2wuY29tMIIBIjANBgkqhkiG9w0BAQEFAAOCAQ8AMIIBCgKCAQEAwwPR
K/45pDJFO1PIhCsqfHSavaoqUgdH1qY2sgcyjtC6aXvGw0Se1IFI/S1oootnu6F1
yDYsStIb94u6zw357+zxgR57mwNHmr9lzH9lJGmm6BSJW+Q098WwFJP1Z3s6enjh
AVZWkaYTQo3SPECcTO/Rht83URsMoTv18aNKNeThzpbfG36/TpfQEOioCDCBryAL
QxTFdGe0MoJvjYbCiECZNoO6HkByIhfXUmUkc7DO7xnNrv94bHvAEgPUTnINUG07
ozujmV6dyNkMhbPZitlUJttt+qy7/yVMxNF59HHThkAYE7BjtXJOMMSXhIYtVi/X
Ffd/wK71/Fvl+6G60wIDAQABo4IBLTCCASkwHQYDVR0OBBYEFDPYRWbXaIcYflQN
cCeRxybXhWXAMIHaBgNVHSMEgdIwgc+AFDPYRWbXaIcYflQNcCeRxybXhWXAoYGg
pIGdMIGaMQswCQYDVQQGEwJVUzEQMA4GA1UECAwHTW9udGFuYTEQMA4GA1UEBwwH
Qm96ZW1hbjEVMBMGA1UECgwMd29sZlNTTF8yMDQ4MRUwEwYDVQQLDAxSRUxBVElW
RV9VUkkxGDAWBgNVBAMMD3d3dy53b2xmc3NsLmNvbTEfMB0GCSqGSIb3DQEJARYQ
aW5mb0B3b2xmc3NsLmNvbYIUWsuP5d8fP1H32n8U4RrjG0oWrYkwCQYDVR0TBAIw
ADAgBgNVHREEGTAXhhUuLi9yZWxhdGl2ZS9wYWdlLmh0bWwwDQYJKoZIhvcNAQEL
BQADggEBAD506Oy/2CMXy5kLeLjkREvdwcKpPokt5JzCF8BMesJ57zDs6/1uv0Yp
QqEjGoez/Z/p8GHNKLg1GrJCMvwucePspfyz2TnzboX8W4HLqJlTem9Jsqiei6Qc
tJPmx3II4lMJQ18DSvS0fAaDKABCc70D4HzJM9LqCBJ2CG+x5LGp6/onx8ECFk/b
eaSna0wdeQ1+xl+2LgEt5H1S8fRyU5I+DXKuScN8ZSLNrSK1ciVZpBVQ0VucxBG3
7HSLN8opTmtYNzVmqBhLRQC0DKqYnICLpkZ02Jm0gM67pxP2XgUfppOUtT5AczjK
G3ko1mU/GmDRVwGBeSwnDHzd4FTq38Y=
-----END CERTIFICATE-----
