Certificate:
    Data:
        Version: 3 (0x2)
        Serial Number:
            01:3e:04:66:a8:df:bf:4a:a9:8b:df:96:0c:dd:cc:0e:21:cc:16:9b
        Signature Algorithm: sha256WithRSAEncryption
        Issuer: C=US, ST=Montana, L=Bozeman, O=wolfSSL_2048, OU=RELATIVE_URI, CN=www.wolfssl.com, emailAddress=facts@wolfssl.com
        Validity
            Not Before: Jun 11 21:44:27 2026 GMT
            Not After : Mar  7 21:44:27 2029 GMT
        Subject: C=US, ST=Montana, L=Bozeman, O=wolfSSL_2048, OU=RELATIVE_URI, CN=www.wolfssl.com, emailAddress=facts@wolfssl.com
        Subject Public Key Info:
            Public Key Algorithm: rsaEncryption
                Public-Key: (2048 bit)
                Modulus:
                    00:c3:03:d1:2b:fe:39:a4:32:45:3b:53:c8:84:2b:
                    2a:7c:74:9a:bd:aa:2a:52:07:47:d6:a6:36:b2:07:
                    32:8e:d0:ba:69:7b:c6:c3:44:9e:d4:81:48:fd:2d:
                    68:a2:8b:67:bb:a1:75:c8:36:2c:4a:d2:1b:f7:8b:
                    ba:cf:0d:f9:ef:ec:f1:81:1e:7b:9b:03:47:9a:bf:
                    65:cc:7f:65:24:69:a6:e8:14:89:5b:e4:34:f7:c5:
                    b0:14:93:f5:67:7b:3a:7a:78:e1:01:56:56:91:a6:
                    13:42:8d:d2:3c:40:9c:4c:ef:d1:86:df:37:51:1b:
                    0c:a1:3b:f5:f1:a3:4a:35:e4:e1:ce:96:df:1b:7e:
                    bf:4e:97:d0:10:e8:a8:08:30:81:af:20:0b:43:14:
                    c5:74:67:b4:32:82:6f:8d:86:c2:88:40:99:36:83:
                    ba:1e:40:72:22:17:d7:52:65:24:73:b0:ce:ef:19:
                    cd:ae:ff:78:6c:7b:c0:12:03:d4:4e:72:0d:50:6d:
                    3b:a3:3b:a3:99:5e:9d:c8:d9:0c:85:b3:d9:8a:d9:
                    54:26:db:6d:fa:ac:bb:ff:25:4c:c4:d1:79:f4:71:
                    d3:86:40:18:13:b0:63:b5:72:4e:30:c4:97:84:86:
                    2d:56:2f:d7:15:f7:7f:c0:ae:f5:fc:5b:e5:fb:a1:
                    ba:d3
                Exponent: 65537 (0x10001)
        X509v3 extensions:
            X509v3 Subject Key Identifier: 
                33:D8:45:66:D7:68:87:18:7E:54:0D:70:27:91:C7:26:D7:85:65:C0
            X509v3 Authority Key Identifier: 
                keyid:33:D8:45:66:D7:68:87:18:7E:54:0D:70:27:91:C7:26:D7:85:65:C0
                DirName:/C=US/ST=Montana/L=Bozeman/O=wolfSSL_2048/OU=RELATIVE_URI/CN=www.wolfssl.com/emailAddress=facts@wolfssl.com
                serial:01:3E:04:66:A8:DF:BF:4A:A9:8B:DF:96:0C:DD:CC:0E:21:CC:16:9B
            X509v3 Basic Constraints: 
                CA:FALSE
            X509v3 Subject Alternative Name: 
                URI:../relative/page.html
    Signature Algorithm: sha256WithRSAEncryption
    Signature Value:
        5b:f1:d5:aa:ca:a0:ba:e4:7b:53:d6:58:14:f0:0e:93:63:ef:
        35:79:35:93:e1:1d:10:d3:6a:1a:9e:95:b3:cf:19:50:0a:dc:
        2c:b9:d9:3d:09:c5:80:a4:dd:01:18:0f:9f:63:6d:3c:a8:25:
        43:77:55:ce:7d:ed:cc:65:bf:1a:d4:13:52:0d:08:50:a5:c4:
        3a:2f:2a:32:6c:ea:51:47:77:e2:a7:1e:f7:b8:e1:d6:55:ba:
        a3:9a:71:35:25:60:22:4d:c6:64:a6:41:86:1f:93:8d:73:54:
        10:8e:da:d2:37:70:39:73:f9:23:31:82:f0:e8:38:a2:f1:fe:
        5c:9a:7d:65:fd:5b:ab:87:9f:4d:0a:35:5d:3e:af:a6:0c:92:
        36:5d:c8:d9:7d:b0:82:51:8b:20:fc:7e:fb:d2:0a:f3:db:b7:
        fc:45:0b:ac:05:f3:c8:c4:7c:5e:8a:13:35:b1:24:67:5d:2b:
        54:68:59:2d:f3:9c:d0:32:d3:a8:74:e8:5a:8b:1c:bd:30:0c:
        d9:26:61:6a:68:d2:2d:52:a4:e3:f3:d8:ef:43:33:46:4b:b7:
        c5:0b:51:f4:98:5d:4c:b0:4f:82:6a:0c:ef:d1:08:db:b6:f7:
        2a:c7:5b:df:65:fd:9b:dd:72:04:9b:56:f8:d3:ed:4a:65:c1:
        5f:39:86:21
-----BEGIN CERTIFICATE-----
MIIE9jCCA96gAwIBAgIUAT4EZqjfv0qpi9+WDN3MDiHMFpswDQYJKoZIhvcNAQEL
BQAwgZsxCzAJBgNVBAYTAlVTMRAwDgYDVQQIDAdNb250YW5hMRAwDgYDVQQHDAdC
b3plbWFuMRUwEwYDVQQKDAx3b2xmU1NMXzIwNDgxFTATBgNVBAsMDFJFTEFUSVZF
X1VSSTEYMBYGA1UEAwwPd3d3LndvbGZzc2wuY29tMSAwHgYJKoZIhvcNAQkBFhFm
YWN0c0B3b2xmc3NsLmNvbTAeFw0yNjA2MTEyMTQ0MjdaFw0yOTAzMDcyMTQ0Mjda
MIGbMQswCQYDVQQGEwJVUzEQMA4GA1UECAwHTW9udGFuYTEQMA4GA1UEBwwHQm96
ZW1hbjEVMBMGA1UECgwMd29sZlNTTF8yMDQ4MRUwEwYDVQQLDAxSRUxBVElWRV9V
UkkxGDAWBgNVBAMMD3d3dy53b2xmc3NsLmNvbTEgMB4GCSqGSIb3DQEJARYRZmFj
dHNAd29sZnNzbC5jb20wggEiMA0GCSqGSIb3DQEBAQUAA4IBDwAwggEKAoIBAQDD
A9Er/jmkMkU7U8iEKyp8dJq9qipSB0fWpjayBzKO0Lppe8bDRJ7UgUj9LWiii2e7
oXXINixK0hv3i7rPDfnv7PGBHnubA0eav2XMf2UkaaboFIlb5DT3xbAUk/Vnezp6
eOEBVlaRphNCjdI8QJxM79GG3zdRGwyhO/Xxo0o15OHOlt8bfr9Ol9AQ6KgIMIGv
IAtDFMV0Z7Qygm+NhsKIQJk2g7oeQHIiF9dSZSRzsM7vGc2u/3hse8ASA9ROcg1Q
bTujO6OZXp3I2QyFs9mK2VQm2236rLv/JUzE0Xn0cdOGQBgTsGO1ck4wxJeEhi1W
L9cV93/ArvX8W+X7obrTAgMBAAGjggEuMIIBKjAdBgNVHQ4EFgQUM9hFZtdohxh+
VA1wJ5HHJteFZcAwgdsGA1UdIwSB0zCB0IAUM9hFZtdohxh+VA1wJ5HHJteFZcCh
gaGkgZ4wgZsxCzAJBgNVBAYTAlVTMRAwDgYDVQQIDAdNb250YW5hMRAwDgYDVQQH
DAdCb3plbWFuMRUwEwYDVQQKDAx3b2xmU1NMXzIwNDgxFTATBgNVBAsMDFJFTEFU
SVZFX1VSSTEYMBYGA1UEAwwPd3d3LndvbGZzc2wuY29tMSAwHgYJKoZIhvcNAQkB
FhFmYWN0c0B3b2xmc3NsLmNvbYIUAT4EZqjfv0qpi9+WDN3MDiHMFpswCQYDVR0T
BAIwADAgBgNVHREEGTAXhhUuLi9yZWxhdGl2ZS9wYWdlLmh0bWwwDQYJKoZIhvcN
AQELBQADggEBAFvx1arKoLrke1PWWBTwDpNj7zV5NZPhHRDTahqelbPPGVAK3Cy5
2T0JxYCk3QEYD59jbTyoJUN3Vc597cxlvxrUE1INCFClxDovKjJs6lFHd+KnHve4
4dZVuqOacTUlYCJNxmSmQYYfk41zVBCO2tI3cDlz+SMxgvDoOKLx/lyafWX9W6uH
n00KNV0+r6YMkjZdyNl9sIJRiyD8fvvSCvPbt/xFC6wF88jEfF6KEzWxJGddK1Ro
WS3znNAy06h06FqLHL0wDNkmYWpo0i1SpOPz2O9DM0ZLt8ULUfSYXUywT4JqDO/R
CNu29yrHW99l/ZvdcgSbVvjT7UplwV85hiE=
-----END CERTIFICATE-----
