Certificate:
    Data:
        Version: 3 (0x2)
        Serial Number: 11535733361370405423 (0xa017285f8c1b1a2f)
    Signature Algorithm: ecdsa-with-SHA256
        Issuer: O=WR, C=DE
        Validity
            Not Before: Mar  2 21:02:20 2018 GMT
            Not After : Mar  2 21:02:20 2019 GMT
        Subject: O=WR, C=DE
        Subject Public Key Info:
            Public Key Algorithm: id-ecPublicKey
                Public-Key: (256 bit)
                pub: 
                    04:25:c0:fd:16:b8:2b:f2:b8:0a:1e:dd:ac:ce:62:
                    52:7c:58:0a:60:7d:57:75:da:bd:11:c1:d5:2a:ea:
                    54:6b:76:e6:3d:36:f7:dd:51:97:6b:a8:26:fe:7b:
                    a6:bd:96:55:85:50:9d:9a:7e:69:01:d8:43:45:89:
                    d9:fe:4a:2b:26
                ASN1 OID: prime256v1
                NIST CURVE: P-256
        X509v3 extensions:
            X509v3 Subject Key Identifier: 
                B2:B1:0D:05:AC:6A:0C:A1:AD:92:0A:7E:C7:E1:68:56:35:40:19:EA
            X509v3 Authority Key Identifier: 
                keyid:B2:B1:0D:05:AC:6A:0C:A1:AD:92:0A:7E:C7:E1:68:56:35:40:19:EA

            X509v3 Basic Constraints: 
                CA:TRUE
    Signature Algorithm: ecdsa-with-SHA256
         30:44:02:20:2f:5e:f3:52:0b:39:4c:1a:69:6d:52:cf:a5:7a:
         63:03:0b:ff:48:9a:32:fb:57:66:10:60:7d:6e:e2:e4:87:e2:
         02:20:24:21:fd:a9:88:74:07:79:5f:e5:15:89:41:39:51:32:
         a9:62:8d:ef:4b:8a:3c:81:ca:7f:2e:32:f1:fe:c2:f3
-----BEGIN CERTIFICATE-----
MIIBejCCASGgAwIBAgIJAKAXKF+MGxovMAoGCCqGSM49BAMCMBoxCzAJBgNVBAoT
AldSMQswCQYDVQQGEwJERTAeFw0xODAzMDIyMTAyMjBaFw0xOTAzMDIyMTAyMjBa
MBoxCzAJBgNVBAoTAldSMQswCQYDVQQGEwJERTBZMBMGByqGSM49AgEGCCqGSM49
AwEHA0IABCXA/Ra4K/K4Ch7drM5iUnxYCmB9V3XavRHB1SrqVGt25j02991Rl2uo
Jv57pr2WVYVQnZp+aQHYQ0WJ2f5KKyajUDBOMB0GA1UdDgQWBBSysQ0FrGoMoa2S
Cn7H4WhWNUAZ6jAfBgNVHSMEGDAWgBSysQ0FrGoMoa2SCn7H4WhWNUAZ6jAMBgNV
HRMEBTADAQH/MAoGCCqGSM49BAMCA0cAMEQCIC9e81ILOUwaaW1Sz6V6YwML/0ia
MvtXZhBgfW7i5IfiAiAkIf2piHQHeV/lFYlBOVEyqWKN70uKPIHKfy4y8f7C8w==
-----END CERTIFICATE-----
