Certificate:
    Data:
        Version: 3 (0x2)
        Serial Number: 35 (0x23)
        Signature Algorithm: sha256WithRSAEncryption
        Issuer: C=US, ST=Montana, L=Bozeman, O=Sawtooth, OU=Consulting, CN=www.wolfssl.com, emailAddress=facts@wolfssl.com
        Validity
            Not Before: Jul 10 20:54:16 2026 GMT
            Not After : Apr  5 20:54:16 2029 GMT
        Subject: C=US, ST=Montana, L=Bozeman, O=wolfSSL, OU=ECH, CN=public.com, emailAddress=info@wolfssl.com
        Subject Public Key Info:
            Public Key Algorithm: rsaEncryption
                Public-Key: (2048 bit)
                Modulus:
                    00:d1:42:85:b2:a7:81:6f:e7:1b:26:c6:f2:53:d1:
                    42:ff:18:f1:0b:3f:75:a0:01:fa:5c:8f:b2:c7:b4:
                    06:f5:a5:6e:e2:ae:cc:a5:5d:35:b4:56:28:21:d3:
                    59:b1:6e:81:3f:69:7d:85:e9:33:0a:cd:7a:32:8a:
                    fc:41:5a:52:1e:23:9e:2a:22:d4:c9:20:7e:46:db:
                    6c:4d:56:e8:18:aa:79:b7:e7:20:b9:f3:97:28:1d:
                    63:44:03:b4:05:7b:03:93:4c:3f:83:8e:21:c4:4e:
                    f2:ee:28:8c:01:39:de:aa:64:57:34:9a:58:35:89:
                    c1:eb:4e:fc:8e:23:fd:10:ad:1e:ca:97:4e:a9:8f:
                    5d:d7:f9:52:fd:3a:45:90:cd:21:97:bc:b4:e2:8e:
                    c2:60:16:43:51:b3:71:e6:54:ec:60:00:76:b7:f6:
                    06:b1:0c:c9:93:d7:6c:c6:9e:ab:0d:4d:58:f9:d5:
                    c7:fc:d1:d9:53:66:b7:47:4b:4a:12:6b:37:23:b4:
                    df:f6:21:d4:23:6b:92:2d:f7:ca:e5:90:53:c7:84:
                    29:c0:a0:ac:d5:31:73:72:05:27:55:f6:4d:1a:c9:
                    e5:da:d9:8e:54:37:77:9c:3b:7f:2a:b9:72:6f:ed:
                    2e:a9:36:66:cf:f2:4f:29:6e:a0:92:10:05:6a:37:
                    2c:79
                Exponent: 65537 (0x10001)
        X509v3 extensions:
            X509v3 Subject Key Identifier: 
                6B:D8:10:65:C9:94:68:23:2A:1E:67:67:CE:90:1E:92:8D:90:52:29
            X509v3 Authority Key Identifier: 
                keyid:27:8E:67:11:74:C3:26:1D:3F:ED:33:63:B3:A4:D8:1D:30:E5:E8:D5
                DirName:/C=US/ST=Montana/L=Bozeman/O=Sawtooth/OU=Consulting/CN=www.wolfssl.com/emailAddress=facts@wolfssl.com
                serial:67:19:D2:A8:7F:E3:2D:FA:75:7A:4F:E7:B2:02:D9:AD:C4:77:5E:F8
            X509v3 Basic Constraints: 
                CA:FALSE
            X509v3 Subject Alternative Name: 
                DNS:public.com
            X509v3 Extended Key Usage: 
                TLS Web Server Authentication
    Signature Algorithm: sha256WithRSAEncryption
    Signature Value:
        63:8a:f1:b3:a2:e4:e6:28:6a:63:c5:39:56:71:65:95:3d:08:
        86:f6:ee:aa:a2:61:9d:f3:77:31:f2:e1:61:a8:d7:47:7e:dc:
        2c:70:44:cd:b3:0a:ed:ae:5b:5b:bf:d6:4c:70:47:98:66:40:
        8f:f4:0e:4b:f4:7e:fa:45:87:9e:fb:70:fc:e4:7a:3b:ff:da:
        5f:57:8b:32:75:4f:ec:6b:ad:95:58:44:18:31:b7:45:77:76:
        d4:e6:96:66:b1:63:42:df:86:c1:f4:0b:53:f8:51:8a:71:b0:
        99:ea:7a:16:27:0e:22:5a:ac:e9:c5:46:0b:06:16:e9:ba:85:
        ae:2f:ae:56:f9:cc:de:69:8c:e1:0c:e6:38:93:f2:21:88:a9:
        0d:25:9b:5a:cc:45:f6:6a:e8:d5:d8:f6:69:2e:fa:b0:cc:09:
        76:3b:9a:fc:ab:4e:9a:a9:2a:28:a0:d5:3a:3c:f7:e2:cf:de:
        0c:18:40:34:65:cd:93:47:db:30:8f:6b:16:42:39:7e:ec:47:
        bd:9a:3e:19:09:96:6a:88:b9:99:92:5d:de:af:f5:fb:69:b8:
        43:f0:27:2e:d5:5a:d9:c9:30:c4:f8:43:01:ea:41:04:eb:fd:
        5f:2c:0e:7c:28:11:41:4e:c9:d3:67:3c:48:89:02:2b:4c:e6:
        54:b7:00:0c
-----BEGIN CERTIFICATE-----
MIIEzTCCA7WgAwIBAgIBIzANBgkqhkiG9w0BAQsFADCBlTELMAkGA1UEBhMCVVMx
EDAOBgNVBAgMB01vbnRhbmExEDAOBgNVBAcMB0JvemVtYW4xETAPBgNVBAoMCFNh
d3Rvb3RoMRMwEQYDVQQLDApDb25zdWx0aW5nMRgwFgYDVQQDDA93d3cud29sZnNz
bC5jb20xIDAeBgkqhkiG9w0BCQEWEWZhY3RzQHdvbGZzc2wuY29tMB4XDTI2MDcx
MDIwNTQxNloXDTI5MDQwNTIwNTQxNlowgYcxCzAJBgNVBAYTAlVTMRAwDgYDVQQI
DAdNb250YW5hMRAwDgYDVQQHDAdCb3plbWFuMRAwDgYDVQQKDAd3b2xmU1NMMQww
CgYDVQQLDANFQ0gxEzARBgNVBAMMCnB1YmxpYy5jb20xHzAdBgkqhkiG9w0BCQEW
EGluZm9Ad29sZnNzbC5jb20wggEiMA0GCSqGSIb3DQEBAQUAA4IBDwAwggEKAoIB
AQDRQoWyp4Fv5xsmxvJT0UL/GPELP3WgAfpcj7LHtAb1pW7irsylXTW0Vigh01mx
boE/aX2F6TMKzXoyivxBWlIeI54qItTJIH5G22xNVugYqnm35yC585coHWNEA7QF
ewOTTD+DjiHETvLuKIwBOd6qZFc0mlg1icHrTvyOI/0QrR7Kl06pj13X+VL9OkWQ
zSGXvLTijsJgFkNRs3HmVOxgAHa39gaxDMmT12zGnqsNTVj51cf80dlTZrdHS0oS
azcjtN/2IdQja5It98rlkFPHhCnAoKzVMXNyBSdV9k0ayeXa2Y5UN3ecO38quXJv
7S6pNmbP8k8pbqCSEAVqNyx5AgMBAAGjggEyMIIBLjAdBgNVHQ4EFgQUa9gQZcmU
aCMqHmdnzpAeko2QUikwgdUGA1UdIwSBzTCByoAUJ45nEXTDJh0/7TNjs6TYHTDl
6NWhgZukgZgwgZUxCzAJBgNVBAYTAlVTMRAwDgYDVQQIDAdNb250YW5hMRAwDgYD
VQQHDAdCb3plbWFuMREwDwYDVQQKDAhTYXd0b290aDETMBEGA1UECwwKQ29uc3Vs
dGluZzEYMBYGA1UEAwwPd3d3LndvbGZzc2wuY29tMSAwHgYJKoZIhvcNAQkBFhFm
YWN0c0B3b2xmc3NsLmNvbYIUZxnSqH/jLfp1ek/nsgLZrcR3XvgwCQYDVR0TBAIw
ADAVBgNVHREEDjAMggpwdWJsaWMuY29tMBMGA1UdJQQMMAoGCCsGAQUFBwMBMA0G
CSqGSIb3DQEBCwUAA4IBAQBjivGzouTmKGpjxTlWcWWVPQiG9u6qomGd83cx8uFh
qNdHftwscETNswrtrltbv9ZMcEeYZkCP9A5L9H76RYee+3D85Ho7/9pfV4sydU/s
a62VWEQYMbdFd3bU5pZmsWNC34bB9AtT+FGKcbCZ6noWJw4iWqzpxUYLBhbpuoWu
L65W+czeaYzhDOY4k/IhiKkNJZtazEX2aujV2PZpLvqwzAl2O5r8q06aqSoooNU6
PPfiz94MGEA0Zc2TR9swj2sWQjl+7Ee9mj4ZCZZqiLmZkl3er/X7abhD8Ccu1VrZ
yTDE+EMB6kEE6/1fLA58KBFBTsnTZzxIiQIrTOZUtwAM
-----END CERTIFICATE-----
