Certificate:
    Data:
        Version: 3 (0x2)
        Serial Number: 1 (0x1)
        Signature Algorithm: sha256WithRSAEncryption
        Issuer: C=US, ST=Montana, L=Bozeman, O=Sawtooth, OU=Consulting, CN=www.wolfssl.com, emailAddress=facts@wolfssl.com
        Validity
            Not Before: Jun 11 21:44:29 2026 GMT
            Not After : Mar  7 21:44:29 2029 GMT
        Subject: C=US, ST=Montana, L=Bozeman, O=wolfSSL, OU=NoCaBool, CN=www.wolfssl.com, emailAddress=facts@wolfssl.com
        Subject Public Key Info:
            Public Key Algorithm: rsaEncryption
                Public-Key: (2048 bit)
                Modulus:
                    00:eb:52:8d:b0:d8:01:6b:f7:16:50:fe:34:a3:86:
                    1b:e8:49:50:b1:6f:6a:3f:af:de:6c:d1:af:25:9c:
                    ab:21:fc:d1:3f:45:dc:86:1d:57:04:9e:9c:56:ff:
                    66:af:78:4b:85:7c:71:bc:6b:79:a9:63:21:f4:88:
                    1e:6f:b9:53:58:b0:4d:93:b5:a7:e5:9c:80:3b:d9:
                    fb:f4:47:fe:46:f1:e7:7e:59:1d:e7:21:11:6b:96:
                    a0:d7:3b:de:ba:06:61:eb:03:d4:74:b7:b4:93:f4:
                    38:34:db:9f:58:dc:d7:fa:ee:fe:56:69:b8:97:af:
                    5b:ca:56:40:30:11:1c:26:40:a6:1f:1c:bb:d6:e0:
                    ff:1e:a4:57:35:e3:74:ab:49:a1:87:95:2f:8a:77:
                    0a:b1:65:a0:8f:d3:5a:ac:04:93:cc:50:83:42:64:
                    ab:12:fa:2e:af:2b:ea:b1:73:7b:ce:33:c3:68:23:
                    27:f0:75:f4:0b:82:1e:ae:21:00:4f:fc:26:17:75:
                    84:9b:e0:31:de:59:83:aa:45:f9:82:cb:3e:dd:22:
                    ee:ce:7c:0c:06:dc:cc:61:25:7e:7a:64:e9:c5:06:
                    57:d3:c1:61:53:59:82:32:c6:cf:1d:70:87:44:3d:
                    b7:52:e5:56:67:e3:16:7b:bb:48:98:8d:54:c1:85:
                    aa:57
                Exponent: 65537 (0x10001)
        X509v3 extensions:
            X509v3 Subject Key Identifier: 
                EF:F4:8B:86:CE:75:EF:DC:E1:F8:23:1E:1A:B8:3B:8D:98:09:88:E7
            X509v3 Authority Key Identifier: 
                keyid:27:8E:67:11:74:C3:26:1D:3F:ED:33:63:B3:A4:D8:1D:30:E5:E8:D5
                DirName:/C=US/ST=Montana/L=Bozeman/O=Sawtooth/OU=Consulting/CN=www.wolfssl.com/emailAddress=facts@wolfssl.com
                serial:67:19:D2:A8:7F:E3:2D:FA:75:7A:4F:E7:B2:02:D9:AD:C4:77:5E:F8
            X509v3 Basic Constraints: 
                CA:FALSE, pathlen:0
            X509v3 Key Usage: 
                Digital Signature
            X509v3 Extended Key Usage: 
                TLS Web Client Authentication, TLS Web Server Authentication
    Signature Algorithm: sha256WithRSAEncryption
    Signature Value:
        60:21:4f:66:9a:87:af:36:40:e0:11:75:08:ae:b5:99:4f:89:
        27:7f:d4:41:9f:ac:b2:2a:a8:7e:54:90:f5:1a:21:ef:4e:94:
        31:4e:19:8f:80:fb:21:43:ef:2e:1e:07:5b:ac:bf:e4:bc:ee:
        e2:88:0c:e0:99:4f:8e:30:54:5a:78:ec:ca:90:64:3a:7e:e0:
        48:3c:be:9d:ea:5f:d6:58:46:2e:5c:b7:8f:c3:3f:83:fd:59:
        d6:43:99:54:99:b0:cc:1a:f7:bd:b5:c7:96:d5:d6:fd:45:5a:
        a3:f4:d7:75:eb:fe:ac:c5:9e:3f:bb:43:69:0a:36:dc:70:ec:
        3b:77:00:ee:87:38:95:e9:82:bb:ce:6b:62:d5:5f:9e:44:74:
        12:26:ee:61:9b:ff:c5:d4:46:95:a6:87:38:a8:b0:4b:36:30:
        b7:48:d6:6e:4d:0b:97:19:fd:a7:54:a5:44:d0:c3:a7:35:39:
        ea:ad:f2:c0:da:14:8e:22:d8:20:26:21:c5:d5:b2:53:38:21:
        a4:4d:ef:0e:a7:8e:11:91:00:62:f2:04:a9:00:8f:98:4e:63:
        7a:dc:ad:e7:50:87:9a:f9:1b:0c:ff:44:33:5a:0e:55:79:18:
        2f:b4:d2:2f:90:60:75:1d:06:05:2f:26:ec:11:bb:23:8d:2c:
        85:3d:c1:bb
-----BEGIN CERTIFICATE-----
MIIE2zCCA8OgAwIBAgIBATANBgkqhkiG9w0BAQsFADCBlTELMAkGA1UEBhMCVVMx
EDAOBgNVBAgMB01vbnRhbmExEDAOBgNVBAcMB0JvemVtYW4xETAPBgNVBAoMCFNh
d3Rvb3RoMRMwEQYDVQQLDApDb25zdWx0aW5nMRgwFgYDVQQDDA93d3cud29sZnNz
bC5jb20xIDAeBgkqhkiG9w0BCQEWEWZhY3RzQHdvbGZzc2wuY29tMB4XDTI2MDYx
MTIxNDQyOVoXDTI5MDMwNzIxNDQyOVowgZIxCzAJBgNVBAYTAlVTMRAwDgYDVQQI
DAdNb250YW5hMRAwDgYDVQQHDAdCb3plbWFuMRAwDgYDVQQKDAd3b2xmU1NMMREw
DwYDVQQLDAhOb0NhQm9vbDEYMBYGA1UEAwwPd3d3LndvbGZzc2wuY29tMSAwHgYJ
KoZIhvcNAQkBFhFmYWN0c0B3b2xmc3NsLmNvbTCCASIwDQYJKoZIhvcNAQEBBQAD
ggEPADCCAQoCggEBAOtSjbDYAWv3FlD+NKOGG+hJULFvaj+v3mzRryWcqyH80T9F
3IYdVwSenFb/Zq94S4V8cbxrealjIfSIHm+5U1iwTZO1p+WcgDvZ+/RH/kbx535Z
HechEWuWoNc73roGYesD1HS3tJP0ODTbn1jc1/ru/lZpuJevW8pWQDARHCZAph8c
u9bg/x6kVzXjdKtJoYeVL4p3CrFloI/TWqwEk8xQg0JkqxL6Lq8r6rFze84zw2gj
J/B19AuCHq4hAE/8Jhd1hJvgMd5Zg6pF+YLLPt0i7s58DAbczGElfnpk6cUGV9PB
YVNZgjLGzx1wh0Q9t1LlVmfjFnu7SJiNVMGFqlcCAwEAAaOCATUwggExMB0GA1Ud
DgQWBBTv9IuGznXv3OH4Ix4auDuNmAmI5zCB1QYDVR0jBIHNMIHKgBQnjmcRdMMm
HT/tM2OzpNgdMOXo1aGBm6SBmDCBlTELMAkGA1UEBhMCVVMxEDAOBgNVBAgMB01v
bnRhbmExEDAOBgNVBAcMB0JvemVtYW4xETAPBgNVBAoMCFNhd3Rvb3RoMRMwEQYD
VQQLDApDb25zdWx0aW5nMRgwFgYDVQQDDA93d3cud29sZnNzbC5jb20xIDAeBgkq
hkiG9w0BCQEWEWZhY3RzQHdvbGZzc2wuY29tghRnGdKof+Mt+nV6T+eyAtmtxHde
+DAMBgNVHRMEBTADAgEAMAsGA1UdDwQEAwIHgDAdBgNVHSUEFjAUBggrBgEFBQcD
AgYIKwYBBQUHAwEwDQYJKoZIhvcNAQELBQADggEBAGAhT2aah682QOARdQiutZlP
iSd/1EGfrLIqqH5UkPUaIe9OlDFOGY+A+yFD7y4eB1usv+S87uKIDOCZT44wVFp4
7MqQZDp+4Eg8vp3qX9ZYRi5ct4/DP4P9WdZDmVSZsMwa9721x5bV1v1FWqP013Xr
/qzFnj+7Q2kKNtxw7Dt3AO6HOJXpgrvOa2LVX55EdBIm7mGb/8XURpWmhziosEs2
MLdI1m5NC5cZ/adUpUTQw6c1Oeqt8sDaFI4i2CAmIcXVslM4IaRN7w6njhGRAGLy
BKkAj5hOY3rcredQh5r5Gwz/RDNaDlV5GC+00i+QYHUdBgUvJuwRuyONLIU9wbs=
-----END CERTIFICATE-----
Certificate:
    Data:
        Version: 3 (0x2)
        Serial Number:
            67:19:d2:a8:7f:e3:2d:fa:75:7a:4f:e7:b2:02:d9:ad:c4:77:5e:f8
        Signature Algorithm: sha256WithRSAEncryption
        Issuer: C=US, ST=Montana, L=Bozeman, O=Sawtooth, OU=Consulting, CN=www.wolfssl.com, emailAddress=facts@wolfssl.com
        Validity
            Not Before: Jun 11 21:44:28 2026 GMT
            Not After : Mar  7 21:44:28 2029 GMT
        Subject: C=US, ST=Montana, L=Bozeman, O=Sawtooth, OU=Consulting, CN=www.wolfssl.com, emailAddress=facts@wolfssl.com
        Subject Public Key Info:
            Public Key Algorithm: rsaEncryption
                Public-Key: (2048 bit)
                Modulus:
                    00:bf:0c:ca:2d:14:b2:1e:84:42:5b:cd:38:1f:4a:
                    f2:4d:75:10:f1:b6:35:9f:df:ca:7d:03:98:d3:ac:
                    de:03:66:ee:2a:f1:d8:b0:7d:6e:07:54:0b:10:98:
                    21:4d:80:cb:12:20:e7:cc:4f:de:45:7d:c9:72:77:
                    32:ea:ca:90:bb:69:52:10:03:2f:a8:f3:95:c5:f1:
                    8b:62:56:1b:ef:67:6f:a4:10:41:95:ad:0a:9b:e3:
                    a5:c0:b0:d2:70:76:50:30:5b:a8:e8:08:2c:7c:ed:
                    a7:a2:7a:8d:38:29:1c:ac:c7:ed:f2:7c:95:b0:95:
                    82:7d:49:5c:38:cd:77:25:ef:bd:80:75:53:94:3c:
                    3d:ca:63:5b:9f:15:b5:d3:1d:13:2f:19:d1:3c:db:
                    76:3a:cc:b8:7d:c9:e5:c2:d7:da:40:6f:d8:21:dc:
                    73:1b:42:2d:53:9c:fe:1a:fc:7d:ab:7a:36:3f:98:
                    de:84:7c:05:67:ce:6a:14:38:87:a9:f1:8c:b5:68:
                    cb:68:7f:71:20:2b:f5:a0:63:f5:56:2f:a3:26:d2:
                    b7:6f:b1:5a:17:d7:38:99:08:fe:93:58:6f:fe:c3:
                    13:49:08:16:0b:a7:4d:67:00:52:31:67:23:4e:98:
                    ed:51:45:1d:b9:04:d9:0b:ec:d8:28:b3:4b:bd:ed:
                    36:79
                Exponent: 65537 (0x10001)
        X509v3 extensions:
            X509v3 Subject Key Identifier: 
                27:8E:67:11:74:C3:26:1D:3F:ED:33:63:B3:A4:D8:1D:30:E5:E8:D5
            X509v3 Authority Key Identifier: 
                keyid:27:8E:67:11:74:C3:26:1D:3F:ED:33:63:B3:A4:D8:1D:30:E5:E8:D5
                DirName:/C=US/ST=Montana/L=Bozeman/O=Sawtooth/OU=Consulting/CN=www.wolfssl.com/emailAddress=facts@wolfssl.com
                serial:67:19:D2:A8:7F:E3:2D:FA:75:7A:4F:E7:B2:02:D9:AD:C4:77:5E:F8
            X509v3 Basic Constraints: 
                CA:TRUE
            X509v3 Subject Alternative Name: 
                DNS:example.com, IP Address:127.0.0.1
            X509v3 Extended Key Usage: 
                TLS Web Server Authentication, TLS Web Client Authentication
    Signature Algorithm: sha256WithRSAEncryption
    Signature Value:
        5d:a4:7f:06:52:54:b2:56:a9:f8:8d:fb:c9:13:ab:9c:16:4e:
        72:a8:57:b2:8d:e7:b4:a9:3f:32:5c:21:08:ff:42:9f:41:47:
        12:27:b5:45:9e:61:6e:b6:94:fe:f6:01:46:96:3e:f7:3d:79:
        07:ac:a9:26:f5:77:f7:52:c3:ed:bd:5a:a0:17:4c:0e:9e:51:
        57:ac:e3:a1:ef:7d:a3:fa:7c:c6:a5:57:84:dd:d0:aa:77:ab:
        30:12:70:83:f9:41:ae:74:78:f0:54:73:ed:86:7f:66:a1:aa:
        01:cd:41:5f:95:c7:6e:ce:3b:ab:2e:70:ff:3a:34:11:43:df:
        4b:63:d5:3b:a5:9e:21:cb:9c:c8:a7:5c:a0:43:ec:73:98:c5:
        25:d9:d4:ad:cc:11:66:83:51:8a:bd:33:65:a0:a3:a8:93:1e:
        7b:b9:f7:6a:95:6a:a7:dd:ff:6f:3b:bb:24:5c:56:14:8d:b9:
        84:d3:97:bf:57:71:0c:1e:b1:68:93:31:d6:34:38:77:94:da:
        e2:b0:fe:82:18:b2:bb:bf:83:cf:bb:fe:08:fa:2a:17:10:3e:
        06:b1:1c:b1:f9:12:97:87:cc:a8:4e:5e:0d:0c:26:3c:c2:e8:
        be:2d:48:91:77:7f:1a:1d:ac:bf:c9:55:10:bf:2f:5f:60:53:
        e7:b7:6a:72
-----BEGIN CERTIFICATE-----
MIIFAjCCA+qgAwIBAgIUZxnSqH/jLfp1ek/nsgLZrcR3XvgwDQYJKoZIhvcNAQEL
BQAwgZUxCzAJBgNVBAYTAlVTMRAwDgYDVQQIDAdNb250YW5hMRAwDgYDVQQHDAdC
b3plbWFuMREwDwYDVQQKDAhTYXd0b290aDETMBEGA1UECwwKQ29uc3VsdGluZzEY
MBYGA1UEAwwPd3d3LndvbGZzc2wuY29tMSAwHgYJKoZIhvcNAQkBFhFmYWN0c0B3
b2xmc3NsLmNvbTAeFw0yNjA2MTEyMTQ0MjhaFw0yOTAzMDcyMTQ0MjhaMIGVMQsw
CQYDVQQGEwJVUzEQMA4GA1UECAwHTW9udGFuYTEQMA4GA1UEBwwHQm96ZW1hbjER
MA8GA1UECgwIU2F3dG9vdGgxEzARBgNVBAsMCkNvbnN1bHRpbmcxGDAWBgNVBAMM
D3d3dy53b2xmc3NsLmNvbTEgMB4GCSqGSIb3DQEJARYRZmFjdHNAd29sZnNzbC5j
b20wggEiMA0GCSqGSIb3DQEBAQUAA4IBDwAwggEKAoIBAQC/DMotFLIehEJbzTgf
SvJNdRDxtjWf38p9A5jTrN4DZu4q8diwfW4HVAsQmCFNgMsSIOfMT95FfclydzLq
ypC7aVIQAy+o85XF8YtiVhvvZ2+kEEGVrQqb46XAsNJwdlAwW6joCCx87aeieo04
KRysx+3yfJWwlYJ9SVw4zXcl772AdVOUPD3KY1ufFbXTHRMvGdE823Y6zLh9yeXC
19pAb9gh3HMbQi1TnP4a/H2rejY/mN6EfAVnzmoUOIep8Yy1aMtof3EgK/WgY/VW
L6Mm0rdvsVoX1ziZCP6TWG/+wxNJCBYLp01nAFIxZyNOmO1RRR25BNkL7Ngos0u9
7TZ5AgMBAAGjggFGMIIBQjAdBgNVHQ4EFgQUJ45nEXTDJh0/7TNjs6TYHTDl6NUw
gdUGA1UdIwSBzTCByoAUJ45nEXTDJh0/7TNjs6TYHTDl6NWhgZukgZgwgZUxCzAJ
BgNVBAYTAlVTMRAwDgYDVQQIDAdNb250YW5hMRAwDgYDVQQHDAdCb3plbWFuMREw
DwYDVQQKDAhTYXd0b290aDETMBEGA1UECwwKQ29uc3VsdGluZzEYMBYGA1UEAwwP
d3d3LndvbGZzc2wuY29tMSAwHgYJKoZIhvcNAQkBFhFmYWN0c0B3b2xmc3NsLmNv
bYIUZxnSqH/jLfp1ek/nsgLZrcR3XvgwDAYDVR0TBAUwAwEB/zAcBgNVHREEFTAT
ggtleGFtcGxlLmNvbYcEfwAAATAdBgNVHSUEFjAUBggrBgEFBQcDAQYIKwYBBQUH
AwIwDQYJKoZIhvcNAQELBQADggEBAF2kfwZSVLJWqfiN+8kTq5wWTnKoV7KN57Sp
PzJcIQj/Qp9BRxIntUWeYW62lP72AUaWPvc9eQesqSb1d/dSw+29WqAXTA6eUVes
46HvfaP6fMalV4Td0Kp3qzAScIP5Qa50ePBUc+2Gf2ahqgHNQV+Vx27OO6sucP86
NBFD30tj1TulniHLnMinXKBD7HOYxSXZ1K3MEWaDUYq9M2Wgo6iTHnu592qVaqfd
/287uyRcVhSNuYTTl79XcQwesWiTMdY0OHeU2uKw/oIYsru/g8+7/gj6KhcQPgax
HLH5EpeHzKhOXg0MJjzC6L4tSJF3fxodrL/JVRC/L19gU+e3anI=
-----END CERTIFICATE-----
