Certificate:
    Data:
        Version: 3 (0x2)
        Serial Number: 1 (0x1)
        Signature Algorithm: sha256WithRSAEncryption
        Issuer: C = US, ST = Montana, L = Bozeman, O = Sawtooth, OU = Consulting, CN = www.wolfssl.com, emailAddress = info@wolfssl.com
        Validity
            Not Before: Feb 15 12:50:24 2022 GMT
            Not After : Nov 11 12:50:24 2024 GMT
        Subject: C = US, ST = Montana, L = Bozeman, O = wolfSSL, OU = NoCaBool, CN = www.wolfssl.com, emailAddress = info@wolfssl.com
        Subject Public Key Info:
            Public Key Algorithm: rsaEncryption
                RSA Public-Key: (2048 bit)
                Modulus:
                    00:eb:52:8d:b0:d8:01:6b:f7:16:50:fe:34:a3:86:
                    1b:e8:49:50:b1:6f:6a:3f:af:de:6c:d1:af:25:9c:
                    ab:21:fc:d1:3f:45:dc:86:1d:57:04:9e:9c:56:ff:
                    66:af:78:4b:85:7c:71:bc:6b:79:a9:63:21:f4:88:
                    1e:6f:b9:53:58:b0:4d:93:b5:a7:e5:9c:80:3b:d9:
                    fb:f4:47:fe:46:f1:e7:7e:59:1d:e7:21:11:6b:96:
                    a0:d7:3b:de:ba:06:61:eb:03:d4:74:b7:b4:93:f4:
                    38:34:db:9f:58:dc:d7:fa:ee:fe:56:69:b8:97:af:
                    5b:ca:56:40:30:11:1c:26:40:a6:1f:1c:bb:d6:e0:
                    ff:1e:a4:57:35:e3:74:ab:49:a1:87:95:2f:8a:77:
                    0a:b1:65:a0:8f:d3:5a:ac:04:93:cc:50:83:42:64:
                    ab:12:fa:2e:af:2b:ea:b1:73:7b:ce:33:c3:68:23:
                    27:f0:75:f4:0b:82:1e:ae:21:00:4f:fc:26:17:75:
                    84:9b:e0:31:de:59:83:aa:45:f9:82:cb:3e:dd:22:
                    ee:ce:7c:0c:06:dc:cc:61:25:7e:7a:64:e9:c5:06:
                    57:d3:c1:61:53:59:82:32:c6:cf:1d:70:87:44:3d:
                    b7:52:e5:56:67:e3:16:7b:bb:48:98:8d:54:c1:85:
                    aa:57
                Exponent: 65537 (0x10001)
        X509v3 extensions:
            X509v3 Subject Key Identifier: 
                EF:F4:8B:86:CE:75:EF:DC:E1:F8:23:1E:1A:B8:3B:8D:98:09:88:E7
            X509v3 Authority Key Identifier: 
                keyid:27:8E:67:11:74:C3:26:1D:3F:ED:33:63:B3:A4:D8:1D:30:E5:E8:D5
                DirName:/C=US/ST=Montana/L=Bozeman/O=Sawtooth/OU=Consulting/CN=www.wolfssl.com/emailAddress=info@wolfssl.com
                serial:26:8C:93:F9:F9:F4:1E:B3:01:72:94:55:67:6D:E2:F8:3D:DA:E9:F4

            X509v3 Basic Constraints: 
                CA:FALSE, pathlen:0
            X509v3 Key Usage: 
                Digital Signature
            X509v3 Extended Key Usage: 
                TLS Web Client Authentication, TLS Web Server Authentication
    Signature Algorithm: sha256WithRSAEncryption
         37:84:4c:33:2b:a7:35:ba:3e:7c:79:2a:b7:6f:3b:08:68:f7:
         15:b0:37:b8:78:45:18:8d:77:b7:ea:59:a6:eb:57:15:71:b3:
         89:9a:08:68:4d:49:ca:ca:9f:c3:d3:c5:cd:8b:a1:bd:3a:d4:
         6a:03:e7:65:93:a8:45:af:80:c3:72:42:8f:b0:e4:3c:6f:ad:
         c0:2f:50:bd:01:13:8c:b3:70:90:c8:fb:03:9e:57:85:f0:eb:
         74:04:f1:31:1e:71:7a:65:8b:f7:fc:c3:32:52:af:45:17:67:
         51:70:c9:74:30:93:4e:8d:0d:37:51:7e:10:ca:68:c1:46:38:
         fd:41:40:96:96:aa:c3:4c:8a:4f:c5:23:c7:ca:22:c0:cd:bd:
         93:0a:74:39:ad:cf:31:38:35:cf:46:4e:99:8b:1b:c7:76:65:
         3d:ed:cb:dd:79:13:5e:76:a2:a2:90:fe:d6:1f:12:f6:9b:e5:
         05:9a:b7:55:76:a6:f1:28:e6:af:eb:32:8c:5a:4e:f7:60:28:
         fb:7b:ad:76:ab:e5:56:53:01:78:78:1a:46:21:4e:f6:19:c0:
         df:bf:36:19:9e:27:54:01:a2:9e:8b:63:30:fe:9f:ad:07:19:
         f0:14:4e:d9:8e:42:27:e3:60:e6:b4:5f:2d:47:97:f1:fa:4f:
         4d:bd:ef:37
-----BEGIN CERTIFICATE-----
MIIE2DCCA8CgAwIBAgIBATANBgkqhkiG9w0BAQsFADCBlDELMAkGA1UEBhMCVVMx
EDAOBgNVBAgMB01vbnRhbmExEDAOBgNVBAcMB0JvemVtYW4xETAPBgNVBAoMCFNh
d3Rvb3RoMRMwEQYDVQQLDApDb25zdWx0aW5nMRgwFgYDVQQDDA93d3cud29sZnNz
bC5jb20xHzAdBgkqhkiG9w0BCQEWEGluZm9Ad29sZnNzbC5jb20wHhcNMjIwMjE1
MTI1MDI0WhcNMjQxMTExMTI1MDI0WjCBkTELMAkGA1UEBhMCVVMxEDAOBgNVBAgM
B01vbnRhbmExEDAOBgNVBAcMB0JvemVtYW4xEDAOBgNVBAoMB3dvbGZTU0wxETAP
BgNVBAsMCE5vQ2FCb29sMRgwFgYDVQQDDA93d3cud29sZnNzbC5jb20xHzAdBgkq
hkiG9w0BCQEWEGluZm9Ad29sZnNzbC5jb20wggEiMA0GCSqGSIb3DQEBAQUAA4IB
DwAwggEKAoIBAQDrUo2w2AFr9xZQ/jSjhhvoSVCxb2o/r95s0a8lnKsh/NE/RdyG
HVcEnpxW/2aveEuFfHG8a3mpYyH0iB5vuVNYsE2TtaflnIA72fv0R/5G8ed+WR3n
IRFrlqDXO966BmHrA9R0t7ST9Dg0259Y3Nf67v5WabiXr1vKVkAwERwmQKYfHLvW
4P8epFc143SrSaGHlS+KdwqxZaCP01qsBJPMUINCZKsS+i6vK+qxc3vOM8NoIyfw
dfQLgh6uIQBP/CYXdYSb4DHeWYOqRfmCyz7dIu7OfAwG3MxhJX56ZOnFBlfTwWFT
WYIyxs8dcIdEPbdS5VZn4xZ7u0iYjVTBhapXAgMBAAGjggE0MIIBMDAdBgNVHQ4E
FgQU7/SLhs5179zh+CMeGrg7jZgJiOcwgdQGA1UdIwSBzDCByYAUJ45nEXTDJh0/
7TNjs6TYHTDl6NWhgZqkgZcwgZQxCzAJBgNVBAYTAlVTMRAwDgYDVQQIDAdNb250
YW5hMRAwDgYDVQQHDAdCb3plbWFuMREwDwYDVQQKDAhTYXd0b290aDETMBEGA1UE
CwwKQ29uc3VsdGluZzEYMBYGA1UEAwwPd3d3LndvbGZzc2wuY29tMR8wHQYJKoZI
hvcNAQkBFhBpbmZvQHdvbGZzc2wuY29tghQmjJP5+fQeswFylFVnbeL4Pdrp9DAM
BgNVHRMEBTADAgEAMAsGA1UdDwQEAwIHgDAdBgNVHSUEFjAUBggrBgEFBQcDAgYI
KwYBBQUHAwEwDQYJKoZIhvcNAQELBQADggEBADeETDMrpzW6Pnx5KrdvOwho9xWw
N7h4RRiNd7fqWabrVxVxs4maCGhNScrKn8PTxc2Lob061GoD52WTqEWvgMNyQo+w
5DxvrcAvUL0BE4yzcJDI+wOeV4Xw63QE8TEecXpli/f8wzJSr0UXZ1FwyXQwk06N
DTdRfhDKaMFGOP1BQJaWqsNMik/FI8fKIsDNvZMKdDmtzzE4Nc9GTpmLG8d2ZT3t
y915E152oqKQ/tYfEvab5QWat1V2pvEo5q/rMoxaTvdgKPt7rXar5VZTAXh4GkYh
TvYZwN+/NhmeJ1QBop6LYzD+n60HGfAUTtmOQifjYOa0Xy1Hl/H6T0297zc=
-----END CERTIFICATE-----
Certificate:
    Data:
        Version: 3 (0x2)
        Serial Number:
            26:8c:93:f9:f9:f4:1e:b3:01:72:94:55:67:6d:e2:f8:3d:da:e9:f4
        Signature Algorithm: sha256WithRSAEncryption
        Issuer: C = US, ST = Montana, L = Bozeman, O = Sawtooth, OU = Consulting, CN = www.wolfssl.com, emailAddress = info@wolfssl.com
        Validity
            Not Before: Feb 15 12:50:24 2022 GMT
            Not After : Nov 11 12:50:24 2024 GMT
        Subject: C = US, ST = Montana, L = Bozeman, O = Sawtooth, OU = Consulting, CN = www.wolfssl.com, emailAddress = info@wolfssl.com
        Subject Public Key Info:
            Public Key Algorithm: rsaEncryption
                RSA Public-Key: (2048 bit)
                Modulus:
                    00:bf:0c:ca:2d:14:b2:1e:84:42:5b:cd:38:1f:4a:
                    f2:4d:75:10:f1:b6:35:9f:df:ca:7d:03:98:d3:ac:
                    de:03:66:ee:2a:f1:d8:b0:7d:6e:07:54:0b:10:98:
                    21:4d:80:cb:12:20:e7:cc:4f:de:45:7d:c9:72:77:
                    32:ea:ca:90:bb:69:52:10:03:2f:a8:f3:95:c5:f1:
                    8b:62:56:1b:ef:67:6f:a4:10:41:95:ad:0a:9b:e3:
                    a5:c0:b0:d2:70:76:50:30:5b:a8:e8:08:2c:7c:ed:
                    a7:a2:7a:8d:38:29:1c:ac:c7:ed:f2:7c:95:b0:95:
                    82:7d:49:5c:38:cd:77:25:ef:bd:80:75:53:94:3c:
                    3d:ca:63:5b:9f:15:b5:d3:1d:13:2f:19:d1:3c:db:
                    76:3a:cc:b8:7d:c9:e5:c2:d7:da:40:6f:d8:21:dc:
                    73:1b:42:2d:53:9c:fe:1a:fc:7d:ab:7a:36:3f:98:
                    de:84:7c:05:67:ce:6a:14:38:87:a9:f1:8c:b5:68:
                    cb:68:7f:71:20:2b:f5:a0:63:f5:56:2f:a3:26:d2:
                    b7:6f:b1:5a:17:d7:38:99:08:fe:93:58:6f:fe:c3:
                    13:49:08:16:0b:a7:4d:67:00:52:31:67:23:4e:98:
                    ed:51:45:1d:b9:04:d9:0b:ec:d8:28:b3:4b:bd:ed:
                    36:79
                Exponent: 65537 (0x10001)
        X509v3 extensions:
            X509v3 Subject Key Identifier: 
                27:8E:67:11:74:C3:26:1D:3F:ED:33:63:B3:A4:D8:1D:30:E5:E8:D5
            X509v3 Authority Key Identifier: 
                keyid:27:8E:67:11:74:C3:26:1D:3F:ED:33:63:B3:A4:D8:1D:30:E5:E8:D5
                DirName:/C=US/ST=Montana/L=Bozeman/O=Sawtooth/OU=Consulting/CN=www.wolfssl.com/emailAddress=info@wolfssl.com
                serial:26:8C:93:F9:F9:F4:1E:B3:01:72:94:55:67:6D:E2:F8:3D:DA:E9:F4

            X509v3 Basic Constraints: 
                CA:TRUE
            X509v3 Subject Alternative Name: 
                DNS:example.com, IP Address:127.0.0.1
            X509v3 Extended Key Usage: 
                TLS Web Server Authentication, TLS Web Client Authentication
    Signature Algorithm: sha256WithRSAEncryption
         62:e4:1b:28:3c:9d:d2:60:a9:55:be:6a:f6:20:f2:da:e8:a1:
         1a:97:b1:90:77:82:ed:c7:77:29:53:33:18:10:62:e0:bd:93:
         1b:d2:d6:a1:80:43:1d:64:f1:42:92:ec:b7:b8:f0:6b:da:59:
         83:f4:b8:87:e6:fc:70:21:ea:62:32:70:68:14:0e:dc:b4:f1:
         66:e2:6e:ab:d2:72:6f:da:df:71:f6:3d:27:97:7d:be:e1:d1:
         ac:16:ad:d7:4f:aa:9d:0c:1e:6e:a9:5e:7d:57:5b:3c:c7:6d:
         d2:f2:5c:c3:dc:3d:36:99:8e:ab:c0:7f:13:a5:f4:67:8b:e2:
         a6:51:31:f1:03:91:00:a8:c4:c5:1d:7f:35:62:b8:1d:a0:a5:
         ab:ec:32:68:ee:f3:ca:48:16:9f:f4:1e:7e:ea:fa:b0:86:15:
         52:36:6c:4b:58:44:a7:eb:20:78:6e:7e:e8:00:40:ac:98:d8:
         53:f3:13:4b:b8:98:66:50:63:ed:af:e5:a4:f6:c9:90:1c:84:
         0a:09:45:2f:a1:e1:37:63:b5:43:8c:a0:2e:7f:c4:d4:e1:ae:
         b7:b9:45:13:f8:70:d5:79:06:4f:82:83:4b:98:d7:56:47:64:
         9a:6a:6d:8e:7a:9d:ef:83:0f:6b:75:0e:47:22:92:f3:b4:b2:
         84:61:1f:1c
-----BEGIN CERTIFICATE-----
MIIE/zCCA+egAwIBAgIUJoyT+fn0HrMBcpRVZ23i+D3a6fQwDQYJKoZIhvcNAQEL
BQAwgZQxCzAJBgNVBAYTAlVTMRAwDgYDVQQIDAdNb250YW5hMRAwDgYDVQQHDAdC
b3plbWFuMREwDwYDVQQKDAhTYXd0b290aDETMBEGA1UECwwKQ29uc3VsdGluZzEY
MBYGA1UEAwwPd3d3LndvbGZzc2wuY29tMR8wHQYJKoZIhvcNAQkBFhBpbmZvQHdv
bGZzc2wuY29tMB4XDTIyMDIxNTEyNTAyNFoXDTI0MTExMTEyNTAyNFowgZQxCzAJ
BgNVBAYTAlVTMRAwDgYDVQQIDAdNb250YW5hMRAwDgYDVQQHDAdCb3plbWFuMREw
DwYDVQQKDAhTYXd0b290aDETMBEGA1UECwwKQ29uc3VsdGluZzEYMBYGA1UEAwwP
d3d3LndvbGZzc2wuY29tMR8wHQYJKoZIhvcNAQkBFhBpbmZvQHdvbGZzc2wuY29t
MIIBIjANBgkqhkiG9w0BAQEFAAOCAQ8AMIIBCgKCAQEAvwzKLRSyHoRCW804H0ry
TXUQ8bY1n9/KfQOY06zeA2buKvHYsH1uB1QLEJghTYDLEiDnzE/eRX3Jcncy6sqQ
u2lSEAMvqPOVxfGLYlYb72dvpBBBla0Km+OlwLDScHZQMFuo6AgsfO2nonqNOCkc
rMft8nyVsJWCfUlcOM13Je+9gHVTlDw9ymNbnxW10x0TLxnRPNt2Osy4fcnlwtfa
QG/YIdxzG0ItU5z+Gvx9q3o2P5jehHwFZ85qFDiHqfGMtWjLaH9xICv1oGP1Vi+j
JtK3b7FaF9c4mQj+k1hv/sMTSQgWC6dNZwBSMWcjTpjtUUUduQTZC+zYKLNLve02
eQIDAQABo4IBRTCCAUEwHQYDVR0OBBYEFCeOZxF0wyYdP+0zY7Ok2B0w5ejVMIHU
BgNVHSMEgcwwgcmAFCeOZxF0wyYdP+0zY7Ok2B0w5ejVoYGapIGXMIGUMQswCQYD
VQQGEwJVUzEQMA4GA1UECAwHTW9udGFuYTEQMA4GA1UEBwwHQm96ZW1hbjERMA8G
A1UECgwIU2F3dG9vdGgxEzARBgNVBAsMCkNvbnN1bHRpbmcxGDAWBgNVBAMMD3d3
dy53b2xmc3NsLmNvbTEfMB0GCSqGSIb3DQEJARYQaW5mb0B3b2xmc3NsLmNvbYIU
JoyT+fn0HrMBcpRVZ23i+D3a6fQwDAYDVR0TBAUwAwEB/zAcBgNVHREEFTATggtl
eGFtcGxlLmNvbYcEfwAAATAdBgNVHSUEFjAUBggrBgEFBQcDAQYIKwYBBQUHAwIw
DQYJKoZIhvcNAQELBQADggEBAGLkGyg8ndJgqVW+avYg8trooRqXsZB3gu3HdylT
MxgQYuC9kxvS1qGAQx1k8UKS7Le48GvaWYP0uIfm/HAh6mIycGgUDty08WbibqvS
cm/a33H2PSeXfb7h0awWrddPqp0MHm6pXn1XWzzHbdLyXMPcPTaZjqvAfxOl9GeL
4qZRMfEDkQCoxMUdfzViuB2gpavsMmju88pIFp/0Hn7q+rCGFVI2bEtYRKfrIHhu
fugAQKyY2FPzE0u4mGZQY+2v5aT2yZAchAoJRS+h4TdjtUOMoC5/xNThrre5RRP4
cNV5Bk+Cg0uY11ZHZJpqbY56ne+DD2t1DkcikvO0soRhHxw=
-----END CERTIFICATE-----
