Certificate:
    Data:
        Version: 3 (0x2)
        Serial Number: 1 (0x1)
        Signature Algorithm: sha256WithRSAEncryption
        Issuer: C = US, ST = Montana, L = Bozeman, O = Sawtooth, OU = Consulting, CN = www.wolfssl.com, emailAddress = info@wolfssl.com
        Validity
            Not Before: Dec 13 22:19:28 2023 GMT
            Not After : Sep  8 22:19:28 2026 GMT
        Subject: C = US, ST = Montana, L = Bozeman, O = wolfSSL, OU = NoCaBool, CN = www.wolfssl.com, emailAddress = info@wolfssl.com
        Subject Public Key Info:
            Public Key Algorithm: rsaEncryption
                RSA Public-Key: (2048 bit)
                Modulus:
                    00:eb:52:8d:b0:d8:01:6b:f7:16:50:fe:34:a3:86:
                    1b:e8:49:50:b1:6f:6a:3f:af:de:6c:d1:af:25:9c:
                    ab:21:fc:d1:3f:45:dc:86:1d:57:04:9e:9c:56:ff:
                    66:af:78:4b:85:7c:71:bc:6b:79:a9:63:21:f4:88:
                    1e:6f:b9:53:58:b0:4d:93:b5:a7:e5:9c:80:3b:d9:
                    fb:f4:47:fe:46:f1:e7:7e:59:1d:e7:21:11:6b:96:
                    a0:d7:3b:de:ba:06:61:eb:03:d4:74:b7:b4:93:f4:
                    38:34:db:9f:58:dc:d7:fa:ee:fe:56:69:b8:97:af:
                    5b:ca:56:40:30:11:1c:26:40:a6:1f:1c:bb:d6:e0:
                    ff:1e:a4:57:35:e3:74:ab:49:a1:87:95:2f:8a:77:
                    0a:b1:65:a0:8f:d3:5a:ac:04:93:cc:50:83:42:64:
                    ab:12:fa:2e:af:2b:ea:b1:73:7b:ce:33:c3:68:23:
                    27:f0:75:f4:0b:82:1e:ae:21:00:4f:fc:26:17:75:
                    84:9b:e0:31:de:59:83:aa:45:f9:82:cb:3e:dd:22:
                    ee:ce:7c:0c:06:dc:cc:61:25:7e:7a:64:e9:c5:06:
                    57:d3:c1:61:53:59:82:32:c6:cf:1d:70:87:44:3d:
                    b7:52:e5:56:67:e3:16:7b:bb:48:98:8d:54:c1:85:
                    aa:57
                Exponent: 65537 (0x10001)
        X509v3 extensions:
            X509v3 Subject Key Identifier: 
                EF:F4:8B:86:CE:75:EF:DC:E1:F8:23:1E:1A:B8:3B:8D:98:09:88:E7
            X509v3 Authority Key Identifier: 
                keyid:27:8E:67:11:74:C3:26:1D:3F:ED:33:63:B3:A4:D8:1D:30:E5:E8:D5
                DirName:/C=US/ST=Montana/L=Bozeman/O=Sawtooth/OU=Consulting/CN=www.wolfssl.com/emailAddress=info@wolfssl.com
                serial:33:44:1A:A8:6C:01:EC:F6:60:F2:70:51:0A:4C:D1:14:FA:BC:E9:44

            X509v3 Basic Constraints: 
                CA:FALSE, pathlen:0
            X509v3 Key Usage: 
                Digital Signature
            X509v3 Extended Key Usage: 
                TLS Web Client Authentication, TLS Web Server Authentication
    Signature Algorithm: sha256WithRSAEncryption
         44:6a:a0:11:85:71:72:c5:7c:84:36:aa:31:c4:4a:c0:99:0e:
         fd:b9:78:69:0b:8c:58:b4:4c:01:04:65:f3:dd:ea:db:a2:1f:
         d7:9d:cd:b4:6f:18:da:79:b8:35:c4:25:5e:61:a4:02:26:29:
         33:be:72:e5:35:8f:2b:68:0a:87:03:97:3e:9e:00:e2:37:7f:
         7a:c9:29:d8:fc:61:6b:3f:36:47:e2:66:e0:93:77:b7:75:46:
         bb:0c:57:5c:af:7d:62:07:d9:0c:93:b7:5f:81:a6:9e:49:7b:
         f8:0a:82:2a:2a:80:39:d8:91:c5:01:cb:aa:f4:d7:15:64:78:
         5c:1e:b4:57:35:6c:19:f6:36:b8:35:96:ce:c6:a7:cb:12:56:
         c1:58:0b:10:54:b0:d7:b0:1f:48:50:b2:16:96:c8:88:32:88:
         25:bb:40:c3:c5:df:a2:74:04:84:21:c4:fe:fe:d3:08:50:4f:
         85:f7:b2:6e:5e:b5:3e:47:19:c9:1a:81:0a:24:33:a5:04:90:
         3f:c1:4d:f7:94:86:8f:78:82:4c:51:4e:37:84:1f:98:f2:91:
         07:58:c0:f9:dc:4f:b6:a8:54:a0:b9:0b:43:3b:bd:b2:3c:d6:
         ad:52:05:6d:95:6b:c5:9c:5f:f5:87:f9:3b:e2:b8:3a:3a:3f:
         3f:06:df:10
-----BEGIN CERTIFICATE-----
MIIE2DCCA8CgAwIBAgIBATANBgkqhkiG9w0BAQsFADCBlDELMAkGA1UEBhMCVVMx
EDAOBgNVBAgMB01vbnRhbmExEDAOBgNVBAcMB0JvemVtYW4xETAPBgNVBAoMCFNh
d3Rvb3RoMRMwEQYDVQQLDApDb25zdWx0aW5nMRgwFgYDVQQDDA93d3cud29sZnNz
bC5jb20xHzAdBgkqhkiG9w0BCQEWEGluZm9Ad29sZnNzbC5jb20wHhcNMjMxMjEz
MjIxOTI4WhcNMjYwOTA4MjIxOTI4WjCBkTELMAkGA1UEBhMCVVMxEDAOBgNVBAgM
B01vbnRhbmExEDAOBgNVBAcMB0JvemVtYW4xEDAOBgNVBAoMB3dvbGZTU0wxETAP
BgNVBAsMCE5vQ2FCb29sMRgwFgYDVQQDDA93d3cud29sZnNzbC5jb20xHzAdBgkq
hkiG9w0BCQEWEGluZm9Ad29sZnNzbC5jb20wggEiMA0GCSqGSIb3DQEBAQUAA4IB
DwAwggEKAoIBAQDrUo2w2AFr9xZQ/jSjhhvoSVCxb2o/r95s0a8lnKsh/NE/RdyG
HVcEnpxW/2aveEuFfHG8a3mpYyH0iB5vuVNYsE2TtaflnIA72fv0R/5G8ed+WR3n
IRFrlqDXO966BmHrA9R0t7ST9Dg0259Y3Nf67v5WabiXr1vKVkAwERwmQKYfHLvW
4P8epFc143SrSaGHlS+KdwqxZaCP01qsBJPMUINCZKsS+i6vK+qxc3vOM8NoIyfw
dfQLgh6uIQBP/CYXdYSb4DHeWYOqRfmCyz7dIu7OfAwG3MxhJX56ZOnFBlfTwWFT
WYIyxs8dcIdEPbdS5VZn4xZ7u0iYjVTBhapXAgMBAAGjggE0MIIBMDAdBgNVHQ4E
FgQU7/SLhs5179zh+CMeGrg7jZgJiOcwgdQGA1UdIwSBzDCByYAUJ45nEXTDJh0/
7TNjs6TYHTDl6NWhgZqkgZcwgZQxCzAJBgNVBAYTAlVTMRAwDgYDVQQIDAdNb250
YW5hMRAwDgYDVQQHDAdCb3plbWFuMREwDwYDVQQKDAhTYXd0b290aDETMBEGA1UE
CwwKQ29uc3VsdGluZzEYMBYGA1UEAwwPd3d3LndvbGZzc2wuY29tMR8wHQYJKoZI
hvcNAQkBFhBpbmZvQHdvbGZzc2wuY29tghQzRBqobAHs9mDycFEKTNEU+rzpRDAM
BgNVHRMEBTADAgEAMAsGA1UdDwQEAwIHgDAdBgNVHSUEFjAUBggrBgEFBQcDAgYI
KwYBBQUHAwEwDQYJKoZIhvcNAQELBQADggEBAERqoBGFcXLFfIQ2qjHESsCZDv25
eGkLjFi0TAEEZfPd6tuiH9edzbRvGNp5uDXEJV5hpAImKTO+cuU1jytoCocDlz6e
AOI3f3rJKdj8YWs/NkfiZuCTd7d1RrsMV1yvfWIH2QyTt1+Bpp5Je/gKgioqgDnY
kcUBy6r01xVkeFwetFc1bBn2Nrg1ls7Gp8sSVsFYCxBUsNewH0hQshaWyIgyiCW7
QMPF36J0BIQhxP7+0whQT4X3sm5etT5HGckagQokM6UEkD/BTfeUho94gkxRTjeE
H5jykQdYwPncT7aoVKC5C0M7vbI81q1SBW2Va8WcX/WH+TviuDo6Pz8G3xA=
-----END CERTIFICATE-----
Certificate:
    Data:
        Version: 3 (0x2)
        Serial Number:
            33:44:1a:a8:6c:01:ec:f6:60:f2:70:51:0a:4c:d1:14:fa:bc:e9:44
        Signature Algorithm: sha256WithRSAEncryption
        Issuer: C = US, ST = Montana, L = Bozeman, O = Sawtooth, OU = Consulting, CN = www.wolfssl.com, emailAddress = info@wolfssl.com
        Validity
            Not Before: Dec 13 22:19:28 2023 GMT
            Not After : Sep  8 22:19:28 2026 GMT
        Subject: C = US, ST = Montana, L = Bozeman, O = Sawtooth, OU = Consulting, CN = www.wolfssl.com, emailAddress = info@wolfssl.com
        Subject Public Key Info:
            Public Key Algorithm: rsaEncryption
                RSA Public-Key: (2048 bit)
                Modulus:
                    00:bf:0c:ca:2d:14:b2:1e:84:42:5b:cd:38:1f:4a:
                    f2:4d:75:10:f1:b6:35:9f:df:ca:7d:03:98:d3:ac:
                    de:03:66:ee:2a:f1:d8:b0:7d:6e:07:54:0b:10:98:
                    21:4d:80:cb:12:20:e7:cc:4f:de:45:7d:c9:72:77:
                    32:ea:ca:90:bb:69:52:10:03:2f:a8:f3:95:c5:f1:
                    8b:62:56:1b:ef:67:6f:a4:10:41:95:ad:0a:9b:e3:
                    a5:c0:b0:d2:70:76:50:30:5b:a8:e8:08:2c:7c:ed:
                    a7:a2:7a:8d:38:29:1c:ac:c7:ed:f2:7c:95:b0:95:
                    82:7d:49:5c:38:cd:77:25:ef:bd:80:75:53:94:3c:
                    3d:ca:63:5b:9f:15:b5:d3:1d:13:2f:19:d1:3c:db:
                    76:3a:cc:b8:7d:c9:e5:c2:d7:da:40:6f:d8:21:dc:
                    73:1b:42:2d:53:9c:fe:1a:fc:7d:ab:7a:36:3f:98:
                    de:84:7c:05:67:ce:6a:14:38:87:a9:f1:8c:b5:68:
                    cb:68:7f:71:20:2b:f5:a0:63:f5:56:2f:a3:26:d2:
                    b7:6f:b1:5a:17:d7:38:99:08:fe:93:58:6f:fe:c3:
                    13:49:08:16:0b:a7:4d:67:00:52:31:67:23:4e:98:
                    ed:51:45:1d:b9:04:d9:0b:ec:d8:28:b3:4b:bd:ed:
                    36:79
                Exponent: 65537 (0x10001)
        X509v3 extensions:
            X509v3 Subject Key Identifier: 
                27:8E:67:11:74:C3:26:1D:3F:ED:33:63:B3:A4:D8:1D:30:E5:E8:D5
            X509v3 Authority Key Identifier: 
                keyid:27:8E:67:11:74:C3:26:1D:3F:ED:33:63:B3:A4:D8:1D:30:E5:E8:D5
                DirName:/C=US/ST=Montana/L=Bozeman/O=Sawtooth/OU=Consulting/CN=www.wolfssl.com/emailAddress=info@wolfssl.com
                serial:33:44:1A:A8:6C:01:EC:F6:60:F2:70:51:0A:4C:D1:14:FA:BC:E9:44

            X509v3 Basic Constraints: 
                CA:TRUE
            X509v3 Subject Alternative Name: 
                DNS:example.com, IP Address:127.0.0.1
            X509v3 Extended Key Usage: 
                TLS Web Server Authentication, TLS Web Client Authentication
    Signature Algorithm: sha256WithRSAEncryption
         2d:fc:f9:32:5a:be:d6:9d:42:8b:86:4e:67:22:c3:50:2d:cb:
         14:27:1d:94:f3:cd:88:42:da:41:1c:39:24:67:a7:92:4d:27:
         ea:56:82:19:bf:11:b2:43:a4:8d:5d:87:b2:27:64:66:82:81:
         df:c4:fd:5b:62:b0:c2:4d:9d:29:f2:41:32:cc:2e:b5:da:38:
         06:1b:e8:7f:8c:6e:3d:80:1e:00:56:49:bf:39:e0:da:68:2f:
         c4:fd:00:e6:d1:81:1a:d1:4a:bb:76:52:ce:4d:24:9d:c4:a3:
         a7:f1:65:14:2f:1f:a8:2d:c6:cb:ce:b1:a7:89:74:26:27:c3:
         f3:a3:84:4c:34:01:14:03:7d:16:3a:c8:8b:25:2e:7b:90:cc:
         46:b1:52:34:ba:93:6e:ef:fe:43:a3:ad:c6:6f:51:fb:ba:ea:
         38:e3:6f:d6:ee:63:62:36:ea:5e:08:b4:e2:2a:46:89:e3:ae:
         b3:b4:06:ef:63:7a:6e:5d:dd:c9:ec:02:4f:f7:64:c0:27:07:
         b4:6f:4a:18:72:5b:34:74:7c:d0:a9:04:8f:40:8b:6a:39:d2:
         6b:1a:01:f2:01:a8:81:34:3a:e5:b0:55:d1:3c:95:ca:b0:82:
         d6:ed:98:28:15:59:7e:95:a7:69:c7:b5:7b:ec:01:a7:4d:e6:
         b9:a2:fe:35
-----BEGIN CERTIFICATE-----
MIIE/zCCA+egAwIBAgIUM0QaqGwB7PZg8nBRCkzRFPq86UQwDQYJKoZIhvcNAQEL
BQAwgZQxCzAJBgNVBAYTAlVTMRAwDgYDVQQIDAdNb250YW5hMRAwDgYDVQQHDAdC
b3plbWFuMREwDwYDVQQKDAhTYXd0b290aDETMBEGA1UECwwKQ29uc3VsdGluZzEY
MBYGA1UEAwwPd3d3LndvbGZzc2wuY29tMR8wHQYJKoZIhvcNAQkBFhBpbmZvQHdv
bGZzc2wuY29tMB4XDTIzMTIxMzIyMTkyOFoXDTI2MDkwODIyMTkyOFowgZQxCzAJ
BgNVBAYTAlVTMRAwDgYDVQQIDAdNb250YW5hMRAwDgYDVQQHDAdCb3plbWFuMREw
DwYDVQQKDAhTYXd0b290aDETMBEGA1UECwwKQ29uc3VsdGluZzEYMBYGA1UEAwwP
d3d3LndvbGZzc2wuY29tMR8wHQYJKoZIhvcNAQkBFhBpbmZvQHdvbGZzc2wuY29t
MIIBIjANBgkqhkiG9w0BAQEFAAOCAQ8AMIIBCgKCAQEAvwzKLRSyHoRCW804H0ry
TXUQ8bY1n9/KfQOY06zeA2buKvHYsH1uB1QLEJghTYDLEiDnzE/eRX3Jcncy6sqQ
u2lSEAMvqPOVxfGLYlYb72dvpBBBla0Km+OlwLDScHZQMFuo6AgsfO2nonqNOCkc
rMft8nyVsJWCfUlcOM13Je+9gHVTlDw9ymNbnxW10x0TLxnRPNt2Osy4fcnlwtfa
QG/YIdxzG0ItU5z+Gvx9q3o2P5jehHwFZ85qFDiHqfGMtWjLaH9xICv1oGP1Vi+j
JtK3b7FaF9c4mQj+k1hv/sMTSQgWC6dNZwBSMWcjTpjtUUUduQTZC+zYKLNLve02
eQIDAQABo4IBRTCCAUEwHQYDVR0OBBYEFCeOZxF0wyYdP+0zY7Ok2B0w5ejVMIHU
BgNVHSMEgcwwgcmAFCeOZxF0wyYdP+0zY7Ok2B0w5ejVoYGapIGXMIGUMQswCQYD
VQQGEwJVUzEQMA4GA1UECAwHTW9udGFuYTEQMA4GA1UEBwwHQm96ZW1hbjERMA8G
A1UECgwIU2F3dG9vdGgxEzARBgNVBAsMCkNvbnN1bHRpbmcxGDAWBgNVBAMMD3d3
dy53b2xmc3NsLmNvbTEfMB0GCSqGSIb3DQEJARYQaW5mb0B3b2xmc3NsLmNvbYIU
M0QaqGwB7PZg8nBRCkzRFPq86UQwDAYDVR0TBAUwAwEB/zAcBgNVHREEFTATggtl
eGFtcGxlLmNvbYcEfwAAATAdBgNVHSUEFjAUBggrBgEFBQcDAQYIKwYBBQUHAwIw
DQYJKoZIhvcNAQELBQADggEBAC38+TJavtadQouGTmciw1AtyxQnHZTzzYhC2kEc
OSRnp5JNJ+pWghm/EbJDpI1dh7InZGaCgd/E/VtisMJNnSnyQTLMLrXaOAYb6H+M
bj2AHgBWSb854NpoL8T9AObRgRrRSrt2Us5NJJ3Eo6fxZRQvH6gtxsvOsaeJdCYn
w/OjhEw0ARQDfRY6yIslLnuQzEaxUjS6k27v/kOjrcZvUfu66jjjb9buY2I26l4I
tOIqRonjrrO0Bu9jem5d3cnsAk/3ZMAnB7RvShhyWzR0fNCpBI9Ai2o50msaAfIB
qIE0OuWwVdE8lcqwgtbtmCgVWX6Vp2nHtXvsAadN5rmi/jU=
-----END CERTIFICATE-----
