Certificate:
    Data:
        Version: 3 (0x2)
        Serial Number: 1 (0x1)
        Signature Algorithm: sha256WithRSAEncryption
        Issuer: C = US, ST = Montana, L = Bozeman, O = Sawtooth, OU = Consulting, CN = www.wolfssl.com, emailAddress = info@wolfssl.com
        Validity
            Not Before: Dec 20 23:07:25 2021 GMT
            Not After : Sep 15 23:07:25 2024 GMT
        Subject: C = US, ST = Montana, L = Bozeman, O = wolfSSL, OU = NoCaBool, CN = www.wolfssl.com, emailAddress = info@wolfssl.com
        Subject Public Key Info:
            Public Key Algorithm: rsaEncryption
                RSA Public-Key: (2048 bit)
                Modulus:
                    00:eb:52:8d:b0:d8:01:6b:f7:16:50:fe:34:a3:86:
                    1b:e8:49:50:b1:6f:6a:3f:af:de:6c:d1:af:25:9c:
                    ab:21:fc:d1:3f:45:dc:86:1d:57:04:9e:9c:56:ff:
                    66:af:78:4b:85:7c:71:bc:6b:79:a9:63:21:f4:88:
                    1e:6f:b9:53:58:b0:4d:93:b5:a7:e5:9c:80:3b:d9:
                    fb:f4:47:fe:46:f1:e7:7e:59:1d:e7:21:11:6b:96:
                    a0:d7:3b:de:ba:06:61:eb:03:d4:74:b7:b4:93:f4:
                    38:34:db:9f:58:dc:d7:fa:ee:fe:56:69:b8:97:af:
                    5b:ca:56:40:30:11:1c:26:40:a6:1f:1c:bb:d6:e0:
                    ff:1e:a4:57:35:e3:74:ab:49:a1:87:95:2f:8a:77:
                    0a:b1:65:a0:8f:d3:5a:ac:04:93:cc:50:83:42:64:
                    ab:12:fa:2e:af:2b:ea:b1:73:7b:ce:33:c3:68:23:
                    27:f0:75:f4:0b:82:1e:ae:21:00:4f:fc:26:17:75:
                    84:9b:e0:31:de:59:83:aa:45:f9:82:cb:3e:dd:22:
                    ee:ce:7c:0c:06:dc:cc:61:25:7e:7a:64:e9:c5:06:
                    57:d3:c1:61:53:59:82:32:c6:cf:1d:70:87:44:3d:
                    b7:52:e5:56:67:e3:16:7b:bb:48:98:8d:54:c1:85:
                    aa:57
                Exponent: 65537 (0x10001)
        X509v3 extensions:
            X509v3 Subject Key Identifier: 
                EF:F4:8B:86:CE:75:EF:DC:E1:F8:23:1E:1A:B8:3B:8D:98:09:88:E7
            X509v3 Authority Key Identifier: 
                keyid:27:8E:67:11:74:C3:26:1D:3F:ED:33:63:B3:A4:D8:1D:30:E5:E8:D5
                DirName:/C=US/ST=Montana/L=Bozeman/O=Sawtooth/OU=Consulting/CN=www.wolfssl.com/emailAddress=info@wolfssl.com
                serial:7D:94:70:88:BA:07:42:8D:AA:AF:4F:BE:C2:1A:48:F0:D1:40:E6:42

            X509v3 Basic Constraints: 
                CA:FALSE, pathlen:0
            X509v3 Key Usage: 
                Digital Signature
            X509v3 Extended Key Usage: 
                TLS Web Client Authentication, TLS Web Server Authentication
    Signature Algorithm: sha256WithRSAEncryption
         53:5e:64:a2:ac:e9:1a:84:a6:2f:4e:7c:11:0b:d7:9b:4a:bb:
         cb:2f:4b:f6:3f:09:33:46:4e:74:21:6d:6e:e5:a0:1a:69:f8:
         83:9a:c6:14:f6:45:12:e7:f8:a0:43:25:c8:2f:37:39:12:48:
         b9:e5:d8:50:08:d6:65:48:55:3f:f6:02:8a:b5:22:5b:5d:19:
         6a:7f:d3:e4:86:73:6c:99:21:64:87:af:37:4a:00:6f:c9:29:
         6a:60:1a:dc:57:65:be:77:af:f3:e1:cf:7e:bc:23:b6:e0:61:
         be:2b:e0:12:f1:7c:c1:3d:5d:17:7f:de:69:5c:82:89:0a:69:
         ad:1f:37:a3:91:84:c8:f2:eb:ae:c4:e6:62:37:f0:a5:f9:60:
         0c:79:01:68:93:14:ec:a5:6d:ed:ec:0e:fa:ea:a3:e0:5a:f6:
         97:a7:2c:18:20:72:db:2c:92:63:14:ee:a0:3f:d4:22:59:12:
         89:47:82:2a:2f:4d:11:d5:4b:fe:50:6d:77:d8:8f:1e:ff:fb:
         ef:af:83:96:ad:53:de:eb:cd:fc:d5:15:37:a7:6e:3d:7e:ef:
         b9:3d:39:0c:da:f5:86:ba:8c:3b:d0:46:b4:b2:c7:0b:34:d4:
         8b:8c:87:f2:7c:02:d0:eb:8f:34:69:3f:93:51:dc:f2:56:56:
         72:cc:5d:e3
-----BEGIN CERTIFICATE-----
MIIE2DCCA8CgAwIBAgIBATANBgkqhkiG9w0BAQsFADCBlDELMAkGA1UEBhMCVVMx
EDAOBgNVBAgMB01vbnRhbmExEDAOBgNVBAcMB0JvemVtYW4xETAPBgNVBAoMCFNh
d3Rvb3RoMRMwEQYDVQQLDApDb25zdWx0aW5nMRgwFgYDVQQDDA93d3cud29sZnNz
bC5jb20xHzAdBgkqhkiG9w0BCQEWEGluZm9Ad29sZnNzbC5jb20wHhcNMjExMjIw
MjMwNzI1WhcNMjQwOTE1MjMwNzI1WjCBkTELMAkGA1UEBhMCVVMxEDAOBgNVBAgM
B01vbnRhbmExEDAOBgNVBAcMB0JvemVtYW4xEDAOBgNVBAoMB3dvbGZTU0wxETAP
BgNVBAsMCE5vQ2FCb29sMRgwFgYDVQQDDA93d3cud29sZnNzbC5jb20xHzAdBgkq
hkiG9w0BCQEWEGluZm9Ad29sZnNzbC5jb20wggEiMA0GCSqGSIb3DQEBAQUAA4IB
DwAwggEKAoIBAQDrUo2w2AFr9xZQ/jSjhhvoSVCxb2o/r95s0a8lnKsh/NE/RdyG
HVcEnpxW/2aveEuFfHG8a3mpYyH0iB5vuVNYsE2TtaflnIA72fv0R/5G8ed+WR3n
IRFrlqDXO966BmHrA9R0t7ST9Dg0259Y3Nf67v5WabiXr1vKVkAwERwmQKYfHLvW
4P8epFc143SrSaGHlS+KdwqxZaCP01qsBJPMUINCZKsS+i6vK+qxc3vOM8NoIyfw
dfQLgh6uIQBP/CYXdYSb4DHeWYOqRfmCyz7dIu7OfAwG3MxhJX56ZOnFBlfTwWFT
WYIyxs8dcIdEPbdS5VZn4xZ7u0iYjVTBhapXAgMBAAGjggE0MIIBMDAdBgNVHQ4E
FgQU7/SLhs5179zh+CMeGrg7jZgJiOcwgdQGA1UdIwSBzDCByYAUJ45nEXTDJh0/
7TNjs6TYHTDl6NWhgZqkgZcwgZQxCzAJBgNVBAYTAlVTMRAwDgYDVQQIDAdNb250
YW5hMRAwDgYDVQQHDAdCb3plbWFuMREwDwYDVQQKDAhTYXd0b290aDETMBEGA1UE
CwwKQ29uc3VsdGluZzEYMBYGA1UEAwwPd3d3LndvbGZzc2wuY29tMR8wHQYJKoZI
hvcNAQkBFhBpbmZvQHdvbGZzc2wuY29tghR9lHCIugdCjaqvT77CGkjw0UDmQjAM
BgNVHRMEBTADAgEAMAsGA1UdDwQEAwIHgDAdBgNVHSUEFjAUBggrBgEFBQcDAgYI
KwYBBQUHAwEwDQYJKoZIhvcNAQELBQADggEBAFNeZKKs6RqEpi9OfBEL15tKu8sv
S/Y/CTNGTnQhbW7loBpp+IOaxhT2RRLn+KBDJcgvNzkSSLnl2FAI1mVIVT/2Aoq1
IltdGWp/0+SGc2yZIWSHrzdKAG/JKWpgGtxXZb53r/Phz368I7bgYb4r4BLxfME9
XRd/3mlcgokKaa0fN6ORhMjy667E5mI38KX5YAx5AWiTFOylbe3sDvrqo+Ba9pen
LBggctsskmMU7qA/1CJZEolHgiovTRHVS/5QbXfYjx7/+++vg5atU97rzfzVFTen
bj1+77k9OQza9Ya6jDvQRrSyxws01IuMh/J8AtDrjzRpP5NR3PJWVnLMXeM=
-----END CERTIFICATE-----
Certificate:
    Data:
        Version: 3 (0x2)
        Serial Number:
            7d:94:70:88:ba:07:42:8d:aa:af:4f:be:c2:1a:48:f0:d1:40:e6:42
        Signature Algorithm: sha256WithRSAEncryption
        Issuer: C = US, ST = Montana, L = Bozeman, O = Sawtooth, OU = Consulting, CN = www.wolfssl.com, emailAddress = info@wolfssl.com
        Validity
            Not Before: Dec 20 23:07:24 2021 GMT
            Not After : Sep 15 23:07:24 2024 GMT
        Subject: C = US, ST = Montana, L = Bozeman, O = Sawtooth, OU = Consulting, CN = www.wolfssl.com, emailAddress = info@wolfssl.com
        Subject Public Key Info:
            Public Key Algorithm: rsaEncryption
                RSA Public-Key: (2048 bit)
                Modulus:
                    00:bf:0c:ca:2d:14:b2:1e:84:42:5b:cd:38:1f:4a:
                    f2:4d:75:10:f1:b6:35:9f:df:ca:7d:03:98:d3:ac:
                    de:03:66:ee:2a:f1:d8:b0:7d:6e:07:54:0b:10:98:
                    21:4d:80:cb:12:20:e7:cc:4f:de:45:7d:c9:72:77:
                    32:ea:ca:90:bb:69:52:10:03:2f:a8:f3:95:c5:f1:
                    8b:62:56:1b:ef:67:6f:a4:10:41:95:ad:0a:9b:e3:
                    a5:c0:b0:d2:70:76:50:30:5b:a8:e8:08:2c:7c:ed:
                    a7:a2:7a:8d:38:29:1c:ac:c7:ed:f2:7c:95:b0:95:
                    82:7d:49:5c:38:cd:77:25:ef:bd:80:75:53:94:3c:
                    3d:ca:63:5b:9f:15:b5:d3:1d:13:2f:19:d1:3c:db:
                    76:3a:cc:b8:7d:c9:e5:c2:d7:da:40:6f:d8:21:dc:
                    73:1b:42:2d:53:9c:fe:1a:fc:7d:ab:7a:36:3f:98:
                    de:84:7c:05:67:ce:6a:14:38:87:a9:f1:8c:b5:68:
                    cb:68:7f:71:20:2b:f5:a0:63:f5:56:2f:a3:26:d2:
                    b7:6f:b1:5a:17:d7:38:99:08:fe:93:58:6f:fe:c3:
                    13:49:08:16:0b:a7:4d:67:00:52:31:67:23:4e:98:
                    ed:51:45:1d:b9:04:d9:0b:ec:d8:28:b3:4b:bd:ed:
                    36:79
                Exponent: 65537 (0x10001)
        X509v3 extensions:
            X509v3 Subject Key Identifier: 
                27:8E:67:11:74:C3:26:1D:3F:ED:33:63:B3:A4:D8:1D:30:E5:E8:D5
            X509v3 Authority Key Identifier: 
                keyid:27:8E:67:11:74:C3:26:1D:3F:ED:33:63:B3:A4:D8:1D:30:E5:E8:D5
                DirName:/C=US/ST=Montana/L=Bozeman/O=Sawtooth/OU=Consulting/CN=www.wolfssl.com/emailAddress=info@wolfssl.com
                serial:7D:94:70:88:BA:07:42:8D:AA:AF:4F:BE:C2:1A:48:F0:D1:40:E6:42

            X509v3 Basic Constraints: 
                CA:TRUE
            X509v3 Subject Alternative Name: 
                DNS:example.com, IP Address:127.0.0.1
            X509v3 Extended Key Usage: 
                TLS Web Server Authentication, TLS Web Client Authentication
    Signature Algorithm: sha256WithRSAEncryption
         b0:71:bb:ba:45:5a:80:25:02:a4:7e:88:0b:a9:7b:fd:b0:bb:
         f6:46:b5:ba:f4:c7:e3:61:20:8c:03:15:66:f5:e4:54:82:ef:
         13:80:97:22:67:c1:d1:88:5d:e2:2d:57:f6:e0:9f:69:d6:b1:
         5c:b6:e8:e0:98:89:c8:14:12:d6:b6:89:8d:6c:b9:a0:59:4f:
         92:ee:11:53:6b:7d:93:4a:69:0a:85:d9:d5:d2:62:e8:c9:b5:
         c6:4e:17:f5:0a:e8:f3:2d:86:61:0b:eb:c4:c4:c6:67:75:ed:
         9a:9f:53:a0:71:1e:a0:90:0d:f9:03:b4:bc:86:19:6e:f0:3b:
         4f:e8:ed:68:f6:e7:23:43:3b:36:83:83:4b:46:a0:9a:01:d0:
         c7:85:bb:7d:94:a0:21:3d:7e:3c:6a:3d:81:db:41:7b:46:d8:
         15:62:d5:8f:4d:3d:c0:db:9a:c5:81:a8:ac:da:87:99:c7:dd:
         b9:f1:14:af:d1:93:e3:f3:42:d7:a2:04:51:21:54:29:c3:45:
         f6:be:5c:fa:cd:db:bf:2f:79:81:42:e5:8f:47:0b:d4:54:01:
         b5:c2:4a:46:d6:a8:31:2e:64:80:3f:48:61:91:29:f3:aa:43:
         5c:69:6e:f1:01:b9:df:63:71:3d:b9:5a:fb:36:c0:11:a2:c3:
         30:9d:95:c3
-----BEGIN CERTIFICATE-----
MIIE/zCCA+egAwIBAgIUfZRwiLoHQo2qr0++whpI8NFA5kIwDQYJKoZIhvcNAQEL
BQAwgZQxCzAJBgNVBAYTAlVTMRAwDgYDVQQIDAdNb250YW5hMRAwDgYDVQQHDAdC
b3plbWFuMREwDwYDVQQKDAhTYXd0b290aDETMBEGA1UECwwKQ29uc3VsdGluZzEY
MBYGA1UEAwwPd3d3LndvbGZzc2wuY29tMR8wHQYJKoZIhvcNAQkBFhBpbmZvQHdv
bGZzc2wuY29tMB4XDTIxMTIyMDIzMDcyNFoXDTI0MDkxNTIzMDcyNFowgZQxCzAJ
BgNVBAYTAlVTMRAwDgYDVQQIDAdNb250YW5hMRAwDgYDVQQHDAdCb3plbWFuMREw
DwYDVQQKDAhTYXd0b290aDETMBEGA1UECwwKQ29uc3VsdGluZzEYMBYGA1UEAwwP
d3d3LndvbGZzc2wuY29tMR8wHQYJKoZIhvcNAQkBFhBpbmZvQHdvbGZzc2wuY29t
MIIBIjANBgkqhkiG9w0BAQEFAAOCAQ8AMIIBCgKCAQEAvwzKLRSyHoRCW804H0ry
TXUQ8bY1n9/KfQOY06zeA2buKvHYsH1uB1QLEJghTYDLEiDnzE/eRX3Jcncy6sqQ
u2lSEAMvqPOVxfGLYlYb72dvpBBBla0Km+OlwLDScHZQMFuo6AgsfO2nonqNOCkc
rMft8nyVsJWCfUlcOM13Je+9gHVTlDw9ymNbnxW10x0TLxnRPNt2Osy4fcnlwtfa
QG/YIdxzG0ItU5z+Gvx9q3o2P5jehHwFZ85qFDiHqfGMtWjLaH9xICv1oGP1Vi+j
JtK3b7FaF9c4mQj+k1hv/sMTSQgWC6dNZwBSMWcjTpjtUUUduQTZC+zYKLNLve02
eQIDAQABo4IBRTCCAUEwHQYDVR0OBBYEFCeOZxF0wyYdP+0zY7Ok2B0w5ejVMIHU
BgNVHSMEgcwwgcmAFCeOZxF0wyYdP+0zY7Ok2B0w5ejVoYGapIGXMIGUMQswCQYD
VQQGEwJVUzEQMA4GA1UECAwHTW9udGFuYTEQMA4GA1UEBwwHQm96ZW1hbjERMA8G
A1UECgwIU2F3dG9vdGgxEzARBgNVBAsMCkNvbnN1bHRpbmcxGDAWBgNVBAMMD3d3
dy53b2xmc3NsLmNvbTEfMB0GCSqGSIb3DQEJARYQaW5mb0B3b2xmc3NsLmNvbYIU
fZRwiLoHQo2qr0++whpI8NFA5kIwDAYDVR0TBAUwAwEB/zAcBgNVHREEFTATggtl
eGFtcGxlLmNvbYcEfwAAATAdBgNVHSUEFjAUBggrBgEFBQcDAQYIKwYBBQUHAwIw
DQYJKoZIhvcNAQELBQADggEBALBxu7pFWoAlAqR+iAupe/2wu/ZGtbr0x+NhIIwD
FWb15FSC7xOAlyJnwdGIXeItV/bgn2nWsVy26OCYicgUEta2iY1suaBZT5LuEVNr
fZNKaQqF2dXSYujJtcZOF/UK6PMthmEL68TExmd17ZqfU6BxHqCQDfkDtLyGGW7w
O0/o7Wj25yNDOzaDg0tGoJoB0MeFu32UoCE9fjxqPYHbQXtG2BVi1Y9NPcDbmsWB
qKzah5nH3bnxFK/Rk+PzQteiBFEhVCnDRfa+XPrN278veYFC5Y9HC9RUAbXCSkbW
qDEuZIA/SGGRKfOqQ1xpbvEBud9jcT25Wvs2wBGiwzCdlcM=
-----END CERTIFICATE-----
