Certificate:
    Data:
        Version: 3 (0x2)
        Serial Number: 2 (0x2)
        Signature Algorithm: sha256WithRSAEncryption
        Issuer: C = US, ST = Montana, L = Bozeman, O = Sawtooth, OU = Consulting, CN = www.wolfssl.com, emailAddress = info@wolfssl.com
        Validity
            Not Before: Dec 18 21:25:30 2024 GMT
            Not After : Sep 14 21:25:30 2027 GMT
        Subject: C = US, ST = Montana, L = Bozeman, O = wolfSSL_revoked, OU = Support_revoked, CN = www.wolfssl.com, emailAddress = info@wolfssl.com
        Subject Public Key Info:
            Public Key Algorithm: rsaEncryption
                Public-Key: (2048 bit)
                Modulus:
                    00:b0:14:16:3a:43:dd:e1:50:45:4f:cf:80:b3:dd:
                    66:96:c7:e9:f4:dc:de:b6:6b:24:1b:76:48:ac:c6:
                    23:a5:a7:e4:05:19:bd:b7:f6:de:fa:ff:ed:5b:3c:
                    79:8a:a9:d5:f1:fb:eb:c8:b1:e4:b2:ab:52:72:89:
                    93:22:5c:ba:cd:8a:36:2a:2c:d1:40:ec:a8:66:0e:
                    c3:76:cd:e7:b3:a3:0a:1e:dd:4a:07:82:17:81:ba:
                    de:57:ce:b6:32:81:c7:bd:11:bb:e9:15:22:4e:e2:
                    16:ac:e3:d4:c0:68:88:6c:11:fc:c2:bd:1b:db:1d:
                    fd:e6:43:c7:1b:33:b8:f4:e5:1b:59:39:12:38:4d:
                    2d:9b:64:68:98:fc:8d:72:12:91:f2:24:25:6c:4c:
                    4a:48:57:92:00:cc:7e:d8:d4:3d:b8:1d:f2:9e:ea:
                    b2:23:0f:51:0f:11:41:1c:f5:27:00:1b:08:7a:12:
                    3a:05:5b:03:24:fe:b1:7b:20:fa:e4:a8:58:c6:ca:
                    ce:7f:be:95:01:12:9d:05:e6:39:13:1b:c0:3e:56:
                    2e:2b:9f:76:37:de:de:9b:e0:0d:7a:63:0d:a7:22:
                    58:db:31:c7:f7:b4:46:5c:ba:b6:4b:48:b1:18:9a:
                    68:b3:63:47:fd:af:12:5f:2f:fe:10:cb:58:2b:33:
                    68:85
                Exponent: 65537 (0x10001)
        X509v3 extensions:
            X509v3 Subject Key Identifier: 
                D8:09:2B:59:E1:2A:EE:D9:EE:40:AA:9C:AB:F0:5D:28:09:4F:22:BB
            X509v3 Authority Key Identifier: 
                keyid:27:8E:67:11:74:C3:26:1D:3F:ED:33:63:B3:A4:D8:1D:30:E5:E8:D5
                DirName:/C=US/ST=Montana/L=Bozeman/O=Sawtooth/OU=Consulting/CN=www.wolfssl.com/emailAddress=info@wolfssl.com
                serial:6B:9B:70:C6:F1:A3:94:65:19:A1:08:58:EF:A7:8D:2B:7A:83:C1:DA
            X509v3 Basic Constraints: 
                CA:TRUE
            X509v3 Subject Alternative Name: 
                DNS:example.com, IP Address:127.0.0.1
            X509v3 Extended Key Usage: 
                TLS Web Server Authentication, TLS Web Client Authentication
    Signature Algorithm: sha256WithRSAEncryption
    Signature Value:
        45:72:59:97:b2:67:b1:84:57:91:f4:fc:87:4b:18:ce:96:de:
        bc:90:30:81:f7:39:2a:7d:c2:56:e5:f5:ed:79:e5:7c:e0:81:
        f1:6d:bd:cf:96:30:f8:9e:57:d7:ab:a8:ab:2e:02:2c:4b:1f:
        0e:47:50:db:3d:c7:01:3e:7d:3f:d9:ad:fa:97:76:74:9a:2d:
        5b:67:91:65:27:6b:64:7b:f3:b1:6f:18:0b:ec:7f:fa:ee:8a:
        26:5b:61:88:f9:08:be:08:c3:b6:fe:c7:b2:14:5c:95:41:31:
        26:3e:47:be:ee:d7:b4:2d:54:15:be:36:5c:e0:1f:b4:9d:9c:
        3c:8e:1d:70:8d:c9:5e:35:38:9a:9d:0a:62:d5:8c:30:aa:f5:
        e6:0e:eb:65:4e:77:cc:96:35:17:70:bb:3b:59:68:fe:4a:cf:
        d3:39:3e:70:50:ce:df:27:d4:6b:a7:30:a4:a0:55:fa:f5:f2:
        12:5d:c8:3d:9b:31:ff:7b:2c:55:f1:f6:6f:49:0c:5f:b3:1e:
        23:91:57:ca:68:88:80:2d:55:f3:4f:1a:d8:b3:81:03:da:f2:
        f8:01:27:01:c6:69:6e:67:cc:96:45:b5:2b:a5:ed:12:56:75:
        8b:97:69:2a:7d:76:5a:5e:5a:7d:97:25:f6:94:15:9a:60:92:
        fd:d5:8e:fc
-----BEGIN CERTIFICATE-----
MIIE+DCCA+CgAwIBAgIBAjANBgkqhkiG9w0BAQsFADCBlDELMAkGA1UEBhMCVVMx
EDAOBgNVBAgMB01vbnRhbmExEDAOBgNVBAcMB0JvemVtYW4xETAPBgNVBAoMCFNh
d3Rvb3RoMRMwEQYDVQQLDApDb25zdWx0aW5nMRgwFgYDVQQDDA93d3cud29sZnNz
bC5jb20xHzAdBgkqhkiG9w0BCQEWEGluZm9Ad29sZnNzbC5jb20wHhcNMjQxMjE4
MjEyNTMwWhcNMjcwOTE0MjEyNTMwWjCBoDELMAkGA1UEBhMCVVMxEDAOBgNVBAgM
B01vbnRhbmExEDAOBgNVBAcMB0JvemVtYW4xGDAWBgNVBAoMD3dvbGZTU0xfcmV2
b2tlZDEYMBYGA1UECwwPU3VwcG9ydF9yZXZva2VkMRgwFgYDVQQDDA93d3cud29s
ZnNzbC5jb20xHzAdBgkqhkiG9w0BCQEWEGluZm9Ad29sZnNzbC5jb20wggEiMA0G
CSqGSIb3DQEBAQUAA4IBDwAwggEKAoIBAQCwFBY6Q93hUEVPz4Cz3WaWx+n03N62
ayQbdkisxiOlp+QFGb239t76/+1bPHmKqdXx++vIseSyq1JyiZMiXLrNijYqLNFA
7KhmDsN2zeezowoe3UoHgheBut5XzrYygce9EbvpFSJO4has49TAaIhsEfzCvRvb
Hf3mQ8cbM7j05RtZORI4TS2bZGiY/I1yEpHyJCVsTEpIV5IAzH7Y1D24HfKe6rIj
D1EPEUEc9ScAGwh6EjoFWwMk/rF7IPrkqFjGys5/vpUBEp0F5jkTG8A+Vi4rn3Y3
3t6b4A16Yw2nIljbMcf3tEZcurZLSLEYmmizY0f9rxJfL/4Qy1grM2iFAgMBAAGj
ggFFMIIBQTAdBgNVHQ4EFgQU2AkrWeEq7tnuQKqcq/BdKAlPIrswgdQGA1UdIwSB
zDCByYAUJ45nEXTDJh0/7TNjs6TYHTDl6NWhgZqkgZcwgZQxCzAJBgNVBAYTAlVT
MRAwDgYDVQQIDAdNb250YW5hMRAwDgYDVQQHDAdCb3plbWFuMREwDwYDVQQKDAhT
YXd0b290aDETMBEGA1UECwwKQ29uc3VsdGluZzEYMBYGA1UEAwwPd3d3LndvbGZz
c2wuY29tMR8wHQYJKoZIhvcNAQkBFhBpbmZvQHdvbGZzc2wuY29tghRrm3DG8aOU
ZRmhCFjvp40reoPB2jAMBgNVHRMEBTADAQH/MBwGA1UdEQQVMBOCC2V4YW1wbGUu
Y29thwR/AAABMB0GA1UdJQQWMBQGCCsGAQUFBwMBBggrBgEFBQcDAjANBgkqhkiG
9w0BAQsFAAOCAQEARXJZl7JnsYRXkfT8h0sYzpbevJAwgfc5Kn3CVuX17XnlfOCB
8W29z5Yw+J5X16uoqy4CLEsfDkdQ2z3HAT59P9mt+pd2dJotW2eRZSdrZHvzsW8Y
C+x/+u6KJlthiPkIvgjDtv7HshRclUExJj5Hvu7XtC1UFb42XOAftJ2cPI4dcI3J
XjU4mp0KYtWMMKr15g7rZU53zJY1F3C7O1lo/krP0zk+cFDO3yfUa6cwpKBV+vXy
El3IPZsx/3ssVfH2b0kMX7MeI5FXymiIgC1V808a2LOBA9ry+AEnAcZpbmfMlkW1
K6XtElZ1i5dpKn12Wl5afZcl9pQVmmCS/dWO/A==
-----END CERTIFICATE-----
Certificate:
    Data:
        Version: 3 (0x2)
        Serial Number:
            6b:9b:70:c6:f1:a3:94:65:19:a1:08:58:ef:a7:8d:2b:7a:83:c1:da
        Signature Algorithm: sha256WithRSAEncryption
        Issuer: C = US, ST = Montana, L = Bozeman, O = Sawtooth, OU = Consulting, CN = www.wolfssl.com, emailAddress = info@wolfssl.com
        Validity
            Not Before: Dec 18 21:25:29 2024 GMT
            Not After : Sep 14 21:25:29 2027 GMT
        Subject: C = US, ST = Montana, L = Bozeman, O = Sawtooth, OU = Consulting, CN = www.wolfssl.com, emailAddress = info@wolfssl.com
        Subject Public Key Info:
            Public Key Algorithm: rsaEncryption
                Public-Key: (2048 bit)
                Modulus:
                    00:bf:0c:ca:2d:14:b2:1e:84:42:5b:cd:38:1f:4a:
                    f2:4d:75:10:f1:b6:35:9f:df:ca:7d:03:98:d3:ac:
                    de:03:66:ee:2a:f1:d8:b0:7d:6e:07:54:0b:10:98:
                    21:4d:80:cb:12:20:e7:cc:4f:de:45:7d:c9:72:77:
                    32:ea:ca:90:bb:69:52:10:03:2f:a8:f3:95:c5:f1:
                    8b:62:56:1b:ef:67:6f:a4:10:41:95:ad:0a:9b:e3:
                    a5:c0:b0:d2:70:76:50:30:5b:a8:e8:08:2c:7c:ed:
                    a7:a2:7a:8d:38:29:1c:ac:c7:ed:f2:7c:95:b0:95:
                    82:7d:49:5c:38:cd:77:25:ef:bd:80:75:53:94:3c:
                    3d:ca:63:5b:9f:15:b5:d3:1d:13:2f:19:d1:3c:db:
                    76:3a:cc:b8:7d:c9:e5:c2:d7:da:40:6f:d8:21:dc:
                    73:1b:42:2d:53:9c:fe:1a:fc:7d:ab:7a:36:3f:98:
                    de:84:7c:05:67:ce:6a:14:38:87:a9:f1:8c:b5:68:
                    cb:68:7f:71:20:2b:f5:a0:63:f5:56:2f:a3:26:d2:
                    b7:6f:b1:5a:17:d7:38:99:08:fe:93:58:6f:fe:c3:
                    13:49:08:16:0b:a7:4d:67:00:52:31:67:23:4e:98:
                    ed:51:45:1d:b9:04:d9:0b:ec:d8:28:b3:4b:bd:ed:
                    36:79
                Exponent: 65537 (0x10001)
        X509v3 extensions:
            X509v3 Subject Key Identifier: 
                27:8E:67:11:74:C3:26:1D:3F:ED:33:63:B3:A4:D8:1D:30:E5:E8:D5
            X509v3 Authority Key Identifier: 
                keyid:27:8E:67:11:74:C3:26:1D:3F:ED:33:63:B3:A4:D8:1D:30:E5:E8:D5
                DirName:/C=US/ST=Montana/L=Bozeman/O=Sawtooth/OU=Consulting/CN=www.wolfssl.com/emailAddress=info@wolfssl.com
                serial:6B:9B:70:C6:F1:A3:94:65:19:A1:08:58:EF:A7:8D:2B:7A:83:C1:DA
            X509v3 Basic Constraints: 
                CA:TRUE
            X509v3 Subject Alternative Name: 
                DNS:example.com, IP Address:127.0.0.1
            X509v3 Extended Key Usage: 
                TLS Web Server Authentication, TLS Web Client Authentication
    Signature Algorithm: sha256WithRSAEncryption
    Signature Value:
        77:3b:3d:66:74:bc:97:fe:40:16:e6:ba:a5:d5:d1:84:08:89:
        69:4f:88:0d:57:a9:ef:8c:c3:97:52:c8:bd:8b:a2:49:3b:b7:
        f7:5d:1e:d6:14:7f:b2:80:33:da:a0:8a:d3:e1:2f:d5:bc:33:
        9f:ea:5a:72:24:e5:f8:b8:4b:b3:df:62:90:3b:a8:21:ef:27:
        42:75:bc:60:02:8e:37:35:99:eb:a3:28:f2:65:4c:ff:7a:f8:
        8e:cc:23:6d:e5:6a:fe:22:5a:d9:b2:4f:47:c7:e0:ae:98:ef:
        94:ac:b6:4f:61:81:29:8e:e1:79:2c:46:fc:e9:1a:c3:96:1f:
        19:93:64:2e:9f:37:72:c5:e4:93:4e:61:5f:38:8e:ae:e8:39:
        19:e6:97:a8:91:d4:23:7e:1e:d2:d0:53:ec:cc:ac:a0:1d:d0:
        b7:dd:b1:b7:01:2e:96:cd:85:27:e0:e7:47:e2:c1:c1:00:f6:
        94:df:77:e7:fa:c6:ef:8a:c0:7c:67:bc:ff:a0:7c:94:3b:7d:
        86:42:af:3d:83:31:ee:2a:3b:7b:f0:2c:9e:6f:e9:c4:07:81:
        24:da:05:70:4d:dd:09:ae:9e:72:b8:21:0e:8c:b2:ab:aa:4c:
        49:10:f7:76:f9:b5:0d:6c:20:d3:df:7a:06:32:8d:29:1f:28:
        1d:8d:26:33
-----BEGIN CERTIFICATE-----
MIIE/zCCA+egAwIBAgIUa5twxvGjlGUZoQhY76eNK3qDwdowDQYJKoZIhvcNAQEL
BQAwgZQxCzAJBgNVBAYTAlVTMRAwDgYDVQQIDAdNb250YW5hMRAwDgYDVQQHDAdC
b3plbWFuMREwDwYDVQQKDAhTYXd0b290aDETMBEGA1UECwwKQ29uc3VsdGluZzEY
MBYGA1UEAwwPd3d3LndvbGZzc2wuY29tMR8wHQYJKoZIhvcNAQkBFhBpbmZvQHdv
bGZzc2wuY29tMB4XDTI0MTIxODIxMjUyOVoXDTI3MDkxNDIxMjUyOVowgZQxCzAJ
BgNVBAYTAlVTMRAwDgYDVQQIDAdNb250YW5hMRAwDgYDVQQHDAdCb3plbWFuMREw
DwYDVQQKDAhTYXd0b290aDETMBEGA1UECwwKQ29uc3VsdGluZzEYMBYGA1UEAwwP
d3d3LndvbGZzc2wuY29tMR8wHQYJKoZIhvcNAQkBFhBpbmZvQHdvbGZzc2wuY29t
MIIBIjANBgkqhkiG9w0BAQEFAAOCAQ8AMIIBCgKCAQEAvwzKLRSyHoRCW804H0ry
TXUQ8bY1n9/KfQOY06zeA2buKvHYsH1uB1QLEJghTYDLEiDnzE/eRX3Jcncy6sqQ
u2lSEAMvqPOVxfGLYlYb72dvpBBBla0Km+OlwLDScHZQMFuo6AgsfO2nonqNOCkc
rMft8nyVsJWCfUlcOM13Je+9gHVTlDw9ymNbnxW10x0TLxnRPNt2Osy4fcnlwtfa
QG/YIdxzG0ItU5z+Gvx9q3o2P5jehHwFZ85qFDiHqfGMtWjLaH9xICv1oGP1Vi+j
JtK3b7FaF9c4mQj+k1hv/sMTSQgWC6dNZwBSMWcjTpjtUUUduQTZC+zYKLNLve02
eQIDAQABo4IBRTCCAUEwHQYDVR0OBBYEFCeOZxF0wyYdP+0zY7Ok2B0w5ejVMIHU
BgNVHSMEgcwwgcmAFCeOZxF0wyYdP+0zY7Ok2B0w5ejVoYGapIGXMIGUMQswCQYD
VQQGEwJVUzEQMA4GA1UECAwHTW9udGFuYTEQMA4GA1UEBwwHQm96ZW1hbjERMA8G
A1UECgwIU2F3dG9vdGgxEzARBgNVBAsMCkNvbnN1bHRpbmcxGDAWBgNVBAMMD3d3
dy53b2xmc3NsLmNvbTEfMB0GCSqGSIb3DQEJARYQaW5mb0B3b2xmc3NsLmNvbYIU
a5twxvGjlGUZoQhY76eNK3qDwdowDAYDVR0TBAUwAwEB/zAcBgNVHREEFTATggtl
eGFtcGxlLmNvbYcEfwAAATAdBgNVHSUEFjAUBggrBgEFBQcDAQYIKwYBBQUHAwIw
DQYJKoZIhvcNAQELBQADggEBAHc7PWZ0vJf+QBbmuqXV0YQIiWlPiA1Xqe+Mw5dS
yL2Lokk7t/ddHtYUf7KAM9qgitPhL9W8M5/qWnIk5fi4S7PfYpA7qCHvJ0J1vGAC
jjc1meujKPJlTP96+I7MI23lav4iWtmyT0fH4K6Y75Sstk9hgSmO4XksRvzpGsOW
HxmTZC6fN3LF5JNOYV84jq7oORnml6iR1CN+HtLQU+zMrKAd0LfdsbcBLpbNhSfg
50fiwcEA9pTfd+f6xu+KwHxnvP+gfJQ7fYZCrz2DMe4qO3vwLJ5v6cQHgSTaBXBN
3QmunnK4IQ6MsquqTEkQ93b5tQ1sINPfegYyjSkfKB2NJjM=
-----END CERTIFICATE-----
