Certificate:
    Data:
        Version: 3 (0x2)
        Serial Number:
            21:d7:53:80:24:5c:eb:bf:c0:a4:40:f4:42:19:3b:83:fd:58:c5:a6
        Signature Algorithm: ecdsa-with-SHA256
        Issuer: C = US, ST = Montana, L = Bozeman, O = Elliptic - comp, OU = Server ECC-comp, CN = www.wolfssl.com, emailAddress = info@wolfssl.com
        Validity
            Not Before: Dec 13 22:19:28 2023 GMT
            Not After : Sep  8 22:19:28 2026 GMT
        Subject: C = US, ST = Montana, L = Bozeman, O = Elliptic - comp, OU = Server ECC-comp, CN = www.wolfssl.com, emailAddress = info@wolfssl.com
        Subject Public Key Info:
            Public Key Algorithm: id-ecPublicKey
                Public-Key: (256 bit)
                pub:
                    02:bb:33:ac:4c:27:50:4a:c6:4a:a5:04:c3:3c:de:
                    9f:36:db:72:2d:ce:94:ea:2b:fa:cb:20:09:39:2c:
                    16:e8:61
                ASN1 OID: prime256v1
                NIST CURVE: P-256
        X509v3 extensions:
            X509v3 Subject Key Identifier: 
                8C:38:3A:6B:B8:24:B7:DF:6E:F4:59:AC:56:4E:AA:E2:58:A6:5A:18
            X509v3 Authority Key Identifier: 
                keyid:8C:38:3A:6B:B8:24:B7:DF:6E:F4:59:AC:56:4E:AA:E2:58:A6:5A:18
                DirName:/C=US/ST=Montana/L=Bozeman/O=Elliptic - comp/OU=Server ECC-comp/CN=www.wolfssl.com/emailAddress=info@wolfssl.com
                serial:21:D7:53:80:24:5C:EB:BF:C0:A4:40:F4:42:19:3B:83:FD:58:C5:A6

            X509v3 Basic Constraints: 
                CA:TRUE
            X509v3 Subject Alternative Name: 
                DNS:example.com, IP Address:127.0.0.1
            X509v3 Extended Key Usage: 
                TLS Web Server Authentication, TLS Web Client Authentication
    Signature Algorithm: ecdsa-with-SHA256
         30:45:02:20:57:1a:59:bc:c9:45:0a:46:e6:16:da:17:ce:c3:
         0a:57:57:f2:3d:15:cd:ca:1b:a7:a8:39:2e:9d:09:f3:3e:a0:
         02:21:00:de:a3:3a:4d:88:38:2b:3a:84:de:2f:0a:81:14:57:
         7f:7f:2e:d6:a5:4d:61:10:69:b9:a2:c6:51:cd:80:4a:63
-----BEGIN CERTIFICATE-----
MIIDdzCCAx2gAwIBAgIUIddTgCRc67/ApED0Qhk7g/1YxaYwCgYIKoZIzj0EAwIw
gaAxCzAJBgNVBAYTAlVTMRAwDgYDVQQIDAdNb250YW5hMRAwDgYDVQQHDAdCb3pl
bWFuMRgwFgYDVQQKDA9FbGxpcHRpYyAtIGNvbXAxGDAWBgNVBAsMD1NlcnZlciBF
Q0MtY29tcDEYMBYGA1UEAwwPd3d3LndvbGZzc2wuY29tMR8wHQYJKoZIhvcNAQkB
FhBpbmZvQHdvbGZzc2wuY29tMB4XDTIzMTIxMzIyMTkyOFoXDTI2MDkwODIyMTky
OFowgaAxCzAJBgNVBAYTAlVTMRAwDgYDVQQIDAdNb250YW5hMRAwDgYDVQQHDAdC
b3plbWFuMRgwFgYDVQQKDA9FbGxpcHRpYyAtIGNvbXAxGDAWBgNVBAsMD1NlcnZl
ciBFQ0MtY29tcDEYMBYGA1UEAwwPd3d3LndvbGZzc2wuY29tMR8wHQYJKoZIhvcN
AQkBFhBpbmZvQHdvbGZzc2wuY29tMDkwEwYHKoZIzj0CAQYIKoZIzj0DAQcDIgAC
uzOsTCdQSsZKpQTDPN6fNttyLc6U6iv6yyAJOSwW6GGjggFRMIIBTTAdBgNVHQ4E
FgQUjDg6a7gkt99u9FmsVk6q4limWhgwgeAGA1UdIwSB2DCB1YAUjDg6a7gkt99u
9FmsVk6q4limWhihgaakgaMwgaAxCzAJBgNVBAYTAlVTMRAwDgYDVQQIDAdNb250
YW5hMRAwDgYDVQQHDAdCb3plbWFuMRgwFgYDVQQKDA9FbGxpcHRpYyAtIGNvbXAx
GDAWBgNVBAsMD1NlcnZlciBFQ0MtY29tcDEYMBYGA1UEAwwPd3d3LndvbGZzc2wu
Y29tMR8wHQYJKoZIhvcNAQkBFhBpbmZvQHdvbGZzc2wuY29tghQh11OAJFzrv8Ck
QPRCGTuD/VjFpjAMBgNVHRMEBTADAQH/MBwGA1UdEQQVMBOCC2V4YW1wbGUuY29t
hwR/AAABMB0GA1UdJQQWMBQGCCsGAQUFBwMBBggrBgEFBQcDAjAKBggqhkjOPQQD
AgNIADBFAiBXGlm8yUUKRuYW2hfOwwpXV/I9Fc3KG6eoOS6dCfM+oAIhAN6jOk2I
OCs6hN4vCoEUV39/LtalTWEQabmixlHNgEpj
-----END CERTIFICATE-----
