Certificate:
    Data:
        Version: 3 (0x2)
        Serial Number:
            c2:34:69:f5:eb:33:c2:62
    Signature Algorithm: ecdsa-with-SHA256
        Issuer: C=US, ST=Montana, L=Bozeman, O=Elliptic - comp, OU=Server ECC-comp, CN=www.wolfssl.com/emailAddress=info@wolfssl.com
        Validity
            Not Before: Jul 25 18:56:35 2016 GMT
            Not After : Apr 21 18:56:35 2019 GMT
        Subject: C=US, ST=Montana, L=Bozeman, O=Elliptic - comp, OU=Server ECC-comp, CN=www.wolfssl.com/emailAddress=info@wolfssl.com
        Subject Public Key Info:
            Public Key Algorithm: id-ecPublicKey
                Public-Key: (256 bit)
                pub: 
                    02:bb:33:ac:4c:27:50:4a:c6:4a:a5:04:c3:3c:de:
                    9f:36:db:72:2d:ce:94:ea:2b:fa:cb:20:09:39:2c:
                    16:e8:61
                ASN1 OID: prime256v1
                NIST CURVE: P-256
        X509v3 extensions:
            X509v3 Subject Key Identifier: 
                8C:38:3A:6B:B8:24:B7:DF:6E:F4:59:AC:56:4E:AA:E2:58:A6:5A:18
            X509v3 Authority Key Identifier: 
                keyid:8C:38:3A:6B:B8:24:B7:DF:6E:F4:59:AC:56:4E:AA:E2:58:A6:5A:18
                DirName:/C=US/ST=Montana/L=Bozeman/O=Elliptic - comp/OU=Server ECC-comp/CN=www.wolfssl.com/emailAddress=info@wolfssl.com
                serial:C2:34:69:F5:EB:33:C2:62

            X509v3 Basic Constraints: 
                CA:TRUE
    Signature Algorithm: ecdsa-with-SHA256
         30:46:02:21:00:92:c1:2e:c6:37:3c:e1:7b:eb:42:8a:44:8c:
         e2:58:f0:8e:73:00:d1:51:c8:37:6a:ca:8f:b7:95:3f:f0:f2:
         bd:02:21:00:86:16:93:52:16:63:01:02:20:2d:a4:ad:85:eb:
         25:92:98:37:01:cc:27:15:42:af:68:62:95:7e:b1:33:c2:70
-----BEGIN CERTIFICATE-----
MIIDJTCCAsqgAwIBAgIJAMI0afXrM8JiMAoGCCqGSM49BAMCMIGgMQswCQYDVQQG
EwJVUzEQMA4GA1UECAwHTW9udGFuYTEQMA4GA1UEBwwHQm96ZW1hbjEYMBYGA1UE
CgwPRWxsaXB0aWMgLSBjb21wMRgwFgYDVQQLDA9TZXJ2ZXIgRUNDLWNvbXAxGDAW
BgNVBAMMD3d3dy53b2xmc3NsLmNvbTEfMB0GCSqGSIb3DQEJARYQaW5mb0B3b2xm
c3NsLmNvbTAeFw0xNjA3MjUxODU2MzVaFw0xOTA0MjExODU2MzVaMIGgMQswCQYD
VQQGEwJVUzEQMA4GA1UECAwHTW9udGFuYTEQMA4GA1UEBwwHQm96ZW1hbjEYMBYG
A1UECgwPRWxsaXB0aWMgLSBjb21wMRgwFgYDVQQLDA9TZXJ2ZXIgRUNDLWNvbXAx
GDAWBgNVBAMMD3d3dy53b2xmc3NsLmNvbTEfMB0GCSqGSIb3DQEJARYQaW5mb0B3
b2xmc3NsLmNvbTA5MBMGByqGSM49AgEGCCqGSM49AwEHAyIAArszrEwnUErGSqUE
wzzenzbbci3OlOor+ssgCTksFuhho4IBCTCCAQUwHQYDVR0OBBYEFIw4Omu4JLff
bvRZrFZOquJYploYMIHVBgNVHSMEgc0wgcqAFIw4Omu4JLffbvRZrFZOquJYploY
oYGmpIGjMIGgMQswCQYDVQQGEwJVUzEQMA4GA1UECAwHTW9udGFuYTEQMA4GA1UE
BwwHQm96ZW1hbjEYMBYGA1UECgwPRWxsaXB0aWMgLSBjb21wMRgwFgYDVQQLDA9T
ZXJ2ZXIgRUNDLWNvbXAxGDAWBgNVBAMMD3d3dy53b2xmc3NsLmNvbTEfMB0GCSqG
SIb3DQEJARYQaW5mb0B3b2xmc3NsLmNvbYIJAMI0afXrM8JiMAwGA1UdEwQFMAMB
Af8wCgYIKoZIzj0EAwIDSQAwRgIhAJLBLsY3POF760KKRIziWPCOcwDRUcg3asqP
t5U/8PK9AiEAhhaTUhZjAQIgLaStheslkpg3AcwnFUKvaGKVfrEzwnA=
-----END CERTIFICATE-----
