Certificate:
    Data:
        Version: 3 (0x2)
        Serial Number: 16848175057268226162 (0xe9d0bdf2fa11b872)
    Signature Algorithm: ecdsa-with-SHA256
        Issuer: C=US, ST=Washington, L=Seattle, O=Eliptic, OU=ECC, CN=www.wolfssl.com/emailAddress=info@wolfssl.com
        Validity
            Not Before: Nov 23 12:49:37 2015 GMT
            Not After : Aug 19 12:49:37 2018 GMT
        Subject: C=US, ST=Washington, L=Seattle, O=Eliptic, OU=ECC, CN=www.wolfssl.com/emailAddress=info@wolfssl.com
        Subject Public Key Info:
            Public Key Algorithm: id-ecPublicKey
                Public-Key: (256 bit)
                pub: 
                    04:bb:33:ac:4c:27:50:4a:c6:4a:a5:04:c3:3c:de:
                    9f:36:db:72:2d:ce:94:ea:2b:fa:cb:20:09:39:2c:
                    16:e8:61:02:e9:af:4d:d3:02:93:9a:31:5b:97:92:
                    21:7f:f0:cf:18:da:91:11:02:34:86:e8:20:58:33:
                    0b:80:34:89:d8
                ASN1 OID: prime256v1
        X509v3 extensions:
            X509v3 Subject Key Identifier: 
                5D:5D:26:EF:AC:7E:36:F9:9B:76:15:2B:4A:25:02:23:EF:B2:89:30
            X509v3 Authority Key Identifier: 
                keyid:5D:5D:26:EF:AC:7E:36:F9:9B:76:15:2B:4A:25:02:23:EF:B2:89:30
                DirName:/C=US/ST=Washington/L=Seattle/O=Eliptic/OU=ECC/CN=www.wolfssl.com/emailAddress=info@wolfssl.com
                serial:E9:D0:BD:F2:FA:11:B8:72

            X509v3 Basic Constraints: 
                CA:TRUE
            Authority Information Access: 
                OCSP - URI:http://localhost:22222

    Signature Algorithm: ecdsa-with-SHA256
         30:45:02:21:00:f1:2d:c5:41:b2:f3:7d:ae:f5:58:d9:96:b3:
         b8:d5:d6:c6:71:b2:de:45:8f:78:56:74:d3:6b:7c:e6:c8:42:
         6a:02:20:53:2d:22:00:e8:61:39:0c:d2:bc:29:11:51:eb:0e:
         fa:ec:bd:b0:f6:5d:58:e7:1e:49:e4:f2:2a:77:b1:15:3e
-----BEGIN CERTIFICATE-----
MIIDRTCCAuugAwIBAgIJAOnQvfL6EbhyMAoGCCqGSM49BAMCMIGPMQswCQYDVQQG
EwJVUzETMBEGA1UECAwKV2FzaGluZ3RvbjEQMA4GA1UEBwwHU2VhdHRsZTEQMA4G
A1UECgwHRWxpcHRpYzEMMAoGA1UECwwDRUNDMRgwFgYDVQQDDA93d3cud29sZnNz
bC5jb20xHzAdBgkqhkiG9w0BCQEWEGluZm9Ad29sZnNzbC5jb20wHhcNMTUxMTIz
MTI0OTM3WhcNMTgwODE5MTI0OTM3WjCBjzELMAkGA1UEBhMCVVMxEzARBgNVBAgM
Cldhc2hpbmd0b24xEDAOBgNVBAcMB1NlYXR0bGUxEDAOBgNVBAoMB0VsaXB0aWMx
DDAKBgNVBAsMA0VDQzEYMBYGA1UEAwwPd3d3LndvbGZzc2wuY29tMR8wHQYJKoZI
hvcNAQkBFhBpbmZvQHdvbGZzc2wuY29tMFkwEwYHKoZIzj0CAQYIKoZIzj0DAQcD
QgAEuzOsTCdQSsZKpQTDPN6fNttyLc6U6iv6yyAJOSwW6GEC6a9N0wKTmjFbl5Ih
f/DPGNqREQI0huggWDMLgDSJ2KOCASwwggEoMB0GA1UdDgQWBBRdXSbvrH42+Zt2
FStKJQIj77KJMDCBxAYDVR0jBIG8MIG5gBRdXSbvrH42+Zt2FStKJQIj77KJMKGB
laSBkjCBjzELMAkGA1UEBhMCVVMxEzARBgNVBAgMCldhc2hpbmd0b24xEDAOBgNV
BAcMB1NlYXR0bGUxEDAOBgNVBAoMB0VsaXB0aWMxDDAKBgNVBAsMA0VDQzEYMBYG
A1UEAwwPd3d3LndvbGZzc2wuY29tMR8wHQYJKoZIhvcNAQkBFhBpbmZvQHdvbGZz
c2wuY29tggkA6dC98voRuHIwDAYDVR0TBAUwAwEB/zAyBggrBgEFBQcBAQQmMCQw
IgYIKwYBBQUHMAGGFmh0dHA6Ly9sb2NhbGhvc3Q6MjIyMjIwCgYIKoZIzj0EAwID
SAAwRQIhAPEtxUGy832u9VjZlrO41dbGcbLeRY94VnTTa3zmyEJqAiBTLSIA6GE5
DNK8KRFR6w767L2w9l1Y5x5J5PIqd7EVPg==
-----END CERTIFICATE-----
