Certificate:
    Data:
        Version: 3 (0x2)
        Serial Number: 1 (0x1)
        Signature Algorithm: sha256WithRSAEncryption
        Issuer: C = US, ST = Montana, L = Bozeman, O = Sawtooth, OU = Consulting, CN = www.wolfssl.com, emailAddress = info@wolfssl.com
        Validity
            Not Before: Sep 26 17:22:42 2023 GMT
            Not After : Jun 22 17:22:42 2026 GMT
        Subject: C = US, ST = Montana, L = Bozeman, O = Elliptic - RSAsig, OU = ECC-RSAsig, CN = www.wolfssl.com, emailAddress = info@wolfssl.com
        Subject Public Key Info:
            Public Key Algorithm: id-ecPublicKey
                Public-Key: (256 bit)
                pub:
                    04:bb:33:ac:4c:27:50:4a:c6:4a:a5:04:c3:3c:de:
                    9f:36:db:72:2d:ce:94:ea:2b:fa:cb:20:09:39:2c:
                    16:e8:61:02:e9:af:4d:d3:02:93:9a:31:5b:97:92:
                    21:7f:f0:cf:18:da:91:11:02:34:86:e8:20:58:33:
                    0b:80:34:89:d8
                ASN1 OID: prime256v1
                NIST CURVE: P-256
        X509v3 extensions:
            X509v3 Subject Key Identifier: 
                5D:5D:26:EF:AC:7E:36:F9:9B:76:15:2B:4A:25:02:23:EF:B2:89:30
            X509v3 Authority Key Identifier: 
                keyid:27:8E:67:11:74:C3:26:1D:3F:ED:33:63:B3:A4:D8:1D:30:E5:E8:D5
                DirName:/C=US/ST=Montana/L=Bozeman/O=Sawtooth/OU=Consulting/CN=www.wolfssl.com/emailAddress=info@wolfssl.com
                serial:4F:1D:F3:64:BA:21:A8:E6:CB:74:3A:4E:44:A5:E6:79:19:E8:5B:81
            X509v3 Basic Constraints: 
                CA:TRUE
            X509v3 Subject Alternative Name: 
                DNS:example.com, IP Address:127.0.0.1
            X509v3 Extended Key Usage: 
                TLS Web Server Authentication, TLS Web Client Authentication
    Signature Algorithm: sha256WithRSAEncryption
    Signature Value:
        a7:51:e9:93:c8:2c:c0:06:bd:d7:ff:a9:4b:38:b6:c7:65:ff:
        c1:92:96:c6:3a:e5:d7:60:b3:91:c0:33:9b:5f:07:d8:cb:29:
        fc:69:0a:34:74:b7:f6:2e:18:04:9c:c1:56:e9:d7:25:cd:2f:
        fe:fc:71:a1:b2:4d:28:49:56:f4:1d:60:22:85:79:18:d9:f9:
        60:66:d5:a6:65:7a:97:67:65:c2:7b:8a:40:6f:77:54:f7:0a:
        39:52:7c:c7:18:4b:13:32:65:81:a3:3d:dc:7e:93:1b:c4:9c:
        6e:79:7a:a1:ab:62:87:8b:f2:e4:ec:d6:f8:0a:4f:2a:37:78:
        52:0f:e5:3c:a0:e2:f4:ae:80:9c:85:a1:c4:2a:75:aa:ce:4c:
        b5:c6:03:b2:fb:c4:ca:ff:93:f0:08:45:e5:00:80:e3:58:1e:
        43:75:9a:ac:1a:f1:d9:0b:5e:b5:38:ec:1d:63:a1:08:24:39:
        1c:e0:7e:08:99:1e:b7:d8:a2:3e:49:07:a4:a9:62:26:ba:d8:
        2c:68:30:d8:07:72:09:76:bc:de:c7:d7:53:7d:12:1a:f3:d3:
        c2:6b:4d:0a:c0:1e:92:6b:de:12:bf:b9:b7:27:ad:f8:ee:4a:
        44:1b:70:35:2e:c2:ed:dc:7f:81:5a:53:dd:af:1b:a0:af:72:
        53:96:9f:97
-----BEGIN CERTIFICATE-----
MIIEKjCCAxKgAwIBAgIBATANBgkqhkiG9w0BAQsFADCBlDELMAkGA1UEBhMCVVMx
EDAOBgNVBAgMB01vbnRhbmExEDAOBgNVBAcMB0JvemVtYW4xETAPBgNVBAoMCFNh
d3Rvb3RoMRMwEQYDVQQLDApDb25zdWx0aW5nMRgwFgYDVQQDDA93d3cud29sZnNz
bC5jb20xHzAdBgkqhkiG9w0BCQEWEGluZm9Ad29sZnNzbC5jb20wHhcNMjMwOTI2
MTcyMjQyWhcNMjYwNjIyMTcyMjQyWjCBnTELMAkGA1UEBhMCVVMxEDAOBgNVBAgM
B01vbnRhbmExEDAOBgNVBAcMB0JvemVtYW4xGjAYBgNVBAoMEUVsbGlwdGljIC0g
UlNBc2lnMRMwEQYDVQQLDApFQ0MtUlNBc2lnMRgwFgYDVQQDDA93d3cud29sZnNz
bC5jb20xHzAdBgkqhkiG9w0BCQEWEGluZm9Ad29sZnNzbC5jb20wWTATBgcqhkjO
PQIBBggqhkjOPQMBBwNCAAS7M6xMJ1BKxkqlBMM83p8223ItzpTqK/rLIAk5LBbo
YQLpr03TApOaMVuXkiF/8M8Y2pERAjSG6CBYMwuANInYo4IBRTCCAUEwHQYDVR0O
BBYEFF1dJu+sfjb5m3YVK0olAiPvsokwMIHUBgNVHSMEgcwwgcmAFCeOZxF0wyYd
P+0zY7Ok2B0w5ejVoYGapIGXMIGUMQswCQYDVQQGEwJVUzEQMA4GA1UECAwHTW9u
dGFuYTEQMA4GA1UEBwwHQm96ZW1hbjERMA8GA1UECgwIU2F3dG9vdGgxEzARBgNV
BAsMCkNvbnN1bHRpbmcxGDAWBgNVBAMMD3d3dy53b2xmc3NsLmNvbTEfMB0GCSqG
SIb3DQEJARYQaW5mb0B3b2xmc3NsLmNvbYIUTx3zZLohqObLdDpORKXmeRnoW4Ew
DAYDVR0TBAUwAwEB/zAcBgNVHREEFTATggtleGFtcGxlLmNvbYcEfwAAATAdBgNV
HSUEFjAUBggrBgEFBQcDAQYIKwYBBQUHAwIwDQYJKoZIhvcNAQELBQADggEBAKdR
6ZPILMAGvdf/qUs4tsdl/8GSlsY65ddgs5HAM5tfB9jLKfxpCjR0t/YuGAScwVbp
1yXNL/78caGyTShJVvQdYCKFeRjZ+WBm1aZlepdnZcJ7ikBvd1T3CjlSfMcYSxMy
ZYGjPdx+kxvEnG55eqGrYoeL8uTs1vgKTyo3eFIP5Tyg4vSugJyFocQqdarOTLXG
A7L7xMr/k/AIReUAgONYHkN1mqwa8dkLXrU47B1joQgkORzgfgiZHrfYoj5JB6Sp
Yia62CxoMNgHcgl2vN7H11N9Ehrz08JrTQrAHpJr3hK/ubcnrfjuSkQbcDUuwu3c
f4FaU92vG6CvclOWn5c=
-----END CERTIFICATE-----
