Certificate:
    Data:
        Version: 3 (0x2)
        Serial Number: 16258826233447050485 (0xe1a2f450fd69ecf5)
    Signature Algorithm: ecdsa-with-SHA1
        Issuer: C=US, ST=Montana, L=Bozeman, O=wolfSSL, OU=Programming, CN=www.wolfssl.com/emailAddress=info@wolfssl.com
        Validity
            Not Before: Feb  5 06:33:30 2015 GMT
            Not After : Nov  1 06:33:30 2017 GMT
        Subject: C=US, ST=Montana, L=Bozeman, O=wolfSSL, OU=Programming, CN=www.wolfssl.com/emailAddress=info@wolfssl.com
        Subject Public Key Info:
            Public Key Algorithm: id-ecPublicKey
                Public-Key: (256 bit)
                pub: 
                    02:bb:33:ac:4c:27:50:4a:c6:4a:a5:04:c3:3c:de:
                    9f:36:db:72:2d:ce:94:ea:2b:fa:cb:20:09:39:2c:
                    16:e8:61
                ASN1 OID: prime256v1
        X509v3 extensions:
            X509v3 Subject Key Identifier: 
                8C:38:3A:6B:B8:24:B7:DF:6E:F4:59:AC:56:4E:AA:E2:58:A6:5A:18
            X509v3 Authority Key Identifier: 
                keyid:8C:38:3A:6B:B8:24:B7:DF:6E:F4:59:AC:56:4E:AA:E2:58:A6:5A:18
                DirName:/C=US/ST=Montana/L=Bozeman/O=wolfSSL/OU=Programming/CN=www.wolfssl.com/emailAddress=info@wolfssl.com
                serial:E1:A2:F4:50:FD:69:EC:F5

            X509v3 Basic Constraints: 
                CA:TRUE
    Signature Algorithm: ecdsa-with-SHA1
         30:44:02:20:72:05:71:ab:5b:4b:64:03:ff:77:0e:f7:a7:8b:
         70:85:52:5a:45:a7:85:90:3d:54:a4:49:23:98:23:2c:f6:db:
         02:20:76:f5:ad:98:20:b7:00:e2:b9:a2:97:5e:cd:18:16:90:
         a7:cc:e5:eb:34:60:83:01:49:0a:0e:e7:62:ef:85:ca
-----BEGIN CERTIFICATE-----
MIIC+zCCAqOgAwIBAgIJAOGi9FD9aez1MAkGByqGSM49BAEwgZQxCzAJBgNVBAYT
AlVTMRAwDgYDVQQIDAdNb250YW5hMRAwDgYDVQQHDAdCb3plbWFuMRAwDgYDVQQK
DAd3b2xmU1NMMRQwEgYDVQQLDAtQcm9ncmFtbWluZzEYMBYGA1UEAwwPd3d3Lndv
bGZzc2wuY29tMR8wHQYJKoZIhvcNAQkBFhBpbmZvQHdvbGZzc2wuY29tMB4XDTE1
MDIwNTA2MzMzMFoXDTE3MTEwMTA2MzMzMFowgZQxCzAJBgNVBAYTAlVTMRAwDgYD
VQQIDAdNb250YW5hMRAwDgYDVQQHDAdCb3plbWFuMRAwDgYDVQQKDAd3b2xmU1NM
MRQwEgYDVQQLDAtQcm9ncmFtbWluZzEYMBYGA1UEAwwPd3d3LndvbGZzc2wuY29t
MR8wHQYJKoZIhvcNAQkBFhBpbmZvQHdvbGZzc2wuY29tMDkwEwYHKoZIzj0CAQYI
KoZIzj0DAQcDIgACuzOsTCdQSsZKpQTDPN6fNttyLc6U6iv6yyAJOSwW6GGjgfww
gfkwHQYDVR0OBBYEFIw4Omu4JLffbvRZrFZOquJYploYMIHJBgNVHSMEgcEwgb6A
FIw4Omu4JLffbvRZrFZOquJYploYoYGapIGXMIGUMQswCQYDVQQGEwJVUzEQMA4G
A1UECAwHTW9udGFuYTEQMA4GA1UEBwwHQm96ZW1hbjEQMA4GA1UECgwHd29sZlNT
TDEUMBIGA1UECwwLUHJvZ3JhbW1pbmcxGDAWBgNVBAMMD3d3dy53b2xmc3NsLmNv
bTEfMB0GCSqGSIb3DQEJARYQaW5mb0B3b2xmc3NsLmNvbYIJAOGi9FD9aez1MAwG
A1UdEwQFMAMBAf8wCQYHKoZIzj0EAQNHADBEAiByBXGrW0tkA/93Dveni3CFUlpF
p4WQPVSkSSOYIyz22wIgdvWtmCC3AOK5opdezRgWkKfM5es0YIMBSQoO52Lvhco=
-----END CERTIFICATE-----
