Certificate:
    Data:
        Version: 3 (0x2)
        Serial Number:
            7e:ce:94:a4:69:82:50:e3:fe:e1:ca:d8:ff:0e:5f:8f:c9:b5:2b:5c
        Signature Algorithm: ecdsa-with-SHA256
        Issuer: C = US, ST = Washington, L = Seattle, O = Elliptic, OU = ECC, CN = www.wolfssl.com, emailAddress = info@wolfssl.com
        Validity
            Not Before: Dec 13 22:19:27 2023 GMT
            Not After : Dec 10 22:19:27 2033 GMT
        Subject: C = US, ST = Washington, L = Seattle, O = Elliptic, OU = ECC, CN = www.wolfssl.com, emailAddress = info@wolfssl.com
        Subject Public Key Info:
            Public Key Algorithm: id-ecPublicKey
                Public-Key: (256 bit)
                pub:
                    04:bb:33:ac:4c:27:50:4a:c6:4a:a5:04:c3:3c:de:
                    9f:36:db:72:2d:ce:94:ea:2b:fa:cb:20:09:39:2c:
                    16:e8:61:02:e9:af:4d:d3:02:93:9a:31:5b:97:92:
                    21:7f:f0:cf:18:da:91:11:02:34:86:e8:20:58:33:
                    0b:80:34:89:d8
                ASN1 OID: prime256v1
                NIST CURVE: P-256
        X509v3 extensions:
            X509v3 Basic Constraints: 
                CA:FALSE
            Netscape Cert Type: 
                SSL Server
            X509v3 Subject Key Identifier: 
                5D:5D:26:EF:AC:7E:36:F9:9B:76:15:2B:4A:25:02:23:EF:B2:89:30
            X509v3 Authority Key Identifier: 
                keyid:5D:5D:26:EF:AC:7E:36:F9:9B:76:15:2B:4A:25:02:23:EF:B2:89:30
                DirName:/C=US/ST=Washington/L=Seattle/O=Elliptic/OU=ECC/CN=www.wolfssl.com/emailAddress=info@wolfssl.com
                serial:7E:CE:94:A4:69:82:50:E3:FE:E1:CA:D8:FF:0E:5F:8F:C9:B5:2B:5C

            X509v3 Key Usage: critical
                Digital Signature, Key Encipherment, Key Agreement
            X509v3 Extended Key Usage: 
                TLS Web Server Authentication
    Signature Algorithm: ecdsa-with-SHA256
         30:46:02:21:00:b1:ef:00:eb:7b:d1:e0:a8:95:1c:80:c8:11:
         e3:66:46:fb:ff:f8:55:2f:45:20:98:72:b1:5b:e4:b6:3b:ce:
         35:02:21:00:d7:b3:b6:bb:fd:41:86:04:a1:61:bd:2b:1c:5f:
         a0:3d:52:51:97:e3:90:d0:5e:a6:c8:09:23:ae:3d:5c:2a:3c
-----BEGIN CERTIFICATE-----
MIIDYDCCAwWgAwIBAgIUfs6UpGmCUOP+4crY/w5fj8m1K1wwCgYIKoZIzj0EAwIw
gZAxCzAJBgNVBAYTAlVTMRMwEQYDVQQIDApXYXNoaW5ndG9uMRAwDgYDVQQHDAdT
ZWF0dGxlMREwDwYDVQQKDAhFbGxpcHRpYzEMMAoGA1UECwwDRUNDMRgwFgYDVQQD
DA93d3cud29sZnNzbC5jb20xHzAdBgkqhkiG9w0BCQEWEGluZm9Ad29sZnNzbC5j
b20wHhcNMjMxMjEzMjIxOTI3WhcNMzMxMjEwMjIxOTI3WjCBkDELMAkGA1UEBhMC
VVMxEzARBgNVBAgMCldhc2hpbmd0b24xEDAOBgNVBAcMB1NlYXR0bGUxETAPBgNV
BAoMCEVsbGlwdGljMQwwCgYDVQQLDANFQ0MxGDAWBgNVBAMMD3d3dy53b2xmc3Ns
LmNvbTEfMB0GCSqGSIb3DQEJARYQaW5mb0B3b2xmc3NsLmNvbTBZMBMGByqGSM49
AgEGCCqGSM49AwEHA0IABLszrEwnUErGSqUEwzzenzbbci3OlOor+ssgCTksFuhh
AumvTdMCk5oxW5eSIX/wzxjakRECNIboIFgzC4A0idijggE5MIIBNTAJBgNVHRME
AjAAMBEGCWCGSAGG+EIBAQQEAwIGQDAdBgNVHQ4EFgQUXV0m76x+NvmbdhUrSiUC
I++yiTAwgdAGA1UdIwSByDCBxYAUXV0m76x+NvmbdhUrSiUCI++yiTChgZakgZMw
gZAxCzAJBgNVBAYTAlVTMRMwEQYDVQQIDApXYXNoaW5ndG9uMRAwDgYDVQQHDAdT
ZWF0dGxlMREwDwYDVQQKDAhFbGxpcHRpYzEMMAoGA1UECwwDRUNDMRgwFgYDVQQD
DA93d3cud29sZnNzbC5jb20xHzAdBgkqhkiG9w0BCQEWEGluZm9Ad29sZnNzbC5j
b22CFH7OlKRpglDj/uHK2P8OX4/JtStcMA4GA1UdDwEB/wQEAwIDqDATBgNVHSUE
DDAKBggrBgEFBQcDATAKBggqhkjOPQQDAgNJADBGAiEAse8A63vR4KiVHIDIEeNm
Rvv/+FUvRSCYcrFb5LY7zjUCIQDXs7a7/UGGBKFhvSscX6A9UlGX45DQXqbICSOu
PVwqPA==
-----END CERTIFICATE-----
