Certificate:
    Data:
        Version: 3 (0x2)
        Serial Number: 1 (0x1)
        Signature Algorithm: sha256WithRSAEncryption
        Issuer: C = US, ST = Montana, L = Bozeman, O = Sawtooth, OU = Consulting, CN = www.wolfssl.com, emailAddress = info@wolfssl.com
        Validity
            Not Before: Dec 20 23:07:25 2021 GMT
            Not After : Sep 15 23:07:25 2024 GMT
        Subject: C = US, ST = Montana, L = Bozeman, O = Elliptic - RSAsig, OU = ECC-RSAsig, CN = www.wolfssl.com, emailAddress = info@wolfssl.com
        Subject Public Key Info:
            Public Key Algorithm: id-ecPublicKey
                Public-Key: (256 bit)
                pub:
                    04:bb:33:ac:4c:27:50:4a:c6:4a:a5:04:c3:3c:de:
                    9f:36:db:72:2d:ce:94:ea:2b:fa:cb:20:09:39:2c:
                    16:e8:61:02:e9:af:4d:d3:02:93:9a:31:5b:97:92:
                    21:7f:f0:cf:18:da:91:11:02:34:86:e8:20:58:33:
                    0b:80:34:89:d8
                ASN1 OID: prime256v1
                NIST CURVE: P-256
        X509v3 extensions:
            X509v3 Subject Key Identifier: 
                5D:5D:26:EF:AC:7E:36:F9:9B:76:15:2B:4A:25:02:23:EF:B2:89:30
            X509v3 Authority Key Identifier: 
                keyid:27:8E:67:11:74:C3:26:1D:3F:ED:33:63:B3:A4:D8:1D:30:E5:E8:D5
                DirName:/C=US/ST=Montana/L=Bozeman/O=Sawtooth/OU=Consulting/CN=www.wolfssl.com/emailAddress=info@wolfssl.com
                serial:7D:94:70:88:BA:07:42:8D:AA:AF:4F:BE:C2:1A:48:F0:D1:40:E6:42

            X509v3 Basic Constraints: 
                CA:TRUE
            X509v3 Subject Alternative Name: 
                DNS:example.com, IP Address:127.0.0.1
            X509v3 Extended Key Usage: 
                TLS Web Server Authentication, TLS Web Client Authentication
    Signature Algorithm: sha256WithRSAEncryption
         b3:bc:8c:f8:0f:8f:63:4e:cd:73:62:fe:46:e9:fd:de:74:b8:
         74:e2:9c:af:f1:b5:ce:48:d0:c6:56:e9:fe:38:a5:91:23:c0:
         5f:f1:5d:e4:fd:6d:b3:87:f3:7e:fc:e0:c3:8b:ff:94:fb:f8:
         43:09:f6:71:34:bb:cc:ba:43:54:8c:4e:69:b2:75:e1:a2:d0:
         b7:b0:cb:2b:ed:0f:9c:d4:e6:cb:03:37:b4:86:92:4c:8c:fc:
         30:5c:71:e0:3c:58:44:25:fa:3a:04:08:4e:27:14:d7:5b:aa:
         75:e7:2b:13:1a:2c:60:9f:ad:43:e0:48:5d:02:88:84:a6:72:
         36:56:a5:1e:82:8c:f2:75:fd:7c:8e:af:92:44:9f:78:3e:a1:
         dc:ea:7d:19:ef:08:b4:28:5b:76:d4:90:73:a7:e9:ba:41:bd:
         44:fc:a6:d9:33:06:15:f8:2c:8f:ca:2b:fa:21:bd:4a:4c:a6:
         9f:4e:5b:97:bd:97:cf:d7:74:a6:42:ac:c0:4f:f4:92:2a:b8:
         a6:26:8e:fe:32:4b:4d:fc:37:84:d8:1b:7c:0b:ac:ec:5c:96:
         12:02:d4:4c:3b:f0:ea:4c:5a:ce:3d:57:e5:e6:8a:b5:82:b7:
         9f:f8:cb:20:fb:db:98:04:91:30:e2:57:cb:22:f3:07:fd:43:
         07:c7:62:32
-----BEGIN CERTIFICATE-----
MIIEKjCCAxKgAwIBAgIBATANBgkqhkiG9w0BAQsFADCBlDELMAkGA1UEBhMCVVMx
EDAOBgNVBAgMB01vbnRhbmExEDAOBgNVBAcMB0JvemVtYW4xETAPBgNVBAoMCFNh
d3Rvb3RoMRMwEQYDVQQLDApDb25zdWx0aW5nMRgwFgYDVQQDDA93d3cud29sZnNz
bC5jb20xHzAdBgkqhkiG9w0BCQEWEGluZm9Ad29sZnNzbC5jb20wHhcNMjExMjIw
MjMwNzI1WhcNMjQwOTE1MjMwNzI1WjCBnTELMAkGA1UEBhMCVVMxEDAOBgNVBAgM
B01vbnRhbmExEDAOBgNVBAcMB0JvemVtYW4xGjAYBgNVBAoMEUVsbGlwdGljIC0g
UlNBc2lnMRMwEQYDVQQLDApFQ0MtUlNBc2lnMRgwFgYDVQQDDA93d3cud29sZnNz
bC5jb20xHzAdBgkqhkiG9w0BCQEWEGluZm9Ad29sZnNzbC5jb20wWTATBgcqhkjO
PQIBBggqhkjOPQMBBwNCAAS7M6xMJ1BKxkqlBMM83p8223ItzpTqK/rLIAk5LBbo
YQLpr03TApOaMVuXkiF/8M8Y2pERAjSG6CBYMwuANInYo4IBRTCCAUEwHQYDVR0O
BBYEFF1dJu+sfjb5m3YVK0olAiPvsokwMIHUBgNVHSMEgcwwgcmAFCeOZxF0wyYd
P+0zY7Ok2B0w5ejVoYGapIGXMIGUMQswCQYDVQQGEwJVUzEQMA4GA1UECAwHTW9u
dGFuYTEQMA4GA1UEBwwHQm96ZW1hbjERMA8GA1UECgwIU2F3dG9vdGgxEzARBgNV
BAsMCkNvbnN1bHRpbmcxGDAWBgNVBAMMD3d3dy53b2xmc3NsLmNvbTEfMB0GCSqG
SIb3DQEJARYQaW5mb0B3b2xmc3NsLmNvbYIUfZRwiLoHQo2qr0++whpI8NFA5kIw
DAYDVR0TBAUwAwEB/zAcBgNVHREEFTATggtleGFtcGxlLmNvbYcEfwAAATAdBgNV
HSUEFjAUBggrBgEFBQcDAQYIKwYBBQUHAwIwDQYJKoZIhvcNAQELBQADggEBALO8
jPgPj2NOzXNi/kbp/d50uHTinK/xtc5I0MZW6f44pZEjwF/xXeT9bbOH83784MOL
/5T7+EMJ9nE0u8y6Q1SMTmmydeGi0LewyyvtD5zU5ssDN7SGkkyM/DBcceA8WEQl
+joECE4nFNdbqnXnKxMaLGCfrUPgSF0CiISmcjZWpR6CjPJ1/XyOr5JEn3g+odzq
fRnvCLQoW3bUkHOn6bpBvUT8ptkzBhX4LI/KK/ohvUpMpp9OW5e9l8/XdKZCrMBP
9JIquKYmjv4yS038N4TYG3wLrOxclhIC1Ew78OpMWs49V+XmirWCt5/4yyD725gE
kTDiV8si8wf9QwfHYjI=
-----END CERTIFICATE-----
