Certificate:
    Data:
        Version: 3 (0x2)
        Serial Number:
            73:13:90:bf:9f:cf:a1:fc:6b:92:0a:a9:2c:7c:74:15:39:ed:56:53
        Signature Algorithm: ecdsa-with-SHA256
        Issuer: C=US, ST=Montana, L=Bozeman, O=Elliptic - comp, OU=Server ECC-comp, CN=www.wolfssl.com, emailAddress=facts@wolfssl.com
        Validity
            Not Before: Jun 11 21:44:29 2026 GMT
            Not After : Mar  7 21:44:29 2029 GMT
        Subject: C=US, ST=Montana, L=Bozeman, O=Elliptic - comp, OU=Server ECC-comp, CN=www.wolfssl.com, emailAddress=facts@wolfssl.com
        Subject Public Key Info:
            Public Key Algorithm: id-ecPublicKey
                Public-Key: (256 bit)
                pub:
                    02:bb:33:ac:4c:27:50:4a:c6:4a:a5:04:c3:3c:de:
                    9f:36:db:72:2d:ce:94:ea:2b:fa:cb:20:09:39:2c:
                    16:e8:61
                ASN1 OID: prime256v1
                NIST CURVE: P-256
        X509v3 extensions:
            X509v3 Subject Key Identifier: 
                8C:38:3A:6B:B8:24:B7:DF:6E:F4:59:AC:56:4E:AA:E2:58:A6:5A:18
            X509v3 Authority Key Identifier: 
                keyid:8C:38:3A:6B:B8:24:B7:DF:6E:F4:59:AC:56:4E:AA:E2:58:A6:5A:18
                DirName:/C=US/ST=Montana/L=Bozeman/O=Elliptic - comp/OU=Server ECC-comp/CN=www.wolfssl.com/emailAddress=facts@wolfssl.com
                serial:73:13:90:BF:9F:CF:A1:FC:6B:92:0A:A9:2C:7C:74:15:39:ED:56:53
            X509v3 Basic Constraints: 
                CA:TRUE
            X509v3 Subject Alternative Name: 
                DNS:example.com, IP Address:127.0.0.1
            X509v3 Extended Key Usage: 
                TLS Web Server Authentication, TLS Web Client Authentication
    Signature Algorithm: ecdsa-with-SHA256
    Signature Value:
        30:46:02:21:00:ef:49:f8:31:88:01:57:a1:25:80:bc:4b:e9:
        a8:28:a8:cf:44:b1:3d:6e:49:5a:ee:2f:40:b8:dc:2f:94:da:
        e3:02:21:00:92:19:66:4e:4a:99:c7:62:8b:7d:e7:b4:e2:84:
        49:c8:f9:8c:2d:54:c1:d2:79:aa:af:dc:73:b0:a1:44:a0:1e
-----BEGIN CERTIFICATE-----
MIIDezCCAyCgAwIBAgIUcxOQv5/PofxrkgqpLHx0FTntVlMwCgYIKoZIzj0EAwIw
gaExCzAJBgNVBAYTAlVTMRAwDgYDVQQIDAdNb250YW5hMRAwDgYDVQQHDAdCb3pl
bWFuMRgwFgYDVQQKDA9FbGxpcHRpYyAtIGNvbXAxGDAWBgNVBAsMD1NlcnZlciBF
Q0MtY29tcDEYMBYGA1UEAwwPd3d3LndvbGZzc2wuY29tMSAwHgYJKoZIhvcNAQkB
FhFmYWN0c0B3b2xmc3NsLmNvbTAeFw0yNjA2MTEyMTQ0MjlaFw0yOTAzMDcyMTQ0
MjlaMIGhMQswCQYDVQQGEwJVUzEQMA4GA1UECAwHTW9udGFuYTEQMA4GA1UEBwwH
Qm96ZW1hbjEYMBYGA1UECgwPRWxsaXB0aWMgLSBjb21wMRgwFgYDVQQLDA9TZXJ2
ZXIgRUNDLWNvbXAxGDAWBgNVBAMMD3d3dy53b2xmc3NsLmNvbTEgMB4GCSqGSIb3
DQEJARYRZmFjdHNAd29sZnNzbC5jb20wOTATBgcqhkjOPQIBBggqhkjOPQMBBwMi
AAK7M6xMJ1BKxkqlBMM83p8223ItzpTqK/rLIAk5LBboYaOCAVIwggFOMB0GA1Ud
DgQWBBSMODpruCS33270WaxWTqriWKZaGDCB4QYDVR0jBIHZMIHWgBSMODpruCS3
3270WaxWTqriWKZaGKGBp6SBpDCBoTELMAkGA1UEBhMCVVMxEDAOBgNVBAgMB01v
bnRhbmExEDAOBgNVBAcMB0JvemVtYW4xGDAWBgNVBAoMD0VsbGlwdGljIC0gY29t
cDEYMBYGA1UECwwPU2VydmVyIEVDQy1jb21wMRgwFgYDVQQDDA93d3cud29sZnNz
bC5jb20xIDAeBgkqhkiG9w0BCQEWEWZhY3RzQHdvbGZzc2wuY29tghRzE5C/n8+h
/GuSCqksfHQVOe1WUzAMBgNVHRMEBTADAQH/MBwGA1UdEQQVMBOCC2V4YW1wbGUu
Y29thwR/AAABMB0GA1UdJQQWMBQGCCsGAQUFBwMBBggrBgEFBQcDAjAKBggqhkjO
PQQDAgNJADBGAiEA70n4MYgBV6ElgLxL6agoqM9EsT1uSVruL0C43C+U2uMCIQCS
GWZOSpnHYot957TihEnI+YwtVMHSeaqv3HOwoUSgHg==
-----END CERTIFICATE-----
