Certificate:
    Data:
        Version: 3 (0x2)
        Serial Number:
            9a:1a:8c:0a:a5:f3:ff:40
    Signature Algorithm: ecdsa-with-SHA256
        Issuer: C=US, ST=Washington, L=Seattle, O=Eliptic, OU=ECC, CN=www.wolfssl.com/emailAddress=info@wolfssl.com
        Validity
            Not Before: Jul 25 18:56:35 2016 GMT
            Not After : Apr 21 18:56:35 2019 GMT
        Subject: C=US, ST=Washington, L=Seattle, O=Eliptic, OU=ECC, CN=www.wolfssl.com/emailAddress=info@wolfssl.com
        Subject Public Key Info:
            Public Key Algorithm: id-ecPublicKey
                Public-Key: (256 bit)
                pub: 
                    04:bb:33:ac:4c:27:50:4a:c6:4a:a5:04:c3:3c:de:
                    9f:36:db:72:2d:ce:94:ea:2b:fa:cb:20:09:39:2c:
                    16:e8:61:02:e9:af:4d:d3:02:93:9a:31:5b:97:92:
                    21:7f:f0:cf:18:da:91:11:02:34:86:e8:20:58:33:
                    0b:80:34:89:d8
                ASN1 OID: prime256v1
                NIST CURVE: P-256
        X509v3 extensions:
            X509v3 Subject Key Identifier: 
                5D:5D:26:EF:AC:7E:36:F9:9B:76:15:2B:4A:25:02:23:EF:B2:89:30
            X509v3 Authority Key Identifier: 
                keyid:5D:5D:26:EF:AC:7E:36:F9:9B:76:15:2B:4A:25:02:23:EF:B2:89:30
                DirName:/C=US/ST=Washington/L=Seattle/O=Eliptic/OU=ECC/CN=www.wolfssl.com/emailAddress=info@wolfssl.com
                serial:9A:1A:8C:0A:A5:F3:FF:40

            X509v3 Basic Constraints: 
                CA:TRUE
    Signature Algorithm: ecdsa-with-SHA256
         30:44:02:20:09:a3:39:1f:91:7c:61:02:c7:f9:f6:d9:01:9e:
         2d:48:62:af:53:0b:21:d1:d1:1b:e4:f7:05:e2:c8:ed:2a:16:
         02:20:5f:b0:0b:96:d1:eb:0c:f2:d4:51:74:21:ca:dc:ac:b3:
         27:bf:9f:1f:99:fc:1a:22:f2:31:3e:5a:a5:d1:78:24
-----BEGIN CERTIFICATE-----
MIIDDjCCArWgAwIBAgIJAJoajAql8/9AMAoGCCqGSM49BAMCMIGPMQswCQYDVQQG
EwJVUzETMBEGA1UECAwKV2FzaGluZ3RvbjEQMA4GA1UEBwwHU2VhdHRsZTEQMA4G
A1UECgwHRWxpcHRpYzEMMAoGA1UECwwDRUNDMRgwFgYDVQQDDA93d3cud29sZnNz
bC5jb20xHzAdBgkqhkiG9w0BCQEWEGluZm9Ad29sZnNzbC5jb20wHhcNMTYwNzI1
MTg1NjM1WhcNMTkwNDIxMTg1NjM1WjCBjzELMAkGA1UEBhMCVVMxEzARBgNVBAgM
Cldhc2hpbmd0b24xEDAOBgNVBAcMB1NlYXR0bGUxEDAOBgNVBAoMB0VsaXB0aWMx
DDAKBgNVBAsMA0VDQzEYMBYGA1UEAwwPd3d3LndvbGZzc2wuY29tMR8wHQYJKoZI
hvcNAQkBFhBpbmZvQHdvbGZzc2wuY29tMFkwEwYHKoZIzj0CAQYIKoZIzj0DAQcD
QgAEuzOsTCdQSsZKpQTDPN6fNttyLc6U6iv6yyAJOSwW6GEC6a9N0wKTmjFbl5Ih
f/DPGNqREQI0huggWDMLgDSJ2KOB9zCB9DAdBgNVHQ4EFgQUXV0m76x+NvmbdhUr
SiUCI++yiTAwgcQGA1UdIwSBvDCBuYAUXV0m76x+NvmbdhUrSiUCI++yiTChgZWk
gZIwgY8xCzAJBgNVBAYTAlVTMRMwEQYDVQQIDApXYXNoaW5ndG9uMRAwDgYDVQQH
DAdTZWF0dGxlMRAwDgYDVQQKDAdFbGlwdGljMQwwCgYDVQQLDANFQ0MxGDAWBgNV
BAMMD3d3dy53b2xmc3NsLmNvbTEfMB0GCSqGSIb3DQEJARYQaW5mb0B3b2xmc3Ns
LmNvbYIJAJoajAql8/9AMAwGA1UdEwQFMAMBAf8wCgYIKoZIzj0EAwIDRwAwRAIg
CaM5H5F8YQLH+fbZAZ4tSGKvUwsh0dEb5PcF4sjtKhYCIF+wC5bR6wzy1FF0Icrc
rLMnv58fmfwaIvIxPlql0Xgk
-----END CERTIFICATE-----
