Certificate:
    Data:
        Version: 3 (0x2)
        Serial Number: 1 (0x1)
    Signature Algorithm: sha256WithRSAEncryption
        Issuer: C=US, ST=Montana, L=Bozeman, O=Sawtooth, OU=Consulting, CN=www.wolfssl.com/emailAddress=info@wolfssl.com
        Validity
            Not Before: Jul 25 18:56:34 2016 GMT
            Not After : Apr 21 18:56:34 2019 GMT
        Subject: C=US, ST=Montana, L=Bozeman, O=Elliptic - RSAsig, OU=ECC-RSAsig, CN=www.wolfssl.com/emailAddress=info@wolfssl.com
        Subject Public Key Info:
            Public Key Algorithm: id-ecPublicKey
                Public-Key: (256 bit)
                pub: 
                    04:bb:33:ac:4c:27:50:4a:c6:4a:a5:04:c3:3c:de:
                    9f:36:db:72:2d:ce:94:ea:2b:fa:cb:20:09:39:2c:
                    16:e8:61:02:e9:af:4d:d3:02:93:9a:31:5b:97:92:
                    21:7f:f0:cf:18:da:91:11:02:34:86:e8:20:58:33:
                    0b:80:34:89:d8
                ASN1 OID: prime256v1
                NIST CURVE: P-256
        X509v3 extensions:
            X509v3 Subject Key Identifier: 
                5D:5D:26:EF:AC:7E:36:F9:9B:76:15:2B:4A:25:02:23:EF:B2:89:30
            X509v3 Authority Key Identifier: 
                keyid:27:8E:67:11:74:C3:26:1D:3F:ED:33:63:B3:A4:D8:1D:30:E5:E8:D5
                DirName:/C=US/ST=Montana/L=Bozeman/O=Sawtooth/OU=Consulting/CN=www.wolfssl.com/emailAddress=info@wolfssl.com
                serial:AB:7B:54:2B:4A:61:E6:C9

            X509v3 Basic Constraints: 
                CA:TRUE
    Signature Algorithm: sha256WithRSAEncryption
         a1:c6:eb:c0:c2:57:70:88:fd:fe:f7:e5:9e:bd:22:db:2f:49:
         3c:d8:9b:d4:db:1f:e1:0c:90:dc:2a:69:5e:1d:bf:c9:26:13:
         17:40:9f:bc:8e:7e:66:60:2d:dd:ba:15:49:eb:7d:f8:6f:5c:
         76:5f:04:ab:6e:b6:11:5c:35:bd:79:60:e4:fb:ed:66:3c:d5:
         ca:5e:f1:9e:cb:d9:6c:7d:58:3b:88:4d:00:56:35:91:02:6d:
         ed:6f:c0:e5:2f:74:83:8e:d4:af:35:0b:db:9e:e2:99:17:f2:
         09:39:39:3a:f0:ea:d8:c8:7d:16:6b:fa:dc:12:b4:ce:c9:82:
         d8:25:cf:8e:6e:a9:2e:ef:47:ca:fa:df:8e:f9:b7:2b:81:59:
         c3:30:23:a7:45:7d:17:f4:21:d2:eb:a1:d8:0d:d3:97:75:8c:
         fe:1c:4a:44:49:7a:96:82:ee:7c:6f:0f:40:d8:91:b5:89:e3:
         33:d8:60:2a:7f:3e:09:42:aa:b9:d5:f7:4a:f9:86:e3:d4:10:
         ea:c0:37:06:31:2a:49:ca:de:5c:5b:c7:36:20:4e:6f:3a:cc:
         9d:24:bb:f1:6e:c3:68:78:c7:0b:30:c4:8d:b5:43:b0:85:02:
         ae:ac:33:ec:55:b8:f0:cc:8e:68:1f:99:24:fb:bd:fc:4c:40:
         07:a2:7e:f6
-----BEGIN CERTIFICATE-----
MIID4DCCAsigAwIBAgIBATANBgkqhkiG9w0BAQsFADCBlDELMAkGA1UEBhMCVVMx
EDAOBgNVBAgMB01vbnRhbmExEDAOBgNVBAcMB0JvemVtYW4xETAPBgNVBAoMCFNh
d3Rvb3RoMRMwEQYDVQQLDApDb25zdWx0aW5nMRgwFgYDVQQDDA93d3cud29sZnNz
bC5jb20xHzAdBgkqhkiG9w0BCQEWEGluZm9Ad29sZnNzbC5jb20wHhcNMTYwNzI1
MTg1NjM0WhcNMTkwNDIxMTg1NjM0WjCBnTELMAkGA1UEBhMCVVMxEDAOBgNVBAgM
B01vbnRhbmExEDAOBgNVBAcMB0JvemVtYW4xGjAYBgNVBAoMEUVsbGlwdGljIC0g
UlNBc2lnMRMwEQYDVQQLDApFQ0MtUlNBc2lnMRgwFgYDVQQDDA93d3cud29sZnNz
bC5jb20xHzAdBgkqhkiG9w0BCQEWEGluZm9Ad29sZnNzbC5jb20wWTATBgcqhkjO
PQIBBggqhkjOPQMBBwNCAAS7M6xMJ1BKxkqlBMM83p8223ItzpTqK/rLIAk5LBbo
YQLpr03TApOaMVuXkiF/8M8Y2pERAjSG6CBYMwuANInYo4H8MIH5MB0GA1UdDgQW
BBRdXSbvrH42+Zt2FStKJQIj77KJMDCByQYDVR0jBIHBMIG+gBQnjmcRdMMmHT/t
M2OzpNgdMOXo1aGBmqSBlzCBlDELMAkGA1UEBhMCVVMxEDAOBgNVBAgMB01vbnRh
bmExEDAOBgNVBAcMB0JvemVtYW4xETAPBgNVBAoMCFNhd3Rvb3RoMRMwEQYDVQQL
DApDb25zdWx0aW5nMRgwFgYDVQQDDA93d3cud29sZnNzbC5jb20xHzAdBgkqhkiG
9w0BCQEWEGluZm9Ad29sZnNzbC5jb22CCQCre1QrSmHmyTAMBgNVHRMEBTADAQH/
MA0GCSqGSIb3DQEBCwUAA4IBAQChxuvAwldwiP3+9+WevSLbL0k82JvU2x/hDJDc
KmleHb/JJhMXQJ+8jn5mYC3duhVJ6334b1x2XwSrbrYRXDW9eWDk++1mPNXKXvGe
y9lsfVg7iE0AVjWRAm3tb8DlL3SDjtSvNQvbnuKZF/IJOTk68OrYyH0Wa/rcErTO
yYLYJc+Obqku70fK+t+O+bcrgVnDMCOnRX0X9CHS66HYDdOXdYz+HEpESXqWgu58
bw9A2JG1ieMz2GAqfz4JQqq51fdK+Ybj1BDqwDcGMSpJyt5cW8c2IE5vOsydJLvx
bsNoeMcLMMSNtUOwhQKurDPsVbjwzI5oH5kk+738TEAHon72
-----END CERTIFICATE-----
