Certificate:
    Data:
        Version: 3 (0x2)
        Serial Number:
            18:82:0b:8b:22:0a:6f:2d:5b:ec:eb:f4:cf:52:cc:8b:95:ab:d0:1f
        Signature Algorithm: ecdsa-with-SHA256
        Issuer: C = US, ST = Washington, L = Seattle, O = Eliptic, OU = ECC, CN = www.wolfssl.com, emailAddress = info@wolfssl.com
        Validity
            Not Before: Feb 15 12:50:24 2022 GMT
            Not After : Feb 13 12:50:24 2032 GMT
        Subject: C = US, ST = Washington, L = Seattle, O = Eliptic, OU = ECC, CN = www.wolfssl.com, emailAddress = info@wolfssl.com
        Subject Public Key Info:
            Public Key Algorithm: id-ecPublicKey
                Public-Key: (256 bit)
                pub:
                    04:bb:33:ac:4c:27:50:4a:c6:4a:a5:04:c3:3c:de:
                    9f:36:db:72:2d:ce:94:ea:2b:fa:cb:20:09:39:2c:
                    16:e8:61:02:e9:af:4d:d3:02:93:9a:31:5b:97:92:
                    21:7f:f0:cf:18:da:91:11:02:34:86:e8:20:58:33:
                    0b:80:34:89:d8
                ASN1 OID: prime256v1
                NIST CURVE: P-256
        X509v3 extensions:
            X509v3 Basic Constraints: 
                CA:FALSE
            Netscape Cert Type: 
                SSL Server
            X509v3 Subject Key Identifier: 
                5D:5D:26:EF:AC:7E:36:F9:9B:76:15:2B:4A:25:02:23:EF:B2:89:30
            X509v3 Authority Key Identifier: 
                keyid:5D:5D:26:EF:AC:7E:36:F9:9B:76:15:2B:4A:25:02:23:EF:B2:89:30
                DirName:/C=US/ST=Washington/L=Seattle/O=Eliptic/OU=ECC/CN=www.wolfssl.com/emailAddress=info@wolfssl.com
                serial:18:82:0B:8B:22:0A:6F:2D:5B:EC:EB:F4:CF:52:CC:8B:95:AB:D0:1F

            X509v3 Key Usage: critical
                Digital Signature, Key Encipherment, Key Agreement
            X509v3 Extended Key Usage: 
                TLS Web Server Authentication
    Signature Algorithm: ecdsa-with-SHA256
         30:45:02:21:00:8b:99:39:3f:80:89:73:c2:3e:cd:3e:90:50:
         b4:ff:0f:3e:c4:c1:bf:ff:07:cb:b2:c3:cd:8b:80:d2:0b:67:
         62:02:20:2a:82:ba:09:71:20:22:ad:cb:f7:74:2a:53:c3:c8:
         29:36:d5:00:5f:85:f5:c8:c0:ae:aa:9e:96:08:6e:c7:bb
-----BEGIN CERTIFICATE-----
MIIDXDCCAwKgAwIBAgIUGIILiyIKby1b7Ov0z1LMi5Wr0B8wCgYIKoZIzj0EAwIw
gY8xCzAJBgNVBAYTAlVTMRMwEQYDVQQIDApXYXNoaW5ndG9uMRAwDgYDVQQHDAdT
ZWF0dGxlMRAwDgYDVQQKDAdFbGlwdGljMQwwCgYDVQQLDANFQ0MxGDAWBgNVBAMM
D3d3dy53b2xmc3NsLmNvbTEfMB0GCSqGSIb3DQEJARYQaW5mb0B3b2xmc3NsLmNv
bTAeFw0yMjAyMTUxMjUwMjRaFw0zMjAyMTMxMjUwMjRaMIGPMQswCQYDVQQGEwJV
UzETMBEGA1UECAwKV2FzaGluZ3RvbjEQMA4GA1UEBwwHU2VhdHRsZTEQMA4GA1UE
CgwHRWxpcHRpYzEMMAoGA1UECwwDRUNDMRgwFgYDVQQDDA93d3cud29sZnNzbC5j
b20xHzAdBgkqhkiG9w0BCQEWEGluZm9Ad29sZnNzbC5jb20wWTATBgcqhkjOPQIB
BggqhkjOPQMBBwNCAAS7M6xMJ1BKxkqlBMM83p8223ItzpTqK/rLIAk5LBboYQLp
r03TApOaMVuXkiF/8M8Y2pERAjSG6CBYMwuANInYo4IBODCCATQwCQYDVR0TBAIw
ADARBglghkgBhvhCAQEEBAMCBkAwHQYDVR0OBBYEFF1dJu+sfjb5m3YVK0olAiPv
sokwMIHPBgNVHSMEgccwgcSAFF1dJu+sfjb5m3YVK0olAiPvsokwoYGVpIGSMIGP
MQswCQYDVQQGEwJVUzETMBEGA1UECAwKV2FzaGluZ3RvbjEQMA4GA1UEBwwHU2Vh
dHRsZTEQMA4GA1UECgwHRWxpcHRpYzEMMAoGA1UECwwDRUNDMRgwFgYDVQQDDA93
d3cud29sZnNzbC5jb20xHzAdBgkqhkiG9w0BCQEWEGluZm9Ad29sZnNzbC5jb22C
FBiCC4siCm8tW+zr9M9SzIuVq9AfMA4GA1UdDwEB/wQEAwIDqDATBgNVHSUEDDAK
BggrBgEFBQcDATAKBggqhkjOPQQDAgNIADBFAiEAi5k5P4CJc8I+zT6QULT/Dz7E
wb//B8uyw82LgNILZ2ICICqCuglxICKty/d0KlPDyCk21QBfhfXIwK6qnpYIbse7
-----END CERTIFICATE-----
