Certificate:
    Data:
        Version: 3 (0x2)
        Serial Number:
            29:74:77:ee:40:f1:03:bc:b3:d0:b6:01:1d:f5:56:4a:c5:cc:7b:04
        Signature Algorithm: ecdsa-with-SHA256
        Issuer: C = US, ST = Montana, L = Bozeman, O = Elliptic - comp, OU = Server ECC-comp, CN = www.wolfssl.com, emailAddress = info@wolfssl.com
        Validity
            Not Before: Dec 20 23:07:25 2021 GMT
            Not After : Sep 15 23:07:25 2024 GMT
        Subject: C = US, ST = Montana, L = Bozeman, O = Elliptic - comp, OU = Server ECC-comp, CN = www.wolfssl.com, emailAddress = info@wolfssl.com
        Subject Public Key Info:
            Public Key Algorithm: id-ecPublicKey
                Public-Key: (256 bit)
                pub:
                    02:bb:33:ac:4c:27:50:4a:c6:4a:a5:04:c3:3c:de:
                    9f:36:db:72:2d:ce:94:ea:2b:fa:cb:20:09:39:2c:
                    16:e8:61
                ASN1 OID: prime256v1
                NIST CURVE: P-256
        X509v3 extensions:
            X509v3 Subject Key Identifier: 
                8C:38:3A:6B:B8:24:B7:DF:6E:F4:59:AC:56:4E:AA:E2:58:A6:5A:18
            X509v3 Authority Key Identifier: 
                keyid:8C:38:3A:6B:B8:24:B7:DF:6E:F4:59:AC:56:4E:AA:E2:58:A6:5A:18
                DirName:/C=US/ST=Montana/L=Bozeman/O=Elliptic - comp/OU=Server ECC-comp/CN=www.wolfssl.com/emailAddress=info@wolfssl.com
                serial:29:74:77:EE:40:F1:03:BC:B3:D0:B6:01:1D:F5:56:4A:C5:CC:7B:04

            X509v3 Basic Constraints: 
                CA:TRUE
            X509v3 Subject Alternative Name: 
                DNS:example.com, IP Address:127.0.0.1
            X509v3 Extended Key Usage: 
                TLS Web Server Authentication, TLS Web Client Authentication
    Signature Algorithm: ecdsa-with-SHA256
         30:46:02:21:00:ed:07:48:d5:31:e3:1f:80:6a:ce:a9:aa:6d:
         ac:a3:f9:d4:46:b8:3e:19:5e:11:d7:21:8f:dc:25:dd:6a:7b:
         58:02:21:00:84:53:e6:f0:18:0a:84:29:d2:ad:34:b2:7c:0b:
         90:33:fb:b0:41:51:69:cc:08:97:a2:38:f8:21:31:32:c6:c1
-----BEGIN CERTIFICATE-----
MIIDeDCCAx2gAwIBAgIUKXR37kDxA7yz0LYBHfVWSsXMewQwCgYIKoZIzj0EAwIw
gaAxCzAJBgNVBAYTAlVTMRAwDgYDVQQIDAdNb250YW5hMRAwDgYDVQQHDAdCb3pl
bWFuMRgwFgYDVQQKDA9FbGxpcHRpYyAtIGNvbXAxGDAWBgNVBAsMD1NlcnZlciBF
Q0MtY29tcDEYMBYGA1UEAwwPd3d3LndvbGZzc2wuY29tMR8wHQYJKoZIhvcNAQkB
FhBpbmZvQHdvbGZzc2wuY29tMB4XDTIxMTIyMDIzMDcyNVoXDTI0MDkxNTIzMDcy
NVowgaAxCzAJBgNVBAYTAlVTMRAwDgYDVQQIDAdNb250YW5hMRAwDgYDVQQHDAdC
b3plbWFuMRgwFgYDVQQKDA9FbGxpcHRpYyAtIGNvbXAxGDAWBgNVBAsMD1NlcnZl
ciBFQ0MtY29tcDEYMBYGA1UEAwwPd3d3LndvbGZzc2wuY29tMR8wHQYJKoZIhvcN
AQkBFhBpbmZvQHdvbGZzc2wuY29tMDkwEwYHKoZIzj0CAQYIKoZIzj0DAQcDIgAC
uzOsTCdQSsZKpQTDPN6fNttyLc6U6iv6yyAJOSwW6GGjggFRMIIBTTAdBgNVHQ4E
FgQUjDg6a7gkt99u9FmsVk6q4limWhgwgeAGA1UdIwSB2DCB1YAUjDg6a7gkt99u
9FmsVk6q4limWhihgaakgaMwgaAxCzAJBgNVBAYTAlVTMRAwDgYDVQQIDAdNb250
YW5hMRAwDgYDVQQHDAdCb3plbWFuMRgwFgYDVQQKDA9FbGxpcHRpYyAtIGNvbXAx
GDAWBgNVBAsMD1NlcnZlciBFQ0MtY29tcDEYMBYGA1UEAwwPd3d3LndvbGZzc2wu
Y29tMR8wHQYJKoZIhvcNAQkBFhBpbmZvQHdvbGZzc2wuY29tghQpdHfuQPEDvLPQ
tgEd9VZKxcx7BDAMBgNVHRMEBTADAQH/MBwGA1UdEQQVMBOCC2V4YW1wbGUuY29t
hwR/AAABMB0GA1UdJQQWMBQGCCsGAQUFBwMBBggrBgEFBQcDAjAKBggqhkjOPQQD
AgNJADBGAiEA7QdI1THjH4Bqzqmqbayj+dRGuD4ZXhHXIY/cJd1qe1gCIQCEU+bw
GAqEKdKtNLJ8C5Az+7BBUWnMCJeiOPghMTLGwQ==
-----END CERTIFICATE-----
