Certificate:
    Data:
        Version: 3 (0x2)
        Serial Number:
            0c:33:75:68:ff:2e:13:4a:2a:30:56:b4:a8:79:14:e2:c4:ca:61:54
        Signature Algorithm: ecdsa-with-SHA256
        Issuer: C = US, ST = Montana, L = Bozeman, O = Elliptic - comp, OU = Server ECC-comp, CN = www.wolfssl.com, emailAddress = info@wolfssl.com
        Validity
            Not Before: Dec 18 21:25:30 2024 GMT
            Not After : Sep 14 21:25:30 2027 GMT
        Subject: C = US, ST = Montana, L = Bozeman, O = Elliptic - comp, OU = Server ECC-comp, CN = www.wolfssl.com, emailAddress = info@wolfssl.com
        Subject Public Key Info:
            Public Key Algorithm: id-ecPublicKey
                Public-Key: (256 bit)
                pub:
                    02:bb:33:ac:4c:27:50:4a:c6:4a:a5:04:c3:3c:de:
                    9f:36:db:72:2d:ce:94:ea:2b:fa:cb:20:09:39:2c:
                    16:e8:61
                ASN1 OID: prime256v1
                NIST CURVE: P-256
        X509v3 extensions:
            X509v3 Subject Key Identifier: 
                8C:38:3A:6B:B8:24:B7:DF:6E:F4:59:AC:56:4E:AA:E2:58:A6:5A:18
            X509v3 Authority Key Identifier: 
                keyid:8C:38:3A:6B:B8:24:B7:DF:6E:F4:59:AC:56:4E:AA:E2:58:A6:5A:18
                DirName:/C=US/ST=Montana/L=Bozeman/O=Elliptic - comp/OU=Server ECC-comp/CN=www.wolfssl.com/emailAddress=info@wolfssl.com
                serial:0C:33:75:68:FF:2E:13:4A:2A:30:56:B4:A8:79:14:E2:C4:CA:61:54
            X509v3 Basic Constraints: 
                CA:TRUE
            X509v3 Subject Alternative Name: 
                DNS:example.com, IP Address:127.0.0.1
            X509v3 Extended Key Usage: 
                TLS Web Server Authentication, TLS Web Client Authentication
    Signature Algorithm: ecdsa-with-SHA256
    Signature Value:
        30:45:02:20:23:d1:f6:8f:d4:29:83:27:8f:4a:8e:49:44:49:
        32:1c:12:e4:c1:33:b1:97:2b:31:cd:62:47:cb:b6:d0:eb:4d:
        02:21:00:e0:6e:dc:48:70:aa:10:b2:74:d1:88:da:f1:3f:d9:
        d7:e9:e4:88:e5:91:00:03:c1:0c:1f:54:a0:ca:4d:99:6a
-----BEGIN CERTIFICATE-----
MIIDdzCCAx2gAwIBAgIUDDN1aP8uE0oqMFa0qHkU4sTKYVQwCgYIKoZIzj0EAwIw
gaAxCzAJBgNVBAYTAlVTMRAwDgYDVQQIDAdNb250YW5hMRAwDgYDVQQHDAdCb3pl
bWFuMRgwFgYDVQQKDA9FbGxpcHRpYyAtIGNvbXAxGDAWBgNVBAsMD1NlcnZlciBF
Q0MtY29tcDEYMBYGA1UEAwwPd3d3LndvbGZzc2wuY29tMR8wHQYJKoZIhvcNAQkB
FhBpbmZvQHdvbGZzc2wuY29tMB4XDTI0MTIxODIxMjUzMFoXDTI3MDkxNDIxMjUz
MFowgaAxCzAJBgNVBAYTAlVTMRAwDgYDVQQIDAdNb250YW5hMRAwDgYDVQQHDAdC
b3plbWFuMRgwFgYDVQQKDA9FbGxpcHRpYyAtIGNvbXAxGDAWBgNVBAsMD1NlcnZl
ciBFQ0MtY29tcDEYMBYGA1UEAwwPd3d3LndvbGZzc2wuY29tMR8wHQYJKoZIhvcN
AQkBFhBpbmZvQHdvbGZzc2wuY29tMDkwEwYHKoZIzj0CAQYIKoZIzj0DAQcDIgAC
uzOsTCdQSsZKpQTDPN6fNttyLc6U6iv6yyAJOSwW6GGjggFRMIIBTTAdBgNVHQ4E
FgQUjDg6a7gkt99u9FmsVk6q4limWhgwgeAGA1UdIwSB2DCB1YAUjDg6a7gkt99u
9FmsVk6q4limWhihgaakgaMwgaAxCzAJBgNVBAYTAlVTMRAwDgYDVQQIDAdNb250
YW5hMRAwDgYDVQQHDAdCb3plbWFuMRgwFgYDVQQKDA9FbGxpcHRpYyAtIGNvbXAx
GDAWBgNVBAsMD1NlcnZlciBFQ0MtY29tcDEYMBYGA1UEAwwPd3d3LndvbGZzc2wu
Y29tMR8wHQYJKoZIhvcNAQkBFhBpbmZvQHdvbGZzc2wuY29tghQMM3Vo/y4TSiow
VrSoeRTixMphVDAMBgNVHRMEBTADAQH/MBwGA1UdEQQVMBOCC2V4YW1wbGUuY29t
hwR/AAABMB0GA1UdJQQWMBQGCCsGAQUFBwMBBggrBgEFBQcDAjAKBggqhkjOPQQD
AgNIADBFAiAj0faP1CmDJ49KjklESTIcEuTBM7GXKzHNYkfLttDrTQIhAOBu3Ehw
qhCydNGI2vE/2dfp5IjlkQADwQwfVKDKTZlq
-----END CERTIFICATE-----
