Certificate:
    Data:
        Version: 3 (0x2)
        Serial Number:
            54:4a:e3:08:88:d6:48:90:35:06:9d:4f:e6:82:52:0b:7d:bd:b7:08
        Signature Algorithm: ecdsa-with-SHA256
        Issuer: C = US, ST = Washington, L = Seattle, O = Elliptic, OU = ECC, CN = www.wolfssl.com, emailAddress = info@wolfssl.com
        Validity
            Not Before: Sep 26 17:22:42 2023 GMT
            Not After : Sep 23 17:22:42 2033 GMT
        Subject: C = US, ST = Washington, L = Seattle, O = Elliptic, OU = ECC, CN = www.wolfssl.com, emailAddress = info@wolfssl.com
        Subject Public Key Info:
            Public Key Algorithm: id-ecPublicKey
                Public-Key: (256 bit)
                pub:
                    04:bb:33:ac:4c:27:50:4a:c6:4a:a5:04:c3:3c:de:
                    9f:36:db:72:2d:ce:94:ea:2b:fa:cb:20:09:39:2c:
                    16:e8:61:02:e9:af:4d:d3:02:93:9a:31:5b:97:92:
                    21:7f:f0:cf:18:da:91:11:02:34:86:e8:20:58:33:
                    0b:80:34:89:d8
                ASN1 OID: prime256v1
                NIST CURVE: P-256
        X509v3 extensions:
            X509v3 Basic Constraints: 
                CA:FALSE
            Netscape Cert Type: 
                SSL Server
            X509v3 Subject Key Identifier: 
                5D:5D:26:EF:AC:7E:36:F9:9B:76:15:2B:4A:25:02:23:EF:B2:89:30
            X509v3 Authority Key Identifier: 
                DirName:/C=US/ST=Washington/L=Seattle/O=Elliptic/OU=ECC/CN=www.wolfssl.com/emailAddress=info@wolfssl.com
                serial:54:4A:E3:08:88:D6:48:90:35:06:9D:4F:E6:82:52:0B:7D:BD:B7:08
            X509v3 Key Usage: critical
                Digital Signature, Key Encipherment, Key Agreement
            X509v3 Extended Key Usage: 
                TLS Web Server Authentication
    Signature Algorithm: ecdsa-with-SHA256
    Signature Value:
        30:45:02:20:44:c4:12:e6:5d:52:d1:31:0d:d6:33:f0:e4:bb:
        0e:8e:02:94:d1:75:62:23:82:4f:e5:43:0e:36:9c:51:fb:da:
        02:21:00:8c:42:7a:dd:53:f6:a5:cc:60:1d:d8:24:66:1f:ff:
        79:cb:ce:23:a5:d5:bd:4b:07:ae:91:32:b4:ee:b8:e0:16
-----BEGIN CERTIFICATE-----
MIIDSTCCAu+gAwIBAgIUVErjCIjWSJA1Bp1P5oJSC329twgwCgYIKoZIzj0EAwIw
gZAxCzAJBgNVBAYTAlVTMRMwEQYDVQQIDApXYXNoaW5ndG9uMRAwDgYDVQQHDAdT
ZWF0dGxlMREwDwYDVQQKDAhFbGxpcHRpYzEMMAoGA1UECwwDRUNDMRgwFgYDVQQD
DA93d3cud29sZnNzbC5jb20xHzAdBgkqhkiG9w0BCQEWEGluZm9Ad29sZnNzbC5j
b20wHhcNMjMwOTI2MTcyMjQyWhcNMzMwOTIzMTcyMjQyWjCBkDELMAkGA1UEBhMC
VVMxEzARBgNVBAgMCldhc2hpbmd0b24xEDAOBgNVBAcMB1NlYXR0bGUxETAPBgNV
BAoMCEVsbGlwdGljMQwwCgYDVQQLDANFQ0MxGDAWBgNVBAMMD3d3dy53b2xmc3Ns
LmNvbTEfMB0GCSqGSIb3DQEJARYQaW5mb0B3b2xmc3NsLmNvbTBZMBMGByqGSM49
AgEGCCqGSM49AwEHA0IABLszrEwnUErGSqUEwzzenzbbci3OlOor+ssgCTksFuhh
AumvTdMCk5oxW5eSIX/wzxjakRECNIboIFgzC4A0idijggEjMIIBHzAJBgNVHRME
AjAAMBEGCWCGSAGG+EIBAQQEAwIGQDAdBgNVHQ4EFgQUXV0m76x+NvmbdhUrSiUC
I++yiTAwgboGA1UdIwSBsjCBr6GBlqSBkzCBkDELMAkGA1UEBhMCVVMxEzARBgNV
BAgMCldhc2hpbmd0b24xEDAOBgNVBAcMB1NlYXR0bGUxETAPBgNVBAoMCEVsbGlw
dGljMQwwCgYDVQQLDANFQ0MxGDAWBgNVBAMMD3d3dy53b2xmc3NsLmNvbTEfMB0G
CSqGSIb3DQEJARYQaW5mb0B3b2xmc3NsLmNvbYIUVErjCIjWSJA1Bp1P5oJSC329
twgwDgYDVR0PAQH/BAQDAgOoMBMGA1UdJQQMMAoGCCsGAQUFBwMBMAoGCCqGSM49
BAMCA0gAMEUCIETEEuZdUtExDdYz8OS7Do4ClNF1YiOCT+VDDjacUfvaAiEAjEJ6
3VP2pcxgHdgkZh//ecvOI6XVvUsHrpEytO644BY=
-----END CERTIFICATE-----
