Certificate:
    Data:
        Version: 3 (0x2)
        Serial Number: 1 (0x1)
    Signature Algorithm: sha256WithRSAEncryption
        Issuer: C=US, ST=Montana, L=Bozeman, O=Sawtooth, OU=Consulting, CN=www.wolfssl.com/emailAddress=info@wolfssl.com
        Validity
            Not Before: Nov 23 12:49:37 2015 GMT
            Not After : Aug 19 12:49:37 2018 GMT
        Subject: C=US, ST=Montana, L=Bozeman, O=wolfSSL, OU=Support, CN=www.wolfssl.com/emailAddress=info@wolfssl.com
        Subject Public Key Info:
            Public Key Algorithm: rsaEncryption
                Public-Key: (2048 bit)
                Modulus:
                    00:c0:95:08:e1:57:41:f2:71:6d:b7:d2:45:41:27:
                    01:65:c6:45:ae:f2:bc:24:30:b8:95:ce:2f:4e:d6:
                    f6:1c:88:bc:7c:9f:fb:a8:67:7f:fe:5c:9c:51:75:
                    f7:8a:ca:07:e7:35:2f:8f:e1:bd:7b:c0:2f:7c:ab:
                    64:a8:17:fc:ca:5d:7b:ba:e0:21:e5:72:2e:6f:2e:
                    86:d8:95:73:da:ac:1b:53:b9:5f:3f:d7:19:0d:25:
                    4f:e1:63:63:51:8b:0b:64:3f:ad:43:b8:a5:1c:5c:
                    34:b3:ae:00:a0:63:c5:f6:7f:0b:59:68:78:73:a6:
                    8c:18:a9:02:6d:af:c3:19:01:2e:b8:10:e3:c6:cc:
                    40:b4:69:a3:46:33:69:87:6e:c4:bb:17:a6:f3:e8:
                    dd:ad:73:bc:7b:2f:21:b5:fd:66:51:0c:bd:54:b3:
                    e1:6d:5f:1c:bc:23:73:d1:09:03:89:14:d2:10:b9:
                    64:c3:2a:d0:a1:96:4a:bc:e1:d4:1a:5b:c7:a0:c0:
                    c1:63:78:0f:44:37:30:32:96:80:32:23:95:a1:77:
                    ba:13:d2:97:73:e2:5d:25:c9:6a:0d:c3:39:60:a4:
                    b4:b0:69:42:42:09:e9:d8:08:bc:33:20:b3:58:22:
                    a7:aa:eb:c4:e1:e6:61:83:c5:d2:96:df:d9:d0:4f:
                    ad:d7
                Exponent: 65537 (0x10001)
        X509v3 extensions:
            X509v3 Subject Key Identifier: 
                B3:11:32:C9:92:98:84:E2:C9:F8:D0:3B:6E:03:42:CA:1F:0E:8E:3C
            X509v3 Authority Key Identifier: 
                keyid:27:8E:67:11:74:C3:26:1D:3F:ED:33:63:B3:A4:D8:1D:30:E5:E8:D5
                DirName:/C=US/ST=Montana/L=Bozeman/O=Sawtooth/OU=Consulting/CN=www.wolfssl.com/emailAddress=info@wolfssl.com
                serial:A6:66:38:49:45:9B:DC:81

            X509v3 Basic Constraints: 
                CA:TRUE
            Authority Information Access: 
                OCSP - URI:http://localhost:22222

    Signature Algorithm: sha256WithRSAEncryption
         71:17:8f:6f:7d:d6:11:01:79:ac:e9:c2:fb:71:69:6b:0c:64:
         91:c1:32:8b:9c:62:72:b5:62:bb:f8:cf:6c:27:df:f0:64:d6:
         4a:55:4f:7f:4a:8b:7b:80:5b:3c:a0:31:b0:25:92:02:02:9c:
         99:a5:8e:0c:61:ef:b4:1e:01:2e:1c:e9:9c:59:2d:ef:6e:03:
         4d:f1:59:e5:5f:69:66:5c:0a:e6:cd:f6:74:20:86:4c:f6:8f:
         22:86:68:7e:fe:67:3f:3d:19:b8:61:ef:c5:a5:58:a8:2a:ce:
         d3:2c:a7:1b:dd:c8:59:c7:e7:cf:42:42:db:af:fe:15:82:c9:
         e5:53:fa:b4:37:55:67:47:0f:e7:24:88:14:a3:6c:be:5f:72:
         05:5f:56:33:aa:7f:ac:2e:10:92:b7:a2:f9:c1:62:0c:3b:0c:
         69:9a:71:15:11:bc:37:bf:8e:23:14:c2:b1:0d:df:89:45:1e:
         df:14:e8:95:35:88:27:a8:ab:dd:7c:23:3f:bb:fe:4e:0e:ea:
         a6:ee:f5:77:fb:aa:b8:28:33:f9:61:b0:d2:79:46:a4:ba:a0:
         90:c8:e7:96:8f:27:e9:1e:d0:92:43:bb:84:c7:f3:28:0c:41:
         aa:77:39:65:aa:0d:02:b0:e0:4d:b1:17:41:c9:f0:d4:47:87:
         fb:0f:f0:40
-----BEGIN CERTIFICATE-----
MIIE1DCCA7ygAwIBAgIBATANBgkqhkiG9w0BAQsFADCBlDELMAkGA1UEBhMCVVMx
EDAOBgNVBAgMB01vbnRhbmExEDAOBgNVBAcMB0JvemVtYW4xETAPBgNVBAoMCFNh
d3Rvb3RoMRMwEQYDVQQLDApDb25zdWx0aW5nMRgwFgYDVQQDDA93d3cud29sZnNz
bC5jb20xHzAdBgkqhkiG9w0BCQEWEGluZm9Ad29sZnNzbC5jb20wHhcNMTUxMTIz
MTI0OTM3WhcNMTgwODE5MTI0OTM3WjCBkDELMAkGA1UEBhMCVVMxEDAOBgNVBAgM
B01vbnRhbmExEDAOBgNVBAcMB0JvemVtYW4xEDAOBgNVBAoMB3dvbGZTU0wxEDAO
BgNVBAsMB1N1cHBvcnQxGDAWBgNVBAMMD3d3dy53b2xmc3NsLmNvbTEfMB0GCSqG
SIb3DQEJARYQaW5mb0B3b2xmc3NsLmNvbTCCASIwDQYJKoZIhvcNAQEBBQADggEP
ADCCAQoCggEBAMCVCOFXQfJxbbfSRUEnAWXGRa7yvCQwuJXOL07W9hyIvHyf+6hn
f/5cnFF194rKB+c1L4/hvXvAL3yrZKgX/Mpde7rgIeVyLm8uhtiVc9qsG1O5Xz/X
GQ0lT+FjY1GLC2Q/rUO4pRxcNLOuAKBjxfZ/C1loeHOmjBipAm2vwxkBLrgQ48bM
QLRpo0YzaYduxLsXpvPo3a1zvHsvIbX9ZlEMvVSz4W1fHLwjc9EJA4kU0hC5ZMMq
0KGWSrzh1Bpbx6DAwWN4D0Q3MDKWgDIjlaF3uhPSl3PiXSXJag3DOWCktLBpQkIJ
6dgIvDMgs1gip6rrxOHmYYPF0pbf2dBPrdcCAwEAAaOCATEwggEtMB0GA1UdDgQW
BBSzETLJkpiE4sn40DtuA0LKHw6OPDCByQYDVR0jBIHBMIG+gBQnjmcRdMMmHT/t
M2OzpNgdMOXo1aGBmqSBlzCBlDELMAkGA1UEBhMCVVMxEDAOBgNVBAgMB01vbnRh
bmExEDAOBgNVBAcMB0JvemVtYW4xETAPBgNVBAoMCFNhd3Rvb3RoMRMwEQYDVQQL
DApDb25zdWx0aW5nMRgwFgYDVQQDDA93d3cud29sZnNzbC5jb20xHzAdBgkqhkiG
9w0BCQEWEGluZm9Ad29sZnNzbC5jb22CCQCmZjhJRZvcgTAMBgNVHRMEBTADAQH/
MDIGCCsGAQUFBwEBBCYwJDAiBggrBgEFBQcwAYYWaHR0cDovL2xvY2FsaG9zdDoy
MjIyMjANBgkqhkiG9w0BAQsFAAOCAQEAcRePb33WEQF5rOnC+3FpawxkkcEyi5xi
crViu/jPbCff8GTWSlVPf0qLe4BbPKAxsCWSAgKcmaWODGHvtB4BLhzpnFkt724D
TfFZ5V9pZlwK5s32dCCGTPaPIoZofv5nPz0ZuGHvxaVYqCrO0yynG93IWcfnz0JC
26/+FYLJ5VP6tDdVZ0cP5ySIFKNsvl9yBV9WM6p/rC4Qkrei+cFiDDsMaZpxFRG8
N7+OIxTCsQ3fiUUe3xTolTWIJ6ir3XwjP7v+Tg7qpu71d/uquCgz+WGw0nlGpLqg
kMjnlo8n6R7QkkO7hMfzKAxBqnc5ZaoNArDgTbEXQcnw1EeH+w/wQA==
-----END CERTIFICATE-----
Certificate:
    Data:
        Version: 3 (0x2)
        Serial Number: 11990332945272134785 (0xa6663849459bdc81)
    Signature Algorithm: sha256WithRSAEncryption
        Issuer: C=US, ST=Montana, L=Bozeman, O=Sawtooth, OU=Consulting, CN=www.wolfssl.com/emailAddress=info@wolfssl.com
        Validity
            Not Before: Nov 23 12:49:37 2015 GMT
            Not After : Aug 19 12:49:37 2018 GMT
        Subject: C=US, ST=Montana, L=Bozeman, O=Sawtooth, OU=Consulting, CN=www.wolfssl.com/emailAddress=info@wolfssl.com
        Subject Public Key Info:
            Public Key Algorithm: rsaEncryption
                Public-Key: (2048 bit)
                Modulus:
                    00:bf:0c:ca:2d:14:b2:1e:84:42:5b:cd:38:1f:4a:
                    f2:4d:75:10:f1:b6:35:9f:df:ca:7d:03:98:d3:ac:
                    de:03:66:ee:2a:f1:d8:b0:7d:6e:07:54:0b:10:98:
                    21:4d:80:cb:12:20:e7:cc:4f:de:45:7d:c9:72:77:
                    32:ea:ca:90:bb:69:52:10:03:2f:a8:f3:95:c5:f1:
                    8b:62:56:1b:ef:67:6f:a4:10:41:95:ad:0a:9b:e3:
                    a5:c0:b0:d2:70:76:50:30:5b:a8:e8:08:2c:7c:ed:
                    a7:a2:7a:8d:38:29:1c:ac:c7:ed:f2:7c:95:b0:95:
                    82:7d:49:5c:38:cd:77:25:ef:bd:80:75:53:94:3c:
                    3d:ca:63:5b:9f:15:b5:d3:1d:13:2f:19:d1:3c:db:
                    76:3a:cc:b8:7d:c9:e5:c2:d7:da:40:6f:d8:21:dc:
                    73:1b:42:2d:53:9c:fe:1a:fc:7d:ab:7a:36:3f:98:
                    de:84:7c:05:67:ce:6a:14:38:87:a9:f1:8c:b5:68:
                    cb:68:7f:71:20:2b:f5:a0:63:f5:56:2f:a3:26:d2:
                    b7:6f:b1:5a:17:d7:38:99:08:fe:93:58:6f:fe:c3:
                    13:49:08:16:0b:a7:4d:67:00:52:31:67:23:4e:98:
                    ed:51:45:1d:b9:04:d9:0b:ec:d8:28:b3:4b:bd:ed:
                    36:79
                Exponent: 65537 (0x10001)
        X509v3 extensions:
            X509v3 Subject Key Identifier: 
                27:8E:67:11:74:C3:26:1D:3F:ED:33:63:B3:A4:D8:1D:30:E5:E8:D5
            X509v3 Authority Key Identifier: 
                keyid:27:8E:67:11:74:C3:26:1D:3F:ED:33:63:B3:A4:D8:1D:30:E5:E8:D5
                DirName:/C=US/ST=Montana/L=Bozeman/O=Sawtooth/OU=Consulting/CN=www.wolfssl.com/emailAddress=info@wolfssl.com
                serial:A6:66:38:49:45:9B:DC:81

            X509v3 Basic Constraints: 
                CA:TRUE
            Authority Information Access: 
                OCSP - URI:http://localhost:22222

    Signature Algorithm: sha256WithRSAEncryption
         41:8f:fb:6b:65:6b:36:f2:56:4f:0c:48:b0:4d:8c:c2:cb:d6:
         58:7a:83:3a:30:7d:62:7b:86:f1:15:26:b3:26:02:77:f2:c8:
         57:e5:1e:60:68:8b:a4:e8:f3:a8:b2:88:a4:2f:e8:6e:25:8d:
         6b:dc:53:ab:2f:d3:47:8c:d6:27:ab:39:bc:d3:ca:d8:01:96:
         a4:44:57:38:93:ab:c3:f3:95:67:7f:cf:25:1d:b7:04:dc:06:
         c9:5d:24:c1:54:13:71:81:21:31:ee:9f:b4:9d:ce:98:66:a4:
         a0:77:c1:88:18:a4:d1:36:ee:cd:d8:c1:1b:bc:03:d6:85:9a:
         2e:21:82:95:4c:b2:2a:fe:69:db:ac:e4:97:e1:e9:0e:f1:d3:
         ef:20:86:03:01:66:6b:f0:26:0f:39:04:26:f5:42:98:3f:95:
         48:5f:b5:5d:bc:49:4c:81:38:d5:e9:72:32:1c:66:1b:12:80:
         0f:db:99:f0:97:67:61:79:ad:ab:be:6a:ea:aa:cc:3d:f9:40:
         99:00:93:bb:df:4b:41:d4:7f:f1:93:b2:70:83:3a:e3:6b:44:
         4b:1f:9f:77:53:ea:5d:e6:59:1e:c0:2d:4b:83:d6:f4:a3:d4:
         a9:c3:91:12:e7:61:3f:56:9d:8f:b8:19:29:62:1b:58:df:73:
         99:1f:49:63
-----BEGIN CERTIFICATE-----
MIIE4DCCA8igAwIBAgIJAKZmOElFm9yBMA0GCSqGSIb3DQEBCwUAMIGUMQswCQYD
VQQGEwJVUzEQMA4GA1UECAwHTW9udGFuYTEQMA4GA1UEBwwHQm96ZW1hbjERMA8G
A1UECgwIU2F3dG9vdGgxEzARBgNVBAsMCkNvbnN1bHRpbmcxGDAWBgNVBAMMD3d3
dy53b2xmc3NsLmNvbTEfMB0GCSqGSIb3DQEJARYQaW5mb0B3b2xmc3NsLmNvbTAe
Fw0xNTExMjMxMjQ5MzdaFw0xODA4MTkxMjQ5MzdaMIGUMQswCQYDVQQGEwJVUzEQ
MA4GA1UECAwHTW9udGFuYTEQMA4GA1UEBwwHQm96ZW1hbjERMA8GA1UECgwIU2F3
dG9vdGgxEzARBgNVBAsMCkNvbnN1bHRpbmcxGDAWBgNVBAMMD3d3dy53b2xmc3Ns
LmNvbTEfMB0GCSqGSIb3DQEJARYQaW5mb0B3b2xmc3NsLmNvbTCCASIwDQYJKoZI
hvcNAQEBBQADggEPADCCAQoCggEBAL8Myi0Ush6EQlvNOB9K8k11EPG2NZ/fyn0D
mNOs3gNm7irx2LB9bgdUCxCYIU2AyxIg58xP3kV9yXJ3MurKkLtpUhADL6jzlcXx
i2JWG+9nb6QQQZWtCpvjpcCw0nB2UDBbqOgILHztp6J6jTgpHKzH7fJ8lbCVgn1J
XDjNdyXvvYB1U5Q8PcpjW58VtdMdEy8Z0TzbdjrMuH3J5cLX2kBv2CHccxtCLVOc
/hr8fat6Nj+Y3oR8BWfOahQ4h6nxjLVoy2h/cSAr9aBj9VYvoybSt2+xWhfXOJkI
/pNYb/7DE0kIFgunTWcAUjFnI06Y7VFFHbkE2Qvs2CizS73tNnkCAwEAAaOCATEw
ggEtMB0GA1UdDgQWBBQnjmcRdMMmHT/tM2OzpNgdMOXo1TCByQYDVR0jBIHBMIG+
gBQnjmcRdMMmHT/tM2OzpNgdMOXo1aGBmqSBlzCBlDELMAkGA1UEBhMCVVMxEDAO
BgNVBAgMB01vbnRhbmExEDAOBgNVBAcMB0JvemVtYW4xETAPBgNVBAoMCFNhd3Rv
b3RoMRMwEQYDVQQLDApDb25zdWx0aW5nMRgwFgYDVQQDDA93d3cud29sZnNzbC5j
b20xHzAdBgkqhkiG9w0BCQEWEGluZm9Ad29sZnNzbC5jb22CCQCmZjhJRZvcgTAM
BgNVHRMEBTADAQH/MDIGCCsGAQUFBwEBBCYwJDAiBggrBgEFBQcwAYYWaHR0cDov
L2xvY2FsaG9zdDoyMjIyMjANBgkqhkiG9w0BAQsFAAOCAQEAQY/7a2VrNvJWTwxI
sE2MwsvWWHqDOjB9YnuG8RUmsyYCd/LIV+UeYGiLpOjzqLKIpC/obiWNa9xTqy/T
R4zWJ6s5vNPK2AGWpERXOJOrw/OVZ3/PJR23BNwGyV0kwVQTcYEhMe6ftJ3OmGak
oHfBiBik0TbuzdjBG7wD1oWaLiGClUyyKv5p26zkl+HpDvHT7yCGAwFma/AmDzkE
JvVCmD+VSF+1XbxJTIE41elyMhxmGxKAD9uZ8JdnYXmtq75q6qrMPflAmQCTu99L
QdR/8ZOycIM642tESx+fd1PqXeZZHsAtS4PW9KPUqcOREudhP1adj7gZKWIbWN9z
mR9JYw==
-----END CERTIFICATE-----
