Certificate:
    Data:
        Version: 3 (0x2)
        Serial Number: 1 (0x1)
        Signature Algorithm: sha256WithRSAEncryption
        Issuer: C=US, ST=Montana, L=Bozeman, O=Sawtooth, OU=Consulting, CN=www.wolfssl.com, emailAddress=facts@wolfssl.com
        Validity
            Not Before: Jun 11 21:44:29 2026 GMT
            Not After : Mar  7 21:44:29 2029 GMT
        Subject: C=US, ST=Montana, L=Bozeman, O=wolfSSL, OU=Support, CN=www.wolfssl.com, emailAddress=facts@wolfssl.com
        Subject Public Key Info:
            Public Key Algorithm: rsaEncryption
                Public-Key: (2048 bit)
                Modulus:
                    00:c0:95:08:e1:57:41:f2:71:6d:b7:d2:45:41:27:
                    01:65:c6:45:ae:f2:bc:24:30:b8:95:ce:2f:4e:d6:
                    f6:1c:88:bc:7c:9f:fb:a8:67:7f:fe:5c:9c:51:75:
                    f7:8a:ca:07:e7:35:2f:8f:e1:bd:7b:c0:2f:7c:ab:
                    64:a8:17:fc:ca:5d:7b:ba:e0:21:e5:72:2e:6f:2e:
                    86:d8:95:73:da:ac:1b:53:b9:5f:3f:d7:19:0d:25:
                    4f:e1:63:63:51:8b:0b:64:3f:ad:43:b8:a5:1c:5c:
                    34:b3:ae:00:a0:63:c5:f6:7f:0b:59:68:78:73:a6:
                    8c:18:a9:02:6d:af:c3:19:01:2e:b8:10:e3:c6:cc:
                    40:b4:69:a3:46:33:69:87:6e:c4:bb:17:a6:f3:e8:
                    dd:ad:73:bc:7b:2f:21:b5:fd:66:51:0c:bd:54:b3:
                    e1:6d:5f:1c:bc:23:73:d1:09:03:89:14:d2:10:b9:
                    64:c3:2a:d0:a1:96:4a:bc:e1:d4:1a:5b:c7:a0:c0:
                    c1:63:78:0f:44:37:30:32:96:80:32:23:95:a1:77:
                    ba:13:d2:97:73:e2:5d:25:c9:6a:0d:c3:39:60:a4:
                    b4:b0:69:42:42:09:e9:d8:08:bc:33:20:b3:58:22:
                    a7:aa:eb:c4:e1:e6:61:83:c5:d2:96:df:d9:d0:4f:
                    ad:d7
                Exponent: 65537 (0x10001)
        X509v3 extensions:
            X509v3 Subject Key Identifier: 
                B3:11:32:C9:92:98:84:E2:C9:F8:D0:3B:6E:03:42:CA:1F:0E:8E:3C
            X509v3 Authority Key Identifier: 
                keyid:27:8E:67:11:74:C3:26:1D:3F:ED:33:63:B3:A4:D8:1D:30:E5:E8:D5
                DirName:/C=US/ST=Montana/L=Bozeman/O=Sawtooth/OU=Consulting/CN=www.wolfssl.com/emailAddress=facts@wolfssl.com
                serial:67:19:D2:A8:7F:E3:2D:FA:75:7A:4F:E7:B2:02:D9:AD:C4:77:5E:F8
            X509v3 Basic Constraints: 
                CA:TRUE
            X509v3 Subject Alternative Name: 
                DNS:example.com, IP Address:127.0.0.1
            X509v3 Extended Key Usage: 
                TLS Web Server Authentication, TLS Web Client Authentication
    Signature Algorithm: sha256WithRSAEncryption
    Signature Value:
        88:7c:f7:57:61:57:5f:fc:da:3b:f8:1e:a3:20:54:3e:f4:2d:
        f8:eb:05:14:8b:ba:1b:c8:55:f5:e5:48:09:2b:19:d3:36:88:
        64:6d:c2:61:65:6b:71:53:20:e7:c9:43:51:6d:c2:12:2b:78:
        4d:bc:f3:0d:88:ec:73:3d:db:8d:2f:1d:6f:31:d6:5b:ba:a5:
        9d:0a:fb:50:19:7c:9d:ae:f0:c4:9e:a0:23:91:dc:21:89:75:
        5c:00:0b:1b:4e:ff:08:c2:85:86:f0:e2:1b:4e:88:2c:cc:0b:
        c5:c3:5d:0f:5f:5d:27:29:73:cd:95:08:40:67:bf:23:76:48:
        fd:14:b2:61:e0:18:1a:83:57:4a:15:af:2f:63:10:d4:65:29:
        b1:7f:41:37:d6:5e:0c:39:c7:c3:3d:36:f6:38:62:56:ed:5e:
        1c:4e:a9:fa:61:53:1c:9a:77:a4:40:f7:3c:ed:e4:86:60:68:
        f2:39:5a:a0:b9:14:48:86:95:43:29:97:a8:e1:00:32:ad:ed:
        2b:2a:b5:ce:26:e9:86:5a:a2:4f:03:20:26:72:c9:6b:9d:4f:
        f8:c1:09:0f:5a:16:d5:78:71:1d:20:a6:58:03:3b:6b:26:92:
        25:a2:f0:ce:d5:21:7c:db:15:60:a8:8e:04:8e:52:b7:e2:13:
        cd:0e:0c:94
-----BEGIN CERTIFICATE-----
MIIE6zCCA9OgAwIBAgIBATANBgkqhkiG9w0BAQsFADCBlTELMAkGA1UEBhMCVVMx
EDAOBgNVBAgMB01vbnRhbmExEDAOBgNVBAcMB0JvemVtYW4xETAPBgNVBAoMCFNh
d3Rvb3RoMRMwEQYDVQQLDApDb25zdWx0aW5nMRgwFgYDVQQDDA93d3cud29sZnNz
bC5jb20xIDAeBgkqhkiG9w0BCQEWEWZhY3RzQHdvbGZzc2wuY29tMB4XDTI2MDYx
MTIxNDQyOVoXDTI5MDMwNzIxNDQyOVowgZExCzAJBgNVBAYTAlVTMRAwDgYDVQQI
DAdNb250YW5hMRAwDgYDVQQHDAdCb3plbWFuMRAwDgYDVQQKDAd3b2xmU1NMMRAw
DgYDVQQLDAdTdXBwb3J0MRgwFgYDVQQDDA93d3cud29sZnNzbC5jb20xIDAeBgkq
hkiG9w0BCQEWEWZhY3RzQHdvbGZzc2wuY29tMIIBIjANBgkqhkiG9w0BAQEFAAOC
AQ8AMIIBCgKCAQEAwJUI4VdB8nFtt9JFQScBZcZFrvK8JDC4lc4vTtb2HIi8fJ/7
qGd//lycUXX3isoH5zUvj+G9e8AvfKtkqBf8yl17uuAh5XIuby6G2JVz2qwbU7lf
P9cZDSVP4WNjUYsLZD+tQ7ilHFw0s64AoGPF9n8LWWh4c6aMGKkCba/DGQEuuBDj
xsxAtGmjRjNph27Euxem8+jdrXO8ey8htf1mUQy9VLPhbV8cvCNz0QkDiRTSELlk
wyrQoZZKvOHUGlvHoMDBY3gPRDcwMpaAMiOVoXe6E9KXc+JdJclqDcM5YKS0sGlC
Qgnp2Ai8MyCzWCKnquvE4eZhg8XSlt/Z0E+t1wIDAQABo4IBRjCCAUIwHQYDVR0O
BBYEFLMRMsmSmITiyfjQO24DQsofDo48MIHVBgNVHSMEgc0wgcqAFCeOZxF0wyYd
P+0zY7Ok2B0w5ejVoYGbpIGYMIGVMQswCQYDVQQGEwJVUzEQMA4GA1UECAwHTW9u
dGFuYTEQMA4GA1UEBwwHQm96ZW1hbjERMA8GA1UECgwIU2F3dG9vdGgxEzARBgNV
BAsMCkNvbnN1bHRpbmcxGDAWBgNVBAMMD3d3dy53b2xmc3NsLmNvbTEgMB4GCSqG
SIb3DQEJARYRZmFjdHNAd29sZnNzbC5jb22CFGcZ0qh/4y36dXpP57IC2a3Ed174
MAwGA1UdEwQFMAMBAf8wHAYDVR0RBBUwE4ILZXhhbXBsZS5jb22HBH8AAAEwHQYD
VR0lBBYwFAYIKwYBBQUHAwEGCCsGAQUFBwMCMA0GCSqGSIb3DQEBCwUAA4IBAQCI
fPdXYVdf/No7+B6jIFQ+9C346wUUi7obyFX15UgJKxnTNohkbcJhZWtxUyDnyUNR
bcISK3hNvPMNiOxzPduNLx1vMdZbuqWdCvtQGXydrvDEnqAjkdwhiXVcAAsbTv8I
woWG8OIbTogszAvFw10PX10nKXPNlQhAZ78jdkj9FLJh4Bgag1dKFa8vYxDUZSmx
f0E31l4MOcfDPTb2OGJW7V4cTqn6YVMcmnekQPc87eSGYGjyOVqguRRIhpVDKZeo
4QAyre0rKrXOJumGWqJPAyAmcslrnU/4wQkPWhbVeHEdIKZYAztrJpIlovDO1SF8
2xVgqI4EjlK34hPNDgyU
-----END CERTIFICATE-----
Certificate:
    Data:
        Version: 3 (0x2)
        Serial Number:
            67:19:d2:a8:7f:e3:2d:fa:75:7a:4f:e7:b2:02:d9:ad:c4:77:5e:f8
        Signature Algorithm: sha256WithRSAEncryption
        Issuer: C=US, ST=Montana, L=Bozeman, O=Sawtooth, OU=Consulting, CN=www.wolfssl.com, emailAddress=facts@wolfssl.com
        Validity
            Not Before: Jun 11 21:44:28 2026 GMT
            Not After : Mar  7 21:44:28 2029 GMT
        Subject: C=US, ST=Montana, L=Bozeman, O=Sawtooth, OU=Consulting, CN=www.wolfssl.com, emailAddress=facts@wolfssl.com
        Subject Public Key Info:
            Public Key Algorithm: rsaEncryption
                Public-Key: (2048 bit)
                Modulus:
                    00:bf:0c:ca:2d:14:b2:1e:84:42:5b:cd:38:1f:4a:
                    f2:4d:75:10:f1:b6:35:9f:df:ca:7d:03:98:d3:ac:
                    de:03:66:ee:2a:f1:d8:b0:7d:6e:07:54:0b:10:98:
                    21:4d:80:cb:12:20:e7:cc:4f:de:45:7d:c9:72:77:
                    32:ea:ca:90:bb:69:52:10:03:2f:a8:f3:95:c5:f1:
                    8b:62:56:1b:ef:67:6f:a4:10:41:95:ad:0a:9b:e3:
                    a5:c0:b0:d2:70:76:50:30:5b:a8:e8:08:2c:7c:ed:
                    a7:a2:7a:8d:38:29:1c:ac:c7:ed:f2:7c:95:b0:95:
                    82:7d:49:5c:38:cd:77:25:ef:bd:80:75:53:94:3c:
                    3d:ca:63:5b:9f:15:b5:d3:1d:13:2f:19:d1:3c:db:
                    76:3a:cc:b8:7d:c9:e5:c2:d7:da:40:6f:d8:21:dc:
                    73:1b:42:2d:53:9c:fe:1a:fc:7d:ab:7a:36:3f:98:
                    de:84:7c:05:67:ce:6a:14:38:87:a9:f1:8c:b5:68:
                    cb:68:7f:71:20:2b:f5:a0:63:f5:56:2f:a3:26:d2:
                    b7:6f:b1:5a:17:d7:38:99:08:fe:93:58:6f:fe:c3:
                    13:49:08:16:0b:a7:4d:67:00:52:31:67:23:4e:98:
                    ed:51:45:1d:b9:04:d9:0b:ec:d8:28:b3:4b:bd:ed:
                    36:79
                Exponent: 65537 (0x10001)
        X509v3 extensions:
            X509v3 Subject Key Identifier: 
                27:8E:67:11:74:C3:26:1D:3F:ED:33:63:B3:A4:D8:1D:30:E5:E8:D5
            X509v3 Authority Key Identifier: 
                keyid:27:8E:67:11:74:C3:26:1D:3F:ED:33:63:B3:A4:D8:1D:30:E5:E8:D5
                DirName:/C=US/ST=Montana/L=Bozeman/O=Sawtooth/OU=Consulting/CN=www.wolfssl.com/emailAddress=facts@wolfssl.com
                serial:67:19:D2:A8:7F:E3:2D:FA:75:7A:4F:E7:B2:02:D9:AD:C4:77:5E:F8
            X509v3 Basic Constraints: 
                CA:TRUE
            X509v3 Subject Alternative Name: 
                DNS:example.com, IP Address:127.0.0.1
            X509v3 Extended Key Usage: 
                TLS Web Server Authentication, TLS Web Client Authentication
    Signature Algorithm: sha256WithRSAEncryption
    Signature Value:
        5d:a4:7f:06:52:54:b2:56:a9:f8:8d:fb:c9:13:ab:9c:16:4e:
        72:a8:57:b2:8d:e7:b4:a9:3f:32:5c:21:08:ff:42:9f:41:47:
        12:27:b5:45:9e:61:6e:b6:94:fe:f6:01:46:96:3e:f7:3d:79:
        07:ac:a9:26:f5:77:f7:52:c3:ed:bd:5a:a0:17:4c:0e:9e:51:
        57:ac:e3:a1:ef:7d:a3:fa:7c:c6:a5:57:84:dd:d0:aa:77:ab:
        30:12:70:83:f9:41:ae:74:78:f0:54:73:ed:86:7f:66:a1:aa:
        01:cd:41:5f:95:c7:6e:ce:3b:ab:2e:70:ff:3a:34:11:43:df:
        4b:63:d5:3b:a5:9e:21:cb:9c:c8:a7:5c:a0:43:ec:73:98:c5:
        25:d9:d4:ad:cc:11:66:83:51:8a:bd:33:65:a0:a3:a8:93:1e:
        7b:b9:f7:6a:95:6a:a7:dd:ff:6f:3b:bb:24:5c:56:14:8d:b9:
        84:d3:97:bf:57:71:0c:1e:b1:68:93:31:d6:34:38:77:94:da:
        e2:b0:fe:82:18:b2:bb:bf:83:cf:bb:fe:08:fa:2a:17:10:3e:
        06:b1:1c:b1:f9:12:97:87:cc:a8:4e:5e:0d:0c:26:3c:c2:e8:
        be:2d:48:91:77:7f:1a:1d:ac:bf:c9:55:10:bf:2f:5f:60:53:
        e7:b7:6a:72
-----BEGIN CERTIFICATE-----
MIIFAjCCA+qgAwIBAgIUZxnSqH/jLfp1ek/nsgLZrcR3XvgwDQYJKoZIhvcNAQEL
BQAwgZUxCzAJBgNVBAYTAlVTMRAwDgYDVQQIDAdNb250YW5hMRAwDgYDVQQHDAdC
b3plbWFuMREwDwYDVQQKDAhTYXd0b290aDETMBEGA1UECwwKQ29uc3VsdGluZzEY
MBYGA1UEAwwPd3d3LndvbGZzc2wuY29tMSAwHgYJKoZIhvcNAQkBFhFmYWN0c0B3
b2xmc3NsLmNvbTAeFw0yNjA2MTEyMTQ0MjhaFw0yOTAzMDcyMTQ0MjhaMIGVMQsw
CQYDVQQGEwJVUzEQMA4GA1UECAwHTW9udGFuYTEQMA4GA1UEBwwHQm96ZW1hbjER
MA8GA1UECgwIU2F3dG9vdGgxEzARBgNVBAsMCkNvbnN1bHRpbmcxGDAWBgNVBAMM
D3d3dy53b2xmc3NsLmNvbTEgMB4GCSqGSIb3DQEJARYRZmFjdHNAd29sZnNzbC5j
b20wggEiMA0GCSqGSIb3DQEBAQUAA4IBDwAwggEKAoIBAQC/DMotFLIehEJbzTgf
SvJNdRDxtjWf38p9A5jTrN4DZu4q8diwfW4HVAsQmCFNgMsSIOfMT95FfclydzLq
ypC7aVIQAy+o85XF8YtiVhvvZ2+kEEGVrQqb46XAsNJwdlAwW6joCCx87aeieo04
KRysx+3yfJWwlYJ9SVw4zXcl772AdVOUPD3KY1ufFbXTHRMvGdE823Y6zLh9yeXC
19pAb9gh3HMbQi1TnP4a/H2rejY/mN6EfAVnzmoUOIep8Yy1aMtof3EgK/WgY/VW
L6Mm0rdvsVoX1ziZCP6TWG/+wxNJCBYLp01nAFIxZyNOmO1RRR25BNkL7Ngos0u9
7TZ5AgMBAAGjggFGMIIBQjAdBgNVHQ4EFgQUJ45nEXTDJh0/7TNjs6TYHTDl6NUw
gdUGA1UdIwSBzTCByoAUJ45nEXTDJh0/7TNjs6TYHTDl6NWhgZukgZgwgZUxCzAJ
BgNVBAYTAlVTMRAwDgYDVQQIDAdNb250YW5hMRAwDgYDVQQHDAdCb3plbWFuMREw
DwYDVQQKDAhTYXd0b290aDETMBEGA1UECwwKQ29uc3VsdGluZzEYMBYGA1UEAwwP
d3d3LndvbGZzc2wuY29tMSAwHgYJKoZIhvcNAQkBFhFmYWN0c0B3b2xmc3NsLmNv
bYIUZxnSqH/jLfp1ek/nsgLZrcR3XvgwDAYDVR0TBAUwAwEB/zAcBgNVHREEFTAT
ggtleGFtcGxlLmNvbYcEfwAAATAdBgNVHSUEFjAUBggrBgEFBQcDAQYIKwYBBQUH
AwIwDQYJKoZIhvcNAQELBQADggEBAF2kfwZSVLJWqfiN+8kTq5wWTnKoV7KN57Sp
PzJcIQj/Qp9BRxIntUWeYW62lP72AUaWPvc9eQesqSb1d/dSw+29WqAXTA6eUVes
46HvfaP6fMalV4Td0Kp3qzAScIP5Qa50ePBUc+2Gf2ahqgHNQV+Vx27OO6sucP86
NBFD30tj1TulniHLnMinXKBD7HOYxSXZ1K3MEWaDUYq9M2Wgo6iTHnu592qVaqfd
/287uyRcVhSNuYTTl79XcQwesWiTMdY0OHeU2uKw/oIYsru/g8+7/gj6KhcQPgax
HLH5EpeHzKhOXg0MJjzC6L4tSJF3fxodrL/JVRC/L19gU+e3anI=
-----END CERTIFICATE-----
