Certificate:
    Data:
        Version: 3 (0x2)
        Serial Number:
            5c:91:de:25:2d:9c:7a:a1:ba:1c:01:1b:ac:61:fe:8b:79:9a:97:72
        Signature Algorithm: ecdsa-with-SHA256
        Issuer: C=US, ST=Washington, L=Seattle, O=Elliptic, OU=ECC, CN=www.wolfssl.com, emailAddress=facts@wolfssl.com
        Validity
            Not Before: Jun 11 21:44:27 2026 GMT
            Not After : Jun  8 21:44:27 2036 GMT
        Subject: C=US, ST=Washington, L=Seattle, O=Elliptic, OU=ECC, CN=www.wolfssl.com, emailAddress=facts@wolfssl.com
        Subject Public Key Info:
            Public Key Algorithm: id-ecPublicKey
                Public-Key: (256 bit)
                pub:
                    04:bb:33:ac:4c:27:50:4a:c6:4a:a5:04:c3:3c:de:
                    9f:36:db:72:2d:ce:94:ea:2b:fa:cb:20:09:39:2c:
                    16:e8:61:02:e9:af:4d:d3:02:93:9a:31:5b:97:92:
                    21:7f:f0:cf:18:da:91:11:02:34:86:e8:20:58:33:
                    0b:80:34:89:d8
                ASN1 OID: prime256v1
                NIST CURVE: P-256
        X509v3 extensions:
            X509v3 Basic Constraints: 
                CA:FALSE
            Netscape Cert Type: 
                SSL Server
            X509v3 Subject Key Identifier: 
                5D:5D:26:EF:AC:7E:36:F9:9B:76:15:2B:4A:25:02:23:EF:B2:89:30
            X509v3 Authority Key Identifier: 
                DirName:/C=US/ST=Washington/L=Seattle/O=Elliptic/OU=ECC/CN=www.wolfssl.com/emailAddress=facts@wolfssl.com
                serial:5C:91:DE:25:2D:9C:7A:A1:BA:1C:01:1B:AC:61:FE:8B:79:9A:97:72
            X509v3 Key Usage: critical
                Digital Signature, Key Encipherment, Key Agreement
            X509v3 Extended Key Usage: 
                TLS Web Server Authentication
    Signature Algorithm: ecdsa-with-SHA256
    Signature Value:
        30:46:02:21:00:a7:af:d3:4d:23:96:b9:20:96:ca:52:fc:55:
        d7:88:bf:3b:6c:2b:e5:1e:59:a4:db:e1:54:30:b3:7a:7e:07:
        2e:02:21:00:a1:6a:37:65:cf:fe:88:5b:f8:5e:6c:39:ca:5f:
        69:e3:86:89:c4:0d:d2:15:e9:eb:0f:31:e5:e4:c4:9b:21:5c
-----BEGIN CERTIFICATE-----
MIIDTTCCAvKgAwIBAgIUXJHeJS2ceqG6HAEbrGH+i3mal3IwCgYIKoZIzj0EAwIw
gZExCzAJBgNVBAYTAlVTMRMwEQYDVQQIDApXYXNoaW5ndG9uMRAwDgYDVQQHDAdT
ZWF0dGxlMREwDwYDVQQKDAhFbGxpcHRpYzEMMAoGA1UECwwDRUNDMRgwFgYDVQQD
DA93d3cud29sZnNzbC5jb20xIDAeBgkqhkiG9w0BCQEWEWZhY3RzQHdvbGZzc2wu
Y29tMB4XDTI2MDYxMTIxNDQyN1oXDTM2MDYwODIxNDQyN1owgZExCzAJBgNVBAYT
AlVTMRMwEQYDVQQIDApXYXNoaW5ndG9uMRAwDgYDVQQHDAdTZWF0dGxlMREwDwYD
VQQKDAhFbGxpcHRpYzEMMAoGA1UECwwDRUNDMRgwFgYDVQQDDA93d3cud29sZnNz
bC5jb20xIDAeBgkqhkiG9w0BCQEWEWZhY3RzQHdvbGZzc2wuY29tMFkwEwYHKoZI
zj0CAQYIKoZIzj0DAQcDQgAEuzOsTCdQSsZKpQTDPN6fNttyLc6U6iv6yyAJOSwW
6GEC6a9N0wKTmjFbl5Ihf/DPGNqREQI0huggWDMLgDSJ2KOCASQwggEgMAkGA1Ud
EwQCMAAwEQYJYIZIAYb4QgEBBAQDAgZAMB0GA1UdDgQWBBRdXSbvrH42+Zt2FStK
JQIj77KJMDCBuwYDVR0jBIGzMIGwoYGXpIGUMIGRMQswCQYDVQQGEwJVUzETMBEG
A1UECAwKV2FzaGluZ3RvbjEQMA4GA1UEBwwHU2VhdHRsZTERMA8GA1UECgwIRWxs
aXB0aWMxDDAKBgNVBAsMA0VDQzEYMBYGA1UEAwwPd3d3LndvbGZzc2wuY29tMSAw
HgYJKoZIhvcNAQkBFhFmYWN0c0B3b2xmc3NsLmNvbYIUXJHeJS2ceqG6HAEbrGH+
i3mal3IwDgYDVR0PAQH/BAQDAgOoMBMGA1UdJQQMMAoGCCsGAQUFBwMBMAoGCCqG
SM49BAMCA0kAMEYCIQCnr9NNI5a5IJbKUvxV14i/O2wr5R5ZpNvhVDCzen4HLgIh
AKFqN2XP/ohb+F5sOcpfaeOGicQN0hXp6w8x5eTEmyFc
-----END CERTIFICATE-----
