Certificate:
    Data:
        Version: 3 (0x2)
        Serial Number: 2 (0x2)
    Signature Algorithm: sha256WithRSAEncryption
        Issuer: C=US, ST=Montana, L=Bozeman, O=Sawtooth, OU=Consulting, CN=www.wolfssl.com/emailAddress=info@wolfssl.com
        Validity
            Not Before: Jul 25 18:56:34 2016 GMT
            Not After : Apr 21 18:56:34 2019 GMT
        Subject: C=US, ST=Montana, L=Bozeman, O=wolfSSL_revoked, OU=Support_revoked, CN=www.wolfssl.com/emailAddress=info@wolfssl.com
        Subject Public Key Info:
            Public Key Algorithm: rsaEncryption
                Public-Key: (2048 bit)
                Modulus:
                    00:b0:14:16:3a:43:dd:e1:50:45:4f:cf:80:b3:dd:
                    66:96:c7:e9:f4:dc:de:b6:6b:24:1b:76:48:ac:c6:
                    23:a5:a7:e4:05:19:bd:b7:f6:de:fa:ff:ed:5b:3c:
                    79:8a:a9:d5:f1:fb:eb:c8:b1:e4:b2:ab:52:72:89:
                    93:22:5c:ba:cd:8a:36:2a:2c:d1:40:ec:a8:66:0e:
                    c3:76:cd:e7:b3:a3:0a:1e:dd:4a:07:82:17:81:ba:
                    de:57:ce:b6:32:81:c7:bd:11:bb:e9:15:22:4e:e2:
                    16:ac:e3:d4:c0:68:88:6c:11:fc:c2:bd:1b:db:1d:
                    fd:e6:43:c7:1b:33:b8:f4:e5:1b:59:39:12:38:4d:
                    2d:9b:64:68:98:fc:8d:72:12:91:f2:24:25:6c:4c:
                    4a:48:57:92:00:cc:7e:d8:d4:3d:b8:1d:f2:9e:ea:
                    b2:23:0f:51:0f:11:41:1c:f5:27:00:1b:08:7a:12:
                    3a:05:5b:03:24:fe:b1:7b:20:fa:e4:a8:58:c6:ca:
                    ce:7f:be:95:01:12:9d:05:e6:39:13:1b:c0:3e:56:
                    2e:2b:9f:76:37:de:de:9b:e0:0d:7a:63:0d:a7:22:
                    58:db:31:c7:f7:b4:46:5c:ba:b6:4b:48:b1:18:9a:
                    68:b3:63:47:fd:af:12:5f:2f:fe:10:cb:58:2b:33:
                    68:85
                Exponent: 65537 (0x10001)
        X509v3 extensions:
            X509v3 Subject Key Identifier: 
                D8:09:2B:59:E1:2A:EE:D9:EE:40:AA:9C:AB:F0:5D:28:09:4F:22:BB
            X509v3 Authority Key Identifier: 
                keyid:27:8E:67:11:74:C3:26:1D:3F:ED:33:63:B3:A4:D8:1D:30:E5:E8:D5
                DirName:/C=US/ST=Montana/L=Bozeman/O=Sawtooth/OU=Consulting/CN=www.wolfssl.com/emailAddress=info@wolfssl.com
                serial:AB:7B:54:2B:4A:61:E6:C9

            X509v3 Basic Constraints: 
                CA:TRUE
    Signature Algorithm: sha256WithRSAEncryption
         3b:7b:7d:00:75:1d:2a:a9:50:73:a3:f2:f1:d7:28:5d:4b:04:
         f5:34:15:89:a7:37:df:7b:ec:0f:6a:ac:97:80:88:1d:fa:bc:
         f5:4c:f7:bc:32:16:43:17:77:7c:a5:e1:09:a9:57:e3:54:9c:
         70:3c:27:f8:d7:35:48:12:95:01:ec:f4:eb:4d:b8:4e:d6:9a:
         74:9e:f9:bf:1c:0a:0b:3a:e8:b2:57:c6:ac:3d:ba:27:90:27:
         16:f5:24:e1:53:16:4e:32:dd:03:9b:6d:9f:af:f5:c8:91:ec:
         e6:af:f1:48:29:3f:d9:0d:f5:07:86:72:80:49:0a:cc:87:cf:
         91:7d:04:de:d7:ef:bc:de:73:4f:66:f1:63:c2:2c:63:a3:2f:
         70:88:e8:18:c8:17:9b:ea:da:17:f6:00:c4:40:c5:ea:d4:61:
         7f:48:07:5f:b3:6c:e6:4c:76:e5:17:ca:b8:82:87:ec:6f:81:
         90:76:90:d8:86:3f:28:e8:b8:1f:0d:83:53:33:57:10:d2:2f:
         78:d4:2b:30:01:d8:8f:09:7a:a3:92:ee:15:68:67:82:ce:3e:
         8a:a6:f2:59:03:68:85:47:bf:26:39:65:d0:c1:e9:93:89:5a:
         b3:aa:f9:cf:93:96:fb:82:f6:29:29:19:63:4e:bb:84:56:b6:
         57:28:e7:d0
-----BEGIN CERTIFICATE-----
MIIErjCCA5agAwIBAgIBAjANBgkqhkiG9w0BAQsFADCBlDELMAkGA1UEBhMCVVMx
EDAOBgNVBAgMB01vbnRhbmExEDAOBgNVBAcMB0JvemVtYW4xETAPBgNVBAoMCFNh
d3Rvb3RoMRMwEQYDVQQLDApDb25zdWx0aW5nMRgwFgYDVQQDDA93d3cud29sZnNz
bC5jb20xHzAdBgkqhkiG9w0BCQEWEGluZm9Ad29sZnNzbC5jb20wHhcNMTYwNzI1
MTg1NjM0WhcNMTkwNDIxMTg1NjM0WjCBoDELMAkGA1UEBhMCVVMxEDAOBgNVBAgM
B01vbnRhbmExEDAOBgNVBAcMB0JvemVtYW4xGDAWBgNVBAoMD3dvbGZTU0xfcmV2
b2tlZDEYMBYGA1UECwwPU3VwcG9ydF9yZXZva2VkMRgwFgYDVQQDDA93d3cud29s
ZnNzbC5jb20xHzAdBgkqhkiG9w0BCQEWEGluZm9Ad29sZnNzbC5jb20wggEiMA0G
CSqGSIb3DQEBAQUAA4IBDwAwggEKAoIBAQCwFBY6Q93hUEVPz4Cz3WaWx+n03N62
ayQbdkisxiOlp+QFGb239t76/+1bPHmKqdXx++vIseSyq1JyiZMiXLrNijYqLNFA
7KhmDsN2zeezowoe3UoHgheBut5XzrYygce9EbvpFSJO4has49TAaIhsEfzCvRvb
Hf3mQ8cbM7j05RtZORI4TS2bZGiY/I1yEpHyJCVsTEpIV5IAzH7Y1D24HfKe6rIj
D1EPEUEc9ScAGwh6EjoFWwMk/rF7IPrkqFjGys5/vpUBEp0F5jkTG8A+Vi4rn3Y3
3t6b4A16Yw2nIljbMcf3tEZcurZLSLEYmmizY0f9rxJfL/4Qy1grM2iFAgMBAAGj
gfwwgfkwHQYDVR0OBBYEFNgJK1nhKu7Z7kCqnKvwXSgJTyK7MIHJBgNVHSMEgcEw
gb6AFCeOZxF0wyYdP+0zY7Ok2B0w5ejVoYGapIGXMIGUMQswCQYDVQQGEwJVUzEQ
MA4GA1UECAwHTW9udGFuYTEQMA4GA1UEBwwHQm96ZW1hbjERMA8GA1UECgwIU2F3
dG9vdGgxEzARBgNVBAsMCkNvbnN1bHRpbmcxGDAWBgNVBAMMD3d3dy53b2xmc3Ns
LmNvbTEfMB0GCSqGSIb3DQEJARYQaW5mb0B3b2xmc3NsLmNvbYIJAKt7VCtKYebJ
MAwGA1UdEwQFMAMBAf8wDQYJKoZIhvcNAQELBQADggEBADt7fQB1HSqpUHOj8vHX
KF1LBPU0FYmnN9977A9qrJeAiB36vPVM97wyFkMXd3yl4QmpV+NUnHA8J/jXNUgS
lQHs9OtNuE7WmnSe+b8cCgs66LJXxqw9uieQJxb1JOFTFk4y3QObbZ+v9ciR7Oav
8UgpP9kN9QeGcoBJCsyHz5F9BN7X77zec09m8WPCLGOjL3CI6BjIF5vq2hf2AMRA
xerUYX9IB1+zbOZMduUXyriCh+xvgZB2kNiGPyjouB8Ng1MzVxDSL3jUKzAB2I8J
eqOS7hVoZ4LOPoqm8lkDaIVHvyY5ZdDB6ZOJWrOq+c+TlvuC9ikpGWNOu4RWtlco
59A=
-----END CERTIFICATE-----
Certificate:
    Data:
        Version: 3 (0x2)
        Serial Number:
            ab:7b:54:2b:4a:61:e6:c9
    Signature Algorithm: sha256WithRSAEncryption
        Issuer: C=US, ST=Montana, L=Bozeman, O=Sawtooth, OU=Consulting, CN=www.wolfssl.com/emailAddress=info@wolfssl.com
        Validity
            Not Before: Jul 25 18:56:34 2016 GMT
            Not After : Apr 21 18:56:34 2019 GMT
        Subject: C=US, ST=Montana, L=Bozeman, O=Sawtooth, OU=Consulting, CN=www.wolfssl.com/emailAddress=info@wolfssl.com
        Subject Public Key Info:
            Public Key Algorithm: rsaEncryption
                Public-Key: (2048 bit)
                Modulus:
                    00:bf:0c:ca:2d:14:b2:1e:84:42:5b:cd:38:1f:4a:
                    f2:4d:75:10:f1:b6:35:9f:df:ca:7d:03:98:d3:ac:
                    de:03:66:ee:2a:f1:d8:b0:7d:6e:07:54:0b:10:98:
                    21:4d:80:cb:12:20:e7:cc:4f:de:45:7d:c9:72:77:
                    32:ea:ca:90:bb:69:52:10:03:2f:a8:f3:95:c5:f1:
                    8b:62:56:1b:ef:67:6f:a4:10:41:95:ad:0a:9b:e3:
                    a5:c0:b0:d2:70:76:50:30:5b:a8:e8:08:2c:7c:ed:
                    a7:a2:7a:8d:38:29:1c:ac:c7:ed:f2:7c:95:b0:95:
                    82:7d:49:5c:38:cd:77:25:ef:bd:80:75:53:94:3c:
                    3d:ca:63:5b:9f:15:b5:d3:1d:13:2f:19:d1:3c:db:
                    76:3a:cc:b8:7d:c9:e5:c2:d7:da:40:6f:d8:21:dc:
                    73:1b:42:2d:53:9c:fe:1a:fc:7d:ab:7a:36:3f:98:
                    de:84:7c:05:67:ce:6a:14:38:87:a9:f1:8c:b5:68:
                    cb:68:7f:71:20:2b:f5:a0:63:f5:56:2f:a3:26:d2:
                    b7:6f:b1:5a:17:d7:38:99:08:fe:93:58:6f:fe:c3:
                    13:49:08:16:0b:a7:4d:67:00:52:31:67:23:4e:98:
                    ed:51:45:1d:b9:04:d9:0b:ec:d8:28:b3:4b:bd:ed:
                    36:79
                Exponent: 65537 (0x10001)
        X509v3 extensions:
            X509v3 Subject Key Identifier: 
                27:8E:67:11:74:C3:26:1D:3F:ED:33:63:B3:A4:D8:1D:30:E5:E8:D5
            X509v3 Authority Key Identifier: 
                keyid:27:8E:67:11:74:C3:26:1D:3F:ED:33:63:B3:A4:D8:1D:30:E5:E8:D5
                DirName:/C=US/ST=Montana/L=Bozeman/O=Sawtooth/OU=Consulting/CN=www.wolfssl.com/emailAddress=info@wolfssl.com
                serial:AB:7B:54:2B:4A:61:E6:C9

            X509v3 Basic Constraints: 
                CA:TRUE
    Signature Algorithm: sha256WithRSAEncryption
         43:34:44:86:00:1e:c3:0b:46:6f:4c:e6:84:47:b0:30:bd:e8:
         7e:5e:20:f4:d1:60:e1:56:a3:5d:41:d6:f7:74:94:88:f4:4e:
         2f:6c:a4:12:ae:0e:98:fd:0c:ef:9a:17:70:23:32:24:3b:97:
         01:a9:20:b2:92:ed:69:bd:98:74:be:db:b0:9d:fe:da:77:d4:
         51:46:d4:cb:fc:98:32:ea:c1:f2:df:f2:04:05:62:ee:f8:37:
         3d:5b:1b:d4:ab:a0:9a:13:e9:19:c0:01:41:7e:e3:cb:97:ba:
         b9:0b:6a:61:d8:9b:b5:ed:cb:2e:6c:42:a7:ea:db:fa:e9:48:
         93:52:9c:1b:4b:c0:17:8b:fb:1e:ba:09:23:56:ac:e4:d1:de:
         e7:c4:a9:48:80:1e:d2:9f:43:3e:f4:40:fb:38:fa:3f:62:52:
         ae:73:5e:3d:0e:be:21:4f:a6:5e:1d:4c:14:fd:f9:59:42:91:
         28:37:20:e3:5c:6a:08:51:4a:5e:04:ec:8b:98:97:4d:d0:3d:
         c9:af:33:22:d2:29:83:fd:b8:cb:99:96:95:c6:38:c8:39:1f:
         38:9c:8d:43:8c:33:5f:bf:6f:16:ff:68:1e:8b:b1:f9:b2:ae:
         9d:64:ad:54:dd:fa:e0:b0:7c:9b:dd:fd:96:8c:70:8c:5e:e7:
         d5:00:fa:f4
-----BEGIN CERTIFICATE-----
MIIEqjCCA5KgAwIBAgIJAKt7VCtKYebJMA0GCSqGSIb3DQEBCwUAMIGUMQswCQYD
VQQGEwJVUzEQMA4GA1UECAwHTW9udGFuYTEQMA4GA1UEBwwHQm96ZW1hbjERMA8G
A1UECgwIU2F3dG9vdGgxEzARBgNVBAsMCkNvbnN1bHRpbmcxGDAWBgNVBAMMD3d3
dy53b2xmc3NsLmNvbTEfMB0GCSqGSIb3DQEJARYQaW5mb0B3b2xmc3NsLmNvbTAe
Fw0xNjA3MjUxODU2MzRaFw0xOTA0MjExODU2MzRaMIGUMQswCQYDVQQGEwJVUzEQ
MA4GA1UECAwHTW9udGFuYTEQMA4GA1UEBwwHQm96ZW1hbjERMA8GA1UECgwIU2F3
dG9vdGgxEzARBgNVBAsMCkNvbnN1bHRpbmcxGDAWBgNVBAMMD3d3dy53b2xmc3Ns
LmNvbTEfMB0GCSqGSIb3DQEJARYQaW5mb0B3b2xmc3NsLmNvbTCCASIwDQYJKoZI
hvcNAQEBBQADggEPADCCAQoCggEBAL8Myi0Ush6EQlvNOB9K8k11EPG2NZ/fyn0D
mNOs3gNm7irx2LB9bgdUCxCYIU2AyxIg58xP3kV9yXJ3MurKkLtpUhADL6jzlcXx
i2JWG+9nb6QQQZWtCpvjpcCw0nB2UDBbqOgILHztp6J6jTgpHKzH7fJ8lbCVgn1J
XDjNdyXvvYB1U5Q8PcpjW58VtdMdEy8Z0TzbdjrMuH3J5cLX2kBv2CHccxtCLVOc
/hr8fat6Nj+Y3oR8BWfOahQ4h6nxjLVoy2h/cSAr9aBj9VYvoybSt2+xWhfXOJkI
/pNYb/7DE0kIFgunTWcAUjFnI06Y7VFFHbkE2Qvs2CizS73tNnkCAwEAAaOB/DCB
+TAdBgNVHQ4EFgQUJ45nEXTDJh0/7TNjs6TYHTDl6NUwgckGA1UdIwSBwTCBvoAU
J45nEXTDJh0/7TNjs6TYHTDl6NWhgZqkgZcwgZQxCzAJBgNVBAYTAlVTMRAwDgYD
VQQIDAdNb250YW5hMRAwDgYDVQQHDAdCb3plbWFuMREwDwYDVQQKDAhTYXd0b290
aDETMBEGA1UECwwKQ29uc3VsdGluZzEYMBYGA1UEAwwPd3d3LndvbGZzc2wuY29t
MR8wHQYJKoZIhvcNAQkBFhBpbmZvQHdvbGZzc2wuY29tggkAq3tUK0ph5skwDAYD
VR0TBAUwAwEB/zANBgkqhkiG9w0BAQsFAAOCAQEAQzREhgAewwtGb0zmhEewML3o
fl4g9NFg4VajXUHW93SUiPROL2ykEq4OmP0M75oXcCMyJDuXAakgspLtab2YdL7b
sJ3+2nfUUUbUy/yYMurB8t/yBAVi7vg3PVsb1KugmhPpGcABQX7jy5e6uQtqYdib
te3LLmxCp+rb+ulIk1KcG0vAF4v7HroJI1as5NHe58SpSIAe0p9DPvRA+zj6P2JS
rnNePQ6+IU+mXh1MFP35WUKRKDcg41xqCFFKXgTsi5iXTdA9ya8zItIpg/24y5mW
lcY4yDkfOJyNQ4wzX79vFv9oHoux+bKunWStVN364LB8m939loxwjF7n1QD69A==
-----END CERTIFICATE-----
