Certificate:
    Data:
        Version: 3 (0x2)
        Serial Number:
            02:9b:25:1a:89:e0:61:bb:02:0b:03:ad:40:9f:1b:fc:54:46:7b:08
        Signature Algorithm: ecdsa-with-SHA256
        Issuer: C = US, ST = Montana, L = Bozeman, O = Elliptic - comp, OU = Server ECC-comp, CN = www.wolfssl.com, emailAddress = info@wolfssl.com
        Validity
            Not Before: Feb 15 12:50:24 2022 GMT
            Not After : Nov 11 12:50:24 2024 GMT
        Subject: C = US, ST = Montana, L = Bozeman, O = Elliptic - comp, OU = Server ECC-comp, CN = www.wolfssl.com, emailAddress = info@wolfssl.com
        Subject Public Key Info:
            Public Key Algorithm: id-ecPublicKey
                Public-Key: (256 bit)
                pub:
                    02:bb:33:ac:4c:27:50:4a:c6:4a:a5:04:c3:3c:de:
                    9f:36:db:72:2d:ce:94:ea:2b:fa:cb:20:09:39:2c:
                    16:e8:61
                ASN1 OID: prime256v1
                NIST CURVE: P-256
        X509v3 extensions:
            X509v3 Subject Key Identifier: 
                8C:38:3A:6B:B8:24:B7:DF:6E:F4:59:AC:56:4E:AA:E2:58:A6:5A:18
            X509v3 Authority Key Identifier: 
                keyid:8C:38:3A:6B:B8:24:B7:DF:6E:F4:59:AC:56:4E:AA:E2:58:A6:5A:18
                DirName:/C=US/ST=Montana/L=Bozeman/O=Elliptic - comp/OU=Server ECC-comp/CN=www.wolfssl.com/emailAddress=info@wolfssl.com
                serial:02:9B:25:1A:89:E0:61:BB:02:0B:03:AD:40:9F:1B:FC:54:46:7B:08

            X509v3 Basic Constraints: 
                CA:TRUE
            X509v3 Subject Alternative Name: 
                DNS:example.com, IP Address:127.0.0.1
            X509v3 Extended Key Usage: 
                TLS Web Server Authentication, TLS Web Client Authentication
    Signature Algorithm: ecdsa-with-SHA256
         30:45:02:21:00:9d:4e:4c:4d:e5:a4:b6:73:92:c7:c8:2b:69:
         89:29:97:30:19:92:d9:47:b2:9b:56:9f:0b:ec:ba:ec:fc:95:
         45:02:20:4f:50:56:5b:50:b2:33:2c:ca:b9:cb:78:d6:58:33:
         a3:51:ac:bb:4f:96:57:30:1a:b0:e1:a2:f2:f8:aa:bb:7b
-----BEGIN CERTIFICATE-----
MIIDdzCCAx2gAwIBAgIUApslGongYbsCCwOtQJ8b/FRGewgwCgYIKoZIzj0EAwIw
gaAxCzAJBgNVBAYTAlVTMRAwDgYDVQQIDAdNb250YW5hMRAwDgYDVQQHDAdCb3pl
bWFuMRgwFgYDVQQKDA9FbGxpcHRpYyAtIGNvbXAxGDAWBgNVBAsMD1NlcnZlciBF
Q0MtY29tcDEYMBYGA1UEAwwPd3d3LndvbGZzc2wuY29tMR8wHQYJKoZIhvcNAQkB
FhBpbmZvQHdvbGZzc2wuY29tMB4XDTIyMDIxNTEyNTAyNFoXDTI0MTExMTEyNTAy
NFowgaAxCzAJBgNVBAYTAlVTMRAwDgYDVQQIDAdNb250YW5hMRAwDgYDVQQHDAdC
b3plbWFuMRgwFgYDVQQKDA9FbGxpcHRpYyAtIGNvbXAxGDAWBgNVBAsMD1NlcnZl
ciBFQ0MtY29tcDEYMBYGA1UEAwwPd3d3LndvbGZzc2wuY29tMR8wHQYJKoZIhvcN
AQkBFhBpbmZvQHdvbGZzc2wuY29tMDkwEwYHKoZIzj0CAQYIKoZIzj0DAQcDIgAC
uzOsTCdQSsZKpQTDPN6fNttyLc6U6iv6yyAJOSwW6GGjggFRMIIBTTAdBgNVHQ4E
FgQUjDg6a7gkt99u9FmsVk6q4limWhgwgeAGA1UdIwSB2DCB1YAUjDg6a7gkt99u
9FmsVk6q4limWhihgaakgaMwgaAxCzAJBgNVBAYTAlVTMRAwDgYDVQQIDAdNb250
YW5hMRAwDgYDVQQHDAdCb3plbWFuMRgwFgYDVQQKDA9FbGxpcHRpYyAtIGNvbXAx
GDAWBgNVBAsMD1NlcnZlciBFQ0MtY29tcDEYMBYGA1UEAwwPd3d3LndvbGZzc2wu
Y29tMR8wHQYJKoZIhvcNAQkBFhBpbmZvQHdvbGZzc2wuY29tghQCmyUaieBhuwIL
A61Anxv8VEZ7CDAMBgNVHRMEBTADAQH/MBwGA1UdEQQVMBOCC2V4YW1wbGUuY29t
hwR/AAABMB0GA1UdJQQWMBQGCCsGAQUFBwMBBggrBgEFBQcDAjAKBggqhkjOPQQD
AgNIADBFAiEAnU5MTeWktnOSx8graYkplzAZktlHsptWnwvsuuz8lUUCIE9QVltQ
sjMsyrnLeNZYM6NRrLtPllcwGrDhovL4qrt7
-----END CERTIFICATE-----
