Certificate:
    Data:
        Version: 3 (0x2)
        Serial Number: 1 (0x1)
        Signature Algorithm: sha256WithRSAEncryption
        Issuer: C = US, ST = Montana, L = Bozeman, O = Sawtooth, OU = Consulting, CN = www.wolfssl.com, emailAddress = info@wolfssl.com
        Validity
            Not Before: Feb 15 12:50:24 2022 GMT
            Not After : Nov 11 12:50:24 2024 GMT
        Subject: C = US, ST = Montana, L = Bozeman, O = Elliptic - RSAsig, OU = ECC-RSAsig, CN = www.wolfssl.com, emailAddress = info@wolfssl.com
        Subject Public Key Info:
            Public Key Algorithm: id-ecPublicKey
                Public-Key: (256 bit)
                pub:
                    04:bb:33:ac:4c:27:50:4a:c6:4a:a5:04:c3:3c:de:
                    9f:36:db:72:2d:ce:94:ea:2b:fa:cb:20:09:39:2c:
                    16:e8:61:02:e9:af:4d:d3:02:93:9a:31:5b:97:92:
                    21:7f:f0:cf:18:da:91:11:02:34:86:e8:20:58:33:
                    0b:80:34:89:d8
                ASN1 OID: prime256v1
                NIST CURVE: P-256
        X509v3 extensions:
            X509v3 Subject Key Identifier: 
                5D:5D:26:EF:AC:7E:36:F9:9B:76:15:2B:4A:25:02:23:EF:B2:89:30
            X509v3 Authority Key Identifier: 
                keyid:27:8E:67:11:74:C3:26:1D:3F:ED:33:63:B3:A4:D8:1D:30:E5:E8:D5
                DirName:/C=US/ST=Montana/L=Bozeman/O=Sawtooth/OU=Consulting/CN=www.wolfssl.com/emailAddress=info@wolfssl.com
                serial:26:8C:93:F9:F9:F4:1E:B3:01:72:94:55:67:6D:E2:F8:3D:DA:E9:F4

            X509v3 Basic Constraints: 
                CA:TRUE
            X509v3 Subject Alternative Name: 
                DNS:example.com, IP Address:127.0.0.1
            X509v3 Extended Key Usage: 
                TLS Web Server Authentication, TLS Web Client Authentication
    Signature Algorithm: sha256WithRSAEncryption
         24:9c:9a:b4:89:a3:91:e5:a3:49:2f:31:a3:d3:0d:fc:75:d8:
         56:a6:61:5b:2f:9d:23:ff:ac:5c:49:55:41:d6:ce:ec:c2:ca:
         6c:6c:6e:10:73:c7:e5:9c:51:29:f8:00:c7:2b:69:b3:e4:0b:
         e8:68:c7:92:4e:da:ee:1f:c1:6e:98:63:ea:6e:ae:79:7c:f1:
         45:07:ba:a9:fd:ee:46:2e:b5:fc:6f:83:14:63:b9:31:99:b4:
         f7:b2:38:6b:53:d9:29:24:e5:0f:a3:5a:48:d9:07:8e:b6:fe:
         c3:75:cf:21:c6:b4:0a:9f:d3:e5:d5:ae:a9:c0:1c:2d:64:1c:
         6b:77:50:75:7d:54:65:52:24:95:25:94:cb:c4:26:98:86:e0:
         40:42:6e:14:22:a1:cc:4a:a6:e8:13:3a:66:df:9e:da:ea:4e:
         c3:09:20:87:9a:32:86:d5:18:fa:01:39:0b:ec:14:07:2e:15:
         dc:61:4e:a8:c8:d6:d5:c4:d0:e7:cd:ed:33:b8:29:f2:e0:e8:
         5e:3b:fc:a2:c9:49:b2:f5:54:0d:38:6f:32:b5:d1:94:9d:cd:
         2f:58:20:cf:41:74:e3:e1:bc:74:7b:bb:eb:5a:5e:70:d9:1b:
         20:64:58:3e:42:68:5b:d3:52:db:fa:82:8d:6f:f2:02:60:e3:
         e3:93:76:c6
-----BEGIN CERTIFICATE-----
MIIEKjCCAxKgAwIBAgIBATANBgkqhkiG9w0BAQsFADCBlDELMAkGA1UEBhMCVVMx
EDAOBgNVBAgMB01vbnRhbmExEDAOBgNVBAcMB0JvemVtYW4xETAPBgNVBAoMCFNh
d3Rvb3RoMRMwEQYDVQQLDApDb25zdWx0aW5nMRgwFgYDVQQDDA93d3cud29sZnNz
bC5jb20xHzAdBgkqhkiG9w0BCQEWEGluZm9Ad29sZnNzbC5jb20wHhcNMjIwMjE1
MTI1MDI0WhcNMjQxMTExMTI1MDI0WjCBnTELMAkGA1UEBhMCVVMxEDAOBgNVBAgM
B01vbnRhbmExEDAOBgNVBAcMB0JvemVtYW4xGjAYBgNVBAoMEUVsbGlwdGljIC0g
UlNBc2lnMRMwEQYDVQQLDApFQ0MtUlNBc2lnMRgwFgYDVQQDDA93d3cud29sZnNz
bC5jb20xHzAdBgkqhkiG9w0BCQEWEGluZm9Ad29sZnNzbC5jb20wWTATBgcqhkjO
PQIBBggqhkjOPQMBBwNCAAS7M6xMJ1BKxkqlBMM83p8223ItzpTqK/rLIAk5LBbo
YQLpr03TApOaMVuXkiF/8M8Y2pERAjSG6CBYMwuANInYo4IBRTCCAUEwHQYDVR0O
BBYEFF1dJu+sfjb5m3YVK0olAiPvsokwMIHUBgNVHSMEgcwwgcmAFCeOZxF0wyYd
P+0zY7Ok2B0w5ejVoYGapIGXMIGUMQswCQYDVQQGEwJVUzEQMA4GA1UECAwHTW9u
dGFuYTEQMA4GA1UEBwwHQm96ZW1hbjERMA8GA1UECgwIU2F3dG9vdGgxEzARBgNV
BAsMCkNvbnN1bHRpbmcxGDAWBgNVBAMMD3d3dy53b2xmc3NsLmNvbTEfMB0GCSqG
SIb3DQEJARYQaW5mb0B3b2xmc3NsLmNvbYIUJoyT+fn0HrMBcpRVZ23i+D3a6fQw
DAYDVR0TBAUwAwEB/zAcBgNVHREEFTATggtleGFtcGxlLmNvbYcEfwAAATAdBgNV
HSUEFjAUBggrBgEFBQcDAQYIKwYBBQUHAwIwDQYJKoZIhvcNAQELBQADggEBACSc
mrSJo5Hlo0kvMaPTDfx12FamYVsvnSP/rFxJVUHWzuzCymxsbhBzx+WcUSn4AMcr
abPkC+hox5JO2u4fwW6YY+purnl88UUHuqn97kYutfxvgxRjuTGZtPeyOGtT2Skk
5Q+jWkjZB462/sN1zyHGtAqf0+XVrqnAHC1kHGt3UHV9VGVSJJUllMvEJpiG4EBC
bhQiocxKpugTOmbfntrqTsMJIIeaMobVGPoBOQvsFAcuFdxhTqjI1tXE0OfN7TO4
KfLg6F47/KLJSbL1VA04bzK10ZSdzS9YIM9BdOPhvHR7u+taXnDZGyBkWD5CaFvT
Utv6go1v8gJg4+OTdsY=
-----END CERTIFICATE-----
