Certificate:
    Data:
        Version: 3 (0x2)
        Serial Number: 1 (0x1)
        Signature Algorithm: sha256WithRSAEncryption
        Issuer: C = US, ST = Montana, L = Bozeman, O = Sawtooth, OU = Consulting, CN = www.wolfssl.com, emailAddress = info@wolfssl.com
        Validity
            Not Before: May  7 07:39:04 2020 GMT
            Not After : Feb  1 07:39:04 2023 GMT
        Subject: C = US, ST = Montana, L = Bozeman, O = Elliptic - RSAsig, OU = ECC-RSAsig, CN = www.wolfssl.com, emailAddress = info@wolfssl.com
        Subject Public Key Info:
            Public Key Algorithm: id-ecPublicKey
                Public-Key: (256 bit)
                pub:
                    04:bb:33:ac:4c:27:50:4a:c6:4a:a5:04:c3:3c:de:
                    9f:36:db:72:2d:ce:94:ea:2b:fa:cb:20:09:39:2c:
                    16:e8:61:02:e9:af:4d:d3:02:93:9a:31:5b:97:92:
                    21:7f:f0:cf:18:da:91:11:02:34:86:e8:20:58:33:
                    0b:80:34:89:d8
                ASN1 OID: prime256v1
                NIST CURVE: P-256
        X509v3 extensions:
            X509v3 Subject Key Identifier: 
                5D:5D:26:EF:AC:7E:36:F9:9B:76:15:2B:4A:25:02:23:EF:B2:89:30
            X509v3 Authority Key Identifier: 
                keyid:27:8E:67:11:74:C3:26:1D:3F:ED:33:63:B3:A4:D8:1D:30:E5:E8:D5
                DirName:/C=US/ST=Montana/L=Bozeman/O=Sawtooth/OU=Consulting/CN=www.wolfssl.com/emailAddress=info@wolfssl.com
                serial:3F:32:13:52:92:C6:DF:4A:D5:42:05:6C:B0:B2:2E:46:C2:F8:B8:67

            X509v3 Basic Constraints: 
                CA:TRUE
            X509v3 Subject Alternative Name: 
                DNS:example.com, IP Address:127.0.0.1
    Signature Algorithm: sha256WithRSAEncryption
         76:70:55:ea:cd:57:d3:a6:32:44:f8:77:90:0f:da:5c:86:ce:
         bd:6e:a2:52:22:51:e9:91:e6:0b:76:8e:51:8a:09:26:2a:c9:
         18:d1:3b:c1:37:14:6c:00:0a:d0:49:03:d8:ed:91:d6:e9:c7:
         e4:62:c3:10:8f:e5:34:a2:bf:a2:eb:5a:18:a2:56:37:94:a4:
         1e:94:67:86:55:11:08:5b:c1:b1:da:3f:a3:21:af:94:a6:64:
         90:48:07:a8:7b:73:5b:b1:81:38:7e:36:9e:4e:7d:64:60:c1:
         19:63:db:96:97:3b:63:86:d1:0c:2b:6c:ef:c6:44:ec:df:3f:
         a1:8c:c5:d7:e6:4a:a3:bc:dd:85:d5:b1:d1:8b:55:a1:a4:c5:
         fd:46:f1:f8:19:1e:92:f5:19:ea:ec:3c:9b:93:ae:59:20:89:
         b6:c4:39:9d:cc:89:f5:e1:d5:69:00:ce:62:0b:0f:32:41:54:
         58:ac:d5:20:51:92:50:27:43:64:da:ec:2e:5a:7d:23:b2:25:
         43:73:72:81:1e:87:57:0f:29:09:d3:ca:a0:0e:cd:8e:93:95:
         50:f7:2d:21:56:8f:45:02:ae:8b:3e:3f:7d:be:c8:d6:85:b5:
         d6:65:89:dd:d9:a9:63:60:9a:b1:b6:3b:ab:62:90:16:8b:95:
         49:b9:e5:96
-----BEGIN CERTIFICATE-----
MIIECzCCAvOgAwIBAgIBATANBgkqhkiG9w0BAQsFADCBlDELMAkGA1UEBhMCVVMx
EDAOBgNVBAgMB01vbnRhbmExEDAOBgNVBAcMB0JvemVtYW4xETAPBgNVBAoMCFNh
d3Rvb3RoMRMwEQYDVQQLDApDb25zdWx0aW5nMRgwFgYDVQQDDA93d3cud29sZnNz
bC5jb20xHzAdBgkqhkiG9w0BCQEWEGluZm9Ad29sZnNzbC5jb20wHhcNMjAwNTA3
MDczOTA0WhcNMjMwMjAxMDczOTA0WjCBnTELMAkGA1UEBhMCVVMxEDAOBgNVBAgM
B01vbnRhbmExEDAOBgNVBAcMB0JvemVtYW4xGjAYBgNVBAoMEUVsbGlwdGljIC0g
UlNBc2lnMRMwEQYDVQQLDApFQ0MtUlNBc2lnMRgwFgYDVQQDDA93d3cud29sZnNz
bC5jb20xHzAdBgkqhkiG9w0BCQEWEGluZm9Ad29sZnNzbC5jb20wWTATBgcqhkjO
PQIBBggqhkjOPQMBBwNCAAS7M6xMJ1BKxkqlBMM83p8223ItzpTqK/rLIAk5LBbo
YQLpr03TApOaMVuXkiF/8M8Y2pERAjSG6CBYMwuANInYo4IBJjCCASIwHQYDVR0O
BBYEFF1dJu+sfjb5m3YVK0olAiPvsokwMIHUBgNVHSMEgcwwgcmAFCeOZxF0wyYd
P+0zY7Ok2B0w5ejVoYGapIGXMIGUMQswCQYDVQQGEwJVUzEQMA4GA1UECAwHTW9u
dGFuYTEQMA4GA1UEBwwHQm96ZW1hbjERMA8GA1UECgwIU2F3dG9vdGgxEzARBgNV
BAsMCkNvbnN1bHRpbmcxGDAWBgNVBAMMD3d3dy53b2xmc3NsLmNvbTEfMB0GCSqG
SIb3DQEJARYQaW5mb0B3b2xmc3NsLmNvbYIUPzITUpLG30rVQgVssLIuRsL4uGcw
DAYDVR0TBAUwAwEB/zAcBgNVHREEFTATggtleGFtcGxlLmNvbYcEfwAAATANBgkq
hkiG9w0BAQsFAAOCAQEAdnBV6s1X06YyRPh3kA/aXIbOvW6iUiJR6ZHmC3aOUYoJ
JirJGNE7wTcUbAAK0EkD2O2R1unH5GLDEI/lNKK/outaGKJWN5SkHpRnhlURCFvB
sdo/oyGvlKZkkEgHqHtzW7GBOH42nk59ZGDBGWPblpc7Y4bRDCts78ZE7N8/oYzF
1+ZKo7zdhdWx0YtVoaTF/Ubx+BkekvUZ6uw8m5OuWSCJtsQ5ncyJ9eHVaQDOYgsP
MkFUWKzVIFGSUCdDZNrsLlp9I7IlQ3NygR6HVw8pCdPKoA7NjpOVUPctIVaPRQKu
iz4/fb7I1oW11mWJ3dmpY2CasbY7q2KQFouVSbnllg==
-----END CERTIFICATE-----
