Certificate:
    Data:
        Version: 3 (0x2)
        Serial Number: 1 (0x1)
        Signature Algorithm: sha256WithRSAEncryption
        Issuer: C = US, ST = Montana, L = Bozeman, O = Sawtooth, OU = Consulting, CN = www.wolfssl.com, emailAddress = info@wolfssl.com
        Validity
            Not Before: Jun 19 13:23:41 2020 GMT
            Not After : Mar 16 13:23:41 2023 GMT
        Subject: C = US, ST = Montana, L = Bozeman, O = Elliptic - RSAsig, OU = ECC-RSAsig, CN = www.wolfssl.com, emailAddress = info@wolfssl.com
        Subject Public Key Info:
            Public Key Algorithm: id-ecPublicKey
                Public-Key: (256 bit)
                pub:
                    04:bb:33:ac:4c:27:50:4a:c6:4a:a5:04:c3:3c:de:
                    9f:36:db:72:2d:ce:94:ea:2b:fa:cb:20:09:39:2c:
                    16:e8:61:02:e9:af:4d:d3:02:93:9a:31:5b:97:92:
                    21:7f:f0:cf:18:da:91:11:02:34:86:e8:20:58:33:
                    0b:80:34:89:d8
                ASN1 OID: prime256v1
                NIST CURVE: P-256
        X509v3 extensions:
            X509v3 Subject Key Identifier: 
                5D:5D:26:EF:AC:7E:36:F9:9B:76:15:2B:4A:25:02:23:EF:B2:89:30
            X509v3 Authority Key Identifier: 
                keyid:27:8E:67:11:74:C3:26:1D:3F:ED:33:63:B3:A4:D8:1D:30:E5:E8:D5
                DirName:/C=US/ST=Montana/L=Bozeman/O=Sawtooth/OU=Consulting/CN=www.wolfssl.com/emailAddress=info@wolfssl.com
                serial:5E:BA:A4:F4:B1:F7:48:25:E3:5F:9B:DA:A1:13:ED:D5:2B:03:67:15

            X509v3 Basic Constraints: 
                CA:TRUE
            X509v3 Subject Alternative Name: 
                DNS:example.com, IP Address:127.0.0.1
            X509v3 Extended Key Usage: 
                TLS Web Server Authentication, TLS Web Client Authentication
    Signature Algorithm: sha256WithRSAEncryption
         69:31:1f:55:ab:a3:11:91:89:f5:ee:88:8f:c1:53:8b:f6:eb:
         ff:14:3b:7a:25:37:f0:19:20:35:37:f5:27:1e:e9:c1:db:34:
         ac:27:0b:ee:29:9f:7e:8b:89:7d:c8:1f:b4:ec:75:92:f1:82:
         4e:22:02:14:7c:7e:e4:65:09:34:23:0d:9a:73:bf:86:98:0f:
         ee:16:57:21:65:7e:94:96:40:85:bf:3f:9e:11:a8:8f:7e:9b:
         4b:82:29:fe:bb:47:a8:43:9e:da:fa:4c:40:cf:ca:a6:98:00:
         07:bb:c3:86:a8:3f:15:ae:f5:f9:69:7e:9e:44:2f:c5:a3:33:
         1d:dc:04:04:dc:6e:25:c6:7f:15:7a:f0:99:93:47:f6:8f:41:
         95:c7:16:78:f4:5e:48:a3:fe:38:7a:43:e1:19:40:7e:25:09:
         23:67:fe:51:9c:d5:de:ef:c3:02:23:4f:63:ba:ec:b8:56:17:
         04:07:29:09:3e:a8:f8:d6:76:2b:f7:79:56:3d:39:0a:df:6f:
         c5:5a:2f:81:1f:63:15:36:51:07:e2:8b:cb:6c:cf:6e:92:a7:
         ca:3b:f6:c5:66:34:84:5a:47:20:e3:63:04:5f:38:35:a4:d3:
         3d:3a:e1:85:85:62:85:5b:69:ad:aa:e9:40:28:d7:f9:7c:53:
         48:c0:1b:cc
-----BEGIN CERTIFICATE-----
MIIEKjCCAxKgAwIBAgIBATANBgkqhkiG9w0BAQsFADCBlDELMAkGA1UEBhMCVVMx
EDAOBgNVBAgMB01vbnRhbmExEDAOBgNVBAcMB0JvemVtYW4xETAPBgNVBAoMCFNh
d3Rvb3RoMRMwEQYDVQQLDApDb25zdWx0aW5nMRgwFgYDVQQDDA93d3cud29sZnNz
bC5jb20xHzAdBgkqhkiG9w0BCQEWEGluZm9Ad29sZnNzbC5jb20wHhcNMjAwNjE5
MTMyMzQxWhcNMjMwMzE2MTMyMzQxWjCBnTELMAkGA1UEBhMCVVMxEDAOBgNVBAgM
B01vbnRhbmExEDAOBgNVBAcMB0JvemVtYW4xGjAYBgNVBAoMEUVsbGlwdGljIC0g
UlNBc2lnMRMwEQYDVQQLDApFQ0MtUlNBc2lnMRgwFgYDVQQDDA93d3cud29sZnNz
bC5jb20xHzAdBgkqhkiG9w0BCQEWEGluZm9Ad29sZnNzbC5jb20wWTATBgcqhkjO
PQIBBggqhkjOPQMBBwNCAAS7M6xMJ1BKxkqlBMM83p8223ItzpTqK/rLIAk5LBbo
YQLpr03TApOaMVuXkiF/8M8Y2pERAjSG6CBYMwuANInYo4IBRTCCAUEwHQYDVR0O
BBYEFF1dJu+sfjb5m3YVK0olAiPvsokwMIHUBgNVHSMEgcwwgcmAFCeOZxF0wyYd
P+0zY7Ok2B0w5ejVoYGapIGXMIGUMQswCQYDVQQGEwJVUzEQMA4GA1UECAwHTW9u
dGFuYTEQMA4GA1UEBwwHQm96ZW1hbjERMA8GA1UECgwIU2F3dG9vdGgxEzARBgNV
BAsMCkNvbnN1bHRpbmcxGDAWBgNVBAMMD3d3dy53b2xmc3NsLmNvbTEfMB0GCSqG
SIb3DQEJARYQaW5mb0B3b2xmc3NsLmNvbYIUXrqk9LH3SCXjX5vaoRPt1SsDZxUw
DAYDVR0TBAUwAwEB/zAcBgNVHREEFTATggtleGFtcGxlLmNvbYcEfwAAATAdBgNV
HSUEFjAUBggrBgEFBQcDAQYIKwYBBQUHAwIwDQYJKoZIhvcNAQELBQADggEBAGkx
H1WroxGRifXuiI/BU4v26/8UO3olN/AZIDU39Sce6cHbNKwnC+4pn36LiX3IH7Ts
dZLxgk4iAhR8fuRlCTQjDZpzv4aYD+4WVyFlfpSWQIW/P54RqI9+m0uCKf67R6hD
ntr6TEDPyqaYAAe7w4aoPxWu9flpfp5EL8WjMx3cBATcbiXGfxV68JmTR/aPQZXH
Fnj0Xkij/jh6Q+EZQH4lCSNn/lGc1d7vwwIjT2O67LhWFwQHKQk+qPjWdiv3eVY9
OQrfb8VaL4EfYxU2UQfii8tsz26Sp8o79sVmNIRaRyDjYwRfODWk0z064YWFYoVb
aa2q6UAo1/l8U0jAG8w=
-----END CERTIFICATE-----
