Certificate:
    Data:
        Version: 3 (0x2)
        Serial Number: 1 (0x1)
    Signature Algorithm: sha256WithRSAEncryption
        Issuer: C=US, ST=Montana, L=Bozeman, O=Sawtooth, OU=Consulting, CN=www.wolfssl.com/emailAddress=info@wolfssl.com
        Validity
            Not Before: Nov 23 12:49:37 2015 GMT
            Not After : Aug 19 12:49:37 2018 GMT
        Subject: C=US, ST=Montana, L=Bozeman, O=Elliptic - RSAsig, OU=ECC-RSAsig, CN=www.wolfssl.com/emailAddress=info@wolfssl.com
        Subject Public Key Info:
            Public Key Algorithm: id-ecPublicKey
                Public-Key: (256 bit)
                pub: 
                    04:bb:33:ac:4c:27:50:4a:c6:4a:a5:04:c3:3c:de:
                    9f:36:db:72:2d:ce:94:ea:2b:fa:cb:20:09:39:2c:
                    16:e8:61:02:e9:af:4d:d3:02:93:9a:31:5b:97:92:
                    21:7f:f0:cf:18:da:91:11:02:34:86:e8:20:58:33:
                    0b:80:34:89:d8
                ASN1 OID: prime256v1
        X509v3 extensions:
            X509v3 Subject Key Identifier: 
                5D:5D:26:EF:AC:7E:36:F9:9B:76:15:2B:4A:25:02:23:EF:B2:89:30
            X509v3 Authority Key Identifier: 
                keyid:27:8E:67:11:74:C3:26:1D:3F:ED:33:63:B3:A4:D8:1D:30:E5:E8:D5
                DirName:/C=US/ST=Montana/L=Bozeman/O=Sawtooth/OU=Consulting/CN=www.wolfssl.com/emailAddress=info@wolfssl.com
                serial:A6:66:38:49:45:9B:DC:81

            X509v3 Basic Constraints: 
                CA:TRUE
            Authority Information Access: 
                OCSP - URI:http://localhost:22222

    Signature Algorithm: sha256WithRSAEncryption
         59:56:ea:45:49:9c:ae:e2:07:31:cd:d0:a0:db:af:7d:6d:60:
         ef:ac:e0:30:46:01:f7:43:fc:5c:ab:32:1b:2f:8b:97:14:b4:
         dc:68:1c:f2:11:a7:f4:b8:9a:84:02:10:0c:52:ba:c1:7a:f2:
         3f:aa:09:cb:e4:08:70:c5:76:8f:9c:7e:24:7a:62:55:0f:ae:
         b8:b8:5f:57:22:9e:8d:85:75:67:88:b3:39:2c:57:bd:aa:8a:
         e5:d6:5b:64:0f:1b:47:a7:83:6d:fa:73:4f:ac:f7:ae:6a:ea:
         4d:ca:36:d6:b7:21:a6:01:c3:b5:a2:0e:27:44:2b:f3:62:8f:
         96:70:45:c3:31:48:8e:fc:e7:64:7e:8a:93:42:f7:03:d5:71:
         d2:a5:8f:f5:60:6e:88:9b:d4:6a:fc:a1:1e:ae:a4:b4:34:13:
         9b:4c:2c:67:1e:2f:f3:bb:bf:73:87:a0:18:16:af:df:02:bf:
         f1:a5:89:61:af:29:48:59:c8:a5:13:70:05:c2:f8:ca:30:91:
         82:22:cf:09:c1:0f:a7:96:fb:19:59:09:72:03:b3:9a:be:89:
         62:5a:cd:ab:d0:e5:43:50:5f:3f:d8:d0:b3:66:63:5e:8f:c1:
         e4:35:fa:1f:f5:88:31:5f:a1:71:f4:e7:ab:c4:4e:64:74:72:
         c6:ca:1c:aa
-----BEGIN CERTIFICATE-----
MIIEFjCCAv6gAwIBAgIBATANBgkqhkiG9w0BAQsFADCBlDELMAkGA1UEBhMCVVMx
EDAOBgNVBAgMB01vbnRhbmExEDAOBgNVBAcMB0JvemVtYW4xETAPBgNVBAoMCFNh
d3Rvb3RoMRMwEQYDVQQLDApDb25zdWx0aW5nMRgwFgYDVQQDDA93d3cud29sZnNz
bC5jb20xHzAdBgkqhkiG9w0BCQEWEGluZm9Ad29sZnNzbC5jb20wHhcNMTUxMTIz
MTI0OTM3WhcNMTgwODE5MTI0OTM3WjCBnTELMAkGA1UEBhMCVVMxEDAOBgNVBAgM
B01vbnRhbmExEDAOBgNVBAcMB0JvemVtYW4xGjAYBgNVBAoMEUVsbGlwdGljIC0g
UlNBc2lnMRMwEQYDVQQLDApFQ0MtUlNBc2lnMRgwFgYDVQQDDA93d3cud29sZnNz
bC5jb20xHzAdBgkqhkiG9w0BCQEWEGluZm9Ad29sZnNzbC5jb20wWTATBgcqhkjO
PQIBBggqhkjOPQMBBwNCAAS7M6xMJ1BKxkqlBMM83p8223ItzpTqK/rLIAk5LBbo
YQLpr03TApOaMVuXkiF/8M8Y2pERAjSG6CBYMwuANInYo4IBMTCCAS0wHQYDVR0O
BBYEFF1dJu+sfjb5m3YVK0olAiPvsokwMIHJBgNVHSMEgcEwgb6AFCeOZxF0wyYd
P+0zY7Ok2B0w5ejVoYGapIGXMIGUMQswCQYDVQQGEwJVUzEQMA4GA1UECAwHTW9u
dGFuYTEQMA4GA1UEBwwHQm96ZW1hbjERMA8GA1UECgwIU2F3dG9vdGgxEzARBgNV
BAsMCkNvbnN1bHRpbmcxGDAWBgNVBAMMD3d3dy53b2xmc3NsLmNvbTEfMB0GCSqG
SIb3DQEJARYQaW5mb0B3b2xmc3NsLmNvbYIJAKZmOElFm9yBMAwGA1UdEwQFMAMB
Af8wMgYIKwYBBQUHAQEEJjAkMCIGCCsGAQUFBzABhhZodHRwOi8vbG9jYWxob3N0
OjIyMjIyMA0GCSqGSIb3DQEBCwUAA4IBAQBZVupFSZyu4gcxzdCg2699bWDvrOAw
RgH3Q/xcqzIbL4uXFLTcaBzyEaf0uJqEAhAMUrrBevI/qgnL5AhwxXaPnH4kemJV
D664uF9XIp6NhXVniLM5LFe9qorl1ltkDxtHp4Nt+nNPrPeuaupNyjbWtyGmAcO1
og4nRCvzYo+WcEXDMUiO/OdkfoqTQvcD1XHSpY/1YG6Im9Rq/KEerqS0NBObTCxn
Hi/zu79zh6AYFq/fAr/xpYlhrylIWcilE3AFwvjKMJGCIs8JwQ+nlvsZWQlyA7Oa
voliWs2r0OVDUF8/2NCzZmNej8HkNfof9YgxX6Fx9OerxE5kdHLGyhyq
-----END CERTIFICATE-----
