Certificate:
    Data:
        Version: 3 (0x2)
        Serial Number: 2 (0x2)
        Signature Algorithm: sha256WithRSAEncryption
        Issuer: C = US, ST = Montana, L = Bozeman, O = Sawtooth, OU = Consulting, CN = www.wolfssl.com, emailAddress = info@wolfssl.com
        Validity
            Not Before: May  7 07:39:04 2020 GMT
            Not After : Feb  1 07:39:04 2023 GMT
        Subject: C = US, ST = Montana, L = Bozeman, O = wolfSSL_revoked, OU = Support_revoked, CN = www.wolfssl.com, emailAddress = info@wolfssl.com
        Subject Public Key Info:
            Public Key Algorithm: rsaEncryption
                RSA Public-Key: (2048 bit)
                Modulus:
                    00:b0:14:16:3a:43:dd:e1:50:45:4f:cf:80:b3:dd:
                    66:96:c7:e9:f4:dc:de:b6:6b:24:1b:76:48:ac:c6:
                    23:a5:a7:e4:05:19:bd:b7:f6:de:fa:ff:ed:5b:3c:
                    79:8a:a9:d5:f1:fb:eb:c8:b1:e4:b2:ab:52:72:89:
                    93:22:5c:ba:cd:8a:36:2a:2c:d1:40:ec:a8:66:0e:
                    c3:76:cd:e7:b3:a3:0a:1e:dd:4a:07:82:17:81:ba:
                    de:57:ce:b6:32:81:c7:bd:11:bb:e9:15:22:4e:e2:
                    16:ac:e3:d4:c0:68:88:6c:11:fc:c2:bd:1b:db:1d:
                    fd:e6:43:c7:1b:33:b8:f4:e5:1b:59:39:12:38:4d:
                    2d:9b:64:68:98:fc:8d:72:12:91:f2:24:25:6c:4c:
                    4a:48:57:92:00:cc:7e:d8:d4:3d:b8:1d:f2:9e:ea:
                    b2:23:0f:51:0f:11:41:1c:f5:27:00:1b:08:7a:12:
                    3a:05:5b:03:24:fe:b1:7b:20:fa:e4:a8:58:c6:ca:
                    ce:7f:be:95:01:12:9d:05:e6:39:13:1b:c0:3e:56:
                    2e:2b:9f:76:37:de:de:9b:e0:0d:7a:63:0d:a7:22:
                    58:db:31:c7:f7:b4:46:5c:ba:b6:4b:48:b1:18:9a:
                    68:b3:63:47:fd:af:12:5f:2f:fe:10:cb:58:2b:33:
                    68:85
                Exponent: 65537 (0x10001)
        X509v3 extensions:
            X509v3 Subject Key Identifier: 
                D8:09:2B:59:E1:2A:EE:D9:EE:40:AA:9C:AB:F0:5D:28:09:4F:22:BB
            X509v3 Authority Key Identifier: 
                keyid:27:8E:67:11:74:C3:26:1D:3F:ED:33:63:B3:A4:D8:1D:30:E5:E8:D5
                DirName:/C=US/ST=Montana/L=Bozeman/O=Sawtooth/OU=Consulting/CN=www.wolfssl.com/emailAddress=info@wolfssl.com
                serial:3F:32:13:52:92:C6:DF:4A:D5:42:05:6C:B0:B2:2E:46:C2:F8:B8:67

            X509v3 Basic Constraints: 
                CA:TRUE
            X509v3 Subject Alternative Name: 
                DNS:example.com, IP Address:127.0.0.1
    Signature Algorithm: sha256WithRSAEncryption
         2a:87:0a:b1:f7:e4:eb:1a:f1:97:2a:61:24:34:d4:98:04:2c:
         d0:82:4f:d8:95:73:a9:85:34:2f:c0:a7:47:1f:88:ae:c5:22:
         98:55:9e:c7:24:09:60:b0:0c:f6:2a:12:99:cd:f9:eb:45:1b:
         b5:8a:c0:83:ff:8b:57:84:80:b7:ad:25:44:cf:6c:6e:64:19:
         ad:f8:56:56:db:72:62:7d:6f:1a:98:2e:d4:62:cf:56:72:91:
         b3:9f:49:1f:31:19:69:9f:46:a5:8f:bd:92:3e:75:b0:09:9e:
         aa:ad:57:fd:d9:55:55:36:d9:9d:a6:2e:eb:5c:8e:3d:a0:fb:
         84:6b:84:71:bd:3d:22:09:d1:6c:22:ee:33:91:eb:55:aa:b8:
         69:9b:6b:74:f5:73:99:9f:75:62:00:71:8a:48:18:22:19:82:
         cf:7a:db:96:a1:17:9a:00:72:51:55:b1:05:28:07:ff:de:26:
         c4:be:d8:43:45:bb:53:77:63:a5:bf:8e:1d:f3:2c:39:c1:c7:
         e9:97:5e:d1:10:ca:4b:48:af:27:40:ae:73:9f:bb:e0:b2:0e:
         8b:31:f9:de:33:a2:cf:43:19:6e:f6:82:e3:62:c9:c7:9d:22:
         eb:f3:f8:a2:cf:f4:77:7e:60:51:ad:81:12:d3:61:b4:dd:90:
         3a:70:1d:a5
-----BEGIN CERTIFICATE-----
MIIE2TCCA8GgAwIBAgIBAjANBgkqhkiG9w0BAQsFADCBlDELMAkGA1UEBhMCVVMx
EDAOBgNVBAgMB01vbnRhbmExEDAOBgNVBAcMB0JvemVtYW4xETAPBgNVBAoMCFNh
d3Rvb3RoMRMwEQYDVQQLDApDb25zdWx0aW5nMRgwFgYDVQQDDA93d3cud29sZnNz
bC5jb20xHzAdBgkqhkiG9w0BCQEWEGluZm9Ad29sZnNzbC5jb20wHhcNMjAwNTA3
MDczOTA0WhcNMjMwMjAxMDczOTA0WjCBoDELMAkGA1UEBhMCVVMxEDAOBgNVBAgM
B01vbnRhbmExEDAOBgNVBAcMB0JvemVtYW4xGDAWBgNVBAoMD3dvbGZTU0xfcmV2
b2tlZDEYMBYGA1UECwwPU3VwcG9ydF9yZXZva2VkMRgwFgYDVQQDDA93d3cud29s
ZnNzbC5jb20xHzAdBgkqhkiG9w0BCQEWEGluZm9Ad29sZnNzbC5jb20wggEiMA0G
CSqGSIb3DQEBAQUAA4IBDwAwggEKAoIBAQCwFBY6Q93hUEVPz4Cz3WaWx+n03N62
ayQbdkisxiOlp+QFGb239t76/+1bPHmKqdXx++vIseSyq1JyiZMiXLrNijYqLNFA
7KhmDsN2zeezowoe3UoHgheBut5XzrYygce9EbvpFSJO4has49TAaIhsEfzCvRvb
Hf3mQ8cbM7j05RtZORI4TS2bZGiY/I1yEpHyJCVsTEpIV5IAzH7Y1D24HfKe6rIj
D1EPEUEc9ScAGwh6EjoFWwMk/rF7IPrkqFjGys5/vpUBEp0F5jkTG8A+Vi4rn3Y3
3t6b4A16Yw2nIljbMcf3tEZcurZLSLEYmmizY0f9rxJfL/4Qy1grM2iFAgMBAAGj
ggEmMIIBIjAdBgNVHQ4EFgQU2AkrWeEq7tnuQKqcq/BdKAlPIrswgdQGA1UdIwSB
zDCByYAUJ45nEXTDJh0/7TNjs6TYHTDl6NWhgZqkgZcwgZQxCzAJBgNVBAYTAlVT
MRAwDgYDVQQIDAdNb250YW5hMRAwDgYDVQQHDAdCb3plbWFuMREwDwYDVQQKDAhT
YXd0b290aDETMBEGA1UECwwKQ29uc3VsdGluZzEYMBYGA1UEAwwPd3d3LndvbGZz
c2wuY29tMR8wHQYJKoZIhvcNAQkBFhBpbmZvQHdvbGZzc2wuY29tghQ/MhNSksbf
StVCBWywsi5Gwvi4ZzAMBgNVHRMEBTADAQH/MBwGA1UdEQQVMBOCC2V4YW1wbGUu
Y29thwR/AAABMA0GCSqGSIb3DQEBCwUAA4IBAQAqhwqx9+TrGvGXKmEkNNSYBCzQ
gk/YlXOphTQvwKdHH4iuxSKYVZ7HJAlgsAz2KhKZzfnrRRu1isCD/4tXhIC3rSVE
z2xuZBmt+FZW23JifW8amC7UYs9WcpGzn0kfMRlpn0alj72SPnWwCZ6qrVf92VVV
Ntmdpi7rXI49oPuEa4RxvT0iCdFsIu4zketVqrhpm2t09XOZn3ViAHGKSBgiGYLP
etuWoReaAHJRVbEFKAf/3ibEvthDRbtTd2Olv44d8yw5wcfpl17REMpLSK8nQK5z
n7vgsg6LMfneM6LPQxlu9oLjYsnHnSLr8/iiz/R3fmBRrYES02G03ZA6cB2l
-----END CERTIFICATE-----
Certificate:
    Data:
        Version: 3 (0x2)
        Serial Number:
            3f:32:13:52:92:c6:df:4a:d5:42:05:6c:b0:b2:2e:46:c2:f8:b8:67
        Signature Algorithm: sha256WithRSAEncryption
        Issuer: C = US, ST = Montana, L = Bozeman, O = Sawtooth, OU = Consulting, CN = www.wolfssl.com, emailAddress = info@wolfssl.com
        Validity
            Not Before: May  7 07:39:04 2020 GMT
            Not After : Feb  1 07:39:04 2023 GMT
        Subject: C = US, ST = Montana, L = Bozeman, O = Sawtooth, OU = Consulting, CN = www.wolfssl.com, emailAddress = info@wolfssl.com
        Subject Public Key Info:
            Public Key Algorithm: rsaEncryption
                RSA Public-Key: (2048 bit)
                Modulus:
                    00:bf:0c:ca:2d:14:b2:1e:84:42:5b:cd:38:1f:4a:
                    f2:4d:75:10:f1:b6:35:9f:df:ca:7d:03:98:d3:ac:
                    de:03:66:ee:2a:f1:d8:b0:7d:6e:07:54:0b:10:98:
                    21:4d:80:cb:12:20:e7:cc:4f:de:45:7d:c9:72:77:
                    32:ea:ca:90:bb:69:52:10:03:2f:a8:f3:95:c5:f1:
                    8b:62:56:1b:ef:67:6f:a4:10:41:95:ad:0a:9b:e3:
                    a5:c0:b0:d2:70:76:50:30:5b:a8:e8:08:2c:7c:ed:
                    a7:a2:7a:8d:38:29:1c:ac:c7:ed:f2:7c:95:b0:95:
                    82:7d:49:5c:38:cd:77:25:ef:bd:80:75:53:94:3c:
                    3d:ca:63:5b:9f:15:b5:d3:1d:13:2f:19:d1:3c:db:
                    76:3a:cc:b8:7d:c9:e5:c2:d7:da:40:6f:d8:21:dc:
                    73:1b:42:2d:53:9c:fe:1a:fc:7d:ab:7a:36:3f:98:
                    de:84:7c:05:67:ce:6a:14:38:87:a9:f1:8c:b5:68:
                    cb:68:7f:71:20:2b:f5:a0:63:f5:56:2f:a3:26:d2:
                    b7:6f:b1:5a:17:d7:38:99:08:fe:93:58:6f:fe:c3:
                    13:49:08:16:0b:a7:4d:67:00:52:31:67:23:4e:98:
                    ed:51:45:1d:b9:04:d9:0b:ec:d8:28:b3:4b:bd:ed:
                    36:79
                Exponent: 65537 (0x10001)
        X509v3 extensions:
            X509v3 Subject Key Identifier: 
                27:8E:67:11:74:C3:26:1D:3F:ED:33:63:B3:A4:D8:1D:30:E5:E8:D5
            X509v3 Authority Key Identifier: 
                keyid:27:8E:67:11:74:C3:26:1D:3F:ED:33:63:B3:A4:D8:1D:30:E5:E8:D5
                DirName:/C=US/ST=Montana/L=Bozeman/O=Sawtooth/OU=Consulting/CN=www.wolfssl.com/emailAddress=info@wolfssl.com
                serial:3F:32:13:52:92:C6:DF:4A:D5:42:05:6C:B0:B2:2E:46:C2:F8:B8:67

            X509v3 Basic Constraints: 
                CA:TRUE
            X509v3 Subject Alternative Name: 
                DNS:example.com, IP Address:127.0.0.1
    Signature Algorithm: sha256WithRSAEncryption
         b0:7b:84:c9:1f:41:97:b8:03:14:0f:59:5b:6f:2c:15:45:1b:
         c4:02:6f:d9:92:e7:1a:dc:cc:db:0e:56:3d:59:db:71:f2:f1:
         08:9a:06:eb:ab:c5:25:9f:df:6a:6d:6e:6b:d0:a8:90:39:d9:
         48:6f:61:7f:bd:cd:ed:60:8b:e3:6c:23:52:b7:86:bc:2a:ff:
         90:f7:6d:5c:47:69:f3:8d:ee:9e:76:62:5c:7b:b3:22:e5:4e:
         ce:26:f6:3f:2f:b7:00:8c:20:d2:71:f6:31:4e:e1:4d:03:b9:
         f3:07:dd:04:a7:a6:9a:9c:b0:2e:99:0a:a7:fc:59:97:63:a5:
         7c:77:dd:77:61:a6:86:6a:b2:32:33:06:b4:bc:ca:ae:c2:c7:
         8e:dc:85:dc:ac:c2:e7:2b:fb:b9:50:6b:d4:5b:0f:6d:93:a9:
         51:d2:dd:75:5e:88:ae:bc:ca:40:c7:2b:e9:5e:5b:a7:cf:e2:
         e2:5d:0b:c9:69:20:d3:41:5a:7a:b9:14:17:f1:85:d7:b9:17:
         b0:ad:ca:17:6c:38:8d:73:8d:74:25:01:70:c1:34:cf:62:02:
         48:9a:56:d8:44:a4:0d:e7:32:a0:b0:4b:c5:a4:9b:95:66:00:
         fa:7e:97:0a:6b:08:ec:a0:9f:3f:90:99:57:39:63:81:76:f7:
         ed:ea:01:1d
-----BEGIN CERTIFICATE-----
MIIE4DCCA8igAwIBAgIUPzITUpLG30rVQgVssLIuRsL4uGcwDQYJKoZIhvcNAQEL
BQAwgZQxCzAJBgNVBAYTAlVTMRAwDgYDVQQIDAdNb250YW5hMRAwDgYDVQQHDAdC
b3plbWFuMREwDwYDVQQKDAhTYXd0b290aDETMBEGA1UECwwKQ29uc3VsdGluZzEY
MBYGA1UEAwwPd3d3LndvbGZzc2wuY29tMR8wHQYJKoZIhvcNAQkBFhBpbmZvQHdv
bGZzc2wuY29tMB4XDTIwMDUwNzA3MzkwNFoXDTIzMDIwMTA3MzkwNFowgZQxCzAJ
BgNVBAYTAlVTMRAwDgYDVQQIDAdNb250YW5hMRAwDgYDVQQHDAdCb3plbWFuMREw
DwYDVQQKDAhTYXd0b290aDETMBEGA1UECwwKQ29uc3VsdGluZzEYMBYGA1UEAwwP
d3d3LndvbGZzc2wuY29tMR8wHQYJKoZIhvcNAQkBFhBpbmZvQHdvbGZzc2wuY29t
MIIBIjANBgkqhkiG9w0BAQEFAAOCAQ8AMIIBCgKCAQEAvwzKLRSyHoRCW804H0ry
TXUQ8bY1n9/KfQOY06zeA2buKvHYsH1uB1QLEJghTYDLEiDnzE/eRX3Jcncy6sqQ
u2lSEAMvqPOVxfGLYlYb72dvpBBBla0Km+OlwLDScHZQMFuo6AgsfO2nonqNOCkc
rMft8nyVsJWCfUlcOM13Je+9gHVTlDw9ymNbnxW10x0TLxnRPNt2Osy4fcnlwtfa
QG/YIdxzG0ItU5z+Gvx9q3o2P5jehHwFZ85qFDiHqfGMtWjLaH9xICv1oGP1Vi+j
JtK3b7FaF9c4mQj+k1hv/sMTSQgWC6dNZwBSMWcjTpjtUUUduQTZC+zYKLNLve02
eQIDAQABo4IBJjCCASIwHQYDVR0OBBYEFCeOZxF0wyYdP+0zY7Ok2B0w5ejVMIHU
BgNVHSMEgcwwgcmAFCeOZxF0wyYdP+0zY7Ok2B0w5ejVoYGapIGXMIGUMQswCQYD
VQQGEwJVUzEQMA4GA1UECAwHTW9udGFuYTEQMA4GA1UEBwwHQm96ZW1hbjERMA8G
A1UECgwIU2F3dG9vdGgxEzARBgNVBAsMCkNvbnN1bHRpbmcxGDAWBgNVBAMMD3d3
dy53b2xmc3NsLmNvbTEfMB0GCSqGSIb3DQEJARYQaW5mb0B3b2xmc3NsLmNvbYIU
PzITUpLG30rVQgVssLIuRsL4uGcwDAYDVR0TBAUwAwEB/zAcBgNVHREEFTATggtl
eGFtcGxlLmNvbYcEfwAAATANBgkqhkiG9w0BAQsFAAOCAQEAsHuEyR9Bl7gDFA9Z
W28sFUUbxAJv2ZLnGtzM2w5WPVnbcfLxCJoG66vFJZ/fam1ua9CokDnZSG9hf73N
7WCL42wjUreGvCr/kPdtXEdp843unnZiXHuzIuVOzib2Py+3AIwg0nH2MU7hTQO5
8wfdBKemmpywLpkKp/xZl2OlfHfdd2GmhmqyMjMGtLzKrsLHjtyF3KzC5yv7uVBr
1FsPbZOpUdLddV6IrrzKQMcr6V5bp8/i4l0LyWkg00FaerkUF/GF17kXsK3KF2w4
jXONdCUBcME0z2ICSJpW2ESkDecyoLBLxaSblWYA+n6XCmsI7KCfP5CZVzljgXb3
7eoBHQ==
-----END CERTIFICATE-----
