Certificate:
    Data:
        Version: 3 (0x2)
        Serial Number: 1 (0x1)
        Signature Algorithm: sha256WithRSAEncryption
        Issuer: C=US, ST=Montana, L=Bozeman, O=Sawtooth, OU=Consulting, CN=www.wolfssl.com, emailAddress=facts@wolfssl.com
        Validity
            Not Before: Jun 11 21:44:29 2026 GMT
            Not After : Mar  7 21:44:29 2029 GMT
        Subject: C=US, ST=Montana, L=Bozeman, O=Elliptic - RSAsig, OU=ECC-RSAsig, CN=www.wolfssl.com, emailAddress=facts@wolfssl.com
        Subject Public Key Info:
            Public Key Algorithm: id-ecPublicKey
                Public-Key: (256 bit)
                pub:
                    04:bb:33:ac:4c:27:50:4a:c6:4a:a5:04:c3:3c:de:
                    9f:36:db:72:2d:ce:94:ea:2b:fa:cb:20:09:39:2c:
                    16:e8:61:02:e9:af:4d:d3:02:93:9a:31:5b:97:92:
                    21:7f:f0:cf:18:da:91:11:02:34:86:e8:20:58:33:
                    0b:80:34:89:d8
                ASN1 OID: prime256v1
                NIST CURVE: P-256
        X509v3 extensions:
            X509v3 Subject Key Identifier: 
                5D:5D:26:EF:AC:7E:36:F9:9B:76:15:2B:4A:25:02:23:EF:B2:89:30
            X509v3 Authority Key Identifier: 
                keyid:27:8E:67:11:74:C3:26:1D:3F:ED:33:63:B3:A4:D8:1D:30:E5:E8:D5
                DirName:/C=US/ST=Montana/L=Bozeman/O=Sawtooth/OU=Consulting/CN=www.wolfssl.com/emailAddress=facts@wolfssl.com
                serial:67:19:D2:A8:7F:E3:2D:FA:75:7A:4F:E7:B2:02:D9:AD:C4:77:5E:F8
            X509v3 Basic Constraints: 
                CA:TRUE
            X509v3 Subject Alternative Name: 
                DNS:example.com, IP Address:127.0.0.1
            X509v3 Extended Key Usage: 
                TLS Web Server Authentication, TLS Web Client Authentication
    Signature Algorithm: sha256WithRSAEncryption
    Signature Value:
        b0:14:95:3b:d4:62:6f:36:45:82:20:27:3e:90:b2:4c:f7:f7:
        be:1a:e3:a3:ea:13:f8:b9:4c:45:9b:11:2e:f7:f6:da:78:86:
        d8:ce:0c:1a:d1:0a:5a:99:6d:46:79:c2:d7:59:bd:5a:b6:48:
        e7:94:1e:7e:5d:dc:82:4a:0d:25:b4:f0:2c:e0:69:81:d5:f5:
        d4:4d:97:5e:a9:87:36:bc:c9:14:80:39:5f:29:96:8e:5a:6d:
        65:b9:01:44:9a:bf:ca:7c:de:53:b9:ba:6b:02:9e:ce:03:17:
        c7:d5:60:01:39:a5:c5:86:e1:cc:7c:49:a3:1c:e7:31:75:16:
        66:8d:a3:96:c2:ff:c4:fe:9b:13:83:44:a8:3c:41:bf:2c:af:
        3e:a1:da:ac:f6:76:08:6a:fd:2a:12:aa:f4:66:e6:05:92:1b:
        2c:48:18:91:b6:3f:e6:ff:6a:19:77:e7:f3:42:af:f4:35:f5:
        72:ac:8d:ec:cb:e9:92:ec:f2:89:a9:33:63:a4:da:1e:3e:f3:
        c8:98:8f:e8:75:e1:7f:55:d4:29:20:9f:72:c5:bb:87:7d:fb:
        0f:b1:df:07:c2:bc:1c:db:16:29:3b:28:12:53:45:d1:cd:31:
        38:46:15:c2:5e:6b:60:a1:79:a5:cd:15:98:a4:e9:e4:1c:a9:
        bb:f2:10:ae
-----BEGIN CERTIFICATE-----
MIIELTCCAxWgAwIBAgIBATANBgkqhkiG9w0BAQsFADCBlTELMAkGA1UEBhMCVVMx
EDAOBgNVBAgMB01vbnRhbmExEDAOBgNVBAcMB0JvemVtYW4xETAPBgNVBAoMCFNh
d3Rvb3RoMRMwEQYDVQQLDApDb25zdWx0aW5nMRgwFgYDVQQDDA93d3cud29sZnNz
bC5jb20xIDAeBgkqhkiG9w0BCQEWEWZhY3RzQHdvbGZzc2wuY29tMB4XDTI2MDYx
MTIxNDQyOVoXDTI5MDMwNzIxNDQyOVowgZ4xCzAJBgNVBAYTAlVTMRAwDgYDVQQI
DAdNb250YW5hMRAwDgYDVQQHDAdCb3plbWFuMRowGAYDVQQKDBFFbGxpcHRpYyAt
IFJTQXNpZzETMBEGA1UECwwKRUNDLVJTQXNpZzEYMBYGA1UEAwwPd3d3LndvbGZz
c2wuY29tMSAwHgYJKoZIhvcNAQkBFhFmYWN0c0B3b2xmc3NsLmNvbTBZMBMGByqG
SM49AgEGCCqGSM49AwEHA0IABLszrEwnUErGSqUEwzzenzbbci3OlOor+ssgCTks
FuhhAumvTdMCk5oxW5eSIX/wzxjakRECNIboIFgzC4A0idijggFGMIIBQjAdBgNV
HQ4EFgQUXV0m76x+NvmbdhUrSiUCI++yiTAwgdUGA1UdIwSBzTCByoAUJ45nEXTD
Jh0/7TNjs6TYHTDl6NWhgZukgZgwgZUxCzAJBgNVBAYTAlVTMRAwDgYDVQQIDAdN
b250YW5hMRAwDgYDVQQHDAdCb3plbWFuMREwDwYDVQQKDAhTYXd0b290aDETMBEG
A1UECwwKQ29uc3VsdGluZzEYMBYGA1UEAwwPd3d3LndvbGZzc2wuY29tMSAwHgYJ
KoZIhvcNAQkBFhFmYWN0c0B3b2xmc3NsLmNvbYIUZxnSqH/jLfp1ek/nsgLZrcR3
XvgwDAYDVR0TBAUwAwEB/zAcBgNVHREEFTATggtleGFtcGxlLmNvbYcEfwAAATAd
BgNVHSUEFjAUBggrBgEFBQcDAQYIKwYBBQUHAwIwDQYJKoZIhvcNAQELBQADggEB
ALAUlTvUYm82RYIgJz6Qskz3974a46PqE/i5TEWbES739tp4htjODBrRClqZbUZ5
wtdZvVq2SOeUHn5d3IJKDSW08CzgaYHV9dRNl16phza8yRSAOV8plo5abWW5AUSa
v8p83lO5umsCns4DF8fVYAE5pcWG4cx8SaMc5zF1FmaNo5bC/8T+mxODRKg8Qb8s
rz6h2qz2dghq/SoSqvRm5gWSGyxIGJG2P+b/ahl35/NCr/Q19XKsjezL6ZLs8omp
M2Ok2h4+88iYj+h14X9V1Ckgn3LFu4d9+w+x3wfCvBzbFik7KBJTRdHNMThGFcJe
a2CheaXNFZik6eQcqbvyEK4=
-----END CERTIFICATE-----
