Certificate:
    Data:
        Version: 3 (0x2)
        Serial Number: 11822929415875787476 (0xa4137ba9c5cafad4)
    Signature Algorithm: ecdsa-with-SHA256
        Issuer: C=US, ST=Montana, L=Bozeman, O=Elliptic - comp, OU=Server ECC-comp, CN=www.wolfssl.com/emailAddress=info@wolfssl.com
        Validity
            Not Before: Nov 23 12:49:37 2015 GMT
            Not After : Aug 19 12:49:37 2018 GMT
        Subject: C=US, ST=Montana, L=Bozeman, O=Elliptic - comp, OU=Server ECC-comp, CN=www.wolfssl.com/emailAddress=info@wolfssl.com
        Subject Public Key Info:
            Public Key Algorithm: id-ecPublicKey
                Public-Key: (256 bit)
                pub: 
                    02:bb:33:ac:4c:27:50:4a:c6:4a:a5:04:c3:3c:de:
                    9f:36:db:72:2d:ce:94:ea:2b:fa:cb:20:09:39:2c:
                    16:e8:61
                ASN1 OID: prime256v1
        X509v3 extensions:
            X509v3 Subject Key Identifier: 
                8C:38:3A:6B:B8:24:B7:DF:6E:F4:59:AC:56:4E:AA:E2:58:A6:5A:18
            X509v3 Authority Key Identifier: 
                keyid:8C:38:3A:6B:B8:24:B7:DF:6E:F4:59:AC:56:4E:AA:E2:58:A6:5A:18
                DirName:/C=US/ST=Montana/L=Bozeman/O=Elliptic - comp/OU=Server ECC-comp/CN=www.wolfssl.com/emailAddress=info@wolfssl.com
                serial:A4:13:7B:A9:C5:CA:FA:D4

            X509v3 Basic Constraints: 
                CA:TRUE
            Authority Information Access: 
                OCSP - URI:http://localhost:22222

    Signature Algorithm: ecdsa-with-SHA256
         30:44:02:20:49:71:5d:49:af:24:71:91:d3:64:0f:f2:bd:be:
         51:47:4e:5b:04:c4:04:fe:bf:16:73:d1:7a:a5:05:fe:19:99:
         02:20:2c:ab:64:34:e8:c7:7b:c7:79:38:32:64:d9:e1:1b:e8:
         1e:d6:31:67:ef:e2:67:4b:e3:86:7f:94:cb:fa:d2:d4
-----BEGIN CERTIFICATE-----
MIIDVzCCAv6gAwIBAgIJAKQTe6nFyvrUMAoGCCqGSM49BAMCMIGgMQswCQYDVQQG
EwJVUzEQMA4GA1UECAwHTW9udGFuYTEQMA4GA1UEBwwHQm96ZW1hbjEYMBYGA1UE
CgwPRWxsaXB0aWMgLSBjb21wMRgwFgYDVQQLDA9TZXJ2ZXIgRUNDLWNvbXAxGDAW
BgNVBAMMD3d3dy53b2xmc3NsLmNvbTEfMB0GCSqGSIb3DQEJARYQaW5mb0B3b2xm
c3NsLmNvbTAeFw0xNTExMjMxMjQ5MzdaFw0xODA4MTkxMjQ5MzdaMIGgMQswCQYD
VQQGEwJVUzEQMA4GA1UECAwHTW9udGFuYTEQMA4GA1UEBwwHQm96ZW1hbjEYMBYG
A1UECgwPRWxsaXB0aWMgLSBjb21wMRgwFgYDVQQLDA9TZXJ2ZXIgRUNDLWNvbXAx
GDAWBgNVBAMMD3d3dy53b2xmc3NsLmNvbTEfMB0GCSqGSIb3DQEJARYQaW5mb0B3
b2xmc3NsLmNvbTA5MBMGByqGSM49AgEGCCqGSM49AwEHAyIAArszrEwnUErGSqUE
wzzenzbbci3OlOor+ssgCTksFuhho4IBPTCCATkwHQYDVR0OBBYEFIw4Omu4JLff
bvRZrFZOquJYploYMIHVBgNVHSMEgc0wgcqAFIw4Omu4JLffbvRZrFZOquJYploY
oYGmpIGjMIGgMQswCQYDVQQGEwJVUzEQMA4GA1UECAwHTW9udGFuYTEQMA4GA1UE
BwwHQm96ZW1hbjEYMBYGA1UECgwPRWxsaXB0aWMgLSBjb21wMRgwFgYDVQQLDA9T
ZXJ2ZXIgRUNDLWNvbXAxGDAWBgNVBAMMD3d3dy53b2xmc3NsLmNvbTEfMB0GCSqG
SIb3DQEJARYQaW5mb0B3b2xmc3NsLmNvbYIJAKQTe6nFyvrUMAwGA1UdEwQFMAMB
Af8wMgYIKwYBBQUHAQEEJjAkMCIGCCsGAQUFBzABhhZodHRwOi8vbG9jYWxob3N0
OjIyMjIyMAoGCCqGSM49BAMCA0cAMEQCIElxXUmvJHGR02QP8r2+UUdOWwTEBP6/
FnPReqUF/hmZAiAsq2Q06Md7x3k4MmTZ4RvoHtYxZ+/iZ0vjhn+Uy/rS1A==
-----END CERTIFICATE-----
