Certificate:
    Data:
        Version: 3 (0x2)
        Serial Number: 2 (0x2)
        Signature Algorithm: sha256WithRSAEncryption
        Issuer: C = US, ST = Montana, L = Bozeman, O = Sawtooth, OU = Consulting, CN = www.wolfssl.com, emailAddress = info@wolfssl.com
        Validity
            Not Before: Feb 15 12:50:24 2022 GMT
            Not After : Nov 11 12:50:24 2024 GMT
        Subject: C = US, ST = Montana, L = Bozeman, O = wolfSSL_revoked, OU = Support_revoked, CN = www.wolfssl.com, emailAddress = info@wolfssl.com
        Subject Public Key Info:
            Public Key Algorithm: rsaEncryption
                RSA Public-Key: (2048 bit)
                Modulus:
                    00:b0:14:16:3a:43:dd:e1:50:45:4f:cf:80:b3:dd:
                    66:96:c7:e9:f4:dc:de:b6:6b:24:1b:76:48:ac:c6:
                    23:a5:a7:e4:05:19:bd:b7:f6:de:fa:ff:ed:5b:3c:
                    79:8a:a9:d5:f1:fb:eb:c8:b1:e4:b2:ab:52:72:89:
                    93:22:5c:ba:cd:8a:36:2a:2c:d1:40:ec:a8:66:0e:
                    c3:76:cd:e7:b3:a3:0a:1e:dd:4a:07:82:17:81:ba:
                    de:57:ce:b6:32:81:c7:bd:11:bb:e9:15:22:4e:e2:
                    16:ac:e3:d4:c0:68:88:6c:11:fc:c2:bd:1b:db:1d:
                    fd:e6:43:c7:1b:33:b8:f4:e5:1b:59:39:12:38:4d:
                    2d:9b:64:68:98:fc:8d:72:12:91:f2:24:25:6c:4c:
                    4a:48:57:92:00:cc:7e:d8:d4:3d:b8:1d:f2:9e:ea:
                    b2:23:0f:51:0f:11:41:1c:f5:27:00:1b:08:7a:12:
                    3a:05:5b:03:24:fe:b1:7b:20:fa:e4:a8:58:c6:ca:
                    ce:7f:be:95:01:12:9d:05:e6:39:13:1b:c0:3e:56:
                    2e:2b:9f:76:37:de:de:9b:e0:0d:7a:63:0d:a7:22:
                    58:db:31:c7:f7:b4:46:5c:ba:b6:4b:48:b1:18:9a:
                    68:b3:63:47:fd:af:12:5f:2f:fe:10:cb:58:2b:33:
                    68:85
                Exponent: 65537 (0x10001)
        X509v3 extensions:
            X509v3 Subject Key Identifier: 
                D8:09:2B:59:E1:2A:EE:D9:EE:40:AA:9C:AB:F0:5D:28:09:4F:22:BB
            X509v3 Authority Key Identifier: 
                keyid:27:8E:67:11:74:C3:26:1D:3F:ED:33:63:B3:A4:D8:1D:30:E5:E8:D5
                DirName:/C=US/ST=Montana/L=Bozeman/O=Sawtooth/OU=Consulting/CN=www.wolfssl.com/emailAddress=info@wolfssl.com
                serial:26:8C:93:F9:F9:F4:1E:B3:01:72:94:55:67:6D:E2:F8:3D:DA:E9:F4

            X509v3 Basic Constraints: 
                CA:TRUE
            X509v3 Subject Alternative Name: 
                DNS:example.com, IP Address:127.0.0.1
            X509v3 Extended Key Usage: 
                TLS Web Server Authentication, TLS Web Client Authentication
    Signature Algorithm: sha256WithRSAEncryption
         9c:53:5a:92:97:4e:01:a6:a7:62:73:c9:97:f0:51:c3:e3:af:
         b1:3b:5f:d8:08:f3:67:ab:04:26:21:88:2a:50:c6:80:0d:de:
         fc:e3:fe:71:a3:08:8a:92:f7:74:ea:06:cb:da:7a:55:af:06:
         17:03:93:6b:a6:c2:3f:00:66:1a:e0:be:6f:df:34:20:92:13:
         16:c4:a5:06:66:16:4e:67:22:41:7a:b3:e2:ee:43:28:41:18:
         47:59:16:52:84:66:15:a6:2a:d3:a1:31:9c:09:70:92:11:a8:
         3b:b9:8c:c5:95:c8:61:b3:48:5a:fa:2a:9b:17:0c:b3:b7:7c:
         ea:90:8f:82:43:db:b3:fa:64:4c:33:98:20:84:8c:57:8d:64:
         64:99:4d:2f:a1:8d:62:72:1d:dc:21:4c:d5:9a:3b:08:d5:27:
         7a:a9:45:3c:40:41:2a:3b:eb:15:27:9c:92:88:b8:23:5b:f5:
         ab:83:7d:d2:33:0f:c4:79:89:f7:84:74:3c:da:87:da:eb:68:
         d1:49:a1:b3:30:0c:27:a3:2b:55:38:fb:a9:ba:2d:6c:79:fa:
         96:64:b6:48:db:b7:8b:73:f1:87:3f:6a:23:2c:9b:5a:18:4c:
         7d:b1:40:54:22:6a:0f:5e:80:01:bb:b8:87:4e:cb:03:70:7d:
         24:61:bd:fe
-----BEGIN CERTIFICATE-----
MIIE+DCCA+CgAwIBAgIBAjANBgkqhkiG9w0BAQsFADCBlDELMAkGA1UEBhMCVVMx
EDAOBgNVBAgMB01vbnRhbmExEDAOBgNVBAcMB0JvemVtYW4xETAPBgNVBAoMCFNh
d3Rvb3RoMRMwEQYDVQQLDApDb25zdWx0aW5nMRgwFgYDVQQDDA93d3cud29sZnNz
bC5jb20xHzAdBgkqhkiG9w0BCQEWEGluZm9Ad29sZnNzbC5jb20wHhcNMjIwMjE1
MTI1MDI0WhcNMjQxMTExMTI1MDI0WjCBoDELMAkGA1UEBhMCVVMxEDAOBgNVBAgM
B01vbnRhbmExEDAOBgNVBAcMB0JvemVtYW4xGDAWBgNVBAoMD3dvbGZTU0xfcmV2
b2tlZDEYMBYGA1UECwwPU3VwcG9ydF9yZXZva2VkMRgwFgYDVQQDDA93d3cud29s
ZnNzbC5jb20xHzAdBgkqhkiG9w0BCQEWEGluZm9Ad29sZnNzbC5jb20wggEiMA0G
CSqGSIb3DQEBAQUAA4IBDwAwggEKAoIBAQCwFBY6Q93hUEVPz4Cz3WaWx+n03N62
ayQbdkisxiOlp+QFGb239t76/+1bPHmKqdXx++vIseSyq1JyiZMiXLrNijYqLNFA
7KhmDsN2zeezowoe3UoHgheBut5XzrYygce9EbvpFSJO4has49TAaIhsEfzCvRvb
Hf3mQ8cbM7j05RtZORI4TS2bZGiY/I1yEpHyJCVsTEpIV5IAzH7Y1D24HfKe6rIj
D1EPEUEc9ScAGwh6EjoFWwMk/rF7IPrkqFjGys5/vpUBEp0F5jkTG8A+Vi4rn3Y3
3t6b4A16Yw2nIljbMcf3tEZcurZLSLEYmmizY0f9rxJfL/4Qy1grM2iFAgMBAAGj
ggFFMIIBQTAdBgNVHQ4EFgQU2AkrWeEq7tnuQKqcq/BdKAlPIrswgdQGA1UdIwSB
zDCByYAUJ45nEXTDJh0/7TNjs6TYHTDl6NWhgZqkgZcwgZQxCzAJBgNVBAYTAlVT
MRAwDgYDVQQIDAdNb250YW5hMRAwDgYDVQQHDAdCb3plbWFuMREwDwYDVQQKDAhT
YXd0b290aDETMBEGA1UECwwKQ29uc3VsdGluZzEYMBYGA1UEAwwPd3d3LndvbGZz
c2wuY29tMR8wHQYJKoZIhvcNAQkBFhBpbmZvQHdvbGZzc2wuY29tghQmjJP5+fQe
swFylFVnbeL4Pdrp9DAMBgNVHRMEBTADAQH/MBwGA1UdEQQVMBOCC2V4YW1wbGUu
Y29thwR/AAABMB0GA1UdJQQWMBQGCCsGAQUFBwMBBggrBgEFBQcDAjANBgkqhkiG
9w0BAQsFAAOCAQEAnFNakpdOAaanYnPJl/BRw+OvsTtf2AjzZ6sEJiGIKlDGgA3e
/OP+caMIipL3dOoGy9p6Va8GFwOTa6bCPwBmGuC+b980IJITFsSlBmYWTmciQXqz
4u5DKEEYR1kWUoRmFaYq06ExnAlwkhGoO7mMxZXIYbNIWvoqmxcMs7d86pCPgkPb
s/pkTDOYIISMV41kZJlNL6GNYnId3CFM1Zo7CNUneqlFPEBBKjvrFSeckoi4I1v1
q4N90jMPxHmJ94R0PNqH2uto0UmhszAMJ6MrVTj7qbotbHn6lmS2SNu3i3Pxhz9q
IyybWhhMfbFAVCJqD16AAbu4h07LA3B9JGG9/g==
-----END CERTIFICATE-----
Certificate:
    Data:
        Version: 3 (0x2)
        Serial Number:
            26:8c:93:f9:f9:f4:1e:b3:01:72:94:55:67:6d:e2:f8:3d:da:e9:f4
        Signature Algorithm: sha256WithRSAEncryption
        Issuer: C = US, ST = Montana, L = Bozeman, O = Sawtooth, OU = Consulting, CN = www.wolfssl.com, emailAddress = info@wolfssl.com
        Validity
            Not Before: Feb 15 12:50:24 2022 GMT
            Not After : Nov 11 12:50:24 2024 GMT
        Subject: C = US, ST = Montana, L = Bozeman, O = Sawtooth, OU = Consulting, CN = www.wolfssl.com, emailAddress = info@wolfssl.com
        Subject Public Key Info:
            Public Key Algorithm: rsaEncryption
                RSA Public-Key: (2048 bit)
                Modulus:
                    00:bf:0c:ca:2d:14:b2:1e:84:42:5b:cd:38:1f:4a:
                    f2:4d:75:10:f1:b6:35:9f:df:ca:7d:03:98:d3:ac:
                    de:03:66:ee:2a:f1:d8:b0:7d:6e:07:54:0b:10:98:
                    21:4d:80:cb:12:20:e7:cc:4f:de:45:7d:c9:72:77:
                    32:ea:ca:90:bb:69:52:10:03:2f:a8:f3:95:c5:f1:
                    8b:62:56:1b:ef:67:6f:a4:10:41:95:ad:0a:9b:e3:
                    a5:c0:b0:d2:70:76:50:30:5b:a8:e8:08:2c:7c:ed:
                    a7:a2:7a:8d:38:29:1c:ac:c7:ed:f2:7c:95:b0:95:
                    82:7d:49:5c:38:cd:77:25:ef:bd:80:75:53:94:3c:
                    3d:ca:63:5b:9f:15:b5:d3:1d:13:2f:19:d1:3c:db:
                    76:3a:cc:b8:7d:c9:e5:c2:d7:da:40:6f:d8:21:dc:
                    73:1b:42:2d:53:9c:fe:1a:fc:7d:ab:7a:36:3f:98:
                    de:84:7c:05:67:ce:6a:14:38:87:a9:f1:8c:b5:68:
                    cb:68:7f:71:20:2b:f5:a0:63:f5:56:2f:a3:26:d2:
                    b7:6f:b1:5a:17:d7:38:99:08:fe:93:58:6f:fe:c3:
                    13:49:08:16:0b:a7:4d:67:00:52:31:67:23:4e:98:
                    ed:51:45:1d:b9:04:d9:0b:ec:d8:28:b3:4b:bd:ed:
                    36:79
                Exponent: 65537 (0x10001)
        X509v3 extensions:
            X509v3 Subject Key Identifier: 
                27:8E:67:11:74:C3:26:1D:3F:ED:33:63:B3:A4:D8:1D:30:E5:E8:D5
            X509v3 Authority Key Identifier: 
                keyid:27:8E:67:11:74:C3:26:1D:3F:ED:33:63:B3:A4:D8:1D:30:E5:E8:D5
                DirName:/C=US/ST=Montana/L=Bozeman/O=Sawtooth/OU=Consulting/CN=www.wolfssl.com/emailAddress=info@wolfssl.com
                serial:26:8C:93:F9:F9:F4:1E:B3:01:72:94:55:67:6D:E2:F8:3D:DA:E9:F4

            X509v3 Basic Constraints: 
                CA:TRUE
            X509v3 Subject Alternative Name: 
                DNS:example.com, IP Address:127.0.0.1
            X509v3 Extended Key Usage: 
                TLS Web Server Authentication, TLS Web Client Authentication
    Signature Algorithm: sha256WithRSAEncryption
         62:e4:1b:28:3c:9d:d2:60:a9:55:be:6a:f6:20:f2:da:e8:a1:
         1a:97:b1:90:77:82:ed:c7:77:29:53:33:18:10:62:e0:bd:93:
         1b:d2:d6:a1:80:43:1d:64:f1:42:92:ec:b7:b8:f0:6b:da:59:
         83:f4:b8:87:e6:fc:70:21:ea:62:32:70:68:14:0e:dc:b4:f1:
         66:e2:6e:ab:d2:72:6f:da:df:71:f6:3d:27:97:7d:be:e1:d1:
         ac:16:ad:d7:4f:aa:9d:0c:1e:6e:a9:5e:7d:57:5b:3c:c7:6d:
         d2:f2:5c:c3:dc:3d:36:99:8e:ab:c0:7f:13:a5:f4:67:8b:e2:
         a6:51:31:f1:03:91:00:a8:c4:c5:1d:7f:35:62:b8:1d:a0:a5:
         ab:ec:32:68:ee:f3:ca:48:16:9f:f4:1e:7e:ea:fa:b0:86:15:
         52:36:6c:4b:58:44:a7:eb:20:78:6e:7e:e8:00:40:ac:98:d8:
         53:f3:13:4b:b8:98:66:50:63:ed:af:e5:a4:f6:c9:90:1c:84:
         0a:09:45:2f:a1:e1:37:63:b5:43:8c:a0:2e:7f:c4:d4:e1:ae:
         b7:b9:45:13:f8:70:d5:79:06:4f:82:83:4b:98:d7:56:47:64:
         9a:6a:6d:8e:7a:9d:ef:83:0f:6b:75:0e:47:22:92:f3:b4:b2:
         84:61:1f:1c
-----BEGIN CERTIFICATE-----
MIIE/zCCA+egAwIBAgIUJoyT+fn0HrMBcpRVZ23i+D3a6fQwDQYJKoZIhvcNAQEL
BQAwgZQxCzAJBgNVBAYTAlVTMRAwDgYDVQQIDAdNb250YW5hMRAwDgYDVQQHDAdC
b3plbWFuMREwDwYDVQQKDAhTYXd0b290aDETMBEGA1UECwwKQ29uc3VsdGluZzEY
MBYGA1UEAwwPd3d3LndvbGZzc2wuY29tMR8wHQYJKoZIhvcNAQkBFhBpbmZvQHdv
bGZzc2wuY29tMB4XDTIyMDIxNTEyNTAyNFoXDTI0MTExMTEyNTAyNFowgZQxCzAJ
BgNVBAYTAlVTMRAwDgYDVQQIDAdNb250YW5hMRAwDgYDVQQHDAdCb3plbWFuMREw
DwYDVQQKDAhTYXd0b290aDETMBEGA1UECwwKQ29uc3VsdGluZzEYMBYGA1UEAwwP
d3d3LndvbGZzc2wuY29tMR8wHQYJKoZIhvcNAQkBFhBpbmZvQHdvbGZzc2wuY29t
MIIBIjANBgkqhkiG9w0BAQEFAAOCAQ8AMIIBCgKCAQEAvwzKLRSyHoRCW804H0ry
TXUQ8bY1n9/KfQOY06zeA2buKvHYsH1uB1QLEJghTYDLEiDnzE/eRX3Jcncy6sqQ
u2lSEAMvqPOVxfGLYlYb72dvpBBBla0Km+OlwLDScHZQMFuo6AgsfO2nonqNOCkc
rMft8nyVsJWCfUlcOM13Je+9gHVTlDw9ymNbnxW10x0TLxnRPNt2Osy4fcnlwtfa
QG/YIdxzG0ItU5z+Gvx9q3o2P5jehHwFZ85qFDiHqfGMtWjLaH9xICv1oGP1Vi+j
JtK3b7FaF9c4mQj+k1hv/sMTSQgWC6dNZwBSMWcjTpjtUUUduQTZC+zYKLNLve02
eQIDAQABo4IBRTCCAUEwHQYDVR0OBBYEFCeOZxF0wyYdP+0zY7Ok2B0w5ejVMIHU
BgNVHSMEgcwwgcmAFCeOZxF0wyYdP+0zY7Ok2B0w5ejVoYGapIGXMIGUMQswCQYD
VQQGEwJVUzEQMA4GA1UECAwHTW9udGFuYTEQMA4GA1UEBwwHQm96ZW1hbjERMA8G
A1UECgwIU2F3dG9vdGgxEzARBgNVBAsMCkNvbnN1bHRpbmcxGDAWBgNVBAMMD3d3
dy53b2xmc3NsLmNvbTEfMB0GCSqGSIb3DQEJARYQaW5mb0B3b2xmc3NsLmNvbYIU
JoyT+fn0HrMBcpRVZ23i+D3a6fQwDAYDVR0TBAUwAwEB/zAcBgNVHREEFTATggtl
eGFtcGxlLmNvbYcEfwAAATAdBgNVHSUEFjAUBggrBgEFBQcDAQYIKwYBBQUHAwIw
DQYJKoZIhvcNAQELBQADggEBAGLkGyg8ndJgqVW+avYg8trooRqXsZB3gu3HdylT
MxgQYuC9kxvS1qGAQx1k8UKS7Le48GvaWYP0uIfm/HAh6mIycGgUDty08WbibqvS
cm/a33H2PSeXfb7h0awWrddPqp0MHm6pXn1XWzzHbdLyXMPcPTaZjqvAfxOl9GeL
4qZRMfEDkQCoxMUdfzViuB2gpavsMmju88pIFp/0Hn7q+rCGFVI2bEtYRKfrIHhu
fugAQKyY2FPzE0u4mGZQY+2v5aT2yZAchAoJRS+h4TdjtUOMoC5/xNThrre5RRP4
cNV5Bk+Cg0uY11ZHZJpqbY56ne+DD2t1DkcikvO0soRhHxw=
-----END CERTIFICATE-----
