Certificate:
    Data:
        Version: 3 (0x2)
        Serial Number: 1 (0x1)
    Signature Algorithm: sha1WithRSAEncryption
        Issuer: C=US, ST=Montana, L=Bozeman, O=Sawtooth, OU=Consulting, CN=www.wolfssl.com/emailAddress=info@wolfssl.com
        Validity
            Not Before: Feb  5 06:33:30 2015 GMT
            Not After : Nov  1 06:33:30 2017 GMT
        Subject: C=US, ST=Montana, L=Bozeman, O=Elliptic - RSAsig, OU=ECC-RSAsig, CN=www.wolfssl.com/emailAddress=info@wolfssl.com
        Subject Public Key Info:
            Public Key Algorithm: id-ecPublicKey
                Public-Key: (256 bit)
                pub: 
                    04:bb:33:ac:4c:27:50:4a:c6:4a:a5:04:c3:3c:de:
                    9f:36:db:72:2d:ce:94:ea:2b:fa:cb:20:09:39:2c:
                    16:e8:61:02:e9:af:4d:d3:02:93:9a:31:5b:97:92:
                    21:7f:f0:cf:18:da:91:11:02:34:86:e8:20:58:33:
                    0b:80:34:89:d8
                ASN1 OID: prime256v1
        X509v3 extensions:
            X509v3 Subject Key Identifier: 
                5D:5D:26:EF:AC:7E:36:F9:9B:76:15:2B:4A:25:02:23:EF:B2:89:30
            X509v3 Authority Key Identifier: 
                keyid:27:8E:67:11:74:C3:26:1D:3F:ED:33:63:B3:A4:D8:1D:30:E5:E8:D5
                DirName:/C=US/ST=Montana/L=Bozeman/O=Sawtooth/OU=Consulting/CN=www.wolfssl.com/emailAddress=info@wolfssl.com
                serial:FA:7D:38:9A:73:FB:12:19

            X509v3 Basic Constraints: 
                CA:TRUE
    Signature Algorithm: sha1WithRSAEncryption
         18:f4:db:2f:82:5d:c3:07:31:1f:e6:af:4e:ea:dd:00:37:8c:
         79:2f:33:37:0c:c9:fc:78:ad:77:31:24:32:09:0b:e6:43:d5:
         94:c1:b3:d9:a7:09:14:4e:fa:5f:19:52:97:eb:b2:4c:7d:c0:
         08:d1:2e:ea:74:11:ee:a8:e7:bc:82:a4:18:b1:44:e8:5e:a8:
         1f:b9:10:d2:74:09:a7:2d:fc:42:88:3e:ff:79:ef:93:4f:7e:
         5e:d8:5c:2e:07:13:4a:1b:fc:fd:31:70:e3:ab:b5:8a:6e:bb:
         cf:03:e3:60:3e:89:7f:40:09:a4:41:ad:57:58:5a:15:0f:a9:
         ae:d0:58:06:de:44:6b:fd:fb:d1:52:42:9b:29:3c:2a:98:f6:
         e9:bc:c1:a5:05:38:a0:42:aa:63:b0:de:97:22:ab:99:0e:30:
         4d:d0:bc:34:5d:dc:81:ff:0b:e9:33:3e:91:ad:d9:96:90:76:
         65:37:35:fb:b5:85:01:b2:b6:70:fe:a8:6e:00:cb:4b:d6:83:
         42:6c:96:88:28:d4:26:e9:09:82:d6:d3:67:65:2d:c2:8e:c7:
         dc:d5:3b:39:7b:d2:f5:9b:85:25:a6:f2:16:d1:05:31:27:fb:
         6b:20:c4:ae:b9:85:46:bb:e3:06:89:96:c8:95:bd:34:5d:dc:
         b1:16:bc:77
-----BEGIN CERTIFICATE-----
MIID4DCCAsigAwIBAgIBATANBgkqhkiG9w0BAQUFADCBlDELMAkGA1UEBhMCVVMx
EDAOBgNVBAgMB01vbnRhbmExEDAOBgNVBAcMB0JvemVtYW4xETAPBgNVBAoMCFNh
d3Rvb3RoMRMwEQYDVQQLDApDb25zdWx0aW5nMRgwFgYDVQQDDA93d3cud29sZnNz
bC5jb20xHzAdBgkqhkiG9w0BCQEWEGluZm9Ad29sZnNzbC5jb20wHhcNMTUwMjA1
MDYzMzMwWhcNMTcxMTAxMDYzMzMwWjCBnTELMAkGA1UEBhMCVVMxEDAOBgNVBAgM
B01vbnRhbmExEDAOBgNVBAcMB0JvemVtYW4xGjAYBgNVBAoMEUVsbGlwdGljIC0g
UlNBc2lnMRMwEQYDVQQLDApFQ0MtUlNBc2lnMRgwFgYDVQQDDA93d3cud29sZnNz
bC5jb20xHzAdBgkqhkiG9w0BCQEWEGluZm9Ad29sZnNzbC5jb20wWTATBgcqhkjO
PQIBBggqhkjOPQMBBwNCAAS7M6xMJ1BKxkqlBMM83p8223ItzpTqK/rLIAk5LBbo
YQLpr03TApOaMVuXkiF/8M8Y2pERAjSG6CBYMwuANInYo4H8MIH5MB0GA1UdDgQW
BBRdXSbvrH42+Zt2FStKJQIj77KJMDCByQYDVR0jBIHBMIG+gBQnjmcRdMMmHT/t
M2OzpNgdMOXo1aGBmqSBlzCBlDELMAkGA1UEBhMCVVMxEDAOBgNVBAgMB01vbnRh
bmExEDAOBgNVBAcMB0JvemVtYW4xETAPBgNVBAoMCFNhd3Rvb3RoMRMwEQYDVQQL
DApDb25zdWx0aW5nMRgwFgYDVQQDDA93d3cud29sZnNzbC5jb20xHzAdBgkqhkiG
9w0BCQEWEGluZm9Ad29sZnNzbC5jb22CCQD6fTiac/sSGTAMBgNVHRMEBTADAQH/
MA0GCSqGSIb3DQEBBQUAA4IBAQAY9Nsvgl3DBzEf5q9O6t0AN4x5LzM3DMn8eK13
MSQyCQvmQ9WUwbPZpwkUTvpfGVKX67JMfcAI0S7qdBHuqOe8gqQYsUToXqgfuRDS
dAmnLfxCiD7/ee+TT35e2FwuBxNKG/z9MXDjq7WKbrvPA+NgPol/QAmkQa1XWFoV
D6mu0FgG3kRr/fvRUkKbKTwqmPbpvMGlBTigQqpjsN6XIquZDjBN0Lw0XdyB/wvp
Mz6RrdmWkHZlNzX7tYUBsrZw/qhuAMtL1oNCbJaIKNQm6QmC1tNnZS3Cjsfc1Ts5
e9L1m4UlpvIW0QUxJ/trIMSuuYVGu+MGiZbIlb00XdyxFrx3
-----END CERTIFICATE-----
