Certificate:
    Data:
        Version: 3 (0x2)
        Serial Number: 3 (0x3)
        Signature Algorithm: ecdsa-with-SHA256
        Issuer: C = US, ST = Washington, L = Seattle, O = wolfSSL, OU = Development, CN = www.wolfssl.com, emailAddress = info@wolfssl.com
        Validity
            Not Before: Dec 13 22:19:28 2023 GMT
            Not After : Sep  8 22:19:28 2026 GMT
        Subject: C = US, ST = Washington, L = Seattle, O = Elliptic, OU = ECC, CN = www.wolfssl.com, emailAddress = info@wolfssl.com
        Subject Public Key Info:
            Public Key Algorithm: id-ecPublicKey
                Public-Key: (256 bit)
                pub:
                    04:bb:33:ac:4c:27:50:4a:c6:4a:a5:04:c3:3c:de:
                    9f:36:db:72:2d:ce:94:ea:2b:fa:cb:20:09:39:2c:
                    16:e8:61:02:e9:af:4d:d3:02:93:9a:31:5b:97:92:
                    21:7f:f0:cf:18:da:91:11:02:34:86:e8:20:58:33:
                    0b:80:34:89:d8
                ASN1 OID: prime256v1
                NIST CURVE: P-256
        X509v3 extensions:
            X509v3 Subject Key Identifier: 
                5D:5D:26:EF:AC:7E:36:F9:9B:76:15:2B:4A:25:02:23:EF:B2:89:30
            X509v3 Authority Key Identifier: 
                keyid:56:8E:9A:C3:F0:42:DE:18:B9:45:55:6E:F9:93:CF:EA:C3:F3:A5:21

            X509v3 Basic Constraints: critical
                CA:FALSE
            X509v3 Key Usage: critical
                Digital Signature, Key Encipherment, Key Agreement
            X509v3 Extended Key Usage: 
                TLS Web Server Authentication
            Netscape Cert Type: 
                SSL Server
    Signature Algorithm: ecdsa-with-SHA256
         30:45:02:21:00:86:bd:87:16:d2:9c:66:e7:5e:5c:28:0e:5f:
         ef:94:61:2f:d4:21:6d:8e:c3:94:0a:1e:b5:6a:1d:c6:04:87:
         c6:02:20:66:46:c4:29:d9:8e:eb:0b:f7:5b:32:13:eb:0a:ea:
         47:99:4b:74:56:ba:21:97:b1:67:75:5c:f3:f3:c0:88:aa
-----BEGIN CERTIFICATE-----
MIICojCCAkigAwIBAgIBAzAKBggqhkjOPQQDAjCBlzELMAkGA1UEBhMCVVMxEzAR
BgNVBAgMCldhc2hpbmd0b24xEDAOBgNVBAcMB1NlYXR0bGUxEDAOBgNVBAoMB3dv
bGZTU0wxFDASBgNVBAsMC0RldmVsb3BtZW50MRgwFgYDVQQDDA93d3cud29sZnNz
bC5jb20xHzAdBgkqhkiG9w0BCQEWEGluZm9Ad29sZnNzbC5jb20wHhcNMjMxMjEz
MjIxOTI4WhcNMjYwOTA4MjIxOTI4WjCBkDELMAkGA1UEBhMCVVMxEzARBgNVBAgM
Cldhc2hpbmd0b24xEDAOBgNVBAcMB1NlYXR0bGUxETAPBgNVBAoMCEVsbGlwdGlj
MQwwCgYDVQQLDANFQ0MxGDAWBgNVBAMMD3d3dy53b2xmc3NsLmNvbTEfMB0GCSqG
SIb3DQEJARYQaW5mb0B3b2xmc3NsLmNvbTBZMBMGByqGSM49AgEGCCqGSM49AwEH
A0IABLszrEwnUErGSqUEwzzenzbbci3OlOor+ssgCTksFuhhAumvTdMCk5oxW5eS
IX/wzxjakRECNIboIFgzC4A0idijgYkwgYYwHQYDVR0OBBYEFF1dJu+sfjb5m3YV
K0olAiPvsokwMB8GA1UdIwQYMBaAFFaOmsPwQt4YuUVVbvmTz+rD86UhMAwGA1Ud
EwEB/wQCMAAwDgYDVR0PAQH/BAQDAgOoMBMGA1UdJQQMMAoGCCsGAQUFBwMBMBEG
CWCGSAGG+EIBAQQEAwIGQDAKBggqhkjOPQQDAgNIADBFAiEAhr2HFtKcZudeXCgO
X++UYS/UIW2Ow5QKHrVqHcYEh8YCIGZGxCnZjusL91syE+sK6keZS3RWuiGXsWd1
XPPzwIiq
-----END CERTIFICATE-----
