Certificate:
    Data:
        Version: 3 (0x2)
        Serial Number: 1 (0x1)
        Signature Algorithm: sha256WithRSAEncryption
        Issuer: C=US, ST=Montana, L=Bozeman, O=Sawtooth, OU=Consulting, CN=www.wolfssl.com, emailAddress=info@wolfssl.com
        Validity
            Not Before: Nov 13 20:41:14 2025 GMT
            Not After : Aug  9 20:41:14 2028 GMT
        Subject: C=US, ST=Montana, L=Bozeman, O=Elliptic - RSAsig, OU=ECC-RSAsig, CN=www.wolfssl.com, emailAddress=info@wolfssl.com
        Subject Public Key Info:
            Public Key Algorithm: id-ecPublicKey
                Public-Key: (256 bit)
                pub:
                    04:bb:33:ac:4c:27:50:4a:c6:4a:a5:04:c3:3c:de:
                    9f:36:db:72:2d:ce:94:ea:2b:fa:cb:20:09:39:2c:
                    16:e8:61:02:e9:af:4d:d3:02:93:9a:31:5b:97:92:
                    21:7f:f0:cf:18:da:91:11:02:34:86:e8:20:58:33:
                    0b:80:34:89:d8
                ASN1 OID: prime256v1
                NIST CURVE: P-256
        X509v3 extensions:
            X509v3 Subject Key Identifier: 
                5D:5D:26:EF:AC:7E:36:F9:9B:76:15:2B:4A:25:02:23:EF:B2:89:30
            X509v3 Authority Key Identifier: 
                keyid:27:8E:67:11:74:C3:26:1D:3F:ED:33:63:B3:A4:D8:1D:30:E5:E8:D5
                DirName:/C=US/ST=Montana/L=Bozeman/O=Sawtooth/OU=Consulting/CN=www.wolfssl.com/emailAddress=info@wolfssl.com
                serial:3F:29:11:20:57:71:E7:8E:F9:18:0D:CA:70:4D:5B:15:2A:43:D6:24
            X509v3 Basic Constraints: 
                CA:TRUE
            X509v3 Subject Alternative Name: 
                DNS:example.com, IP Address:127.0.0.1
            X509v3 Extended Key Usage: 
                TLS Web Server Authentication, TLS Web Client Authentication
    Signature Algorithm: sha256WithRSAEncryption
    Signature Value:
        01:53:08:5b:e2:1a:b9:c6:e3:a8:2b:51:19:de:1b:12:c0:d0:
        b0:b7:ce:ad:27:5c:c7:b6:93:c4:84:84:19:6e:e4:28:8f:43:
        36:79:28:fd:c5:fb:52:24:5a:85:7b:3e:a9:1f:8f:2b:d2:ac:
        f4:4e:cc:68:86:bb:01:ce:83:b5:cd:32:6b:32:a8:ca:9e:79:
        95:57:2b:1d:7d:0d:70:63:7f:4f:a7:f3:08:4c:71:00:fe:36:
        51:e8:29:46:2c:91:23:42:e1:47:d8:ac:52:92:09:d3:02:ad:
        c2:1c:c2:ca:cc:df:79:cf:1d:da:1d:cb:6c:d2:b8:a3:34:a2:
        c1:11:17:c9:5b:4b:8b:76:4a:d1:d6:06:46:ca:9c:0d:5b:c2:
        5d:6e:5b:e6:00:6d:e2:3b:3f:03:d6:a0:3e:cf:31:c8:19:0d:
        85:1f:6a:5f:76:80:d4:8c:26:73:d0:27:06:cb:49:49:62:b9:
        7f:6e:77:56:c4:68:5b:64:11:68:f4:37:9c:82:b2:c8:4f:b2:
        20:8a:6f:49:b1:4e:54:e0:f2:83:97:1d:55:c0:4d:a9:84:48:
        70:61:33:bd:ca:1c:f5:d0:a8:24:b6:f7:36:35:b1:4c:7c:e5:
        3b:52:32:cb:9f:32:e2:a1:12:30:43:60:1f:97:b0:6e:07:6a:
        94:72:f5:61
-----BEGIN CERTIFICATE-----
MIIEKjCCAxKgAwIBAgIBATANBgkqhkiG9w0BAQsFADCBlDELMAkGA1UEBhMCVVMx
EDAOBgNVBAgMB01vbnRhbmExEDAOBgNVBAcMB0JvemVtYW4xETAPBgNVBAoMCFNh
d3Rvb3RoMRMwEQYDVQQLDApDb25zdWx0aW5nMRgwFgYDVQQDDA93d3cud29sZnNz
bC5jb20xHzAdBgkqhkiG9w0BCQEWEGluZm9Ad29sZnNzbC5jb20wHhcNMjUxMTEz
MjA0MTE0WhcNMjgwODA5MjA0MTE0WjCBnTELMAkGA1UEBhMCVVMxEDAOBgNVBAgM
B01vbnRhbmExEDAOBgNVBAcMB0JvemVtYW4xGjAYBgNVBAoMEUVsbGlwdGljIC0g
UlNBc2lnMRMwEQYDVQQLDApFQ0MtUlNBc2lnMRgwFgYDVQQDDA93d3cud29sZnNz
bC5jb20xHzAdBgkqhkiG9w0BCQEWEGluZm9Ad29sZnNzbC5jb20wWTATBgcqhkjO
PQIBBggqhkjOPQMBBwNCAAS7M6xMJ1BKxkqlBMM83p8223ItzpTqK/rLIAk5LBbo
YQLpr03TApOaMVuXkiF/8M8Y2pERAjSG6CBYMwuANInYo4IBRTCCAUEwHQYDVR0O
BBYEFF1dJu+sfjb5m3YVK0olAiPvsokwMIHUBgNVHSMEgcwwgcmAFCeOZxF0wyYd
P+0zY7Ok2B0w5ejVoYGapIGXMIGUMQswCQYDVQQGEwJVUzEQMA4GA1UECAwHTW9u
dGFuYTEQMA4GA1UEBwwHQm96ZW1hbjERMA8GA1UECgwIU2F3dG9vdGgxEzARBgNV
BAsMCkNvbnN1bHRpbmcxGDAWBgNVBAMMD3d3dy53b2xmc3NsLmNvbTEfMB0GCSqG
SIb3DQEJARYQaW5mb0B3b2xmc3NsLmNvbYIUPykRIFdx5475GA3KcE1bFSpD1iQw
DAYDVR0TBAUwAwEB/zAcBgNVHREEFTATggtleGFtcGxlLmNvbYcEfwAAATAdBgNV
HSUEFjAUBggrBgEFBQcDAQYIKwYBBQUHAwIwDQYJKoZIhvcNAQELBQADggEBAAFT
CFviGrnG46grURneGxLA0LC3zq0nXMe2k8SEhBlu5CiPQzZ5KP3F+1IkWoV7Pqkf
jyvSrPROzGiGuwHOg7XNMmsyqMqeeZVXKx19DXBjf0+n8whMcQD+NlHoKUYskSNC
4UfYrFKSCdMCrcIcwsrM33nPHdody2zSuKM0osERF8lbS4t2StHWBkbKnA1bwl1u
W+YAbeI7PwPWoD7PMcgZDYUfal92gNSMJnPQJwbLSUliuX9ud1bEaFtkEWj0N5yC
sshPsiCKb0mxTlTg8oOXHVXATamESHBhM73KHPXQqCS29zY1sUx85TtSMsufMuKh
EjBDYB+XsG4HapRy9WE=
-----END CERTIFICATE-----
