Certificate:
    Data:
        Version: 3 (0x2)
        Serial Number: 1 (0x1)
    Signature Algorithm: sha256WithRSAEncryption
        Issuer: C=US, ST=Montana, L=Bozeman, O=Sawtooth, OU=Consulting, CN=www.wolfssl.com/emailAddress=info@wolfssl.com
        Validity
            Not Before: Feb 10 19:49:53 2021 GMT
            Not After : Nov  7 19:49:53 2023 GMT
        Subject: C=US, ST=Montana, L=Bozeman, O=Elliptic - RSAsig, OU=ECC-RSAsig, CN=www.wolfssl.com/emailAddress=info@wolfssl.com
        Subject Public Key Info:
            Public Key Algorithm: id-ecPublicKey
                Public-Key: (256 bit)
                pub: 
                    04:bb:33:ac:4c:27:50:4a:c6:4a:a5:04:c3:3c:de:
                    9f:36:db:72:2d:ce:94:ea:2b:fa:cb:20:09:39:2c:
                    16:e8:61:02:e9:af:4d:d3:02:93:9a:31:5b:97:92:
                    21:7f:f0:cf:18:da:91:11:02:34:86:e8:20:58:33:
                    0b:80:34:89:d8
                ASN1 OID: prime256v1
                NIST CURVE: P-256
        X509v3 extensions:
            X509v3 Subject Key Identifier: 
                5D:5D:26:EF:AC:7E:36:F9:9B:76:15:2B:4A:25:02:23:EF:B2:89:30
            X509v3 Authority Key Identifier: 
                keyid:27:8E:67:11:74:C3:26:1D:3F:ED:33:63:B3:A4:D8:1D:30:E5:E8:D5
                DirName:/C=US/ST=Montana/L=Bozeman/O=Sawtooth/OU=Consulting/CN=www.wolfssl.com/emailAddress=info@wolfssl.com
                serial:AA:D3:3F:AC:18:0A:37:4D

            X509v3 Basic Constraints: 
                CA:TRUE
            X509v3 Subject Alternative Name: 
                DNS:example.com, IP Address:127.0.0.1
            X509v3 Extended Key Usage: 
                TLS Web Server Authentication, TLS Web Client Authentication
    Signature Algorithm: sha256WithRSAEncryption
         4b:cd:c5:8f:fc:bb:c3:36:c5:d4:4d:71:04:13:53:a0:3c:a3:
         4e:2a:dd:0d:d3:a7:62:31:0d:c6:32:07:31:d4:6b:0f:8b:55:
         a2:2f:2c:b3:ae:46:91:8a:09:be:7e:ff:e2:67:46:f2:7e:d4:
         6f:be:5d:57:42:fd:3a:56:b0:e8:0e:4d:12:fd:f5:00:ca:6f:
         bd:88:0c:04:47:1a:ec:5d:96:3f:b6:a5:8b:9d:47:a6:4f:82:
         07:33:9d:11:0a:3d:38:1d:21:4f:d4:1e:1d:a6:d7:6b:72:1c:
         51:e1:7a:7a:6c:76:2c:98:14:48:fd:f1:d1:7c:53:86:ed:8c:
         5f:4f:0f:27:5d:45:be:ed:26:90:d2:51:04:4d:06:5b:64:1c:
         5e:31:63:cc:d4:d5:0b:28:cc:e2:29:40:75:87:21:64:8e:8b:
         87:ef:90:bb:46:91:91:f9:63:f8:b0:a7:5e:8d:e8:20:c6:b7:
         5a:d9:0e:35:fb:ba:d1:09:d1:98:a6:61:25:e2:0d:97:c4:1b:
         0f:bc:b6:ec:e7:96:80:b8:e5:55:03:1e:7f:b5:fd:40:06:cc:
         aa:7b:f0:b3:81:2e:e1:4e:3a:52:e3:f3:c4:d3:8c:78:49:00:
         3a:57:df:0e:aa:2f:14:52:3f:c8:fa:82:b9:bf:27:f8:9c:42:
         b7:44:36:68
-----BEGIN CERTIFICATE-----
MIIEHzCCAwegAwIBAgIBATANBgkqhkiG9w0BAQsFADCBlDELMAkGA1UEBhMCVVMx
EDAOBgNVBAgMB01vbnRhbmExEDAOBgNVBAcMB0JvemVtYW4xETAPBgNVBAoMCFNh
d3Rvb3RoMRMwEQYDVQQLDApDb25zdWx0aW5nMRgwFgYDVQQDDA93d3cud29sZnNz
bC5jb20xHzAdBgkqhkiG9w0BCQEWEGluZm9Ad29sZnNzbC5jb20wHhcNMjEwMjEw
MTk0OTUzWhcNMjMxMTA3MTk0OTUzWjCBnTELMAkGA1UEBhMCVVMxEDAOBgNVBAgM
B01vbnRhbmExEDAOBgNVBAcMB0JvemVtYW4xGjAYBgNVBAoMEUVsbGlwdGljIC0g
UlNBc2lnMRMwEQYDVQQLDApFQ0MtUlNBc2lnMRgwFgYDVQQDDA93d3cud29sZnNz
bC5jb20xHzAdBgkqhkiG9w0BCQEWEGluZm9Ad29sZnNzbC5jb20wWTATBgcqhkjO
PQIBBggqhkjOPQMBBwNCAAS7M6xMJ1BKxkqlBMM83p8223ItzpTqK/rLIAk5LBbo
YQLpr03TApOaMVuXkiF/8M8Y2pERAjSG6CBYMwuANInYo4IBOjCCATYwHQYDVR0O
BBYEFF1dJu+sfjb5m3YVK0olAiPvsokwMIHJBgNVHSMEgcEwgb6AFCeOZxF0wyYd
P+0zY7Ok2B0w5ejVoYGapIGXMIGUMQswCQYDVQQGEwJVUzEQMA4GA1UECAwHTW9u
dGFuYTEQMA4GA1UEBwwHQm96ZW1hbjERMA8GA1UECgwIU2F3dG9vdGgxEzARBgNV
BAsMCkNvbnN1bHRpbmcxGDAWBgNVBAMMD3d3dy53b2xmc3NsLmNvbTEfMB0GCSqG
SIb3DQEJARYQaW5mb0B3b2xmc3NsLmNvbYIJAKrTP6wYCjdNMAwGA1UdEwQFMAMB
Af8wHAYDVR0RBBUwE4ILZXhhbXBsZS5jb22HBH8AAAEwHQYDVR0lBBYwFAYIKwYB
BQUHAwEGCCsGAQUFBwMCMA0GCSqGSIb3DQEBCwUAA4IBAQBLzcWP/LvDNsXUTXEE
E1OgPKNOKt0N06diMQ3GMgcx1GsPi1WiLyyzrkaRigm+fv/iZ0byftRvvl1XQv06
VrDoDk0S/fUAym+9iAwERxrsXZY/tqWLnUemT4IHM50RCj04HSFP1B4dptdrchxR
4Xp6bHYsmBRI/fHRfFOG7YxfTw8nXUW+7SaQ0lEETQZbZBxeMWPM1NULKMziKUB1
hyFkjouH75C7RpGR+WP4sKdejeggxrda2Q41+7rRCdGYpmEl4g2XxBsPvLbs55aA
uOVVAx5/tf1ABsyqe/CzgS7hTjpS4/PE04x4SQA6V98Oqi8UUj/I+oK5vyf4nEK3
RDZo
-----END CERTIFICATE-----
