Certificate:
    Data:
        Version: 3 (0x2)
        Serial Number:
            56:13:5e:22:d3:64:94:86:c6:dd:cf:fd:7f:bf:c9:84:93:ce:15:ca
        Signature Algorithm: ecdsa-with-SHA256
        Issuer: C = US, ST = Washington, L = Seattle, O = Elliptic, OU = ECC, CN = www.wolfssl.com, emailAddress = info@wolfssl.com
        Validity
            Not Before: Dec 18 21:25:29 2024 GMT
            Not After : Dec 16 21:25:29 2034 GMT
        Subject: C = US, ST = Washington, L = Seattle, O = Elliptic, OU = ECC, CN = www.wolfssl.com, emailAddress = info@wolfssl.com
        Subject Public Key Info:
            Public Key Algorithm: id-ecPublicKey
                Public-Key: (256 bit)
                pub:
                    04:bb:33:ac:4c:27:50:4a:c6:4a:a5:04:c3:3c:de:
                    9f:36:db:72:2d:ce:94:ea:2b:fa:cb:20:09:39:2c:
                    16:e8:61:02:e9:af:4d:d3:02:93:9a:31:5b:97:92:
                    21:7f:f0:cf:18:da:91:11:02:34:86:e8:20:58:33:
                    0b:80:34:89:d8
                ASN1 OID: prime256v1
                NIST CURVE: P-256
        X509v3 extensions:
            X509v3 Basic Constraints: 
                CA:FALSE
            Netscape Cert Type: 
                SSL Server
            X509v3 Subject Key Identifier: 
                5D:5D:26:EF:AC:7E:36:F9:9B:76:15:2B:4A:25:02:23:EF:B2:89:30
            X509v3 Authority Key Identifier: 
                DirName:/C=US/ST=Washington/L=Seattle/O=Elliptic/OU=ECC/CN=www.wolfssl.com/emailAddress=info@wolfssl.com
                serial:56:13:5E:22:D3:64:94:86:C6:DD:CF:FD:7F:BF:C9:84:93:CE:15:CA
            X509v3 Key Usage: critical
                Digital Signature, Key Encipherment, Key Agreement
            X509v3 Extended Key Usage: 
                TLS Web Server Authentication
    Signature Algorithm: ecdsa-with-SHA256
    Signature Value:
        30:45:02:21:00:93:af:89:fe:2f:b2:5c:ac:04:da:f6:2b:73:
        64:2e:6a:88:66:14:27:74:34:42:f2:13:37:f6:c9:bc:21:26:
        57:02:20:30:bd:b1:51:c9:55:78:49:78:3d:09:78:dd:eb:d0:
        23:fe:10:19:cb:b6:a7:64:f4:f8:e0:bd:a2:ff:55:df:e6
-----BEGIN CERTIFICATE-----
MIIDSTCCAu+gAwIBAgIUVhNeItNklIbG3c/9f7/JhJPOFcowCgYIKoZIzj0EAwIw
gZAxCzAJBgNVBAYTAlVTMRMwEQYDVQQIDApXYXNoaW5ndG9uMRAwDgYDVQQHDAdT
ZWF0dGxlMREwDwYDVQQKDAhFbGxpcHRpYzEMMAoGA1UECwwDRUNDMRgwFgYDVQQD
DA93d3cud29sZnNzbC5jb20xHzAdBgkqhkiG9w0BCQEWEGluZm9Ad29sZnNzbC5j
b20wHhcNMjQxMjE4MjEyNTI5WhcNMzQxMjE2MjEyNTI5WjCBkDELMAkGA1UEBhMC
VVMxEzARBgNVBAgMCldhc2hpbmd0b24xEDAOBgNVBAcMB1NlYXR0bGUxETAPBgNV
BAoMCEVsbGlwdGljMQwwCgYDVQQLDANFQ0MxGDAWBgNVBAMMD3d3dy53b2xmc3Ns
LmNvbTEfMB0GCSqGSIb3DQEJARYQaW5mb0B3b2xmc3NsLmNvbTBZMBMGByqGSM49
AgEGCCqGSM49AwEHA0IABLszrEwnUErGSqUEwzzenzbbci3OlOor+ssgCTksFuhh
AumvTdMCk5oxW5eSIX/wzxjakRECNIboIFgzC4A0idijggEjMIIBHzAJBgNVHRME
AjAAMBEGCWCGSAGG+EIBAQQEAwIGQDAdBgNVHQ4EFgQUXV0m76x+NvmbdhUrSiUC
I++yiTAwgboGA1UdIwSBsjCBr6GBlqSBkzCBkDELMAkGA1UEBhMCVVMxEzARBgNV
BAgMCldhc2hpbmd0b24xEDAOBgNVBAcMB1NlYXR0bGUxETAPBgNVBAoMCEVsbGlw
dGljMQwwCgYDVQQLDANFQ0MxGDAWBgNVBAMMD3d3dy53b2xmc3NsLmNvbTEfMB0G
CSqGSIb3DQEJARYQaW5mb0B3b2xmc3NsLmNvbYIUVhNeItNklIbG3c/9f7/JhJPO
FcowDgYDVR0PAQH/BAQDAgOoMBMGA1UdJQQMMAoGCCsGAQUFBwMBMAoGCCqGSM49
BAMCA0gAMEUCIQCTr4n+L7JcrATa9itzZC5qiGYUJ3Q0QvITN/bJvCEmVwIgML2x
UclVeEl4PQl43evQI/4QGcu2p2T0+OC9ov9V3+Y=
-----END CERTIFICATE-----
