Certificate:
    Data:
        Version: 3 (0x2)
        Serial Number: 2 (0x2)
        Signature Algorithm: sha256WithRSAEncryption
        Issuer: C = US, ST = Montana, L = Bozeman, O = Sawtooth, OU = Consulting, CN = www.wolfssl.com, emailAddress = info@wolfssl.com
        Validity
            Not Before: Dec 20 23:07:25 2021 GMT
            Not After : Sep 15 23:07:25 2024 GMT
        Subject: C = US, ST = Montana, L = Bozeman, O = wolfSSL_revoked, OU = Support_revoked, CN = www.wolfssl.com, emailAddress = info@wolfssl.com
        Subject Public Key Info:
            Public Key Algorithm: rsaEncryption
                RSA Public-Key: (2048 bit)
                Modulus:
                    00:b0:14:16:3a:43:dd:e1:50:45:4f:cf:80:b3:dd:
                    66:96:c7:e9:f4:dc:de:b6:6b:24:1b:76:48:ac:c6:
                    23:a5:a7:e4:05:19:bd:b7:f6:de:fa:ff:ed:5b:3c:
                    79:8a:a9:d5:f1:fb:eb:c8:b1:e4:b2:ab:52:72:89:
                    93:22:5c:ba:cd:8a:36:2a:2c:d1:40:ec:a8:66:0e:
                    c3:76:cd:e7:b3:a3:0a:1e:dd:4a:07:82:17:81:ba:
                    de:57:ce:b6:32:81:c7:bd:11:bb:e9:15:22:4e:e2:
                    16:ac:e3:d4:c0:68:88:6c:11:fc:c2:bd:1b:db:1d:
                    fd:e6:43:c7:1b:33:b8:f4:e5:1b:59:39:12:38:4d:
                    2d:9b:64:68:98:fc:8d:72:12:91:f2:24:25:6c:4c:
                    4a:48:57:92:00:cc:7e:d8:d4:3d:b8:1d:f2:9e:ea:
                    b2:23:0f:51:0f:11:41:1c:f5:27:00:1b:08:7a:12:
                    3a:05:5b:03:24:fe:b1:7b:20:fa:e4:a8:58:c6:ca:
                    ce:7f:be:95:01:12:9d:05:e6:39:13:1b:c0:3e:56:
                    2e:2b:9f:76:37:de:de:9b:e0:0d:7a:63:0d:a7:22:
                    58:db:31:c7:f7:b4:46:5c:ba:b6:4b:48:b1:18:9a:
                    68:b3:63:47:fd:af:12:5f:2f:fe:10:cb:58:2b:33:
                    68:85
                Exponent: 65537 (0x10001)
        X509v3 extensions:
            X509v3 Subject Key Identifier: 
                D8:09:2B:59:E1:2A:EE:D9:EE:40:AA:9C:AB:F0:5D:28:09:4F:22:BB
            X509v3 Authority Key Identifier: 
                keyid:27:8E:67:11:74:C3:26:1D:3F:ED:33:63:B3:A4:D8:1D:30:E5:E8:D5
                DirName:/C=US/ST=Montana/L=Bozeman/O=Sawtooth/OU=Consulting/CN=www.wolfssl.com/emailAddress=info@wolfssl.com
                serial:7D:94:70:88:BA:07:42:8D:AA:AF:4F:BE:C2:1A:48:F0:D1:40:E6:42

            X509v3 Basic Constraints: 
                CA:TRUE
            X509v3 Subject Alternative Name: 
                DNS:example.com, IP Address:127.0.0.1
            X509v3 Extended Key Usage: 
                TLS Web Server Authentication, TLS Web Client Authentication
    Signature Algorithm: sha256WithRSAEncryption
         48:1c:0d:ff:b1:2b:ef:94:14:a8:26:89:0a:f7:ef:08:9f:21:
         1e:de:56:28:b3:d8:9b:dc:80:10:6f:f6:47:e9:2b:a1:04:ed:
         07:43:6d:91:19:f5:c5:7f:57:7d:a8:dd:01:8c:76:7f:ed:c1:
         a4:3e:ea:34:c0:89:5e:63:9e:b4:f2:0f:d3:2f:d9:da:56:72:
         13:6e:dc:fb:0f:bb:ed:84:b7:ef:08:94:ac:94:41:db:de:6b:
         4e:b0:d5:2e:19:37:7f:db:88:4a:8b:95:1c:f7:a6:7f:e6:83:
         3a:ac:23:89:a7:bf:db:6c:e6:85:9a:77:39:62:57:e5:5d:2c:
         bd:b6:e8:e1:61:22:dc:7b:8b:dd:e4:41:44:1d:10:e8:5a:19:
         cd:3b:74:5d:f7:0d:64:2f:1d:ae:51:ac:76:1a:d5:aa:e1:21:
         07:78:ef:1a:5b:be:5c:69:6d:4e:65:2f:a7:9e:da:16:31:6d:
         50:98:f2:78:d5:5b:f7:60:b6:40:8d:db:48:a0:90:63:12:6d:
         ce:5b:b8:b9:37:20:9f:80:f3:0a:cb:f6:72:5d:cd:0b:04:59:
         76:1e:52:64:83:6f:6a:97:74:8a:55:2e:ce:e1:b5:93:46:c8:
         91:8c:63:26:96:1e:1c:53:26:40:6d:4f:49:b1:48:9e:48:95:
         54:bb:ec:38
-----BEGIN CERTIFICATE-----
MIIE+DCCA+CgAwIBAgIBAjANBgkqhkiG9w0BAQsFADCBlDELMAkGA1UEBhMCVVMx
EDAOBgNVBAgMB01vbnRhbmExEDAOBgNVBAcMB0JvemVtYW4xETAPBgNVBAoMCFNh
d3Rvb3RoMRMwEQYDVQQLDApDb25zdWx0aW5nMRgwFgYDVQQDDA93d3cud29sZnNz
bC5jb20xHzAdBgkqhkiG9w0BCQEWEGluZm9Ad29sZnNzbC5jb20wHhcNMjExMjIw
MjMwNzI1WhcNMjQwOTE1MjMwNzI1WjCBoDELMAkGA1UEBhMCVVMxEDAOBgNVBAgM
B01vbnRhbmExEDAOBgNVBAcMB0JvemVtYW4xGDAWBgNVBAoMD3dvbGZTU0xfcmV2
b2tlZDEYMBYGA1UECwwPU3VwcG9ydF9yZXZva2VkMRgwFgYDVQQDDA93d3cud29s
ZnNzbC5jb20xHzAdBgkqhkiG9w0BCQEWEGluZm9Ad29sZnNzbC5jb20wggEiMA0G
CSqGSIb3DQEBAQUAA4IBDwAwggEKAoIBAQCwFBY6Q93hUEVPz4Cz3WaWx+n03N62
ayQbdkisxiOlp+QFGb239t76/+1bPHmKqdXx++vIseSyq1JyiZMiXLrNijYqLNFA
7KhmDsN2zeezowoe3UoHgheBut5XzrYygce9EbvpFSJO4has49TAaIhsEfzCvRvb
Hf3mQ8cbM7j05RtZORI4TS2bZGiY/I1yEpHyJCVsTEpIV5IAzH7Y1D24HfKe6rIj
D1EPEUEc9ScAGwh6EjoFWwMk/rF7IPrkqFjGys5/vpUBEp0F5jkTG8A+Vi4rn3Y3
3t6b4A16Yw2nIljbMcf3tEZcurZLSLEYmmizY0f9rxJfL/4Qy1grM2iFAgMBAAGj
ggFFMIIBQTAdBgNVHQ4EFgQU2AkrWeEq7tnuQKqcq/BdKAlPIrswgdQGA1UdIwSB
zDCByYAUJ45nEXTDJh0/7TNjs6TYHTDl6NWhgZqkgZcwgZQxCzAJBgNVBAYTAlVT
MRAwDgYDVQQIDAdNb250YW5hMRAwDgYDVQQHDAdCb3plbWFuMREwDwYDVQQKDAhT
YXd0b290aDETMBEGA1UECwwKQ29uc3VsdGluZzEYMBYGA1UEAwwPd3d3LndvbGZz
c2wuY29tMR8wHQYJKoZIhvcNAQkBFhBpbmZvQHdvbGZzc2wuY29tghR9lHCIugdC
jaqvT77CGkjw0UDmQjAMBgNVHRMEBTADAQH/MBwGA1UdEQQVMBOCC2V4YW1wbGUu
Y29thwR/AAABMB0GA1UdJQQWMBQGCCsGAQUFBwMBBggrBgEFBQcDAjANBgkqhkiG
9w0BAQsFAAOCAQEASBwN/7Er75QUqCaJCvfvCJ8hHt5WKLPYm9yAEG/2R+kroQTt
B0NtkRn1xX9XfajdAYx2f+3BpD7qNMCJXmOetPIP0y/Z2lZyE27c+w+77YS37wiU
rJRB295rTrDVLhk3f9uISouVHPemf+aDOqwjiae/22zmhZp3OWJX5V0svbbo4WEi
3HuL3eRBRB0Q6FoZzTt0XfcNZC8drlGsdhrVquEhB3jvGlu+XGltTmUvp57aFjFt
UJjyeNVb92C2QI3bSKCQYxJtzlu4uTcgn4DzCsv2cl3NCwRZdh5SZINvapd0ilUu
zuG1k0bIkYxjJpYeHFMmQG1PSbFInkiVVLvsOA==
-----END CERTIFICATE-----
Certificate:
    Data:
        Version: 3 (0x2)
        Serial Number:
            7d:94:70:88:ba:07:42:8d:aa:af:4f:be:c2:1a:48:f0:d1:40:e6:42
        Signature Algorithm: sha256WithRSAEncryption
        Issuer: C = US, ST = Montana, L = Bozeman, O = Sawtooth, OU = Consulting, CN = www.wolfssl.com, emailAddress = info@wolfssl.com
        Validity
            Not Before: Dec 20 23:07:24 2021 GMT
            Not After : Sep 15 23:07:24 2024 GMT
        Subject: C = US, ST = Montana, L = Bozeman, O = Sawtooth, OU = Consulting, CN = www.wolfssl.com, emailAddress = info@wolfssl.com
        Subject Public Key Info:
            Public Key Algorithm: rsaEncryption
                RSA Public-Key: (2048 bit)
                Modulus:
                    00:bf:0c:ca:2d:14:b2:1e:84:42:5b:cd:38:1f:4a:
                    f2:4d:75:10:f1:b6:35:9f:df:ca:7d:03:98:d3:ac:
                    de:03:66:ee:2a:f1:d8:b0:7d:6e:07:54:0b:10:98:
                    21:4d:80:cb:12:20:e7:cc:4f:de:45:7d:c9:72:77:
                    32:ea:ca:90:bb:69:52:10:03:2f:a8:f3:95:c5:f1:
                    8b:62:56:1b:ef:67:6f:a4:10:41:95:ad:0a:9b:e3:
                    a5:c0:b0:d2:70:76:50:30:5b:a8:e8:08:2c:7c:ed:
                    a7:a2:7a:8d:38:29:1c:ac:c7:ed:f2:7c:95:b0:95:
                    82:7d:49:5c:38:cd:77:25:ef:bd:80:75:53:94:3c:
                    3d:ca:63:5b:9f:15:b5:d3:1d:13:2f:19:d1:3c:db:
                    76:3a:cc:b8:7d:c9:e5:c2:d7:da:40:6f:d8:21:dc:
                    73:1b:42:2d:53:9c:fe:1a:fc:7d:ab:7a:36:3f:98:
                    de:84:7c:05:67:ce:6a:14:38:87:a9:f1:8c:b5:68:
                    cb:68:7f:71:20:2b:f5:a0:63:f5:56:2f:a3:26:d2:
                    b7:6f:b1:5a:17:d7:38:99:08:fe:93:58:6f:fe:c3:
                    13:49:08:16:0b:a7:4d:67:00:52:31:67:23:4e:98:
                    ed:51:45:1d:b9:04:d9:0b:ec:d8:28:b3:4b:bd:ed:
                    36:79
                Exponent: 65537 (0x10001)
        X509v3 extensions:
            X509v3 Subject Key Identifier: 
                27:8E:67:11:74:C3:26:1D:3F:ED:33:63:B3:A4:D8:1D:30:E5:E8:D5
            X509v3 Authority Key Identifier: 
                keyid:27:8E:67:11:74:C3:26:1D:3F:ED:33:63:B3:A4:D8:1D:30:E5:E8:D5
                DirName:/C=US/ST=Montana/L=Bozeman/O=Sawtooth/OU=Consulting/CN=www.wolfssl.com/emailAddress=info@wolfssl.com
                serial:7D:94:70:88:BA:07:42:8D:AA:AF:4F:BE:C2:1A:48:F0:D1:40:E6:42

            X509v3 Basic Constraints: 
                CA:TRUE
            X509v3 Subject Alternative Name: 
                DNS:example.com, IP Address:127.0.0.1
            X509v3 Extended Key Usage: 
                TLS Web Server Authentication, TLS Web Client Authentication
    Signature Algorithm: sha256WithRSAEncryption
         b0:71:bb:ba:45:5a:80:25:02:a4:7e:88:0b:a9:7b:fd:b0:bb:
         f6:46:b5:ba:f4:c7:e3:61:20:8c:03:15:66:f5:e4:54:82:ef:
         13:80:97:22:67:c1:d1:88:5d:e2:2d:57:f6:e0:9f:69:d6:b1:
         5c:b6:e8:e0:98:89:c8:14:12:d6:b6:89:8d:6c:b9:a0:59:4f:
         92:ee:11:53:6b:7d:93:4a:69:0a:85:d9:d5:d2:62:e8:c9:b5:
         c6:4e:17:f5:0a:e8:f3:2d:86:61:0b:eb:c4:c4:c6:67:75:ed:
         9a:9f:53:a0:71:1e:a0:90:0d:f9:03:b4:bc:86:19:6e:f0:3b:
         4f:e8:ed:68:f6:e7:23:43:3b:36:83:83:4b:46:a0:9a:01:d0:
         c7:85:bb:7d:94:a0:21:3d:7e:3c:6a:3d:81:db:41:7b:46:d8:
         15:62:d5:8f:4d:3d:c0:db:9a:c5:81:a8:ac:da:87:99:c7:dd:
         b9:f1:14:af:d1:93:e3:f3:42:d7:a2:04:51:21:54:29:c3:45:
         f6:be:5c:fa:cd:db:bf:2f:79:81:42:e5:8f:47:0b:d4:54:01:
         b5:c2:4a:46:d6:a8:31:2e:64:80:3f:48:61:91:29:f3:aa:43:
         5c:69:6e:f1:01:b9:df:63:71:3d:b9:5a:fb:36:c0:11:a2:c3:
         30:9d:95:c3
-----BEGIN CERTIFICATE-----
MIIE/zCCA+egAwIBAgIUfZRwiLoHQo2qr0++whpI8NFA5kIwDQYJKoZIhvcNAQEL
BQAwgZQxCzAJBgNVBAYTAlVTMRAwDgYDVQQIDAdNb250YW5hMRAwDgYDVQQHDAdC
b3plbWFuMREwDwYDVQQKDAhTYXd0b290aDETMBEGA1UECwwKQ29uc3VsdGluZzEY
MBYGA1UEAwwPd3d3LndvbGZzc2wuY29tMR8wHQYJKoZIhvcNAQkBFhBpbmZvQHdv
bGZzc2wuY29tMB4XDTIxMTIyMDIzMDcyNFoXDTI0MDkxNTIzMDcyNFowgZQxCzAJ
BgNVBAYTAlVTMRAwDgYDVQQIDAdNb250YW5hMRAwDgYDVQQHDAdCb3plbWFuMREw
DwYDVQQKDAhTYXd0b290aDETMBEGA1UECwwKQ29uc3VsdGluZzEYMBYGA1UEAwwP
d3d3LndvbGZzc2wuY29tMR8wHQYJKoZIhvcNAQkBFhBpbmZvQHdvbGZzc2wuY29t
MIIBIjANBgkqhkiG9w0BAQEFAAOCAQ8AMIIBCgKCAQEAvwzKLRSyHoRCW804H0ry
TXUQ8bY1n9/KfQOY06zeA2buKvHYsH1uB1QLEJghTYDLEiDnzE/eRX3Jcncy6sqQ
u2lSEAMvqPOVxfGLYlYb72dvpBBBla0Km+OlwLDScHZQMFuo6AgsfO2nonqNOCkc
rMft8nyVsJWCfUlcOM13Je+9gHVTlDw9ymNbnxW10x0TLxnRPNt2Osy4fcnlwtfa
QG/YIdxzG0ItU5z+Gvx9q3o2P5jehHwFZ85qFDiHqfGMtWjLaH9xICv1oGP1Vi+j
JtK3b7FaF9c4mQj+k1hv/sMTSQgWC6dNZwBSMWcjTpjtUUUduQTZC+zYKLNLve02
eQIDAQABo4IBRTCCAUEwHQYDVR0OBBYEFCeOZxF0wyYdP+0zY7Ok2B0w5ejVMIHU
BgNVHSMEgcwwgcmAFCeOZxF0wyYdP+0zY7Ok2B0w5ejVoYGapIGXMIGUMQswCQYD
VQQGEwJVUzEQMA4GA1UECAwHTW9udGFuYTEQMA4GA1UEBwwHQm96ZW1hbjERMA8G
A1UECgwIU2F3dG9vdGgxEzARBgNVBAsMCkNvbnN1bHRpbmcxGDAWBgNVBAMMD3d3
dy53b2xmc3NsLmNvbTEfMB0GCSqGSIb3DQEJARYQaW5mb0B3b2xmc3NsLmNvbYIU
fZRwiLoHQo2qr0++whpI8NFA5kIwDAYDVR0TBAUwAwEB/zAcBgNVHREEFTATggtl
eGFtcGxlLmNvbYcEfwAAATAdBgNVHSUEFjAUBggrBgEFBQcDAQYIKwYBBQUHAwIw
DQYJKoZIhvcNAQELBQADggEBALBxu7pFWoAlAqR+iAupe/2wu/ZGtbr0x+NhIIwD
FWb15FSC7xOAlyJnwdGIXeItV/bgn2nWsVy26OCYicgUEta2iY1suaBZT5LuEVNr
fZNKaQqF2dXSYujJtcZOF/UK6PMthmEL68TExmd17ZqfU6BxHqCQDfkDtLyGGW7w
O0/o7Wj25yNDOzaDg0tGoJoB0MeFu32UoCE9fjxqPYHbQXtG2BVi1Y9NPcDbmsWB
qKzah5nH3bnxFK/Rk+PzQteiBFEhVCnDRfa+XPrN278veYFC5Y9HC9RUAbXCSkbW
qDEuZIA/SGGRKfOqQ1xpbvEBud9jcT25Wvs2wBGiwzCdlcM=
-----END CERTIFICATE-----
