Certificate:
    Data:
        Version: 3 (0x2)
        Serial Number: 1 (0x1)
        Signature Algorithm: sha256WithRSAEncryption
        Issuer: C = US, ST = Montana, L = Bozeman, O = Sawtooth, OU = Consulting, CN = www.wolfssl.com, emailAddress = info@wolfssl.com
        Validity
            Not Before: Dec 13 22:19:28 2023 GMT
            Not After : Sep  8 22:19:28 2026 GMT
        Subject: C = US, ST = Montana, L = Bozeman, O = Elliptic - RSAsig, OU = ECC-RSAsig, CN = www.wolfssl.com, emailAddress = info@wolfssl.com
        Subject Public Key Info:
            Public Key Algorithm: id-ecPublicKey
                Public-Key: (256 bit)
                pub:
                    04:bb:33:ac:4c:27:50:4a:c6:4a:a5:04:c3:3c:de:
                    9f:36:db:72:2d:ce:94:ea:2b:fa:cb:20:09:39:2c:
                    16:e8:61:02:e9:af:4d:d3:02:93:9a:31:5b:97:92:
                    21:7f:f0:cf:18:da:91:11:02:34:86:e8:20:58:33:
                    0b:80:34:89:d8
                ASN1 OID: prime256v1
                NIST CURVE: P-256
        X509v3 extensions:
            X509v3 Subject Key Identifier: 
                5D:5D:26:EF:AC:7E:36:F9:9B:76:15:2B:4A:25:02:23:EF:B2:89:30
            X509v3 Authority Key Identifier: 
                keyid:27:8E:67:11:74:C3:26:1D:3F:ED:33:63:B3:A4:D8:1D:30:E5:E8:D5
                DirName:/C=US/ST=Montana/L=Bozeman/O=Sawtooth/OU=Consulting/CN=www.wolfssl.com/emailAddress=info@wolfssl.com
                serial:33:44:1A:A8:6C:01:EC:F6:60:F2:70:51:0A:4C:D1:14:FA:BC:E9:44

            X509v3 Basic Constraints: 
                CA:TRUE
            X509v3 Subject Alternative Name: 
                DNS:example.com, IP Address:127.0.0.1
            X509v3 Extended Key Usage: 
                TLS Web Server Authentication, TLS Web Client Authentication
    Signature Algorithm: sha256WithRSAEncryption
         16:b7:d3:9c:7c:6e:d2:b7:79:aa:5a:16:0b:1e:da:d0:f7:df:
         64:c9:3c:b8:41:24:4b:1b:c2:83:5e:df:de:a8:8a:7c:eb:07:
         75:20:f6:f3:4c:bd:3f:2e:f0:f0:da:4b:c5:d2:c4:f8:db:34:
         75:e2:32:b4:34:92:8a:7f:d7:84:ea:df:99:ca:64:e6:7c:68:
         05:1c:75:de:3f:06:65:5d:fc:29:c9:73:0f:4a:ad:fd:bc:0d:
         91:37:67:63:55:65:93:99:56:84:25:1b:f1:50:03:31:2d:48:
         ad:a3:38:91:29:88:b8:72:08:4c:11:36:35:20:13:78:98:d8:
         84:30:c5:7b:70:24:45:8c:e1:55:80:06:5f:19:57:89:58:1c:
         2a:40:fb:f3:a6:bf:ea:41:7a:79:2c:ab:fe:b6:16:5d:d5:fa:
         32:50:9d:89:f2:cc:87:7a:57:cf:4d:38:c4:d5:33:9a:4d:83:
         c9:00:b8:36:66:14:76:20:c1:7a:c7:f7:0a:94:69:ce:0a:0f:
         81:04:12:5f:71:d0:d1:ff:08:d0:89:6f:ac:45:d3:06:23:a0:
         76:88:ad:5d:9a:7a:8c:1f:61:d4:d8:21:1d:8e:05:89:d1:d4:
         d6:86:5b:4b:43:e6:03:4a:10:48:f4:1b:9d:3b:76:d8:2c:ad:
         fa:33:a5:70
-----BEGIN CERTIFICATE-----
MIIEKjCCAxKgAwIBAgIBATANBgkqhkiG9w0BAQsFADCBlDELMAkGA1UEBhMCVVMx
EDAOBgNVBAgMB01vbnRhbmExEDAOBgNVBAcMB0JvemVtYW4xETAPBgNVBAoMCFNh
d3Rvb3RoMRMwEQYDVQQLDApDb25zdWx0aW5nMRgwFgYDVQQDDA93d3cud29sZnNz
bC5jb20xHzAdBgkqhkiG9w0BCQEWEGluZm9Ad29sZnNzbC5jb20wHhcNMjMxMjEz
MjIxOTI4WhcNMjYwOTA4MjIxOTI4WjCBnTELMAkGA1UEBhMCVVMxEDAOBgNVBAgM
B01vbnRhbmExEDAOBgNVBAcMB0JvemVtYW4xGjAYBgNVBAoMEUVsbGlwdGljIC0g
UlNBc2lnMRMwEQYDVQQLDApFQ0MtUlNBc2lnMRgwFgYDVQQDDA93d3cud29sZnNz
bC5jb20xHzAdBgkqhkiG9w0BCQEWEGluZm9Ad29sZnNzbC5jb20wWTATBgcqhkjO
PQIBBggqhkjOPQMBBwNCAAS7M6xMJ1BKxkqlBMM83p8223ItzpTqK/rLIAk5LBbo
YQLpr03TApOaMVuXkiF/8M8Y2pERAjSG6CBYMwuANInYo4IBRTCCAUEwHQYDVR0O
BBYEFF1dJu+sfjb5m3YVK0olAiPvsokwMIHUBgNVHSMEgcwwgcmAFCeOZxF0wyYd
P+0zY7Ok2B0w5ejVoYGapIGXMIGUMQswCQYDVQQGEwJVUzEQMA4GA1UECAwHTW9u
dGFuYTEQMA4GA1UEBwwHQm96ZW1hbjERMA8GA1UECgwIU2F3dG9vdGgxEzARBgNV
BAsMCkNvbnN1bHRpbmcxGDAWBgNVBAMMD3d3dy53b2xmc3NsLmNvbTEfMB0GCSqG
SIb3DQEJARYQaW5mb0B3b2xmc3NsLmNvbYIUM0QaqGwB7PZg8nBRCkzRFPq86UQw
DAYDVR0TBAUwAwEB/zAcBgNVHREEFTATggtleGFtcGxlLmNvbYcEfwAAATAdBgNV
HSUEFjAUBggrBgEFBQcDAQYIKwYBBQUHAwIwDQYJKoZIhvcNAQELBQADggEBABa3
05x8btK3eapaFgse2tD332TJPLhBJEsbwoNe396oinzrB3Ug9vNMvT8u8PDaS8XS
xPjbNHXiMrQ0kop/14Tq35nKZOZ8aAUcdd4/BmVd/CnJcw9Krf28DZE3Z2NVZZOZ
VoQlG/FQAzEtSK2jOJEpiLhyCEwRNjUgE3iY2IQwxXtwJEWM4VWABl8ZV4lYHCpA
+/Omv+pBenksq/62Fl3V+jJQnYnyzId6V89NOMTVM5pNg8kAuDZmFHYgwXrH9wqU
ac4KD4EEEl9x0NH/CNCJb6xF0wYjoHaIrV2aeowfYdTYIR2OBYnR1NaGW0tD5gNK
EEj0G507dtgsrfozpXA=
-----END CERTIFICATE-----
