Certificate:
    Data:
        Version: 3 (0x2)
        Serial Number: 1 (0x1)
        Signature Algorithm: sha256WithRSAEncryption
        Issuer: C = US, ST = Montana, L = Bozeman, O = Sawtooth, OU = Consulting, CN = www.wolfssl.com, emailAddress = info@wolfssl.com
        Validity
            Not Before: Dec 18 21:25:30 2024 GMT
            Not After : Sep 14 21:25:30 2027 GMT
        Subject: C = US, ST = Montana, L = Bozeman, O = Elliptic - RSAsig, OU = ECC-RSAsig, CN = www.wolfssl.com, emailAddress = info@wolfssl.com
        Subject Public Key Info:
            Public Key Algorithm: id-ecPublicKey
                Public-Key: (256 bit)
                pub:
                    04:bb:33:ac:4c:27:50:4a:c6:4a:a5:04:c3:3c:de:
                    9f:36:db:72:2d:ce:94:ea:2b:fa:cb:20:09:39:2c:
                    16:e8:61:02:e9:af:4d:d3:02:93:9a:31:5b:97:92:
                    21:7f:f0:cf:18:da:91:11:02:34:86:e8:20:58:33:
                    0b:80:34:89:d8
                ASN1 OID: prime256v1
                NIST CURVE: P-256
        X509v3 extensions:
            X509v3 Subject Key Identifier: 
                5D:5D:26:EF:AC:7E:36:F9:9B:76:15:2B:4A:25:02:23:EF:B2:89:30
            X509v3 Authority Key Identifier: 
                keyid:27:8E:67:11:74:C3:26:1D:3F:ED:33:63:B3:A4:D8:1D:30:E5:E8:D5
                DirName:/C=US/ST=Montana/L=Bozeman/O=Sawtooth/OU=Consulting/CN=www.wolfssl.com/emailAddress=info@wolfssl.com
                serial:6B:9B:70:C6:F1:A3:94:65:19:A1:08:58:EF:A7:8D:2B:7A:83:C1:DA
            X509v3 Basic Constraints: 
                CA:TRUE
            X509v3 Subject Alternative Name: 
                DNS:example.com, IP Address:127.0.0.1
            X509v3 Extended Key Usage: 
                TLS Web Server Authentication, TLS Web Client Authentication
    Signature Algorithm: sha256WithRSAEncryption
    Signature Value:
        38:e8:66:c3:74:e0:5c:59:a9:12:46:ad:84:e3:b3:fa:3e:68:
        90:d0:06:a4:2c:ab:f7:b3:b9:7c:89:62:fb:88:eb:88:04:d9:
        4b:ac:7e:4b:4b:7c:7c:0f:e1:dd:73:ee:88:b3:e7:1e:00:7b:
        fe:aa:24:50:d7:3c:c4:03:f2:ba:fd:81:ce:7a:0c:1c:48:6a:
        33:ad:a7:f8:f7:ca:f7:00:47:5c:fc:f8:05:98:5f:ec:c3:aa:
        75:93:03:a1:4e:7a:37:ec:8b:a9:99:fa:76:85:cb:c3:99:29:
        70:1e:9c:41:f1:49:fd:e8:c0:75:0a:dd:a0:e0:d3:6e:7f:93:
        7e:4d:2e:ee:a1:c9:db:fc:98:86:bb:67:7d:2f:74:00:10:7c:
        24:5b:58:f3:5a:ed:96:6e:8f:34:ee:47:46:be:3e:96:25:2b:
        7c:90:5b:65:24:48:66:5a:79:a6:6a:f5:ed:31:cf:0b:29:c3:
        f1:ab:91:21:9c:79:99:c9:5c:4c:2b:ac:f1:21:5c:44:07:14:
        45:e5:e0:84:ce:a3:49:59:8d:94:4a:9d:11:20:c3:d3:fc:ce:
        8f:2c:38:5b:38:e7:b2:d0:71:9f:3f:de:4e:08:03:f9:11:58:
        7c:46:04:0a:73:28:68:b8:17:17:02:45:9c:65:96:1a:b3:98:
        4d:3b:fb:c7
-----BEGIN CERTIFICATE-----
MIIEKjCCAxKgAwIBAgIBATANBgkqhkiG9w0BAQsFADCBlDELMAkGA1UEBhMCVVMx
EDAOBgNVBAgMB01vbnRhbmExEDAOBgNVBAcMB0JvemVtYW4xETAPBgNVBAoMCFNh
d3Rvb3RoMRMwEQYDVQQLDApDb25zdWx0aW5nMRgwFgYDVQQDDA93d3cud29sZnNz
bC5jb20xHzAdBgkqhkiG9w0BCQEWEGluZm9Ad29sZnNzbC5jb20wHhcNMjQxMjE4
MjEyNTMwWhcNMjcwOTE0MjEyNTMwWjCBnTELMAkGA1UEBhMCVVMxEDAOBgNVBAgM
B01vbnRhbmExEDAOBgNVBAcMB0JvemVtYW4xGjAYBgNVBAoMEUVsbGlwdGljIC0g
UlNBc2lnMRMwEQYDVQQLDApFQ0MtUlNBc2lnMRgwFgYDVQQDDA93d3cud29sZnNz
bC5jb20xHzAdBgkqhkiG9w0BCQEWEGluZm9Ad29sZnNzbC5jb20wWTATBgcqhkjO
PQIBBggqhkjOPQMBBwNCAAS7M6xMJ1BKxkqlBMM83p8223ItzpTqK/rLIAk5LBbo
YQLpr03TApOaMVuXkiF/8M8Y2pERAjSG6CBYMwuANInYo4IBRTCCAUEwHQYDVR0O
BBYEFF1dJu+sfjb5m3YVK0olAiPvsokwMIHUBgNVHSMEgcwwgcmAFCeOZxF0wyYd
P+0zY7Ok2B0w5ejVoYGapIGXMIGUMQswCQYDVQQGEwJVUzEQMA4GA1UECAwHTW9u
dGFuYTEQMA4GA1UEBwwHQm96ZW1hbjERMA8GA1UECgwIU2F3dG9vdGgxEzARBgNV
BAsMCkNvbnN1bHRpbmcxGDAWBgNVBAMMD3d3dy53b2xmc3NsLmNvbTEfMB0GCSqG
SIb3DQEJARYQaW5mb0B3b2xmc3NsLmNvbYIUa5twxvGjlGUZoQhY76eNK3qDwdow
DAYDVR0TBAUwAwEB/zAcBgNVHREEFTATggtleGFtcGxlLmNvbYcEfwAAATAdBgNV
HSUEFjAUBggrBgEFBQcDAQYIKwYBBQUHAwIwDQYJKoZIhvcNAQELBQADggEBADjo
ZsN04FxZqRJGrYTjs/o+aJDQBqQsq/ezuXyJYvuI64gE2UusfktLfHwP4d1z7oiz
5x4Ae/6qJFDXPMQD8rr9gc56DBxIajOtp/j3yvcAR1z8+AWYX+zDqnWTA6FOejfs
i6mZ+naFy8OZKXAenEHxSf3owHUK3aDg025/k35NLu6hydv8mIa7Z30vdAAQfCRb
WPNa7ZZujzTuR0a+PpYlK3yQW2UkSGZaeaZq9e0xzwspw/GrkSGceZnJXEwrrPEh
XEQHFEXl4ITOo0lZjZRKnREgw9P8zo8sOFs457LQcZ8/3k4IA/kRWHxGBApzKGi4
FxcCRZxllhqzmE07+8c=
-----END CERTIFICATE-----
