Certificate:
    Data:
        Version: 3 (0x2)
        Serial Number: 1 (0x1)
        Signature Algorithm: sha256WithRSAEncryption
        Issuer: C=US, ST=Montana, L=Bozeman, O=Sawtooth, OU=Consulting, CN=www.wolfssl.com, emailAddress=info@wolfssl.com
        Validity
            Not Before: Nov 13 20:41:13 2025 GMT
            Not After : Aug  9 20:41:13 2028 GMT
        Subject: C=US, ST=Montana, L=Bozeman, O=wolfSSL, OU=Support, CN=www.wolfssl.com, emailAddress=info@wolfssl.com
        Subject Public Key Info:
            Public Key Algorithm: rsaEncryption
                Public-Key: (2048 bit)
                Modulus:
                    00:c0:95:08:e1:57:41:f2:71:6d:b7:d2:45:41:27:
                    01:65:c6:45:ae:f2:bc:24:30:b8:95:ce:2f:4e:d6:
                    f6:1c:88:bc:7c:9f:fb:a8:67:7f:fe:5c:9c:51:75:
                    f7:8a:ca:07:e7:35:2f:8f:e1:bd:7b:c0:2f:7c:ab:
                    64:a8:17:fc:ca:5d:7b:ba:e0:21:e5:72:2e:6f:2e:
                    86:d8:95:73:da:ac:1b:53:b9:5f:3f:d7:19:0d:25:
                    4f:e1:63:63:51:8b:0b:64:3f:ad:43:b8:a5:1c:5c:
                    34:b3:ae:00:a0:63:c5:f6:7f:0b:59:68:78:73:a6:
                    8c:18:a9:02:6d:af:c3:19:01:2e:b8:10:e3:c6:cc:
                    40:b4:69:a3:46:33:69:87:6e:c4:bb:17:a6:f3:e8:
                    dd:ad:73:bc:7b:2f:21:b5:fd:66:51:0c:bd:54:b3:
                    e1:6d:5f:1c:bc:23:73:d1:09:03:89:14:d2:10:b9:
                    64:c3:2a:d0:a1:96:4a:bc:e1:d4:1a:5b:c7:a0:c0:
                    c1:63:78:0f:44:37:30:32:96:80:32:23:95:a1:77:
                    ba:13:d2:97:73:e2:5d:25:c9:6a:0d:c3:39:60:a4:
                    b4:b0:69:42:42:09:e9:d8:08:bc:33:20:b3:58:22:
                    a7:aa:eb:c4:e1:e6:61:83:c5:d2:96:df:d9:d0:4f:
                    ad:d7
                Exponent: 65537 (0x10001)
        X509v3 extensions:
            X509v3 Subject Key Identifier: 
                B3:11:32:C9:92:98:84:E2:C9:F8:D0:3B:6E:03:42:CA:1F:0E:8E:3C
            X509v3 Authority Key Identifier: 
                keyid:27:8E:67:11:74:C3:26:1D:3F:ED:33:63:B3:A4:D8:1D:30:E5:E8:D5
                DirName:/C=US/ST=Montana/L=Bozeman/O=Sawtooth/OU=Consulting/CN=www.wolfssl.com/emailAddress=info@wolfssl.com
                serial:3F:29:11:20:57:71:E7:8E:F9:18:0D:CA:70:4D:5B:15:2A:43:D6:24
            X509v3 Basic Constraints: 
                CA:TRUE
            X509v3 Subject Alternative Name: 
                DNS:example.com, IP Address:127.0.0.1
            X509v3 Extended Key Usage: 
                TLS Web Server Authentication, TLS Web Client Authentication
    Signature Algorithm: sha256WithRSAEncryption
    Signature Value:
        bb:de:9b:8d:eb:6b:17:42:a4:de:1f:9d:61:80:80:7d:f3:3a:
        5e:c1:b9:a2:b4:0d:28:5a:92:4e:d6:02:47:2f:99:1a:43:fa:
        a4:8b:d8:56:45:22:c3:bb:f3:7d:d4:07:db:9b:99:0b:01:35:
        04:d3:13:d9:ad:6e:88:b9:89:db:35:ed:e4:bf:12:6e:66:bd:
        c2:a6:8f:0a:95:8d:f7:6e:6e:4c:ff:fc:d0:b4:d7:ee:c9:5f:
        c3:44:ef:2a:9b:6f:fa:69:fe:2e:d6:10:64:da:9f:9b:33:f0:
        5f:49:e3:6f:e1:9e:d5:f7:4a:2a:1d:4c:c8:d0:82:d0:c7:a6:
        54:c0:57:f1:a8:e8:d2:24:c9:59:7d:dc:3c:21:cf:2d:ff:36:
        5d:14:ed:3c:4b:74:53:f6:3a:25:2f:42:9d:76:fb:dc:60:2c:
        28:eb:2d:c5:35:65:b5:bc:f1:dc:70:5d:fd:76:ce:8c:b6:da:
        bb:de:d7:b1:ff:f0:56:db:1f:7b:41:e8:6f:3c:4b:92:4d:ed:
        2f:23:46:91:aa:7c:73:98:c1:bf:28:6e:7f:50:30:e8:b5:51:
        3c:ac:ce:b4:b4:c8:83:36:b7:40:6f:68:d0:8f:12:63:93:d5:
        a4:42:b9:c5:c6:93:55:33:ed:84:c1:fc:19:ad:70:98:15:68:
        03:9e:65:c9
-----BEGIN CERTIFICATE-----
MIIE6DCCA9CgAwIBAgIBATANBgkqhkiG9w0BAQsFADCBlDELMAkGA1UEBhMCVVMx
EDAOBgNVBAgMB01vbnRhbmExEDAOBgNVBAcMB0JvemVtYW4xETAPBgNVBAoMCFNh
d3Rvb3RoMRMwEQYDVQQLDApDb25zdWx0aW5nMRgwFgYDVQQDDA93d3cud29sZnNz
bC5jb20xHzAdBgkqhkiG9w0BCQEWEGluZm9Ad29sZnNzbC5jb20wHhcNMjUxMTEz
MjA0MTEzWhcNMjgwODA5MjA0MTEzWjCBkDELMAkGA1UEBhMCVVMxEDAOBgNVBAgM
B01vbnRhbmExEDAOBgNVBAcMB0JvemVtYW4xEDAOBgNVBAoMB3dvbGZTU0wxEDAO
BgNVBAsMB1N1cHBvcnQxGDAWBgNVBAMMD3d3dy53b2xmc3NsLmNvbTEfMB0GCSqG
SIb3DQEJARYQaW5mb0B3b2xmc3NsLmNvbTCCASIwDQYJKoZIhvcNAQEBBQADggEP
ADCCAQoCggEBAMCVCOFXQfJxbbfSRUEnAWXGRa7yvCQwuJXOL07W9hyIvHyf+6hn
f/5cnFF194rKB+c1L4/hvXvAL3yrZKgX/Mpde7rgIeVyLm8uhtiVc9qsG1O5Xz/X
GQ0lT+FjY1GLC2Q/rUO4pRxcNLOuAKBjxfZ/C1loeHOmjBipAm2vwxkBLrgQ48bM
QLRpo0YzaYduxLsXpvPo3a1zvHsvIbX9ZlEMvVSz4W1fHLwjc9EJA4kU0hC5ZMMq
0KGWSrzh1Bpbx6DAwWN4D0Q3MDKWgDIjlaF3uhPSl3PiXSXJag3DOWCktLBpQkIJ
6dgIvDMgs1gip6rrxOHmYYPF0pbf2dBPrdcCAwEAAaOCAUUwggFBMB0GA1UdDgQW
BBSzETLJkpiE4sn40DtuA0LKHw6OPDCB1AYDVR0jBIHMMIHJgBQnjmcRdMMmHT/t
M2OzpNgdMOXo1aGBmqSBlzCBlDELMAkGA1UEBhMCVVMxEDAOBgNVBAgMB01vbnRh
bmExEDAOBgNVBAcMB0JvemVtYW4xETAPBgNVBAoMCFNhd3Rvb3RoMRMwEQYDVQQL
DApDb25zdWx0aW5nMRgwFgYDVQQDDA93d3cud29sZnNzbC5jb20xHzAdBgkqhkiG
9w0BCQEWEGluZm9Ad29sZnNzbC5jb22CFD8pESBXceeO+RgNynBNWxUqQ9YkMAwG
A1UdEwQFMAMBAf8wHAYDVR0RBBUwE4ILZXhhbXBsZS5jb22HBH8AAAEwHQYDVR0l
BBYwFAYIKwYBBQUHAwEGCCsGAQUFBwMCMA0GCSqGSIb3DQEBCwUAA4IBAQC73puN
62sXQqTeH51hgIB98zpewbmitA0oWpJO1gJHL5kaQ/qki9hWRSLDu/N91Afbm5kL
ATUE0xPZrW6IuYnbNe3kvxJuZr3Cpo8KlY33bm5M//zQtNfuyV/DRO8qm2/6af4u
1hBk2p+bM/BfSeNv4Z7V90oqHUzI0ILQx6ZUwFfxqOjSJMlZfdw8Ic8t/zZdFO08
S3RT9jolL0KddvvcYCwo6y3FNWW1vPHccF39ds6Mttq73tex//BW2x97QehvPEuS
Te0vI0aRqnxzmMG/KG5/UDDotVE8rM60tMiDNrdAb2jQjxJjk9WkQrnFxpNVM+2E
wfwZrXCYFWgDnmXJ
-----END CERTIFICATE-----
Certificate:
    Data:
        Version: 3 (0x2)
        Serial Number:
            3f:29:11:20:57:71:e7:8e:f9:18:0d:ca:70:4d:5b:15:2a:43:d6:24
        Signature Algorithm: sha256WithRSAEncryption
        Issuer: C=US, ST=Montana, L=Bozeman, O=Sawtooth, OU=Consulting, CN=www.wolfssl.com, emailAddress=info@wolfssl.com
        Validity
            Not Before: Nov 13 20:41:11 2025 GMT
            Not After : Aug  9 20:41:11 2028 GMT
        Subject: C=US, ST=Montana, L=Bozeman, O=Sawtooth, OU=Consulting, CN=www.wolfssl.com, emailAddress=info@wolfssl.com
        Subject Public Key Info:
            Public Key Algorithm: rsaEncryption
                Public-Key: (2048 bit)
                Modulus:
                    00:bf:0c:ca:2d:14:b2:1e:84:42:5b:cd:38:1f:4a:
                    f2:4d:75:10:f1:b6:35:9f:df:ca:7d:03:98:d3:ac:
                    de:03:66:ee:2a:f1:d8:b0:7d:6e:07:54:0b:10:98:
                    21:4d:80:cb:12:20:e7:cc:4f:de:45:7d:c9:72:77:
                    32:ea:ca:90:bb:69:52:10:03:2f:a8:f3:95:c5:f1:
                    8b:62:56:1b:ef:67:6f:a4:10:41:95:ad:0a:9b:e3:
                    a5:c0:b0:d2:70:76:50:30:5b:a8:e8:08:2c:7c:ed:
                    a7:a2:7a:8d:38:29:1c:ac:c7:ed:f2:7c:95:b0:95:
                    82:7d:49:5c:38:cd:77:25:ef:bd:80:75:53:94:3c:
                    3d:ca:63:5b:9f:15:b5:d3:1d:13:2f:19:d1:3c:db:
                    76:3a:cc:b8:7d:c9:e5:c2:d7:da:40:6f:d8:21:dc:
                    73:1b:42:2d:53:9c:fe:1a:fc:7d:ab:7a:36:3f:98:
                    de:84:7c:05:67:ce:6a:14:38:87:a9:f1:8c:b5:68:
                    cb:68:7f:71:20:2b:f5:a0:63:f5:56:2f:a3:26:d2:
                    b7:6f:b1:5a:17:d7:38:99:08:fe:93:58:6f:fe:c3:
                    13:49:08:16:0b:a7:4d:67:00:52:31:67:23:4e:98:
                    ed:51:45:1d:b9:04:d9:0b:ec:d8:28:b3:4b:bd:ed:
                    36:79
                Exponent: 65537 (0x10001)
        X509v3 extensions:
            X509v3 Subject Key Identifier: 
                27:8E:67:11:74:C3:26:1D:3F:ED:33:63:B3:A4:D8:1D:30:E5:E8:D5
            X509v3 Authority Key Identifier: 
                keyid:27:8E:67:11:74:C3:26:1D:3F:ED:33:63:B3:A4:D8:1D:30:E5:E8:D5
                DirName:/C=US/ST=Montana/L=Bozeman/O=Sawtooth/OU=Consulting/CN=www.wolfssl.com/emailAddress=info@wolfssl.com
                serial:3F:29:11:20:57:71:E7:8E:F9:18:0D:CA:70:4D:5B:15:2A:43:D6:24
            X509v3 Basic Constraints: 
                CA:TRUE
            X509v3 Subject Alternative Name: 
                DNS:example.com, IP Address:127.0.0.1
            X509v3 Extended Key Usage: 
                TLS Web Server Authentication, TLS Web Client Authentication
    Signature Algorithm: sha256WithRSAEncryption
    Signature Value:
        0f:ae:89:d5:68:e4:41:f8:9b:e0:c5:61:06:57:ff:a0:92:0f:
        b2:ed:d3:99:5b:99:5e:32:7e:97:c7:af:6c:fe:8c:a6:ae:32:
        a1:0d:ca:cd:fc:18:e5:d1:f8:20:5b:5a:38:81:46:5b:48:87:
        a5:3f:3b:7b:c7:ea:f5:35:29:31:15:39:38:5d:48:e6:01:81:
        5c:5e:7c:10:f5:16:e3:59:af:44:c8:b5:8d:c1:32:23:b3:b8:
        12:6e:5c:8d:e6:c2:d2:41:03:eb:17:42:e2:7f:bc:00:5d:a5:
        31:ef:c6:48:ee:db:cc:e0:f1:56:f5:d4:ca:45:a1:59:b5:e4:
        d7:60:9c:57:e0:a7:5a:f2:35:1e:a0:22:db:5e:1c:0c:61:bd:
        a1:c5:7b:9f:69:f2:d5:95:e2:bc:52:b9:1d:9c:2c:da:b6:73:
        75:4a:84:e5:94:b8:19:4d:dd:70:bd:7f:4c:b9:17:6a:58:16:
        89:22:44:37:57:55:26:42:e3:b7:e5:c7:2b:40:0c:e9:e4:7f:
        52:75:df:06:c9:fb:01:44:34:ac:20:3c:b4:be:2b:3e:ef:85:
        38:96:5b:9b:1e:25:86:18:4c:a4:06:70:06:6a:c8:4b:6f:5f:
        c4:05:1f:03:62:30:11:61:bc:c1:40:31:66:dc:64:f0:4f:6b:
        b9:ec:c8:29
-----BEGIN CERTIFICATE-----
MIIE/zCCA+egAwIBAgIUPykRIFdx5475GA3KcE1bFSpD1iQwDQYJKoZIhvcNAQEL
BQAwgZQxCzAJBgNVBAYTAlVTMRAwDgYDVQQIDAdNb250YW5hMRAwDgYDVQQHDAdC
b3plbWFuMREwDwYDVQQKDAhTYXd0b290aDETMBEGA1UECwwKQ29uc3VsdGluZzEY
MBYGA1UEAwwPd3d3LndvbGZzc2wuY29tMR8wHQYJKoZIhvcNAQkBFhBpbmZvQHdv
bGZzc2wuY29tMB4XDTI1MTExMzIwNDExMVoXDTI4MDgwOTIwNDExMVowgZQxCzAJ
BgNVBAYTAlVTMRAwDgYDVQQIDAdNb250YW5hMRAwDgYDVQQHDAdCb3plbWFuMREw
DwYDVQQKDAhTYXd0b290aDETMBEGA1UECwwKQ29uc3VsdGluZzEYMBYGA1UEAwwP
d3d3LndvbGZzc2wuY29tMR8wHQYJKoZIhvcNAQkBFhBpbmZvQHdvbGZzc2wuY29t
MIIBIjANBgkqhkiG9w0BAQEFAAOCAQ8AMIIBCgKCAQEAvwzKLRSyHoRCW804H0ry
TXUQ8bY1n9/KfQOY06zeA2buKvHYsH1uB1QLEJghTYDLEiDnzE/eRX3Jcncy6sqQ
u2lSEAMvqPOVxfGLYlYb72dvpBBBla0Km+OlwLDScHZQMFuo6AgsfO2nonqNOCkc
rMft8nyVsJWCfUlcOM13Je+9gHVTlDw9ymNbnxW10x0TLxnRPNt2Osy4fcnlwtfa
QG/YIdxzG0ItU5z+Gvx9q3o2P5jehHwFZ85qFDiHqfGMtWjLaH9xICv1oGP1Vi+j
JtK3b7FaF9c4mQj+k1hv/sMTSQgWC6dNZwBSMWcjTpjtUUUduQTZC+zYKLNLve02
eQIDAQABo4IBRTCCAUEwHQYDVR0OBBYEFCeOZxF0wyYdP+0zY7Ok2B0w5ejVMIHU
BgNVHSMEgcwwgcmAFCeOZxF0wyYdP+0zY7Ok2B0w5ejVoYGapIGXMIGUMQswCQYD
VQQGEwJVUzEQMA4GA1UECAwHTW9udGFuYTEQMA4GA1UEBwwHQm96ZW1hbjERMA8G
A1UECgwIU2F3dG9vdGgxEzARBgNVBAsMCkNvbnN1bHRpbmcxGDAWBgNVBAMMD3d3
dy53b2xmc3NsLmNvbTEfMB0GCSqGSIb3DQEJARYQaW5mb0B3b2xmc3NsLmNvbYIU
PykRIFdx5475GA3KcE1bFSpD1iQwDAYDVR0TBAUwAwEB/zAcBgNVHREEFTATggtl
eGFtcGxlLmNvbYcEfwAAATAdBgNVHSUEFjAUBggrBgEFBQcDAQYIKwYBBQUHAwIw
DQYJKoZIhvcNAQELBQADggEBAA+uidVo5EH4m+DFYQZX/6CSD7Lt05lbmV4yfpfH
r2z+jKauMqENys38GOXR+CBbWjiBRltIh6U/O3vH6vU1KTEVOThdSOYBgVxefBD1
FuNZr0TItY3BMiOzuBJuXI3mwtJBA+sXQuJ/vABdpTHvxkju28zg8Vb11MpFoVm1
5NdgnFfgp1ryNR6gItteHAxhvaHFe59p8tWV4rxSuR2cLNq2c3VKhOWUuBlN3XC9
f0y5F2pYFokiRDdXVSZC47flxytADOnkf1J13wbJ+wFENKwgPLS+Kz7vhTiWW5se
JYYYTKQGcAZqyEtvX8QFHwNiMBFhvMFAMWbcZPBPa7nsyCk=
-----END CERTIFICATE-----
