Certificate:
    Data:
        Version: 3 (0x2)
        Serial Number: 4096 (0x1000)
    Signature Algorithm: ecdsa-with-SHA256
        Issuer: C=US, ST=Washington, L=Seattle, O=wolfSSL, OU=Development, CN=www.wolfssl.com/emailAddress=info@wolfssl.com
        Validity
            Not Before: Oct 19 19:06:49 2017 GMT
            Not After : Oct 17 19:06:49 2027 GMT
        Subject: C=US, ST=Washington, L=Seattle, O=Eliptic, OU=ECC, CN=www.wolfssl.com/emailAddress=info@wolfssl.com
        Subject Public Key Info:
            Public Key Algorithm: id-ecPublicKey
                Public-Key: (256 bit)
                pub: 
                    04:bb:33:ac:4c:27:50:4a:c6:4a:a5:04:c3:3c:de:
                    9f:36:db:72:2d:ce:94:ea:2b:fa:cb:20:09:39:2c:
                    16:e8:61:02:e9:af:4d:d3:02:93:9a:31:5b:97:92:
                    21:7f:f0:cf:18:da:91:11:02:34:86:e8:20:58:33:
                    0b:80:34:89:d8
                ASN1 OID: prime256v1
        X509v3 extensions:
            X509v3 Basic Constraints: 
                CA:FALSE
            Netscape Cert Type: 
                SSL Server
            X509v3 Subject Key Identifier: 
                5D:5D:26:EF:AC:7E:36:F9:9B:76:15:2B:4A:25:02:23:EF:B2:89:30
            X509v3 Authority Key Identifier: 
                keyid:FD:9D:85:D5:C1:6F:47:EA:C6:75:96:59:25:37:46:8C:61:DB:E1:C3
                DirName:/C=US/ST=Washington/L=Seattle/O=wolfSSL/OU=Development/CN=www.wolfssl.com/emailAddress=info@wolfssl.com
                serial:98:6A:0C:F4:02:43:A6:28

            X509v3 Key Usage: critical
                Digital Signature, Key Encipherment
            X509v3 Extended Key Usage: 
                TLS Web Server Authentication
    Signature Algorithm: ecdsa-with-SHA256
         30:45:02:21:00:ce:09:22:ab:21:c1:30:80:33:4b:b4:75:19:
         0b:37:e5:18:c6:6a:48:b1:a6:2a:0c:d0:91:96:d3:97:db:75:
         cf:02:20:03:97:6b:90:e1:2e:20:10:e7:bf:c3:25:97:4d:a8:
         07:9e:14:86:99:bd:87:98:fd:2e:d2:4d:1f:da:52:92:b9
-----BEGIN CERTIFICATE-----
MIIDTzCCAvWgAwIBAgICEAAwCgYIKoZIzj0EAwIwgZcxCzAJBgNVBAYTAlVTMRMw
EQYDVQQIDApXYXNoaW5ndG9uMRAwDgYDVQQHDAdTZWF0dGxlMRAwDgYDVQQKDAd3
b2xmU1NMMRQwEgYDVQQLDAtEZXZlbG9wbWVudDEYMBYGA1UEAwwPd3d3LndvbGZz
c2wuY29tMR8wHQYJKoZIhvcNAQkBFhBpbmZvQHdvbGZzc2wuY29tMB4XDTE3MTAx
OTE5MDY0OVoXDTI3MTAxNzE5MDY0OVowgY8xCzAJBgNVBAYTAlVTMRMwEQYDVQQI
DApXYXNoaW5ndG9uMRAwDgYDVQQHDAdTZWF0dGxlMRAwDgYDVQQKDAdFbGlwdGlj
MQwwCgYDVQQLDANFQ0MxGDAWBgNVBAMMD3d3dy53b2xmc3NsLmNvbTEfMB0GCSqG
SIb3DQEJARYQaW5mb0B3b2xmc3NsLmNvbTBZMBMGByqGSM49AgEGCCqGSM49AwEH
A0IABLszrEwnUErGSqUEwzzenzbbci3OlOor+ssgCTksFuhhAumvTdMCk5oxW5eS
IX/wzxjakRECNIboIFgzC4A0idijggE1MIIBMTAJBgNVHRMEAjAAMBEGCWCGSAGG
+EIBAQQEAwIGQDAdBgNVHQ4EFgQUXV0m76x+NvmbdhUrSiUCI++yiTAwgcwGA1Ud
IwSBxDCBwYAU/Z2F1cFvR+rGdZZZJTdGjGHb4cOhgZ2kgZowgZcxCzAJBgNVBAYT
AlVTMRMwEQYDVQQIDApXYXNoaW5ndG9uMRAwDgYDVQQHDAdTZWF0dGxlMRAwDgYD
VQQKDAd3b2xmU1NMMRQwEgYDVQQLDAtEZXZlbG9wbWVudDEYMBYGA1UEAwwPd3d3
LndvbGZzc2wuY29tMR8wHQYJKoZIhvcNAQkBFhBpbmZvQHdvbGZzc2wuY29tggkA
mGoM9AJDpigwDgYDVR0PAQH/BAQDAgWgMBMGA1UdJQQMMAoGCCsGAQUFBwMBMAoG
CCqGSM49BAMCA0gAMEUCIQDOCSKrIcEwgDNLtHUZCzflGMZqSLGmKgzQkZbTl9t1
zwIgA5drkOEuIBDnv8Mll02oB54Uhpm9h5j9LtJNH9pSkrk=
-----END CERTIFICATE-----
