Certificate:
    Data:
        Version: 3 (0x2)
        Serial Number: 3 (0x3)
        Signature Algorithm: ecdsa-with-SHA256
        Issuer: C = US, ST = Washington, L = Seattle, O = wolfSSL, OU = Development, CN = www.wolfssl.com, emailAddress = info@wolfssl.com
        Validity
            Not Before: Dec 18 21:25:30 2024 GMT
            Not After : Sep 14 21:25:30 2027 GMT
        Subject: C = US, ST = Washington, L = Seattle, O = Elliptic, OU = ECC, CN = www.wolfssl.com, emailAddress = info@wolfssl.com
        Subject Public Key Info:
            Public Key Algorithm: id-ecPublicKey
                Public-Key: (256 bit)
                pub:
                    04:bb:33:ac:4c:27:50:4a:c6:4a:a5:04:c3:3c:de:
                    9f:36:db:72:2d:ce:94:ea:2b:fa:cb:20:09:39:2c:
                    16:e8:61:02:e9:af:4d:d3:02:93:9a:31:5b:97:92:
                    21:7f:f0:cf:18:da:91:11:02:34:86:e8:20:58:33:
                    0b:80:34:89:d8
                ASN1 OID: prime256v1
                NIST CURVE: P-256
        X509v3 extensions:
            X509v3 Subject Key Identifier: 
                5D:5D:26:EF:AC:7E:36:F9:9B:76:15:2B:4A:25:02:23:EF:B2:89:30
            X509v3 Authority Key Identifier: 
                56:8E:9A:C3:F0:42:DE:18:B9:45:55:6E:F9:93:CF:EA:C3:F3:A5:21
            X509v3 Basic Constraints: critical
                CA:FALSE
            X509v3 Key Usage: critical
                Digital Signature, Key Encipherment, Key Agreement
            X509v3 Extended Key Usage: 
                TLS Web Server Authentication
            Netscape Cert Type: 
                SSL Server
    Signature Algorithm: ecdsa-with-SHA256
    Signature Value:
        30:45:02:21:00:8b:82:a5:d2:f6:ca:84:ba:ad:2d:de:36:e9:
        2a:4d:ee:4b:20:46:ba:ab:4e:d0:10:6e:eb:30:b6:7e:d8:af:
        8c:02:20:06:74:40:6a:a9:31:54:fe:20:9d:c6:6d:2b:df:1d:
        aa:63:da:fc:97:50:87:92:69:ee:63:57:b6:ec:e2:e9:fa
-----BEGIN CERTIFICATE-----
MIICojCCAkigAwIBAgIBAzAKBggqhkjOPQQDAjCBlzELMAkGA1UEBhMCVVMxEzAR
BgNVBAgMCldhc2hpbmd0b24xEDAOBgNVBAcMB1NlYXR0bGUxEDAOBgNVBAoMB3dv
bGZTU0wxFDASBgNVBAsMC0RldmVsb3BtZW50MRgwFgYDVQQDDA93d3cud29sZnNz
bC5jb20xHzAdBgkqhkiG9w0BCQEWEGluZm9Ad29sZnNzbC5jb20wHhcNMjQxMjE4
MjEyNTMwWhcNMjcwOTE0MjEyNTMwWjCBkDELMAkGA1UEBhMCVVMxEzARBgNVBAgM
Cldhc2hpbmd0b24xEDAOBgNVBAcMB1NlYXR0bGUxETAPBgNVBAoMCEVsbGlwdGlj
MQwwCgYDVQQLDANFQ0MxGDAWBgNVBAMMD3d3dy53b2xmc3NsLmNvbTEfMB0GCSqG
SIb3DQEJARYQaW5mb0B3b2xmc3NsLmNvbTBZMBMGByqGSM49AgEGCCqGSM49AwEH
A0IABLszrEwnUErGSqUEwzzenzbbci3OlOor+ssgCTksFuhhAumvTdMCk5oxW5eS
IX/wzxjakRECNIboIFgzC4A0idijgYkwgYYwHQYDVR0OBBYEFF1dJu+sfjb5m3YV
K0olAiPvsokwMB8GA1UdIwQYMBaAFFaOmsPwQt4YuUVVbvmTz+rD86UhMAwGA1Ud
EwEB/wQCMAAwDgYDVR0PAQH/BAQDAgOoMBMGA1UdJQQMMAoGCCsGAQUFBwMBMBEG
CWCGSAGG+EIBAQQEAwIGQDAKBggqhkjOPQQDAgNIADBFAiEAi4Kl0vbKhLqtLd42
6SpN7ksgRrqrTtAQbuswtn7Yr4wCIAZ0QGqpMVT+IJ3GbSvfHapj2vyXUIeSae5j
V7bs4un6
-----END CERTIFICATE-----
