Certificate:
    Data:
        Version: 3 (0x2)
        Serial Number: 2 (0x2)
        Signature Algorithm: sha256WithRSAEncryption
        Issuer: C=US, ST=Montana, L=Bozeman, O=Sawtooth, OU=Consulting, CN=www.wolfssl.com, emailAddress=facts@wolfssl.com
        Validity
            Not Before: Jun 11 21:44:29 2026 GMT
            Not After : Mar  7 21:44:29 2029 GMT
        Subject: C=US, ST=Montana, L=Bozeman, O=wolfSSL_revoked, OU=Support_revoked, CN=www.wolfssl.com, emailAddress=facts@wolfssl.com
        Subject Public Key Info:
            Public Key Algorithm: rsaEncryption
                Public-Key: (2048 bit)
                Modulus:
                    00:b0:14:16:3a:43:dd:e1:50:45:4f:cf:80:b3:dd:
                    66:96:c7:e9:f4:dc:de:b6:6b:24:1b:76:48:ac:c6:
                    23:a5:a7:e4:05:19:bd:b7:f6:de:fa:ff:ed:5b:3c:
                    79:8a:a9:d5:f1:fb:eb:c8:b1:e4:b2:ab:52:72:89:
                    93:22:5c:ba:cd:8a:36:2a:2c:d1:40:ec:a8:66:0e:
                    c3:76:cd:e7:b3:a3:0a:1e:dd:4a:07:82:17:81:ba:
                    de:57:ce:b6:32:81:c7:bd:11:bb:e9:15:22:4e:e2:
                    16:ac:e3:d4:c0:68:88:6c:11:fc:c2:bd:1b:db:1d:
                    fd:e6:43:c7:1b:33:b8:f4:e5:1b:59:39:12:38:4d:
                    2d:9b:64:68:98:fc:8d:72:12:91:f2:24:25:6c:4c:
                    4a:48:57:92:00:cc:7e:d8:d4:3d:b8:1d:f2:9e:ea:
                    b2:23:0f:51:0f:11:41:1c:f5:27:00:1b:08:7a:12:
                    3a:05:5b:03:24:fe:b1:7b:20:fa:e4:a8:58:c6:ca:
                    ce:7f:be:95:01:12:9d:05:e6:39:13:1b:c0:3e:56:
                    2e:2b:9f:76:37:de:de:9b:e0:0d:7a:63:0d:a7:22:
                    58:db:31:c7:f7:b4:46:5c:ba:b6:4b:48:b1:18:9a:
                    68:b3:63:47:fd:af:12:5f:2f:fe:10:cb:58:2b:33:
                    68:85
                Exponent: 65537 (0x10001)
        X509v3 extensions:
            X509v3 Subject Key Identifier: 
                D8:09:2B:59:E1:2A:EE:D9:EE:40:AA:9C:AB:F0:5D:28:09:4F:22:BB
            X509v3 Authority Key Identifier: 
                keyid:27:8E:67:11:74:C3:26:1D:3F:ED:33:63:B3:A4:D8:1D:30:E5:E8:D5
                DirName:/C=US/ST=Montana/L=Bozeman/O=Sawtooth/OU=Consulting/CN=www.wolfssl.com/emailAddress=facts@wolfssl.com
                serial:67:19:D2:A8:7F:E3:2D:FA:75:7A:4F:E7:B2:02:D9:AD:C4:77:5E:F8
            X509v3 Basic Constraints: 
                CA:TRUE
            X509v3 Subject Alternative Name: 
                DNS:example.com, IP Address:127.0.0.1
            X509v3 Extended Key Usage: 
                TLS Web Server Authentication, TLS Web Client Authentication
    Signature Algorithm: sha256WithRSAEncryption
    Signature Value:
        23:1c:0e:3f:3d:fb:56:b8:db:9b:a9:d5:7f:d4:4b:68:8a:84:
        fb:05:fc:a3:d5:9f:ba:df:18:a1:43:7b:49:f8:1a:73:a8:0f:
        90:dc:70:0d:72:26:13:bd:d1:61:a5:88:66:aa:b4:5b:0d:54:
        a9:cb:94:90:aa:a1:04:63:79:5f:97:cc:db:0f:17:cf:c1:83:
        24:78:4b:ab:a1:b2:66:4b:c1:55:ad:61:a5:be:e7:0a:05:76:
        da:32:c1:27:1c:39:cf:3c:5e:1b:cc:79:85:d9:00:6f:25:ff:
        f2:bf:1c:4e:ce:e9:5a:96:d1:f7:af:b0:35:44:19:00:c2:93:
        1a:b2:7d:ba:3d:c7:e4:03:15:3e:03:ba:af:25:d2:32:65:60:
        a8:e7:b9:b5:60:55:0a:07:ab:72:c0:ae:31:e0:83:74:3d:82:
        0d:77:ff:dd:1f:71:16:a0:b4:1d:86:33:55:21:97:d4:e2:50:
        f8:22:bb:5f:d4:ac:8d:46:4e:36:6a:b5:eb:5e:74:ac:c6:45:
        c7:eb:63:b1:ff:21:cb:a6:70:4f:aa:d3:f5:da:80:77:f7:b8:
        9c:f0:58:52:1d:d1:e8:74:4c:1e:b9:19:b1:71:f8:7e:7f:d6:
        68:34:8e:4e:b2:8b:49:2a:d9:94:2e:61:14:b5:17:c5:05:68:
        d6:d9:ed:04
-----BEGIN CERTIFICATE-----
MIIE+zCCA+OgAwIBAgIBAjANBgkqhkiG9w0BAQsFADCBlTELMAkGA1UEBhMCVVMx
EDAOBgNVBAgMB01vbnRhbmExEDAOBgNVBAcMB0JvemVtYW4xETAPBgNVBAoMCFNh
d3Rvb3RoMRMwEQYDVQQLDApDb25zdWx0aW5nMRgwFgYDVQQDDA93d3cud29sZnNz
bC5jb20xIDAeBgkqhkiG9w0BCQEWEWZhY3RzQHdvbGZzc2wuY29tMB4XDTI2MDYx
MTIxNDQyOVoXDTI5MDMwNzIxNDQyOVowgaExCzAJBgNVBAYTAlVTMRAwDgYDVQQI
DAdNb250YW5hMRAwDgYDVQQHDAdCb3plbWFuMRgwFgYDVQQKDA93b2xmU1NMX3Jl
dm9rZWQxGDAWBgNVBAsMD1N1cHBvcnRfcmV2b2tlZDEYMBYGA1UEAwwPd3d3Lndv
bGZzc2wuY29tMSAwHgYJKoZIhvcNAQkBFhFmYWN0c0B3b2xmc3NsLmNvbTCCASIw
DQYJKoZIhvcNAQEBBQADggEPADCCAQoCggEBALAUFjpD3eFQRU/PgLPdZpbH6fTc
3rZrJBt2SKzGI6Wn5AUZvbf23vr/7Vs8eYqp1fH768ix5LKrUnKJkyJcus2KNios
0UDsqGYOw3bN57OjCh7dSgeCF4G63lfOtjKBx70Ru+kVIk7iFqzj1MBoiGwR/MK9
G9sd/eZDxxszuPTlG1k5EjhNLZtkaJj8jXISkfIkJWxMSkhXkgDMftjUPbgd8p7q
siMPUQ8RQRz1JwAbCHoSOgVbAyT+sXsg+uSoWMbKzn++lQESnQXmORMbwD5WLiuf
djfe3pvgDXpjDaciWNsxx/e0Rly6tktIsRiaaLNjR/2vEl8v/hDLWCszaIUCAwEA
AaOCAUYwggFCMB0GA1UdDgQWBBTYCStZ4Sru2e5Aqpyr8F0oCU8iuzCB1QYDVR0j
BIHNMIHKgBQnjmcRdMMmHT/tM2OzpNgdMOXo1aGBm6SBmDCBlTELMAkGA1UEBhMC
VVMxEDAOBgNVBAgMB01vbnRhbmExEDAOBgNVBAcMB0JvemVtYW4xETAPBgNVBAoM
CFNhd3Rvb3RoMRMwEQYDVQQLDApDb25zdWx0aW5nMRgwFgYDVQQDDA93d3cud29s
ZnNzbC5jb20xIDAeBgkqhkiG9w0BCQEWEWZhY3RzQHdvbGZzc2wuY29tghRnGdKo
f+Mt+nV6T+eyAtmtxHde+DAMBgNVHRMEBTADAQH/MBwGA1UdEQQVMBOCC2V4YW1w
bGUuY29thwR/AAABMB0GA1UdJQQWMBQGCCsGAQUFBwMBBggrBgEFBQcDAjANBgkq
hkiG9w0BAQsFAAOCAQEAIxwOPz37Vrjbm6nVf9RLaIqE+wX8o9Wfut8YoUN7Sfga
c6gPkNxwDXImE73RYaWIZqq0Ww1UqcuUkKqhBGN5X5fM2w8Xz8GDJHhLq6GyZkvB
Va1hpb7nCgV22jLBJxw5zzxeG8x5hdkAbyX/8r8cTs7pWpbR96+wNUQZAMKTGrJ9
uj3H5AMVPgO6ryXSMmVgqOe5tWBVCgercsCuMeCDdD2CDXf/3R9xFqC0HYYzVSGX
1OJQ+CK7X9SsjUZONmq16150rMZFx+tjsf8hy6ZwT6rT9dqAd/e4nPBYUh3R6HRM
HrkZsXH4fn/WaDSOTrKLSSrZlC5hFLUXxQVo1tntBA==
-----END CERTIFICATE-----
Certificate:
    Data:
        Version: 3 (0x2)
        Serial Number:
            67:19:d2:a8:7f:e3:2d:fa:75:7a:4f:e7:b2:02:d9:ad:c4:77:5e:f8
        Signature Algorithm: sha256WithRSAEncryption
        Issuer: C=US, ST=Montana, L=Bozeman, O=Sawtooth, OU=Consulting, CN=www.wolfssl.com, emailAddress=facts@wolfssl.com
        Validity
            Not Before: Jun 11 21:44:28 2026 GMT
            Not After : Mar  7 21:44:28 2029 GMT
        Subject: C=US, ST=Montana, L=Bozeman, O=Sawtooth, OU=Consulting, CN=www.wolfssl.com, emailAddress=facts@wolfssl.com
        Subject Public Key Info:
            Public Key Algorithm: rsaEncryption
                Public-Key: (2048 bit)
                Modulus:
                    00:bf:0c:ca:2d:14:b2:1e:84:42:5b:cd:38:1f:4a:
                    f2:4d:75:10:f1:b6:35:9f:df:ca:7d:03:98:d3:ac:
                    de:03:66:ee:2a:f1:d8:b0:7d:6e:07:54:0b:10:98:
                    21:4d:80:cb:12:20:e7:cc:4f:de:45:7d:c9:72:77:
                    32:ea:ca:90:bb:69:52:10:03:2f:a8:f3:95:c5:f1:
                    8b:62:56:1b:ef:67:6f:a4:10:41:95:ad:0a:9b:e3:
                    a5:c0:b0:d2:70:76:50:30:5b:a8:e8:08:2c:7c:ed:
                    a7:a2:7a:8d:38:29:1c:ac:c7:ed:f2:7c:95:b0:95:
                    82:7d:49:5c:38:cd:77:25:ef:bd:80:75:53:94:3c:
                    3d:ca:63:5b:9f:15:b5:d3:1d:13:2f:19:d1:3c:db:
                    76:3a:cc:b8:7d:c9:e5:c2:d7:da:40:6f:d8:21:dc:
                    73:1b:42:2d:53:9c:fe:1a:fc:7d:ab:7a:36:3f:98:
                    de:84:7c:05:67:ce:6a:14:38:87:a9:f1:8c:b5:68:
                    cb:68:7f:71:20:2b:f5:a0:63:f5:56:2f:a3:26:d2:
                    b7:6f:b1:5a:17:d7:38:99:08:fe:93:58:6f:fe:c3:
                    13:49:08:16:0b:a7:4d:67:00:52:31:67:23:4e:98:
                    ed:51:45:1d:b9:04:d9:0b:ec:d8:28:b3:4b:bd:ed:
                    36:79
                Exponent: 65537 (0x10001)
        X509v3 extensions:
            X509v3 Subject Key Identifier: 
                27:8E:67:11:74:C3:26:1D:3F:ED:33:63:B3:A4:D8:1D:30:E5:E8:D5
            X509v3 Authority Key Identifier: 
                keyid:27:8E:67:11:74:C3:26:1D:3F:ED:33:63:B3:A4:D8:1D:30:E5:E8:D5
                DirName:/C=US/ST=Montana/L=Bozeman/O=Sawtooth/OU=Consulting/CN=www.wolfssl.com/emailAddress=facts@wolfssl.com
                serial:67:19:D2:A8:7F:E3:2D:FA:75:7A:4F:E7:B2:02:D9:AD:C4:77:5E:F8
            X509v3 Basic Constraints: 
                CA:TRUE
            X509v3 Subject Alternative Name: 
                DNS:example.com, IP Address:127.0.0.1
            X509v3 Extended Key Usage: 
                TLS Web Server Authentication, TLS Web Client Authentication
    Signature Algorithm: sha256WithRSAEncryption
    Signature Value:
        5d:a4:7f:06:52:54:b2:56:a9:f8:8d:fb:c9:13:ab:9c:16:4e:
        72:a8:57:b2:8d:e7:b4:a9:3f:32:5c:21:08:ff:42:9f:41:47:
        12:27:b5:45:9e:61:6e:b6:94:fe:f6:01:46:96:3e:f7:3d:79:
        07:ac:a9:26:f5:77:f7:52:c3:ed:bd:5a:a0:17:4c:0e:9e:51:
        57:ac:e3:a1:ef:7d:a3:fa:7c:c6:a5:57:84:dd:d0:aa:77:ab:
        30:12:70:83:f9:41:ae:74:78:f0:54:73:ed:86:7f:66:a1:aa:
        01:cd:41:5f:95:c7:6e:ce:3b:ab:2e:70:ff:3a:34:11:43:df:
        4b:63:d5:3b:a5:9e:21:cb:9c:c8:a7:5c:a0:43:ec:73:98:c5:
        25:d9:d4:ad:cc:11:66:83:51:8a:bd:33:65:a0:a3:a8:93:1e:
        7b:b9:f7:6a:95:6a:a7:dd:ff:6f:3b:bb:24:5c:56:14:8d:b9:
        84:d3:97:bf:57:71:0c:1e:b1:68:93:31:d6:34:38:77:94:da:
        e2:b0:fe:82:18:b2:bb:bf:83:cf:bb:fe:08:fa:2a:17:10:3e:
        06:b1:1c:b1:f9:12:97:87:cc:a8:4e:5e:0d:0c:26:3c:c2:e8:
        be:2d:48:91:77:7f:1a:1d:ac:bf:c9:55:10:bf:2f:5f:60:53:
        e7:b7:6a:72
-----BEGIN CERTIFICATE-----
MIIFAjCCA+qgAwIBAgIUZxnSqH/jLfp1ek/nsgLZrcR3XvgwDQYJKoZIhvcNAQEL
BQAwgZUxCzAJBgNVBAYTAlVTMRAwDgYDVQQIDAdNb250YW5hMRAwDgYDVQQHDAdC
b3plbWFuMREwDwYDVQQKDAhTYXd0b290aDETMBEGA1UECwwKQ29uc3VsdGluZzEY
MBYGA1UEAwwPd3d3LndvbGZzc2wuY29tMSAwHgYJKoZIhvcNAQkBFhFmYWN0c0B3
b2xmc3NsLmNvbTAeFw0yNjA2MTEyMTQ0MjhaFw0yOTAzMDcyMTQ0MjhaMIGVMQsw
CQYDVQQGEwJVUzEQMA4GA1UECAwHTW9udGFuYTEQMA4GA1UEBwwHQm96ZW1hbjER
MA8GA1UECgwIU2F3dG9vdGgxEzARBgNVBAsMCkNvbnN1bHRpbmcxGDAWBgNVBAMM
D3d3dy53b2xmc3NsLmNvbTEgMB4GCSqGSIb3DQEJARYRZmFjdHNAd29sZnNzbC5j
b20wggEiMA0GCSqGSIb3DQEBAQUAA4IBDwAwggEKAoIBAQC/DMotFLIehEJbzTgf
SvJNdRDxtjWf38p9A5jTrN4DZu4q8diwfW4HVAsQmCFNgMsSIOfMT95FfclydzLq
ypC7aVIQAy+o85XF8YtiVhvvZ2+kEEGVrQqb46XAsNJwdlAwW6joCCx87aeieo04
KRysx+3yfJWwlYJ9SVw4zXcl772AdVOUPD3KY1ufFbXTHRMvGdE823Y6zLh9yeXC
19pAb9gh3HMbQi1TnP4a/H2rejY/mN6EfAVnzmoUOIep8Yy1aMtof3EgK/WgY/VW
L6Mm0rdvsVoX1ziZCP6TWG/+wxNJCBYLp01nAFIxZyNOmO1RRR25BNkL7Ngos0u9
7TZ5AgMBAAGjggFGMIIBQjAdBgNVHQ4EFgQUJ45nEXTDJh0/7TNjs6TYHTDl6NUw
gdUGA1UdIwSBzTCByoAUJ45nEXTDJh0/7TNjs6TYHTDl6NWhgZukgZgwgZUxCzAJ
BgNVBAYTAlVTMRAwDgYDVQQIDAdNb250YW5hMRAwDgYDVQQHDAdCb3plbWFuMREw
DwYDVQQKDAhTYXd0b290aDETMBEGA1UECwwKQ29uc3VsdGluZzEYMBYGA1UEAwwP
d3d3LndvbGZzc2wuY29tMSAwHgYJKoZIhvcNAQkBFhFmYWN0c0B3b2xmc3NsLmNv
bYIUZxnSqH/jLfp1ek/nsgLZrcR3XvgwDAYDVR0TBAUwAwEB/zAcBgNVHREEFTAT
ggtleGFtcGxlLmNvbYcEfwAAATAdBgNVHSUEFjAUBggrBgEFBQcDAQYIKwYBBQUH
AwIwDQYJKoZIhvcNAQELBQADggEBAF2kfwZSVLJWqfiN+8kTq5wWTnKoV7KN57Sp
PzJcIQj/Qp9BRxIntUWeYW62lP72AUaWPvc9eQesqSb1d/dSw+29WqAXTA6eUVes
46HvfaP6fMalV4Td0Kp3qzAScIP5Qa50ePBUc+2Gf2ahqgHNQV+Vx27OO6sucP86
NBFD30tj1TulniHLnMinXKBD7HOYxSXZ1K3MEWaDUYq9M2Wgo6iTHnu592qVaqfd
/287uyRcVhSNuYTTl79XcQwesWiTMdY0OHeU2uKw/oIYsru/g8+7/gj6KhcQPgax
HLH5EpeHzKhOXg0MJjzC6L4tSJF3fxodrL/JVRC/L19gU+e3anI=
-----END CERTIFICATE-----
