Certificate:
    Data:
        Version: 3 (0x2)
        Serial Number: 2 (0x2)
    Signature Algorithm: sha256WithRSAEncryption
        Issuer: C=US, ST=Montana, L=Bozeman, O=Sawtooth, OU=Consulting, CN=www.wolfssl.com/emailAddress=info@wolfssl.com
        Validity
            Not Before: Feb 10 19:49:53 2021 GMT
            Not After : Nov  7 19:49:53 2023 GMT
        Subject: C=US, ST=Montana, L=Bozeman, O=wolfSSL_revoked, OU=Support_revoked, CN=www.wolfssl.com/emailAddress=info@wolfssl.com
        Subject Public Key Info:
            Public Key Algorithm: rsaEncryption
                Public-Key: (2048 bit)
                Modulus:
                    00:b0:14:16:3a:43:dd:e1:50:45:4f:cf:80:b3:dd:
                    66:96:c7:e9:f4:dc:de:b6:6b:24:1b:76:48:ac:c6:
                    23:a5:a7:e4:05:19:bd:b7:f6:de:fa:ff:ed:5b:3c:
                    79:8a:a9:d5:f1:fb:eb:c8:b1:e4:b2:ab:52:72:89:
                    93:22:5c:ba:cd:8a:36:2a:2c:d1:40:ec:a8:66:0e:
                    c3:76:cd:e7:b3:a3:0a:1e:dd:4a:07:82:17:81:ba:
                    de:57:ce:b6:32:81:c7:bd:11:bb:e9:15:22:4e:e2:
                    16:ac:e3:d4:c0:68:88:6c:11:fc:c2:bd:1b:db:1d:
                    fd:e6:43:c7:1b:33:b8:f4:e5:1b:59:39:12:38:4d:
                    2d:9b:64:68:98:fc:8d:72:12:91:f2:24:25:6c:4c:
                    4a:48:57:92:00:cc:7e:d8:d4:3d:b8:1d:f2:9e:ea:
                    b2:23:0f:51:0f:11:41:1c:f5:27:00:1b:08:7a:12:
                    3a:05:5b:03:24:fe:b1:7b:20:fa:e4:a8:58:c6:ca:
                    ce:7f:be:95:01:12:9d:05:e6:39:13:1b:c0:3e:56:
                    2e:2b:9f:76:37:de:de:9b:e0:0d:7a:63:0d:a7:22:
                    58:db:31:c7:f7:b4:46:5c:ba:b6:4b:48:b1:18:9a:
                    68:b3:63:47:fd:af:12:5f:2f:fe:10:cb:58:2b:33:
                    68:85
                Exponent: 65537 (0x10001)
        X509v3 extensions:
            X509v3 Subject Key Identifier: 
                D8:09:2B:59:E1:2A:EE:D9:EE:40:AA:9C:AB:F0:5D:28:09:4F:22:BB
            X509v3 Authority Key Identifier: 
                keyid:27:8E:67:11:74:C3:26:1D:3F:ED:33:63:B3:A4:D8:1D:30:E5:E8:D5
                DirName:/C=US/ST=Montana/L=Bozeman/O=Sawtooth/OU=Consulting/CN=www.wolfssl.com/emailAddress=info@wolfssl.com
                serial:AA:D3:3F:AC:18:0A:37:4D

            X509v3 Basic Constraints: 
                CA:TRUE
            X509v3 Subject Alternative Name: 
                DNS:example.com, IP Address:127.0.0.1
            X509v3 Extended Key Usage: 
                TLS Web Server Authentication, TLS Web Client Authentication
    Signature Algorithm: sha256WithRSAEncryption
         5b:7a:eb:22:2a:8e:c1:fb:43:81:66:af:cb:bb:6b:d9:d6:2a:
         90:23:4e:8e:35:cc:8b:ec:88:fb:96:c0:48:63:c6:e7:d9:51:
         75:2d:b1:87:2a:5d:ca:56:86:8c:75:f7:d4:51:46:8d:77:3b:
         02:9b:49:2c:cf:f7:a5:da:9e:92:4e:13:0a:fd:48:01:27:44:
         8b:55:a7:76:3b:8f:8f:0b:8b:9a:53:39:21:c0:6a:e9:9c:77:
         b1:0a:66:0c:a2:e3:56:3e:bd:4a:b6:a2:d1:b2:07:9f:ab:91:
         83:fa:9b:d3:5d:2c:26:7b:ee:02:e0:1f:f2:00:8c:99:58:d1:
         57:61:b2:6c:34:1a:1e:1a:c4:e8:87:ad:85:89:a1:ac:d6:b0:
         45:f4:97:0e:f2:c9:ed:5f:47:0c:f8:68:8e:04:f0:af:85:44:
         83:5f:dc:05:65:14:8d:83:1b:15:96:e6:09:6f:1f:96:3a:86:
         eb:36:9b:fe:a0:b4:aa:05:5a:94:8f:dc:ac:28:97:1e:5b:5a:
         2d:94:5e:e1:1d:8a:2b:e8:ce:b3:be:27:c4:20:78:5c:cd:5d:
         76:9c:83:1f:4d:f3:a6:2e:a4:e3:7b:f0:58:cc:eb:95:c2:c9:
         94:23:fb:71:07:b5:91:de:98:ee:9f:81:d7:ba:ff:00:bb:83:
         3c:60:c5:73
-----BEGIN CERTIFICATE-----
MIIE7TCCA9WgAwIBAgIBAjANBgkqhkiG9w0BAQsFADCBlDELMAkGA1UEBhMCVVMx
EDAOBgNVBAgMB01vbnRhbmExEDAOBgNVBAcMB0JvemVtYW4xETAPBgNVBAoMCFNh
d3Rvb3RoMRMwEQYDVQQLDApDb25zdWx0aW5nMRgwFgYDVQQDDA93d3cud29sZnNz
bC5jb20xHzAdBgkqhkiG9w0BCQEWEGluZm9Ad29sZnNzbC5jb20wHhcNMjEwMjEw
MTk0OTUzWhcNMjMxMTA3MTk0OTUzWjCBoDELMAkGA1UEBhMCVVMxEDAOBgNVBAgM
B01vbnRhbmExEDAOBgNVBAcMB0JvemVtYW4xGDAWBgNVBAoMD3dvbGZTU0xfcmV2
b2tlZDEYMBYGA1UECwwPU3VwcG9ydF9yZXZva2VkMRgwFgYDVQQDDA93d3cud29s
ZnNzbC5jb20xHzAdBgkqhkiG9w0BCQEWEGluZm9Ad29sZnNzbC5jb20wggEiMA0G
CSqGSIb3DQEBAQUAA4IBDwAwggEKAoIBAQCwFBY6Q93hUEVPz4Cz3WaWx+n03N62
ayQbdkisxiOlp+QFGb239t76/+1bPHmKqdXx++vIseSyq1JyiZMiXLrNijYqLNFA
7KhmDsN2zeezowoe3UoHgheBut5XzrYygce9EbvpFSJO4has49TAaIhsEfzCvRvb
Hf3mQ8cbM7j05RtZORI4TS2bZGiY/I1yEpHyJCVsTEpIV5IAzH7Y1D24HfKe6rIj
D1EPEUEc9ScAGwh6EjoFWwMk/rF7IPrkqFjGys5/vpUBEp0F5jkTG8A+Vi4rn3Y3
3t6b4A16Yw2nIljbMcf3tEZcurZLSLEYmmizY0f9rxJfL/4Qy1grM2iFAgMBAAGj
ggE6MIIBNjAdBgNVHQ4EFgQU2AkrWeEq7tnuQKqcq/BdKAlPIrswgckGA1UdIwSB
wTCBvoAUJ45nEXTDJh0/7TNjs6TYHTDl6NWhgZqkgZcwgZQxCzAJBgNVBAYTAlVT
MRAwDgYDVQQIDAdNb250YW5hMRAwDgYDVQQHDAdCb3plbWFuMREwDwYDVQQKDAhT
YXd0b290aDETMBEGA1UECwwKQ29uc3VsdGluZzEYMBYGA1UEAwwPd3d3LndvbGZz
c2wuY29tMR8wHQYJKoZIhvcNAQkBFhBpbmZvQHdvbGZzc2wuY29tggkAqtM/rBgK
N00wDAYDVR0TBAUwAwEB/zAcBgNVHREEFTATggtleGFtcGxlLmNvbYcEfwAAATAd
BgNVHSUEFjAUBggrBgEFBQcDAQYIKwYBBQUHAwIwDQYJKoZIhvcNAQELBQADggEB
AFt66yIqjsH7Q4Fmr8u7a9nWKpAjTo41zIvsiPuWwEhjxufZUXUtsYcqXcpWhox1
99RRRo13OwKbSSzP96XanpJOEwr9SAEnRItVp3Y7j48Li5pTOSHAaumcd7EKZgyi
41Y+vUq2otGyB5+rkYP6m9NdLCZ77gLgH/IAjJlY0Vdhsmw0Gh4axOiHrYWJoazW
sEX0lw7yye1fRwz4aI4E8K+FRINf3AVlFI2DGxWW5glvH5Y6hus2m/6gtKoFWpSP
3Kwolx5bWi2UXuEdiivozrO+J8QgeFzNXXacgx9N86YupON78FjM65XCyZQj+3EH
tZHemO6fgde6/wC7gzxgxXM=
-----END CERTIFICATE-----
Certificate:
    Data:
        Version: 3 (0x2)
        Serial Number: 12309252214903945037 (0xaad33fac180a374d)
    Signature Algorithm: sha256WithRSAEncryption
        Issuer: C=US, ST=Montana, L=Bozeman, O=Sawtooth, OU=Consulting, CN=www.wolfssl.com/emailAddress=info@wolfssl.com
        Validity
            Not Before: Feb 10 19:49:52 2021 GMT
            Not After : Nov  7 19:49:52 2023 GMT
        Subject: C=US, ST=Montana, L=Bozeman, O=Sawtooth, OU=Consulting, CN=www.wolfssl.com/emailAddress=info@wolfssl.com
        Subject Public Key Info:
            Public Key Algorithm: rsaEncryption
                Public-Key: (2048 bit)
                Modulus:
                    00:bf:0c:ca:2d:14:b2:1e:84:42:5b:cd:38:1f:4a:
                    f2:4d:75:10:f1:b6:35:9f:df:ca:7d:03:98:d3:ac:
                    de:03:66:ee:2a:f1:d8:b0:7d:6e:07:54:0b:10:98:
                    21:4d:80:cb:12:20:e7:cc:4f:de:45:7d:c9:72:77:
                    32:ea:ca:90:bb:69:52:10:03:2f:a8:f3:95:c5:f1:
                    8b:62:56:1b:ef:67:6f:a4:10:41:95:ad:0a:9b:e3:
                    a5:c0:b0:d2:70:76:50:30:5b:a8:e8:08:2c:7c:ed:
                    a7:a2:7a:8d:38:29:1c:ac:c7:ed:f2:7c:95:b0:95:
                    82:7d:49:5c:38:cd:77:25:ef:bd:80:75:53:94:3c:
                    3d:ca:63:5b:9f:15:b5:d3:1d:13:2f:19:d1:3c:db:
                    76:3a:cc:b8:7d:c9:e5:c2:d7:da:40:6f:d8:21:dc:
                    73:1b:42:2d:53:9c:fe:1a:fc:7d:ab:7a:36:3f:98:
                    de:84:7c:05:67:ce:6a:14:38:87:a9:f1:8c:b5:68:
                    cb:68:7f:71:20:2b:f5:a0:63:f5:56:2f:a3:26:d2:
                    b7:6f:b1:5a:17:d7:38:99:08:fe:93:58:6f:fe:c3:
                    13:49:08:16:0b:a7:4d:67:00:52:31:67:23:4e:98:
                    ed:51:45:1d:b9:04:d9:0b:ec:d8:28:b3:4b:bd:ed:
                    36:79
                Exponent: 65537 (0x10001)
        X509v3 extensions:
            X509v3 Subject Key Identifier: 
                27:8E:67:11:74:C3:26:1D:3F:ED:33:63:B3:A4:D8:1D:30:E5:E8:D5
            X509v3 Authority Key Identifier: 
                keyid:27:8E:67:11:74:C3:26:1D:3F:ED:33:63:B3:A4:D8:1D:30:E5:E8:D5
                DirName:/C=US/ST=Montana/L=Bozeman/O=Sawtooth/OU=Consulting/CN=www.wolfssl.com/emailAddress=info@wolfssl.com
                serial:AA:D3:3F:AC:18:0A:37:4D

            X509v3 Basic Constraints: 
                CA:TRUE
            X509v3 Subject Alternative Name: 
                DNS:example.com, IP Address:127.0.0.1
            X509v3 Extended Key Usage: 
                TLS Web Server Authentication, TLS Web Client Authentication
    Signature Algorithm: sha256WithRSAEncryption
         62:98:c8:58:cf:56:03:86:5b:1b:71:49:7d:05:03:5d:e0:08:
         86:ad:db:4a:de:ab:22:96:a8:c3:59:68:c1:37:90:40:df:bd:
         89:d0:bc:da:8e:ef:87:b2:c2:62:52:e1:1a:29:17:6a:96:99:
         c8:4e:d8:32:fe:b8:d1:5c:3b:0a:c2:3c:5f:a1:1e:98:7f:ce:
         89:26:21:1f:64:9c:15:7a:9c:ef:fb:1d:85:6a:fa:98:ce:a8:
         a9:ab:c3:a2:c0:eb:87:ed:bc:21:df:f3:07:5b:ae:fd:40:d4:
         ae:20:d0:76:8a:31:0a:a2:62:7c:61:0d:ce:5d:9a:1e:e4:20:
         88:51:49:fb:77:a9:cd:4d:c6:bf:54:99:33:ef:4b:a0:73:70:
         6d:2e:d9:3d:08:f6:12:39:31:68:c6:61:5c:41:b5:1b:f4:38:
         7d:fc:be:73:66:2d:f7:ca:5b:2c:5b:31:aa:cf:f6:7f:30:e4:
         12:2c:8e:d6:38:51:e6:45:ee:d5:da:c3:83:d6:ed:5e:ec:d6:
         b6:14:b3:93:59:e1:55:4a:7f:04:df:ce:65:d4:df:18:4f:dd:
         b4:45:7f:a6:56:30:c4:05:44:98:9d:4f:26:6d:84:80:a0:5e:
         ed:23:d1:48:87:0e:05:06:91:3b:b0:3c:bb:8c:8f:3c:7b:4c:
         4f:a1:ca:98
-----BEGIN CERTIFICATE-----
MIIE6TCCA9GgAwIBAgIJAKrTP6wYCjdNMA0GCSqGSIb3DQEBCwUAMIGUMQswCQYD
VQQGEwJVUzEQMA4GA1UECAwHTW9udGFuYTEQMA4GA1UEBwwHQm96ZW1hbjERMA8G
A1UECgwIU2F3dG9vdGgxEzARBgNVBAsMCkNvbnN1bHRpbmcxGDAWBgNVBAMMD3d3
dy53b2xmc3NsLmNvbTEfMB0GCSqGSIb3DQEJARYQaW5mb0B3b2xmc3NsLmNvbTAe
Fw0yMTAyMTAxOTQ5NTJaFw0yMzExMDcxOTQ5NTJaMIGUMQswCQYDVQQGEwJVUzEQ
MA4GA1UECAwHTW9udGFuYTEQMA4GA1UEBwwHQm96ZW1hbjERMA8GA1UECgwIU2F3
dG9vdGgxEzARBgNVBAsMCkNvbnN1bHRpbmcxGDAWBgNVBAMMD3d3dy53b2xmc3Ns
LmNvbTEfMB0GCSqGSIb3DQEJARYQaW5mb0B3b2xmc3NsLmNvbTCCASIwDQYJKoZI
hvcNAQEBBQADggEPADCCAQoCggEBAL8Myi0Ush6EQlvNOB9K8k11EPG2NZ/fyn0D
mNOs3gNm7irx2LB9bgdUCxCYIU2AyxIg58xP3kV9yXJ3MurKkLtpUhADL6jzlcXx
i2JWG+9nb6QQQZWtCpvjpcCw0nB2UDBbqOgILHztp6J6jTgpHKzH7fJ8lbCVgn1J
XDjNdyXvvYB1U5Q8PcpjW58VtdMdEy8Z0TzbdjrMuH3J5cLX2kBv2CHccxtCLVOc
/hr8fat6Nj+Y3oR8BWfOahQ4h6nxjLVoy2h/cSAr9aBj9VYvoybSt2+xWhfXOJkI
/pNYb/7DE0kIFgunTWcAUjFnI06Y7VFFHbkE2Qvs2CizS73tNnkCAwEAAaOCATow
ggE2MB0GA1UdDgQWBBQnjmcRdMMmHT/tM2OzpNgdMOXo1TCByQYDVR0jBIHBMIG+
gBQnjmcRdMMmHT/tM2OzpNgdMOXo1aGBmqSBlzCBlDELMAkGA1UEBhMCVVMxEDAO
BgNVBAgMB01vbnRhbmExEDAOBgNVBAcMB0JvemVtYW4xETAPBgNVBAoMCFNhd3Rv
b3RoMRMwEQYDVQQLDApDb25zdWx0aW5nMRgwFgYDVQQDDA93d3cud29sZnNzbC5j
b20xHzAdBgkqhkiG9w0BCQEWEGluZm9Ad29sZnNzbC5jb22CCQCq0z+sGAo3TTAM
BgNVHRMEBTADAQH/MBwGA1UdEQQVMBOCC2V4YW1wbGUuY29thwR/AAABMB0GA1Ud
JQQWMBQGCCsGAQUFBwMBBggrBgEFBQcDAjANBgkqhkiG9w0BAQsFAAOCAQEAYpjI
WM9WA4ZbG3FJfQUDXeAIhq3bSt6rIpaow1lowTeQQN+9idC82o7vh7LCYlLhGikX
apaZyE7YMv640Vw7CsI8X6EemH/OiSYhH2ScFXqc7/sdhWr6mM6oqavDosDrh+28
Id/zB1uu/UDUriDQdooxCqJifGENzl2aHuQgiFFJ+3epzU3Gv1SZM+9LoHNwbS7Z
PQj2EjkxaMZhXEG1G/Q4ffy+c2Yt98pbLFsxqs/2fzDkEiyO1jhR5kXu1drDg9bt
XuzWthSzk1nhVUp/BN/OZdTfGE/dtEV/plYwxAVEmJ1PJm2EgKBe7SPRSIcOBQaR
O7A8u4yPPHtMT6HKmA==
-----END CERTIFICATE-----
