Certificate:
    Data:
        Version: 3 (0x2)
        Serial Number: 15083089453402803000 (0xd151e5f1b983cb38)
    Signature Algorithm: ecdsa-with-SHA256
        Issuer: C=US, ST=Oregon, L=Portland, O=Eliptic, OU=ECC, CN=www.wolfssl.com/emailAddress=info@wolfssl.com
        Validity
            Not Before: May  7 16:00:19 2015 GMT
            Not After : Jan 31 16:00:19 2018 GMT
        Subject: C=US, ST=Oregon, L=Portland, O=Eliptic, OU=ECC, CN=www.wolfssl.com/emailAddress=info@wolfssl.com
        Subject Public Key Info:
            Public Key Algorithm: id-ecPublicKey
                Public-Key: (256 bit)
                pub: 
                    04:bb:33:ac:4c:27:50:4a:c6:4a:a5:04:c3:3c:de:
                    9f:36:db:72:2d:ce:94:ea:2b:fa:cb:20:09:39:2c:
                    16:e8:61:02:e9:af:4d:d3:02:93:9a:31:5b:97:92:
                    21:7f:f0:cf:18:da:91:11:02:34:86:e8:20:58:33:
                    0b:80:34:89:d8
                ASN1 OID: prime256v1
        X509v3 extensions:
            X509v3 Subject Key Identifier: 
                5D:5D:26:EF:AC:7E:36:F9:9B:76:15:2B:4A:25:02:23:EF:B2:89:30
            X509v3 Authority Key Identifier: 
                keyid:5D:5D:26:EF:AC:7E:36:F9:9B:76:15:2B:4A:25:02:23:EF:B2:89:30
                DirName:/C=US/ST=Oregon/L=Portland/O=Eliptic/OU=ECC/CN=www.wolfssl.com/emailAddress=info@wolfssl.com
                serial:D1:51:E5:F1:B9:83:CB:38

            X509v3 Basic Constraints: 
                CA:TRUE
    Signature Algorithm: ecdsa-with-SHA256
         30:45:02:20:1a:d5:1e:01:ce:49:47:bf:88:0b:cb:ba:36:84:
         c9:e6:83:8a:80:72:f8:be:58:03:a9:7f:cb:81:34:41:9c:f2:
         02:21:00:98:e6:78:47:b9:83:0e:c7:e3:9a:be:17:d7:37:ee:
         a0:c6:92:d9:72:e1:e5:72:ac:ed:47:ec:78:5c:40:5f:27
-----BEGIN CERTIFICATE-----
MIIDBjCCAqygAwIBAgIJANFR5fG5g8s4MAoGCCqGSM49BAMCMIGMMQswCQYDVQQG
EwJVUzEPMA0GA1UECAwGT3JlZ29uMREwDwYDVQQHDAhQb3J0bGFuZDEQMA4GA1UE
CgwHRWxpcHRpYzEMMAoGA1UECwwDRUNDMRgwFgYDVQQDDA93d3cud29sZnNzbC5j
b20xHzAdBgkqhkiG9w0BCQEWEGluZm9Ad29sZnNzbC5jb20wHhcNMTUwNTA3MTYw
MDE5WhcNMTgwMTMxMTYwMDE5WjCBjDELMAkGA1UEBhMCVVMxDzANBgNVBAgMBk9y
ZWdvbjERMA8GA1UEBwwIUG9ydGxhbmQxEDAOBgNVBAoMB0VsaXB0aWMxDDAKBgNV
BAsMA0VDQzEYMBYGA1UEAwwPd3d3LndvbGZzc2wuY29tMR8wHQYJKoZIhvcNAQkB
FhBpbmZvQHdvbGZzc2wuY29tMFkwEwYHKoZIzj0CAQYIKoZIzj0DAQcDQgAEuzOs
TCdQSsZKpQTDPN6fNttyLc6U6iv6yyAJOSwW6GEC6a9N0wKTmjFbl5Ihf/DPGNqR
EQI0huggWDMLgDSJ2KOB9DCB8TAdBgNVHQ4EFgQUXV0m76x+NvmbdhUrSiUCI++y
iTAwgcEGA1UdIwSBuTCBtoAUXV0m76x+NvmbdhUrSiUCI++yiTChgZKkgY8wgYwx
CzAJBgNVBAYTAlVTMQ8wDQYDVQQIDAZPcmVnb24xETAPBgNVBAcMCFBvcnRsYW5k
MRAwDgYDVQQKDAdFbGlwdGljMQwwCgYDVQQLDANFQ0MxGDAWBgNVBAMMD3d3dy53
b2xmc3NsLmNvbTEfMB0GCSqGSIb3DQEJARYQaW5mb0B3b2xmc3NsLmNvbYIJANFR
5fG5g8s4MAwGA1UdEwQFMAMBAf8wCgYIKoZIzj0EAwIDSAAwRQIgGtUeAc5JR7+I
C8u6NoTJ5oOKgHL4vlgDqX/LgTRBnPICIQCY5nhHuYMOx+OavhfXN+6gxpLZcuHl
cqztR+x4XEBfJw==
-----END CERTIFICATE-----
