Certificate:
    Data:
        Version: 3 (0x2)
        Serial Number: 2 (0x2)
        Signature Algorithm: sha256WithRSAEncryption
        Issuer: C=US, ST=Montana, L=Bozeman, O=Sawtooth, OU=Consulting, CN=www.wolfssl.com, emailAddress=info@wolfssl.com
        Validity
            Not Before: Nov 13 20:41:13 2025 GMT
            Not After : Aug  9 20:41:13 2028 GMT
        Subject: C=US, ST=Montana, L=Bozeman, O=wolfSSL_revoked, OU=Support_revoked, CN=www.wolfssl.com, emailAddress=info@wolfssl.com
        Subject Public Key Info:
            Public Key Algorithm: rsaEncryption
                Public-Key: (2048 bit)
                Modulus:
                    00:b0:14:16:3a:43:dd:e1:50:45:4f:cf:80:b3:dd:
                    66:96:c7:e9:f4:dc:de:b6:6b:24:1b:76:48:ac:c6:
                    23:a5:a7:e4:05:19:bd:b7:f6:de:fa:ff:ed:5b:3c:
                    79:8a:a9:d5:f1:fb:eb:c8:b1:e4:b2:ab:52:72:89:
                    93:22:5c:ba:cd:8a:36:2a:2c:d1:40:ec:a8:66:0e:
                    c3:76:cd:e7:b3:a3:0a:1e:dd:4a:07:82:17:81:ba:
                    de:57:ce:b6:32:81:c7:bd:11:bb:e9:15:22:4e:e2:
                    16:ac:e3:d4:c0:68:88:6c:11:fc:c2:bd:1b:db:1d:
                    fd:e6:43:c7:1b:33:b8:f4:e5:1b:59:39:12:38:4d:
                    2d:9b:64:68:98:fc:8d:72:12:91:f2:24:25:6c:4c:
                    4a:48:57:92:00:cc:7e:d8:d4:3d:b8:1d:f2:9e:ea:
                    b2:23:0f:51:0f:11:41:1c:f5:27:00:1b:08:7a:12:
                    3a:05:5b:03:24:fe:b1:7b:20:fa:e4:a8:58:c6:ca:
                    ce:7f:be:95:01:12:9d:05:e6:39:13:1b:c0:3e:56:
                    2e:2b:9f:76:37:de:de:9b:e0:0d:7a:63:0d:a7:22:
                    58:db:31:c7:f7:b4:46:5c:ba:b6:4b:48:b1:18:9a:
                    68:b3:63:47:fd:af:12:5f:2f:fe:10:cb:58:2b:33:
                    68:85
                Exponent: 65537 (0x10001)
        X509v3 extensions:
            X509v3 Subject Key Identifier: 
                D8:09:2B:59:E1:2A:EE:D9:EE:40:AA:9C:AB:F0:5D:28:09:4F:22:BB
            X509v3 Authority Key Identifier: 
                keyid:27:8E:67:11:74:C3:26:1D:3F:ED:33:63:B3:A4:D8:1D:30:E5:E8:D5
                DirName:/C=US/ST=Montana/L=Bozeman/O=Sawtooth/OU=Consulting/CN=www.wolfssl.com/emailAddress=info@wolfssl.com
                serial:3F:29:11:20:57:71:E7:8E:F9:18:0D:CA:70:4D:5B:15:2A:43:D6:24
            X509v3 Basic Constraints: 
                CA:TRUE
            X509v3 Subject Alternative Name: 
                DNS:example.com, IP Address:127.0.0.1
            X509v3 Extended Key Usage: 
                TLS Web Server Authentication, TLS Web Client Authentication
    Signature Algorithm: sha256WithRSAEncryption
    Signature Value:
        25:be:19:6e:24:b1:d0:47:1b:73:35:22:74:6d:93:bf:37:84:
        90:c9:9c:0e:96:e9:95:73:a5:f7:43:31:cc:dd:cc:75:dd:88:
        cb:45:a3:7d:54:74:24:38:1e:c3:8e:2c:b3:d3:12:a4:da:48:
        c6:60:b0:51:2e:f3:df:74:25:16:15:9f:d0:c1:70:af:7a:c4:
        da:86:31:36:cf:65:4a:bf:8d:3b:00:da:37:f9:f6:0c:93:51:
        32:a4:a1:3c:8c:cb:0a:e8:34:36:04:ac:23:c4:f9:ae:2f:fa:
        e0:22:85:a3:2d:a6:e2:88:74:45:80:61:f1:0a:cf:48:57:5d:
        1c:32:bb:a0:8b:9f:f6:ed:66:6c:3c:03:32:2d:0e:e8:93:e5:
        e3:3c:b7:67:79:72:4e:f0:41:bb:7d:93:77:87:9a:35:89:a5:
        c5:83:62:a2:c1:44:c6:e5:3a:34:69:55:52:44:0c:68:77:a7:
        71:d7:7f:58:e8:91:54:0f:aa:1f:a8:f6:b0:f7:04:4f:ae:aa:
        9c:51:ad:45:b5:2f:be:49:cd:94:5e:94:40:39:a9:0b:cd:0f:
        8d:27:d2:a0:d5:e1:89:9c:90:89:ed:22:bf:86:6f:ae:1c:07:
        62:33:70:2f:e1:86:3c:98:16:01:f9:8d:f6:18:4a:fd:b0:20:
        23:95:10:94
-----BEGIN CERTIFICATE-----
MIIE+DCCA+CgAwIBAgIBAjANBgkqhkiG9w0BAQsFADCBlDELMAkGA1UEBhMCVVMx
EDAOBgNVBAgMB01vbnRhbmExEDAOBgNVBAcMB0JvemVtYW4xETAPBgNVBAoMCFNh
d3Rvb3RoMRMwEQYDVQQLDApDb25zdWx0aW5nMRgwFgYDVQQDDA93d3cud29sZnNz
bC5jb20xHzAdBgkqhkiG9w0BCQEWEGluZm9Ad29sZnNzbC5jb20wHhcNMjUxMTEz
MjA0MTEzWhcNMjgwODA5MjA0MTEzWjCBoDELMAkGA1UEBhMCVVMxEDAOBgNVBAgM
B01vbnRhbmExEDAOBgNVBAcMB0JvemVtYW4xGDAWBgNVBAoMD3dvbGZTU0xfcmV2
b2tlZDEYMBYGA1UECwwPU3VwcG9ydF9yZXZva2VkMRgwFgYDVQQDDA93d3cud29s
ZnNzbC5jb20xHzAdBgkqhkiG9w0BCQEWEGluZm9Ad29sZnNzbC5jb20wggEiMA0G
CSqGSIb3DQEBAQUAA4IBDwAwggEKAoIBAQCwFBY6Q93hUEVPz4Cz3WaWx+n03N62
ayQbdkisxiOlp+QFGb239t76/+1bPHmKqdXx++vIseSyq1JyiZMiXLrNijYqLNFA
7KhmDsN2zeezowoe3UoHgheBut5XzrYygce9EbvpFSJO4has49TAaIhsEfzCvRvb
Hf3mQ8cbM7j05RtZORI4TS2bZGiY/I1yEpHyJCVsTEpIV5IAzH7Y1D24HfKe6rIj
D1EPEUEc9ScAGwh6EjoFWwMk/rF7IPrkqFjGys5/vpUBEp0F5jkTG8A+Vi4rn3Y3
3t6b4A16Yw2nIljbMcf3tEZcurZLSLEYmmizY0f9rxJfL/4Qy1grM2iFAgMBAAGj
ggFFMIIBQTAdBgNVHQ4EFgQU2AkrWeEq7tnuQKqcq/BdKAlPIrswgdQGA1UdIwSB
zDCByYAUJ45nEXTDJh0/7TNjs6TYHTDl6NWhgZqkgZcwgZQxCzAJBgNVBAYTAlVT
MRAwDgYDVQQIDAdNb250YW5hMRAwDgYDVQQHDAdCb3plbWFuMREwDwYDVQQKDAhT
YXd0b290aDETMBEGA1UECwwKQ29uc3VsdGluZzEYMBYGA1UEAwwPd3d3LndvbGZz
c2wuY29tMR8wHQYJKoZIhvcNAQkBFhBpbmZvQHdvbGZzc2wuY29tghQ/KREgV3Hn
jvkYDcpwTVsVKkPWJDAMBgNVHRMEBTADAQH/MBwGA1UdEQQVMBOCC2V4YW1wbGUu
Y29thwR/AAABMB0GA1UdJQQWMBQGCCsGAQUFBwMBBggrBgEFBQcDAjANBgkqhkiG
9w0BAQsFAAOCAQEAJb4ZbiSx0EcbczUidG2TvzeEkMmcDpbplXOl90MxzN3Mdd2I
y0WjfVR0JDgew44ss9MSpNpIxmCwUS7z33QlFhWf0MFwr3rE2oYxNs9lSr+NOwDa
N/n2DJNRMqShPIzLCug0NgSsI8T5ri/64CKFoy2m4oh0RYBh8QrPSFddHDK7oIuf
9u1mbDwDMi0O6JPl4zy3Z3lyTvBBu32Td4eaNYmlxYNiosFExuU6NGlVUkQMaHen
cdd/WOiRVA+qH6j2sPcET66qnFGtRbUvvknNlF6UQDmpC80PjSfSoNXhiZyQie0i
v4ZvrhwHYjNwL+GGPJgWAfmN9hhK/bAgI5UQlA==
-----END CERTIFICATE-----
Certificate:
    Data:
        Version: 3 (0x2)
        Serial Number:
            3f:29:11:20:57:71:e7:8e:f9:18:0d:ca:70:4d:5b:15:2a:43:d6:24
        Signature Algorithm: sha256WithRSAEncryption
        Issuer: C=US, ST=Montana, L=Bozeman, O=Sawtooth, OU=Consulting, CN=www.wolfssl.com, emailAddress=info@wolfssl.com
        Validity
            Not Before: Nov 13 20:41:11 2025 GMT
            Not After : Aug  9 20:41:11 2028 GMT
        Subject: C=US, ST=Montana, L=Bozeman, O=Sawtooth, OU=Consulting, CN=www.wolfssl.com, emailAddress=info@wolfssl.com
        Subject Public Key Info:
            Public Key Algorithm: rsaEncryption
                Public-Key: (2048 bit)
                Modulus:
                    00:bf:0c:ca:2d:14:b2:1e:84:42:5b:cd:38:1f:4a:
                    f2:4d:75:10:f1:b6:35:9f:df:ca:7d:03:98:d3:ac:
                    de:03:66:ee:2a:f1:d8:b0:7d:6e:07:54:0b:10:98:
                    21:4d:80:cb:12:20:e7:cc:4f:de:45:7d:c9:72:77:
                    32:ea:ca:90:bb:69:52:10:03:2f:a8:f3:95:c5:f1:
                    8b:62:56:1b:ef:67:6f:a4:10:41:95:ad:0a:9b:e3:
                    a5:c0:b0:d2:70:76:50:30:5b:a8:e8:08:2c:7c:ed:
                    a7:a2:7a:8d:38:29:1c:ac:c7:ed:f2:7c:95:b0:95:
                    82:7d:49:5c:38:cd:77:25:ef:bd:80:75:53:94:3c:
                    3d:ca:63:5b:9f:15:b5:d3:1d:13:2f:19:d1:3c:db:
                    76:3a:cc:b8:7d:c9:e5:c2:d7:da:40:6f:d8:21:dc:
                    73:1b:42:2d:53:9c:fe:1a:fc:7d:ab:7a:36:3f:98:
                    de:84:7c:05:67:ce:6a:14:38:87:a9:f1:8c:b5:68:
                    cb:68:7f:71:20:2b:f5:a0:63:f5:56:2f:a3:26:d2:
                    b7:6f:b1:5a:17:d7:38:99:08:fe:93:58:6f:fe:c3:
                    13:49:08:16:0b:a7:4d:67:00:52:31:67:23:4e:98:
                    ed:51:45:1d:b9:04:d9:0b:ec:d8:28:b3:4b:bd:ed:
                    36:79
                Exponent: 65537 (0x10001)
        X509v3 extensions:
            X509v3 Subject Key Identifier: 
                27:8E:67:11:74:C3:26:1D:3F:ED:33:63:B3:A4:D8:1D:30:E5:E8:D5
            X509v3 Authority Key Identifier: 
                keyid:27:8E:67:11:74:C3:26:1D:3F:ED:33:63:B3:A4:D8:1D:30:E5:E8:D5
                DirName:/C=US/ST=Montana/L=Bozeman/O=Sawtooth/OU=Consulting/CN=www.wolfssl.com/emailAddress=info@wolfssl.com
                serial:3F:29:11:20:57:71:E7:8E:F9:18:0D:CA:70:4D:5B:15:2A:43:D6:24
            X509v3 Basic Constraints: 
                CA:TRUE
            X509v3 Subject Alternative Name: 
                DNS:example.com, IP Address:127.0.0.1
            X509v3 Extended Key Usage: 
                TLS Web Server Authentication, TLS Web Client Authentication
    Signature Algorithm: sha256WithRSAEncryption
    Signature Value:
        0f:ae:89:d5:68:e4:41:f8:9b:e0:c5:61:06:57:ff:a0:92:0f:
        b2:ed:d3:99:5b:99:5e:32:7e:97:c7:af:6c:fe:8c:a6:ae:32:
        a1:0d:ca:cd:fc:18:e5:d1:f8:20:5b:5a:38:81:46:5b:48:87:
        a5:3f:3b:7b:c7:ea:f5:35:29:31:15:39:38:5d:48:e6:01:81:
        5c:5e:7c:10:f5:16:e3:59:af:44:c8:b5:8d:c1:32:23:b3:b8:
        12:6e:5c:8d:e6:c2:d2:41:03:eb:17:42:e2:7f:bc:00:5d:a5:
        31:ef:c6:48:ee:db:cc:e0:f1:56:f5:d4:ca:45:a1:59:b5:e4:
        d7:60:9c:57:e0:a7:5a:f2:35:1e:a0:22:db:5e:1c:0c:61:bd:
        a1:c5:7b:9f:69:f2:d5:95:e2:bc:52:b9:1d:9c:2c:da:b6:73:
        75:4a:84:e5:94:b8:19:4d:dd:70:bd:7f:4c:b9:17:6a:58:16:
        89:22:44:37:57:55:26:42:e3:b7:e5:c7:2b:40:0c:e9:e4:7f:
        52:75:df:06:c9:fb:01:44:34:ac:20:3c:b4:be:2b:3e:ef:85:
        38:96:5b:9b:1e:25:86:18:4c:a4:06:70:06:6a:c8:4b:6f:5f:
        c4:05:1f:03:62:30:11:61:bc:c1:40:31:66:dc:64:f0:4f:6b:
        b9:ec:c8:29
-----BEGIN CERTIFICATE-----
MIIE/zCCA+egAwIBAgIUPykRIFdx5475GA3KcE1bFSpD1iQwDQYJKoZIhvcNAQEL
BQAwgZQxCzAJBgNVBAYTAlVTMRAwDgYDVQQIDAdNb250YW5hMRAwDgYDVQQHDAdC
b3plbWFuMREwDwYDVQQKDAhTYXd0b290aDETMBEGA1UECwwKQ29uc3VsdGluZzEY
MBYGA1UEAwwPd3d3LndvbGZzc2wuY29tMR8wHQYJKoZIhvcNAQkBFhBpbmZvQHdv
bGZzc2wuY29tMB4XDTI1MTExMzIwNDExMVoXDTI4MDgwOTIwNDExMVowgZQxCzAJ
BgNVBAYTAlVTMRAwDgYDVQQIDAdNb250YW5hMRAwDgYDVQQHDAdCb3plbWFuMREw
DwYDVQQKDAhTYXd0b290aDETMBEGA1UECwwKQ29uc3VsdGluZzEYMBYGA1UEAwwP
d3d3LndvbGZzc2wuY29tMR8wHQYJKoZIhvcNAQkBFhBpbmZvQHdvbGZzc2wuY29t
MIIBIjANBgkqhkiG9w0BAQEFAAOCAQ8AMIIBCgKCAQEAvwzKLRSyHoRCW804H0ry
TXUQ8bY1n9/KfQOY06zeA2buKvHYsH1uB1QLEJghTYDLEiDnzE/eRX3Jcncy6sqQ
u2lSEAMvqPOVxfGLYlYb72dvpBBBla0Km+OlwLDScHZQMFuo6AgsfO2nonqNOCkc
rMft8nyVsJWCfUlcOM13Je+9gHVTlDw9ymNbnxW10x0TLxnRPNt2Osy4fcnlwtfa
QG/YIdxzG0ItU5z+Gvx9q3o2P5jehHwFZ85qFDiHqfGMtWjLaH9xICv1oGP1Vi+j
JtK3b7FaF9c4mQj+k1hv/sMTSQgWC6dNZwBSMWcjTpjtUUUduQTZC+zYKLNLve02
eQIDAQABo4IBRTCCAUEwHQYDVR0OBBYEFCeOZxF0wyYdP+0zY7Ok2B0w5ejVMIHU
BgNVHSMEgcwwgcmAFCeOZxF0wyYdP+0zY7Ok2B0w5ejVoYGapIGXMIGUMQswCQYD
VQQGEwJVUzEQMA4GA1UECAwHTW9udGFuYTEQMA4GA1UEBwwHQm96ZW1hbjERMA8G
A1UECgwIU2F3dG9vdGgxEzARBgNVBAsMCkNvbnN1bHRpbmcxGDAWBgNVBAMMD3d3
dy53b2xmc3NsLmNvbTEfMB0GCSqGSIb3DQEJARYQaW5mb0B3b2xmc3NsLmNvbYIU
PykRIFdx5475GA3KcE1bFSpD1iQwDAYDVR0TBAUwAwEB/zAcBgNVHREEFTATggtl
eGFtcGxlLmNvbYcEfwAAATAdBgNVHSUEFjAUBggrBgEFBQcDAQYIKwYBBQUHAwIw
DQYJKoZIhvcNAQELBQADggEBAA+uidVo5EH4m+DFYQZX/6CSD7Lt05lbmV4yfpfH
r2z+jKauMqENys38GOXR+CBbWjiBRltIh6U/O3vH6vU1KTEVOThdSOYBgVxefBD1
FuNZr0TItY3BMiOzuBJuXI3mwtJBA+sXQuJ/vABdpTHvxkju28zg8Vb11MpFoVm1
5NdgnFfgp1ryNR6gItteHAxhvaHFe59p8tWV4rxSuR2cLNq2c3VKhOWUuBlN3XC9
f0y5F2pYFokiRDdXVSZC47flxytADOnkf1J13wbJ+wFENKwgPLS+Kz7vhTiWW5se
JYYYTKQGcAZqyEtvX8QFHwNiMBFhvMFAMWbcZPBPa7nsyCk=
-----END CERTIFICATE-----
