Certificate:
    Data:
        Version: 3 (0x2)
        Serial Number: 2 (0x2)
        Signature Algorithm: sha1WithRSAEncryption
        Issuer: C=US, ST=Montana, L=Bozeman, O=Sawtooth, OU=Consulting, CN=www.wolfssl.com/emailAddress=info@wolfssl.com
        Validity
            Not Before: Jul 22 15:23:38 2015 GMT
            Not After : Apr 17 15:23:38 2018 GMT
        Subject: C=US, ST=Montana, L=Bozeman, O=wolfSSL, OU=Support, CN=www.wolfssl.com/emailAddress=info@wolfssl.com
        Subject Public Key Info:
            Public Key Algorithm: rsaEncryption
            RSA Public Key: (2048 bit)
                Modulus (2048 bit):
                    00:b0:14:16:3a:43:dd:e1:50:45:4f:cf:80:b3:dd:
                    66:96:c7:e9:f4:dc:de:b6:6b:24:1b:76:48:ac:c6:
                    23:a5:a7:e4:05:19:bd:b7:f6:de:fa:ff:ed:5b:3c:
                    79:8a:a9:d5:f1:fb:eb:c8:b1:e4:b2:ab:52:72:89:
                    93:22:5c:ba:cd:8a:36:2a:2c:d1:40:ec:a8:66:0e:
                    c3:76:cd:e7:b3:a3:0a:1e:dd:4a:07:82:17:81:ba:
                    de:57:ce:b6:32:81:c7:bd:11:bb:e9:15:22:4e:e2:
                    16:ac:e3:d4:c0:68:88:6c:11:fc:c2:bd:1b:db:1d:
                    fd:e6:43:c7:1b:33:b8:f4:e5:1b:59:39:12:38:4d:
                    2d:9b:64:68:98:fc:8d:72:12:91:f2:24:25:6c:4c:
                    4a:48:57:92:00:cc:7e:d8:d4:3d:b8:1d:f2:9e:ea:
                    b2:23:0f:51:0f:11:41:1c:f5:27:00:1b:08:7a:12:
                    3a:05:5b:03:24:fe:b1:7b:20:fa:e4:a8:58:c6:ca:
                    ce:7f:be:95:01:12:9d:05:e6:39:13:1b:c0:3e:56:
                    2e:2b:9f:76:37:de:de:9b:e0:0d:7a:63:0d:a7:22:
                    58:db:31:c7:f7:b4:46:5c:ba:b6:4b:48:b1:18:9a:
                    68:b3:63:47:fd:af:12:5f:2f:fe:10:cb:58:2b:33:
                    68:85
                Exponent: 65537 (0x10001)
        X509v3 extensions:
            X509v3 Subject Key Identifier: 
                D8:09:2B:59:E1:2A:EE:D9:EE:40:AA:9C:AB:F0:5D:28:09:4F:22:BB
            X509v3 Authority Key Identifier: 
                keyid:27:8E:67:11:74:C3:26:1D:3F:ED:33:63:B3:A4:D8:1D:30:E5:E8:D5
                DirName:/C=US/ST=Montana/L=Bozeman/O=Sawtooth/OU=Consulting/CN=www.wolfssl.com/emailAddress=info@wolfssl.com
                serial:D9:80:3A:C3:D2:F4:DA:37

            X509v3 Basic Constraints: 
                CA:TRUE
    Signature Algorithm: sha1WithRSAEncryption
        9e:cf:e7:a7:b3:0d:40:4c:c1:ec:ad:8d:c4:5e:8c:91:b0:f3:
        8e:12:03:0d:6d:aa:6d:28:ac:2d:77:05:59:a7:e0:68:fd:90:
        17:e2:0e:6c:f0:26:21:85:c2:2b:21:5b:61:c2:70:4d:1e:dc:
        58:e8:bf:5c:d0:81:10:61:5a:03:8e:37:b4:5a:7b:71:1c:d1:
        c6:dd:aa:8f:a3:7b:83:90:d1:8c:a4:ff:f5:b3:87:00:d0:f4:
        b6:ee:26:ca:58:f2:f8:b3:c1:a0:4c:73:cd:8f:33:d8:75:e6:
        47:88:36:36:98:39:ac:22:75:b6:69:73:ce:c4:1a:40:c2:e7:
        f1:da:9c:a2:b7:fb:08:d8:8a:da:4d:f4:26:2b:15:89:c9:cb:
        ad:a8:56:c7:fb:e0:2d:f5:95:f5:89:24:02:f1:32:c2:dd:33:
        e3:d5:33:65:7c:58:95:82:4f:52:dc:f2:68:83:0b:a8:f4:68:
        f7:06:b8:6e:04:30:86:b2:ab:01:ff:bf:66:57:41:77:b9:e7:
        ea:af:0d:44:c6:1a:cb:d6:65:f2:f2:4d:2a:ff:19:25:60:f2:
        bb:39:c2:96:2a:40:b8:6c:c8:24:c5:1b:dd:43:f0:35:65:80:
        02:86:54:da:f9:36:29:75:46:ff:c5:c3:ee:ff:ea:84:6c:ab:
        bd:88:ab:b1
-----BEGIN CERTIFICATE-----
MIIEnjCCA4agAwIBAgIBAjANBgkqhkiG9w0BAQUFADCBlDELMAkGA1UEBhMCVVMx
EDAOBgNVBAgMB01vbnRhbmExEDAOBgNVBAcMB0JvemVtYW4xETAPBgNVBAoMCFNh
d3Rvb3RoMRMwEQYDVQQLDApDb25zdWx0aW5nMRgwFgYDVQQDDA93d3cud29sZnNz
bC5jb20xHzAdBgkqhkiG9w0BCQEWEGluZm9Ad29sZnNzbC5jb20wHhcNMTUwNzIy
MTUyMzM4WhcNMTgwNDE3MTUyMzM4WjCBkDELMAkGA1UEBhMCVVMxEDAOBgNVBAgT
B01vbnRhbmExEDAOBgNVBAcTB0JvemVtYW4xEDAOBgNVBAoTB3dvbGZTU0wxEDAO
BgNVBAsTB1N1cHBvcnQxGDAWBgNVBAMTD3d3dy53b2xmc3NsLmNvbTEfMB0GCSqG
SIb3DQEJARYQaW5mb0B3b2xmc3NsLmNvbTCCASIwDQYJKoZIhvcNAQEBBQADggEP
ADCCAQoCggEBALAUFjpD3eFQRU/PgLPdZpbH6fTc3rZrJBt2SKzGI6Wn5AUZvbf2
3vr/7Vs8eYqp1fH768ix5LKrUnKJkyJcus2KNios0UDsqGYOw3bN57OjCh7dSgeC
F4G63lfOtjKBx70Ru+kVIk7iFqzj1MBoiGwR/MK9G9sd/eZDxxszuPTlG1k5EjhN
LZtkaJj8jXISkfIkJWxMSkhXkgDMftjUPbgd8p7qsiMPUQ8RQRz1JwAbCHoSOgVb
AyT+sXsg+uSoWMbKzn++lQESnQXmORMbwD5WLiufdjfe3pvgDXpjDaciWNsxx/e0
Rly6tktIsRiaaLNjR/2vEl8v/hDLWCszaIUCAwEAAaOB/DCB+TAdBgNVHQ4EFgQU
2AkrWeEq7tnuQKqcq/BdKAlPIrswgckGA1UdIwSBwTCBvoAUJ45nEXTDJh0/7TNj
s6TYHTDl6NWhgZqkgZcwgZQxCzAJBgNVBAYTAlVTMRAwDgYDVQQIDAdNb250YW5h
MRAwDgYDVQQHDAdCb3plbWFuMREwDwYDVQQKDAhTYXd0b290aDETMBEGA1UECwwK
Q29uc3VsdGluZzEYMBYGA1UEAwwPd3d3LndvbGZzc2wuY29tMR8wHQYJKoZIhvcN
AQkBFhBpbmZvQHdvbGZzc2wuY29tggkA2YA6w9L02jcwDAYDVR0TBAUwAwEB/zAN
BgkqhkiG9w0BAQUFAAOCAQEAns/np7MNQEzB7K2NxF6MkbDzjhIDDW2qbSisLXcF
WafgaP2QF+IObPAmIYXCKyFbYcJwTR7cWOi/XNCBEGFaA443tFp7cRzRxt2qj6N7
g5DRjKT/9bOHAND0tu4myljy+LPBoExzzY8z2HXmR4g2Npg5rCJ1tmlzzsQaQMLn
8dqcorf7CNiK2k30JisVicnLrahWx/vgLfWV9YkkAvEywt0z49UzZXxYlYJPUtzy
aIMLqPRo9wa4bgQwhrKrAf+/ZldBd7nn6q8NRMYay9Zl8vJNKv8ZJWDyuznClipA
uGzIJMUb3UPwNWWAAoZU2vk2KXVG/8XD7v/qhGyrvYirsQ==
-----END CERTIFICATE-----
Certificate:
    Data:
        Version: 3 (0x2)
        Serial Number:
            d9:80:3a:c3:d2:f4:da:37
        Signature Algorithm: sha256WithRSAEncryption
        Issuer: C=US, ST=Montana, L=Bozeman, O=Sawtooth, OU=Consulting, CN=www.wolfssl.com/emailAddress=info@wolfssl.com
        Validity
            Not Before: May  7 18:21:01 2015 GMT
            Not After : Jan 31 18:21:01 2018 GMT
        Subject: C=US, ST=Montana, L=Bozeman, O=Sawtooth, OU=Consulting, CN=www.wolfssl.com/emailAddress=info@wolfssl.com
        Subject Public Key Info:
            Public Key Algorithm: rsaEncryption
            RSA Public Key: (2048 bit)
                Modulus (2048 bit):
                    00:bf:0c:ca:2d:14:b2:1e:84:42:5b:cd:38:1f:4a:
                    f2:4d:75:10:f1:b6:35:9f:df:ca:7d:03:98:d3:ac:
                    de:03:66:ee:2a:f1:d8:b0:7d:6e:07:54:0b:10:98:
                    21:4d:80:cb:12:20:e7:cc:4f:de:45:7d:c9:72:77:
                    32:ea:ca:90:bb:69:52:10:03:2f:a8:f3:95:c5:f1:
                    8b:62:56:1b:ef:67:6f:a4:10:41:95:ad:0a:9b:e3:
                    a5:c0:b0:d2:70:76:50:30:5b:a8:e8:08:2c:7c:ed:
                    a7:a2:7a:8d:38:29:1c:ac:c7:ed:f2:7c:95:b0:95:
                    82:7d:49:5c:38:cd:77:25:ef:bd:80:75:53:94:3c:
                    3d:ca:63:5b:9f:15:b5:d3:1d:13:2f:19:d1:3c:db:
                    76:3a:cc:b8:7d:c9:e5:c2:d7:da:40:6f:d8:21:dc:
                    73:1b:42:2d:53:9c:fe:1a:fc:7d:ab:7a:36:3f:98:
                    de:84:7c:05:67:ce:6a:14:38:87:a9:f1:8c:b5:68:
                    cb:68:7f:71:20:2b:f5:a0:63:f5:56:2f:a3:26:d2:
                    b7:6f:b1:5a:17:d7:38:99:08:fe:93:58:6f:fe:c3:
                    13:49:08:16:0b:a7:4d:67:00:52:31:67:23:4e:98:
                    ed:51:45:1d:b9:04:d9:0b:ec:d8:28:b3:4b:bd:ed:
                    36:79
                Exponent: 65537 (0x10001)
        X509v3 extensions:
            X509v3 Subject Key Identifier: 
                27:8E:67:11:74:C3:26:1D:3F:ED:33:63:B3:A4:D8:1D:30:E5:E8:D5
            X509v3 Authority Key Identifier: 
                keyid:27:8E:67:11:74:C3:26:1D:3F:ED:33:63:B3:A4:D8:1D:30:E5:E8:D5
                DirName:/C=US/ST=Montana/L=Bozeman/O=Sawtooth/OU=Consulting/CN=www.wolfssl.com/emailAddress=info@wolfssl.com
                serial:D9:80:3A:C3:D2:F4:DA:37

            X509v3 Basic Constraints: 
                CA:TRUE
    Signature Algorithm: sha256WithRSAEncryption
        7a:af:44:3b:aa:6f:53:42:b2:33:aa:43:5f:56:30:d3:b9:96:
        0b:9a:55:5a:39:2a:0b:4e:e4:2e:f1:95:66:c9:86:36:82:8d:
        63:7c:4d:a2:ee:48:ba:03:c7:90:d7:a7:c6:74:60:48:5f:31:
        a2:f9:5e:3e:c3:82:e1:e5:2f:41:81:83:29:25:79:d1:53:00:
        69:3c:ed:0a:30:3b:41:1d:92:a1:2c:a8:9d:2c:e3:23:87:79:
        e0:55:6e:91:a8:50:da:46:2f:c2:20:50:3e:2b:47:97:14:b0:
        7d:04:ba:45:51:d0:6e:e1:5a:a2:4b:84:9c:4d:cd:85:04:f9:
        28:31:82:93:bc:c7:59:49:91:03:e8:df:6a:e4:56:ad:6a:cb:
        1f:0d:37:e4:5e:bd:e7:9f:d5:ec:9d:3c:18:25:9b:f1:2f:50:
        7d:eb:31:cb:f1:63:22:9d:57:fc:f3:84:20:1a:c6:07:87:92:
        26:9e:15:18:59:33:06:dc:fb:b0:b6:76:5d:f1:c1:2f:c8:2f:
        62:9c:c0:d6:de:eb:65:77:f3:5c:a6:c3:88:27:96:75:b4:f4:
        54:cd:ff:2d:21:2e:96:f0:07:73:4b:e9:93:92:90:de:62:d9:
        a3:3b:ac:6e:24:5f:27:4a:b3:94:70:ff:30:17:e7:7e:32:8f:
        65:b7:75:58
-----BEGIN CERTIFICATE-----
MIIEqjCCA5KgAwIBAgIJANmAOsPS9No3MA0GCSqGSIb3DQEBCwUAMIGUMQswCQYD
VQQGEwJVUzEQMA4GA1UECAwHTW9udGFuYTEQMA4GA1UEBwwHQm96ZW1hbjERMA8G
A1UECgwIU2F3dG9vdGgxEzARBgNVBAsMCkNvbnN1bHRpbmcxGDAWBgNVBAMMD3d3
dy53b2xmc3NsLmNvbTEfMB0GCSqGSIb3DQEJARYQaW5mb0B3b2xmc3NsLmNvbTAe
Fw0xNTA1MDcxODIxMDFaFw0xODAxMzExODIxMDFaMIGUMQswCQYDVQQGEwJVUzEQ
MA4GA1UECAwHTW9udGFuYTEQMA4GA1UEBwwHQm96ZW1hbjERMA8GA1UECgwIU2F3
dG9vdGgxEzARBgNVBAsMCkNvbnN1bHRpbmcxGDAWBgNVBAMMD3d3dy53b2xmc3Ns
LmNvbTEfMB0GCSqGSIb3DQEJARYQaW5mb0B3b2xmc3NsLmNvbTCCASIwDQYJKoZI
hvcNAQEBBQADggEPADCCAQoCggEBAL8Myi0Ush6EQlvNOB9K8k11EPG2NZ/fyn0D
mNOs3gNm7irx2LB9bgdUCxCYIU2AyxIg58xP3kV9yXJ3MurKkLtpUhADL6jzlcXx
i2JWG+9nb6QQQZWtCpvjpcCw0nB2UDBbqOgILHztp6J6jTgpHKzH7fJ8lbCVgn1J
XDjNdyXvvYB1U5Q8PcpjW58VtdMdEy8Z0TzbdjrMuH3J5cLX2kBv2CHccxtCLVOc
/hr8fat6Nj+Y3oR8BWfOahQ4h6nxjLVoy2h/cSAr9aBj9VYvoybSt2+xWhfXOJkI
/pNYb/7DE0kIFgunTWcAUjFnI06Y7VFFHbkE2Qvs2CizS73tNnkCAwEAAaOB/DCB
+TAdBgNVHQ4EFgQUJ45nEXTDJh0/7TNjs6TYHTDl6NUwgckGA1UdIwSBwTCBvoAU
J45nEXTDJh0/7TNjs6TYHTDl6NWhgZqkgZcwgZQxCzAJBgNVBAYTAlVTMRAwDgYD
VQQIDAdNb250YW5hMRAwDgYDVQQHDAdCb3plbWFuMREwDwYDVQQKDAhTYXd0b290
aDETMBEGA1UECwwKQ29uc3VsdGluZzEYMBYGA1UEAwwPd3d3LndvbGZzc2wuY29t
MR8wHQYJKoZIhvcNAQkBFhBpbmZvQHdvbGZzc2wuY29tggkA2YA6w9L02jcwDAYD
VR0TBAUwAwEB/zANBgkqhkiG9w0BAQsFAAOCAQEAeq9EO6pvU0KyM6pDX1Yw07mW
C5pVWjkqC07kLvGVZsmGNoKNY3xNou5IugPHkNenxnRgSF8xovlePsOC4eUvQYGD
KSV50VMAaTztCjA7QR2SoSyonSzjI4d54FVukahQ2kYvwiBQPitHlxSwfQS6RVHQ
buFaokuEnE3NhQT5KDGCk7zHWUmRA+jfauRWrWrLHw035F6955/V7J08GCWb8S9Q
fesxy/FjIp1X/POEIBrGB4eSJp4VGFkzBtz7sLZ2XfHBL8gvYpzA1t7rZXfzXKbD
iCeWdbT0VM3/LSEulvAHc0vpk5KQ3mLZozusbiRfJ0qzlHD/MBfnfjKPZbd1WA==
-----END CERTIFICATE-----
