Certificate:
    Data:
        Version: 3 (0x2)
        Serial Number: 1 (0x1)
        Signature Algorithm: sha1WithRSAEncryption
        Issuer: C=US, ST=Montana, L=Bozeman, O=Sawtooth, OU=Consulting, CN=www.wolfssl.com/emailAddress=info@wolfssl.com
        Validity
            Not Before: Jul 21 21:14:46 2015 GMT
            Not After : Apr 16 21:14:46 2018 GMT
        Subject: C=US, ST=Montana, L=Bozeman, O=wolfSSL, OU=Support, CN=www.wolfssl.com/emailAddress=info@wolfssl.com
        Subject Public Key Info:
            Public Key Algorithm: rsaEncryption
            RSA Public Key: (2048 bit)
                Modulus (2048 bit):
                    00:c0:95:08:e1:57:41:f2:71:6d:b7:d2:45:41:27:
                    01:65:c6:45:ae:f2:bc:24:30:b8:95:ce:2f:4e:d6:
                    f6:1c:88:bc:7c:9f:fb:a8:67:7f:fe:5c:9c:51:75:
                    f7:8a:ca:07:e7:35:2f:8f:e1:bd:7b:c0:2f:7c:ab:
                    64:a8:17:fc:ca:5d:7b:ba:e0:21:e5:72:2e:6f:2e:
                    86:d8:95:73:da:ac:1b:53:b9:5f:3f:d7:19:0d:25:
                    4f:e1:63:63:51:8b:0b:64:3f:ad:43:b8:a5:1c:5c:
                    34:b3:ae:00:a0:63:c5:f6:7f:0b:59:68:78:73:a6:
                    8c:18:a9:02:6d:af:c3:19:01:2e:b8:10:e3:c6:cc:
                    40:b4:69:a3:46:33:69:87:6e:c4:bb:17:a6:f3:e8:
                    dd:ad:73:bc:7b:2f:21:b5:fd:66:51:0c:bd:54:b3:
                    e1:6d:5f:1c:bc:23:73:d1:09:03:89:14:d2:10:b9:
                    64:c3:2a:d0:a1:96:4a:bc:e1:d4:1a:5b:c7:a0:c0:
                    c1:63:78:0f:44:37:30:32:96:80:32:23:95:a1:77:
                    ba:13:d2:97:73:e2:5d:25:c9:6a:0d:c3:39:60:a4:
                    b4:b0:69:42:42:09:e9:d8:08:bc:33:20:b3:58:22:
                    a7:aa:eb:c4:e1:e6:61:83:c5:d2:96:df:d9:d0:4f:
                    ad:d7
                Exponent: 65537 (0x10001)
        X509v3 extensions:
            X509v3 Subject Key Identifier: 
                B3:11:32:C9:92:98:84:E2:C9:F8:D0:3B:6E:03:42:CA:1F:0E:8E:3C
            X509v3 Authority Key Identifier: 
                keyid:27:8E:67:11:74:C3:26:1D:3F:ED:33:63:B3:A4:D8:1D:30:E5:E8:D5
                DirName:/C=US/ST=Montana/L=Bozeman/O=Sawtooth/OU=Consulting/CN=www.wolfssl.com/emailAddress=info@wolfssl.com
                serial:D9:80:3A:C3:D2:F4:DA:37

            X509v3 Basic Constraints: 
                CA:TRUE
    Signature Algorithm: sha1WithRSAEncryption
        08:2d:bc:b5:b7:d9:89:c3:7c:c3:2d:78:f8:5d:25:17:af:fe:
        4c:ee:50:57:96:98:1d:aa:80:c2:e6:86:ed:c8:c0:fa:45:a1:
        3d:fc:1a:26:28:36:3a:73:d6:e5:bc:9f:24:78:72:c1:33:59:
        21:db:f4:d9:d8:af:6b:8d:0a:f1:8d:51:dd:52:d5:6f:ac:02:
        e7:39:5d:2e:ac:8f:99:5d:96:15:fd:a9:f1:01:19:a8:29:a8:
        9d:71:de:f8:c9:60:81:41:f3:20:75:67:20:ef:d5:37:e5:ed:
        9d:d9:f6:87:1d:5a:6a:a7:1e:40:82:df:4f:64:6a:67:9c:a8:
        82:ea:9f:33:fb:23:50:49:2a:90:00:c6:91:82:54:c7:a0:dc:
        01:b6:bb:23:5a:61:48:44:8f:e7:16:26:87:04:59:32:15:72:
        bc:ab:f5:60:b5:ca:54:13:fa:28:f7:bc:6c:c5:b8:c1:b4:12:
        31:b6:8a:c1:ad:bf:10:db:7d:c7:02:52:e4:e4:f7:2d:74:04:
        e4:28:2c:16:cb:b3:34:fc:c9:95:6a:3d:e9:c4:b8:5c:3f:1f:
        ae:d6:17:b6:fd:df:fb:e0:80:d5:78:a8:a8:f6:4f:13:9c:33:
        76:51:f5:d7:de:de:ff:f8:11:c6:f9:d5:e8:93:2a:78:8d:a3:
        eb:22:34:0a
-----BEGIN CERTIFICATE-----
MIIEnjCCA4agAwIBAgIBATANBgkqhkiG9w0BAQUFADCBlDELMAkGA1UEBhMCVVMx
EDAOBgNVBAgMB01vbnRhbmExEDAOBgNVBAcMB0JvemVtYW4xETAPBgNVBAoMCFNh
d3Rvb3RoMRMwEQYDVQQLDApDb25zdWx0aW5nMRgwFgYDVQQDDA93d3cud29sZnNz
bC5jb20xHzAdBgkqhkiG9w0BCQEWEGluZm9Ad29sZnNzbC5jb20wHhcNMTUwNzIx
MjExNDQ2WhcNMTgwNDE2MjExNDQ2WjCBkDELMAkGA1UEBhMCVVMxEDAOBgNVBAgT
B01vbnRhbmExEDAOBgNVBAcTB0JvemVtYW4xEDAOBgNVBAoTB3dvbGZTU0wxEDAO
BgNVBAsTB1N1cHBvcnQxGDAWBgNVBAMTD3d3dy53b2xmc3NsLmNvbTEfMB0GCSqG
SIb3DQEJARYQaW5mb0B3b2xmc3NsLmNvbTCCASIwDQYJKoZIhvcNAQEBBQADggEP
ADCCAQoCggEBAMCVCOFXQfJxbbfSRUEnAWXGRa7yvCQwuJXOL07W9hyIvHyf+6hn
f/5cnFF194rKB+c1L4/hvXvAL3yrZKgX/Mpde7rgIeVyLm8uhtiVc9qsG1O5Xz/X
GQ0lT+FjY1GLC2Q/rUO4pRxcNLOuAKBjxfZ/C1loeHOmjBipAm2vwxkBLrgQ48bM
QLRpo0YzaYduxLsXpvPo3a1zvHsvIbX9ZlEMvVSz4W1fHLwjc9EJA4kU0hC5ZMMq
0KGWSrzh1Bpbx6DAwWN4D0Q3MDKWgDIjlaF3uhPSl3PiXSXJag3DOWCktLBpQkIJ
6dgIvDMgs1gip6rrxOHmYYPF0pbf2dBPrdcCAwEAAaOB/DCB+TAdBgNVHQ4EFgQU
sxEyyZKYhOLJ+NA7bgNCyh8OjjwwgckGA1UdIwSBwTCBvoAUJ45nEXTDJh0/7TNj
s6TYHTDl6NWhgZqkgZcwgZQxCzAJBgNVBAYTAlVTMRAwDgYDVQQIDAdNb250YW5h
MRAwDgYDVQQHDAdCb3plbWFuMREwDwYDVQQKDAhTYXd0b290aDETMBEGA1UECwwK
Q29uc3VsdGluZzEYMBYGA1UEAwwPd3d3LndvbGZzc2wuY29tMR8wHQYJKoZIhvcN
AQkBFhBpbmZvQHdvbGZzc2wuY29tggkA2YA6w9L02jcwDAYDVR0TBAUwAwEB/zAN
BgkqhkiG9w0BAQUFAAOCAQEACC28tbfZicN8wy14+F0lF6/+TO5QV5aYHaqAwuaG
7cjA+kWhPfwaJig2OnPW5byfJHhywTNZIdv02diva40K8Y1R3VLVb6wC5zldLqyP
mV2WFf2p8QEZqCmonXHe+MlggUHzIHVnIO/VN+Xtndn2hx1aaqceQILfT2RqZ5yo
guqfM/sjUEkqkADGkYJUx6DcAba7I1phSESP5xYmhwRZMhVyvKv1YLXKVBP6KPe8
bMW4wbQSMbaKwa2/ENt9xwJS5OT3LXQE5CgsFsuzNPzJlWo96cS4XD8frtYXtv3f
++CA1XioqPZPE5wzdlH1197e//gRxvnV6JMqeI2j6yI0Cg==
-----END CERTIFICATE-----
Certificate:
    Data:
        Version: 3 (0x2)
        Serial Number:
            d9:80:3a:c3:d2:f4:da:37
        Signature Algorithm: sha256WithRSAEncryption
        Issuer: C=US, ST=Montana, L=Bozeman, O=Sawtooth, OU=Consulting, CN=www.wolfssl.com/emailAddress=info@wolfssl.com
        Validity
            Not Before: May  7 18:21:01 2015 GMT
            Not After : Jan 31 18:21:01 2018 GMT
        Subject: C=US, ST=Montana, L=Bozeman, O=Sawtooth, OU=Consulting, CN=www.wolfssl.com/emailAddress=info@wolfssl.com
        Subject Public Key Info:
            Public Key Algorithm: rsaEncryption
            RSA Public Key: (2048 bit)
                Modulus (2048 bit):
                    00:bf:0c:ca:2d:14:b2:1e:84:42:5b:cd:38:1f:4a:
                    f2:4d:75:10:f1:b6:35:9f:df:ca:7d:03:98:d3:ac:
                    de:03:66:ee:2a:f1:d8:b0:7d:6e:07:54:0b:10:98:
                    21:4d:80:cb:12:20:e7:cc:4f:de:45:7d:c9:72:77:
                    32:ea:ca:90:bb:69:52:10:03:2f:a8:f3:95:c5:f1:
                    8b:62:56:1b:ef:67:6f:a4:10:41:95:ad:0a:9b:e3:
                    a5:c0:b0:d2:70:76:50:30:5b:a8:e8:08:2c:7c:ed:
                    a7:a2:7a:8d:38:29:1c:ac:c7:ed:f2:7c:95:b0:95:
                    82:7d:49:5c:38:cd:77:25:ef:bd:80:75:53:94:3c:
                    3d:ca:63:5b:9f:15:b5:d3:1d:13:2f:19:d1:3c:db:
                    76:3a:cc:b8:7d:c9:e5:c2:d7:da:40:6f:d8:21:dc:
                    73:1b:42:2d:53:9c:fe:1a:fc:7d:ab:7a:36:3f:98:
                    de:84:7c:05:67:ce:6a:14:38:87:a9:f1:8c:b5:68:
                    cb:68:7f:71:20:2b:f5:a0:63:f5:56:2f:a3:26:d2:
                    b7:6f:b1:5a:17:d7:38:99:08:fe:93:58:6f:fe:c3:
                    13:49:08:16:0b:a7:4d:67:00:52:31:67:23:4e:98:
                    ed:51:45:1d:b9:04:d9:0b:ec:d8:28:b3:4b:bd:ed:
                    36:79
                Exponent: 65537 (0x10001)
        X509v3 extensions:
            X509v3 Subject Key Identifier: 
                27:8E:67:11:74:C3:26:1D:3F:ED:33:63:B3:A4:D8:1D:30:E5:E8:D5
            X509v3 Authority Key Identifier: 
                keyid:27:8E:67:11:74:C3:26:1D:3F:ED:33:63:B3:A4:D8:1D:30:E5:E8:D5
                DirName:/C=US/ST=Montana/L=Bozeman/O=Sawtooth/OU=Consulting/CN=www.wolfssl.com/emailAddress=info@wolfssl.com
                serial:D9:80:3A:C3:D2:F4:DA:37

            X509v3 Basic Constraints: 
                CA:TRUE
    Signature Algorithm: sha256WithRSAEncryption
        7a:af:44:3b:aa:6f:53:42:b2:33:aa:43:5f:56:30:d3:b9:96:
        0b:9a:55:5a:39:2a:0b:4e:e4:2e:f1:95:66:c9:86:36:82:8d:
        63:7c:4d:a2:ee:48:ba:03:c7:90:d7:a7:c6:74:60:48:5f:31:
        a2:f9:5e:3e:c3:82:e1:e5:2f:41:81:83:29:25:79:d1:53:00:
        69:3c:ed:0a:30:3b:41:1d:92:a1:2c:a8:9d:2c:e3:23:87:79:
        e0:55:6e:91:a8:50:da:46:2f:c2:20:50:3e:2b:47:97:14:b0:
        7d:04:ba:45:51:d0:6e:e1:5a:a2:4b:84:9c:4d:cd:85:04:f9:
        28:31:82:93:bc:c7:59:49:91:03:e8:df:6a:e4:56:ad:6a:cb:
        1f:0d:37:e4:5e:bd:e7:9f:d5:ec:9d:3c:18:25:9b:f1:2f:50:
        7d:eb:31:cb:f1:63:22:9d:57:fc:f3:84:20:1a:c6:07:87:92:
        26:9e:15:18:59:33:06:dc:fb:b0:b6:76:5d:f1:c1:2f:c8:2f:
        62:9c:c0:d6:de:eb:65:77:f3:5c:a6:c3:88:27:96:75:b4:f4:
        54:cd:ff:2d:21:2e:96:f0:07:73:4b:e9:93:92:90:de:62:d9:
        a3:3b:ac:6e:24:5f:27:4a:b3:94:70:ff:30:17:e7:7e:32:8f:
        65:b7:75:58
-----BEGIN CERTIFICATE-----
MIIEqjCCA5KgAwIBAgIJANmAOsPS9No3MA0GCSqGSIb3DQEBCwUAMIGUMQswCQYD
VQQGEwJVUzEQMA4GA1UECAwHTW9udGFuYTEQMA4GA1UEBwwHQm96ZW1hbjERMA8G
A1UECgwIU2F3dG9vdGgxEzARBgNVBAsMCkNvbnN1bHRpbmcxGDAWBgNVBAMMD3d3
dy53b2xmc3NsLmNvbTEfMB0GCSqGSIb3DQEJARYQaW5mb0B3b2xmc3NsLmNvbTAe
Fw0xNTA1MDcxODIxMDFaFw0xODAxMzExODIxMDFaMIGUMQswCQYDVQQGEwJVUzEQ
MA4GA1UECAwHTW9udGFuYTEQMA4GA1UEBwwHQm96ZW1hbjERMA8GA1UECgwIU2F3
dG9vdGgxEzARBgNVBAsMCkNvbnN1bHRpbmcxGDAWBgNVBAMMD3d3dy53b2xmc3Ns
LmNvbTEfMB0GCSqGSIb3DQEJARYQaW5mb0B3b2xmc3NsLmNvbTCCASIwDQYJKoZI
hvcNAQEBBQADggEPADCCAQoCggEBAL8Myi0Ush6EQlvNOB9K8k11EPG2NZ/fyn0D
mNOs3gNm7irx2LB9bgdUCxCYIU2AyxIg58xP3kV9yXJ3MurKkLtpUhADL6jzlcXx
i2JWG+9nb6QQQZWtCpvjpcCw0nB2UDBbqOgILHztp6J6jTgpHKzH7fJ8lbCVgn1J
XDjNdyXvvYB1U5Q8PcpjW58VtdMdEy8Z0TzbdjrMuH3J5cLX2kBv2CHccxtCLVOc
/hr8fat6Nj+Y3oR8BWfOahQ4h6nxjLVoy2h/cSAr9aBj9VYvoybSt2+xWhfXOJkI
/pNYb/7DE0kIFgunTWcAUjFnI06Y7VFFHbkE2Qvs2CizS73tNnkCAwEAAaOB/DCB
+TAdBgNVHQ4EFgQUJ45nEXTDJh0/7TNjs6TYHTDl6NUwgckGA1UdIwSBwTCBvoAU
J45nEXTDJh0/7TNjs6TYHTDl6NWhgZqkgZcwgZQxCzAJBgNVBAYTAlVTMRAwDgYD
VQQIDAdNb250YW5hMRAwDgYDVQQHDAdCb3plbWFuMREwDwYDVQQKDAhTYXd0b290
aDETMBEGA1UECwwKQ29uc3VsdGluZzEYMBYGA1UEAwwPd3d3LndvbGZzc2wuY29t
MR8wHQYJKoZIhvcNAQkBFhBpbmZvQHdvbGZzc2wuY29tggkA2YA6w9L02jcwDAYD
VR0TBAUwAwEB/zANBgkqhkiG9w0BAQsFAAOCAQEAeq9EO6pvU0KyM6pDX1Yw07mW
C5pVWjkqC07kLvGVZsmGNoKNY3xNou5IugPHkNenxnRgSF8xovlePsOC4eUvQYGD
KSV50VMAaTztCjA7QR2SoSyonSzjI4d54FVukahQ2kYvwiBQPitHlxSwfQS6RVHQ
buFaokuEnE3NhQT5KDGCk7zHWUmRA+jfauRWrWrLHw035F6955/V7J08GCWb8S9Q
fesxy/FjIp1X/POEIBrGB4eSJp4VGFkzBtz7sLZ2XfHBL8gvYpzA1t7rZXfzXKbD
iCeWdbT0VM3/LSEulvAHc0vpk5KQ3mLZozusbiRfJ0qzlHD/MBfnfjKPZbd1WA==
-----END CERTIFICATE-----
