Certificate:
    Data:
        Version: 3 (0x2)
        Serial Number:
            53:c7:fb:8a:51:af:ce:8b:f1:d4:a7:cb:07:55:44:09:b8:7c:b3:6d
        Signature Algorithm: ecdsa-with-SHA256
        Issuer: C = US, ST = Montana, L = Bozeman, O = Elliptic - comp, OU = Server ECC-comp, CN = www.wolfssl.com, emailAddress = info@wolfssl.com
        Validity
            Not Before: Sep 26 17:22:42 2023 GMT
            Not After : Jun 22 17:22:42 2026 GMT
        Subject: C = US, ST = Montana, L = Bozeman, O = Elliptic - comp, OU = Server ECC-comp, CN = www.wolfssl.com, emailAddress = info@wolfssl.com
        Subject Public Key Info:
            Public Key Algorithm: id-ecPublicKey
                Public-Key: (256 bit)
                pub:
                    02:bb:33:ac:4c:27:50:4a:c6:4a:a5:04:c3:3c:de:
                    9f:36:db:72:2d:ce:94:ea:2b:fa:cb:20:09:39:2c:
                    16:e8:61
                ASN1 OID: prime256v1
                NIST CURVE: P-256
        X509v3 extensions:
            X509v3 Subject Key Identifier: 
                8C:38:3A:6B:B8:24:B7:DF:6E:F4:59:AC:56:4E:AA:E2:58:A6:5A:18
            X509v3 Authority Key Identifier: 
                keyid:8C:38:3A:6B:B8:24:B7:DF:6E:F4:59:AC:56:4E:AA:E2:58:A6:5A:18
                DirName:/C=US/ST=Montana/L=Bozeman/O=Elliptic - comp/OU=Server ECC-comp/CN=www.wolfssl.com/emailAddress=info@wolfssl.com
                serial:53:C7:FB:8A:51:AF:CE:8B:F1:D4:A7:CB:07:55:44:09:B8:7C:B3:6D
            X509v3 Basic Constraints: 
                CA:TRUE
            X509v3 Subject Alternative Name: 
                DNS:example.com, IP Address:127.0.0.1
            X509v3 Extended Key Usage: 
                TLS Web Server Authentication, TLS Web Client Authentication
    Signature Algorithm: ecdsa-with-SHA256
    Signature Value:
        30:46:02:21:00:d1:57:1b:3e:76:2d:a2:bf:89:b3:24:b5:94:
        05:cc:54:5b:a0:d4:b3:7b:24:a0:f1:67:86:d6:99:6d:eb:bd:
        54:02:21:00:c6:c3:f6:60:7f:bc:14:ad:3f:04:3f:3c:ba:28:
        0e:9b:54:2c:5d:e0:14:18:b3:3a:47:f3:b2:28:66:f8:0b:74
-----BEGIN CERTIFICATE-----
MIIDeDCCAx2gAwIBAgIUU8f7ilGvzovx1KfLB1VECbh8s20wCgYIKoZIzj0EAwIw
gaAxCzAJBgNVBAYTAlVTMRAwDgYDVQQIDAdNb250YW5hMRAwDgYDVQQHDAdCb3pl
bWFuMRgwFgYDVQQKDA9FbGxpcHRpYyAtIGNvbXAxGDAWBgNVBAsMD1NlcnZlciBF
Q0MtY29tcDEYMBYGA1UEAwwPd3d3LndvbGZzc2wuY29tMR8wHQYJKoZIhvcNAQkB
FhBpbmZvQHdvbGZzc2wuY29tMB4XDTIzMDkyNjE3MjI0MloXDTI2MDYyMjE3MjI0
MlowgaAxCzAJBgNVBAYTAlVTMRAwDgYDVQQIDAdNb250YW5hMRAwDgYDVQQHDAdC
b3plbWFuMRgwFgYDVQQKDA9FbGxpcHRpYyAtIGNvbXAxGDAWBgNVBAsMD1NlcnZl
ciBFQ0MtY29tcDEYMBYGA1UEAwwPd3d3LndvbGZzc2wuY29tMR8wHQYJKoZIhvcN
AQkBFhBpbmZvQHdvbGZzc2wuY29tMDkwEwYHKoZIzj0CAQYIKoZIzj0DAQcDIgAC
uzOsTCdQSsZKpQTDPN6fNttyLc6U6iv6yyAJOSwW6GGjggFRMIIBTTAdBgNVHQ4E
FgQUjDg6a7gkt99u9FmsVk6q4limWhgwgeAGA1UdIwSB2DCB1YAUjDg6a7gkt99u
9FmsVk6q4limWhihgaakgaMwgaAxCzAJBgNVBAYTAlVTMRAwDgYDVQQIDAdNb250
YW5hMRAwDgYDVQQHDAdCb3plbWFuMRgwFgYDVQQKDA9FbGxpcHRpYyAtIGNvbXAx
GDAWBgNVBAsMD1NlcnZlciBFQ0MtY29tcDEYMBYGA1UEAwwPd3d3LndvbGZzc2wu
Y29tMR8wHQYJKoZIhvcNAQkBFhBpbmZvQHdvbGZzc2wuY29tghRTx/uKUa/Oi/HU
p8sHVUQJuHyzbTAMBgNVHRMEBTADAQH/MBwGA1UdEQQVMBOCC2V4YW1wbGUuY29t
hwR/AAABMB0GA1UdJQQWMBQGCCsGAQUFBwMBBggrBgEFBQcDAjAKBggqhkjOPQQD
AgNJADBGAiEA0VcbPnYtor+JsyS1lAXMVFug1LN7JKDxZ4bWmW3rvVQCIQDGw/Zg
f7wUrT8EPzy6KA6bVCxd4BQYszpH87IoZvgLdA==
-----END CERTIFICATE-----
