Certificate:
    Data:
        Version: 3 (0x2)
        Serial Number:
            22:f3:c3:b3:fb:95:bc:df:8d:81:ac:6d:7d:7c:b0:eb:44:bb:07:82
        Signature Algorithm: ecdsa-with-SHA256
        Issuer: C=US, ST=Washington, L=Seattle, O=Elliptic, OU=ECC, CN=www.wolfssl.com, emailAddress=info@wolfssl.com
        Validity
            Not Before: Nov 13 20:41:06 2025 GMT
            Not After : Nov 11 20:41:06 2035 GMT
        Subject: C=US, ST=Washington, L=Seattle, O=Elliptic, OU=ECC, CN=www.wolfssl.com, emailAddress=info@wolfssl.com
        Subject Public Key Info:
            Public Key Algorithm: id-ecPublicKey
                Public-Key: (256 bit)
                pub:
                    04:bb:33:ac:4c:27:50:4a:c6:4a:a5:04:c3:3c:de:
                    9f:36:db:72:2d:ce:94:ea:2b:fa:cb:20:09:39:2c:
                    16:e8:61:02:e9:af:4d:d3:02:93:9a:31:5b:97:92:
                    21:7f:f0:cf:18:da:91:11:02:34:86:e8:20:58:33:
                    0b:80:34:89:d8
                ASN1 OID: prime256v1
                NIST CURVE: P-256
        X509v3 extensions:
            X509v3 Basic Constraints: 
                CA:FALSE
            Netscape Cert Type: 
                SSL Server
            X509v3 Subject Key Identifier: 
                5D:5D:26:EF:AC:7E:36:F9:9B:76:15:2B:4A:25:02:23:EF:B2:89:30
            X509v3 Authority Key Identifier: 
                DirName:/C=US/ST=Washington/L=Seattle/O=Elliptic/OU=ECC/CN=www.wolfssl.com/emailAddress=info@wolfssl.com
                serial:22:F3:C3:B3:FB:95:BC:DF:8D:81:AC:6D:7D:7C:B0:EB:44:BB:07:82
            X509v3 Key Usage: critical
                Digital Signature, Key Encipherment, Key Agreement
            X509v3 Extended Key Usage: 
                TLS Web Server Authentication
    Signature Algorithm: ecdsa-with-SHA256
    Signature Value:
        30:45:02:21:00:ec:d6:f8:9d:9f:99:04:2b:8f:05:2f:1b:a0:
        92:6f:79:36:01:76:c3:b0:27:b0:08:7a:28:3a:98:55:1b:84:
        95:02:20:71:8f:a9:3d:22:69:68:7b:19:af:19:21:6b:76:ad:
        a8:ef:05:f1:44:27:0a:11:f2:9d:eb:a0:97:25:48:be:38
-----BEGIN CERTIFICATE-----
MIIDSTCCAu+gAwIBAgIUIvPDs/uVvN+NgaxtfXyw60S7B4IwCgYIKoZIzj0EAwIw
gZAxCzAJBgNVBAYTAlVTMRMwEQYDVQQIDApXYXNoaW5ndG9uMRAwDgYDVQQHDAdT
ZWF0dGxlMREwDwYDVQQKDAhFbGxpcHRpYzEMMAoGA1UECwwDRUNDMRgwFgYDVQQD
DA93d3cud29sZnNzbC5jb20xHzAdBgkqhkiG9w0BCQEWEGluZm9Ad29sZnNzbC5j
b20wHhcNMjUxMTEzMjA0MTA2WhcNMzUxMTExMjA0MTA2WjCBkDELMAkGA1UEBhMC
VVMxEzARBgNVBAgMCldhc2hpbmd0b24xEDAOBgNVBAcMB1NlYXR0bGUxETAPBgNV
BAoMCEVsbGlwdGljMQwwCgYDVQQLDANFQ0MxGDAWBgNVBAMMD3d3dy53b2xmc3Ns
LmNvbTEfMB0GCSqGSIb3DQEJARYQaW5mb0B3b2xmc3NsLmNvbTBZMBMGByqGSM49
AgEGCCqGSM49AwEHA0IABLszrEwnUErGSqUEwzzenzbbci3OlOor+ssgCTksFuhh
AumvTdMCk5oxW5eSIX/wzxjakRECNIboIFgzC4A0idijggEjMIIBHzAJBgNVHRME
AjAAMBEGCWCGSAGG+EIBAQQEAwIGQDAdBgNVHQ4EFgQUXV0m76x+NvmbdhUrSiUC
I++yiTAwgboGA1UdIwSBsjCBr6GBlqSBkzCBkDELMAkGA1UEBhMCVVMxEzARBgNV
BAgMCldhc2hpbmd0b24xEDAOBgNVBAcMB1NlYXR0bGUxETAPBgNVBAoMCEVsbGlw
dGljMQwwCgYDVQQLDANFQ0MxGDAWBgNVBAMMD3d3dy53b2xmc3NsLmNvbTEfMB0G
CSqGSIb3DQEJARYQaW5mb0B3b2xmc3NsLmNvbYIUIvPDs/uVvN+NgaxtfXyw60S7
B4IwDgYDVR0PAQH/BAQDAgOoMBMGA1UdJQQMMAoGCCsGAQUFBwMBMAoGCCqGSM49
BAMCA0gAMEUCIQDs1vidn5kEK48FLxugkm95NgF2w7AnsAh6KDqYVRuElQIgcY+p
PSJpaHsZrxkha3atqO8F8UQnChHyneuglyVIvjg=
-----END CERTIFICATE-----
