Certificate:
    Data:
        Version: 3 (0x2)
        Serial Number: 2 (0x2)
    Signature Algorithm: sha256WithRSAEncryption
        Issuer: C=US, ST=Montana, L=Bozeman, O=Sawtooth, OU=Consulting, CN=www.wolfssl.com/emailAddress=info@wolfssl.com
        Validity
            Not Before: Jul 23 22:04:57 2015 GMT
            Not After : Apr 18 22:04:57 2018 GMT
        Subject: C=US, ST=Montana, L=Bozeman, O=wolfSSL_revoked, OU=Support_revoked, CN=www.wolfssl.com/emailAddress=info@wolfssl.com
        Subject Public Key Info:
            Public Key Algorithm: rsaEncryption
                Public-Key: (2048 bit)
                Modulus:
                    00:b0:14:16:3a:43:dd:e1:50:45:4f:cf:80:b3:dd:
                    66:96:c7:e9:f4:dc:de:b6:6b:24:1b:76:48:ac:c6:
                    23:a5:a7:e4:05:19:bd:b7:f6:de:fa:ff:ed:5b:3c:
                    79:8a:a9:d5:f1:fb:eb:c8:b1:e4:b2:ab:52:72:89:
                    93:22:5c:ba:cd:8a:36:2a:2c:d1:40:ec:a8:66:0e:
                    c3:76:cd:e7:b3:a3:0a:1e:dd:4a:07:82:17:81:ba:
                    de:57:ce:b6:32:81:c7:bd:11:bb:e9:15:22:4e:e2:
                    16:ac:e3:d4:c0:68:88:6c:11:fc:c2:bd:1b:db:1d:
                    fd:e6:43:c7:1b:33:b8:f4:e5:1b:59:39:12:38:4d:
                    2d:9b:64:68:98:fc:8d:72:12:91:f2:24:25:6c:4c:
                    4a:48:57:92:00:cc:7e:d8:d4:3d:b8:1d:f2:9e:ea:
                    b2:23:0f:51:0f:11:41:1c:f5:27:00:1b:08:7a:12:
                    3a:05:5b:03:24:fe:b1:7b:20:fa:e4:a8:58:c6:ca:
                    ce:7f:be:95:01:12:9d:05:e6:39:13:1b:c0:3e:56:
                    2e:2b:9f:76:37:de:de:9b:e0:0d:7a:63:0d:a7:22:
                    58:db:31:c7:f7:b4:46:5c:ba:b6:4b:48:b1:18:9a:
                    68:b3:63:47:fd:af:12:5f:2f:fe:10:cb:58:2b:33:
                    68:85
                Exponent: 65537 (0x10001)
        X509v3 extensions:
            X509v3 Subject Key Identifier: 
                D8:09:2B:59:E1:2A:EE:D9:EE:40:AA:9C:AB:F0:5D:28:09:4F:22:BB
            X509v3 Authority Key Identifier: 
                keyid:27:8E:67:11:74:C3:26:1D:3F:ED:33:63:B3:A4:D8:1D:30:E5:E8:D5
                DirName:/C=US/ST=Montana/L=Bozeman/O=Sawtooth/OU=Consulting/CN=www.wolfssl.com/emailAddress=info@wolfssl.com
                serial:D9:80:3A:C3:D2:F4:DA:37

            X509v3 Basic Constraints: 
                CA:TRUE
    Signature Algorithm: sha256WithRSAEncryption
         34:66:48:5b:30:5c:6e:fa:76:c9:6a:ce:07:79:d9:99:fa:7a:
         9d:80:2d:fc:51:78:71:c4:31:2c:40:28:c8:63:26:6f:d2:39:
         63:97:3f:00:d3:d0:69:10:3f:a9:00:07:7b:59:44:85:29:03:
         31:0a:d8:ed:88:e5:1e:fa:e0:8c:9b:e0:7e:6e:d6:fb:7c:cc:
         cf:bd:43:0a:df:15:bd:8f:2a:6f:b2:51:19:b8:2a:64:0e:25:
         68:75:af:43:5a:bf:40:2b:69:9c:27:81:0c:5d:78:a1:55:a4:
         21:a0:87:9e:a2:aa:60:ac:da:2f:30:f5:d5:c9:c1:22:6b:c1:
         06:c2:42:c7:56:35:13:cd:af:5f:c9:89:bf:e9:30:b3:92:bc:
         21:6d:b8:23:85:46:44:3f:52:72:a4:7b:95:41:1a:b1:03:92:
         aa:0c:5c:2e:16:95:c5:60:7a:6c:6b:f8:ae:9b:b7:08:c9:1f:
         0d:85:91:e0:7f:bc:0d:0d:c7:69:2d:5f:99:b7:88:06:be:c5:
         d3:84:1a:46:b6:cb:53:04:27:e9:71:36:72:41:f6:63:9b:cb:
         25:6f:16:8b:0e:ef:42:db:b5:27:45:cf:a7:3e:3e:ae:78:7c:
         d8:6b:a8:f6:52:e4:a7:93:b7:8c:94:d2:4a:93:04:20:67:aa:
         c3:ea:24:f9
-----BEGIN CERTIFICATE-----
MIIErjCCA5agAwIBAgIBAjANBgkqhkiG9w0BAQsFADCBlDELMAkGA1UEBhMCVVMx
EDAOBgNVBAgMB01vbnRhbmExEDAOBgNVBAcMB0JvemVtYW4xETAPBgNVBAoMCFNh
d3Rvb3RoMRMwEQYDVQQLDApDb25zdWx0aW5nMRgwFgYDVQQDDA93d3cud29sZnNz
bC5jb20xHzAdBgkqhkiG9w0BCQEWEGluZm9Ad29sZnNzbC5jb20wHhcNMTUwNzIz
MjIwNDU3WhcNMTgwNDE4MjIwNDU3WjCBoDELMAkGA1UEBhMCVVMxEDAOBgNVBAgM
B01vbnRhbmExEDAOBgNVBAcMB0JvemVtYW4xGDAWBgNVBAoMD3dvbGZTU0xfcmV2
b2tlZDEYMBYGA1UECwwPU3VwcG9ydF9yZXZva2VkMRgwFgYDVQQDDA93d3cud29s
ZnNzbC5jb20xHzAdBgkqhkiG9w0BCQEWEGluZm9Ad29sZnNzbC5jb20wggEiMA0G
CSqGSIb3DQEBAQUAA4IBDwAwggEKAoIBAQCwFBY6Q93hUEVPz4Cz3WaWx+n03N62
ayQbdkisxiOlp+QFGb239t76/+1bPHmKqdXx++vIseSyq1JyiZMiXLrNijYqLNFA
7KhmDsN2zeezowoe3UoHgheBut5XzrYygce9EbvpFSJO4has49TAaIhsEfzCvRvb
Hf3mQ8cbM7j05RtZORI4TS2bZGiY/I1yEpHyJCVsTEpIV5IAzH7Y1D24HfKe6rIj
D1EPEUEc9ScAGwh6EjoFWwMk/rF7IPrkqFjGys5/vpUBEp0F5jkTG8A+Vi4rn3Y3
3t6b4A16Yw2nIljbMcf3tEZcurZLSLEYmmizY0f9rxJfL/4Qy1grM2iFAgMBAAGj
gfwwgfkwHQYDVR0OBBYEFNgJK1nhKu7Z7kCqnKvwXSgJTyK7MIHJBgNVHSMEgcEw
gb6AFCeOZxF0wyYdP+0zY7Ok2B0w5ejVoYGapIGXMIGUMQswCQYDVQQGEwJVUzEQ
MA4GA1UECAwHTW9udGFuYTEQMA4GA1UEBwwHQm96ZW1hbjERMA8GA1UECgwIU2F3
dG9vdGgxEzARBgNVBAsMCkNvbnN1bHRpbmcxGDAWBgNVBAMMD3d3dy53b2xmc3Ns
LmNvbTEfMB0GCSqGSIb3DQEJARYQaW5mb0B3b2xmc3NsLmNvbYIJANmAOsPS9No3
MAwGA1UdEwQFMAMBAf8wDQYJKoZIhvcNAQELBQADggEBADRmSFswXG76dslqzgd5
2Zn6ep2ALfxReHHEMSxAKMhjJm/SOWOXPwDT0GkQP6kAB3tZRIUpAzEK2O2I5R76
4Iyb4H5u1vt8zM+9QwrfFb2PKm+yURm4KmQOJWh1r0Nav0AraZwngQxdeKFVpCGg
h56iqmCs2i8w9dXJwSJrwQbCQsdWNRPNr1/Jib/pMLOSvCFtuCOFRkQ/UnKke5VB
GrEDkqoMXC4WlcVgemxr+K6btwjJHw2FkeB/vA0Nx2ktX5m3iAa+xdOEGka2y1ME
J+lxNnJB9mObyyVvFosO70LbtSdFz6c+Pq54fNhrqPZS5KeTt4yU0kqTBCBnqsPq
JPk=
-----END CERTIFICATE-----
Certificate:
    Data:
        Version: 3 (0x2)
        Serial Number: 15672591315981621815 (0xd9803ac3d2f4da37)
    Signature Algorithm: sha256WithRSAEncryption
        Issuer: C=US, ST=Montana, L=Bozeman, O=Sawtooth, OU=Consulting, CN=www.wolfssl.com/emailAddress=info@wolfssl.com
        Validity
            Not Before: May  7 18:21:01 2015 GMT
            Not After : Jan 31 18:21:01 2018 GMT
        Subject: C=US, ST=Montana, L=Bozeman, O=Sawtooth, OU=Consulting, CN=www.wolfssl.com/emailAddress=info@wolfssl.com
        Subject Public Key Info:
            Public Key Algorithm: rsaEncryption
                Public-Key: (2048 bit)
                Modulus:
                    00:bf:0c:ca:2d:14:b2:1e:84:42:5b:cd:38:1f:4a:
                    f2:4d:75:10:f1:b6:35:9f:df:ca:7d:03:98:d3:ac:
                    de:03:66:ee:2a:f1:d8:b0:7d:6e:07:54:0b:10:98:
                    21:4d:80:cb:12:20:e7:cc:4f:de:45:7d:c9:72:77:
                    32:ea:ca:90:bb:69:52:10:03:2f:a8:f3:95:c5:f1:
                    8b:62:56:1b:ef:67:6f:a4:10:41:95:ad:0a:9b:e3:
                    a5:c0:b0:d2:70:76:50:30:5b:a8:e8:08:2c:7c:ed:
                    a7:a2:7a:8d:38:29:1c:ac:c7:ed:f2:7c:95:b0:95:
                    82:7d:49:5c:38:cd:77:25:ef:bd:80:75:53:94:3c:
                    3d:ca:63:5b:9f:15:b5:d3:1d:13:2f:19:d1:3c:db:
                    76:3a:cc:b8:7d:c9:e5:c2:d7:da:40:6f:d8:21:dc:
                    73:1b:42:2d:53:9c:fe:1a:fc:7d:ab:7a:36:3f:98:
                    de:84:7c:05:67:ce:6a:14:38:87:a9:f1:8c:b5:68:
                    cb:68:7f:71:20:2b:f5:a0:63:f5:56:2f:a3:26:d2:
                    b7:6f:b1:5a:17:d7:38:99:08:fe:93:58:6f:fe:c3:
                    13:49:08:16:0b:a7:4d:67:00:52:31:67:23:4e:98:
                    ed:51:45:1d:b9:04:d9:0b:ec:d8:28:b3:4b:bd:ed:
                    36:79
                Exponent: 65537 (0x10001)
        X509v3 extensions:
            X509v3 Subject Key Identifier: 
                27:8E:67:11:74:C3:26:1D:3F:ED:33:63:B3:A4:D8:1D:30:E5:E8:D5
            X509v3 Authority Key Identifier: 
                keyid:27:8E:67:11:74:C3:26:1D:3F:ED:33:63:B3:A4:D8:1D:30:E5:E8:D5
                DirName:/C=US/ST=Montana/L=Bozeman/O=Sawtooth/OU=Consulting/CN=www.wolfssl.com/emailAddress=info@wolfssl.com
                serial:D9:80:3A:C3:D2:F4:DA:37

            X509v3 Basic Constraints: 
                CA:TRUE
    Signature Algorithm: sha256WithRSAEncryption
         7a:af:44:3b:aa:6f:53:42:b2:33:aa:43:5f:56:30:d3:b9:96:
         0b:9a:55:5a:39:2a:0b:4e:e4:2e:f1:95:66:c9:86:36:82:8d:
         63:7c:4d:a2:ee:48:ba:03:c7:90:d7:a7:c6:74:60:48:5f:31:
         a2:f9:5e:3e:c3:82:e1:e5:2f:41:81:83:29:25:79:d1:53:00:
         69:3c:ed:0a:30:3b:41:1d:92:a1:2c:a8:9d:2c:e3:23:87:79:
         e0:55:6e:91:a8:50:da:46:2f:c2:20:50:3e:2b:47:97:14:b0:
         7d:04:ba:45:51:d0:6e:e1:5a:a2:4b:84:9c:4d:cd:85:04:f9:
         28:31:82:93:bc:c7:59:49:91:03:e8:df:6a:e4:56:ad:6a:cb:
         1f:0d:37:e4:5e:bd:e7:9f:d5:ec:9d:3c:18:25:9b:f1:2f:50:
         7d:eb:31:cb:f1:63:22:9d:57:fc:f3:84:20:1a:c6:07:87:92:
         26:9e:15:18:59:33:06:dc:fb:b0:b6:76:5d:f1:c1:2f:c8:2f:
         62:9c:c0:d6:de:eb:65:77:f3:5c:a6:c3:88:27:96:75:b4:f4:
         54:cd:ff:2d:21:2e:96:f0:07:73:4b:e9:93:92:90:de:62:d9:
         a3:3b:ac:6e:24:5f:27:4a:b3:94:70:ff:30:17:e7:7e:32:8f:
         65:b7:75:58
-----BEGIN CERTIFICATE-----
MIIEqjCCA5KgAwIBAgIJANmAOsPS9No3MA0GCSqGSIb3DQEBCwUAMIGUMQswCQYD
VQQGEwJVUzEQMA4GA1UECAwHTW9udGFuYTEQMA4GA1UEBwwHQm96ZW1hbjERMA8G
A1UECgwIU2F3dG9vdGgxEzARBgNVBAsMCkNvbnN1bHRpbmcxGDAWBgNVBAMMD3d3
dy53b2xmc3NsLmNvbTEfMB0GCSqGSIb3DQEJARYQaW5mb0B3b2xmc3NsLmNvbTAe
Fw0xNTA1MDcxODIxMDFaFw0xODAxMzExODIxMDFaMIGUMQswCQYDVQQGEwJVUzEQ
MA4GA1UECAwHTW9udGFuYTEQMA4GA1UEBwwHQm96ZW1hbjERMA8GA1UECgwIU2F3
dG9vdGgxEzARBgNVBAsMCkNvbnN1bHRpbmcxGDAWBgNVBAMMD3d3dy53b2xmc3Ns
LmNvbTEfMB0GCSqGSIb3DQEJARYQaW5mb0B3b2xmc3NsLmNvbTCCASIwDQYJKoZI
hvcNAQEBBQADggEPADCCAQoCggEBAL8Myi0Ush6EQlvNOB9K8k11EPG2NZ/fyn0D
mNOs3gNm7irx2LB9bgdUCxCYIU2AyxIg58xP3kV9yXJ3MurKkLtpUhADL6jzlcXx
i2JWG+9nb6QQQZWtCpvjpcCw0nB2UDBbqOgILHztp6J6jTgpHKzH7fJ8lbCVgn1J
XDjNdyXvvYB1U5Q8PcpjW58VtdMdEy8Z0TzbdjrMuH3J5cLX2kBv2CHccxtCLVOc
/hr8fat6Nj+Y3oR8BWfOahQ4h6nxjLVoy2h/cSAr9aBj9VYvoybSt2+xWhfXOJkI
/pNYb/7DE0kIFgunTWcAUjFnI06Y7VFFHbkE2Qvs2CizS73tNnkCAwEAAaOB/DCB
+TAdBgNVHQ4EFgQUJ45nEXTDJh0/7TNjs6TYHTDl6NUwgckGA1UdIwSBwTCBvoAU
J45nEXTDJh0/7TNjs6TYHTDl6NWhgZqkgZcwgZQxCzAJBgNVBAYTAlVTMRAwDgYD
VQQIDAdNb250YW5hMRAwDgYDVQQHDAdCb3plbWFuMREwDwYDVQQKDAhTYXd0b290
aDETMBEGA1UECwwKQ29uc3VsdGluZzEYMBYGA1UEAwwPd3d3LndvbGZzc2wuY29t
MR8wHQYJKoZIhvcNAQkBFhBpbmZvQHdvbGZzc2wuY29tggkA2YA6w9L02jcwDAYD
VR0TBAUwAwEB/zANBgkqhkiG9w0BAQsFAAOCAQEAeq9EO6pvU0KyM6pDX1Yw07mW
C5pVWjkqC07kLvGVZsmGNoKNY3xNou5IugPHkNenxnRgSF8xovlePsOC4eUvQYGD
KSV50VMAaTztCjA7QR2SoSyonSzjI4d54FVukahQ2kYvwiBQPitHlxSwfQS6RVHQ
buFaokuEnE3NhQT5KDGCk7zHWUmRA+jfauRWrWrLHw035F6955/V7J08GCWb8S9Q
fesxy/FjIp1X/POEIBrGB4eSJp4VGFkzBtz7sLZ2XfHBL8gvYpzA1t7rZXfzXKbD
iCeWdbT0VM3/LSEulvAHc0vpk5KQ3mLZozusbiRfJ0qzlHD/MBfnfjKPZbd1WA==
-----END CERTIFICATE-----
