Certificate:
    Data:
        Version: 3 (0x2)
        Serial Number:
            5c:da:f4:04:76:f3:be:6d:f4:9a:5b:7c:a2:c8:21:de:f6:04:ee:ac
        Signature Algorithm: ecdsa-with-SHA256
        Issuer: C = US, ST = Washington, L = Seattle, O = Eliptic, OU = ECC, CN = www.wolfssl.com, emailAddress = info@wolfssl.com
        Validity
            Not Before: Dec 20 23:07:24 2021 GMT
            Not After : Dec 18 23:07:24 2031 GMT
        Subject: C = US, ST = Washington, L = Seattle, O = Eliptic, OU = ECC, CN = www.wolfssl.com, emailAddress = info@wolfssl.com
        Subject Public Key Info:
            Public Key Algorithm: id-ecPublicKey
                Public-Key: (256 bit)
                pub:
                    04:bb:33:ac:4c:27:50:4a:c6:4a:a5:04:c3:3c:de:
                    9f:36:db:72:2d:ce:94:ea:2b:fa:cb:20:09:39:2c:
                    16:e8:61:02:e9:af:4d:d3:02:93:9a:31:5b:97:92:
                    21:7f:f0:cf:18:da:91:11:02:34:86:e8:20:58:33:
                    0b:80:34:89:d8
                ASN1 OID: prime256v1
                NIST CURVE: P-256
        X509v3 extensions:
            X509v3 Basic Constraints: 
                CA:FALSE
            Netscape Cert Type: 
                SSL Server
            X509v3 Subject Key Identifier: 
                5D:5D:26:EF:AC:7E:36:F9:9B:76:15:2B:4A:25:02:23:EF:B2:89:30
            X509v3 Authority Key Identifier: 
                keyid:5D:5D:26:EF:AC:7E:36:F9:9B:76:15:2B:4A:25:02:23:EF:B2:89:30
                DirName:/C=US/ST=Washington/L=Seattle/O=Eliptic/OU=ECC/CN=www.wolfssl.com/emailAddress=info@wolfssl.com
                serial:5C:DA:F4:04:76:F3:BE:6D:F4:9A:5B:7C:A2:C8:21:DE:F6:04:EE:AC

            X509v3 Key Usage: critical
                Digital Signature, Key Encipherment, Key Agreement
            X509v3 Extended Key Usage: 
                TLS Web Server Authentication
    Signature Algorithm: ecdsa-with-SHA256
         30:45:02:21:00:ad:f8:66:6b:e5:b8:13:01:42:b3:83:7f:cf:
         e2:00:b3:dc:c8:d9:b6:f2:27:42:8e:30:51:bb:f8:36:12:19:
         56:02:20:39:58:98:f2:ac:a7:6d:9b:d4:4f:6d:e1:01:e1:4a:
         72:8a:e3:bf:e6:d0:f1:cc:fa:31:9b:a0:b6:a7:dd:96:29
-----BEGIN CERTIFICATE-----
MIIDXDCCAwKgAwIBAgIUXNr0BHbzvm30mlt8osgh3vYE7qwwCgYIKoZIzj0EAwIw
gY8xCzAJBgNVBAYTAlVTMRMwEQYDVQQIDApXYXNoaW5ndG9uMRAwDgYDVQQHDAdT
ZWF0dGxlMRAwDgYDVQQKDAdFbGlwdGljMQwwCgYDVQQLDANFQ0MxGDAWBgNVBAMM
D3d3dy53b2xmc3NsLmNvbTEfMB0GCSqGSIb3DQEJARYQaW5mb0B3b2xmc3NsLmNv
bTAeFw0yMTEyMjAyMzA3MjRaFw0zMTEyMTgyMzA3MjRaMIGPMQswCQYDVQQGEwJV
UzETMBEGA1UECAwKV2FzaGluZ3RvbjEQMA4GA1UEBwwHU2VhdHRsZTEQMA4GA1UE
CgwHRWxpcHRpYzEMMAoGA1UECwwDRUNDMRgwFgYDVQQDDA93d3cud29sZnNzbC5j
b20xHzAdBgkqhkiG9w0BCQEWEGluZm9Ad29sZnNzbC5jb20wWTATBgcqhkjOPQIB
BggqhkjOPQMBBwNCAAS7M6xMJ1BKxkqlBMM83p8223ItzpTqK/rLIAk5LBboYQLp
r03TApOaMVuXkiF/8M8Y2pERAjSG6CBYMwuANInYo4IBODCCATQwCQYDVR0TBAIw
ADARBglghkgBhvhCAQEEBAMCBkAwHQYDVR0OBBYEFF1dJu+sfjb5m3YVK0olAiPv
sokwMIHPBgNVHSMEgccwgcSAFF1dJu+sfjb5m3YVK0olAiPvsokwoYGVpIGSMIGP
MQswCQYDVQQGEwJVUzETMBEGA1UECAwKV2FzaGluZ3RvbjEQMA4GA1UEBwwHU2Vh
dHRsZTEQMA4GA1UECgwHRWxpcHRpYzEMMAoGA1UECwwDRUNDMRgwFgYDVQQDDA93
d3cud29sZnNzbC5jb20xHzAdBgkqhkiG9w0BCQEWEGluZm9Ad29sZnNzbC5jb22C
FFza9AR2875t9JpbfKLIId72BO6sMA4GA1UdDwEB/wQEAwIDqDATBgNVHSUEDDAK
BggrBgEFBQcDATAKBggqhkjOPQQDAgNIADBFAiEArfhma+W4EwFCs4N/z+IAs9zI
2bbyJ0KOMFG7+DYSGVYCIDlYmPKsp22b1E9t4QHhSnKK47/m0PHM+jGboLan3ZYp
-----END CERTIFICATE-----
