Certificate:
    Data:
        Version: 3 (0x2)
        Serial Number: 2 (0x2)
    Signature Algorithm: sha256WithRSAEncryption
        Issuer: C=US, ST=Montana, L=Bozeman, O=Sawtooth, OU=Consulting, CN=www.wolfssl.com/emailAddress=info@wolfssl.com
        Validity
            Not Before: Nov 23 12:49:37 2015 GMT
            Not After : Aug 19 12:49:37 2018 GMT
        Subject: C=US, ST=Montana, L=Bozeman, O=wolfSSL_revoked, OU=Support_revoked, CN=www.wolfssl.com/emailAddress=info@wolfssl.com
        Subject Public Key Info:
            Public Key Algorithm: rsaEncryption
                Public-Key: (2048 bit)
                Modulus:
                    00:b0:14:16:3a:43:dd:e1:50:45:4f:cf:80:b3:dd:
                    66:96:c7:e9:f4:dc:de:b6:6b:24:1b:76:48:ac:c6:
                    23:a5:a7:e4:05:19:bd:b7:f6:de:fa:ff:ed:5b:3c:
                    79:8a:a9:d5:f1:fb:eb:c8:b1:e4:b2:ab:52:72:89:
                    93:22:5c:ba:cd:8a:36:2a:2c:d1:40:ec:a8:66:0e:
                    c3:76:cd:e7:b3:a3:0a:1e:dd:4a:07:82:17:81:ba:
                    de:57:ce:b6:32:81:c7:bd:11:bb:e9:15:22:4e:e2:
                    16:ac:e3:d4:c0:68:88:6c:11:fc:c2:bd:1b:db:1d:
                    fd:e6:43:c7:1b:33:b8:f4:e5:1b:59:39:12:38:4d:
                    2d:9b:64:68:98:fc:8d:72:12:91:f2:24:25:6c:4c:
                    4a:48:57:92:00:cc:7e:d8:d4:3d:b8:1d:f2:9e:ea:
                    b2:23:0f:51:0f:11:41:1c:f5:27:00:1b:08:7a:12:
                    3a:05:5b:03:24:fe:b1:7b:20:fa:e4:a8:58:c6:ca:
                    ce:7f:be:95:01:12:9d:05:e6:39:13:1b:c0:3e:56:
                    2e:2b:9f:76:37:de:de:9b:e0:0d:7a:63:0d:a7:22:
                    58:db:31:c7:f7:b4:46:5c:ba:b6:4b:48:b1:18:9a:
                    68:b3:63:47:fd:af:12:5f:2f:fe:10:cb:58:2b:33:
                    68:85
                Exponent: 65537 (0x10001)
        X509v3 extensions:
            X509v3 Subject Key Identifier: 
                D8:09:2B:59:E1:2A:EE:D9:EE:40:AA:9C:AB:F0:5D:28:09:4F:22:BB
            X509v3 Authority Key Identifier: 
                keyid:27:8E:67:11:74:C3:26:1D:3F:ED:33:63:B3:A4:D8:1D:30:E5:E8:D5
                DirName:/C=US/ST=Montana/L=Bozeman/O=Sawtooth/OU=Consulting/CN=www.wolfssl.com/emailAddress=info@wolfssl.com
                serial:A6:66:38:49:45:9B:DC:81

            X509v3 Basic Constraints: 
                CA:TRUE
            Authority Information Access: 
                OCSP - URI:http://localhost:22222

    Signature Algorithm: sha256WithRSAEncryption
         34:08:b8:9f:36:68:00:9b:46:f1:f5:b5:ec:b8:4e:7d:b2:5e:
         83:c1:5a:f1:37:56:ed:9a:99:c7:69:34:65:51:b0:ce:0d:2e:
         49:e8:99:c4:ed:aa:ba:cf:2d:ef:33:da:49:20:bb:31:d8:39:
         96:26:5a:4d:99:56:43:e6:8e:84:a8:c2:09:10:db:27:7e:7d:
         a3:f4:6a:09:3e:01:84:6b:a4:22:3e:4f:fb:8c:42:e5:cb:99:
         82:7c:05:c1:c3:1d:bc:a1:eb:c1:d2:02:b1:b6:5a:e5:59:e0:
         d1:e0:8f:90:6b:97:2c:bf:d1:e3:67:a9:42:08:16:b4:2e:e7:
         d2:39:d6:6a:e3:7e:4c:a6:11:4e:04:7a:0c:6f:69:c3:44:ff:
         d7:d2:8f:44:7d:94:a5:73:8a:db:9f:0a:10:76:53:81:b9:f3:
         5d:98:24:f4:09:2d:77:95:79:c8:29:e8:64:20:15:b4:4b:47:
         56:67:a5:b4:51:23:dc:0f:f9:e1:f2:aa:2a:3f:cb:1e:2b:9d:
         71:fd:7e:2d:b6:23:aa:c4:c3:b6:b8:88:1a:d5:08:68:8a:2e:
         50:48:39:f6:fe:fb:f9:dc:0f:da:eb:8c:0e:39:21:3b:79:9a:
         dc:cc:1c:79:35:a4:35:ac:06:6f:f8:f2:3c:56:0a:03:08:77:
         b8:26:e3:c7
-----BEGIN CERTIFICATE-----
MIIE5DCCA8ygAwIBAgIBAjANBgkqhkiG9w0BAQsFADCBlDELMAkGA1UEBhMCVVMx
EDAOBgNVBAgMB01vbnRhbmExEDAOBgNVBAcMB0JvemVtYW4xETAPBgNVBAoMCFNh
d3Rvb3RoMRMwEQYDVQQLDApDb25zdWx0aW5nMRgwFgYDVQQDDA93d3cud29sZnNz
bC5jb20xHzAdBgkqhkiG9w0BCQEWEGluZm9Ad29sZnNzbC5jb20wHhcNMTUxMTIz
MTI0OTM3WhcNMTgwODE5MTI0OTM3WjCBoDELMAkGA1UEBhMCVVMxEDAOBgNVBAgM
B01vbnRhbmExEDAOBgNVBAcMB0JvemVtYW4xGDAWBgNVBAoMD3dvbGZTU0xfcmV2
b2tlZDEYMBYGA1UECwwPU3VwcG9ydF9yZXZva2VkMRgwFgYDVQQDDA93d3cud29s
ZnNzbC5jb20xHzAdBgkqhkiG9w0BCQEWEGluZm9Ad29sZnNzbC5jb20wggEiMA0G
CSqGSIb3DQEBAQUAA4IBDwAwggEKAoIBAQCwFBY6Q93hUEVPz4Cz3WaWx+n03N62
ayQbdkisxiOlp+QFGb239t76/+1bPHmKqdXx++vIseSyq1JyiZMiXLrNijYqLNFA
7KhmDsN2zeezowoe3UoHgheBut5XzrYygce9EbvpFSJO4has49TAaIhsEfzCvRvb
Hf3mQ8cbM7j05RtZORI4TS2bZGiY/I1yEpHyJCVsTEpIV5IAzH7Y1D24HfKe6rIj
D1EPEUEc9ScAGwh6EjoFWwMk/rF7IPrkqFjGys5/vpUBEp0F5jkTG8A+Vi4rn3Y3
3t6b4A16Yw2nIljbMcf3tEZcurZLSLEYmmizY0f9rxJfL/4Qy1grM2iFAgMBAAGj
ggExMIIBLTAdBgNVHQ4EFgQU2AkrWeEq7tnuQKqcq/BdKAlPIrswgckGA1UdIwSB
wTCBvoAUJ45nEXTDJh0/7TNjs6TYHTDl6NWhgZqkgZcwgZQxCzAJBgNVBAYTAlVT
MRAwDgYDVQQIDAdNb250YW5hMRAwDgYDVQQHDAdCb3plbWFuMREwDwYDVQQKDAhT
YXd0b290aDETMBEGA1UECwwKQ29uc3VsdGluZzEYMBYGA1UEAwwPd3d3LndvbGZz
c2wuY29tMR8wHQYJKoZIhvcNAQkBFhBpbmZvQHdvbGZzc2wuY29tggkApmY4SUWb
3IEwDAYDVR0TBAUwAwEB/zAyBggrBgEFBQcBAQQmMCQwIgYIKwYBBQUHMAGGFmh0
dHA6Ly9sb2NhbGhvc3Q6MjIyMjIwDQYJKoZIhvcNAQELBQADggEBADQIuJ82aACb
RvH1tey4Tn2yXoPBWvE3Vu2amcdpNGVRsM4NLknomcTtqrrPLe8z2kkguzHYOZYm
Wk2ZVkPmjoSowgkQ2yd+faP0agk+AYRrpCI+T/uMQuXLmYJ8BcHDHbyh68HSArG2
WuVZ4NHgj5Brlyy/0eNnqUIIFrQu59I51mrjfkymEU4EegxvacNE/9fSj0R9lKVz
itufChB2U4G5812YJPQJLXeVecgp6GQgFbRLR1ZnpbRRI9wP+eHyqio/yx4rnXH9
fi22I6rEw7a4iBrVCGiKLlBIOfb++/ncD9rrjA45ITt5mtzMHHk1pDWsBm/48jxW
CgMId7gm48c=
-----END CERTIFICATE-----
Certificate:
    Data:
        Version: 3 (0x2)
        Serial Number: 11990332945272134785 (0xa6663849459bdc81)
    Signature Algorithm: sha256WithRSAEncryption
        Issuer: C=US, ST=Montana, L=Bozeman, O=Sawtooth, OU=Consulting, CN=www.wolfssl.com/emailAddress=info@wolfssl.com
        Validity
            Not Before: Nov 23 12:49:37 2015 GMT
            Not After : Aug 19 12:49:37 2018 GMT
        Subject: C=US, ST=Montana, L=Bozeman, O=Sawtooth, OU=Consulting, CN=www.wolfssl.com/emailAddress=info@wolfssl.com
        Subject Public Key Info:
            Public Key Algorithm: rsaEncryption
                Public-Key: (2048 bit)
                Modulus:
                    00:bf:0c:ca:2d:14:b2:1e:84:42:5b:cd:38:1f:4a:
                    f2:4d:75:10:f1:b6:35:9f:df:ca:7d:03:98:d3:ac:
                    de:03:66:ee:2a:f1:d8:b0:7d:6e:07:54:0b:10:98:
                    21:4d:80:cb:12:20:e7:cc:4f:de:45:7d:c9:72:77:
                    32:ea:ca:90:bb:69:52:10:03:2f:a8:f3:95:c5:f1:
                    8b:62:56:1b:ef:67:6f:a4:10:41:95:ad:0a:9b:e3:
                    a5:c0:b0:d2:70:76:50:30:5b:a8:e8:08:2c:7c:ed:
                    a7:a2:7a:8d:38:29:1c:ac:c7:ed:f2:7c:95:b0:95:
                    82:7d:49:5c:38:cd:77:25:ef:bd:80:75:53:94:3c:
                    3d:ca:63:5b:9f:15:b5:d3:1d:13:2f:19:d1:3c:db:
                    76:3a:cc:b8:7d:c9:e5:c2:d7:da:40:6f:d8:21:dc:
                    73:1b:42:2d:53:9c:fe:1a:fc:7d:ab:7a:36:3f:98:
                    de:84:7c:05:67:ce:6a:14:38:87:a9:f1:8c:b5:68:
                    cb:68:7f:71:20:2b:f5:a0:63:f5:56:2f:a3:26:d2:
                    b7:6f:b1:5a:17:d7:38:99:08:fe:93:58:6f:fe:c3:
                    13:49:08:16:0b:a7:4d:67:00:52:31:67:23:4e:98:
                    ed:51:45:1d:b9:04:d9:0b:ec:d8:28:b3:4b:bd:ed:
                    36:79
                Exponent: 65537 (0x10001)
        X509v3 extensions:
            X509v3 Subject Key Identifier: 
                27:8E:67:11:74:C3:26:1D:3F:ED:33:63:B3:A4:D8:1D:30:E5:E8:D5
            X509v3 Authority Key Identifier: 
                keyid:27:8E:67:11:74:C3:26:1D:3F:ED:33:63:B3:A4:D8:1D:30:E5:E8:D5
                DirName:/C=US/ST=Montana/L=Bozeman/O=Sawtooth/OU=Consulting/CN=www.wolfssl.com/emailAddress=info@wolfssl.com
                serial:A6:66:38:49:45:9B:DC:81

            X509v3 Basic Constraints: 
                CA:TRUE
            Authority Information Access: 
                OCSP - URI:http://localhost:22222

    Signature Algorithm: sha256WithRSAEncryption
         41:8f:fb:6b:65:6b:36:f2:56:4f:0c:48:b0:4d:8c:c2:cb:d6:
         58:7a:83:3a:30:7d:62:7b:86:f1:15:26:b3:26:02:77:f2:c8:
         57:e5:1e:60:68:8b:a4:e8:f3:a8:b2:88:a4:2f:e8:6e:25:8d:
         6b:dc:53:ab:2f:d3:47:8c:d6:27:ab:39:bc:d3:ca:d8:01:96:
         a4:44:57:38:93:ab:c3:f3:95:67:7f:cf:25:1d:b7:04:dc:06:
         c9:5d:24:c1:54:13:71:81:21:31:ee:9f:b4:9d:ce:98:66:a4:
         a0:77:c1:88:18:a4:d1:36:ee:cd:d8:c1:1b:bc:03:d6:85:9a:
         2e:21:82:95:4c:b2:2a:fe:69:db:ac:e4:97:e1:e9:0e:f1:d3:
         ef:20:86:03:01:66:6b:f0:26:0f:39:04:26:f5:42:98:3f:95:
         48:5f:b5:5d:bc:49:4c:81:38:d5:e9:72:32:1c:66:1b:12:80:
         0f:db:99:f0:97:67:61:79:ad:ab:be:6a:ea:aa:cc:3d:f9:40:
         99:00:93:bb:df:4b:41:d4:7f:f1:93:b2:70:83:3a:e3:6b:44:
         4b:1f:9f:77:53:ea:5d:e6:59:1e:c0:2d:4b:83:d6:f4:a3:d4:
         a9:c3:91:12:e7:61:3f:56:9d:8f:b8:19:29:62:1b:58:df:73:
         99:1f:49:63
-----BEGIN CERTIFICATE-----
MIIE4DCCA8igAwIBAgIJAKZmOElFm9yBMA0GCSqGSIb3DQEBCwUAMIGUMQswCQYD
VQQGEwJVUzEQMA4GA1UECAwHTW9udGFuYTEQMA4GA1UEBwwHQm96ZW1hbjERMA8G
A1UECgwIU2F3dG9vdGgxEzARBgNVBAsMCkNvbnN1bHRpbmcxGDAWBgNVBAMMD3d3
dy53b2xmc3NsLmNvbTEfMB0GCSqGSIb3DQEJARYQaW5mb0B3b2xmc3NsLmNvbTAe
Fw0xNTExMjMxMjQ5MzdaFw0xODA4MTkxMjQ5MzdaMIGUMQswCQYDVQQGEwJVUzEQ
MA4GA1UECAwHTW9udGFuYTEQMA4GA1UEBwwHQm96ZW1hbjERMA8GA1UECgwIU2F3
dG9vdGgxEzARBgNVBAsMCkNvbnN1bHRpbmcxGDAWBgNVBAMMD3d3dy53b2xmc3Ns
LmNvbTEfMB0GCSqGSIb3DQEJARYQaW5mb0B3b2xmc3NsLmNvbTCCASIwDQYJKoZI
hvcNAQEBBQADggEPADCCAQoCggEBAL8Myi0Ush6EQlvNOB9K8k11EPG2NZ/fyn0D
mNOs3gNm7irx2LB9bgdUCxCYIU2AyxIg58xP3kV9yXJ3MurKkLtpUhADL6jzlcXx
i2JWG+9nb6QQQZWtCpvjpcCw0nB2UDBbqOgILHztp6J6jTgpHKzH7fJ8lbCVgn1J
XDjNdyXvvYB1U5Q8PcpjW58VtdMdEy8Z0TzbdjrMuH3J5cLX2kBv2CHccxtCLVOc
/hr8fat6Nj+Y3oR8BWfOahQ4h6nxjLVoy2h/cSAr9aBj9VYvoybSt2+xWhfXOJkI
/pNYb/7DE0kIFgunTWcAUjFnI06Y7VFFHbkE2Qvs2CizS73tNnkCAwEAAaOCATEw
ggEtMB0GA1UdDgQWBBQnjmcRdMMmHT/tM2OzpNgdMOXo1TCByQYDVR0jBIHBMIG+
gBQnjmcRdMMmHT/tM2OzpNgdMOXo1aGBmqSBlzCBlDELMAkGA1UEBhMCVVMxEDAO
BgNVBAgMB01vbnRhbmExEDAOBgNVBAcMB0JvemVtYW4xETAPBgNVBAoMCFNhd3Rv
b3RoMRMwEQYDVQQLDApDb25zdWx0aW5nMRgwFgYDVQQDDA93d3cud29sZnNzbC5j
b20xHzAdBgkqhkiG9w0BCQEWEGluZm9Ad29sZnNzbC5jb22CCQCmZjhJRZvcgTAM
BgNVHRMEBTADAQH/MDIGCCsGAQUFBwEBBCYwJDAiBggrBgEFBQcwAYYWaHR0cDov
L2xvY2FsaG9zdDoyMjIyMjANBgkqhkiG9w0BAQsFAAOCAQEAQY/7a2VrNvJWTwxI
sE2MwsvWWHqDOjB9YnuG8RUmsyYCd/LIV+UeYGiLpOjzqLKIpC/obiWNa9xTqy/T
R4zWJ6s5vNPK2AGWpERXOJOrw/OVZ3/PJR23BNwGyV0kwVQTcYEhMe6ftJ3OmGak
oHfBiBik0TbuzdjBG7wD1oWaLiGClUyyKv5p26zkl+HpDvHT7yCGAwFma/AmDzkE
JvVCmD+VSF+1XbxJTIE41elyMhxmGxKAD9uZ8JdnYXmtq75q6qrMPflAmQCTu99L
QdR/8ZOycIM642tESx+fd1PqXeZZHsAtS4PW9KPUqcOREudhP1adj7gZKWIbWN9z
mR9JYw==
-----END CERTIFICATE-----
