Certificate:
    Data:
        Version: 3 (0x2)
        Serial Number: 9356926451288716285 (0x81da7b08468533fd)
    Signature Algorithm: ecdsa-with-SHA1
        Issuer: C=US, ST=Montana, L=Bozeman, O=wolfSSL, OU=Programming, CN=www.wolfssl.com/emailAddress=info@wolfssl.com
        Validity
            Not Before: Feb  5 06:33:30 2015 GMT
            Not After : Nov  1 06:33:30 2017 GMT
        Subject: C=US, ST=Montana, L=Bozeman, O=wolfSSL, OU=Programming, CN=www.wolfssl.com/emailAddress=info@wolfssl.com
        Subject Public Key Info:
            Public Key Algorithm: id-ecPublicKey
                Public-Key: (256 bit)
                pub: 
                    04:bb:33:ac:4c:27:50:4a:c6:4a:a5:04:c3:3c:de:
                    9f:36:db:72:2d:ce:94:ea:2b:fa:cb:20:09:39:2c:
                    16:e8:61:02:e9:af:4d:d3:02:93:9a:31:5b:97:92:
                    21:7f:f0:cf:18:da:91:11:02:34:86:e8:20:58:33:
                    0b:80:34:89:d8
                ASN1 OID: prime256v1
        X509v3 extensions:
            X509v3 Subject Key Identifier: 
                5D:5D:26:EF:AC:7E:36:F9:9B:76:15:2B:4A:25:02:23:EF:B2:89:30
            X509v3 Authority Key Identifier: 
                keyid:5D:5D:26:EF:AC:7E:36:F9:9B:76:15:2B:4A:25:02:23:EF:B2:89:30
                DirName:/C=US/ST=Montana/L=Bozeman/O=wolfSSL/OU=Programming/CN=www.wolfssl.com/emailAddress=info@wolfssl.com
                serial:81:DA:7B:08:46:85:33:FD

            X509v3 Basic Constraints: 
                CA:TRUE
    Signature Algorithm: ecdsa-with-SHA1
         30:45:02:21:00:a0:70:22:57:ad:97:06:b5:9b:fa:5a:1c:b2:
         77:ed:54:09:7d:9a:5c:ca:02:56:d7:32:1d:41:e6:d5:5a:09:
         29:02:20:4e:95:75:27:3d:3c:93:ba:97:3f:f4:2d:35:3e:c8:
         57:75:e1:81:3d:5e:09:bf:86:a2:8b:ef:0b:d1:77:4f:b5
-----BEGIN CERTIFICATE-----
MIIDHDCCAsOgAwIBAgIJAIHaewhGhTP9MAkGByqGSM49BAEwgZQxCzAJBgNVBAYT
AlVTMRAwDgYDVQQIDAdNb250YW5hMRAwDgYDVQQHDAdCb3plbWFuMRAwDgYDVQQK
DAd3b2xmU1NMMRQwEgYDVQQLDAtQcm9ncmFtbWluZzEYMBYGA1UEAwwPd3d3Lndv
bGZzc2wuY29tMR8wHQYJKoZIhvcNAQkBFhBpbmZvQHdvbGZzc2wuY29tMB4XDTE1
MDIwNTA2MzMzMFoXDTE3MTEwMTA2MzMzMFowgZQxCzAJBgNVBAYTAlVTMRAwDgYD
VQQIDAdNb250YW5hMRAwDgYDVQQHDAdCb3plbWFuMRAwDgYDVQQKDAd3b2xmU1NM
MRQwEgYDVQQLDAtQcm9ncmFtbWluZzEYMBYGA1UEAwwPd3d3LndvbGZzc2wuY29t
MR8wHQYJKoZIhvcNAQkBFhBpbmZvQHdvbGZzc2wuY29tMFkwEwYHKoZIzj0CAQYI
KoZIzj0DAQcDQgAEuzOsTCdQSsZKpQTDPN6fNttyLc6U6iv6yyAJOSwW6GEC6a9N
0wKTmjFbl5Ihf/DPGNqREQI0huggWDMLgDSJ2KOB/DCB+TAdBgNVHQ4EFgQUXV0m
76x+NvmbdhUrSiUCI++yiTAwgckGA1UdIwSBwTCBvoAUXV0m76x+NvmbdhUrSiUC
I++yiTChgZqkgZcwgZQxCzAJBgNVBAYTAlVTMRAwDgYDVQQIDAdNb250YW5hMRAw
DgYDVQQHDAdCb3plbWFuMRAwDgYDVQQKDAd3b2xmU1NMMRQwEgYDVQQLDAtQcm9n
cmFtbWluZzEYMBYGA1UEAwwPd3d3LndvbGZzc2wuY29tMR8wHQYJKoZIhvcNAQkB
FhBpbmZvQHdvbGZzc2wuY29tggkAgdp7CEaFM/0wDAYDVR0TBAUwAwEB/zAJBgcq
hkjOPQQBA0gAMEUCIQCgcCJXrZcGtZv6Whyyd+1UCX2aXMoCVtcyHUHm1VoJKQIg
TpV1Jz08k7qXP/QtNT7IV3XhgT1eCb+GoovvC9F3T7U=
-----END CERTIFICATE-----
