Certificate:
    Data:
        Version: 3 (0x2)
        Serial Number: 34 (0x22)
        Signature Algorithm: sha256WithRSAEncryption
        Issuer: C=US, ST=Montana, L=Bozeman, O=Sawtooth, OU=Consulting, CN=www.wolfssl.com, emailAddress=facts@wolfssl.com
        Validity
            Not Before: Jul 10 20:54:16 2026 GMT
            Not After : Apr  5 20:54:16 2029 GMT
        Subject: C=US, ST=Montana, L=Bozeman, O=wolfSSL, OU=ECH demo, CN=tenant-b.example, emailAddress=info@wolfssl.com
        Subject Public Key Info:
            Public Key Algorithm: rsaEncryption
                Public-Key: (2048 bit)
                Modulus:
                    00:c0:95:08:e1:57:41:f2:71:6d:b7:d2:45:41:27:
                    01:65:c6:45:ae:f2:bc:24:30:b8:95:ce:2f:4e:d6:
                    f6:1c:88:bc:7c:9f:fb:a8:67:7f:fe:5c:9c:51:75:
                    f7:8a:ca:07:e7:35:2f:8f:e1:bd:7b:c0:2f:7c:ab:
                    64:a8:17:fc:ca:5d:7b:ba:e0:21:e5:72:2e:6f:2e:
                    86:d8:95:73:da:ac:1b:53:b9:5f:3f:d7:19:0d:25:
                    4f:e1:63:63:51:8b:0b:64:3f:ad:43:b8:a5:1c:5c:
                    34:b3:ae:00:a0:63:c5:f6:7f:0b:59:68:78:73:a6:
                    8c:18:a9:02:6d:af:c3:19:01:2e:b8:10:e3:c6:cc:
                    40:b4:69:a3:46:33:69:87:6e:c4:bb:17:a6:f3:e8:
                    dd:ad:73:bc:7b:2f:21:b5:fd:66:51:0c:bd:54:b3:
                    e1:6d:5f:1c:bc:23:73:d1:09:03:89:14:d2:10:b9:
                    64:c3:2a:d0:a1:96:4a:bc:e1:d4:1a:5b:c7:a0:c0:
                    c1:63:78:0f:44:37:30:32:96:80:32:23:95:a1:77:
                    ba:13:d2:97:73:e2:5d:25:c9:6a:0d:c3:39:60:a4:
                    b4:b0:69:42:42:09:e9:d8:08:bc:33:20:b3:58:22:
                    a7:aa:eb:c4:e1:e6:61:83:c5:d2:96:df:d9:d0:4f:
                    ad:d7
                Exponent: 65537 (0x10001)
        X509v3 extensions:
            X509v3 Subject Key Identifier: 
                B3:11:32:C9:92:98:84:E2:C9:F8:D0:3B:6E:03:42:CA:1F:0E:8E:3C
            X509v3 Authority Key Identifier: 
                keyid:27:8E:67:11:74:C3:26:1D:3F:ED:33:63:B3:A4:D8:1D:30:E5:E8:D5
                DirName:/C=US/ST=Montana/L=Bozeman/O=Sawtooth/OU=Consulting/CN=www.wolfssl.com/emailAddress=facts@wolfssl.com
                serial:67:19:D2:A8:7F:E3:2D:FA:75:7A:4F:E7:B2:02:D9:AD:C4:77:5E:F8
            X509v3 Basic Constraints: 
                CA:FALSE
            X509v3 Subject Alternative Name: 
                DNS:tenant-b.example
            X509v3 Extended Key Usage: 
                TLS Web Server Authentication
    Signature Algorithm: sha256WithRSAEncryption
    Signature Value:
        22:58:5f:eb:66:9b:03:30:ca:04:59:94:7b:4f:07:0c:b1:04:
        13:50:d2:0c:c7:87:c4:d4:0b:e9:57:e9:0b:6e:58:8f:07:af:
        5b:8d:89:5c:1f:ce:17:77:82:d9:ed:6a:81:9e:92:a1:a3:0b:
        0a:8d:f5:5b:14:52:1b:b1:86:8e:b1:37:04:e9:f7:23:34:b5:
        00:d2:5d:6d:8d:da:11:1c:a5:02:d6:33:d0:39:a5:8c:d8:e7:
        81:a2:cb:f6:36:6e:da:fd:12:80:19:85:65:f2:5f:cd:21:68:
        3a:e4:7e:e3:2b:41:42:c3:ff:1f:8b:b4:dd:87:26:3e:a9:cc:
        4b:80:23:72:40:98:5a:2a:e3:af:d5:7c:71:7f:a6:85:ad:23:
        b9:d6:d3:fc:bf:24:ee:71:7f:54:bc:a4:7b:69:d4:4c:ea:72:
        64:45:72:68:8f:08:ea:81:44:17:24:43:0a:70:5d:3d:19:15:
        8d:93:d2:c2:d2:95:2e:dd:ea:92:bc:27:ae:89:6e:ab:6d:4b:
        1b:f0:d5:b5:e7:f3:26:fe:64:8d:1b:08:ef:18:1e:a9:cf:54:
        c5:25:14:d3:49:a6:81:78:f6:38:a4:a5:43:5e:a1:92:84:8c:
        2b:a4:e0:66:5e:ea:7c:d8:d1:e0:43:cf:fe:e7:c7:6a:fa:cf:
        7f:4a:c3:50
-----BEGIN CERTIFICATE-----
MIIE3jCCA8agAwIBAgIBIjANBgkqhkiG9w0BAQsFADCBlTELMAkGA1UEBhMCVVMx
EDAOBgNVBAgMB01vbnRhbmExEDAOBgNVBAcMB0JvemVtYW4xETAPBgNVBAoMCFNh
d3Rvb3RoMRMwEQYDVQQLDApDb25zdWx0aW5nMRgwFgYDVQQDDA93d3cud29sZnNz
bC5jb20xIDAeBgkqhkiG9w0BCQEWEWZhY3RzQHdvbGZzc2wuY29tMB4XDTI2MDcx
MDIwNTQxNloXDTI5MDQwNTIwNTQxNlowgZIxCzAJBgNVBAYTAlVTMRAwDgYDVQQI
DAdNb250YW5hMRAwDgYDVQQHDAdCb3plbWFuMRAwDgYDVQQKDAd3b2xmU1NMMREw
DwYDVQQLDAhFQ0ggZGVtbzEZMBcGA1UEAwwQdGVuYW50LWIuZXhhbXBsZTEfMB0G
CSqGSIb3DQEJARYQaW5mb0B3b2xmc3NsLmNvbTCCASIwDQYJKoZIhvcNAQEBBQAD
ggEPADCCAQoCggEBAMCVCOFXQfJxbbfSRUEnAWXGRa7yvCQwuJXOL07W9hyIvHyf
+6hnf/5cnFF194rKB+c1L4/hvXvAL3yrZKgX/Mpde7rgIeVyLm8uhtiVc9qsG1O5
Xz/XGQ0lT+FjY1GLC2Q/rUO4pRxcNLOuAKBjxfZ/C1loeHOmjBipAm2vwxkBLrgQ
48bMQLRpo0YzaYduxLsXpvPo3a1zvHsvIbX9ZlEMvVSz4W1fHLwjc9EJA4kU0hC5
ZMMq0KGWSrzh1Bpbx6DAwWN4D0Q3MDKWgDIjlaF3uhPSl3PiXSXJag3DOWCktLBp
QkIJ6dgIvDMgs1gip6rrxOHmYYPF0pbf2dBPrdcCAwEAAaOCATgwggE0MB0GA1Ud
DgQWBBSzETLJkpiE4sn40DtuA0LKHw6OPDCB1QYDVR0jBIHNMIHKgBQnjmcRdMMm
HT/tM2OzpNgdMOXo1aGBm6SBmDCBlTELMAkGA1UEBhMCVVMxEDAOBgNVBAgMB01v
bnRhbmExEDAOBgNVBAcMB0JvemVtYW4xETAPBgNVBAoMCFNhd3Rvb3RoMRMwEQYD
VQQLDApDb25zdWx0aW5nMRgwFgYDVQQDDA93d3cud29sZnNzbC5jb20xIDAeBgkq
hkiG9w0BCQEWEWZhY3RzQHdvbGZzc2wuY29tghRnGdKof+Mt+nV6T+eyAtmtxHde
+DAJBgNVHRMEAjAAMBsGA1UdEQQUMBKCEHRlbmFudC1iLmV4YW1wbGUwEwYDVR0l
BAwwCgYIKwYBBQUHAwEwDQYJKoZIhvcNAQELBQADggEBACJYX+tmmwMwygRZlHtP
BwyxBBNQ0gzHh8TUC+lX6QtuWI8Hr1uNiVwfzhd3gtntaoGekqGjCwqN9VsUUhux
ho6xNwTp9yM0tQDSXW2N2hEcpQLWM9A5pYzY54Giy/Y2btr9EoAZhWXyX80haDrk
fuMrQULD/x+LtN2HJj6pzEuAI3JAmFoq46/VfHF/poWtI7nW0/y/JO5xf1S8pHtp
1EzqcmRFcmiPCOqBRBckQwpwXT0ZFY2T0sLSlS7d6pK8J66JbqttSxvw1bXn8yb+
ZI0bCO8YHqnPVMUlFNNJpoF49jikpUNeoZKEjCuk4GZe6nzY0eBDz/7nx2r6z39K
w1A=
-----END CERTIFICATE-----
