Certificate:
    Data:
        Version: 3 (0x2)
        Serial Number: 33 (0x21)
        Signature Algorithm: sha256WithRSAEncryption
        Issuer: C=US, ST=Montana, L=Bozeman, O=Sawtooth, OU=Consulting, CN=www.wolfssl.com, emailAddress=facts@wolfssl.com
        Validity
            Not Before: Jul 10 20:54:16 2026 GMT
            Not After : Apr  5 20:54:16 2029 GMT
        Subject: C=US, ST=Montana, L=Bozeman, O=wolfSSL, OU=ECH demo, CN=tenant-a.example, emailAddress=info@wolfssl.com
        Subject Public Key Info:
            Public Key Algorithm: rsaEncryption
                Public-Key: (2048 bit)
                Modulus:
                    00:c0:95:08:e1:57:41:f2:71:6d:b7:d2:45:41:27:
                    01:65:c6:45:ae:f2:bc:24:30:b8:95:ce:2f:4e:d6:
                    f6:1c:88:bc:7c:9f:fb:a8:67:7f:fe:5c:9c:51:75:
                    f7:8a:ca:07:e7:35:2f:8f:e1:bd:7b:c0:2f:7c:ab:
                    64:a8:17:fc:ca:5d:7b:ba:e0:21:e5:72:2e:6f:2e:
                    86:d8:95:73:da:ac:1b:53:b9:5f:3f:d7:19:0d:25:
                    4f:e1:63:63:51:8b:0b:64:3f:ad:43:b8:a5:1c:5c:
                    34:b3:ae:00:a0:63:c5:f6:7f:0b:59:68:78:73:a6:
                    8c:18:a9:02:6d:af:c3:19:01:2e:b8:10:e3:c6:cc:
                    40:b4:69:a3:46:33:69:87:6e:c4:bb:17:a6:f3:e8:
                    dd:ad:73:bc:7b:2f:21:b5:fd:66:51:0c:bd:54:b3:
                    e1:6d:5f:1c:bc:23:73:d1:09:03:89:14:d2:10:b9:
                    64:c3:2a:d0:a1:96:4a:bc:e1:d4:1a:5b:c7:a0:c0:
                    c1:63:78:0f:44:37:30:32:96:80:32:23:95:a1:77:
                    ba:13:d2:97:73:e2:5d:25:c9:6a:0d:c3:39:60:a4:
                    b4:b0:69:42:42:09:e9:d8:08:bc:33:20:b3:58:22:
                    a7:aa:eb:c4:e1:e6:61:83:c5:d2:96:df:d9:d0:4f:
                    ad:d7
                Exponent: 65537 (0x10001)
        X509v3 extensions:
            X509v3 Subject Key Identifier: 
                B3:11:32:C9:92:98:84:E2:C9:F8:D0:3B:6E:03:42:CA:1F:0E:8E:3C
            X509v3 Authority Key Identifier: 
                keyid:27:8E:67:11:74:C3:26:1D:3F:ED:33:63:B3:A4:D8:1D:30:E5:E8:D5
                DirName:/C=US/ST=Montana/L=Bozeman/O=Sawtooth/OU=Consulting/CN=www.wolfssl.com/emailAddress=facts@wolfssl.com
                serial:67:19:D2:A8:7F:E3:2D:FA:75:7A:4F:E7:B2:02:D9:AD:C4:77:5E:F8
            X509v3 Basic Constraints: 
                CA:FALSE
            X509v3 Subject Alternative Name: 
                DNS:tenant-a.example
            X509v3 Extended Key Usage: 
                TLS Web Server Authentication
    Signature Algorithm: sha256WithRSAEncryption
    Signature Value:
        8f:ba:a0:15:67:98:0d:08:88:5d:20:f3:e9:81:2c:dd:52:a5:
        63:15:7f:3f:e4:1b:5f:6a:c9:47:d5:60:a3:fb:0a:fa:00:3e:
        ea:ee:40:3e:9a:6f:86:ee:fb:7e:2d:f2:6f:cb:e8:42:5f:b6:
        45:f9:be:b2:d9:3e:5a:d9:dc:ef:d6:ad:35:b4:a6:f9:82:61:
        9b:38:13:7d:69:01:0c:5c:b8:e1:bc:b5:29:20:53:c4:98:0e:
        b3:cd:3e:64:b3:4e:e4:2c:c4:6f:f6:70:b6:cf:17:70:ef:5e:
        44:8d:80:e1:dd:58:ae:1e:85:22:76:c5:6f:87:77:64:64:45:
        58:75:fc:74:ba:96:ab:4c:e9:33:40:77:97:2b:a3:c7:92:d5:
        5e:92:db:fb:05:b0:4a:e5:a5:56:25:4d:2a:8d:ea:a7:03:da:
        eb:cb:98:f1:19:03:cb:a2:95:05:7d:a6:a5:82:71:57:c8:64:
        3c:8b:ac:f9:79:c1:05:64:29:8f:2f:96:fa:13:bd:10:e9:52:
        9d:5a:47:d6:14:fa:d9:4c:e5:a1:01:e5:e1:70:77:8a:66:d4:
        4b:7b:37:76:c9:05:cf:22:63:c3:31:33:ac:67:db:ee:91:56:
        d7:5d:35:d4:07:81:fd:fe:1b:d4:25:aa:99:72:49:d3:79:d7:
        98:dc:ac:19
-----BEGIN CERTIFICATE-----
MIIE3jCCA8agAwIBAgIBITANBgkqhkiG9w0BAQsFADCBlTELMAkGA1UEBhMCVVMx
EDAOBgNVBAgMB01vbnRhbmExEDAOBgNVBAcMB0JvemVtYW4xETAPBgNVBAoMCFNh
d3Rvb3RoMRMwEQYDVQQLDApDb25zdWx0aW5nMRgwFgYDVQQDDA93d3cud29sZnNz
bC5jb20xIDAeBgkqhkiG9w0BCQEWEWZhY3RzQHdvbGZzc2wuY29tMB4XDTI2MDcx
MDIwNTQxNloXDTI5MDQwNTIwNTQxNlowgZIxCzAJBgNVBAYTAlVTMRAwDgYDVQQI
DAdNb250YW5hMRAwDgYDVQQHDAdCb3plbWFuMRAwDgYDVQQKDAd3b2xmU1NMMREw
DwYDVQQLDAhFQ0ggZGVtbzEZMBcGA1UEAwwQdGVuYW50LWEuZXhhbXBsZTEfMB0G
CSqGSIb3DQEJARYQaW5mb0B3b2xmc3NsLmNvbTCCASIwDQYJKoZIhvcNAQEBBQAD
ggEPADCCAQoCggEBAMCVCOFXQfJxbbfSRUEnAWXGRa7yvCQwuJXOL07W9hyIvHyf
+6hnf/5cnFF194rKB+c1L4/hvXvAL3yrZKgX/Mpde7rgIeVyLm8uhtiVc9qsG1O5
Xz/XGQ0lT+FjY1GLC2Q/rUO4pRxcNLOuAKBjxfZ/C1loeHOmjBipAm2vwxkBLrgQ
48bMQLRpo0YzaYduxLsXpvPo3a1zvHsvIbX9ZlEMvVSz4W1fHLwjc9EJA4kU0hC5
ZMMq0KGWSrzh1Bpbx6DAwWN4D0Q3MDKWgDIjlaF3uhPSl3PiXSXJag3DOWCktLBp
QkIJ6dgIvDMgs1gip6rrxOHmYYPF0pbf2dBPrdcCAwEAAaOCATgwggE0MB0GA1Ud
DgQWBBSzETLJkpiE4sn40DtuA0LKHw6OPDCB1QYDVR0jBIHNMIHKgBQnjmcRdMMm
HT/tM2OzpNgdMOXo1aGBm6SBmDCBlTELMAkGA1UEBhMCVVMxEDAOBgNVBAgMB01v
bnRhbmExEDAOBgNVBAcMB0JvemVtYW4xETAPBgNVBAoMCFNhd3Rvb3RoMRMwEQYD
VQQLDApDb25zdWx0aW5nMRgwFgYDVQQDDA93d3cud29sZnNzbC5jb20xIDAeBgkq
hkiG9w0BCQEWEWZhY3RzQHdvbGZzc2wuY29tghRnGdKof+Mt+nV6T+eyAtmtxHde
+DAJBgNVHRMEAjAAMBsGA1UdEQQUMBKCEHRlbmFudC1hLmV4YW1wbGUwEwYDVR0l
BAwwCgYIKwYBBQUHAwEwDQYJKoZIhvcNAQELBQADggEBAI+6oBVnmA0IiF0g8+mB
LN1SpWMVfz/kG19qyUfVYKP7CvoAPuruQD6ab4bu+34t8m/L6EJftkX5vrLZPlrZ
3O/WrTW0pvmCYZs4E31pAQxcuOG8tSkgU8SYDrPNPmSzTuQsxG/2cLbPF3DvXkSN
gOHdWK4ehSJ2xW+Hd2RkRVh1/HS6lqtM6TNAd5cro8eS1V6S2/sFsErlpVYlTSqN
6qcD2uvLmPEZA8uilQV9pqWCcVfIZDyLrPl5wQVkKY8vlvoTvRDpUp1aR9YU+tlM
5aEB5eFwd4pm1Et7N3bJBc8iY8MxM6xn2+6RVtddNdQHgf3+G9QlqplySdN515jc
rBk=
-----END CERTIFICATE-----
