Certificate:
    Data:
        Version: 3 (0x2)
        Serial Number:
            19:47:b6:5a:9a:23:a8:ff:c0:13:80:9b:3d:af:92:ee:0d:d7:58:de
        Signature Algorithm: ecdsa-with-SHA256
        Issuer: C=US, ST=Montana, L=Bozeman, O=wolfSSL, OU=TSA-ECC, CN=www.wolfssl.com, emailAddress=info@wolfssl.com
        Validity
            Not Before: Jun  5 10:09:40 2026 GMT
            Not After : Mar  1 10:09:40 2029 GMT
        Subject: C=US, ST=Montana, L=Bozeman, O=wolfSSL, OU=TSA-ECC, CN=www.wolfssl.com, emailAddress=info@wolfssl.com
        Subject Public Key Info:
            Public Key Algorithm: id-ecPublicKey
                Public-Key: (256 bit)
                pub:
                    04:ce:3e:24:12:01:46:68:1d:11:7d:cd:d9:8b:63:
                    4e:f9:cc:36:06:b6:75:33:72:57:1c:12:7f:fa:5f:
                    77:83:68:fc:18:64:8b:75:d4:53:88:93:e7:64:38:
                    23:ef:19:c9:67:95:48:0f:7e:ed:f5:81:61:8c:66:
                    c9:e3:ae:c8:12
                ASN1 OID: prime256v1
                NIST CURVE: P-256
        X509v3 extensions:
            X509v3 Subject Key Identifier: 
                AB:E6:D5:D9:8A:31:CB:10:23:82:16:CE:20:1F:80:E4:D5:87:5A:20
            X509v3 Authority Key Identifier: 
                keyid:AB:E6:D5:D9:8A:31:CB:10:23:82:16:CE:20:1F:80:E4:D5:87:5A:20
                DirName:/C=US/ST=Montana/L=Bozeman/O=wolfSSL/OU=TSA-ECC/CN=www.wolfssl.com/emailAddress=info@wolfssl.com
                serial:19:47:B6:5A:9A:23:A8:FF:C0:13:80:9B:3D:AF:92:EE:0D:D7:58:DE
            X509v3 Basic Constraints: 
                CA:FALSE
            X509v3 Subject Alternative Name: 
                DNS:tsa.wolfssl.com
            X509v3 Key Usage: critical
                Digital Signature
            X509v3 Extended Key Usage: critical
                Time Stamping
    Signature Algorithm: ecdsa-with-SHA256
    Signature Value:
        30:45:02:20:2b:51:26:56:e1:e1:1f:b9:ad:03:07:46:fa:7b:
        34:d0:2a:f5:11:c8:12:0c:06:32:23:29:6f:1b:a1:18:87:9a:
        02:21:00:d9:e6:a9:01:b6:cb:22:f8:28:5f:91:a5:bd:9c:e7:
        f6:24:5b:d5:5e:7d:1d:a1:65:12:ca:aa:eb:48:fa:d5:15
-----BEGIN CERTIFICATE-----
MIIDazCCAxGgAwIBAgIUGUe2WpojqP/AE4CbPa+S7g3XWN4wCgYIKoZIzj0EAwIw
gZAxCzAJBgNVBAYTAlVTMRAwDgYDVQQIDAdNb250YW5hMRAwDgYDVQQHDAdCb3pl
bWFuMRAwDgYDVQQKDAd3b2xmU1NMMRAwDgYDVQQLDAdUU0EtRUNDMRgwFgYDVQQD
DA93d3cud29sZnNzbC5jb20xHzAdBgkqhkiG9w0BCQEWEGluZm9Ad29sZnNzbC5j
b20wHhcNMjYwNjA1MTAwOTQwWhcNMjkwMzAxMTAwOTQwWjCBkDELMAkGA1UEBhMC
VVMxEDAOBgNVBAgMB01vbnRhbmExEDAOBgNVBAcMB0JvemVtYW4xEDAOBgNVBAoM
B3dvbGZTU0wxEDAOBgNVBAsMB1RTQS1FQ0MxGDAWBgNVBAMMD3d3dy53b2xmc3Ns
LmNvbTEfMB0GCSqGSIb3DQEJARYQaW5mb0B3b2xmc3NsLmNvbTBZMBMGByqGSM49
AgEGCCqGSM49AwEHA0IABM4+JBIBRmgdEX3N2YtjTvnMNga2dTNyVxwSf/pfd4No
/Bhki3XUU4iT52Q4I+8ZyWeVSA9+7fWBYYxmyeOuyBKjggFFMIIBQTAdBgNVHQ4E
FgQUq+bV2YoxyxAjghbOIB+A5NWHWiAwgdAGA1UdIwSByDCBxYAUq+bV2YoxyxAj
ghbOIB+A5NWHWiChgZakgZMwgZAxCzAJBgNVBAYTAlVTMRAwDgYDVQQIDAdNb250
YW5hMRAwDgYDVQQHDAdCb3plbWFuMRAwDgYDVQQKDAd3b2xmU1NMMRAwDgYDVQQL
DAdUU0EtRUNDMRgwFgYDVQQDDA93d3cud29sZnNzbC5jb20xHzAdBgkqhkiG9w0B
CQEWEGluZm9Ad29sZnNzbC5jb22CFBlHtlqaI6j/wBOAmz2vku4N11jeMAkGA1Ud
EwQCMAAwGgYDVR0RBBMwEYIPdHNhLndvbGZzc2wuY29tMA4GA1UdDwEB/wQEAwIH
gDAWBgNVHSUBAf8EDDAKBggrBgEFBQcDCDAKBggqhkjOPQQDAgNIADBFAiArUSZW
4eEfua0DB0b6ezTQKvURyBIMBjIjKW8boRiHmgIhANnmqQG2yyL4KF+Rpb2c5/Yk
W9VefR2hZRLKqutI+tUV
-----END CERTIFICATE-----
