Certificate:
    Data:
        Version: 3 (0x2)
        Serial Number:
            27:a1:f0:c9:99:87:1d:e9:ca:22:54:48:43:86:ef:5d:31:15:f5:5f
        Signature Algorithm: sha256WithRSAEncryption
        Issuer: C=US, ST=Montana, L=Bozeman, O=wolfSSL, OU=TSA-2048, CN=www.wolfssl.com, emailAddress=info@wolfssl.com
        Validity
            Not Before: Jun  4 20:44:10 2026 GMT
            Not After : Feb 28 20:44:10 2029 GMT
        Subject: C=US, ST=Montana, L=Bozeman, O=wolfSSL, OU=TSA-2048, CN=www.wolfssl.com, emailAddress=info@wolfssl.com
        Subject Public Key Info:
            Public Key Algorithm: rsaEncryption
                Public-Key: (2048 bit)
                Modulus:
                    00:93:74:96:f0:0c:fd:d7:2a:5a:a0:a1:6e:b4:63:
                    b7:f4:e6:8b:77:8f:49:f7:a9:0c:b3:3d:5a:60:a8:
                    b8:67:75:b8:d0:ce:ba:ce:65:e5:64:a2:d0:c8:d0:
                    2c:5b:a8:a5:d3:3f:2c:46:07:e6:b1:b7:a5:65:f8:
                    9f:89:e1:93:bc:49:cd:55:fd:9b:a1:1e:1e:f7:99:
                    07:4a:1c:c8:b6:88:a2:5e:77:a5:3f:79:2f:d3:43:
                    41:f6:cf:ff:78:30:89:12:b1:0c:3f:f5:2f:62:e6:
                    71:33:02:70:d9:42:1b:e4:07:9c:9d:c7:5e:5b:4e:
                    93:8f:6b:0e:fe:5b:7e:02:6f:8d:e8:7d:e9:aa:1d:
                    12:f2:6b:a4:55:61:59:e0:3a:38:b0:14:41:9d:bb:
                    c6:e0:6a:9d:35:a8:08:f2:3c:29:b9:a7:b2:38:47:
                    f6:70:1a:b8:d2:d5:c9:48:f0:ee:60:1d:14:77:8a:
                    2c:38:90:29:7f:42:e4:dd:92:0a:8d:03:88:44:0a:
                    f0:b6:14:bd:e5:11:50:94:26:fb:3e:ab:17:69:3d:
                    a6:45:c7:ad:86:41:66:e6:53:e5:dc:d8:4a:04:c7:
                    af:fb:a7:df:99:77:57:d9:25:7c:67:73:3d:ee:60:
                    f3:63:2d:68:0f:97:da:68:d5:3d:e5:06:92:82:dd:
                    90:25
                Exponent: 65537 (0x10001)
        X509v3 extensions:
            X509v3 Subject Key Identifier: 
                C0:19:81:BB:D6:3D:BB:41:E8:22:1A:08:50:AD:57:FB:E5:B5:EA:9D
            X509v3 Authority Key Identifier: 
                keyid:C0:19:81:BB:D6:3D:BB:41:E8:22:1A:08:50:AD:57:FB:E5:B5:EA:9D
                DirName:/C=US/ST=Montana/L=Bozeman/O=wolfSSL/OU=TSA-2048/CN=www.wolfssl.com/emailAddress=info@wolfssl.com
                serial:27:A1:F0:C9:99:87:1D:E9:CA:22:54:48:43:86:EF:5D:31:15:F5:5F
            X509v3 Basic Constraints: 
                CA:FALSE
            X509v3 Subject Alternative Name: 
                DNS:tsa.wolfssl.com
            X509v3 Key Usage: critical
                Digital Signature
            X509v3 Extended Key Usage: critical
                Time Stamping
    Signature Algorithm: sha256WithRSAEncryption
    Signature Value:
        1a:c2:d0:93:e8:65:f7:77:2c:62:b2:9c:e0:64:ec:18:96:5e:
        89:ba:58:25:12:a9:f7:27:da:70:4a:b7:6d:0e:86:6d:61:5c:
        73:9e:55:46:f1:6e:f4:06:b2:08:e5:8f:93:bf:ab:b4:60:dd:
        95:d5:89:c4:16:fa:c4:c6:e5:1f:31:4a:75:cb:11:f5:16:5c:
        c9:19:8b:bc:80:2a:61:c0:12:8e:71:59:ba:1e:5a:c6:6b:62:
        e7:f0:a9:f2:cd:81:2d:41:37:13:59:3a:6f:63:09:b6:5e:78:
        80:d3:18:72:89:90:51:fa:6f:1d:99:43:fd:5f:17:28:19:0b:
        48:14:87:46:09:29:e7:d3:79:04:7e:46:af:30:eb:e9:89:0c:
        7f:26:b3:c4:66:c7:37:9a:8b:42:bb:98:21:73:1a:fe:22:2d:
        80:f6:78:8c:d4:80:a8:5c:b5:cb:e6:a8:b7:fb:98:cd:5d:d1:
        e4:37:be:36:cf:97:c1:d0:a9:f2:64:90:dc:b8:57:44:c2:e8:
        95:50:18:1d:0d:8a:ea:9f:12:0b:e4:1e:78:9e:f5:88:5b:22:
        00:a8:06:aa:af:1a:2b:0c:3a:2c:f1:0a:cd:0a:af:0e:86:e5:
        5c:34:e7:c7:64:48:39:9b:c4:60:40:41:2f:bd:65:20:66:54:
        f2:37:5c:7b
-----BEGIN CERTIFICATE-----
MIIE+jCCA+KgAwIBAgIUJ6HwyZmHHenKIlRIQ4bvXTEV9V8wDQYJKoZIhvcNAQEL
BQAwgZExCzAJBgNVBAYTAlVTMRAwDgYDVQQIDAdNb250YW5hMRAwDgYDVQQHDAdC
b3plbWFuMRAwDgYDVQQKDAd3b2xmU1NMMREwDwYDVQQLDAhUU0EtMjA0ODEYMBYG
A1UEAwwPd3d3LndvbGZzc2wuY29tMR8wHQYJKoZIhvcNAQkBFhBpbmZvQHdvbGZz
c2wuY29tMB4XDTI2MDYwNDIwNDQxMFoXDTI5MDIyODIwNDQxMFowgZExCzAJBgNV
BAYTAlVTMRAwDgYDVQQIDAdNb250YW5hMRAwDgYDVQQHDAdCb3plbWFuMRAwDgYD
VQQKDAd3b2xmU1NMMREwDwYDVQQLDAhUU0EtMjA0ODEYMBYGA1UEAwwPd3d3Lndv
bGZzc2wuY29tMR8wHQYJKoZIhvcNAQkBFhBpbmZvQHdvbGZzc2wuY29tMIIBIjAN
BgkqhkiG9w0BAQEFAAOCAQ8AMIIBCgKCAQEAk3SW8Az91ypaoKFutGO39OaLd49J
96kMsz1aYKi4Z3W40M66zmXlZKLQyNAsW6il0z8sRgfmsbelZfifieGTvEnNVf2b
oR4e95kHShzItoiiXnelP3kv00NB9s//eDCJErEMP/UvYuZxMwJw2UIb5Aecncde
W06Tj2sO/lt+Am+N6H3pqh0S8mukVWFZ4Do4sBRBnbvG4GqdNagI8jwpuaeyOEf2
cBq40tXJSPDuYB0Ud4osOJApf0Lk3ZIKjQOIRArwthS95RFQlCb7PqsXaT2mRcet
hkFm5lPl3NhKBMev+6ffmXdX2SV8Z3M97mDzYy1oD5faaNU95QaSgt2QJQIDAQAB
o4IBRjCCAUIwHQYDVR0OBBYEFMAZgbvWPbtB6CIaCFCtV/vlteqdMIHRBgNVHSME
gckwgcaAFMAZgbvWPbtB6CIaCFCtV/vlteqdoYGXpIGUMIGRMQswCQYDVQQGEwJV
UzEQMA4GA1UECAwHTW9udGFuYTEQMA4GA1UEBwwHQm96ZW1hbjEQMA4GA1UECgwH
d29sZlNTTDERMA8GA1UECwwIVFNBLTIwNDgxGDAWBgNVBAMMD3d3dy53b2xmc3Ns
LmNvbTEfMB0GCSqGSIb3DQEJARYQaW5mb0B3b2xmc3NsLmNvbYIUJ6HwyZmHHenK
IlRIQ4bvXTEV9V8wCQYDVR0TBAIwADAaBgNVHREEEzARgg90c2Eud29sZnNzbC5j
b20wDgYDVR0PAQH/BAQDAgeAMBYGA1UdJQEB/wQMMAoGCCsGAQUFBwMIMA0GCSqG
SIb3DQEBCwUAA4IBAQAawtCT6GX3dyxispzgZOwYll6JulglEqn3J9pwSrdtDoZt
YVxznlVG8W70BrII5Y+Tv6u0YN2V1YnEFvrExuUfMUp1yxH1FlzJGYu8gCphwBKO
cVm6HlrGa2Ln8KnyzYEtQTcTWTpvYwm2XniA0xhyiZBR+m8dmUP9XxcoGQtIFIdG
CSnn03kEfkavMOvpiQx/JrPEZsc3motCu5ghcxr+Ii2A9niM1ICoXLXL5qi3+5jN
XdHkN742z5fB0KnyZJDcuFdEwuiVUBgdDYrqnxIL5B54nvWIWyIAqAaqrxorDDos
8QrNCq8OhuVcNOfHZEg5m8RgQEEvvWUgZlTyN1x7
-----END CERTIFICATE-----
