Certificate:
    Data:
        Version: 3 (0x2)
        Serial Number:
            2e:66:3c:01:89:1b:3a:75:8a:86:40:99:fd:af:c6:7b:b1:24:7f:8e
        Signature Algorithm: sha256WithRSAEncryption
        Issuer: C=US, ST=Montana, L=Bozeman, O=wolfSSL, OU=TSA-extra-eku-2048, CN=www.wolfssl.com, emailAddress=info@wolfssl.com
        Validity
            Not Before: Jun 11 10:38:14 2026 GMT
            Not After : Mar  7 10:38:14 2029 GMT
        Subject: C=US, ST=Montana, L=Bozeman, O=wolfSSL, OU=TSA-extra-eku-2048, CN=www.wolfssl.com, emailAddress=info@wolfssl.com
        Subject Public Key Info:
            Public Key Algorithm: rsaEncryption
                Public-Key: (2048 bit)
                Modulus:
                    00:93:74:96:f0:0c:fd:d7:2a:5a:a0:a1:6e:b4:63:
                    b7:f4:e6:8b:77:8f:49:f7:a9:0c:b3:3d:5a:60:a8:
                    b8:67:75:b8:d0:ce:ba:ce:65:e5:64:a2:d0:c8:d0:
                    2c:5b:a8:a5:d3:3f:2c:46:07:e6:b1:b7:a5:65:f8:
                    9f:89:e1:93:bc:49:cd:55:fd:9b:a1:1e:1e:f7:99:
                    07:4a:1c:c8:b6:88:a2:5e:77:a5:3f:79:2f:d3:43:
                    41:f6:cf:ff:78:30:89:12:b1:0c:3f:f5:2f:62:e6:
                    71:33:02:70:d9:42:1b:e4:07:9c:9d:c7:5e:5b:4e:
                    93:8f:6b:0e:fe:5b:7e:02:6f:8d:e8:7d:e9:aa:1d:
                    12:f2:6b:a4:55:61:59:e0:3a:38:b0:14:41:9d:bb:
                    c6:e0:6a:9d:35:a8:08:f2:3c:29:b9:a7:b2:38:47:
                    f6:70:1a:b8:d2:d5:c9:48:f0:ee:60:1d:14:77:8a:
                    2c:38:90:29:7f:42:e4:dd:92:0a:8d:03:88:44:0a:
                    f0:b6:14:bd:e5:11:50:94:26:fb:3e:ab:17:69:3d:
                    a6:45:c7:ad:86:41:66:e6:53:e5:dc:d8:4a:04:c7:
                    af:fb:a7:df:99:77:57:d9:25:7c:67:73:3d:ee:60:
                    f3:63:2d:68:0f:97:da:68:d5:3d:e5:06:92:82:dd:
                    90:25
                Exponent: 65537 (0x10001)
        X509v3 extensions:
            X509v3 Subject Key Identifier: 
                C0:19:81:BB:D6:3D:BB:41:E8:22:1A:08:50:AD:57:FB:E5:B5:EA:9D
            X509v3 Authority Key Identifier: 
                keyid:C0:19:81:BB:D6:3D:BB:41:E8:22:1A:08:50:AD:57:FB:E5:B5:EA:9D
                DirName:/C=US/ST=Montana/L=Bozeman/O=wolfSSL/OU=TSA-extra-eku-2048/CN=www.wolfssl.com/emailAddress=info@wolfssl.com
                serial:2E:66:3C:01:89:1B:3A:75:8A:86:40:99:FD:AF:C6:7B:B1:24:7F:8E
            X509v3 Basic Constraints: 
                CA:FALSE
            X509v3 Key Usage: critical
                Digital Signature
            X509v3 Extended Key Usage: critical
                Time Stamping, 1.3.6.1.4.1.99999.1
    Signature Algorithm: sha256WithRSAEncryption
    Signature Value:
        68:67:cb:3b:2a:55:c2:5f:be:62:c5:21:5e:a8:cd:d7:74:1b:
        2e:2f:33:76:0f:0d:bb:11:75:1b:bf:1f:05:da:21:6e:a6:82:
        26:f2:35:5c:ac:6d:04:86:b6:99:e9:c5:a0:23:48:af:14:ae:
        bc:ae:8f:84:41:a8:14:a3:fc:69:39:9f:50:4e:6e:b9:81:f4:
        d8:cc:df:a2:f9:ba:0b:79:67:7a:8f:2e:75:1f:7f:f2:57:74:
        4a:4c:bd:db:1c:16:fa:e9:38:c2:7a:8d:64:ea:c2:c3:34:93:
        54:73:07:8e:cc:95:44:05:9a:dd:a1:ae:b3:94:11:12:b6:1f:
        47:dd:a7:1c:ff:6d:06:b3:aa:d5:da:dd:54:a7:e8:c1:87:6f:
        37:ee:ef:a3:05:eb:08:10:32:7f:ad:02:2f:aa:ca:e3:80:06:
        bb:2c:c3:df:c8:99:fc:c1:b5:21:f8:85:42:90:20:2d:06:33:
        fd:c1:d1:57:8a:e8:82:d1:dd:c2:3e:78:fa:62:da:15:5f:4c:
        04:36:06:e5:76:22:9c:e6:b0:b8:b9:2c:70:aa:16:b4:b4:20:
        43:d9:0d:4d:16:81:55:b3:26:b1:32:99:2b:27:a6:c7:44:24:
        b8:15:73:2b:e1:fa:b0:26:dc:e6:70:ec:12:00:5d:0f:1f:2d:
        2f:50:26:3f
-----BEGIN CERTIFICATE-----
MIIFBzCCA++gAwIBAgIULmY8AYkbOnWKhkCZ/a/Ge7Ekf44wDQYJKoZIhvcNAQEL
BQAwgZsxCzAJBgNVBAYTAlVTMRAwDgYDVQQIDAdNb250YW5hMRAwDgYDVQQHDAdC
b3plbWFuMRAwDgYDVQQKDAd3b2xmU1NMMRswGQYDVQQLDBJUU0EtZXh0cmEtZWt1
LTIwNDgxGDAWBgNVBAMMD3d3dy53b2xmc3NsLmNvbTEfMB0GCSqGSIb3DQEJARYQ
aW5mb0B3b2xmc3NsLmNvbTAeFw0yNjA2MTExMDM4MTRaFw0yOTAzMDcxMDM4MTRa
MIGbMQswCQYDVQQGEwJVUzEQMA4GA1UECAwHTW9udGFuYTEQMA4GA1UEBwwHQm96
ZW1hbjEQMA4GA1UECgwHd29sZlNTTDEbMBkGA1UECwwSVFNBLWV4dHJhLWVrdS0y
MDQ4MRgwFgYDVQQDDA93d3cud29sZnNzbC5jb20xHzAdBgkqhkiG9w0BCQEWEGlu
Zm9Ad29sZnNzbC5jb20wggEiMA0GCSqGSIb3DQEBAQUAA4IBDwAwggEKAoIBAQCT
dJbwDP3XKlqgoW60Y7f05ot3j0n3qQyzPVpgqLhndbjQzrrOZeVkotDI0CxbqKXT
PyxGB+axt6Vl+J+J4ZO8Sc1V/ZuhHh73mQdKHMi2iKJed6U/eS/TQ0H2z/94MIkS
sQw/9S9i5nEzAnDZQhvkB5ydx15bTpOPaw7+W34Cb43ofemqHRLya6RVYVngOjiw
FEGdu8bgap01qAjyPCm5p7I4R/ZwGrjS1clI8O5gHRR3iiw4kCl/QuTdkgqNA4hE
CvC2FL3lEVCUJvs+qxdpPaZFx62GQWbmU+Xc2EoEx6/7p9+Zd1fZJXxncz3uYPNj
LWgPl9po1T3lBpKC3ZAlAgMBAAGjggE/MIIBOzAdBgNVHQ4EFgQUwBmBu9Y9u0Ho
IhoIUK1X++W16p0wgdsGA1UdIwSB0zCB0IAUwBmBu9Y9u0HoIhoIUK1X++W16p2h
gaGkgZ4wgZsxCzAJBgNVBAYTAlVTMRAwDgYDVQQIDAdNb250YW5hMRAwDgYDVQQH
DAdCb3plbWFuMRAwDgYDVQQKDAd3b2xmU1NMMRswGQYDVQQLDBJUU0EtZXh0cmEt
ZWt1LTIwNDgxGDAWBgNVBAMMD3d3dy53b2xmc3NsLmNvbTEfMB0GCSqGSIb3DQEJ
ARYQaW5mb0B3b2xmc3NsLmNvbYIULmY8AYkbOnWKhkCZ/a/Ge7Ekf44wCQYDVR0T
BAIwADAOBgNVHQ8BAf8EBAMCB4AwIQYDVR0lAQH/BBcwFQYIKwYBBQUHAwgGCSsG
AQQBho0fATANBgkqhkiG9w0BAQsFAAOCAQEAaGfLOypVwl++YsUhXqjN13QbLi8z
dg8NuxF1G78fBdohbqaCJvI1XKxtBIa2menFoCNIrxSuvK6PhEGoFKP8aTmfUE5u
uYH02Mzfovm6C3lneo8udR9/8ld0Sky92xwW+uk4wnqNZOrCwzSTVHMHjsyVRAWa
3aGus5QRErYfR92nHP9tBrOq1drdVKfowYdvN+7vowXrCBAyf60CL6rK44AGuyzD
38iZ/MG1IfiFQpAgLQYz/cHRV4rogtHdwj54+mLaFV9MBDYG5XYinOawuLkscKoW
tLQgQ9kNTRaBVbMmsTKZKyemx0QkuBVzK+H6sCbc5nDsEgBdDx8tL1AmPw==
-----END CERTIFICATE-----
