Certificate:
    Data:
        Version: 3 (0x2)
        Serial Number:
            7f:27:82:69:67:6c:3e:17:90:86:80:fa:3d:73:9b:64:e0:b9:b7:52
        Signature Algorithm: sha256WithRSAEncryption
        Issuer: C=US, ST=Washington, L=Seattle, O=wolfSSL, OU=Development, CN=wolfSSL Intermediate CA, emailAddress=facts@wolfssl.com
        Validity
            Not Before: Jul  2 01:45:57 2026 GMT
            Not After : Mar 28 01:45:57 2029 GMT
        Subject: C=US, ST=Montana, L=Bozeman, O=wolfSSL, OU=TSA-chain-2048, CN=www.wolfssl.com, emailAddress=info@wolfssl.com
        Subject Public Key Info:
            Public Key Algorithm: rsaEncryption
                Public-Key: (2048 bit)
                Modulus:
                    00:b2:bb:66:ac:49:bb:8c:5d:e8:ee:ff:55:12:b9:
                    6e:b0:e8:9a:77:35:7a:b8:65:85:62:a6:17:1b:27:
                    25:8c:59:bb:1e:e6:bb:ae:09:55:7d:ee:53:fd:ff:
                    56:99:9d:0c:1e:31:48:bd:42:69:2c:b2:0a:37:68:
                    5b:8f:33:ff:c5:a0:e0:e2:1e:6c:f6:4f:90:b4:73:
                    3d:13:fe:e4:ed:b0:1f:b8:5e:f0:ce:4d:51:0d:e6:
                    be:2b:7d:a4:44:6b:38:75:83:13:0d:41:d2:69:3f:
                    29:7c:f1:57:29:52:f3:d1:2c:40:0e:c7:be:64:73:
                    d4:9e:06:a4:67:50:57:03:ef:8e:6a:c9:06:8a:e3:
                    c3:c3:eb:cb:6f:0f:3a:26:b9:ee:20:28:30:47:5c:
                    ec:57:98:18:01:f1:d7:91:ca:15:67:11:5e:e7:03:
                    72:87:19:52:bf:a1:41:47:34:94:98:88:58:fc:ca:
                    41:d5:71:7e:75:b5:e4:95:4d:5e:be:7e:5c:6e:4e:
                    48:7a:a2:cd:14:0a:bb:fa:f8:70:8c:32:9d:29:7a:
                    77:ab:55:7e:a8:5f:b8:2d:8e:62:5d:51:2e:8e:17:
                    a5:6e:38:c1:05:87:74:c1:55:6e:4f:8a:4a:51:f6:
                    6c:d8:ac:cf:c0:8e:fa:4b:5c:74:16:39:18:1a:29:
                    75:67
                Exponent: 65537 (0x10001)
        X509v3 extensions:
            X509v3 Subject Key Identifier: 
                60:3A:6A:61:84:57:4F:4B:52:94:50:57:7E:1F:F4:CC:78:22:1B:44
            X509v3 Authority Key Identifier: 
                keyid:EF:69:E0:F7:D5:1D:E6:99:EC:DC:6D:D0:F7:E2:B9:5C:64:71:83:35
                DirName:/C=US/ST=Montana/L=Bozeman/O=Sawtooth/OU=Consulting/CN=www.wolfssl.com/emailAddress=facts@wolfssl.com
                serial:10:00
            X509v3 Basic Constraints: 
                CA:FALSE
            X509v3 Subject Alternative Name: 
                DNS:tsa.wolfssl.com
            X509v3 Key Usage: critical
                Digital Signature
            X509v3 Extended Key Usage: critical
                Time Stamping
    Signature Algorithm: sha256WithRSAEncryption
    Signature Value:
        5b:cd:a7:33:be:37:3a:9a:22:64:49:83:3e:8f:6f:39:e8:8c:
        32:0c:af:c0:ff:e4:82:cb:b4:9f:7d:b4:65:07:b2:dd:0b:44:
        7e:d7:75:d1:b9:9e:cb:13:c9:6f:cc:d4:18:04:d0:6e:f6:fa:
        4b:13:25:a2:a5:41:f1:a3:ea:fa:ca:cc:23:1e:99:b4:45:cb:
        75:19:c1:66:67:1a:b5:f8:26:c0:92:94:a5:2e:b5:f8:7c:7c:
        26:49:08:79:8d:4f:ed:a1:92:cf:1b:44:87:f1:60:9a:e2:7d:
        5c:d0:8c:d1:0f:77:67:11:92:60:7f:ed:48:99:7c:b4:67:b4:
        b0:de:a5:30:3e:07:3c:d8:c7:29:59:47:7b:7b:2d:41:1f:d0:
        f1:e9:be:a4:3a:f9:2b:22:a9:77:28:6e:79:96:41:d8:6a:d6:
        b5:23:9e:80:24:c3:ae:f6:c7:f6:43:7b:e2:41:cf:ed:93:80:
        2a:27:f3:27:95:04:8f:b3:d5:80:03:68:66:03:5b:d1:3d:c9:
        1b:16:df:30:a4:d2:1e:7a:7f:dd:37:01:c1:8d:ad:92:0f:bb:
        64:e7:91:c2:d3:0c:6c:b8:1c:c4:79:af:95:7a:44:cb:2c:fa:
        df:4b:4b:a7:92:8b:f9:44:8a:93:16:c3:77:4e:9f:a3:8a:00:
        99:d5:39:8c
-----BEGIN CERTIFICATE-----
MIIFATCCA+mgAwIBAgIUfyeCaWdsPheQhoD6PXObZOC5t1IwDQYJKoZIhvcNAQEL
BQAwgaAxCzAJBgNVBAYTAlVTMRMwEQYDVQQIDApXYXNoaW5ndG9uMRAwDgYDVQQH
DAdTZWF0dGxlMRAwDgYDVQQKDAd3b2xmU1NMMRQwEgYDVQQLDAtEZXZlbG9wbWVu
dDEgMB4GA1UEAwwXd29sZlNTTCBJbnRlcm1lZGlhdGUgQ0ExIDAeBgkqhkiG9w0B
CQEWEWZhY3RzQHdvbGZzc2wuY29tMB4XDTI2MDcwMjAxNDU1N1oXDTI5MDMyODAx
NDU1N1owgZcxCzAJBgNVBAYTAlVTMRAwDgYDVQQIDAdNb250YW5hMRAwDgYDVQQH
DAdCb3plbWFuMRAwDgYDVQQKDAd3b2xmU1NMMRcwFQYDVQQLDA5UU0EtY2hhaW4t
MjA0ODEYMBYGA1UEAwwPd3d3LndvbGZzc2wuY29tMR8wHQYJKoZIhvcNAQkBFhBp
bmZvQHdvbGZzc2wuY29tMIIBIjANBgkqhkiG9w0BAQEFAAOCAQ8AMIIBCgKCAQEA
srtmrEm7jF3o7v9VErlusOiadzV6uGWFYqYXGycljFm7Hua7rglVfe5T/f9WmZ0M
HjFIvUJpLLIKN2hbjzP/xaDg4h5s9k+QtHM9E/7k7bAfuF7wzk1RDea+K32kRGs4
dYMTDUHSaT8pfPFXKVLz0SxADse+ZHPUngakZ1BXA++OaskGiuPDw+vLbw86Jrnu
ICgwR1zsV5gYAfHXkcoVZxFe5wNyhxlSv6FBRzSUmIhY/MpB1XF+dbXklU1evn5c
bk5IeqLNFAq7+vhwjDKdKXp3q1V+qF+4LY5iXVEujhelbjjBBYd0wVVuT4pKUfZs
2KzPwI76S1x0FjkYGil1ZwIDAQABo4IBODCCATQwHQYDVR0OBBYEFGA6amGEV09L
UpRQV34f9Mx4IhtEMIHDBgNVHSMEgbswgbiAFO9p4PfVHeaZ7Nxt0PfiuVxkcYM1
oYGbpIGYMIGVMQswCQYDVQQGEwJVUzEQMA4GA1UECAwHTW9udGFuYTEQMA4GA1UE
BwwHQm96ZW1hbjERMA8GA1UECgwIU2F3dG9vdGgxEzARBgNVBAsMCkNvbnN1bHRp
bmcxGDAWBgNVBAMMD3d3dy53b2xmc3NsLmNvbTEgMB4GCSqGSIb3DQEJARYRZmFj
dHNAd29sZnNzbC5jb22CAhAAMAkGA1UdEwQCMAAwGgYDVR0RBBMwEYIPdHNhLndv
bGZzc2wuY29tMA4GA1UdDwEB/wQEAwIHgDAWBgNVHSUBAf8EDDAKBggrBgEFBQcD
CDANBgkqhkiG9w0BAQsFAAOCAQEAW82nM743OpoiZEmDPo9vOeiMMgyvwP/kgsu0
n320ZQey3QtEftd10bmeyxPJb8zUGATQbvb6SxMloqVB8aPq+srMIx6ZtEXLdRnB
ZmcatfgmwJKUpS61+Hx8JkkIeY1P7aGSzxtEh/FgmuJ9XNCM0Q93ZxGSYH/tSJl8
tGe0sN6lMD4HPNjHKVlHe3stQR/Q8em+pDr5KyKpdyhueZZB2GrWtSOegCTDrvbH
9kN74kHP7ZOAKifzJ5UEj7PVgANoZgNb0T3JGxbfMKTSHnp/3TcBwY2tkg+7ZOeR
wtMMbLgcxHmvlXpEyyz630tLp5KL+USKkxbDd06fo4oAmdU5jA==
-----END CERTIFICATE-----
