Certificate:
    Data:
        Version: 3 (0x2)
        Serial Number:
            7d:ef:e7:fe:70:74:73:af:df:71:6b:d3:ba:fb:d0:4b:a3:50:26:d3
        Signature Algorithm: sha256WithRSAEncryption
        Issuer: C=US, ST=Montana, L=Bozeman, O=wolfSSL, OU=TSA-bad-ku-2048, CN=www.wolfssl.com, emailAddress=info@wolfssl.com
        Validity
            Not Before: Jun  4 20:35:37 2026 GMT
            Not After : Feb 28 20:35:37 2029 GMT
        Subject: C=US, ST=Montana, L=Bozeman, O=wolfSSL, OU=TSA-bad-ku-2048, CN=www.wolfssl.com, emailAddress=info@wolfssl.com
        Subject Public Key Info:
            Public Key Algorithm: rsaEncryption
                Public-Key: (2048 bit)
                Modulus:
                    00:93:74:96:f0:0c:fd:d7:2a:5a:a0:a1:6e:b4:63:
                    b7:f4:e6:8b:77:8f:49:f7:a9:0c:b3:3d:5a:60:a8:
                    b8:67:75:b8:d0:ce:ba:ce:65:e5:64:a2:d0:c8:d0:
                    2c:5b:a8:a5:d3:3f:2c:46:07:e6:b1:b7:a5:65:f8:
                    9f:89:e1:93:bc:49:cd:55:fd:9b:a1:1e:1e:f7:99:
                    07:4a:1c:c8:b6:88:a2:5e:77:a5:3f:79:2f:d3:43:
                    41:f6:cf:ff:78:30:89:12:b1:0c:3f:f5:2f:62:e6:
                    71:33:02:70:d9:42:1b:e4:07:9c:9d:c7:5e:5b:4e:
                    93:8f:6b:0e:fe:5b:7e:02:6f:8d:e8:7d:e9:aa:1d:
                    12:f2:6b:a4:55:61:59:e0:3a:38:b0:14:41:9d:bb:
                    c6:e0:6a:9d:35:a8:08:f2:3c:29:b9:a7:b2:38:47:
                    f6:70:1a:b8:d2:d5:c9:48:f0:ee:60:1d:14:77:8a:
                    2c:38:90:29:7f:42:e4:dd:92:0a:8d:03:88:44:0a:
                    f0:b6:14:bd:e5:11:50:94:26:fb:3e:ab:17:69:3d:
                    a6:45:c7:ad:86:41:66:e6:53:e5:dc:d8:4a:04:c7:
                    af:fb:a7:df:99:77:57:d9:25:7c:67:73:3d:ee:60:
                    f3:63:2d:68:0f:97:da:68:d5:3d:e5:06:92:82:dd:
                    90:25
                Exponent: 65537 (0x10001)
        X509v3 extensions:
            X509v3 Subject Key Identifier: 
                C0:19:81:BB:D6:3D:BB:41:E8:22:1A:08:50:AD:57:FB:E5:B5:EA:9D
            X509v3 Authority Key Identifier: 
                keyid:C0:19:81:BB:D6:3D:BB:41:E8:22:1A:08:50:AD:57:FB:E5:B5:EA:9D
                DirName:/C=US/ST=Montana/L=Bozeman/O=wolfSSL/OU=TSA-bad-ku-2048/CN=www.wolfssl.com/emailAddress=info@wolfssl.com
                serial:7D:EF:E7:FE:70:74:73:AF:DF:71:6B:D3:BA:FB:D0:4B:A3:50:26:D3
            X509v3 Basic Constraints: 
                CA:FALSE
            X509v3 Key Usage: critical
                Key Encipherment
            X509v3 Extended Key Usage: critical
                Time Stamping
    Signature Algorithm: sha256WithRSAEncryption
    Signature Value:
        1c:b5:98:0a:98:28:90:9f:7c:ff:d9:d4:3b:92:3d:b3:7c:d6:
        9b:b4:88:59:0d:cd:58:7a:6a:ad:f0:6f:f3:ed:5e:57:d7:14:
        3e:64:50:1c:11:33:ab:62:09:f1:8f:58:15:93:25:20:ed:f3:
        cb:ed:a3:d2:21:7c:c2:02:14:fa:61:cf:20:13:8a:6b:f1:95:
        81:94:e8:d7:fd:24:13:fb:87:e3:2c:fb:4e:d7:ce:46:ab:fd:
        21:bc:93:b8:0d:88:2a:76:b6:02:f9:ef:58:fc:36:b5:11:5a:
        07:62:0d:a3:1a:e6:77:a7:28:b2:0e:c6:b1:a4:66:52:99:11:
        90:11:4a:d7:98:e5:9f:b1:e7:99:fe:a6:66:66:5e:1e:52:bb:
        b8:e7:bd:e9:95:d4:03:47:de:c7:cd:f7:58:67:af:12:57:28:
        33:a7:34:ef:74:2f:6c:67:43:29:6d:57:80:b4:2d:67:21:2a:
        52:41:97:1d:2d:af:2c:c7:1f:c8:20:6d:9a:79:82:f7:a6:3b:
        97:5b:1a:bc:f4:2a:d9:df:a6:45:db:a2:c1:83:5a:39:ef:f9:
        6f:f7:14:42:30:0f:52:71:6e:6b:05:19:ca:51:4e:a0:f1:4a:
        ba:6f:95:46:3d:ea:1a:ab:e3:37:bd:30:ba:b9:b5:30:fd:97:
        e4:7a:49:d4
-----BEGIN CERTIFICATE-----
MIIE8zCCA9ugAwIBAgIUfe/n/nB0c6/fcWvTuvvQS6NQJtMwDQYJKoZIhvcNAQEL
BQAwgZgxCzAJBgNVBAYTAlVTMRAwDgYDVQQIDAdNb250YW5hMRAwDgYDVQQHDAdC
b3plbWFuMRAwDgYDVQQKDAd3b2xmU1NMMRgwFgYDVQQLDA9UU0EtYmFkLWt1LTIw
NDgxGDAWBgNVBAMMD3d3dy53b2xmc3NsLmNvbTEfMB0GCSqGSIb3DQEJARYQaW5m
b0B3b2xmc3NsLmNvbTAeFw0yNjA2MDQyMDM1MzdaFw0yOTAyMjgyMDM1MzdaMIGY
MQswCQYDVQQGEwJVUzEQMA4GA1UECAwHTW9udGFuYTEQMA4GA1UEBwwHQm96ZW1h
bjEQMA4GA1UECgwHd29sZlNTTDEYMBYGA1UECwwPVFNBLWJhZC1rdS0yMDQ4MRgw
FgYDVQQDDA93d3cud29sZnNzbC5jb20xHzAdBgkqhkiG9w0BCQEWEGluZm9Ad29s
ZnNzbC5jb20wggEiMA0GCSqGSIb3DQEBAQUAA4IBDwAwggEKAoIBAQCTdJbwDP3X
KlqgoW60Y7f05ot3j0n3qQyzPVpgqLhndbjQzrrOZeVkotDI0CxbqKXTPyxGB+ax
t6Vl+J+J4ZO8Sc1V/ZuhHh73mQdKHMi2iKJed6U/eS/TQ0H2z/94MIkSsQw/9S9i
5nEzAnDZQhvkB5ydx15bTpOPaw7+W34Cb43ofemqHRLya6RVYVngOjiwFEGdu8bg
ap01qAjyPCm5p7I4R/ZwGrjS1clI8O5gHRR3iiw4kCl/QuTdkgqNA4hECvC2FL3l
EVCUJvs+qxdpPaZFx62GQWbmU+Xc2EoEx6/7p9+Zd1fZJXxncz3uYPNjLWgPl9po
1T3lBpKC3ZAlAgMBAAGjggExMIIBLTAdBgNVHQ4EFgQUwBmBu9Y9u0HoIhoIUK1X
++W16p0wgdgGA1UdIwSB0DCBzYAUwBmBu9Y9u0HoIhoIUK1X++W16p2hgZ6kgZsw
gZgxCzAJBgNVBAYTAlVTMRAwDgYDVQQIDAdNb250YW5hMRAwDgYDVQQHDAdCb3pl
bWFuMRAwDgYDVQQKDAd3b2xmU1NMMRgwFgYDVQQLDA9UU0EtYmFkLWt1LTIwNDgx
GDAWBgNVBAMMD3d3dy53b2xmc3NsLmNvbTEfMB0GCSqGSIb3DQEJARYQaW5mb0B3
b2xmc3NsLmNvbYIUfe/n/nB0c6/fcWvTuvvQS6NQJtMwCQYDVR0TBAIwADAOBgNV
HQ8BAf8EBAMCBSAwFgYDVR0lAQH/BAwwCgYIKwYBBQUHAwgwDQYJKoZIhvcNAQEL
BQADggEBABy1mAqYKJCffP/Z1DuSPbN81pu0iFkNzVh6aq3wb/PtXlfXFD5kUBwR
M6tiCfGPWBWTJSDt88vto9IhfMICFPphzyATimvxlYGU6Nf9JBP7h+Ms+07Xzkar
/SG8k7gNiCp2tgL571j8NrURWgdiDaMa5nenKLIOxrGkZlKZEZARSteY5Z+x55n+
pmZmXh5Su7jnvemV1ANH3sfN91hnrxJXKDOnNO90L2xnQyltV4C0LWchKlJBlx0t
ryzHH8ggbZp5gvemO5dbGrz0KtnfpkXbosGDWjnv+W/3FEIwD1JxbmsFGcpRTqDx
SrpvlUY96hqr4ze9MLq5tTD9l+R6SdQ=
-----END CERTIFICATE-----
