Certificate:
    Data:
        Version: 3 (0x2)
        Serial Number:
            50:0e:48:2e:70:3f:ab:8d:35:2c:78:a9:ec:1e:30:08:74:f2:c1:6d
        Signature Algorithm: sha256WithRSAEncryption
        Issuer: C=US, ST=Washington, L=Seattle, O=wolfSSL, OU=Development, CN=wolfSSL Intermediate CA, emailAddress=facts@wolfssl.com
        Validity
            Not Before: Jul  3 00:51:28 2026 GMT
            Not After : Mar 29 00:51:28 2029 GMT
        Subject: C=US, ST=Montana, L=Bozeman, O=wolfSSL, OU=TSA-chain-2048, CN=www.wolfssl.com, emailAddress=info@wolfssl.com
        Subject Public Key Info:
            Public Key Algorithm: rsaEncryption
                Public-Key: (2048 bit)
                Modulus:
                    00:b2:bb:66:ac:49:bb:8c:5d:e8:ee:ff:55:12:b9:
                    6e:b0:e8:9a:77:35:7a:b8:65:85:62:a6:17:1b:27:
                    25:8c:59:bb:1e:e6:bb:ae:09:55:7d:ee:53:fd:ff:
                    56:99:9d:0c:1e:31:48:bd:42:69:2c:b2:0a:37:68:
                    5b:8f:33:ff:c5:a0:e0:e2:1e:6c:f6:4f:90:b4:73:
                    3d:13:fe:e4:ed:b0:1f:b8:5e:f0:ce:4d:51:0d:e6:
                    be:2b:7d:a4:44:6b:38:75:83:13:0d:41:d2:69:3f:
                    29:7c:f1:57:29:52:f3:d1:2c:40:0e:c7:be:64:73:
                    d4:9e:06:a4:67:50:57:03:ef:8e:6a:c9:06:8a:e3:
                    c3:c3:eb:cb:6f:0f:3a:26:b9:ee:20:28:30:47:5c:
                    ec:57:98:18:01:f1:d7:91:ca:15:67:11:5e:e7:03:
                    72:87:19:52:bf:a1:41:47:34:94:98:88:58:fc:ca:
                    41:d5:71:7e:75:b5:e4:95:4d:5e:be:7e:5c:6e:4e:
                    48:7a:a2:cd:14:0a:bb:fa:f8:70:8c:32:9d:29:7a:
                    77:ab:55:7e:a8:5f:b8:2d:8e:62:5d:51:2e:8e:17:
                    a5:6e:38:c1:05:87:74:c1:55:6e:4f:8a:4a:51:f6:
                    6c:d8:ac:cf:c0:8e:fa:4b:5c:74:16:39:18:1a:29:
                    75:67
                Exponent: 65537 (0x10001)
        X509v3 extensions:
            X509v3 Subject Key Identifier: 
                60:3A:6A:61:84:57:4F:4B:52:94:50:57:7E:1F:F4:CC:78:22:1B:44
            X509v3 Authority Key Identifier: 
                keyid:EF:69:E0:F7:D5:1D:E6:99:EC:DC:6D:D0:F7:E2:B9:5C:64:71:83:35
                DirName:/C=US/ST=Montana/L=Bozeman/O=Sawtooth/OU=Consulting/CN=www.wolfssl.com/emailAddress=facts@wolfssl.com
                serial:10:00
            X509v3 Basic Constraints: 
                CA:FALSE
            X509v3 Subject Alternative Name: 
                DNS:tsa.wolfssl.com
            X509v3 Key Usage: critical
                Digital Signature
            X509v3 Extended Key Usage: critical
                Time Stamping
    Signature Algorithm: sha256WithRSAEncryption
    Signature Value:
        66:58:cb:ee:9a:a1:d7:14:be:37:d4:4b:53:7c:ba:8e:b6:a6:
        c5:7c:2e:4c:3f:37:c8:39:44:8e:e5:81:5a:e1:26:04:0f:5e:
        d2:06:19:a6:a0:db:62:36:69:56:b8:e0:c9:f2:f6:63:da:15:
        f3:3b:7c:29:11:a8:23:94:83:c9:6d:88:76:3a:86:95:ce:dd:
        ea:78:26:11:c9:9f:f6:24:93:35:b7:05:a3:d8:a5:e5:44:b9:
        7e:c0:5f:b7:84:86:e4:49:ce:37:e0:32:2d:0b:a6:87:db:ff:
        7d:14:a1:53:ab:db:2f:75:38:c7:69:a7:ec:3a:f0:7c:ec:07:
        b7:12:b3:a7:7e:bb:c6:65:9f:22:94:fd:5f:45:3c:31:ec:11:
        d2:58:4b:5b:3c:66:39:8b:79:75:a2:1f:78:0b:dd:6b:9e:cb:
        c5:45:6a:25:60:68:e2:d3:1f:06:91:6f:50:c8:5a:05:c7:2c:
        99:0d:34:3a:f5:2f:fa:19:77:60:d3:95:ca:9f:7d:05:c7:ad:
        80:21:e9:33:d6:b0:d3:89:cc:87:4e:64:33:82:7b:e9:5b:c9:
        08:3c:08:ad:01:d9:92:0a:49:67:51:48:6f:83:56:79:e6:81:
        89:1e:5a:dc:7c:7c:c5:92:03:ff:8f:e2:4e:c9:9e:12:a2:6e:
        2b:c3:a5:41
-----BEGIN CERTIFICATE-----
MIIFATCCA+mgAwIBAgIUUA5ILnA/q401LHip7B4wCHTywW0wDQYJKoZIhvcNAQEL
BQAwgaAxCzAJBgNVBAYTAlVTMRMwEQYDVQQIDApXYXNoaW5ndG9uMRAwDgYDVQQH
DAdTZWF0dGxlMRAwDgYDVQQKDAd3b2xmU1NMMRQwEgYDVQQLDAtEZXZlbG9wbWVu
dDEgMB4GA1UEAwwXd29sZlNTTCBJbnRlcm1lZGlhdGUgQ0ExIDAeBgkqhkiG9w0B
CQEWEWZhY3RzQHdvbGZzc2wuY29tMB4XDTI2MDcwMzAwNTEyOFoXDTI5MDMyOTAw
NTEyOFowgZcxCzAJBgNVBAYTAlVTMRAwDgYDVQQIDAdNb250YW5hMRAwDgYDVQQH
DAdCb3plbWFuMRAwDgYDVQQKDAd3b2xmU1NMMRcwFQYDVQQLDA5UU0EtY2hhaW4t
MjA0ODEYMBYGA1UEAwwPd3d3LndvbGZzc2wuY29tMR8wHQYJKoZIhvcNAQkBFhBp
bmZvQHdvbGZzc2wuY29tMIIBIjANBgkqhkiG9w0BAQEFAAOCAQ8AMIIBCgKCAQEA
srtmrEm7jF3o7v9VErlusOiadzV6uGWFYqYXGycljFm7Hua7rglVfe5T/f9WmZ0M
HjFIvUJpLLIKN2hbjzP/xaDg4h5s9k+QtHM9E/7k7bAfuF7wzk1RDea+K32kRGs4
dYMTDUHSaT8pfPFXKVLz0SxADse+ZHPUngakZ1BXA++OaskGiuPDw+vLbw86Jrnu
ICgwR1zsV5gYAfHXkcoVZxFe5wNyhxlSv6FBRzSUmIhY/MpB1XF+dbXklU1evn5c
bk5IeqLNFAq7+vhwjDKdKXp3q1V+qF+4LY5iXVEujhelbjjBBYd0wVVuT4pKUfZs
2KzPwI76S1x0FjkYGil1ZwIDAQABo4IBODCCATQwHQYDVR0OBBYEFGA6amGEV09L
UpRQV34f9Mx4IhtEMIHDBgNVHSMEgbswgbiAFO9p4PfVHeaZ7Nxt0PfiuVxkcYM1
oYGbpIGYMIGVMQswCQYDVQQGEwJVUzEQMA4GA1UECAwHTW9udGFuYTEQMA4GA1UE
BwwHQm96ZW1hbjERMA8GA1UECgwIU2F3dG9vdGgxEzARBgNVBAsMCkNvbnN1bHRp
bmcxGDAWBgNVBAMMD3d3dy53b2xmc3NsLmNvbTEgMB4GCSqGSIb3DQEJARYRZmFj
dHNAd29sZnNzbC5jb22CAhAAMAkGA1UdEwQCMAAwGgYDVR0RBBMwEYIPdHNhLndv
bGZzc2wuY29tMA4GA1UdDwEB/wQEAwIHgDAWBgNVHSUBAf8EDDAKBggrBgEFBQcD
CDANBgkqhkiG9w0BAQsFAAOCAQEAZljL7pqh1xS+N9RLU3y6jramxXwuTD83yDlE
juWBWuEmBA9e0gYZpqDbYjZpVrjgyfL2Y9oV8zt8KRGoI5SDyW2IdjqGlc7d6ngm
Ecmf9iSTNbcFo9il5US5fsBft4SG5EnON+AyLQumh9v/fRShU6vbL3U4x2mn7Drw
fOwHtxKzp367xmWfIpT9X0U8MewR0lhLWzxmOYt5daIfeAvda57LxUVqJWBo4tMf
BpFvUMhaBccsmQ00OvUv+hl3YNOVyp99BcetgCHpM9aw04nMh05kM4J76VvJCDwI
rQHZkgpJZ1FIb4NWeeaBiR5a3Hx8xZID/4/iTsmeEqJuK8OlQQ==
-----END CERTIFICATE-----
