Certificate:
    Data:
        Version: 3 (0x2)
        Serial Number: 1 (0x1)
        Signature Algorithm: ecdsa-with-SHA256
        Issuer: C = US, ST = Montana, L = Bozeman, O = wolfSSL_P521, OU = Root-P521, CN = www.wolfssl.com, emailAddress = info@wolfssl.com
        Validity
            Not Before: Dec 13 22:19:29 2023 GMT
            Not After : Sep  8 22:19:29 2026 GMT
        Subject: C = US, ST = Montana, L = Bozeman, O = wolfSSL_p521, OU = CA-p521, CN = www.wolfssl.com, emailAddress = info@wolfssl.com, UID = wolfSSL
        Subject Public Key Info:
            Public Key Algorithm: id-ecPublicKey
                Public-Key: (521 bit)
                pub:
                    04:00:2d:18:24:2d:e4:db:6c:c3:69:9b:db:18:67:
                    33:f1:60:68:94:14:cd:91:4a:57:65:ef:36:fa:24:
                    82:88:ec:c7:f0:cb:48:45:6e:96:5f:7f:eb:76:be:
                    44:40:c3:19:c0:33:68:c4:06:04:8e:c2:25:b1:96:
                    83:22:0e:7b:c7:b2:fc:01:86:91:ed:43:5d:38:e0:
                    0c:25:8d:b3:db:b1:dc:de:b7:21:80:cf:87:de:64:
                    f4:21:3e:2d:af:79:bd:f6:d0:00:4b:81:79:fa:f7:
                    10:aa:19:cd:40:d7:1e:75:34:53:29:03:ed:48:54:
                    21:e5:8f:95:b5:9b:41:8d:5f:dd:72:d2:5a
                ASN1 OID: secp521r1
                NIST CURVE: P-521
        X509v3 extensions:
            X509v3 Subject Key Identifier: 
                40:89:1D:30:5E:0C:6E:D5:3D:C6:D5:25:90:DA:B6:42:67:ED:E9:82
            X509v3 Authority Key Identifier: 
                keyid:64:A7:68:95:53:33:18:A2:20:92:BC:64:55:A6:AB:CA:76:68:9B:C8

            X509v3 Basic Constraints: critical
                CA:TRUE
            X509v3 Key Usage: critical
                Digital Signature, Certificate Sign, CRL Sign
    Signature Algorithm: ecdsa-with-SHA256
         30:81:88:02:42:01:7a:a6:21:f5:b6:c2:fa:e1:44:c6:03:f5:
         54:2d:35:ef:d9:55:f6:61:45:90:48:8c:c2:3e:81:76:30:06:
         05:c2:db:32:19:b5:df:37:44:a6:3f:33:fa:3a:c7:91:ae:0f:
         fb:10:8b:b8:4d:41:b3:ed:c2:d2:5c:37:28:eb:d7:b7:6c:02:
         42:01:47:23:40:e8:e2:ca:61:74:29:e0:a6:71:5b:0a:c9:45:
         17:04:7d:5d:11:02:d7:f0:af:60:e0:4c:0a:97:96:09:2e:e0:
         25:f8:50:d8:9c:f9:bd:17:3d:d3:50:cc:49:06:81:7e:af:fa:
         85:b8:1f:80:c4:64:08:56:53:39:8d:2f:40
-----BEGIN CERTIFICATE-----
MIIDITCCAoKgAwIBAgIBATAKBggqhkjOPQQDAjCBlzELMAkGA1UEBhMCVVMxEDAO
BgNVBAgMB01vbnRhbmExEDAOBgNVBAcMB0JvemVtYW4xFTATBgNVBAoMDHdvbGZT
U0xfUDUyMTESMBAGA1UECwwJUm9vdC1QNTIxMRgwFgYDVQQDDA93d3cud29sZnNz
bC5jb20xHzAdBgkqhkiG9w0BCQEWEGluZm9Ad29sZnNzbC5jb20wHhcNMjMxMjEz
MjIxOTI5WhcNMjYwOTA4MjIxOTI5WjCBrjELMAkGA1UEBhMCVVMxEDAOBgNVBAgM
B01vbnRhbmExEDAOBgNVBAcMB0JvemVtYW4xFTATBgNVBAoMDHdvbGZTU0xfcDUy
MTEQMA4GA1UECwwHQ0EtcDUyMTEYMBYGA1UEAwwPd3d3LndvbGZzc2wuY29tMR8w
HQYJKoZIhvcNAQkBFhBpbmZvQHdvbGZzc2wuY29tMRcwFQYKCZImiZPyLGQBAQwH
d29sZlNTTDCBmzAQBgcqhkjOPQIBBgUrgQQAIwOBhgAEAC0YJC3k22zDaZvbGGcz
8WBolBTNkUpXZe82+iSCiOzH8MtIRW6WX3/rdr5EQMMZwDNoxAYEjsIlsZaDIg57
x7L8AYaR7UNdOOAMJY2z27Hc3rchgM+H3mT0IT4tr3m99tAAS4F5+vcQqhnNQNce
dTRTKQPtSFQh5Y+VtZtBjV/dctJao2MwYTAdBgNVHQ4EFgQUQIkdMF4MbtU9xtUl
kNq2Qmft6YIwHwYDVR0jBBgwFoAUZKdolVMzGKIgkrxkVaarynZom8gwDwYDVR0T
AQH/BAUwAwEB/zAOBgNVHQ8BAf8EBAMCAYYwCgYIKoZIzj0EAwIDgYwAMIGIAkIB
eqYh9bbC+uFExgP1VC0179lV9mFFkEiMwj6BdjAGBcLbMhm13zdEpj8z+jrHka4P
+xCLuE1Bs+3C0lw3KOvXt2wCQgFHI0Do4sphdCngpnFbCslFFwR9XREC1/CvYOBM
CpeWCS7gJfhQ2Jz5vRc901DMSQaBfq/6hbgfgMRkCFZTOY0vQA==
-----END CERTIFICATE-----
