Certificate:
    Data:
        Version: 3 (0x2)
        Serial Number: 1 (0x1)
    Signature Algorithm: ecdsa-with-SHA256
        Issuer: C=US, ST=Montana, L=Bozeman, O=wolfSSL_P521, OU=Root-P521, CN=www.wolfssl.com/emailAddress=info@wolfssl.com
        Validity
            Not Before: Feb 10 19:49:53 2021 GMT
            Not After : Nov  7 19:49:53 2023 GMT
        Subject: C=US, ST=Montana, L=Bozeman, O=wolfSSL_p521, OU=CA-p521, CN=www.wolfssl.com/emailAddress=info@wolfssl.com
        Subject Public Key Info:
            Public Key Algorithm: id-ecPublicKey
                Public-Key: (521 bit)
                pub: 
                    04:00:2d:18:24:2d:e4:db:6c:c3:69:9b:db:18:67:
                    33:f1:60:68:94:14:cd:91:4a:57:65:ef:36:fa:24:
                    82:88:ec:c7:f0:cb:48:45:6e:96:5f:7f:eb:76:be:
                    44:40:c3:19:c0:33:68:c4:06:04:8e:c2:25:b1:96:
                    83:22:0e:7b:c7:b2:fc:01:86:91:ed:43:5d:38:e0:
                    0c:25:8d:b3:db:b1:dc:de:b7:21:80:cf:87:de:64:
                    f4:21:3e:2d:af:79:bd:f6:d0:00:4b:81:79:fa:f7:
                    10:aa:19:cd:40:d7:1e:75:34:53:29:03:ed:48:54:
                    21:e5:8f:95:b5:9b:41:8d:5f:dd:72:d2:5a
                ASN1 OID: secp521r1
                NIST CURVE: P-521
        X509v3 extensions:
            X509v3 Subject Key Identifier: 
                40:89:1D:30:5E:0C:6E:D5:3D:C6:D5:25:90:DA:B6:42:67:ED:E9:82
            X509v3 Authority Key Identifier: 
                keyid:64:A7:68:95:53:33:18:A2:20:92:BC:64:55:A6:AB:CA:76:68:9B:C8

            X509v3 Basic Constraints: critical
                CA:TRUE
            X509v3 Key Usage: critical
                Digital Signature, Certificate Sign, CRL Sign
    Signature Algorithm: ecdsa-with-SHA256
         30:81:88:02:42:01:c4:4b:30:70:d8:b3:34:56:15:6a:b2:dc:
         09:af:f9:f8:a2:b8:6b:e7:46:8c:5e:95:77:d0:db:92:6a:d4:
         05:33:4b:94:66:eb:6c:02:50:c0:11:21:65:d8:47:c2:0c:6d:
         10:c4:3b:93:97:66:ca:71:b0:a4:51:3d:e1:e9:71:c7:87:02:
         42:00:a1:73:18:75:c7:aa:77:88:49:cd:5f:e6:7b:f5:c3:b0:
         77:27:ed:23:08:7c:aa:ba:a0:40:21:69:98:6b:95:fe:97:fb:
         26:70:5b:6b:52:1f:42:9b:7d:8c:81:91:bc:2a:b6:eb:b7:3a:
         99:20:c7:17:44:61:ee:50:f2:e9:8d:ca:21
-----BEGIN CERTIFICATE-----
MIIDCDCCAmmgAwIBAgIBATAKBggqhkjOPQQDAjCBlzELMAkGA1UEBhMCVVMxEDAO
BgNVBAgMB01vbnRhbmExEDAOBgNVBAcMB0JvemVtYW4xFTATBgNVBAoMDHdvbGZT
U0xfUDUyMTESMBAGA1UECwwJUm9vdC1QNTIxMRgwFgYDVQQDDA93d3cud29sZnNz
bC5jb20xHzAdBgkqhkiG9w0BCQEWEGluZm9Ad29sZnNzbC5jb20wHhcNMjEwMjEw
MTk0OTUzWhcNMjMxMTA3MTk0OTUzWjCBlTELMAkGA1UEBhMCVVMxEDAOBgNVBAgM
B01vbnRhbmExEDAOBgNVBAcMB0JvemVtYW4xFTATBgNVBAoMDHdvbGZTU0xfcDUy
MTEQMA4GA1UECwwHQ0EtcDUyMTEYMBYGA1UEAwwPd3d3LndvbGZzc2wuY29tMR8w
HQYJKoZIhvcNAQkBFhBpbmZvQHdvbGZzc2wuY29tMIGbMBAGByqGSM49AgEGBSuB
BAAjA4GGAAQALRgkLeTbbMNpm9sYZzPxYGiUFM2RSldl7zb6JIKI7Mfwy0hFbpZf
f+t2vkRAwxnAM2jEBgSOwiWxloMiDnvHsvwBhpHtQ1044AwljbPbsdzetyGAz4fe
ZPQhPi2veb320ABLgXn69xCqGc1A1x51NFMpA+1IVCHlj5W1m0GNX91y0lqjYzBh
MB0GA1UdDgQWBBRAiR0wXgxu1T3G1SWQ2rZCZ+3pgjAfBgNVHSMEGDAWgBRkp2iV
UzMYoiCSvGRVpqvKdmibyDAPBgNVHRMBAf8EBTADAQH/MA4GA1UdDwEB/wQEAwIB
hjAKBggqhkjOPQQDAgOBjAAwgYgCQgHESzBw2LM0VhVqstwJr/n4orhr50aMXpV3
0NuSatQFM0uUZutsAlDAESFl2EfCDG0QxDuTl2bKcbCkUT3h6XHHhwJCAKFzGHXH
qneISc1f5nv1w7B3J+0jCHyquqBAIWmYa5X+l/smcFtrUh9Cm32MgZG8KrbrtzqZ
IMcXRGHuUPLpjcoh
-----END CERTIFICATE-----
