Certificate:
    Data:
        Version: 3 (0x2)
        Serial Number: 1 (0x1)
        Signature Algorithm: ecdsa-with-SHA256
        Issuer: C = US, ST = Montana, L = Bozeman, O = wolfSSL_P521, OU = Root-P521, CN = www.wolfssl.com, emailAddress = info@wolfssl.com
        Validity
            Not Before: Dec 20 23:07:25 2021 GMT
            Not After : Sep 15 23:07:25 2024 GMT
        Subject: C = US, ST = Montana, L = Bozeman, O = wolfSSL_p521, OU = CA-p521, CN = www.wolfssl.com, emailAddress = info@wolfssl.com
        Subject Public Key Info:
            Public Key Algorithm: id-ecPublicKey
                Public-Key: (521 bit)
                pub:
                    04:00:2d:18:24:2d:e4:db:6c:c3:69:9b:db:18:67:
                    33:f1:60:68:94:14:cd:91:4a:57:65:ef:36:fa:24:
                    82:88:ec:c7:f0:cb:48:45:6e:96:5f:7f:eb:76:be:
                    44:40:c3:19:c0:33:68:c4:06:04:8e:c2:25:b1:96:
                    83:22:0e:7b:c7:b2:fc:01:86:91:ed:43:5d:38:e0:
                    0c:25:8d:b3:db:b1:dc:de:b7:21:80:cf:87:de:64:
                    f4:21:3e:2d:af:79:bd:f6:d0:00:4b:81:79:fa:f7:
                    10:aa:19:cd:40:d7:1e:75:34:53:29:03:ed:48:54:
                    21:e5:8f:95:b5:9b:41:8d:5f:dd:72:d2:5a
                ASN1 OID: secp521r1
                NIST CURVE: P-521
        X509v3 extensions:
            X509v3 Subject Key Identifier: 
                40:89:1D:30:5E:0C:6E:D5:3D:C6:D5:25:90:DA:B6:42:67:ED:E9:82
            X509v3 Authority Key Identifier: 
                keyid:64:A7:68:95:53:33:18:A2:20:92:BC:64:55:A6:AB:CA:76:68:9B:C8

            X509v3 Basic Constraints: critical
                CA:TRUE
            X509v3 Key Usage: critical
                Digital Signature, Certificate Sign, CRL Sign
    Signature Algorithm: ecdsa-with-SHA256
         30:81:87:02:42:00:a3:76:dd:2a:a5:1f:c4:b6:11:fe:8c:62:
         a2:7a:fe:a0:9b:04:3a:11:f5:6e:ef:ad:86:54:5a:cd:4d:dd:
         8c:27:f3:1f:9c:c4:7f:b5:8f:f5:5b:f7:60:31:6e:d9:a3:c6:
         41:29:43:0b:14:15:75:56:ef:ca:bd:30:6d:41:91:71:f4:02:
         41:14:2e:c9:57:8a:41:0c:af:a0:bc:3c:21:bd:4b:ea:08:fc:
         61:61:f7:85:92:d1:42:1e:3a:92:40:73:18:45:df:ff:d8:fe:
         eb:cd:61:30:66:ef:60:31:04:bc:e0:4d:1e:c1:95:df:eb:eb:
         cd:08:70:76:4c:5c:f3:bf:f6:ac:0d:7d
-----BEGIN CERTIFICATE-----
MIIDBzCCAmmgAwIBAgIBATAKBggqhkjOPQQDAjCBlzELMAkGA1UEBhMCVVMxEDAO
BgNVBAgMB01vbnRhbmExEDAOBgNVBAcMB0JvemVtYW4xFTATBgNVBAoMDHdvbGZT
U0xfUDUyMTESMBAGA1UECwwJUm9vdC1QNTIxMRgwFgYDVQQDDA93d3cud29sZnNz
bC5jb20xHzAdBgkqhkiG9w0BCQEWEGluZm9Ad29sZnNzbC5jb20wHhcNMjExMjIw
MjMwNzI1WhcNMjQwOTE1MjMwNzI1WjCBlTELMAkGA1UEBhMCVVMxEDAOBgNVBAgM
B01vbnRhbmExEDAOBgNVBAcMB0JvemVtYW4xFTATBgNVBAoMDHdvbGZTU0xfcDUy
MTEQMA4GA1UECwwHQ0EtcDUyMTEYMBYGA1UEAwwPd3d3LndvbGZzc2wuY29tMR8w
HQYJKoZIhvcNAQkBFhBpbmZvQHdvbGZzc2wuY29tMIGbMBAGByqGSM49AgEGBSuB
BAAjA4GGAAQALRgkLeTbbMNpm9sYZzPxYGiUFM2RSldl7zb6JIKI7Mfwy0hFbpZf
f+t2vkRAwxnAM2jEBgSOwiWxloMiDnvHsvwBhpHtQ1044AwljbPbsdzetyGAz4fe
ZPQhPi2veb320ABLgXn69xCqGc1A1x51NFMpA+1IVCHlj5W1m0GNX91y0lqjYzBh
MB0GA1UdDgQWBBRAiR0wXgxu1T3G1SWQ2rZCZ+3pgjAfBgNVHSMEGDAWgBRkp2iV
UzMYoiCSvGRVpqvKdmibyDAPBgNVHRMBAf8EBTADAQH/MA4GA1UdDwEB/wQEAwIB
hjAKBggqhkjOPQQDAgOBiwAwgYcCQgCjdt0qpR/EthH+jGKiev6gmwQ6EfVu762G
VFrNTd2MJ/MfnMR/tY/1W/dgMW7Zo8ZBKUMLFBV1Vu/KvTBtQZFx9AJBFC7JV4pB
DK+gvDwhvUvqCPxhYfeFktFCHjqSQHMYRd//2P7rzWEwZu9gMQS84E0ewZXf6+vN
CHB2TFzzv/asDX0=
-----END CERTIFICATE-----
