Certificate:
    Data:
        Version: 3 (0x2)
        Serial Number: 1 (0x1)
        Signature Algorithm: ecdsa-with-SHA256
        Issuer: C=US, ST=Montana, L=Bozeman, O=wolfSSL_P521, OU=Root-P521, CN=www.wolfssl.com, emailAddress=facts@wolfssl.com
        Validity
            Not Before: Jun 11 21:44:31 2026 GMT
            Not After : Mar  7 21:44:31 2029 GMT
        Subject: C=US, ST=Montana, L=Bozeman, O=wolfSSL_p521, OU=CA-p521, CN=www.wolfssl.com, emailAddress=facts@wolfssl.com, UID=wolfSSL
        Subject Public Key Info:
            Public Key Algorithm: id-ecPublicKey
                Public-Key: (521 bit)
                pub:
                    04:00:2d:18:24:2d:e4:db:6c:c3:69:9b:db:18:67:
                    33:f1:60:68:94:14:cd:91:4a:57:65:ef:36:fa:24:
                    82:88:ec:c7:f0:cb:48:45:6e:96:5f:7f:eb:76:be:
                    44:40:c3:19:c0:33:68:c4:06:04:8e:c2:25:b1:96:
                    83:22:0e:7b:c7:b2:fc:01:86:91:ed:43:5d:38:e0:
                    0c:25:8d:b3:db:b1:dc:de:b7:21:80:cf:87:de:64:
                    f4:21:3e:2d:af:79:bd:f6:d0:00:4b:81:79:fa:f7:
                    10:aa:19:cd:40:d7:1e:75:34:53:29:03:ed:48:54:
                    21:e5:8f:95:b5:9b:41:8d:5f:dd:72:d2:5a
                ASN1 OID: secp521r1
                NIST CURVE: P-521
        X509v3 extensions:
            X509v3 Subject Key Identifier: 
                40:89:1D:30:5E:0C:6E:D5:3D:C6:D5:25:90:DA:B6:42:67:ED:E9:82
            X509v3 Authority Key Identifier: 
                64:A7:68:95:53:33:18:A2:20:92:BC:64:55:A6:AB:CA:76:68:9B:C8
            X509v3 Basic Constraints: critical
                CA:TRUE
            X509v3 Key Usage: critical
                Digital Signature, Certificate Sign, CRL Sign
    Signature Algorithm: ecdsa-with-SHA256
    Signature Value:
        30:81:88:02:42:01:0b:06:e4:a8:a5:c6:9a:a3:90:07:df:9f:
        6e:82:5b:a0:d7:04:a1:d9:28:d3:62:71:d9:84:2d:15:81:7c:
        0c:16:b2:7e:03:f3:8b:cd:0e:f5:7f:fc:79:b6:fc:fb:a6:f2:
        45:3d:0a:db:a2:44:15:4e:4d:73:5e:21:47:e5:5f:df:02:02:
        42:01:85:c1:6a:9a:5e:bf:45:f5:3a:3e:a6:80:ea:ab:2c:08:
        e9:bf:f9:60:dc:74:8a:3e:5c:39:a4:78:f8:4f:2b:28:a2:b8:
        7f:fd:73:f1:04:e6:6c:05:65:1a:24:56:c9:f6:b8:33:f1:7d:
        6e:69:52:08:89:c7:76:08:ab:f6:fe:61:f3
-----BEGIN CERTIFICATE-----
MIIDIzCCAoSgAwIBAgIBATAKBggqhkjOPQQDAjCBmDELMAkGA1UEBhMCVVMxEDAO
BgNVBAgMB01vbnRhbmExEDAOBgNVBAcMB0JvemVtYW4xFTATBgNVBAoMDHdvbGZT
U0xfUDUyMTESMBAGA1UECwwJUm9vdC1QNTIxMRgwFgYDVQQDDA93d3cud29sZnNz
bC5jb20xIDAeBgkqhkiG9w0BCQEWEWZhY3RzQHdvbGZzc2wuY29tMB4XDTI2MDYx
MTIxNDQzMVoXDTI5MDMwNzIxNDQzMVowga8xCzAJBgNVBAYTAlVTMRAwDgYDVQQI
DAdNb250YW5hMRAwDgYDVQQHDAdCb3plbWFuMRUwEwYDVQQKDAx3b2xmU1NMX3A1
MjExEDAOBgNVBAsMB0NBLXA1MjExGDAWBgNVBAMMD3d3dy53b2xmc3NsLmNvbTEg
MB4GCSqGSIb3DQEJARYRZmFjdHNAd29sZnNzbC5jb20xFzAVBgoJkiaJk/IsZAEB
DAd3b2xmU1NMMIGbMBAGByqGSM49AgEGBSuBBAAjA4GGAAQALRgkLeTbbMNpm9sY
ZzPxYGiUFM2RSldl7zb6JIKI7Mfwy0hFbpZff+t2vkRAwxnAM2jEBgSOwiWxloMi
DnvHsvwBhpHtQ1044AwljbPbsdzetyGAz4feZPQhPi2veb320ABLgXn69xCqGc1A
1x51NFMpA+1IVCHlj5W1m0GNX91y0lqjYzBhMB0GA1UdDgQWBBRAiR0wXgxu1T3G
1SWQ2rZCZ+3pgjAfBgNVHSMEGDAWgBRkp2iVUzMYoiCSvGRVpqvKdmibyDAPBgNV
HRMBAf8EBTADAQH/MA4GA1UdDwEB/wQEAwIBhjAKBggqhkjOPQQDAgOBjAAwgYgC
QgELBuSopcaao5AH359uglug1wSh2SjTYnHZhC0VgXwMFrJ+A/OLzQ71f/x5tvz7
pvJFPQrbokQVTk1zXiFH5V/fAgJCAYXBappev0X1Oj6mgOqrLAjpv/lg3HSKPlw5
pHj4Tysoorh//XPxBOZsBWUaJFbJ9rgz8X1uaVIIicd2CKv2/mHz
-----END CERTIFICATE-----
