Certificate:
    Data:
        Version: 3 (0x2)
        Serial Number:
            7a:83:42:b2:ba:34:76:dc:33:0a:84:72:da:19:e9:2f:cd:cb:49:7e
        Signature Algorithm: ecdsa-with-SHA256
        Issuer: C=US, ST=Montana, L=Bozeman, O=wolfSSL_p521, OU=Client-p521, CN=www.wolfssl.com, emailAddress=facts@wolfssl.com, UID=wolfSSL
        Validity
            Not Before: Jun 11 21:44:31 2026 GMT
            Not After : Mar  7 21:44:31 2029 GMT
        Subject: C=US, ST=Montana, L=Bozeman, O=wolfSSL_p521, OU=Client-p521, CN=www.wolfssl.com, emailAddress=facts@wolfssl.com, UID=wolfSSL
        Subject Public Key Info:
            Public Key Algorithm: id-ecPublicKey
                Public-Key: (521 bit)
                pub:
                    04:01:62:6e:f1:00:ec:d8:99:58:9b:80:6b:fe:2c:
                    f1:b2:f0:c8:48:df:ac:d2:3b:71:29:ab:f0:66:63:
                    d8:8e:b5:c8:c2:fc:99:44:e2:45:b1:5a:7b:b9:73:
                    01:da:79:ec:9c:26:27:34:45:26:d5:89:4b:44:fe:
                    69:4e:72:14:e3:8b:bc:00:0f:09:a2:03:c3:5a:dc:
                    95:82:f6:f9:f6:9c:ff:b5:6b:75:95:4b:a4:28:5d:
                    9e:90:04:d1:c0:1e:d5:fd:43:9e:1e:83:c0:11:2b:
                    2b:07:6d:a9:7a:10:d7:67:e7:51:37:24:d8:bf:03:
                    0d:8b:b5:40:5c:4f:d6:13:73:42:bc:91:d9
                ASN1 OID: secp521r1
                NIST CURVE: P-521
        X509v3 extensions:
            X509v3 Subject Key Identifier: 
                20:E1:BF:57:E5:F3:C3:0C:72:84:6A:C6:DF:BC:22:D0:B7:25:E5:A4
            X509v3 Authority Key Identifier: 
                keyid:20:E1:BF:57:E5:F3:C3:0C:72:84:6A:C6:DF:BC:22:D0:B7:25:E5:A4
                DirName:/C=US/ST=Montana/L=Bozeman/O=wolfSSL_p521/OU=Client-p521/CN=www.wolfssl.com/emailAddress=facts@wolfssl.com/UID=wolfSSL
                serial:7A:83:42:B2:BA:34:76:DC:33:0A:84:72:DA:19:E9:2F:CD:CB:49:7E
            X509v3 Basic Constraints: 
                CA:TRUE
            X509v3 Subject Alternative Name: 
                DNS:example.com, IP Address:127.0.0.1
            X509v3 Extended Key Usage: 
                TLS Web Server Authentication, TLS Web Client Authentication
    Signature Algorithm: ecdsa-with-SHA256
    Signature Value:
        30:81:88:02:42:01:9f:a0:81:cc:aa:de:bd:6f:27:ef:a6:28:
        b5:94:2d:9b:8a:3a:26:6a:34:90:b0:16:0f:43:8a:4a:37:75:
        a7:fb:c8:c8:9b:b3:ae:c2:3d:9d:c8:04:2a:53:aa:91:98:7d:
        fd:7a:52:b6:89:5f:52:89:8c:d7:46:5f:46:09:11:ab:88:02:
        42:00:a6:21:fd:82:d9:88:2a:a5:c5:e3:d5:45:ce:12:f1:a6:
        5d:c5:1d:00:e7:14:b6:81:78:30:c4:5c:87:89:c8:5e:6a:9a:
        dd:96:35:29:80:00:19:80:f3:74:92:ee:4a:1d:b3:13:f3:a4:
        3e:41:bf:04:a4:55:2c:28:86:df:df:77:bb
-----BEGIN CERTIFICATE-----
MIIEWDCCA7mgAwIBAgIUeoNCsro0dtwzCoRy2hnpL83LSX4wCgYIKoZIzj0EAwIw
gbMxCzAJBgNVBAYTAlVTMRAwDgYDVQQIDAdNb250YW5hMRAwDgYDVQQHDAdCb3pl
bWFuMRUwEwYDVQQKDAx3b2xmU1NMX3A1MjExFDASBgNVBAsMC0NsaWVudC1wNTIx
MRgwFgYDVQQDDA93d3cud29sZnNzbC5jb20xIDAeBgkqhkiG9w0BCQEWEWZhY3Rz
QHdvbGZzc2wuY29tMRcwFQYKCZImiZPyLGQBAQwHd29sZlNTTDAeFw0yNjA2MTEy
MTQ0MzFaFw0yOTAzMDcyMTQ0MzFaMIGzMQswCQYDVQQGEwJVUzEQMA4GA1UECAwH
TW9udGFuYTEQMA4GA1UEBwwHQm96ZW1hbjEVMBMGA1UECgwMd29sZlNTTF9wNTIx
MRQwEgYDVQQLDAtDbGllbnQtcDUyMTEYMBYGA1UEAwwPd3d3LndvbGZzc2wuY29t
MSAwHgYJKoZIhvcNAQkBFhFmYWN0c0B3b2xmc3NsLmNvbTEXMBUGCgmSJomT8ixk
AQEMB3dvbGZTU0wwgZswEAYHKoZIzj0CAQYFK4EEACMDgYYABAFibvEA7NiZWJuA
a/4s8bLwyEjfrNI7cSmr8GZj2I61yML8mUTiRbFae7lzAdp57JwmJzRFJtWJS0T+
aU5yFOOLvAAPCaIDw1rclYL2+fac/7VrdZVLpChdnpAE0cAe1f1Dnh6DwBErKwdt
qXoQ12fnUTck2L8DDYu1QFxP1hNzQryR2aOCAWQwggFgMB0GA1UdDgQWBBQg4b9X
5fPDDHKEasbfvCLQtyXlpDCB8wYDVR0jBIHrMIHogBQg4b9X5fPDDHKEasbfvCLQ
tyXlpKGBuaSBtjCBszELMAkGA1UEBhMCVVMxEDAOBgNVBAgMB01vbnRhbmExEDAO
BgNVBAcMB0JvemVtYW4xFTATBgNVBAoMDHdvbGZTU0xfcDUyMTEUMBIGA1UECwwL
Q2xpZW50LXA1MjExGDAWBgNVBAMMD3d3dy53b2xmc3NsLmNvbTEgMB4GCSqGSIb3
DQEJARYRZmFjdHNAd29sZnNzbC5jb20xFzAVBgoJkiaJk/IsZAEBDAd3b2xmU1NM
ghR6g0KyujR23DMKhHLaGekvzctJfjAMBgNVHRMEBTADAQH/MBwGA1UdEQQVMBOC
C2V4YW1wbGUuY29thwR/AAABMB0GA1UdJQQWMBQGCCsGAQUFBwMBBggrBgEFBQcD
AjAKBggqhkjOPQQDAgOBjAAwgYgCQgGfoIHMqt69byfvpii1lC2bijomajSQsBYP
Q4pKN3Wn+8jIm7Ouwj2dyAQqU6qRmH39elK2iV9SiYzXRl9GCRGriAJCAKYh/YLZ
iCqlxePVRc4S8aZdxR0A5xS2gXgwxFyHicheaprdljUpgAAZgPN0ku5KHbMT86Q+
Qb8EpFUsKIbf33e7
-----END CERTIFICATE-----
