Certificate:
    Data:
        Version: 3 (0x2)
        Serial Number:
            24:9d:c6:98:df:09:87:30:42:bd:e6:4f:86:05:af:dc:82:89:d7:0e
        Signature Algorithm: ecdsa-with-SHA256
        Issuer: C = US, ST = Montana, L = Bozeman, O = wolfSSL_p521, OU = Client-p521, CN = www.wolfssl.com, emailAddress = info@wolfssl.com
        Validity
            Not Before: Sep 14 23:57:18 2020 GMT
            Not After : Jun 11 23:57:18 2023 GMT
        Subject: C = US, ST = Montana, L = Bozeman, O = wolfSSL_p521, OU = Client-p521, CN = www.wolfssl.com, emailAddress = info@wolfssl.com
        Subject Public Key Info:
            Public Key Algorithm: id-ecPublicKey
                Public-Key: (521 bit)
                pub:
                    04:01:62:6e:f1:00:ec:d8:99:58:9b:80:6b:fe:2c:
                    f1:b2:f0:c8:48:df:ac:d2:3b:71:29:ab:f0:66:63:
                    d8:8e:b5:c8:c2:fc:99:44:e2:45:b1:5a:7b:b9:73:
                    01:da:79:ec:9c:26:27:34:45:26:d5:89:4b:44:fe:
                    69:4e:72:14:e3:8b:bc:00:0f:09:a2:03:c3:5a:dc:
                    95:82:f6:f9:f6:9c:ff:b5:6b:75:95:4b:a4:28:5d:
                    9e:90:04:d1:c0:1e:d5:fd:43:9e:1e:83:c0:11:2b:
                    2b:07:6d:a9:7a:10:d7:67:e7:51:37:24:d8:bf:03:
                    0d:8b:b5:40:5c:4f:d6:13:73:42:bc:91:d9
                ASN1 OID: secp521r1
                NIST CURVE: P-521
        X509v3 extensions:
            X509v3 Subject Key Identifier: 
                20:E1:BF:57:E5:F3:C3:0C:72:84:6A:C6:DF:BC:22:D0:B7:25:E5:A4
            X509v3 Authority Key Identifier: 
                keyid:20:E1:BF:57:E5:F3:C3:0C:72:84:6A:C6:DF:BC:22:D0:B7:25:E5:A4
                DirName:/C=US/ST=Montana/L=Bozeman/O=wolfSSL_p521/OU=Client-p521/CN=www.wolfssl.com/emailAddress=info@wolfssl.com
                serial:24:9D:C6:98:DF:09:87:30:42:BD:E6:4F:86:05:AF:DC:82:89:D7:0E

            X509v3 Basic Constraints: 
                CA:TRUE
            X509v3 Subject Alternative Name: 
                DNS:example.com, IP Address:127.0.0.1
            X509v3 Extended Key Usage: 
                TLS Web Server Authentication, TLS Web Client Authentication
    Signature Algorithm: ecdsa-with-SHA256
         30:81:87:02:42:01:e1:85:a5:0e:81:ff:b0:2a:d3:b8:73:8c:
         1d:8e:1f:42:4c:de:cb:d1:63:69:ce:53:d0:2a:52:14:e4:7a:
         2f:1e:c4:0b:1b:db:1e:36:97:72:ed:9b:2f:d4:93:79:06:ec:
         41:6c:6c:18:28:99:56:b6:0b:58:c4:bc:47:db:64:a8:7e:02:
         41:2b:d0:32:2e:03:81:32:f3:9a:65:58:a4:51:7e:9a:ad:c2:
         99:bf:21:f1:a1:70:61:4b:ee:8e:df:3b:9c:79:e3:12:b4:3b:
         9e:64:da:d0:ef:5b:50:7b:a1:b0:30:8f:af:66:71:9d:41:20:
         cf:e8:9c:bd:f5:3b:c4:fe:00:43:35:24
-----BEGIN CERTIFICATE-----
MIIECTCCA2ugAwIBAgIUJJ3GmN8JhzBCveZPhgWv3IKJ1w4wCgYIKoZIzj0EAwIw
gZkxCzAJBgNVBAYTAlVTMRAwDgYDVQQIDAdNb250YW5hMRAwDgYDVQQHDAdCb3pl
bWFuMRUwEwYDVQQKDAx3b2xmU1NMX3A1MjExFDASBgNVBAsMC0NsaWVudC1wNTIx
MRgwFgYDVQQDDA93d3cud29sZnNzbC5jb20xHzAdBgkqhkiG9w0BCQEWEGluZm9A
d29sZnNzbC5jb20wHhcNMjAwOTE0MjM1NzE4WhcNMjMwNjExMjM1NzE4WjCBmTEL
MAkGA1UEBhMCVVMxEDAOBgNVBAgMB01vbnRhbmExEDAOBgNVBAcMB0JvemVtYW4x
FTATBgNVBAoMDHdvbGZTU0xfcDUyMTEUMBIGA1UECwwLQ2xpZW50LXA1MjExGDAW
BgNVBAMMD3d3dy53b2xmc3NsLmNvbTEfMB0GCSqGSIb3DQEJARYQaW5mb0B3b2xm
c3NsLmNvbTCBmzAQBgcqhkjOPQIBBgUrgQQAIwOBhgAEAWJu8QDs2JlYm4Br/izx
svDISN+s0jtxKavwZmPYjrXIwvyZROJFsVp7uXMB2nnsnCYnNEUm1YlLRP5pTnIU
44u8AA8JogPDWtyVgvb59pz/tWt1lUukKF2ekATRwB7V/UOeHoPAESsrB22pehDX
Z+dRNyTYvwMNi7VAXE/WE3NCvJHZo4IBSjCCAUYwHQYDVR0OBBYEFCDhv1fl88MM
coRqxt+8ItC3JeWkMIHZBgNVHSMEgdEwgc6AFCDhv1fl88MMcoRqxt+8ItC3JeWk
oYGfpIGcMIGZMQswCQYDVQQGEwJVUzEQMA4GA1UECAwHTW9udGFuYTEQMA4GA1UE
BwwHQm96ZW1hbjEVMBMGA1UECgwMd29sZlNTTF9wNTIxMRQwEgYDVQQLDAtDbGll
bnQtcDUyMTEYMBYGA1UEAwwPd3d3LndvbGZzc2wuY29tMR8wHQYJKoZIhvcNAQkB
FhBpbmZvQHdvbGZzc2wuY29tghQkncaY3wmHMEK95k+GBa/cgonXDjAMBgNVHRME
BTADAQH/MBwGA1UdEQQVMBOCC2V4YW1wbGUuY29thwR/AAABMB0GA1UdJQQWMBQG
CCsGAQUFBwMBBggrBgEFBQcDAjAKBggqhkjOPQQDAgOBiwAwgYcCQgHhhaUOgf+w
KtO4c4wdjh9CTN7L0WNpzlPQKlIU5HovHsQLG9seNpdy7Zsv1JN5BuxBbGwYKJlW
tgtYxLxH22SofgJBK9AyLgOBMvOaZVikUX6arcKZvyHxoXBhS+6O3zuceeMStDue
ZNrQ71tQe6GwMI+vZnGdQSDP6Jy99TvE/gBDNSQ=
-----END CERTIFICATE-----
