Certificate:
    Data:
        Version: 3 (0x2)
        Serial Number:
            7a:8f:7e:f7:fc:09:4a:c1:69:6f:05:0a:31:13:e2:7c:8d:42:c9:a4
        Signature Algorithm: ecdsa-with-SHA256
        Issuer: C = US, ST = Montana, L = Bozeman, O = wolfSSL_p521, OU = Client-p521, CN = www.wolfssl.com, emailAddress = info@wolfssl.com, UID = wolfSSL
        Validity
            Not Before: Sep 26 17:22:43 2023 GMT
            Not After : Jun 22 17:22:43 2026 GMT
        Subject: C = US, ST = Montana, L = Bozeman, O = wolfSSL_p521, OU = Client-p521, CN = www.wolfssl.com, emailAddress = info@wolfssl.com, UID = wolfSSL
        Subject Public Key Info:
            Public Key Algorithm: id-ecPublicKey
                Public-Key: (521 bit)
                pub:
                    04:01:62:6e:f1:00:ec:d8:99:58:9b:80:6b:fe:2c:
                    f1:b2:f0:c8:48:df:ac:d2:3b:71:29:ab:f0:66:63:
                    d8:8e:b5:c8:c2:fc:99:44:e2:45:b1:5a:7b:b9:73:
                    01:da:79:ec:9c:26:27:34:45:26:d5:89:4b:44:fe:
                    69:4e:72:14:e3:8b:bc:00:0f:09:a2:03:c3:5a:dc:
                    95:82:f6:f9:f6:9c:ff:b5:6b:75:95:4b:a4:28:5d:
                    9e:90:04:d1:c0:1e:d5:fd:43:9e:1e:83:c0:11:2b:
                    2b:07:6d:a9:7a:10:d7:67:e7:51:37:24:d8:bf:03:
                    0d:8b:b5:40:5c:4f:d6:13:73:42:bc:91:d9
                ASN1 OID: secp521r1
                NIST CURVE: P-521
        X509v3 extensions:
            X509v3 Subject Key Identifier: 
                20:E1:BF:57:E5:F3:C3:0C:72:84:6A:C6:DF:BC:22:D0:B7:25:E5:A4
            X509v3 Authority Key Identifier: 
                keyid:20:E1:BF:57:E5:F3:C3:0C:72:84:6A:C6:DF:BC:22:D0:B7:25:E5:A4
                DirName:/C=US/ST=Montana/L=Bozeman/O=wolfSSL_p521/OU=Client-p521/CN=www.wolfssl.com/emailAddress=info@wolfssl.com/UID=wolfSSL
                serial:7A:8F:7E:F7:FC:09:4A:C1:69:6F:05:0A:31:13:E2:7C:8D:42:C9:A4
            X509v3 Basic Constraints: 
                CA:TRUE
            X509v3 Subject Alternative Name: 
                DNS:example.com, IP Address:127.0.0.1
            X509v3 Extended Key Usage: 
                TLS Web Server Authentication, TLS Web Client Authentication
    Signature Algorithm: ecdsa-with-SHA256
    Signature Value:
        30:81:87:02:42:01:4a:18:7a:44:c8:82:38:36:be:92:b2:27:
        16:ee:92:ca:ee:91:9d:a4:4a:fd:c1:82:36:84:81:44:57:92:
        82:69:f4:f9:f4:91:db:7b:75:61:83:9d:20:23:db:4f:29:df:
        52:d9:bc:6c:f6:17:01:6f:fb:8b:fe:59:43:a7:27:14:c2:02:
        41:49:14:65:8c:fb:e4:0d:d6:78:4a:ce:f1:6b:26:6b:73:ce:
        49:9f:4f:f4:1c:5c:bd:c9:13:8e:fa:67:28:0d:86:c1:25:e1:
        14:97:a9:25:8d:46:67:5d:ef:53:af:4c:9e:20:09:ea:8d:5a:
        bd:43:4e:36:22:d0:f1:95:3d:5e:c8:86
-----BEGIN CERTIFICATE-----
MIIEVDCCA7agAwIBAgIUeo9+9/wJSsFpbwUKMRPifI1CyaQwCgYIKoZIzj0EAwIw
gbIxCzAJBgNVBAYTAlVTMRAwDgYDVQQIDAdNb250YW5hMRAwDgYDVQQHDAdCb3pl
bWFuMRUwEwYDVQQKDAx3b2xmU1NMX3A1MjExFDASBgNVBAsMC0NsaWVudC1wNTIx
MRgwFgYDVQQDDA93d3cud29sZnNzbC5jb20xHzAdBgkqhkiG9w0BCQEWEGluZm9A
d29sZnNzbC5jb20xFzAVBgoJkiaJk/IsZAEBDAd3b2xmU1NMMB4XDTIzMDkyNjE3
MjI0M1oXDTI2MDYyMjE3MjI0M1owgbIxCzAJBgNVBAYTAlVTMRAwDgYDVQQIDAdN
b250YW5hMRAwDgYDVQQHDAdCb3plbWFuMRUwEwYDVQQKDAx3b2xmU1NMX3A1MjEx
FDASBgNVBAsMC0NsaWVudC1wNTIxMRgwFgYDVQQDDA93d3cud29sZnNzbC5jb20x
HzAdBgkqhkiG9w0BCQEWEGluZm9Ad29sZnNzbC5jb20xFzAVBgoJkiaJk/IsZAEB
DAd3b2xmU1NMMIGbMBAGByqGSM49AgEGBSuBBAAjA4GGAAQBYm7xAOzYmVibgGv+
LPGy8MhI36zSO3Epq/BmY9iOtcjC/JlE4kWxWnu5cwHaeeycJic0RSbViUtE/mlO
chTji7wADwmiA8Na3JWC9vn2nP+1a3WVS6QoXZ6QBNHAHtX9Q54eg8ARKysHbal6
ENdn51E3JNi/Aw2LtUBcT9YTc0K8kdmjggFjMIIBXzAdBgNVHQ4EFgQUIOG/V+Xz
wwxyhGrG37wi0Lcl5aQwgfIGA1UdIwSB6jCB54AUIOG/V+XzwwxyhGrG37wi0Lcl
5aShgbikgbUwgbIxCzAJBgNVBAYTAlVTMRAwDgYDVQQIDAdNb250YW5hMRAwDgYD
VQQHDAdCb3plbWFuMRUwEwYDVQQKDAx3b2xmU1NMX3A1MjExFDASBgNVBAsMC0Ns
aWVudC1wNTIxMRgwFgYDVQQDDA93d3cud29sZnNzbC5jb20xHzAdBgkqhkiG9w0B
CQEWEGluZm9Ad29sZnNzbC5jb20xFzAVBgoJkiaJk/IsZAEBDAd3b2xmU1NMghR6
j373/AlKwWlvBQoxE+J8jULJpDAMBgNVHRMEBTADAQH/MBwGA1UdEQQVMBOCC2V4
YW1wbGUuY29thwR/AAABMB0GA1UdJQQWMBQGCCsGAQUFBwMBBggrBgEFBQcDAjAK
BggqhkjOPQQDAgOBiwAwgYcCQgFKGHpEyII4Nr6SsicW7pLK7pGdpEr9wYI2hIFE
V5KCafT59JHbe3Vhg50gI9tPKd9S2bxs9hcBb/uL/llDpycUwgJBSRRljPvkDdZ4
Ss7xayZrc85Jn0/0HFy9yROO+mcoDYbBJeEUl6kljUZnXe9Tr0yeIAnqjVq9Q042
ItDxlT1eyIY=
-----END CERTIFICATE-----
