Certificate:
    Data:
        Version: 3 (0x2)
        Serial Number:
            55:89:bc:f6:2c:af:36:2b:2f:5f:8c:ec:da:ed:37:60:89:d1:7f:81
        Signature Algorithm: ecdsa-with-SHA256
        Issuer: C = US, ST = Montana, L = Bozeman, O = wolfSSL_p521, OU = Client-p521, CN = www.wolfssl.com, emailAddress = info@wolfssl.com, UID = wolfSSL
        Validity
            Not Before: Dec 13 22:19:29 2023 GMT
            Not After : Sep  8 22:19:29 2026 GMT
        Subject: C = US, ST = Montana, L = Bozeman, O = wolfSSL_p521, OU = Client-p521, CN = www.wolfssl.com, emailAddress = info@wolfssl.com, UID = wolfSSL
        Subject Public Key Info:
            Public Key Algorithm: id-ecPublicKey
                Public-Key: (521 bit)
                pub:
                    04:01:62:6e:f1:00:ec:d8:99:58:9b:80:6b:fe:2c:
                    f1:b2:f0:c8:48:df:ac:d2:3b:71:29:ab:f0:66:63:
                    d8:8e:b5:c8:c2:fc:99:44:e2:45:b1:5a:7b:b9:73:
                    01:da:79:ec:9c:26:27:34:45:26:d5:89:4b:44:fe:
                    69:4e:72:14:e3:8b:bc:00:0f:09:a2:03:c3:5a:dc:
                    95:82:f6:f9:f6:9c:ff:b5:6b:75:95:4b:a4:28:5d:
                    9e:90:04:d1:c0:1e:d5:fd:43:9e:1e:83:c0:11:2b:
                    2b:07:6d:a9:7a:10:d7:67:e7:51:37:24:d8:bf:03:
                    0d:8b:b5:40:5c:4f:d6:13:73:42:bc:91:d9
                ASN1 OID: secp521r1
                NIST CURVE: P-521
        X509v3 extensions:
            X509v3 Subject Key Identifier: 
                20:E1:BF:57:E5:F3:C3:0C:72:84:6A:C6:DF:BC:22:D0:B7:25:E5:A4
            X509v3 Authority Key Identifier: 
                keyid:20:E1:BF:57:E5:F3:C3:0C:72:84:6A:C6:DF:BC:22:D0:B7:25:E5:A4
                DirName:/C=US/ST=Montana/L=Bozeman/O=wolfSSL_p521/OU=Client-p521/CN=www.wolfssl.com/emailAddress=info@wolfssl.com/UID=wolfSSL
                serial:55:89:BC:F6:2C:AF:36:2B:2F:5F:8C:EC:DA:ED:37:60:89:D1:7F:81

            X509v3 Basic Constraints: 
                CA:TRUE
            X509v3 Subject Alternative Name: 
                DNS:example.com, IP Address:127.0.0.1
            X509v3 Extended Key Usage: 
                TLS Web Server Authentication, TLS Web Client Authentication
    Signature Algorithm: ecdsa-with-SHA256
         30:81:88:02:42:01:3f:4e:19:e3:8b:f6:83:21:55:cb:49:cf:
         bf:35:16:9c:cd:fb:5d:d8:d3:34:a2:35:ff:67:40:b6:3e:3d:
         6e:2f:1d:01:78:7a:87:b1:ae:ad:cb:b3:8a:9a:4a:5b:a4:e2:
         c9:6e:42:10:39:20:64:98:64:9b:2f:da:15:94:c8:51:ea:02:
         42:00:bf:77:aa:d8:22:6b:b8:a0:9b:bf:5e:89:5d:f0:54:8e:
         3c:08:a7:cb:28:11:c5:e1:45:17:d1:bf:d5:dc:bb:65:37:f1:
         90:12:6c:62:d5:b5:b2:8f:73:e8:1b:ac:a8:80:03:a7:22:5d:
         dc:1b:7d:c2:62:c4:f7:e4:ec:73:65:21:9f
-----BEGIN CERTIFICATE-----
MIIEVTCCA7agAwIBAgIUVYm89iyvNisvX4zs2u03YInRf4EwCgYIKoZIzj0EAwIw
gbIxCzAJBgNVBAYTAlVTMRAwDgYDVQQIDAdNb250YW5hMRAwDgYDVQQHDAdCb3pl
bWFuMRUwEwYDVQQKDAx3b2xmU1NMX3A1MjExFDASBgNVBAsMC0NsaWVudC1wNTIx
MRgwFgYDVQQDDA93d3cud29sZnNzbC5jb20xHzAdBgkqhkiG9w0BCQEWEGluZm9A
d29sZnNzbC5jb20xFzAVBgoJkiaJk/IsZAEBDAd3b2xmU1NMMB4XDTIzMTIxMzIy
MTkyOVoXDTI2MDkwODIyMTkyOVowgbIxCzAJBgNVBAYTAlVTMRAwDgYDVQQIDAdN
b250YW5hMRAwDgYDVQQHDAdCb3plbWFuMRUwEwYDVQQKDAx3b2xmU1NMX3A1MjEx
FDASBgNVBAsMC0NsaWVudC1wNTIxMRgwFgYDVQQDDA93d3cud29sZnNzbC5jb20x
HzAdBgkqhkiG9w0BCQEWEGluZm9Ad29sZnNzbC5jb20xFzAVBgoJkiaJk/IsZAEB
DAd3b2xmU1NMMIGbMBAGByqGSM49AgEGBSuBBAAjA4GGAAQBYm7xAOzYmVibgGv+
LPGy8MhI36zSO3Epq/BmY9iOtcjC/JlE4kWxWnu5cwHaeeycJic0RSbViUtE/mlO
chTji7wADwmiA8Na3JWC9vn2nP+1a3WVS6QoXZ6QBNHAHtX9Q54eg8ARKysHbal6
ENdn51E3JNi/Aw2LtUBcT9YTc0K8kdmjggFjMIIBXzAdBgNVHQ4EFgQUIOG/V+Xz
wwxyhGrG37wi0Lcl5aQwgfIGA1UdIwSB6jCB54AUIOG/V+XzwwxyhGrG37wi0Lcl
5aShgbikgbUwgbIxCzAJBgNVBAYTAlVTMRAwDgYDVQQIDAdNb250YW5hMRAwDgYD
VQQHDAdCb3plbWFuMRUwEwYDVQQKDAx3b2xmU1NMX3A1MjExFDASBgNVBAsMC0Ns
aWVudC1wNTIxMRgwFgYDVQQDDA93d3cud29sZnNzbC5jb20xHzAdBgkqhkiG9w0B
CQEWEGluZm9Ad29sZnNzbC5jb20xFzAVBgoJkiaJk/IsZAEBDAd3b2xmU1NMghRV
ibz2LK82Ky9fjOza7TdgidF/gTAMBgNVHRMEBTADAQH/MBwGA1UdEQQVMBOCC2V4
YW1wbGUuY29thwR/AAABMB0GA1UdJQQWMBQGCCsGAQUFBwMBBggrBgEFBQcDAjAK
BggqhkjOPQQDAgOBjAAwgYgCQgE/Thnji/aDIVXLSc+/NRaczftd2NM0ojX/Z0C2
Pj1uLx0BeHqHsa6ty7OKmkpbpOLJbkIQOSBkmGSbL9oVlMhR6gJCAL93qtgia7ig
m79eiV3wVI48CKfLKBHF4UUX0b/V3LtlN/GQEmxi1bWyj3PoG6yogAOnIl3cG33C
YsT35OxzZSGf
-----END CERTIFICATE-----
