Certificate:
    Data:
        Version: 3 (0x2)
        Serial Number: 12773897163527651161 (0xb145ffca8d6f7f59)
    Signature Algorithm: ecdsa-with-SHA256
        Issuer: C=US, ST=Montana, L=Bozeman, O=wolfSSL_p521, OU=Client-p521, CN=www.wolfssl.com/emailAddress=info@wolfssl.com
        Validity
            Not Before: Feb 10 19:49:53 2021 GMT
            Not After : Nov  7 19:49:53 2023 GMT
        Subject: C=US, ST=Montana, L=Bozeman, O=wolfSSL_p521, OU=Client-p521, CN=www.wolfssl.com/emailAddress=info@wolfssl.com
        Subject Public Key Info:
            Public Key Algorithm: id-ecPublicKey
                Public-Key: (521 bit)
                pub: 
                    04:01:62:6e:f1:00:ec:d8:99:58:9b:80:6b:fe:2c:
                    f1:b2:f0:c8:48:df:ac:d2:3b:71:29:ab:f0:66:63:
                    d8:8e:b5:c8:c2:fc:99:44:e2:45:b1:5a:7b:b9:73:
                    01:da:79:ec:9c:26:27:34:45:26:d5:89:4b:44:fe:
                    69:4e:72:14:e3:8b:bc:00:0f:09:a2:03:c3:5a:dc:
                    95:82:f6:f9:f6:9c:ff:b5:6b:75:95:4b:a4:28:5d:
                    9e:90:04:d1:c0:1e:d5:fd:43:9e:1e:83:c0:11:2b:
                    2b:07:6d:a9:7a:10:d7:67:e7:51:37:24:d8:bf:03:
                    0d:8b:b5:40:5c:4f:d6:13:73:42:bc:91:d9
                ASN1 OID: secp521r1
                NIST CURVE: P-521
        X509v3 extensions:
            X509v3 Subject Key Identifier: 
                20:E1:BF:57:E5:F3:C3:0C:72:84:6A:C6:DF:BC:22:D0:B7:25:E5:A4
            X509v3 Authority Key Identifier: 
                keyid:20:E1:BF:57:E5:F3:C3:0C:72:84:6A:C6:DF:BC:22:D0:B7:25:E5:A4
                DirName:/C=US/ST=Montana/L=Bozeman/O=wolfSSL_p521/OU=Client-p521/CN=www.wolfssl.com/emailAddress=info@wolfssl.com
                serial:B1:45:FF:CA:8D:6F:7F:59

            X509v3 Basic Constraints: 
                CA:TRUE
            X509v3 Subject Alternative Name: 
                DNS:example.com, IP Address:127.0.0.1
            X509v3 Extended Key Usage: 
                TLS Web Server Authentication, TLS Web Client Authentication
    Signature Algorithm: ecdsa-with-SHA256
         30:81:88:02:42:00:b5:3e:42:5d:77:b3:41:07:f0:82:b1:00:
         e9:d4:a7:12:bb:53:c8:8e:27:b5:1c:94:87:ab:41:02:fb:11:
         a5:ce:6e:5d:6b:b6:61:eb:66:a3:40:78:cb:71:a7:77:fc:d6:
         df:83:dd:07:85:3c:f4:32:4f:d2:78:41:39:96:7d:8f:47:02:
         42:00:8a:cb:77:0c:8f:60:3b:48:cd:55:44:f1:c2:7d:b2:53:
         d0:59:45:d2:89:4a:67:fd:b8:64:c2:f8:83:5e:17:52:4d:83:
         b4:77:81:77:21:3b:82:1e:a4:3a:61:ba:a3:49:32:3a:af:60:
         c5:4e:bf:77:95:1e:7b:21:6b:1c:3a:c7:c3
-----BEGIN CERTIFICATE-----
MIID9DCCA1WgAwIBAgIJALFF/8qNb39ZMAoGCCqGSM49BAMCMIGZMQswCQYDVQQG
EwJVUzEQMA4GA1UECAwHTW9udGFuYTEQMA4GA1UEBwwHQm96ZW1hbjEVMBMGA1UE
CgwMd29sZlNTTF9wNTIxMRQwEgYDVQQLDAtDbGllbnQtcDUyMTEYMBYGA1UEAwwP
d3d3LndvbGZzc2wuY29tMR8wHQYJKoZIhvcNAQkBFhBpbmZvQHdvbGZzc2wuY29t
MB4XDTIxMDIxMDE5NDk1M1oXDTIzMTEwNzE5NDk1M1owgZkxCzAJBgNVBAYTAlVT
MRAwDgYDVQQIDAdNb250YW5hMRAwDgYDVQQHDAdCb3plbWFuMRUwEwYDVQQKDAx3
b2xmU1NMX3A1MjExFDASBgNVBAsMC0NsaWVudC1wNTIxMRgwFgYDVQQDDA93d3cu
d29sZnNzbC5jb20xHzAdBgkqhkiG9w0BCQEWEGluZm9Ad29sZnNzbC5jb20wgZsw
EAYHKoZIzj0CAQYFK4EEACMDgYYABAFibvEA7NiZWJuAa/4s8bLwyEjfrNI7cSmr
8GZj2I61yML8mUTiRbFae7lzAdp57JwmJzRFJtWJS0T+aU5yFOOLvAAPCaIDw1rc
lYL2+fac/7VrdZVLpChdnpAE0cAe1f1Dnh6DwBErKwdtqXoQ12fnUTck2L8DDYu1
QFxP1hNzQryR2aOCAT8wggE7MB0GA1UdDgQWBBQg4b9X5fPDDHKEasbfvCLQtyXl
pDCBzgYDVR0jBIHGMIHDgBQg4b9X5fPDDHKEasbfvCLQtyXlpKGBn6SBnDCBmTEL
MAkGA1UEBhMCVVMxEDAOBgNVBAgMB01vbnRhbmExEDAOBgNVBAcMB0JvemVtYW4x
FTATBgNVBAoMDHdvbGZTU0xfcDUyMTEUMBIGA1UECwwLQ2xpZW50LXA1MjExGDAW
BgNVBAMMD3d3dy53b2xmc3NsLmNvbTEfMB0GCSqGSIb3DQEJARYQaW5mb0B3b2xm
c3NsLmNvbYIJALFF/8qNb39ZMAwGA1UdEwQFMAMBAf8wHAYDVR0RBBUwE4ILZXhh
bXBsZS5jb22HBH8AAAEwHQYDVR0lBBYwFAYIKwYBBQUHAwEGCCsGAQUFBwMCMAoG
CCqGSM49BAMCA4GMADCBiAJCALU+Ql13s0EH8IKxAOnUpxK7U8iOJ7UclIerQQL7
EaXObl1rtmHrZqNAeMtxp3f81t+D3QeFPPQyT9J4QTmWfY9HAkIAist3DI9gO0jN
VUTxwn2yU9BZRdKJSmf9uGTC+INeF1JNg7R3gXchO4IepDphuqNJMjqvYMVOv3eV
Hnshaxw6x8M=
-----END CERTIFICATE-----
