Certificate:
    Data:
        Version: 3 (0x2)
        Serial Number:
            2c:2e:c4:96:0c:96:06:56:ac:14:e5:3a:34:0b:aa:2e:a2:fd:18:79
        Signature Algorithm: ecdsa-with-SHA256
        Issuer: C=US, ST=Montana, L=Bozeman, O=wolfSSL_p521, OU=Client-p521, CN=www.wolfssl.com, emailAddress=info@wolfssl.com, UID=wolfSSL
        Validity
            Not Before: Nov 13 20:41:25 2025 GMT
            Not After : Aug  9 20:41:25 2028 GMT
        Subject: C=US, ST=Montana, L=Bozeman, O=wolfSSL_p521, OU=Client-p521, CN=www.wolfssl.com, emailAddress=info@wolfssl.com, UID=wolfSSL
        Subject Public Key Info:
            Public Key Algorithm: id-ecPublicKey
                Public-Key: (521 bit)
                pub:
                    04:01:62:6e:f1:00:ec:d8:99:58:9b:80:6b:fe:2c:
                    f1:b2:f0:c8:48:df:ac:d2:3b:71:29:ab:f0:66:63:
                    d8:8e:b5:c8:c2:fc:99:44:e2:45:b1:5a:7b:b9:73:
                    01:da:79:ec:9c:26:27:34:45:26:d5:89:4b:44:fe:
                    69:4e:72:14:e3:8b:bc:00:0f:09:a2:03:c3:5a:dc:
                    95:82:f6:f9:f6:9c:ff:b5:6b:75:95:4b:a4:28:5d:
                    9e:90:04:d1:c0:1e:d5:fd:43:9e:1e:83:c0:11:2b:
                    2b:07:6d:a9:7a:10:d7:67:e7:51:37:24:d8:bf:03:
                    0d:8b:b5:40:5c:4f:d6:13:73:42:bc:91:d9
                ASN1 OID: secp521r1
                NIST CURVE: P-521
        X509v3 extensions:
            X509v3 Subject Key Identifier: 
                20:E1:BF:57:E5:F3:C3:0C:72:84:6A:C6:DF:BC:22:D0:B7:25:E5:A4
            X509v3 Authority Key Identifier: 
                keyid:20:E1:BF:57:E5:F3:C3:0C:72:84:6A:C6:DF:BC:22:D0:B7:25:E5:A4
                DirName:/C=US/ST=Montana/L=Bozeman/O=wolfSSL_p521/OU=Client-p521/CN=www.wolfssl.com/emailAddress=info@wolfssl.com/UID=wolfSSL
                serial:2C:2E:C4:96:0C:96:06:56:AC:14:E5:3A:34:0B:AA:2E:A2:FD:18:79
            X509v3 Basic Constraints: 
                CA:TRUE
            X509v3 Subject Alternative Name: 
                DNS:example.com, IP Address:127.0.0.1
            X509v3 Extended Key Usage: 
                TLS Web Server Authentication, TLS Web Client Authentication
    Signature Algorithm: ecdsa-with-SHA256
    Signature Value:
        30:81:87:02:41:49:75:9d:43:65:4f:7b:16:0d:04:eb:f4:9d:
        97:21:cc:55:d7:ed:da:3e:a4:ec:5a:1d:9f:3a:1f:18:6f:40:
        02:fa:33:94:d5:d0:6b:c2:d2:3d:f5:d8:30:ff:cd:cc:57:10:
        43:e9:1f:c5:2a:75:ad:04:2b:1a:4e:fe:76:94:00:04:02:42:
        01:3e:a6:b1:e9:98:77:4f:7d:d2:5c:be:2a:e5:ed:1b:0a:ec:
        3c:7c:2f:8c:5e:22:34:6a:58:0b:28:4e:9c:d6:2e:b3:9e:f3:
        09:e3:c7:4e:8b:b9:bf:85:c5:c4:a1:fc:ce:e0:8d:27:ee:23:
        fe:02:83:a4:c6:9c:54:7b:11:e0:51:91
-----BEGIN CERTIFICATE-----
MIIEVDCCA7agAwIBAgIULC7ElgyWBlasFOU6NAuqLqL9GHkwCgYIKoZIzj0EAwIw
gbIxCzAJBgNVBAYTAlVTMRAwDgYDVQQIDAdNb250YW5hMRAwDgYDVQQHDAdCb3pl
bWFuMRUwEwYDVQQKDAx3b2xmU1NMX3A1MjExFDASBgNVBAsMC0NsaWVudC1wNTIx
MRgwFgYDVQQDDA93d3cud29sZnNzbC5jb20xHzAdBgkqhkiG9w0BCQEWEGluZm9A
d29sZnNzbC5jb20xFzAVBgoJkiaJk/IsZAEBDAd3b2xmU1NMMB4XDTI1MTExMzIw
NDEyNVoXDTI4MDgwOTIwNDEyNVowgbIxCzAJBgNVBAYTAlVTMRAwDgYDVQQIDAdN
b250YW5hMRAwDgYDVQQHDAdCb3plbWFuMRUwEwYDVQQKDAx3b2xmU1NMX3A1MjEx
FDASBgNVBAsMC0NsaWVudC1wNTIxMRgwFgYDVQQDDA93d3cud29sZnNzbC5jb20x
HzAdBgkqhkiG9w0BCQEWEGluZm9Ad29sZnNzbC5jb20xFzAVBgoJkiaJk/IsZAEB
DAd3b2xmU1NMMIGbMBAGByqGSM49AgEGBSuBBAAjA4GGAAQBYm7xAOzYmVibgGv+
LPGy8MhI36zSO3Epq/BmY9iOtcjC/JlE4kWxWnu5cwHaeeycJic0RSbViUtE/mlO
chTji7wADwmiA8Na3JWC9vn2nP+1a3WVS6QoXZ6QBNHAHtX9Q54eg8ARKysHbal6
ENdn51E3JNi/Aw2LtUBcT9YTc0K8kdmjggFjMIIBXzAdBgNVHQ4EFgQUIOG/V+Xz
wwxyhGrG37wi0Lcl5aQwgfIGA1UdIwSB6jCB54AUIOG/V+XzwwxyhGrG37wi0Lcl
5aShgbikgbUwgbIxCzAJBgNVBAYTAlVTMRAwDgYDVQQIDAdNb250YW5hMRAwDgYD
VQQHDAdCb3plbWFuMRUwEwYDVQQKDAx3b2xmU1NMX3A1MjExFDASBgNVBAsMC0Ns
aWVudC1wNTIxMRgwFgYDVQQDDA93d3cud29sZnNzbC5jb20xHzAdBgkqhkiG9w0B
CQEWEGluZm9Ad29sZnNzbC5jb20xFzAVBgoJkiaJk/IsZAEBDAd3b2xmU1NMghQs
LsSWDJYGVqwU5To0C6ouov0YeTAMBgNVHRMEBTADAQH/MBwGA1UdEQQVMBOCC2V4
YW1wbGUuY29thwR/AAABMB0GA1UdJQQWMBQGCCsGAQUFBwMBBggrBgEFBQcDAjAK
BggqhkjOPQQDAgOBiwAwgYcCQUl1nUNlT3sWDQTr9J2XIcxV1+3aPqTsWh2fOh8Y
b0AC+jOU1dBrwtI99dgw/83MVxBD6R/FKnWtBCsaTv52lAAEAkIBPqax6Zh3T33S
XL4q5e0bCuw8fC+MXiI0algLKE6c1i6znvMJ48dOi7m/hcXEofzO4I0n7iP+AoOk
xpxUexHgUZE=
-----END CERTIFICATE-----
