Certificate:
    Data:
        Version: 3 (0x2)
        Serial Number:
            41:d5:90:0a:8b:ab:9e:c5:35:4c:33:94:58:48:fd:04:38:10:b7:ac
        Signature Algorithm: ecdsa-with-SHA256
        Issuer: C = US, ST = Montana, L = Bozeman, O = wolfSSL_p521, OU = Client-p521, CN = www.wolfssl.com, emailAddress = info@wolfssl.com
        Validity
            Not Before: Dec 20 23:07:25 2021 GMT
            Not After : Sep 15 23:07:25 2024 GMT
        Subject: C = US, ST = Montana, L = Bozeman, O = wolfSSL_p521, OU = Client-p521, CN = www.wolfssl.com, emailAddress = info@wolfssl.com
        Subject Public Key Info:
            Public Key Algorithm: id-ecPublicKey
                Public-Key: (521 bit)
                pub:
                    04:01:62:6e:f1:00:ec:d8:99:58:9b:80:6b:fe:2c:
                    f1:b2:f0:c8:48:df:ac:d2:3b:71:29:ab:f0:66:63:
                    d8:8e:b5:c8:c2:fc:99:44:e2:45:b1:5a:7b:b9:73:
                    01:da:79:ec:9c:26:27:34:45:26:d5:89:4b:44:fe:
                    69:4e:72:14:e3:8b:bc:00:0f:09:a2:03:c3:5a:dc:
                    95:82:f6:f9:f6:9c:ff:b5:6b:75:95:4b:a4:28:5d:
                    9e:90:04:d1:c0:1e:d5:fd:43:9e:1e:83:c0:11:2b:
                    2b:07:6d:a9:7a:10:d7:67:e7:51:37:24:d8:bf:03:
                    0d:8b:b5:40:5c:4f:d6:13:73:42:bc:91:d9
                ASN1 OID: secp521r1
                NIST CURVE: P-521
        X509v3 extensions:
            X509v3 Subject Key Identifier: 
                20:E1:BF:57:E5:F3:C3:0C:72:84:6A:C6:DF:BC:22:D0:B7:25:E5:A4
            X509v3 Authority Key Identifier: 
                keyid:20:E1:BF:57:E5:F3:C3:0C:72:84:6A:C6:DF:BC:22:D0:B7:25:E5:A4
                DirName:/C=US/ST=Montana/L=Bozeman/O=wolfSSL_p521/OU=Client-p521/CN=www.wolfssl.com/emailAddress=info@wolfssl.com
                serial:41:D5:90:0A:8B:AB:9E:C5:35:4C:33:94:58:48:FD:04:38:10:B7:AC

            X509v3 Basic Constraints: 
                CA:TRUE
            X509v3 Subject Alternative Name: 
                DNS:example.com, IP Address:127.0.0.1
            X509v3 Extended Key Usage: 
                TLS Web Server Authentication, TLS Web Client Authentication
    Signature Algorithm: ecdsa-with-SHA256
         30:81:87:02:41:5e:95:d3:c6:5c:d1:15:37:81:57:e3:ab:ea:
         78:20:06:9d:5a:c3:53:c6:df:a7:2c:a3:91:14:f2:49:f1:7c:
         65:e0:62:1a:d3:c3:19:5b:1e:6c:d7:2c:01:d8:01:b9:2a:2d:
         ac:ad:e0:18:cb:3d:a2:8b:bc:96:ea:8c:78:e0:ea:44:02:42:
         01:69:c9:f9:f5:8b:82:d6:8e:77:4e:c6:14:8b:ba:c4:e2:8b:
         a5:a7:59:08:e1:b4:48:e2:21:ec:1d:61:d8:32:94:fd:3e:5c:
         b8:97:4a:e5:ef:f4:04:16:09:22:fc:c4:4c:af:e8:13:37:fe:
         68:a1:5f:e6:49:ba:fc:9b:13:3b:f7:2c
-----BEGIN CERTIFICATE-----
MIIECTCCA2ugAwIBAgIUQdWQCournsU1TDOUWEj9BDgQt6wwCgYIKoZIzj0EAwIw
gZkxCzAJBgNVBAYTAlVTMRAwDgYDVQQIDAdNb250YW5hMRAwDgYDVQQHDAdCb3pl
bWFuMRUwEwYDVQQKDAx3b2xmU1NMX3A1MjExFDASBgNVBAsMC0NsaWVudC1wNTIx
MRgwFgYDVQQDDA93d3cud29sZnNzbC5jb20xHzAdBgkqhkiG9w0BCQEWEGluZm9A
d29sZnNzbC5jb20wHhcNMjExMjIwMjMwNzI1WhcNMjQwOTE1MjMwNzI1WjCBmTEL
MAkGA1UEBhMCVVMxEDAOBgNVBAgMB01vbnRhbmExEDAOBgNVBAcMB0JvemVtYW4x
FTATBgNVBAoMDHdvbGZTU0xfcDUyMTEUMBIGA1UECwwLQ2xpZW50LXA1MjExGDAW
BgNVBAMMD3d3dy53b2xmc3NsLmNvbTEfMB0GCSqGSIb3DQEJARYQaW5mb0B3b2xm
c3NsLmNvbTCBmzAQBgcqhkjOPQIBBgUrgQQAIwOBhgAEAWJu8QDs2JlYm4Br/izx
svDISN+s0jtxKavwZmPYjrXIwvyZROJFsVp7uXMB2nnsnCYnNEUm1YlLRP5pTnIU
44u8AA8JogPDWtyVgvb59pz/tWt1lUukKF2ekATRwB7V/UOeHoPAESsrB22pehDX
Z+dRNyTYvwMNi7VAXE/WE3NCvJHZo4IBSjCCAUYwHQYDVR0OBBYEFCDhv1fl88MM
coRqxt+8ItC3JeWkMIHZBgNVHSMEgdEwgc6AFCDhv1fl88MMcoRqxt+8ItC3JeWk
oYGfpIGcMIGZMQswCQYDVQQGEwJVUzEQMA4GA1UECAwHTW9udGFuYTEQMA4GA1UE
BwwHQm96ZW1hbjEVMBMGA1UECgwMd29sZlNTTF9wNTIxMRQwEgYDVQQLDAtDbGll
bnQtcDUyMTEYMBYGA1UEAwwPd3d3LndvbGZzc2wuY29tMR8wHQYJKoZIhvcNAQkB
FhBpbmZvQHdvbGZzc2wuY29tghRB1ZAKi6uexTVMM5RYSP0EOBC3rDAMBgNVHRME
BTADAQH/MBwGA1UdEQQVMBOCC2V4YW1wbGUuY29thwR/AAABMB0GA1UdJQQWMBQG
CCsGAQUFBwMBBggrBgEFBQcDAjAKBggqhkjOPQQDAgOBiwAwgYcCQV6V08Zc0RU3
gVfjq+p4IAadWsNTxt+nLKORFPJJ8Xxl4GIa08MZWx5s1ywB2AG5Ki2sreAYyz2i
i7yW6ox44OpEAkIBacn59YuC1o53TsYUi7rE4oulp1kI4bRI4iHsHWHYMpT9Ply4
l0rl7/QEFgki/MRMr+gTN/5ooV/mSbr8mxM79yw=
-----END CERTIFICATE-----
