Certificate:
    Data:
        Version: 3 (0x2)
        Serial Number:
            1b:c8:e3:c8:1e:55:b1:f3:3f:1a:d6:06:8c:cf:b4:89:23:2e:7d:32
        Signature Algorithm: ecdsa-with-SHA256
        Issuer: C = US, ST = Montana, L = Bozeman, O = wolfSSL_p521, OU = Client-p521, CN = www.wolfssl.com, emailAddress = info@wolfssl.com, UID = wolfSSL
        Validity
            Not Before: Dec 18 21:25:30 2024 GMT
            Not After : Sep 14 21:25:30 2027 GMT
        Subject: C = US, ST = Montana, L = Bozeman, O = wolfSSL_p521, OU = Client-p521, CN = www.wolfssl.com, emailAddress = info@wolfssl.com, UID = wolfSSL
        Subject Public Key Info:
            Public Key Algorithm: id-ecPublicKey
                Public-Key: (521 bit)
                pub:
                    04:01:62:6e:f1:00:ec:d8:99:58:9b:80:6b:fe:2c:
                    f1:b2:f0:c8:48:df:ac:d2:3b:71:29:ab:f0:66:63:
                    d8:8e:b5:c8:c2:fc:99:44:e2:45:b1:5a:7b:b9:73:
                    01:da:79:ec:9c:26:27:34:45:26:d5:89:4b:44:fe:
                    69:4e:72:14:e3:8b:bc:00:0f:09:a2:03:c3:5a:dc:
                    95:82:f6:f9:f6:9c:ff:b5:6b:75:95:4b:a4:28:5d:
                    9e:90:04:d1:c0:1e:d5:fd:43:9e:1e:83:c0:11:2b:
                    2b:07:6d:a9:7a:10:d7:67:e7:51:37:24:d8:bf:03:
                    0d:8b:b5:40:5c:4f:d6:13:73:42:bc:91:d9
                ASN1 OID: secp521r1
                NIST CURVE: P-521
        X509v3 extensions:
            X509v3 Subject Key Identifier: 
                20:E1:BF:57:E5:F3:C3:0C:72:84:6A:C6:DF:BC:22:D0:B7:25:E5:A4
            X509v3 Authority Key Identifier: 
                keyid:20:E1:BF:57:E5:F3:C3:0C:72:84:6A:C6:DF:BC:22:D0:B7:25:E5:A4
                DirName:/C=US/ST=Montana/L=Bozeman/O=wolfSSL_p521/OU=Client-p521/CN=www.wolfssl.com/emailAddress=info@wolfssl.com/UID=wolfSSL
                serial:1B:C8:E3:C8:1E:55:B1:F3:3F:1A:D6:06:8C:CF:B4:89:23:2E:7D:32
            X509v3 Basic Constraints: 
                CA:TRUE
            X509v3 Subject Alternative Name: 
                DNS:example.com, IP Address:127.0.0.1
            X509v3 Extended Key Usage: 
                TLS Web Server Authentication, TLS Web Client Authentication
    Signature Algorithm: ecdsa-with-SHA256
    Signature Value:
        30:81:88:02:42:01:bc:ad:29:87:4d:cb:7e:28:2c:d6:59:9f:
        bd:5c:bd:64:c2:5c:77:cc:af:05:31:23:c3:90:52:a9:f0:4b:
        d0:9f:98:e0:fa:a7:9f:e3:2a:d7:a4:76:01:4a:8c:fe:56:fd:
        71:90:ef:a4:fe:ef:db:2c:78:b9:92:83:c7:2e:68:b4:fd:02:
        42:01:31:25:21:60:4b:bd:ca:42:a1:fa:40:33:ad:ad:5d:f9:
        71:c0:24:23:57:0d:ca:4e:f0:9e:ba:ac:aa:15:13:e9:91:4f:
        c9:98:28:c4:63:ea:ec:d5:92:7c:09:e1:82:2f:8e:68:18:da:
        87:83:89:a6:ae:cb:5c:2f:81:7e:34:1f:99
-----BEGIN CERTIFICATE-----
MIIEVTCCA7agAwIBAgIUG8jjyB5VsfM/GtYGjM+0iSMufTIwCgYIKoZIzj0EAwIw
gbIxCzAJBgNVBAYTAlVTMRAwDgYDVQQIDAdNb250YW5hMRAwDgYDVQQHDAdCb3pl
bWFuMRUwEwYDVQQKDAx3b2xmU1NMX3A1MjExFDASBgNVBAsMC0NsaWVudC1wNTIx
MRgwFgYDVQQDDA93d3cud29sZnNzbC5jb20xHzAdBgkqhkiG9w0BCQEWEGluZm9A
d29sZnNzbC5jb20xFzAVBgoJkiaJk/IsZAEBDAd3b2xmU1NMMB4XDTI0MTIxODIx
MjUzMFoXDTI3MDkxNDIxMjUzMFowgbIxCzAJBgNVBAYTAlVTMRAwDgYDVQQIDAdN
b250YW5hMRAwDgYDVQQHDAdCb3plbWFuMRUwEwYDVQQKDAx3b2xmU1NMX3A1MjEx
FDASBgNVBAsMC0NsaWVudC1wNTIxMRgwFgYDVQQDDA93d3cud29sZnNzbC5jb20x
HzAdBgkqhkiG9w0BCQEWEGluZm9Ad29sZnNzbC5jb20xFzAVBgoJkiaJk/IsZAEB
DAd3b2xmU1NMMIGbMBAGByqGSM49AgEGBSuBBAAjA4GGAAQBYm7xAOzYmVibgGv+
LPGy8MhI36zSO3Epq/BmY9iOtcjC/JlE4kWxWnu5cwHaeeycJic0RSbViUtE/mlO
chTji7wADwmiA8Na3JWC9vn2nP+1a3WVS6QoXZ6QBNHAHtX9Q54eg8ARKysHbal6
ENdn51E3JNi/Aw2LtUBcT9YTc0K8kdmjggFjMIIBXzAdBgNVHQ4EFgQUIOG/V+Xz
wwxyhGrG37wi0Lcl5aQwgfIGA1UdIwSB6jCB54AUIOG/V+XzwwxyhGrG37wi0Lcl
5aShgbikgbUwgbIxCzAJBgNVBAYTAlVTMRAwDgYDVQQIDAdNb250YW5hMRAwDgYD
VQQHDAdCb3plbWFuMRUwEwYDVQQKDAx3b2xmU1NMX3A1MjExFDASBgNVBAsMC0Ns
aWVudC1wNTIxMRgwFgYDVQQDDA93d3cud29sZnNzbC5jb20xHzAdBgkqhkiG9w0B
CQEWEGluZm9Ad29sZnNzbC5jb20xFzAVBgoJkiaJk/IsZAEBDAd3b2xmU1NMghQb
yOPIHlWx8z8a1gaMz7SJIy59MjAMBgNVHRMEBTADAQH/MBwGA1UdEQQVMBOCC2V4
YW1wbGUuY29thwR/AAABMB0GA1UdJQQWMBQGCCsGAQUFBwMBBggrBgEFBQcDAjAK
BggqhkjOPQQDAgOBjAAwgYgCQgG8rSmHTct+KCzWWZ+9XL1kwlx3zK8FMSPDkFKp
8EvQn5jg+qef4yrXpHYBSoz+Vv1xkO+k/u/bLHi5koPHLmi0/QJCATElIWBLvcpC
ofpAM62tXflxwCQjVw3KTvCeuqyqFRPpkU/JmCjEY+rs1ZJ8CeGCL45oGNqHg4mm
rstcL4F+NB+Z
-----END CERTIFICATE-----
