Certificate:
    Data:
        Version: 3 (0x2)
        Serial Number:
            6b:ea:a1:c5:c4:92:84:7d:2c:99:a0:10:51:6b:7c:7b:0b:e5:46:7d
        Signature Algorithm: ecdsa-with-SHA256
        Issuer: C = US, ST = Montana, L = Bozeman, O = wolfSSL_p521, OU = Client-p521, CN = www.wolfssl.com, emailAddress = info@wolfssl.com, UID = wolfSSL
        Validity
            Not Before: Feb 15 12:50:25 2022 GMT
            Not After : Nov 11 12:50:25 2024 GMT
        Subject: C = US, ST = Montana, L = Bozeman, O = wolfSSL_p521, OU = Client-p521, CN = www.wolfssl.com, emailAddress = info@wolfssl.com, UID = wolfSSL
        Subject Public Key Info:
            Public Key Algorithm: id-ecPublicKey
                Public-Key: (521 bit)
                pub:
                    04:01:62:6e:f1:00:ec:d8:99:58:9b:80:6b:fe:2c:
                    f1:b2:f0:c8:48:df:ac:d2:3b:71:29:ab:f0:66:63:
                    d8:8e:b5:c8:c2:fc:99:44:e2:45:b1:5a:7b:b9:73:
                    01:da:79:ec:9c:26:27:34:45:26:d5:89:4b:44:fe:
                    69:4e:72:14:e3:8b:bc:00:0f:09:a2:03:c3:5a:dc:
                    95:82:f6:f9:f6:9c:ff:b5:6b:75:95:4b:a4:28:5d:
                    9e:90:04:d1:c0:1e:d5:fd:43:9e:1e:83:c0:11:2b:
                    2b:07:6d:a9:7a:10:d7:67:e7:51:37:24:d8:bf:03:
                    0d:8b:b5:40:5c:4f:d6:13:73:42:bc:91:d9
                ASN1 OID: secp521r1
                NIST CURVE: P-521
        X509v3 extensions:
            X509v3 Subject Key Identifier: 
                20:E1:BF:57:E5:F3:C3:0C:72:84:6A:C6:DF:BC:22:D0:B7:25:E5:A4
            X509v3 Authority Key Identifier: 
                keyid:20:E1:BF:57:E5:F3:C3:0C:72:84:6A:C6:DF:BC:22:D0:B7:25:E5:A4
                DirName:/C=US/ST=Montana/L=Bozeman/O=wolfSSL_p521/OU=Client-p521/CN=www.wolfssl.com/emailAddress=info@wolfssl.com/UID=wolfSSL
                serial:6B:EA:A1:C5:C4:92:84:7D:2C:99:A0:10:51:6B:7C:7B:0B:E5:46:7D

            X509v3 Basic Constraints: 
                CA:TRUE
            X509v3 Subject Alternative Name: 
                DNS:example.com, IP Address:127.0.0.1
            X509v3 Extended Key Usage: 
                TLS Web Server Authentication, TLS Web Client Authentication
    Signature Algorithm: ecdsa-with-SHA256
         30:81:87:02:42:00:b6:7e:39:d4:8d:3f:1c:2e:2e:d5:71:5b:
         8e:0f:bb:98:a0:bc:d2:49:ef:69:82:26:17:ec:29:bd:ba:c5:
         ed:98:e5:b5:d4:a5:3f:da:5e:d6:4f:89:bf:8b:e4:35:f1:b4:
         ba:1f:2f:5d:d0:b7:18:e0:73:5f:bb:cb:ba:e8:ac:ff:12:02:
         41:66:13:45:86:61:ed:14:80:ee:68:8d:e8:44:6a:36:29:63:
         38:c5:95:08:4b:38:c8:9b:d5:de:76:e5:7b:7a:70:58:be:eb:
         6c:4e:ae:a7:22:d9:58:d9:4c:09:4d:8d:a0:8c:12:b8:d4:cc:
         a9:f1:ca:a1:8e:b6:4d:19:ca:18:0a:5f
-----BEGIN CERTIFICATE-----
MIIEVDCCA7agAwIBAgIUa+qhxcSShH0smaAQUWt8ewvlRn0wCgYIKoZIzj0EAwIw
gbIxCzAJBgNVBAYTAlVTMRAwDgYDVQQIDAdNb250YW5hMRAwDgYDVQQHDAdCb3pl
bWFuMRUwEwYDVQQKDAx3b2xmU1NMX3A1MjExFDASBgNVBAsMC0NsaWVudC1wNTIx
MRgwFgYDVQQDDA93d3cud29sZnNzbC5jb20xHzAdBgkqhkiG9w0BCQEWEGluZm9A
d29sZnNzbC5jb20xFzAVBgoJkiaJk/IsZAEBDAd3b2xmU1NMMB4XDTIyMDIxNTEy
NTAyNVoXDTI0MTExMTEyNTAyNVowgbIxCzAJBgNVBAYTAlVTMRAwDgYDVQQIDAdN
b250YW5hMRAwDgYDVQQHDAdCb3plbWFuMRUwEwYDVQQKDAx3b2xmU1NMX3A1MjEx
FDASBgNVBAsMC0NsaWVudC1wNTIxMRgwFgYDVQQDDA93d3cud29sZnNzbC5jb20x
HzAdBgkqhkiG9w0BCQEWEGluZm9Ad29sZnNzbC5jb20xFzAVBgoJkiaJk/IsZAEB
DAd3b2xmU1NMMIGbMBAGByqGSM49AgEGBSuBBAAjA4GGAAQBYm7xAOzYmVibgGv+
LPGy8MhI36zSO3Epq/BmY9iOtcjC/JlE4kWxWnu5cwHaeeycJic0RSbViUtE/mlO
chTji7wADwmiA8Na3JWC9vn2nP+1a3WVS6QoXZ6QBNHAHtX9Q54eg8ARKysHbal6
ENdn51E3JNi/Aw2LtUBcT9YTc0K8kdmjggFjMIIBXzAdBgNVHQ4EFgQUIOG/V+Xz
wwxyhGrG37wi0Lcl5aQwgfIGA1UdIwSB6jCB54AUIOG/V+XzwwxyhGrG37wi0Lcl
5aShgbikgbUwgbIxCzAJBgNVBAYTAlVTMRAwDgYDVQQIDAdNb250YW5hMRAwDgYD
VQQHDAdCb3plbWFuMRUwEwYDVQQKDAx3b2xmU1NMX3A1MjExFDASBgNVBAsMC0Ns
aWVudC1wNTIxMRgwFgYDVQQDDA93d3cud29sZnNzbC5jb20xHzAdBgkqhkiG9w0B
CQEWEGluZm9Ad29sZnNzbC5jb20xFzAVBgoJkiaJk/IsZAEBDAd3b2xmU1NMghRr
6qHFxJKEfSyZoBBRa3x7C+VGfTAMBgNVHRMEBTADAQH/MBwGA1UdEQQVMBOCC2V4
YW1wbGUuY29thwR/AAABMB0GA1UdJQQWMBQGCCsGAQUFBwMBBggrBgEFBQcDAjAK
BggqhkjOPQQDAgOBiwAwgYcCQgC2fjnUjT8cLi7VcVuOD7uYoLzSSe9pgiYX7Cm9
usXtmOW11KU/2l7WT4m/i+Q18bS6Hy9d0LcY4HNfu8u66Kz/EgJBZhNFhmHtFIDu
aI3oRGo2KWM4xZUISzjIm9XeduV7enBYvutsTq6nItlY2UwJTY2gjBK41Myp8cqh
jrZNGcoYCl8=
-----END CERTIFICATE-----
