Certificate:
    Data:
        Version: 3 (0x2)
        Serial Number:
            23:0c:f9:b8:9a:a1:1d:4f:ec:23:8f:4b:f2:20:5d:7d:ac:43:4e:98
        Signature Algorithm: ecdsa-with-SHA256
        Issuer: C = US, ST = Montana, L = Bozeman, O = wolfSSL_P521, OU = Root-P521, CN = www.wolfssl.com, emailAddress = info@wolfssl.com
        Validity
            Not Before: Sep 14 23:57:18 2020 GMT
            Not After : Jun 11 23:57:18 2023 GMT
        Subject: C = US, ST = Montana, L = Bozeman, O = wolfSSL_P521, OU = Root-P521, CN = www.wolfssl.com, emailAddress = info@wolfssl.com
        Subject Public Key Info:
            Public Key Algorithm: id-ecPublicKey
                Public-Key: (521 bit)
                pub:
                    04:01:41:60:d4:e5:cc:37:db:f4:4c:12:cc:f6:7a:
                    32:cc:f2:1c:b7:53:15:bd:5f:53:ef:cb:73:a9:c8:
                    14:6c:6f:7d:c5:7c:b4:bb:8e:56:c2:43:45:fb:58:
                    1c:c6:45:3d:7f:e5:4e:80:cc:44:c1:06:7a:75:e1:
                    69:c9:8a:a8:01:7a:df:00:44:49:73:9c:2f:50:3f:
                    83:a0:1e:8b:d1:aa:fb:08:0c:90:05:0d:0c:17:31:
                    51:3e:d6:85:3b:09:12:82:d1:a6:08:cd:c8:4f:6a:
                    5a:c8:8c:8e:5d:bf:da:cc:5b:95:a1:e8:5a:29:78:
                    22:b2:ba:49:a1:85:c6:48:8a:71:53:8d:89
                ASN1 OID: secp521r1
                NIST CURVE: P-521
        X509v3 extensions:
            X509v3 Subject Key Identifier: 
                64:A7:68:95:53:33:18:A2:20:92:BC:64:55:A6:AB:CA:76:68:9B:C8
            X509v3 Authority Key Identifier: 
                keyid:64:A7:68:95:53:33:18:A2:20:92:BC:64:55:A6:AB:CA:76:68:9B:C8

            X509v3 Basic Constraints: critical
                CA:TRUE
            X509v3 Key Usage: critical
                Digital Signature, Certificate Sign, CRL Sign
    Signature Algorithm: ecdsa-with-SHA256
         30:81:87:02:41:55:16:68:aa:bc:e1:5e:b6:d3:4c:3e:aa:e6:
         64:e6:ca:94:ec:7d:0f:a8:ea:70:00:33:26:95:27:bd:23:ae:
         69:5b:29:60:28:1e:0d:fa:69:3d:21:36:f9:9d:80:74:b1:ae:
         d0:2c:bd:12:13:ce:98:0c:69:39:ab:99:88:90:17:02:02:42:
         01:f7:b2:95:d0:bf:64:4d:f9:2e:0e:98:40:00:1c:a7:0a:b3:
         2e:09:f8:c2:27:56:3e:b4:2a:c0:fc:1a:3a:87:c6:6f:ac:20:
         d4:df:90:f0:00:88:a0:a6:63:79:74:9c:91:c0:ce:7c:21:6b:
         65:64:a8:fb:83:48:78:eb:78:e0:51:95
-----BEGIN CERTIFICATE-----
MIIDHDCCAn6gAwIBAgIUIwz5uJqhHU/sI49L8iBdfaxDTpgwCgYIKoZIzj0EAwIw
gZcxCzAJBgNVBAYTAlVTMRAwDgYDVQQIDAdNb250YW5hMRAwDgYDVQQHDAdCb3pl
bWFuMRUwEwYDVQQKDAx3b2xmU1NMX1A1MjExEjAQBgNVBAsMCVJvb3QtUDUyMTEY
MBYGA1UEAwwPd3d3LndvbGZzc2wuY29tMR8wHQYJKoZIhvcNAQkBFhBpbmZvQHdv
bGZzc2wuY29tMB4XDTIwMDkxNDIzNTcxOFoXDTIzMDYxMTIzNTcxOFowgZcxCzAJ
BgNVBAYTAlVTMRAwDgYDVQQIDAdNb250YW5hMRAwDgYDVQQHDAdCb3plbWFuMRUw
EwYDVQQKDAx3b2xmU1NMX1A1MjExEjAQBgNVBAsMCVJvb3QtUDUyMTEYMBYGA1UE
AwwPd3d3LndvbGZzc2wuY29tMR8wHQYJKoZIhvcNAQkBFhBpbmZvQHdvbGZzc2wu
Y29tMIGbMBAGByqGSM49AgEGBSuBBAAjA4GGAAQBQWDU5cw32/RMEsz2ejLM8hy3
UxW9X1Pvy3OpyBRsb33FfLS7jlbCQ0X7WBzGRT1/5U6AzETBBnp14WnJiqgBet8A
RElznC9QP4OgHovRqvsIDJAFDQwXMVE+1oU7CRKC0aYIzchPalrIjI5dv9rMW5Wh
6FopeCKyukmhhcZIinFTjYmjYzBhMB0GA1UdDgQWBBRkp2iVUzMYoiCSvGRVpqvK
dmibyDAfBgNVHSMEGDAWgBRkp2iVUzMYoiCSvGRVpqvKdmibyDAPBgNVHRMBAf8E
BTADAQH/MA4GA1UdDwEB/wQEAwIBhjAKBggqhkjOPQQDAgOBiwAwgYcCQVUWaKq8
4V6200w+quZk5sqU7H0PqOpwADMmlSe9I65pWylgKB4N+mk9ITb5nYB0sa7QLL0S
E86YDGk5q5mIkBcCAkIB97KV0L9kTfkuDphAABynCrMuCfjCJ1Y+tCrA/Bo6h8Zv
rCDU35DwAIigpmN5dJyRwM58IWtlZKj7g0h463jgUZU=
-----END CERTIFICATE-----
