Certificate:
    Data:
        Version: 3 (0x2)
        Serial Number:
            48:dd:b1:42:ba:84:ed:4d:69:b4:b3:42:59:34:e0:c9:04:e0:66:2c
        Signature Algorithm: ecdsa-with-SHA256
        Issuer: C=US, ST=Montana, L=Bozeman, O=wolfSSL_P521, OU=Root-P521, CN=www.wolfssl.com, emailAddress=info@wolfssl.com
        Validity
            Not Before: Nov 13 20:41:23 2025 GMT
            Not After : Aug  9 20:41:23 2028 GMT
        Subject: C=US, ST=Montana, L=Bozeman, O=wolfSSL_P521, OU=Root-P521, CN=www.wolfssl.com, emailAddress=info@wolfssl.com
        Subject Public Key Info:
            Public Key Algorithm: id-ecPublicKey
                Public-Key: (521 bit)
                pub:
                    04:01:41:60:d4:e5:cc:37:db:f4:4c:12:cc:f6:7a:
                    32:cc:f2:1c:b7:53:15:bd:5f:53:ef:cb:73:a9:c8:
                    14:6c:6f:7d:c5:7c:b4:bb:8e:56:c2:43:45:fb:58:
                    1c:c6:45:3d:7f:e5:4e:80:cc:44:c1:06:7a:75:e1:
                    69:c9:8a:a8:01:7a:df:00:44:49:73:9c:2f:50:3f:
                    83:a0:1e:8b:d1:aa:fb:08:0c:90:05:0d:0c:17:31:
                    51:3e:d6:85:3b:09:12:82:d1:a6:08:cd:c8:4f:6a:
                    5a:c8:8c:8e:5d:bf:da:cc:5b:95:a1:e8:5a:29:78:
                    22:b2:ba:49:a1:85:c6:48:8a:71:53:8d:89
                ASN1 OID: secp521r1
                NIST CURVE: P-521
        X509v3 extensions:
            X509v3 Subject Key Identifier: 
                64:A7:68:95:53:33:18:A2:20:92:BC:64:55:A6:AB:CA:76:68:9B:C8
            X509v3 Authority Key Identifier: 
                64:A7:68:95:53:33:18:A2:20:92:BC:64:55:A6:AB:CA:76:68:9B:C8
            X509v3 Basic Constraints: critical
                CA:TRUE
            X509v3 Key Usage: critical
                Digital Signature, Certificate Sign, CRL Sign
    Signature Algorithm: ecdsa-with-SHA256
    Signature Value:
        30:81:88:02:42:01:d4:70:36:54:ed:53:2a:d7:3a:18:30:e6:
        c2:69:40:ca:66:0d:47:18:8e:58:97:e4:f9:28:a2:11:03:96:
        13:c3:11:2e:ed:7c:1b:4b:07:81:14:53:88:d7:4b:47:16:a2:
        78:00:d6:98:3a:23:0d:2c:a9:00:da:b6:4a:48:76:de:04:02:
        42:01:8e:1e:4d:13:66:29:e2:ca:46:fa:c3:9f:07:fa:77:58:
        aa:8f:d8:f5:e3:ad:df:e0:f8:f4:c9:ef:e5:9b:f2:66:a4:e6:
        a1:fb:df:e6:14:58:23:e1:c1:9b:63:cb:16:c5:2b:d5:3f:c4:
        6e:37:73:2e:1e:dc:fb:1d:11:eb:06:bf:0d
-----BEGIN CERTIFICATE-----
MIIDHTCCAn6gAwIBAgIUSN2xQrqE7U1ptLNCWTTgyQTgZiwwCgYIKoZIzj0EAwIw
gZcxCzAJBgNVBAYTAlVTMRAwDgYDVQQIDAdNb250YW5hMRAwDgYDVQQHDAdCb3pl
bWFuMRUwEwYDVQQKDAx3b2xmU1NMX1A1MjExEjAQBgNVBAsMCVJvb3QtUDUyMTEY
MBYGA1UEAwwPd3d3LndvbGZzc2wuY29tMR8wHQYJKoZIhvcNAQkBFhBpbmZvQHdv
bGZzc2wuY29tMB4XDTI1MTExMzIwNDEyM1oXDTI4MDgwOTIwNDEyM1owgZcxCzAJ
BgNVBAYTAlVTMRAwDgYDVQQIDAdNb250YW5hMRAwDgYDVQQHDAdCb3plbWFuMRUw
EwYDVQQKDAx3b2xmU1NMX1A1MjExEjAQBgNVBAsMCVJvb3QtUDUyMTEYMBYGA1UE
AwwPd3d3LndvbGZzc2wuY29tMR8wHQYJKoZIhvcNAQkBFhBpbmZvQHdvbGZzc2wu
Y29tMIGbMBAGByqGSM49AgEGBSuBBAAjA4GGAAQBQWDU5cw32/RMEsz2ejLM8hy3
UxW9X1Pvy3OpyBRsb33FfLS7jlbCQ0X7WBzGRT1/5U6AzETBBnp14WnJiqgBet8A
RElznC9QP4OgHovRqvsIDJAFDQwXMVE+1oU7CRKC0aYIzchPalrIjI5dv9rMW5Wh
6FopeCKyukmhhcZIinFTjYmjYzBhMB0GA1UdDgQWBBRkp2iVUzMYoiCSvGRVpqvK
dmibyDAfBgNVHSMEGDAWgBRkp2iVUzMYoiCSvGRVpqvKdmibyDAPBgNVHRMBAf8E
BTADAQH/MA4GA1UdDwEB/wQEAwIBhjAKBggqhkjOPQQDAgOBjAAwgYgCQgHUcDZU
7VMq1zoYMObCaUDKZg1HGI5Yl+T5KKIRA5YTwxEu7XwbSweBFFOI10tHFqJ4ANaY
OiMNLKkA2rZKSHbeBAJCAY4eTRNmKeLKRvrDnwf6d1iqj9j1463f4Pj0ye/lm/Jm
pOah+9/mFFgj4cGbY8sWxSvVP8RuN3MuHtz7HRHrBr8N
-----END CERTIFICATE-----
