Certificate:
    Data:
        Version: 3 (0x2)
        Serial Number: 9354390136921551540 (0x81d1784491a072b4)
    Signature Algorithm: ecdsa-with-SHA256
        Issuer: C=US, ST=Montana, L=Bozeman, O=wolfSSL_P521, OU=Root-P521, CN=www.wolfssl.com/emailAddress=info@wolfssl.com
        Validity
            Not Before: Feb 10 19:49:53 2021 GMT
            Not After : Nov  7 19:49:53 2023 GMT
        Subject: C=US, ST=Montana, L=Bozeman, O=wolfSSL_P521, OU=Root-P521, CN=www.wolfssl.com/emailAddress=info@wolfssl.com
        Subject Public Key Info:
            Public Key Algorithm: id-ecPublicKey
                Public-Key: (521 bit)
                pub: 
                    04:01:41:60:d4:e5:cc:37:db:f4:4c:12:cc:f6:7a:
                    32:cc:f2:1c:b7:53:15:bd:5f:53:ef:cb:73:a9:c8:
                    14:6c:6f:7d:c5:7c:b4:bb:8e:56:c2:43:45:fb:58:
                    1c:c6:45:3d:7f:e5:4e:80:cc:44:c1:06:7a:75:e1:
                    69:c9:8a:a8:01:7a:df:00:44:49:73:9c:2f:50:3f:
                    83:a0:1e:8b:d1:aa:fb:08:0c:90:05:0d:0c:17:31:
                    51:3e:d6:85:3b:09:12:82:d1:a6:08:cd:c8:4f:6a:
                    5a:c8:8c:8e:5d:bf:da:cc:5b:95:a1:e8:5a:29:78:
                    22:b2:ba:49:a1:85:c6:48:8a:71:53:8d:89
                ASN1 OID: secp521r1
                NIST CURVE: P-521
        X509v3 extensions:
            X509v3 Subject Key Identifier: 
                64:A7:68:95:53:33:18:A2:20:92:BC:64:55:A6:AB:CA:76:68:9B:C8
            X509v3 Authority Key Identifier: 
                keyid:64:A7:68:95:53:33:18:A2:20:92:BC:64:55:A6:AB:CA:76:68:9B:C8

            X509v3 Basic Constraints: critical
                CA:TRUE
            X509v3 Key Usage: critical
                Digital Signature, Certificate Sign, CRL Sign
    Signature Algorithm: ecdsa-with-SHA256
         30:81:88:02:42:01:fe:f6:e7:a7:3f:87:c3:c1:5b:b7:8e:3c:
         f6:cc:3b:d8:8f:47:26:e7:95:00:3a:42:d3:44:68:84:eb:3c:
         6f:4f:6f:f6:29:00:9b:92:34:b1:39:47:83:cf:7e:e0:83:2b:
         75:b6:e1:b6:44:a5:34:af:9d:a8:a2:96:ea:af:ca:32:9d:02:
         42:01:6f:d2:1a:e1:6f:56:95:d5:a7:04:ac:78:42:1a:c5:06:
         11:e1:7c:52:1f:11:ee:e5:a7:3a:29:cc:2d:57:5b:a5:41:e3:
         02:0c:10:2b:3a:53:69:96:97:73:72:6e:60:06:5e:c6:75:3f:
         74:10:55:66:c3:f6:d3:99:2f:ba:de:13:aa
-----BEGIN CERTIFICATE-----
MIIDEjCCAnOgAwIBAgIJAIHReESRoHK0MAoGCCqGSM49BAMCMIGXMQswCQYDVQQG
EwJVUzEQMA4GA1UECAwHTW9udGFuYTEQMA4GA1UEBwwHQm96ZW1hbjEVMBMGA1UE
CgwMd29sZlNTTF9QNTIxMRIwEAYDVQQLDAlSb290LVA1MjExGDAWBgNVBAMMD3d3
dy53b2xmc3NsLmNvbTEfMB0GCSqGSIb3DQEJARYQaW5mb0B3b2xmc3NsLmNvbTAe
Fw0yMTAyMTAxOTQ5NTNaFw0yMzExMDcxOTQ5NTNaMIGXMQswCQYDVQQGEwJVUzEQ
MA4GA1UECAwHTW9udGFuYTEQMA4GA1UEBwwHQm96ZW1hbjEVMBMGA1UECgwMd29s
ZlNTTF9QNTIxMRIwEAYDVQQLDAlSb290LVA1MjExGDAWBgNVBAMMD3d3dy53b2xm
c3NsLmNvbTEfMB0GCSqGSIb3DQEJARYQaW5mb0B3b2xmc3NsLmNvbTCBmzAQBgcq
hkjOPQIBBgUrgQQAIwOBhgAEAUFg1OXMN9v0TBLM9noyzPIct1MVvV9T78tzqcgU
bG99xXy0u45WwkNF+1gcxkU9f+VOgMxEwQZ6deFpyYqoAXrfAERJc5wvUD+DoB6L
0ar7CAyQBQ0MFzFRPtaFOwkSgtGmCM3IT2payIyOXb/azFuVoehaKXgisrpJoYXG
SIpxU42Jo2MwYTAdBgNVHQ4EFgQUZKdolVMzGKIgkrxkVaarynZom8gwHwYDVR0j
BBgwFoAUZKdolVMzGKIgkrxkVaarynZom8gwDwYDVR0TAQH/BAUwAwEB/zAOBgNV
HQ8BAf8EBAMCAYYwCgYIKoZIzj0EAwIDgYwAMIGIAkIB/vbnpz+Hw8Fbt4489sw7
2I9HJueVADpC00RohOs8b09v9ikAm5I0sTlHg89+4IMrdbbhtkSlNK+dqKKW6q/K
Mp0CQgFv0hrhb1aV1acErHhCGsUGEeF8Uh8R7uWnOinMLVdbpUHjAgwQKzpTaZaX
c3JuYAZexnU/dBBVZsP205kvut4Tqg==
-----END CERTIFICATE-----
