Certificate:
    Data:
        Version: 3 (0x2)
        Serial Number:
            51:1e:78:14:46:d1:8b:33:4a:6c:1c:d7:d9:ff:11:df:1d:0c:18:f6
        Signature Algorithm: ecdsa-with-SHA256
        Issuer: C=US, ST=Montana, L=Bozeman, O=wolfSSL_P521, OU=Root-P521, CN=www.wolfssl.com, emailAddress=facts@wolfssl.com
        Validity
            Not Before: Jun 11 21:44:31 2026 GMT
            Not After : Mar  7 21:44:31 2029 GMT
        Subject: C=US, ST=Montana, L=Bozeman, O=wolfSSL_P521, OU=Root-P521, CN=www.wolfssl.com, emailAddress=facts@wolfssl.com
        Subject Public Key Info:
            Public Key Algorithm: id-ecPublicKey
                Public-Key: (521 bit)
                pub:
                    04:01:41:60:d4:e5:cc:37:db:f4:4c:12:cc:f6:7a:
                    32:cc:f2:1c:b7:53:15:bd:5f:53:ef:cb:73:a9:c8:
                    14:6c:6f:7d:c5:7c:b4:bb:8e:56:c2:43:45:fb:58:
                    1c:c6:45:3d:7f:e5:4e:80:cc:44:c1:06:7a:75:e1:
                    69:c9:8a:a8:01:7a:df:00:44:49:73:9c:2f:50:3f:
                    83:a0:1e:8b:d1:aa:fb:08:0c:90:05:0d:0c:17:31:
                    51:3e:d6:85:3b:09:12:82:d1:a6:08:cd:c8:4f:6a:
                    5a:c8:8c:8e:5d:bf:da:cc:5b:95:a1:e8:5a:29:78:
                    22:b2:ba:49:a1:85:c6:48:8a:71:53:8d:89
                ASN1 OID: secp521r1
                NIST CURVE: P-521
        X509v3 extensions:
            X509v3 Subject Key Identifier: 
                64:A7:68:95:53:33:18:A2:20:92:BC:64:55:A6:AB:CA:76:68:9B:C8
            X509v3 Authority Key Identifier: 
                64:A7:68:95:53:33:18:A2:20:92:BC:64:55:A6:AB:CA:76:68:9B:C8
            X509v3 Basic Constraints: critical
                CA:TRUE
            X509v3 Key Usage: critical
                Digital Signature, Certificate Sign, CRL Sign
    Signature Algorithm: ecdsa-with-SHA256
    Signature Value:
        30:81:87:02:42:00:c1:b4:6c:d9:b1:35:28:e5:1e:57:80:0b:
        50:df:49:b3:40:34:14:c9:6e:f5:04:9a:d8:28:48:1e:0b:6a:
        ab:62:66:f8:53:ce:dc:66:e9:cd:61:d2:33:82:d0:87:e9:39:
        54:ee:66:21:38:a3:7e:9d:cf:17:e3:06:96:0f:d5:7c:74:02:
        41:3d:c7:fc:6a:44:f2:86:cc:5c:c0:70:d4:47:08:25:cd:81:
        a3:02:1d:0e:96:43:35:c2:e3:51:ec:20:42:78:3b:b5:71:8d:
        d1:69:e2:d7:b6:c3:25:80:2a:e6:34:b9:dd:59:02:8c:40:24:
        6b:a9:99:81:57:0b:15:0e:ee:de:cf:76
-----BEGIN CERTIFICATE-----
MIIDHjCCAoCgAwIBAgIUUR54FEbRizNKbBzX2f8R3x0MGPYwCgYIKoZIzj0EAwIw
gZgxCzAJBgNVBAYTAlVTMRAwDgYDVQQIDAdNb250YW5hMRAwDgYDVQQHDAdCb3pl
bWFuMRUwEwYDVQQKDAx3b2xmU1NMX1A1MjExEjAQBgNVBAsMCVJvb3QtUDUyMTEY
MBYGA1UEAwwPd3d3LndvbGZzc2wuY29tMSAwHgYJKoZIhvcNAQkBFhFmYWN0c0B3
b2xmc3NsLmNvbTAeFw0yNjA2MTEyMTQ0MzFaFw0yOTAzMDcyMTQ0MzFaMIGYMQsw
CQYDVQQGEwJVUzEQMA4GA1UECAwHTW9udGFuYTEQMA4GA1UEBwwHQm96ZW1hbjEV
MBMGA1UECgwMd29sZlNTTF9QNTIxMRIwEAYDVQQLDAlSb290LVA1MjExGDAWBgNV
BAMMD3d3dy53b2xmc3NsLmNvbTEgMB4GCSqGSIb3DQEJARYRZmFjdHNAd29sZnNz
bC5jb20wgZswEAYHKoZIzj0CAQYFK4EEACMDgYYABAFBYNTlzDfb9EwSzPZ6Mszy
HLdTFb1fU+/Lc6nIFGxvfcV8tLuOVsJDRftYHMZFPX/lToDMRMEGenXhacmKqAF6
3wBESXOcL1A/g6Aei9Gq+wgMkAUNDBcxUT7WhTsJEoLRpgjNyE9qWsiMjl2/2sxb
laHoWil4IrK6SaGFxkiKcVONiaNjMGEwHQYDVR0OBBYEFGSnaJVTMxiiIJK8ZFWm
q8p2aJvIMB8GA1UdIwQYMBaAFGSnaJVTMxiiIJK8ZFWmq8p2aJvIMA8GA1UdEwEB
/wQFMAMBAf8wDgYDVR0PAQH/BAQDAgGGMAoGCCqGSM49BAMCA4GLADCBhwJCAMG0
bNmxNSjlHleAC1DfSbNANBTJbvUEmtgoSB4LaqtiZvhTztxm6c1h0jOC0IfpOVTu
ZiE4o36dzxfjBpYP1Xx0AkE9x/xqRPKGzFzAcNRHCCXNgaMCHQ6WQzXC41HsIEJ4
O7VxjdFp4te2wyWAKuY0ud1ZAoxAJGupmYFXCxUO7t7Pdg==
-----END CERTIFICATE-----
