Certificate:
    Data:
        Version: 3 (0x2)
        Serial Number:
            64:bd:93:4d:73:a4:89:b6:a5:4a:ef:23:28:a3:65:2e:fc:66:9f:a5
        Signature Algorithm: ecdsa-with-SHA256
        Issuer: C = US, ST = Montana, L = Bozeman, O = wolfSSL_P521, OU = Root-P521, CN = www.wolfssl.com, emailAddress = info@wolfssl.com
        Validity
            Not Before: Dec 20 23:07:25 2021 GMT
            Not After : Sep 15 23:07:25 2024 GMT
        Subject: C = US, ST = Montana, L = Bozeman, O = wolfSSL_P521, OU = Root-P521, CN = www.wolfssl.com, emailAddress = info@wolfssl.com
        Subject Public Key Info:
            Public Key Algorithm: id-ecPublicKey
                Public-Key: (521 bit)
                pub:
                    04:01:41:60:d4:e5:cc:37:db:f4:4c:12:cc:f6:7a:
                    32:cc:f2:1c:b7:53:15:bd:5f:53:ef:cb:73:a9:c8:
                    14:6c:6f:7d:c5:7c:b4:bb:8e:56:c2:43:45:fb:58:
                    1c:c6:45:3d:7f:e5:4e:80:cc:44:c1:06:7a:75:e1:
                    69:c9:8a:a8:01:7a:df:00:44:49:73:9c:2f:50:3f:
                    83:a0:1e:8b:d1:aa:fb:08:0c:90:05:0d:0c:17:31:
                    51:3e:d6:85:3b:09:12:82:d1:a6:08:cd:c8:4f:6a:
                    5a:c8:8c:8e:5d:bf:da:cc:5b:95:a1:e8:5a:29:78:
                    22:b2:ba:49:a1:85:c6:48:8a:71:53:8d:89
                ASN1 OID: secp521r1
                NIST CURVE: P-521
        X509v3 extensions:
            X509v3 Subject Key Identifier: 
                64:A7:68:95:53:33:18:A2:20:92:BC:64:55:A6:AB:CA:76:68:9B:C8
            X509v3 Authority Key Identifier: 
                keyid:64:A7:68:95:53:33:18:A2:20:92:BC:64:55:A6:AB:CA:76:68:9B:C8

            X509v3 Basic Constraints: critical
                CA:TRUE
            X509v3 Key Usage: critical
                Digital Signature, Certificate Sign, CRL Sign
    Signature Algorithm: ecdsa-with-SHA256
         30:81:88:02:42:00:8c:f2:37:8c:fd:9e:7e:51:9e:13:db:15:
         41:33:37:64:12:dd:87:aa:69:74:a4:10:76:a5:16:aa:9e:d0:
         f5:75:6c:80:5f:c4:6e:ab:2d:e0:03:92:7e:ed:15:5f:50:f3:
         ea:e4:71:f9:80:1f:d1:ae:79:9a:55:dc:f7:95:8c:3c:80:02:
         42:01:d7:79:e2:a2:85:cc:95:27:e8:b7:a4:66:9c:73:d1:f6:
         a1:56:12:94:75:6a:8d:ec:59:ba:11:75:f1:b1:3e:2b:48:16:
         ea:38:ff:1b:29:94:3e:bc:74:a9:28:93:c2:a0:92:18:55:01:
         0c:de:86:4d:f3:34:39:b8:02:5d:c4:4b:13
-----BEGIN CERTIFICATE-----
MIIDHTCCAn6gAwIBAgIUZL2TTXOkibalSu8jKKNlLvxmn6UwCgYIKoZIzj0EAwIw
gZcxCzAJBgNVBAYTAlVTMRAwDgYDVQQIDAdNb250YW5hMRAwDgYDVQQHDAdCb3pl
bWFuMRUwEwYDVQQKDAx3b2xmU1NMX1A1MjExEjAQBgNVBAsMCVJvb3QtUDUyMTEY
MBYGA1UEAwwPd3d3LndvbGZzc2wuY29tMR8wHQYJKoZIhvcNAQkBFhBpbmZvQHdv
bGZzc2wuY29tMB4XDTIxMTIyMDIzMDcyNVoXDTI0MDkxNTIzMDcyNVowgZcxCzAJ
BgNVBAYTAlVTMRAwDgYDVQQIDAdNb250YW5hMRAwDgYDVQQHDAdCb3plbWFuMRUw
EwYDVQQKDAx3b2xmU1NMX1A1MjExEjAQBgNVBAsMCVJvb3QtUDUyMTEYMBYGA1UE
AwwPd3d3LndvbGZzc2wuY29tMR8wHQYJKoZIhvcNAQkBFhBpbmZvQHdvbGZzc2wu
Y29tMIGbMBAGByqGSM49AgEGBSuBBAAjA4GGAAQBQWDU5cw32/RMEsz2ejLM8hy3
UxW9X1Pvy3OpyBRsb33FfLS7jlbCQ0X7WBzGRT1/5U6AzETBBnp14WnJiqgBet8A
RElznC9QP4OgHovRqvsIDJAFDQwXMVE+1oU7CRKC0aYIzchPalrIjI5dv9rMW5Wh
6FopeCKyukmhhcZIinFTjYmjYzBhMB0GA1UdDgQWBBRkp2iVUzMYoiCSvGRVpqvK
dmibyDAfBgNVHSMEGDAWgBRkp2iVUzMYoiCSvGRVpqvKdmibyDAPBgNVHRMBAf8E
BTADAQH/MA4GA1UdDwEB/wQEAwIBhjAKBggqhkjOPQQDAgOBjAAwgYgCQgCM8jeM
/Z5+UZ4T2xVBMzdkEt2Hqml0pBB2pRaqntD1dWyAX8Ruqy3gA5J+7RVfUPPq5HH5
gB/RrnmaVdz3lYw8gAJCAdd54qKFzJUn6LekZpxz0fahVhKUdWqN7Fm6EXXxsT4r
SBbqOP8bKZQ+vHSpKJPCoJIYVQEM3oZN8zQ5uAJdxEsT
-----END CERTIFICATE-----
