Certificate:
    Data:
        Version: 3 (0x2)
        Serial Number:
            1f:10:99:e4:1c:97:17:5c:b5:32:9e:62:4e:75:a2:0d:2d:30:bf:4a
        Signature Algorithm: ecdsa-with-SHA256
        Issuer: C = US, ST = Montana, L = Bozeman, O = wolfSSL_P521, OU = Root-P521, CN = www.wolfssl.com, emailAddress = info@wolfssl.com
        Validity
            Not Before: Feb 15 12:50:25 2022 GMT
            Not After : Nov 11 12:50:25 2024 GMT
        Subject: C = US, ST = Montana, L = Bozeman, O = wolfSSL_P521, OU = Root-P521, CN = www.wolfssl.com, emailAddress = info@wolfssl.com
        Subject Public Key Info:
            Public Key Algorithm: id-ecPublicKey
                Public-Key: (521 bit)
                pub:
                    04:01:41:60:d4:e5:cc:37:db:f4:4c:12:cc:f6:7a:
                    32:cc:f2:1c:b7:53:15:bd:5f:53:ef:cb:73:a9:c8:
                    14:6c:6f:7d:c5:7c:b4:bb:8e:56:c2:43:45:fb:58:
                    1c:c6:45:3d:7f:e5:4e:80:cc:44:c1:06:7a:75:e1:
                    69:c9:8a:a8:01:7a:df:00:44:49:73:9c:2f:50:3f:
                    83:a0:1e:8b:d1:aa:fb:08:0c:90:05:0d:0c:17:31:
                    51:3e:d6:85:3b:09:12:82:d1:a6:08:cd:c8:4f:6a:
                    5a:c8:8c:8e:5d:bf:da:cc:5b:95:a1:e8:5a:29:78:
                    22:b2:ba:49:a1:85:c6:48:8a:71:53:8d:89
                ASN1 OID: secp521r1
                NIST CURVE: P-521
        X509v3 extensions:
            X509v3 Subject Key Identifier: 
                64:A7:68:95:53:33:18:A2:20:92:BC:64:55:A6:AB:CA:76:68:9B:C8
            X509v3 Authority Key Identifier: 
                keyid:64:A7:68:95:53:33:18:A2:20:92:BC:64:55:A6:AB:CA:76:68:9B:C8

            X509v3 Basic Constraints: critical
                CA:TRUE
            X509v3 Key Usage: critical
                Digital Signature, Certificate Sign, CRL Sign
    Signature Algorithm: ecdsa-with-SHA256
         30:81:88:02:42:01:ec:a8:43:6e:3d:12:f6:51:08:6d:ca:2e:
         5a:04:4e:79:62:58:8f:b0:6c:14:27:4a:be:a9:dd:82:45:c1:
         0d:e7:ee:41:c1:5f:22:ec:86:a2:69:3c:90:c7:a9:39:2b:3e:
         cb:c3:d2:68:43:1d:5e:d2:b5:c1:6e:b5:f1:ae:c6:29:23:02:
         42:01:89:a7:ce:67:11:48:0e:dc:3c:71:52:22:39:a9:1e:a8:
         05:af:d9:48:ee:53:75:d5:2d:f4:e5:1d:c9:aa:c0:1e:bd:4f:
         49:6b:56:1a:89:fe:9d:92:28:ed:b7:7d:3b:9b:87:81:b4:8b:
         91:d4:8e:47:43:e7:d7:6e:ef:d9:80:bf:ee
-----BEGIN CERTIFICATE-----
MIIDHTCCAn6gAwIBAgIUHxCZ5ByXF1y1Mp5iTnWiDS0wv0owCgYIKoZIzj0EAwIw
gZcxCzAJBgNVBAYTAlVTMRAwDgYDVQQIDAdNb250YW5hMRAwDgYDVQQHDAdCb3pl
bWFuMRUwEwYDVQQKDAx3b2xmU1NMX1A1MjExEjAQBgNVBAsMCVJvb3QtUDUyMTEY
MBYGA1UEAwwPd3d3LndvbGZzc2wuY29tMR8wHQYJKoZIhvcNAQkBFhBpbmZvQHdv
bGZzc2wuY29tMB4XDTIyMDIxNTEyNTAyNVoXDTI0MTExMTEyNTAyNVowgZcxCzAJ
BgNVBAYTAlVTMRAwDgYDVQQIDAdNb250YW5hMRAwDgYDVQQHDAdCb3plbWFuMRUw
EwYDVQQKDAx3b2xmU1NMX1A1MjExEjAQBgNVBAsMCVJvb3QtUDUyMTEYMBYGA1UE
AwwPd3d3LndvbGZzc2wuY29tMR8wHQYJKoZIhvcNAQkBFhBpbmZvQHdvbGZzc2wu
Y29tMIGbMBAGByqGSM49AgEGBSuBBAAjA4GGAAQBQWDU5cw32/RMEsz2ejLM8hy3
UxW9X1Pvy3OpyBRsb33FfLS7jlbCQ0X7WBzGRT1/5U6AzETBBnp14WnJiqgBet8A
RElznC9QP4OgHovRqvsIDJAFDQwXMVE+1oU7CRKC0aYIzchPalrIjI5dv9rMW5Wh
6FopeCKyukmhhcZIinFTjYmjYzBhMB0GA1UdDgQWBBRkp2iVUzMYoiCSvGRVpqvK
dmibyDAfBgNVHSMEGDAWgBRkp2iVUzMYoiCSvGRVpqvKdmibyDAPBgNVHRMBAf8E
BTADAQH/MA4GA1UdDwEB/wQEAwIBhjAKBggqhkjOPQQDAgOBjAAwgYgCQgHsqENu
PRL2UQhtyi5aBE55YliPsGwUJ0q+qd2CRcEN5+5BwV8i7IaiaTyQx6k5Kz7Lw9Jo
Qx1e0rXBbrXxrsYpIwJCAYmnzmcRSA7cPHFSIjmpHqgFr9lI7lN11S305R3JqsAe
vU9Ja1Yaif6dkijtt307m4eBtIuR1I5HQ+fXbu/ZgL/u
-----END CERTIFICATE-----
