Certificate:
    Data:
        Version: 3 (0x2)
        Serial Number:
            63:fa:55:13:9f:9d:06:90:6a:76:23:3c:55:b0:95:60:c1:0c:89:08
        Signature Algorithm: ecdsa-with-SHA256
        Issuer: C = US, ST = Montana, L = Bozeman, O = wolfSSL_P521, OU = Root-P521, CN = www.wolfssl.com, emailAddress = info@wolfssl.com
        Validity
            Not Before: Dec 18 21:25:30 2024 GMT
            Not After : Sep 14 21:25:30 2027 GMT
        Subject: C = US, ST = Montana, L = Bozeman, O = wolfSSL_P521, OU = Root-P521, CN = www.wolfssl.com, emailAddress = info@wolfssl.com
        Subject Public Key Info:
            Public Key Algorithm: id-ecPublicKey
                Public-Key: (521 bit)
                pub:
                    04:01:41:60:d4:e5:cc:37:db:f4:4c:12:cc:f6:7a:
                    32:cc:f2:1c:b7:53:15:bd:5f:53:ef:cb:73:a9:c8:
                    14:6c:6f:7d:c5:7c:b4:bb:8e:56:c2:43:45:fb:58:
                    1c:c6:45:3d:7f:e5:4e:80:cc:44:c1:06:7a:75:e1:
                    69:c9:8a:a8:01:7a:df:00:44:49:73:9c:2f:50:3f:
                    83:a0:1e:8b:d1:aa:fb:08:0c:90:05:0d:0c:17:31:
                    51:3e:d6:85:3b:09:12:82:d1:a6:08:cd:c8:4f:6a:
                    5a:c8:8c:8e:5d:bf:da:cc:5b:95:a1:e8:5a:29:78:
                    22:b2:ba:49:a1:85:c6:48:8a:71:53:8d:89
                ASN1 OID: secp521r1
                NIST CURVE: P-521
        X509v3 extensions:
            X509v3 Subject Key Identifier: 
                64:A7:68:95:53:33:18:A2:20:92:BC:64:55:A6:AB:CA:76:68:9B:C8
            X509v3 Authority Key Identifier: 
                64:A7:68:95:53:33:18:A2:20:92:BC:64:55:A6:AB:CA:76:68:9B:C8
            X509v3 Basic Constraints: critical
                CA:TRUE
            X509v3 Key Usage: critical
                Digital Signature, Certificate Sign, CRL Sign
    Signature Algorithm: ecdsa-with-SHA256
    Signature Value:
        30:81:87:02:42:01:85:cb:28:b8:b8:e6:a1:f9:57:26:14:31:
        33:80:0b:1e:04:9a:9a:c9:e6:b1:27:63:69:dd:a2:80:01:98:
        8e:d7:5a:28:c4:9a:53:af:ec:4f:d7:ab:a6:34:36:d0:0c:e7:
        4c:ee:ba:31:ba:97:d2:dd:2f:25:81:7b:71:b1:7e:71:8d:02:
        41:05:13:c5:af:36:03:d6:6e:24:5e:fd:5b:84:6c:cf:de:ae:
        f4:85:de:03:5a:e7:14:ba:b9:65:cc:c3:22:7e:56:58:e8:d4:
        d1:3b:aa:45:3c:5b:78:80:77:0a:0a:a2:58:b6:cd:3e:7e:cf:
        87:21:14:b5:ed:57:89:ba:84:ca:19:39
-----BEGIN CERTIFICATE-----
MIIDHDCCAn6gAwIBAgIUY/pVE5+dBpBqdiM8VbCVYMEMiQgwCgYIKoZIzj0EAwIw
gZcxCzAJBgNVBAYTAlVTMRAwDgYDVQQIDAdNb250YW5hMRAwDgYDVQQHDAdCb3pl
bWFuMRUwEwYDVQQKDAx3b2xmU1NMX1A1MjExEjAQBgNVBAsMCVJvb3QtUDUyMTEY
MBYGA1UEAwwPd3d3LndvbGZzc2wuY29tMR8wHQYJKoZIhvcNAQkBFhBpbmZvQHdv
bGZzc2wuY29tMB4XDTI0MTIxODIxMjUzMFoXDTI3MDkxNDIxMjUzMFowgZcxCzAJ
BgNVBAYTAlVTMRAwDgYDVQQIDAdNb250YW5hMRAwDgYDVQQHDAdCb3plbWFuMRUw
EwYDVQQKDAx3b2xmU1NMX1A1MjExEjAQBgNVBAsMCVJvb3QtUDUyMTEYMBYGA1UE
AwwPd3d3LndvbGZzc2wuY29tMR8wHQYJKoZIhvcNAQkBFhBpbmZvQHdvbGZzc2wu
Y29tMIGbMBAGByqGSM49AgEGBSuBBAAjA4GGAAQBQWDU5cw32/RMEsz2ejLM8hy3
UxW9X1Pvy3OpyBRsb33FfLS7jlbCQ0X7WBzGRT1/5U6AzETBBnp14WnJiqgBet8A
RElznC9QP4OgHovRqvsIDJAFDQwXMVE+1oU7CRKC0aYIzchPalrIjI5dv9rMW5Wh
6FopeCKyukmhhcZIinFTjYmjYzBhMB0GA1UdDgQWBBRkp2iVUzMYoiCSvGRVpqvK
dmibyDAfBgNVHSMEGDAWgBRkp2iVUzMYoiCSvGRVpqvKdmibyDAPBgNVHRMBAf8E
BTADAQH/MA4GA1UdDwEB/wQEAwIBhjAKBggqhkjOPQQDAgOBiwAwgYcCQgGFyyi4
uOah+VcmFDEzgAseBJqayeaxJ2Np3aKAAZiO11ooxJpTr+xP16umNDbQDOdM7rox
upfS3S8lgXtxsX5xjQJBBRPFrzYD1m4kXv1bhGzP3q70hd4DWucUurllzMMiflZY
6NTRO6pFPFt4gHcKCqJYts0+fs+HIRS17VeJuoTKGTk=
-----END CERTIFICATE-----
