Certificate:
    Data:
        Version: 3 (0x2)
        Serial Number: 1 (0x1)
    Signature Algorithm: ecdsa-with-SHA256
        Issuer: C=US, ST=Montana, L=Bozeman, O=wolfSSL_p521, OU=CA-p521, CN=www.wolfssl.com/emailAddress=info@wolfssl.com
        Validity
            Not Before: Feb 10 19:49:53 2021 GMT
            Not After : Nov  7 19:49:53 2023 GMT
        Subject: C=US, ST=Montana, L=Bozeman, O=wolfSSL_p521, OU=Server-p521, CN=www.wolfssl.com/emailAddress=info@wolfssl.com
        Subject Public Key Info:
            Public Key Algorithm: id-ecPublicKey
                Public-Key: (521 bit)
                pub: 
                    04:00:de:70:69:f6:d1:9e:c4:fe:5f:82:52:98:ce:
                    52:c1:6a:4c:12:22:0f:76:88:22:11:a5:0d:a6:02:
                    47:91:ab:79:8d:f6:08:70:2d:20:14:15:df:1b:57:
                    58:b3:51:ab:20:a8:2b:bd:6a:3f:a9:ee:c2:6d:ae:
                    99:44:b4:a1:12:10:70:00:ca:1f:14:1d:b0:e7:0c:
                    41:18:52:37:04:a7:84:53:a1:02:46:93:1f:d5:60:
                    63:a6:2e:7d:8d:ea:3f:e0:5b:e5:c8:6e:1f:a7:d9:
                    a3:59:e5:96:27:22:f4:02:2b:af:5b:78:1f:13:a8:
                    22:8b:ec:ae:01:7d:c0:61:13:a4:35:0a:21
                ASN1 OID: secp521r1
                NIST CURVE: P-521
        X509v3 extensions:
            X509v3 Subject Key Identifier: 
                85:86:9F:AE:73:5F:94:77:27:3B:15:15:C6:79:07:A8:42:4B:1E:F3
            X509v3 Authority Key Identifier: 
                keyid:40:89:1D:30:5E:0C:6E:D5:3D:C6:D5:25:90:DA:B6:42:67:ED:E9:82

            X509v3 Basic Constraints: critical
                CA:FALSE
            X509v3 Key Usage: critical
                Digital Signature, Key Encipherment, Key Agreement
            X509v3 Extended Key Usage: 
                TLS Web Server Authentication
            Netscape Cert Type: 
                SSL Server
    Signature Algorithm: ecdsa-with-SHA256
         30:81:88:02:42:01:47:61:fe:54:a4:3f:84:c7:04:12:32:5f:
         c7:3b:0e:eb:9a:0d:46:be:d4:17:f0:df:e1:6b:a6:a3:00:0a:
         b5:cb:ec:27:c0:f4:4a:5b:50:a9:1c:08:42:83:fa:37:ae:54:
         f6:38:07:aa:46:8b:b4:c1:60:15:c7:e3:da:05:0e:8f:4b:02:
         42:01:9e:ee:b3:90:5f:ff:7a:2e:c7:5c:10:d4:6d:b7:25:55:
         dc:04:96:bd:0a:11:63:fa:26:66:4d:59:68:a1:04:7f:88:29:
         d9:4b:3c:93:21:22:cd:65:b6:a3:b5:74:fd:d5:de:71:07:5b:
         fa:5a:49:ae:e6:da:21:93:fb:f5:90:06:e4
-----BEGIN CERTIFICATE-----
MIIDMTCCApKgAwIBAgIBATAKBggqhkjOPQQDAjCBlTELMAkGA1UEBhMCVVMxEDAO
BgNVBAgMB01vbnRhbmExEDAOBgNVBAcMB0JvemVtYW4xFTATBgNVBAoMDHdvbGZT
U0xfcDUyMTEQMA4GA1UECwwHQ0EtcDUyMTEYMBYGA1UEAwwPd3d3LndvbGZzc2wu
Y29tMR8wHQYJKoZIhvcNAQkBFhBpbmZvQHdvbGZzc2wuY29tMB4XDTIxMDIxMDE5
NDk1M1oXDTIzMTEwNzE5NDk1M1owgZkxCzAJBgNVBAYTAlVTMRAwDgYDVQQIDAdN
b250YW5hMRAwDgYDVQQHDAdCb3plbWFuMRUwEwYDVQQKDAx3b2xmU1NMX3A1MjEx
FDASBgNVBAsMC1NlcnZlci1wNTIxMRgwFgYDVQQDDA93d3cud29sZnNzbC5jb20x
HzAdBgkqhkiG9w0BCQEWEGluZm9Ad29sZnNzbC5jb20wgZswEAYHKoZIzj0CAQYF
K4EEACMDgYYABADecGn20Z7E/l+CUpjOUsFqTBIiD3aIIhGlDaYCR5GreY32CHAt
IBQV3xtXWLNRqyCoK71qP6nuwm2umUS0oRIQcADKHxQdsOcMQRhSNwSnhFOhAkaT
H9VgY6YufY3qP+Bb5chuH6fZo1nllici9AIrr1t4HxOoIovsrgF9wGETpDUKIaOB
iTCBhjAdBgNVHQ4EFgQUhYafrnNflHcnOxUVxnkHqEJLHvMwHwYDVR0jBBgwFoAU
QIkdMF4MbtU9xtUlkNq2Qmft6YIwDAYDVR0TAQH/BAIwADAOBgNVHQ8BAf8EBAMC
A6gwEwYDVR0lBAwwCgYIKwYBBQUHAwEwEQYJYIZIAYb4QgEBBAQDAgZAMAoGCCqG
SM49BAMCA4GMADCBiAJCAUdh/lSkP4THBBIyX8c7DuuaDUa+1Bfw3+FrpqMACrXL
7CfA9EpbUKkcCEKD+jeuVPY4B6pGi7TBYBXH49oFDo9LAkIBnu6zkF//ei7HXBDU
bbclVdwElr0KEWP6JmZNWWihBH+IKdlLPJMhIs1ltqO1dP3V3nEHW/paSa7m2iGT
+/WQBuQ=
-----END CERTIFICATE-----
