Certificate:
    Data:
        Version: 3 (0x2)
        Serial Number: 1 (0x1)
        Signature Algorithm: ecdsa-with-SHA256
        Issuer: C=US, ST=Montana, L=Bozeman, O=wolfSSL_p521, OU=CA-p521, CN=www.wolfssl.com, emailAddress=facts@wolfssl.com, UID=wolfSSL
        Validity
            Not Before: Jun 11 21:44:31 2026 GMT
            Not After : Mar  7 21:44:31 2029 GMT
        Subject: C=US, ST=Montana, L=Bozeman, O=wolfSSL_p521, OU=Server-p521, CN=www.wolfssl.com, emailAddress=facts@wolfssl.com, UID=wolfSSL
        Subject Public Key Info:
            Public Key Algorithm: id-ecPublicKey
                Public-Key: (521 bit)
                pub:
                    04:00:de:70:69:f6:d1:9e:c4:fe:5f:82:52:98:ce:
                    52:c1:6a:4c:12:22:0f:76:88:22:11:a5:0d:a6:02:
                    47:91:ab:79:8d:f6:08:70:2d:20:14:15:df:1b:57:
                    58:b3:51:ab:20:a8:2b:bd:6a:3f:a9:ee:c2:6d:ae:
                    99:44:b4:a1:12:10:70:00:ca:1f:14:1d:b0:e7:0c:
                    41:18:52:37:04:a7:84:53:a1:02:46:93:1f:d5:60:
                    63:a6:2e:7d:8d:ea:3f:e0:5b:e5:c8:6e:1f:a7:d9:
                    a3:59:e5:96:27:22:f4:02:2b:af:5b:78:1f:13:a8:
                    22:8b:ec:ae:01:7d:c0:61:13:a4:35:0a:21
                ASN1 OID: secp521r1
                NIST CURVE: P-521
        X509v3 extensions:
            X509v3 Subject Key Identifier: 
                85:86:9F:AE:73:5F:94:77:27:3B:15:15:C6:79:07:A8:42:4B:1E:F3
            X509v3 Authority Key Identifier: 
                40:89:1D:30:5E:0C:6E:D5:3D:C6:D5:25:90:DA:B6:42:67:ED:E9:82
            X509v3 Basic Constraints: critical
                CA:FALSE
            X509v3 Key Usage: critical
                Digital Signature, Key Encipherment, Key Agreement
            X509v3 Extended Key Usage: 
                TLS Web Server Authentication
            Netscape Cert Type: 
                SSL Server
    Signature Algorithm: ecdsa-with-SHA256
    Signature Value:
        30:81:88:02:42:00:d0:f3:68:5f:a9:a5:c6:90:a8:91:69:08:
        bc:8e:f2:2a:dc:b8:ff:9f:f5:c9:8c:c5:1a:94:46:da:55:4e:
        32:25:2e:82:7b:1a:ec:8f:a2:b0:d4:a5:bc:79:81:2d:0b:e7:
        69:78:05:6f:af:40:05:45:35:e0:a3:33:9b:f1:e7:f0:4d:02:
        42:01:18:95:23:8c:f6:ca:45:76:5a:4a:9f:09:c9:be:4b:aa:
        9b:67:b9:e1:24:6b:92:23:13:d6:cc:d4:18:5c:74:ba:2d:fe:
        63:39:79:bf:01:b4:4f:20:a2:ec:62:44:6f:38:80:a5:85:50:
        dd:d1:56:9b:22:1c:fc:46:88:6f:45:d7:8a
-----BEGIN CERTIFICATE-----
MIIDZTCCAsagAwIBAgIBATAKBggqhkjOPQQDAjCBrzELMAkGA1UEBhMCVVMxEDAO
BgNVBAgMB01vbnRhbmExEDAOBgNVBAcMB0JvemVtYW4xFTATBgNVBAoMDHdvbGZT
U0xfcDUyMTEQMA4GA1UECwwHQ0EtcDUyMTEYMBYGA1UEAwwPd3d3LndvbGZzc2wu
Y29tMSAwHgYJKoZIhvcNAQkBFhFmYWN0c0B3b2xmc3NsLmNvbTEXMBUGCgmSJomT
8ixkAQEMB3dvbGZTU0wwHhcNMjYwNjExMjE0NDMxWhcNMjkwMzA3MjE0NDMxWjCB
szELMAkGA1UEBhMCVVMxEDAOBgNVBAgMB01vbnRhbmExEDAOBgNVBAcMB0JvemVt
YW4xFTATBgNVBAoMDHdvbGZTU0xfcDUyMTEUMBIGA1UECwwLU2VydmVyLXA1MjEx
GDAWBgNVBAMMD3d3dy53b2xmc3NsLmNvbTEgMB4GCSqGSIb3DQEJARYRZmFjdHNA
d29sZnNzbC5jb20xFzAVBgoJkiaJk/IsZAEBDAd3b2xmU1NMMIGbMBAGByqGSM49
AgEGBSuBBAAjA4GGAAQA3nBp9tGexP5fglKYzlLBakwSIg92iCIRpQ2mAkeRq3mN
9ghwLSAUFd8bV1izUasgqCu9aj+p7sJtrplEtKESEHAAyh8UHbDnDEEYUjcEp4RT
oQJGkx/VYGOmLn2N6j/gW+XIbh+n2aNZ5ZYnIvQCK69beB8TqCKL7K4BfcBhE6Q1
CiGjgYkwgYYwHQYDVR0OBBYEFIWGn65zX5R3JzsVFcZ5B6hCSx7zMB8GA1UdIwQY
MBaAFECJHTBeDG7VPcbVJZDatkJn7emCMAwGA1UdEwEB/wQCMAAwDgYDVR0PAQH/
BAQDAgOoMBMGA1UdJQQMMAoGCCsGAQUFBwMBMBEGCWCGSAGG+EIBAQQEAwIGQDAK
BggqhkjOPQQDAgOBjAAwgYgCQgDQ82hfqaXGkKiRaQi8jvIq3Lj/n/XJjMUalEba
VU4yJS6Cexrsj6Kw1KW8eYEtC+dpeAVvr0AFRTXgozOb8efwTQJCARiVI4z2ykV2
WkqfCcm+S6qbZ7nhJGuSIxPWzNQYXHS6Lf5jOXm/AbRPIKLsYkRvOIClhVDd0Vab
Ihz8RohvRdeK
-----END CERTIFICATE-----
Certificate:
    Data:
        Version: 3 (0x2)
        Serial Number: 1 (0x1)
        Signature Algorithm: ecdsa-with-SHA256
        Issuer: C=US, ST=Montana, L=Bozeman, O=wolfSSL_P521, OU=Root-P521, CN=www.wolfssl.com, emailAddress=facts@wolfssl.com
        Validity
            Not Before: Jun 11 21:44:31 2026 GMT
            Not After : Mar  7 21:44:31 2029 GMT
        Subject: C=US, ST=Montana, L=Bozeman, O=wolfSSL_p521, OU=CA-p521, CN=www.wolfssl.com, emailAddress=facts@wolfssl.com, UID=wolfSSL
        Subject Public Key Info:
            Public Key Algorithm: id-ecPublicKey
                Public-Key: (521 bit)
                pub:
                    04:00:2d:18:24:2d:e4:db:6c:c3:69:9b:db:18:67:
                    33:f1:60:68:94:14:cd:91:4a:57:65:ef:36:fa:24:
                    82:88:ec:c7:f0:cb:48:45:6e:96:5f:7f:eb:76:be:
                    44:40:c3:19:c0:33:68:c4:06:04:8e:c2:25:b1:96:
                    83:22:0e:7b:c7:b2:fc:01:86:91:ed:43:5d:38:e0:
                    0c:25:8d:b3:db:b1:dc:de:b7:21:80:cf:87:de:64:
                    f4:21:3e:2d:af:79:bd:f6:d0:00:4b:81:79:fa:f7:
                    10:aa:19:cd:40:d7:1e:75:34:53:29:03:ed:48:54:
                    21:e5:8f:95:b5:9b:41:8d:5f:dd:72:d2:5a
                ASN1 OID: secp521r1
                NIST CURVE: P-521
        X509v3 extensions:
            X509v3 Subject Key Identifier: 
                40:89:1D:30:5E:0C:6E:D5:3D:C6:D5:25:90:DA:B6:42:67:ED:E9:82
            X509v3 Authority Key Identifier: 
                64:A7:68:95:53:33:18:A2:20:92:BC:64:55:A6:AB:CA:76:68:9B:C8
            X509v3 Basic Constraints: critical
                CA:TRUE
            X509v3 Key Usage: critical
                Digital Signature, Certificate Sign, CRL Sign
    Signature Algorithm: ecdsa-with-SHA256
    Signature Value:
        30:81:88:02:42:01:0b:06:e4:a8:a5:c6:9a:a3:90:07:df:9f:
        6e:82:5b:a0:d7:04:a1:d9:28:d3:62:71:d9:84:2d:15:81:7c:
        0c:16:b2:7e:03:f3:8b:cd:0e:f5:7f:fc:79:b6:fc:fb:a6:f2:
        45:3d:0a:db:a2:44:15:4e:4d:73:5e:21:47:e5:5f:df:02:02:
        42:01:85:c1:6a:9a:5e:bf:45:f5:3a:3e:a6:80:ea:ab:2c:08:
        e9:bf:f9:60:dc:74:8a:3e:5c:39:a4:78:f8:4f:2b:28:a2:b8:
        7f:fd:73:f1:04:e6:6c:05:65:1a:24:56:c9:f6:b8:33:f1:7d:
        6e:69:52:08:89:c7:76:08:ab:f6:fe:61:f3
-----BEGIN CERTIFICATE-----
MIIDIzCCAoSgAwIBAgIBATAKBggqhkjOPQQDAjCBmDELMAkGA1UEBhMCVVMxEDAO
BgNVBAgMB01vbnRhbmExEDAOBgNVBAcMB0JvemVtYW4xFTATBgNVBAoMDHdvbGZT
U0xfUDUyMTESMBAGA1UECwwJUm9vdC1QNTIxMRgwFgYDVQQDDA93d3cud29sZnNz
bC5jb20xIDAeBgkqhkiG9w0BCQEWEWZhY3RzQHdvbGZzc2wuY29tMB4XDTI2MDYx
MTIxNDQzMVoXDTI5MDMwNzIxNDQzMVowga8xCzAJBgNVBAYTAlVTMRAwDgYDVQQI
DAdNb250YW5hMRAwDgYDVQQHDAdCb3plbWFuMRUwEwYDVQQKDAx3b2xmU1NMX3A1
MjExEDAOBgNVBAsMB0NBLXA1MjExGDAWBgNVBAMMD3d3dy53b2xmc3NsLmNvbTEg
MB4GCSqGSIb3DQEJARYRZmFjdHNAd29sZnNzbC5jb20xFzAVBgoJkiaJk/IsZAEB
DAd3b2xmU1NMMIGbMBAGByqGSM49AgEGBSuBBAAjA4GGAAQALRgkLeTbbMNpm9sY
ZzPxYGiUFM2RSldl7zb6JIKI7Mfwy0hFbpZff+t2vkRAwxnAM2jEBgSOwiWxloMi
DnvHsvwBhpHtQ1044AwljbPbsdzetyGAz4feZPQhPi2veb320ABLgXn69xCqGc1A
1x51NFMpA+1IVCHlj5W1m0GNX91y0lqjYzBhMB0GA1UdDgQWBBRAiR0wXgxu1T3G
1SWQ2rZCZ+3pgjAfBgNVHSMEGDAWgBRkp2iVUzMYoiCSvGRVpqvKdmibyDAPBgNV
HRMBAf8EBTADAQH/MA4GA1UdDwEB/wQEAwIBhjAKBggqhkjOPQQDAgOBjAAwgYgC
QgELBuSopcaao5AH359uglug1wSh2SjTYnHZhC0VgXwMFrJ+A/OLzQ71f/x5tvz7
pvJFPQrbokQVTk1zXiFH5V/fAgJCAYXBappev0X1Oj6mgOqrLAjpv/lg3HSKPlw5
pHj4Tysoorh//XPxBOZsBWUaJFbJ9rgz8X1uaVIIicd2CKv2/mHz
-----END CERTIFICATE-----
