Certificate:
    Data:
        Version: 3 (0x2)
        Serial Number: 1 (0x1)
        Signature Algorithm: ecdsa-with-SHA256
        Issuer: C = US, ST = Montana, L = Bozeman, O = wolfSSL_p521, OU = CA-p521, CN = www.wolfssl.com, emailAddress = info@wolfssl.com, UID = wolfSSL
        Validity
            Not Before: Feb 15 12:50:25 2022 GMT
            Not After : Nov 11 12:50:25 2024 GMT
        Subject: C = US, ST = Montana, L = Bozeman, O = wolfSSL_p521, OU = Server-p521, CN = www.wolfssl.com, emailAddress = info@wolfssl.com, UID = wolfSSL
        Subject Public Key Info:
            Public Key Algorithm: id-ecPublicKey
                Public-Key: (521 bit)
                pub:
                    04:00:de:70:69:f6:d1:9e:c4:fe:5f:82:52:98:ce:
                    52:c1:6a:4c:12:22:0f:76:88:22:11:a5:0d:a6:02:
                    47:91:ab:79:8d:f6:08:70:2d:20:14:15:df:1b:57:
                    58:b3:51:ab:20:a8:2b:bd:6a:3f:a9:ee:c2:6d:ae:
                    99:44:b4:a1:12:10:70:00:ca:1f:14:1d:b0:e7:0c:
                    41:18:52:37:04:a7:84:53:a1:02:46:93:1f:d5:60:
                    63:a6:2e:7d:8d:ea:3f:e0:5b:e5:c8:6e:1f:a7:d9:
                    a3:59:e5:96:27:22:f4:02:2b:af:5b:78:1f:13:a8:
                    22:8b:ec:ae:01:7d:c0:61:13:a4:35:0a:21
                ASN1 OID: secp521r1
                NIST CURVE: P-521
        X509v3 extensions:
            X509v3 Subject Key Identifier: 
                85:86:9F:AE:73:5F:94:77:27:3B:15:15:C6:79:07:A8:42:4B:1E:F3
            X509v3 Authority Key Identifier: 
                keyid:40:89:1D:30:5E:0C:6E:D5:3D:C6:D5:25:90:DA:B6:42:67:ED:E9:82

            X509v3 Basic Constraints: critical
                CA:FALSE
            X509v3 Key Usage: critical
                Digital Signature, Key Encipherment, Key Agreement
            X509v3 Extended Key Usage: 
                TLS Web Server Authentication
            Netscape Cert Type: 
                SSL Server
    Signature Algorithm: ecdsa-with-SHA256
         30:81:88:02:42:01:6f:d3:37:9e:72:ce:e1:39:58:76:7b:03:
         a6:2d:91:04:a9:80:a3:6a:38:30:51:a7:97:d7:c0:7e:2f:80:
         50:c4:22:2f:b4:71:c4:bf:84:ac:8d:b9:3d:77:ea:dc:46:a4:
         d4:94:23:c4:f9:5b:de:3d:2f:82:82:12:cc:07:ae:b8:0d:02:
         42:01:0b:ba:d6:de:6b:a8:44:88:10:71:23:f7:d6:eb:c0:ef:
         7a:dd:69:ad:e0:e2:43:f7:64:eb:40:aa:e5:d2:92:53:fd:93:
         37:bb:24:34:6d:0d:5c:85:d7:9e:64:f5:ee:11:10:26:d4:f2:
         52:59:83:ff:af:61:c7:a4:52:93:9a:98:8d
-----BEGIN CERTIFICATE-----
MIIDYzCCAsSgAwIBAgIBATAKBggqhkjOPQQDAjCBrjELMAkGA1UEBhMCVVMxEDAO
BgNVBAgMB01vbnRhbmExEDAOBgNVBAcMB0JvemVtYW4xFTATBgNVBAoMDHdvbGZT
U0xfcDUyMTEQMA4GA1UECwwHQ0EtcDUyMTEYMBYGA1UEAwwPd3d3LndvbGZzc2wu
Y29tMR8wHQYJKoZIhvcNAQkBFhBpbmZvQHdvbGZzc2wuY29tMRcwFQYKCZImiZPy
LGQBAQwHd29sZlNTTDAeFw0yMjAyMTUxMjUwMjVaFw0yNDExMTExMjUwMjVaMIGy
MQswCQYDVQQGEwJVUzEQMA4GA1UECAwHTW9udGFuYTEQMA4GA1UEBwwHQm96ZW1h
bjEVMBMGA1UECgwMd29sZlNTTF9wNTIxMRQwEgYDVQQLDAtTZXJ2ZXItcDUyMTEY
MBYGA1UEAwwPd3d3LndvbGZzc2wuY29tMR8wHQYJKoZIhvcNAQkBFhBpbmZvQHdv
bGZzc2wuY29tMRcwFQYKCZImiZPyLGQBAQwHd29sZlNTTDCBmzAQBgcqhkjOPQIB
BgUrgQQAIwOBhgAEAN5wafbRnsT+X4JSmM5SwWpMEiIPdogiEaUNpgJHkat5jfYI
cC0gFBXfG1dYs1GrIKgrvWo/qe7Cba6ZRLShEhBwAMofFB2w5wxBGFI3BKeEU6EC
RpMf1WBjpi59jeo/4FvlyG4fp9mjWeWWJyL0AiuvW3gfE6gii+yuAX3AYROkNQoh
o4GJMIGGMB0GA1UdDgQWBBSFhp+uc1+Udyc7FRXGeQeoQkse8zAfBgNVHSMEGDAW
gBRAiR0wXgxu1T3G1SWQ2rZCZ+3pgjAMBgNVHRMBAf8EAjAAMA4GA1UdDwEB/wQE
AwIDqDATBgNVHSUEDDAKBggrBgEFBQcDATARBglghkgBhvhCAQEEBAMCBkAwCgYI
KoZIzj0EAwIDgYwAMIGIAkIBb9M3nnLO4TlYdnsDpi2RBKmAo2o4MFGnl9fAfi+A
UMQiL7RxxL+ErI25PXfq3Eak1JQjxPlb3j0vgoISzAeuuA0CQgELutbea6hEiBBx
I/fW68Dvet1preDiQ/dk60Cq5dKSU/2TN7skNG0NXIXXnmT17hEQJtTyUlmD/69h
x6RSk5qYjQ==
-----END CERTIFICATE-----
