Certificate:
    Data:
        Version: 3 (0x2)
        Serial Number: 1 (0x1)
        Signature Algorithm: ecdsa-with-SHA256
        Issuer: C = US, ST = Montana, L = Bozeman, O = wolfSSL_p521, OU = CA-p521, CN = www.wolfssl.com, emailAddress = info@wolfssl.com
        Validity
            Not Before: Dec 20 23:07:25 2021 GMT
            Not After : Sep 15 23:07:25 2024 GMT
        Subject: C = US, ST = Montana, L = Bozeman, O = wolfSSL_p521, OU = Server-p521, CN = www.wolfssl.com, emailAddress = info@wolfssl.com
        Subject Public Key Info:
            Public Key Algorithm: id-ecPublicKey
                Public-Key: (521 bit)
                pub:
                    04:00:de:70:69:f6:d1:9e:c4:fe:5f:82:52:98:ce:
                    52:c1:6a:4c:12:22:0f:76:88:22:11:a5:0d:a6:02:
                    47:91:ab:79:8d:f6:08:70:2d:20:14:15:df:1b:57:
                    58:b3:51:ab:20:a8:2b:bd:6a:3f:a9:ee:c2:6d:ae:
                    99:44:b4:a1:12:10:70:00:ca:1f:14:1d:b0:e7:0c:
                    41:18:52:37:04:a7:84:53:a1:02:46:93:1f:d5:60:
                    63:a6:2e:7d:8d:ea:3f:e0:5b:e5:c8:6e:1f:a7:d9:
                    a3:59:e5:96:27:22:f4:02:2b:af:5b:78:1f:13:a8:
                    22:8b:ec:ae:01:7d:c0:61:13:a4:35:0a:21
                ASN1 OID: secp521r1
                NIST CURVE: P-521
        X509v3 extensions:
            X509v3 Subject Key Identifier: 
                85:86:9F:AE:73:5F:94:77:27:3B:15:15:C6:79:07:A8:42:4B:1E:F3
            X509v3 Authority Key Identifier: 
                keyid:40:89:1D:30:5E:0C:6E:D5:3D:C6:D5:25:90:DA:B6:42:67:ED:E9:82

            X509v3 Basic Constraints: critical
                CA:FALSE
            X509v3 Key Usage: critical
                Digital Signature, Key Encipherment, Key Agreement
            X509v3 Extended Key Usage: 
                TLS Web Server Authentication
            Netscape Cert Type: 
                SSL Server
    Signature Algorithm: ecdsa-with-SHA256
         30:81:88:02:42:01:1a:79:13:f5:86:d5:2c:a7:58:be:8d:43:
         b9:c4:ce:58:12:d2:22:76:43:2b:79:35:20:86:6d:26:83:7c:
         e7:8b:77:10:c7:e4:d5:fc:92:bf:0b:ce:ee:26:09:e0:fb:fb:
         d6:01:74:18:cf:af:57:f0:6b:7d:ef:72:78:e8:f0:97:7a:02:
         42:01:a0:9b:22:53:92:4d:09:8c:76:42:e7:5d:29:f5:b9:ad:
         36:6d:27:81:98:b1:db:aa:0f:ba:96:01:a8:c6:af:bb:43:8e:
         67:ce:d6:8c:1f:5f:90:ef:86:b7:1b:8e:45:16:7d:9e:42:5c:
         30:23:a2:f0:3d:2c:9b:9a:b8:78:42:84:d1
-----BEGIN CERTIFICATE-----
MIIDMTCCApKgAwIBAgIBATAKBggqhkjOPQQDAjCBlTELMAkGA1UEBhMCVVMxEDAO
BgNVBAgMB01vbnRhbmExEDAOBgNVBAcMB0JvemVtYW4xFTATBgNVBAoMDHdvbGZT
U0xfcDUyMTEQMA4GA1UECwwHQ0EtcDUyMTEYMBYGA1UEAwwPd3d3LndvbGZzc2wu
Y29tMR8wHQYJKoZIhvcNAQkBFhBpbmZvQHdvbGZzc2wuY29tMB4XDTIxMTIyMDIz
MDcyNVoXDTI0MDkxNTIzMDcyNVowgZkxCzAJBgNVBAYTAlVTMRAwDgYDVQQIDAdN
b250YW5hMRAwDgYDVQQHDAdCb3plbWFuMRUwEwYDVQQKDAx3b2xmU1NMX3A1MjEx
FDASBgNVBAsMC1NlcnZlci1wNTIxMRgwFgYDVQQDDA93d3cud29sZnNzbC5jb20x
HzAdBgkqhkiG9w0BCQEWEGluZm9Ad29sZnNzbC5jb20wgZswEAYHKoZIzj0CAQYF
K4EEACMDgYYABADecGn20Z7E/l+CUpjOUsFqTBIiD3aIIhGlDaYCR5GreY32CHAt
IBQV3xtXWLNRqyCoK71qP6nuwm2umUS0oRIQcADKHxQdsOcMQRhSNwSnhFOhAkaT
H9VgY6YufY3qP+Bb5chuH6fZo1nllici9AIrr1t4HxOoIovsrgF9wGETpDUKIaOB
iTCBhjAdBgNVHQ4EFgQUhYafrnNflHcnOxUVxnkHqEJLHvMwHwYDVR0jBBgwFoAU
QIkdMF4MbtU9xtUlkNq2Qmft6YIwDAYDVR0TAQH/BAIwADAOBgNVHQ8BAf8EBAMC
A6gwEwYDVR0lBAwwCgYIKwYBBQUHAwEwEQYJYIZIAYb4QgEBBAQDAgZAMAoGCCqG
SM49BAMCA4GMADCBiAJCARp5E/WG1SynWL6NQ7nEzlgS0iJ2Qyt5NSCGbSaDfOeL
dxDH5NX8kr8Lzu4mCeD7+9YBdBjPr1fwa33vcnjo8Jd6AkIBoJsiU5JNCYx2Qudd
KfW5rTZtJ4GYsduqD7qWAajGr7tDjmfO1owfX5DvhrcbjkUWfZ5CXDAjovA9LJua
uHhChNE=
-----END CERTIFICATE-----
