Certificate:
    Data:
        Version: 3 (0x2)
        Serial Number: 1 (0x1)
        Signature Algorithm: ecdsa-with-SHA256
        Issuer: C = US, ST = Montana, L = Bozeman, O = wolfSSL_p521, OU = CA-p521, CN = www.wolfssl.com, emailAddress = info@wolfssl.com, UID = wolfSSL
        Validity
            Not Before: Sep 26 17:22:43 2023 GMT
            Not After : Jun 22 17:22:43 2026 GMT
        Subject: C = US, ST = Montana, L = Bozeman, O = wolfSSL_p521, OU = Server-p521, CN = www.wolfssl.com, emailAddress = info@wolfssl.com, UID = wolfSSL
        Subject Public Key Info:
            Public Key Algorithm: id-ecPublicKey
                Public-Key: (521 bit)
                pub:
                    04:00:de:70:69:f6:d1:9e:c4:fe:5f:82:52:98:ce:
                    52:c1:6a:4c:12:22:0f:76:88:22:11:a5:0d:a6:02:
                    47:91:ab:79:8d:f6:08:70:2d:20:14:15:df:1b:57:
                    58:b3:51:ab:20:a8:2b:bd:6a:3f:a9:ee:c2:6d:ae:
                    99:44:b4:a1:12:10:70:00:ca:1f:14:1d:b0:e7:0c:
                    41:18:52:37:04:a7:84:53:a1:02:46:93:1f:d5:60:
                    63:a6:2e:7d:8d:ea:3f:e0:5b:e5:c8:6e:1f:a7:d9:
                    a3:59:e5:96:27:22:f4:02:2b:af:5b:78:1f:13:a8:
                    22:8b:ec:ae:01:7d:c0:61:13:a4:35:0a:21
                ASN1 OID: secp521r1
                NIST CURVE: P-521
        X509v3 extensions:
            X509v3 Subject Key Identifier: 
                85:86:9F:AE:73:5F:94:77:27:3B:15:15:C6:79:07:A8:42:4B:1E:F3
            X509v3 Authority Key Identifier: 
                40:89:1D:30:5E:0C:6E:D5:3D:C6:D5:25:90:DA:B6:42:67:ED:E9:82
            X509v3 Basic Constraints: critical
                CA:FALSE
            X509v3 Key Usage: critical
                Digital Signature, Key Encipherment, Key Agreement
            X509v3 Extended Key Usage: 
                TLS Web Server Authentication
            Netscape Cert Type: 
                SSL Server
    Signature Algorithm: ecdsa-with-SHA256
    Signature Value:
        30:81:88:02:42:01:47:fb:13:87:03:ae:4e:f9:62:65:b3:1e:
        a5:80:59:ff:4d:57:a0:c7:97:39:8a:23:f9:5f:d1:eb:95:1c:
        99:7d:18:c5:66:8d:f9:ae:eb:fd:35:d8:6b:70:ad:95:57:38:
        8d:e2:ff:c9:f9:0d:1f:8f:d7:c7:fa:da:ca:d8:e9:dd:1b:02:
        42:01:93:13:02:8b:c8:12:e7:36:5b:ea:1d:20:fd:49:6f:c8:
        dd:ee:c4:54:ac:28:c2:81:ed:e4:e2:4e:98:4c:5b:ee:f9:da:
        2d:71:a0:01:13:09:9f:bf:e0:c3:14:74:e5:f5:a5:ff:dd:50:
        b6:f6:47:db:46:b9:f4:5c:9d:48:9a:48:de
-----BEGIN CERTIFICATE-----
MIIDYzCCAsSgAwIBAgIBATAKBggqhkjOPQQDAjCBrjELMAkGA1UEBhMCVVMxEDAO
BgNVBAgMB01vbnRhbmExEDAOBgNVBAcMB0JvemVtYW4xFTATBgNVBAoMDHdvbGZT
U0xfcDUyMTEQMA4GA1UECwwHQ0EtcDUyMTEYMBYGA1UEAwwPd3d3LndvbGZzc2wu
Y29tMR8wHQYJKoZIhvcNAQkBFhBpbmZvQHdvbGZzc2wuY29tMRcwFQYKCZImiZPy
LGQBAQwHd29sZlNTTDAeFw0yMzA5MjYxNzIyNDNaFw0yNjA2MjIxNzIyNDNaMIGy
MQswCQYDVQQGEwJVUzEQMA4GA1UECAwHTW9udGFuYTEQMA4GA1UEBwwHQm96ZW1h
bjEVMBMGA1UECgwMd29sZlNTTF9wNTIxMRQwEgYDVQQLDAtTZXJ2ZXItcDUyMTEY
MBYGA1UEAwwPd3d3LndvbGZzc2wuY29tMR8wHQYJKoZIhvcNAQkBFhBpbmZvQHdv
bGZzc2wuY29tMRcwFQYKCZImiZPyLGQBAQwHd29sZlNTTDCBmzAQBgcqhkjOPQIB
BgUrgQQAIwOBhgAEAN5wafbRnsT+X4JSmM5SwWpMEiIPdogiEaUNpgJHkat5jfYI
cC0gFBXfG1dYs1GrIKgrvWo/qe7Cba6ZRLShEhBwAMofFB2w5wxBGFI3BKeEU6EC
RpMf1WBjpi59jeo/4FvlyG4fp9mjWeWWJyL0AiuvW3gfE6gii+yuAX3AYROkNQoh
o4GJMIGGMB0GA1UdDgQWBBSFhp+uc1+Udyc7FRXGeQeoQkse8zAfBgNVHSMEGDAW
gBRAiR0wXgxu1T3G1SWQ2rZCZ+3pgjAMBgNVHRMBAf8EAjAAMA4GA1UdDwEB/wQE
AwIDqDATBgNVHSUEDDAKBggrBgEFBQcDATARBglghkgBhvhCAQEEBAMCBkAwCgYI
KoZIzj0EAwIDgYwAMIGIAkIBR/sThwOuTvliZbMepYBZ/01XoMeXOYoj+V/R65Uc
mX0YxWaN+a7r/TXYa3CtlVc4jeL/yfkNH4/Xx/raytjp3RsCQgGTEwKLyBLnNlvq
HSD9SW/I3e7EVKwowoHt5OJOmExb7vnaLXGgARMJn7/gwxR05fWl/91QtvZH20a5
9FydSJpI3g==
-----END CERTIFICATE-----
