Certificate:
    Data:
        Version: 3 (0x2)
        Serial Number: 1 (0x1)
        Signature Algorithm: ecdsa-with-SHA256
        Issuer: C = US, ST = Montana, L = Bozeman, O = wolfSSL_p521, OU = CA-p521, CN = www.wolfssl.com, emailAddress = info@wolfssl.com, UID = wolfSSL
        Validity
            Not Before: Feb 15 12:50:25 2022 GMT
            Not After : Nov 11 12:50:25 2024 GMT
        Subject: C = US, ST = Montana, L = Bozeman, O = wolfSSL_p521, OU = Server-p521, CN = www.wolfssl.com, emailAddress = info@wolfssl.com, UID = wolfSSL
        Subject Public Key Info:
            Public Key Algorithm: id-ecPublicKey
                Public-Key: (521 bit)
                pub:
                    04:00:de:70:69:f6:d1:9e:c4:fe:5f:82:52:98:ce:
                    52:c1:6a:4c:12:22:0f:76:88:22:11:a5:0d:a6:02:
                    47:91:ab:79:8d:f6:08:70:2d:20:14:15:df:1b:57:
                    58:b3:51:ab:20:a8:2b:bd:6a:3f:a9:ee:c2:6d:ae:
                    99:44:b4:a1:12:10:70:00:ca:1f:14:1d:b0:e7:0c:
                    41:18:52:37:04:a7:84:53:a1:02:46:93:1f:d5:60:
                    63:a6:2e:7d:8d:ea:3f:e0:5b:e5:c8:6e:1f:a7:d9:
                    a3:59:e5:96:27:22:f4:02:2b:af:5b:78:1f:13:a8:
                    22:8b:ec:ae:01:7d:c0:61:13:a4:35:0a:21
                ASN1 OID: secp521r1
                NIST CURVE: P-521
        X509v3 extensions:
            X509v3 Subject Key Identifier: 
                85:86:9F:AE:73:5F:94:77:27:3B:15:15:C6:79:07:A8:42:4B:1E:F3
            X509v3 Authority Key Identifier: 
                keyid:40:89:1D:30:5E:0C:6E:D5:3D:C6:D5:25:90:DA:B6:42:67:ED:E9:82

            X509v3 Basic Constraints: critical
                CA:FALSE
            X509v3 Key Usage: critical
                Digital Signature, Key Encipherment, Key Agreement
            X509v3 Extended Key Usage: 
                TLS Web Server Authentication
            Netscape Cert Type: 
                SSL Server
    Signature Algorithm: ecdsa-with-SHA256
         30:81:88:02:42:01:6f:d3:37:9e:72:ce:e1:39:58:76:7b:03:
         a6:2d:91:04:a9:80:a3:6a:38:30:51:a7:97:d7:c0:7e:2f:80:
         50:c4:22:2f:b4:71:c4:bf:84:ac:8d:b9:3d:77:ea:dc:46:a4:
         d4:94:23:c4:f9:5b:de:3d:2f:82:82:12:cc:07:ae:b8:0d:02:
         42:01:0b:ba:d6:de:6b:a8:44:88:10:71:23:f7:d6:eb:c0:ef:
         7a:dd:69:ad:e0:e2:43:f7:64:eb:40:aa:e5:d2:92:53:fd:93:
         37:bb:24:34:6d:0d:5c:85:d7:9e:64:f5:ee:11:10:26:d4:f2:
         52:59:83:ff:af:61:c7:a4:52:93:9a:98:8d
-----BEGIN CERTIFICATE-----
MIIDYzCCAsSgAwIBAgIBATAKBggqhkjOPQQDAjCBrjELMAkGA1UEBhMCVVMxEDAO
BgNVBAgMB01vbnRhbmExEDAOBgNVBAcMB0JvemVtYW4xFTATBgNVBAoMDHdvbGZT
U0xfcDUyMTEQMA4GA1UECwwHQ0EtcDUyMTEYMBYGA1UEAwwPd3d3LndvbGZzc2wu
Y29tMR8wHQYJKoZIhvcNAQkBFhBpbmZvQHdvbGZzc2wuY29tMRcwFQYKCZImiZPy
LGQBAQwHd29sZlNTTDAeFw0yMjAyMTUxMjUwMjVaFw0yNDExMTExMjUwMjVaMIGy
MQswCQYDVQQGEwJVUzEQMA4GA1UECAwHTW9udGFuYTEQMA4GA1UEBwwHQm96ZW1h
bjEVMBMGA1UECgwMd29sZlNTTF9wNTIxMRQwEgYDVQQLDAtTZXJ2ZXItcDUyMTEY
MBYGA1UEAwwPd3d3LndvbGZzc2wuY29tMR8wHQYJKoZIhvcNAQkBFhBpbmZvQHdv
bGZzc2wuY29tMRcwFQYKCZImiZPyLGQBAQwHd29sZlNTTDCBmzAQBgcqhkjOPQIB
BgUrgQQAIwOBhgAEAN5wafbRnsT+X4JSmM5SwWpMEiIPdogiEaUNpgJHkat5jfYI
cC0gFBXfG1dYs1GrIKgrvWo/qe7Cba6ZRLShEhBwAMofFB2w5wxBGFI3BKeEU6EC
RpMf1WBjpi59jeo/4FvlyG4fp9mjWeWWJyL0AiuvW3gfE6gii+yuAX3AYROkNQoh
o4GJMIGGMB0GA1UdDgQWBBSFhp+uc1+Udyc7FRXGeQeoQkse8zAfBgNVHSMEGDAW
gBRAiR0wXgxu1T3G1SWQ2rZCZ+3pgjAMBgNVHRMBAf8EAjAAMA4GA1UdDwEB/wQE
AwIDqDATBgNVHSUEDDAKBggrBgEFBQcDATARBglghkgBhvhCAQEEBAMCBkAwCgYI
KoZIzj0EAwIDgYwAMIGIAkIBb9M3nnLO4TlYdnsDpi2RBKmAo2o4MFGnl9fAfi+A
UMQiL7RxxL+ErI25PXfq3Eak1JQjxPlb3j0vgoISzAeuuA0CQgELutbea6hEiBBx
I/fW68Dvet1preDiQ/dk60Cq5dKSU/2TN7skNG0NXIXXnmT17hEQJtTyUlmD/69h
x6RSk5qYjQ==
-----END CERTIFICATE-----
Certificate:
    Data:
        Version: 3 (0x2)
        Serial Number: 1 (0x1)
        Signature Algorithm: ecdsa-with-SHA256
        Issuer: C = US, ST = Montana, L = Bozeman, O = wolfSSL_P521, OU = Root-P521, CN = www.wolfssl.com, emailAddress = info@wolfssl.com
        Validity
            Not Before: Feb 15 12:50:25 2022 GMT
            Not After : Nov 11 12:50:25 2024 GMT
        Subject: C = US, ST = Montana, L = Bozeman, O = wolfSSL_p521, OU = CA-p521, CN = www.wolfssl.com, emailAddress = info@wolfssl.com, UID = wolfSSL
        Subject Public Key Info:
            Public Key Algorithm: id-ecPublicKey
                Public-Key: (521 bit)
                pub:
                    04:00:2d:18:24:2d:e4:db:6c:c3:69:9b:db:18:67:
                    33:f1:60:68:94:14:cd:91:4a:57:65:ef:36:fa:24:
                    82:88:ec:c7:f0:cb:48:45:6e:96:5f:7f:eb:76:be:
                    44:40:c3:19:c0:33:68:c4:06:04:8e:c2:25:b1:96:
                    83:22:0e:7b:c7:b2:fc:01:86:91:ed:43:5d:38:e0:
                    0c:25:8d:b3:db:b1:dc:de:b7:21:80:cf:87:de:64:
                    f4:21:3e:2d:af:79:bd:f6:d0:00:4b:81:79:fa:f7:
                    10:aa:19:cd:40:d7:1e:75:34:53:29:03:ed:48:54:
                    21:e5:8f:95:b5:9b:41:8d:5f:dd:72:d2:5a
                ASN1 OID: secp521r1
                NIST CURVE: P-521
        X509v3 extensions:
            X509v3 Subject Key Identifier: 
                40:89:1D:30:5E:0C:6E:D5:3D:C6:D5:25:90:DA:B6:42:67:ED:E9:82
            X509v3 Authority Key Identifier: 
                keyid:64:A7:68:95:53:33:18:A2:20:92:BC:64:55:A6:AB:CA:76:68:9B:C8

            X509v3 Basic Constraints: critical
                CA:TRUE
            X509v3 Key Usage: critical
                Digital Signature, Certificate Sign, CRL Sign
    Signature Algorithm: ecdsa-with-SHA256
         30:81:88:02:42:01:6b:6f:94:1c:27:19:f3:87:f0:e0:62:ea:
         00:f0:fc:48:dc:26:b5:23:06:08:9f:20:48:10:7e:a8:96:a1:
         15:e3:4d:7f:17:f5:cc:53:c2:bb:7f:c5:91:c7:54:6f:e3:c1:
         21:0e:6b:28:06:31:e4:af:d3:5e:89:85:2b:21:5d:24:63:02:
         42:01:f5:8b:3e:b1:6b:fc:94:72:e8:21:5b:11:7a:13:8e:9c:
         81:a7:2a:31:81:01:40:aa:33:f6:67:a4:d8:13:ab:9a:22:c9:
         31:9d:b1:c8:a1:3b:7e:bf:19:d2:b9:bd:8f:ad:6b:3b:85:c3:
         a2:84:15:47:f0:bb:09:7a:f2:b9:e2:33:12
-----BEGIN CERTIFICATE-----
MIIDITCCAoKgAwIBAgIBATAKBggqhkjOPQQDAjCBlzELMAkGA1UEBhMCVVMxEDAO
BgNVBAgMB01vbnRhbmExEDAOBgNVBAcMB0JvemVtYW4xFTATBgNVBAoMDHdvbGZT
U0xfUDUyMTESMBAGA1UECwwJUm9vdC1QNTIxMRgwFgYDVQQDDA93d3cud29sZnNz
bC5jb20xHzAdBgkqhkiG9w0BCQEWEGluZm9Ad29sZnNzbC5jb20wHhcNMjIwMjE1
MTI1MDI1WhcNMjQxMTExMTI1MDI1WjCBrjELMAkGA1UEBhMCVVMxEDAOBgNVBAgM
B01vbnRhbmExEDAOBgNVBAcMB0JvemVtYW4xFTATBgNVBAoMDHdvbGZTU0xfcDUy
MTEQMA4GA1UECwwHQ0EtcDUyMTEYMBYGA1UEAwwPd3d3LndvbGZzc2wuY29tMR8w
HQYJKoZIhvcNAQkBFhBpbmZvQHdvbGZzc2wuY29tMRcwFQYKCZImiZPyLGQBAQwH
d29sZlNTTDCBmzAQBgcqhkjOPQIBBgUrgQQAIwOBhgAEAC0YJC3k22zDaZvbGGcz
8WBolBTNkUpXZe82+iSCiOzH8MtIRW6WX3/rdr5EQMMZwDNoxAYEjsIlsZaDIg57
x7L8AYaR7UNdOOAMJY2z27Hc3rchgM+H3mT0IT4tr3m99tAAS4F5+vcQqhnNQNce
dTRTKQPtSFQh5Y+VtZtBjV/dctJao2MwYTAdBgNVHQ4EFgQUQIkdMF4MbtU9xtUl
kNq2Qmft6YIwHwYDVR0jBBgwFoAUZKdolVMzGKIgkrxkVaarynZom8gwDwYDVR0T
AQH/BAUwAwEB/zAOBgNVHQ8BAf8EBAMCAYYwCgYIKoZIzj0EAwIDgYwAMIGIAkIB
a2+UHCcZ84fw4GLqAPD8SNwmtSMGCJ8gSBB+qJahFeNNfxf1zFPCu3/FkcdUb+PB
IQ5rKAYx5K/TXomFKyFdJGMCQgH1iz6xa/yUcughWxF6E46cgacqMYEBQKoz9mek
2BOrmiLJMZ2xyKE7fr8Z0rm9j61rO4XDooQVR/C7CXryueIzEg==
-----END CERTIFICATE-----
