Certificate:
    Data:
        Version: 3 (0x2)
        Serial Number: 1 (0x1)
        Signature Algorithm: ecdsa-with-SHA256
        Issuer: C = US, ST = Montana, L = Bozeman, O = wolfSSL_p521, OU = CA-p521, CN = www.wolfssl.com, emailAddress = info@wolfssl.com, UID = wolfSSL
        Validity
            Not Before: Sep 26 17:22:43 2023 GMT
            Not After : Jun 22 17:22:43 2026 GMT
        Subject: C = US, ST = Montana, L = Bozeman, O = wolfSSL_p521, OU = Server-p521, CN = www.wolfssl.com, emailAddress = info@wolfssl.com, UID = wolfSSL
        Subject Public Key Info:
            Public Key Algorithm: id-ecPublicKey
                Public-Key: (521 bit)
                pub:
                    04:00:de:70:69:f6:d1:9e:c4:fe:5f:82:52:98:ce:
                    52:c1:6a:4c:12:22:0f:76:88:22:11:a5:0d:a6:02:
                    47:91:ab:79:8d:f6:08:70:2d:20:14:15:df:1b:57:
                    58:b3:51:ab:20:a8:2b:bd:6a:3f:a9:ee:c2:6d:ae:
                    99:44:b4:a1:12:10:70:00:ca:1f:14:1d:b0:e7:0c:
                    41:18:52:37:04:a7:84:53:a1:02:46:93:1f:d5:60:
                    63:a6:2e:7d:8d:ea:3f:e0:5b:e5:c8:6e:1f:a7:d9:
                    a3:59:e5:96:27:22:f4:02:2b:af:5b:78:1f:13:a8:
                    22:8b:ec:ae:01:7d:c0:61:13:a4:35:0a:21
                ASN1 OID: secp521r1
                NIST CURVE: P-521
        X509v3 extensions:
            X509v3 Subject Key Identifier: 
                85:86:9F:AE:73:5F:94:77:27:3B:15:15:C6:79:07:A8:42:4B:1E:F3
            X509v3 Authority Key Identifier: 
                40:89:1D:30:5E:0C:6E:D5:3D:C6:D5:25:90:DA:B6:42:67:ED:E9:82
            X509v3 Basic Constraints: critical
                CA:FALSE
            X509v3 Key Usage: critical
                Digital Signature, Key Encipherment, Key Agreement
            X509v3 Extended Key Usage: 
                TLS Web Server Authentication
            Netscape Cert Type: 
                SSL Server
    Signature Algorithm: ecdsa-with-SHA256
    Signature Value:
        30:81:88:02:42:01:47:fb:13:87:03:ae:4e:f9:62:65:b3:1e:
        a5:80:59:ff:4d:57:a0:c7:97:39:8a:23:f9:5f:d1:eb:95:1c:
        99:7d:18:c5:66:8d:f9:ae:eb:fd:35:d8:6b:70:ad:95:57:38:
        8d:e2:ff:c9:f9:0d:1f:8f:d7:c7:fa:da:ca:d8:e9:dd:1b:02:
        42:01:93:13:02:8b:c8:12:e7:36:5b:ea:1d:20:fd:49:6f:c8:
        dd:ee:c4:54:ac:28:c2:81:ed:e4:e2:4e:98:4c:5b:ee:f9:da:
        2d:71:a0:01:13:09:9f:bf:e0:c3:14:74:e5:f5:a5:ff:dd:50:
        b6:f6:47:db:46:b9:f4:5c:9d:48:9a:48:de
-----BEGIN CERTIFICATE-----
MIIDYzCCAsSgAwIBAgIBATAKBggqhkjOPQQDAjCBrjELMAkGA1UEBhMCVVMxEDAO
BgNVBAgMB01vbnRhbmExEDAOBgNVBAcMB0JvemVtYW4xFTATBgNVBAoMDHdvbGZT
U0xfcDUyMTEQMA4GA1UECwwHQ0EtcDUyMTEYMBYGA1UEAwwPd3d3LndvbGZzc2wu
Y29tMR8wHQYJKoZIhvcNAQkBFhBpbmZvQHdvbGZzc2wuY29tMRcwFQYKCZImiZPy
LGQBAQwHd29sZlNTTDAeFw0yMzA5MjYxNzIyNDNaFw0yNjA2MjIxNzIyNDNaMIGy
MQswCQYDVQQGEwJVUzEQMA4GA1UECAwHTW9udGFuYTEQMA4GA1UEBwwHQm96ZW1h
bjEVMBMGA1UECgwMd29sZlNTTF9wNTIxMRQwEgYDVQQLDAtTZXJ2ZXItcDUyMTEY
MBYGA1UEAwwPd3d3LndvbGZzc2wuY29tMR8wHQYJKoZIhvcNAQkBFhBpbmZvQHdv
bGZzc2wuY29tMRcwFQYKCZImiZPyLGQBAQwHd29sZlNTTDCBmzAQBgcqhkjOPQIB
BgUrgQQAIwOBhgAEAN5wafbRnsT+X4JSmM5SwWpMEiIPdogiEaUNpgJHkat5jfYI
cC0gFBXfG1dYs1GrIKgrvWo/qe7Cba6ZRLShEhBwAMofFB2w5wxBGFI3BKeEU6EC
RpMf1WBjpi59jeo/4FvlyG4fp9mjWeWWJyL0AiuvW3gfE6gii+yuAX3AYROkNQoh
o4GJMIGGMB0GA1UdDgQWBBSFhp+uc1+Udyc7FRXGeQeoQkse8zAfBgNVHSMEGDAW
gBRAiR0wXgxu1T3G1SWQ2rZCZ+3pgjAMBgNVHRMBAf8EAjAAMA4GA1UdDwEB/wQE
AwIDqDATBgNVHSUEDDAKBggrBgEFBQcDATARBglghkgBhvhCAQEEBAMCBkAwCgYI
KoZIzj0EAwIDgYwAMIGIAkIBR/sThwOuTvliZbMepYBZ/01XoMeXOYoj+V/R65Uc
mX0YxWaN+a7r/TXYa3CtlVc4jeL/yfkNH4/Xx/raytjp3RsCQgGTEwKLyBLnNlvq
HSD9SW/I3e7EVKwowoHt5OJOmExb7vnaLXGgARMJn7/gwxR05fWl/91QtvZH20a5
9FydSJpI3g==
-----END CERTIFICATE-----
Certificate:
    Data:
        Version: 3 (0x2)
        Serial Number: 1 (0x1)
        Signature Algorithm: ecdsa-with-SHA256
        Issuer: C = US, ST = Montana, L = Bozeman, O = wolfSSL_P521, OU = Root-P521, CN = www.wolfssl.com, emailAddress = info@wolfssl.com
        Validity
            Not Before: Sep 26 17:22:43 2023 GMT
            Not After : Jun 22 17:22:43 2026 GMT
        Subject: C = US, ST = Montana, L = Bozeman, O = wolfSSL_p521, OU = CA-p521, CN = www.wolfssl.com, emailAddress = info@wolfssl.com, UID = wolfSSL
        Subject Public Key Info:
            Public Key Algorithm: id-ecPublicKey
                Public-Key: (521 bit)
                pub:
                    04:00:2d:18:24:2d:e4:db:6c:c3:69:9b:db:18:67:
                    33:f1:60:68:94:14:cd:91:4a:57:65:ef:36:fa:24:
                    82:88:ec:c7:f0:cb:48:45:6e:96:5f:7f:eb:76:be:
                    44:40:c3:19:c0:33:68:c4:06:04:8e:c2:25:b1:96:
                    83:22:0e:7b:c7:b2:fc:01:86:91:ed:43:5d:38:e0:
                    0c:25:8d:b3:db:b1:dc:de:b7:21:80:cf:87:de:64:
                    f4:21:3e:2d:af:79:bd:f6:d0:00:4b:81:79:fa:f7:
                    10:aa:19:cd:40:d7:1e:75:34:53:29:03:ed:48:54:
                    21:e5:8f:95:b5:9b:41:8d:5f:dd:72:d2:5a
                ASN1 OID: secp521r1
                NIST CURVE: P-521
        X509v3 extensions:
            X509v3 Subject Key Identifier: 
                40:89:1D:30:5E:0C:6E:D5:3D:C6:D5:25:90:DA:B6:42:67:ED:E9:82
            X509v3 Authority Key Identifier: 
                64:A7:68:95:53:33:18:A2:20:92:BC:64:55:A6:AB:CA:76:68:9B:C8
            X509v3 Basic Constraints: critical
                CA:TRUE
            X509v3 Key Usage: critical
                Digital Signature, Certificate Sign, CRL Sign
    Signature Algorithm: ecdsa-with-SHA256
    Signature Value:
        30:81:87:02:42:01:e2:cf:b2:8c:60:53:fc:c4:7a:f4:4f:00:
        a2:24:0a:44:89:a3:29:01:ae:88:d3:6f:e5:ba:94:d4:ef:ea:
        2e:e7:3c:05:2c:1b:9b:79:66:4b:cb:74:53:8e:8f:a5:c6:e6:
        38:3b:cf:23:f8:8c:ff:9a:a1:72:a2:55:90:7e:19:44:7e:02:
        41:0b:18:17:ba:8f:ff:d9:52:ba:29:70:bc:27:d5:cb:84:0e:
        e9:0c:c7:2f:80:e4:34:ec:fd:a4:fb:7c:0e:a6:2e:70:ef:41:
        84:af:aa:ab:cb:34:fa:5c:c5:a0:33:ca:85:aa:41:48:1f:57:
        61:6c:66:0d:a8:16:31:2b:30:07:3b:c8
-----BEGIN CERTIFICATE-----
MIIDIDCCAoKgAwIBAgIBATAKBggqhkjOPQQDAjCBlzELMAkGA1UEBhMCVVMxEDAO
BgNVBAgMB01vbnRhbmExEDAOBgNVBAcMB0JvemVtYW4xFTATBgNVBAoMDHdvbGZT
U0xfUDUyMTESMBAGA1UECwwJUm9vdC1QNTIxMRgwFgYDVQQDDA93d3cud29sZnNz
bC5jb20xHzAdBgkqhkiG9w0BCQEWEGluZm9Ad29sZnNzbC5jb20wHhcNMjMwOTI2
MTcyMjQzWhcNMjYwNjIyMTcyMjQzWjCBrjELMAkGA1UEBhMCVVMxEDAOBgNVBAgM
B01vbnRhbmExEDAOBgNVBAcMB0JvemVtYW4xFTATBgNVBAoMDHdvbGZTU0xfcDUy
MTEQMA4GA1UECwwHQ0EtcDUyMTEYMBYGA1UEAwwPd3d3LndvbGZzc2wuY29tMR8w
HQYJKoZIhvcNAQkBFhBpbmZvQHdvbGZzc2wuY29tMRcwFQYKCZImiZPyLGQBAQwH
d29sZlNTTDCBmzAQBgcqhkjOPQIBBgUrgQQAIwOBhgAEAC0YJC3k22zDaZvbGGcz
8WBolBTNkUpXZe82+iSCiOzH8MtIRW6WX3/rdr5EQMMZwDNoxAYEjsIlsZaDIg57
x7L8AYaR7UNdOOAMJY2z27Hc3rchgM+H3mT0IT4tr3m99tAAS4F5+vcQqhnNQNce
dTRTKQPtSFQh5Y+VtZtBjV/dctJao2MwYTAdBgNVHQ4EFgQUQIkdMF4MbtU9xtUl
kNq2Qmft6YIwHwYDVR0jBBgwFoAUZKdolVMzGKIgkrxkVaarynZom8gwDwYDVR0T
AQH/BAUwAwEB/zAOBgNVHQ8BAf8EBAMCAYYwCgYIKoZIzj0EAwIDgYsAMIGHAkIB
4s+yjGBT/MR69E8AoiQKRImjKQGuiNNv5bqU1O/qLuc8BSwbm3lmS8t0U46Ppcbm
ODvPI/iM/5qhcqJVkH4ZRH4CQQsYF7qP/9lSuilwvCfVy4QO6QzHL4DkNOz9pPt8
DqYucO9BhK+qq8s0+lzFoDPKhapBSB9XYWxmDagWMSswBzvI
-----END CERTIFICATE-----
