Certificate:
    Data:
        Version: 3 (0x2)
        Serial Number: 1 (0x1)
        Signature Algorithm: ecdsa-with-SHA256
        Issuer: C = US, ST = Montana, L = Bozeman, O = wolfSSL_p521, OU = CA-p521, CN = www.wolfssl.com, emailAddress = info@wolfssl.com
        Validity
            Not Before: Sep 14 23:57:18 2020 GMT
            Not After : Jun 11 23:57:18 2023 GMT
        Subject: C = US, ST = Montana, L = Bozeman, O = wolfSSL_p521, OU = Server-p521, CN = www.wolfssl.com, emailAddress = info@wolfssl.com
        Subject Public Key Info:
            Public Key Algorithm: id-ecPublicKey
                Public-Key: (521 bit)
                pub:
                    04:00:de:70:69:f6:d1:9e:c4:fe:5f:82:52:98:ce:
                    52:c1:6a:4c:12:22:0f:76:88:22:11:a5:0d:a6:02:
                    47:91:ab:79:8d:f6:08:70:2d:20:14:15:df:1b:57:
                    58:b3:51:ab:20:a8:2b:bd:6a:3f:a9:ee:c2:6d:ae:
                    99:44:b4:a1:12:10:70:00:ca:1f:14:1d:b0:e7:0c:
                    41:18:52:37:04:a7:84:53:a1:02:46:93:1f:d5:60:
                    63:a6:2e:7d:8d:ea:3f:e0:5b:e5:c8:6e:1f:a7:d9:
                    a3:59:e5:96:27:22:f4:02:2b:af:5b:78:1f:13:a8:
                    22:8b:ec:ae:01:7d:c0:61:13:a4:35:0a:21
                ASN1 OID: secp521r1
                NIST CURVE: P-521
        X509v3 extensions:
            X509v3 Subject Key Identifier: 
                85:86:9F:AE:73:5F:94:77:27:3B:15:15:C6:79:07:A8:42:4B:1E:F3
            X509v3 Authority Key Identifier: 
                keyid:40:89:1D:30:5E:0C:6E:D5:3D:C6:D5:25:90:DA:B6:42:67:ED:E9:82

            X509v3 Basic Constraints: critical
                CA:FALSE
            X509v3 Key Usage: critical
                Digital Signature, Key Encipherment, Key Agreement
            X509v3 Extended Key Usage: 
                TLS Web Server Authentication
            Netscape Cert Type: 
                SSL Server
    Signature Algorithm: ecdsa-with-SHA256
         30:81:88:02:42:01:95:31:ef:ac:8f:c7:79:c8:b1:27:21:70:
         24:d1:78:d6:d4:da:d0:1d:44:52:6f:3f:0a:f1:33:ac:70:14:
         cf:62:e6:23:a8:a5:30:04:e1:40:7b:05:c5:45:c9:be:b0:32:
         d5:00:77:c7:6b:1d:37:7a:2c:83:02:9d:ef:5d:9e:9c:91:02:
         42:01:f8:7c:5b:fc:b3:1a:26:2c:b4:41:c8:bf:0d:ae:74:5a:
         0d:25:10:7d:9d:33:ec:5c:29:c0:7c:6a:96:f3:28:b6:06:de:
         13:1f:b1:a1:76:38:ea:a1:db:81:21:b6:81:0c:8f:67:b7:3d:
         7b:6b:e0:72:67:e3:d1:71:11:92:8b:d0:f1
-----BEGIN CERTIFICATE-----
MIIDMTCCApKgAwIBAgIBATAKBggqhkjOPQQDAjCBlTELMAkGA1UEBhMCVVMxEDAO
BgNVBAgMB01vbnRhbmExEDAOBgNVBAcMB0JvemVtYW4xFTATBgNVBAoMDHdvbGZT
U0xfcDUyMTEQMA4GA1UECwwHQ0EtcDUyMTEYMBYGA1UEAwwPd3d3LndvbGZzc2wu
Y29tMR8wHQYJKoZIhvcNAQkBFhBpbmZvQHdvbGZzc2wuY29tMB4XDTIwMDkxNDIz
NTcxOFoXDTIzMDYxMTIzNTcxOFowgZkxCzAJBgNVBAYTAlVTMRAwDgYDVQQIDAdN
b250YW5hMRAwDgYDVQQHDAdCb3plbWFuMRUwEwYDVQQKDAx3b2xmU1NMX3A1MjEx
FDASBgNVBAsMC1NlcnZlci1wNTIxMRgwFgYDVQQDDA93d3cud29sZnNzbC5jb20x
HzAdBgkqhkiG9w0BCQEWEGluZm9Ad29sZnNzbC5jb20wgZswEAYHKoZIzj0CAQYF
K4EEACMDgYYABADecGn20Z7E/l+CUpjOUsFqTBIiD3aIIhGlDaYCR5GreY32CHAt
IBQV3xtXWLNRqyCoK71qP6nuwm2umUS0oRIQcADKHxQdsOcMQRhSNwSnhFOhAkaT
H9VgY6YufY3qP+Bb5chuH6fZo1nllici9AIrr1t4HxOoIovsrgF9wGETpDUKIaOB
iTCBhjAdBgNVHQ4EFgQUhYafrnNflHcnOxUVxnkHqEJLHvMwHwYDVR0jBBgwFoAU
QIkdMF4MbtU9xtUlkNq2Qmft6YIwDAYDVR0TAQH/BAIwADAOBgNVHQ8BAf8EBAMC
A6gwEwYDVR0lBAwwCgYIKwYBBQUHAwEwEQYJYIZIAYb4QgEBBAQDAgZAMAoGCCqG
SM49BAMCA4GMADCBiAJCAZUx76yPx3nIsSchcCTReNbU2tAdRFJvPwrxM6xwFM9i
5iOopTAE4UB7BcVFyb6wMtUAd8drHTd6LIMCne9dnpyRAkIB+Hxb/LMaJiy0Qci/
Da50Wg0lEH2dM+xcKcB8apbzKLYG3hMfsaF2OOqh24EhtoEMj2e3PXtr4HJn49Fx
EZKL0PE=
-----END CERTIFICATE-----
Certificate:
    Data:
        Version: 3 (0x2)
        Serial Number: 1 (0x1)
        Signature Algorithm: ecdsa-with-SHA256
        Issuer: C = US, ST = Montana, L = Bozeman, O = wolfSSL_P521, OU = Root-P521, CN = www.wolfssl.com, emailAddress = info@wolfssl.com
        Validity
            Not Before: Sep 14 23:57:18 2020 GMT
            Not After : Jun 11 23:57:18 2023 GMT
        Subject: C = US, ST = Montana, L = Bozeman, O = wolfSSL_p521, OU = CA-p521, CN = www.wolfssl.com, emailAddress = info@wolfssl.com
        Subject Public Key Info:
            Public Key Algorithm: id-ecPublicKey
                Public-Key: (521 bit)
                pub:
                    04:00:2d:18:24:2d:e4:db:6c:c3:69:9b:db:18:67:
                    33:f1:60:68:94:14:cd:91:4a:57:65:ef:36:fa:24:
                    82:88:ec:c7:f0:cb:48:45:6e:96:5f:7f:eb:76:be:
                    44:40:c3:19:c0:33:68:c4:06:04:8e:c2:25:b1:96:
                    83:22:0e:7b:c7:b2:fc:01:86:91:ed:43:5d:38:e0:
                    0c:25:8d:b3:db:b1:dc:de:b7:21:80:cf:87:de:64:
                    f4:21:3e:2d:af:79:bd:f6:d0:00:4b:81:79:fa:f7:
                    10:aa:19:cd:40:d7:1e:75:34:53:29:03:ed:48:54:
                    21:e5:8f:95:b5:9b:41:8d:5f:dd:72:d2:5a
                ASN1 OID: secp521r1
                NIST CURVE: P-521
        X509v3 extensions:
            X509v3 Subject Key Identifier: 
                40:89:1D:30:5E:0C:6E:D5:3D:C6:D5:25:90:DA:B6:42:67:ED:E9:82
            X509v3 Authority Key Identifier: 
                keyid:64:A7:68:95:53:33:18:A2:20:92:BC:64:55:A6:AB:CA:76:68:9B:C8

            X509v3 Basic Constraints: critical
                CA:TRUE
            X509v3 Key Usage: critical
                Digital Signature, Certificate Sign, CRL Sign
    Signature Algorithm: ecdsa-with-SHA256
         30:81:87:02:41:60:cd:fa:94:0d:23:c3:4e:3c:b1:6e:d9:b6:
         5b:0e:97:1e:a4:df:0a:7c:05:2e:61:0c:d7:c0:e5:86:16:0c:
         7b:01:a5:33:9a:e6:31:a0:62:91:da:dc:22:d1:ba:4f:75:43:
         94:43:67:91:20:08:66:96:27:53:b2:61:0e:59:0a:50:02:42:
         01:ec:87:8d:ca:6d:e0:bf:30:ba:ef:37:13:ad:f6:d1:c4:fc:
         b5:e5:4b:96:c2:83:a0:d8:ed:04:73:85:8d:54:d7:e9:9a:67:
         8a:cf:11:36:4a:f2:2f:85:5a:24:5e:3c:79:e1:a7:c4:ec:78:
         82:7a:52:25:c4:55:57:95:0e:6f:c9:d5
-----BEGIN CERTIFICATE-----
MIIDBzCCAmmgAwIBAgIBATAKBggqhkjOPQQDAjCBlzELMAkGA1UEBhMCVVMxEDAO
BgNVBAgMB01vbnRhbmExEDAOBgNVBAcMB0JvemVtYW4xFTATBgNVBAoMDHdvbGZT
U0xfUDUyMTESMBAGA1UECwwJUm9vdC1QNTIxMRgwFgYDVQQDDA93d3cud29sZnNz
bC5jb20xHzAdBgkqhkiG9w0BCQEWEGluZm9Ad29sZnNzbC5jb20wHhcNMjAwOTE0
MjM1NzE4WhcNMjMwNjExMjM1NzE4WjCBlTELMAkGA1UEBhMCVVMxEDAOBgNVBAgM
B01vbnRhbmExEDAOBgNVBAcMB0JvemVtYW4xFTATBgNVBAoMDHdvbGZTU0xfcDUy
MTEQMA4GA1UECwwHQ0EtcDUyMTEYMBYGA1UEAwwPd3d3LndvbGZzc2wuY29tMR8w
HQYJKoZIhvcNAQkBFhBpbmZvQHdvbGZzc2wuY29tMIGbMBAGByqGSM49AgEGBSuB
BAAjA4GGAAQALRgkLeTbbMNpm9sYZzPxYGiUFM2RSldl7zb6JIKI7Mfwy0hFbpZf
f+t2vkRAwxnAM2jEBgSOwiWxloMiDnvHsvwBhpHtQ1044AwljbPbsdzetyGAz4fe
ZPQhPi2veb320ABLgXn69xCqGc1A1x51NFMpA+1IVCHlj5W1m0GNX91y0lqjYzBh
MB0GA1UdDgQWBBRAiR0wXgxu1T3G1SWQ2rZCZ+3pgjAfBgNVHSMEGDAWgBRkp2iV
UzMYoiCSvGRVpqvKdmibyDAPBgNVHRMBAf8EBTADAQH/MA4GA1UdDwEB/wQEAwIB
hjAKBggqhkjOPQQDAgOBiwAwgYcCQWDN+pQNI8NOPLFu2bZbDpcepN8KfAUuYQzX
wOWGFgx7AaUzmuYxoGKR2twi0bpPdUOUQ2eRIAhmlidTsmEOWQpQAkIB7IeNym3g
vzC67zcTrfbRxPy15UuWwoOg2O0Ec4WNVNfpmmeKzxE2SvIvhVokXjx54afE7HiC
elIlxFVXlQ5vydU=
-----END CERTIFICATE-----
