Certificate:
    Data:
        Version: 3 (0x2)
        Serial Number: 1 (0x1)
    Signature Algorithm: ecdsa-with-SHA256
        Issuer: C=US, ST=Montana, L=Bozeman, O=wolfSSL_p521, OU=CA-p521, CN=www.wolfssl.com/emailAddress=info@wolfssl.com
        Validity
            Not Before: Feb 10 19:49:53 2021 GMT
            Not After : Nov  7 19:49:53 2023 GMT
        Subject: C=US, ST=Montana, L=Bozeman, O=wolfSSL_p521, OU=Server-p521, CN=www.wolfssl.com/emailAddress=info@wolfssl.com
        Subject Public Key Info:
            Public Key Algorithm: id-ecPublicKey
                Public-Key: (521 bit)
                pub: 
                    04:00:de:70:69:f6:d1:9e:c4:fe:5f:82:52:98:ce:
                    52:c1:6a:4c:12:22:0f:76:88:22:11:a5:0d:a6:02:
                    47:91:ab:79:8d:f6:08:70:2d:20:14:15:df:1b:57:
                    58:b3:51:ab:20:a8:2b:bd:6a:3f:a9:ee:c2:6d:ae:
                    99:44:b4:a1:12:10:70:00:ca:1f:14:1d:b0:e7:0c:
                    41:18:52:37:04:a7:84:53:a1:02:46:93:1f:d5:60:
                    63:a6:2e:7d:8d:ea:3f:e0:5b:e5:c8:6e:1f:a7:d9:
                    a3:59:e5:96:27:22:f4:02:2b:af:5b:78:1f:13:a8:
                    22:8b:ec:ae:01:7d:c0:61:13:a4:35:0a:21
                ASN1 OID: secp521r1
                NIST CURVE: P-521
        X509v3 extensions:
            X509v3 Subject Key Identifier: 
                85:86:9F:AE:73:5F:94:77:27:3B:15:15:C6:79:07:A8:42:4B:1E:F3
            X509v3 Authority Key Identifier: 
                keyid:40:89:1D:30:5E:0C:6E:D5:3D:C6:D5:25:90:DA:B6:42:67:ED:E9:82

            X509v3 Basic Constraints: critical
                CA:FALSE
            X509v3 Key Usage: critical
                Digital Signature, Key Encipherment, Key Agreement
            X509v3 Extended Key Usage: 
                TLS Web Server Authentication
            Netscape Cert Type: 
                SSL Server
    Signature Algorithm: ecdsa-with-SHA256
         30:81:88:02:42:01:47:61:fe:54:a4:3f:84:c7:04:12:32:5f:
         c7:3b:0e:eb:9a:0d:46:be:d4:17:f0:df:e1:6b:a6:a3:00:0a:
         b5:cb:ec:27:c0:f4:4a:5b:50:a9:1c:08:42:83:fa:37:ae:54:
         f6:38:07:aa:46:8b:b4:c1:60:15:c7:e3:da:05:0e:8f:4b:02:
         42:01:9e:ee:b3:90:5f:ff:7a:2e:c7:5c:10:d4:6d:b7:25:55:
         dc:04:96:bd:0a:11:63:fa:26:66:4d:59:68:a1:04:7f:88:29:
         d9:4b:3c:93:21:22:cd:65:b6:a3:b5:74:fd:d5:de:71:07:5b:
         fa:5a:49:ae:e6:da:21:93:fb:f5:90:06:e4
-----BEGIN CERTIFICATE-----
MIIDMTCCApKgAwIBAgIBATAKBggqhkjOPQQDAjCBlTELMAkGA1UEBhMCVVMxEDAO
BgNVBAgMB01vbnRhbmExEDAOBgNVBAcMB0JvemVtYW4xFTATBgNVBAoMDHdvbGZT
U0xfcDUyMTEQMA4GA1UECwwHQ0EtcDUyMTEYMBYGA1UEAwwPd3d3LndvbGZzc2wu
Y29tMR8wHQYJKoZIhvcNAQkBFhBpbmZvQHdvbGZzc2wuY29tMB4XDTIxMDIxMDE5
NDk1M1oXDTIzMTEwNzE5NDk1M1owgZkxCzAJBgNVBAYTAlVTMRAwDgYDVQQIDAdN
b250YW5hMRAwDgYDVQQHDAdCb3plbWFuMRUwEwYDVQQKDAx3b2xmU1NMX3A1MjEx
FDASBgNVBAsMC1NlcnZlci1wNTIxMRgwFgYDVQQDDA93d3cud29sZnNzbC5jb20x
HzAdBgkqhkiG9w0BCQEWEGluZm9Ad29sZnNzbC5jb20wgZswEAYHKoZIzj0CAQYF
K4EEACMDgYYABADecGn20Z7E/l+CUpjOUsFqTBIiD3aIIhGlDaYCR5GreY32CHAt
IBQV3xtXWLNRqyCoK71qP6nuwm2umUS0oRIQcADKHxQdsOcMQRhSNwSnhFOhAkaT
H9VgY6YufY3qP+Bb5chuH6fZo1nllici9AIrr1t4HxOoIovsrgF9wGETpDUKIaOB
iTCBhjAdBgNVHQ4EFgQUhYafrnNflHcnOxUVxnkHqEJLHvMwHwYDVR0jBBgwFoAU
QIkdMF4MbtU9xtUlkNq2Qmft6YIwDAYDVR0TAQH/BAIwADAOBgNVHQ8BAf8EBAMC
A6gwEwYDVR0lBAwwCgYIKwYBBQUHAwEwEQYJYIZIAYb4QgEBBAQDAgZAMAoGCCqG
SM49BAMCA4GMADCBiAJCAUdh/lSkP4THBBIyX8c7DuuaDUa+1Bfw3+FrpqMACrXL
7CfA9EpbUKkcCEKD+jeuVPY4B6pGi7TBYBXH49oFDo9LAkIBnu6zkF//ei7HXBDU
bbclVdwElr0KEWP6JmZNWWihBH+IKdlLPJMhIs1ltqO1dP3V3nEHW/paSa7m2iGT
+/WQBuQ=
-----END CERTIFICATE-----
Certificate:
    Data:
        Version: 3 (0x2)
        Serial Number: 1 (0x1)
    Signature Algorithm: ecdsa-with-SHA256
        Issuer: C=US, ST=Montana, L=Bozeman, O=wolfSSL_P521, OU=Root-P521, CN=www.wolfssl.com/emailAddress=info@wolfssl.com
        Validity
            Not Before: Feb 10 19:49:53 2021 GMT
            Not After : Nov  7 19:49:53 2023 GMT
        Subject: C=US, ST=Montana, L=Bozeman, O=wolfSSL_p521, OU=CA-p521, CN=www.wolfssl.com/emailAddress=info@wolfssl.com
        Subject Public Key Info:
            Public Key Algorithm: id-ecPublicKey
                Public-Key: (521 bit)
                pub: 
                    04:00:2d:18:24:2d:e4:db:6c:c3:69:9b:db:18:67:
                    33:f1:60:68:94:14:cd:91:4a:57:65:ef:36:fa:24:
                    82:88:ec:c7:f0:cb:48:45:6e:96:5f:7f:eb:76:be:
                    44:40:c3:19:c0:33:68:c4:06:04:8e:c2:25:b1:96:
                    83:22:0e:7b:c7:b2:fc:01:86:91:ed:43:5d:38:e0:
                    0c:25:8d:b3:db:b1:dc:de:b7:21:80:cf:87:de:64:
                    f4:21:3e:2d:af:79:bd:f6:d0:00:4b:81:79:fa:f7:
                    10:aa:19:cd:40:d7:1e:75:34:53:29:03:ed:48:54:
                    21:e5:8f:95:b5:9b:41:8d:5f:dd:72:d2:5a
                ASN1 OID: secp521r1
                NIST CURVE: P-521
        X509v3 extensions:
            X509v3 Subject Key Identifier: 
                40:89:1D:30:5E:0C:6E:D5:3D:C6:D5:25:90:DA:B6:42:67:ED:E9:82
            X509v3 Authority Key Identifier: 
                keyid:64:A7:68:95:53:33:18:A2:20:92:BC:64:55:A6:AB:CA:76:68:9B:C8

            X509v3 Basic Constraints: critical
                CA:TRUE
            X509v3 Key Usage: critical
                Digital Signature, Certificate Sign, CRL Sign
    Signature Algorithm: ecdsa-with-SHA256
         30:81:88:02:42:01:c4:4b:30:70:d8:b3:34:56:15:6a:b2:dc:
         09:af:f9:f8:a2:b8:6b:e7:46:8c:5e:95:77:d0:db:92:6a:d4:
         05:33:4b:94:66:eb:6c:02:50:c0:11:21:65:d8:47:c2:0c:6d:
         10:c4:3b:93:97:66:ca:71:b0:a4:51:3d:e1:e9:71:c7:87:02:
         42:00:a1:73:18:75:c7:aa:77:88:49:cd:5f:e6:7b:f5:c3:b0:
         77:27:ed:23:08:7c:aa:ba:a0:40:21:69:98:6b:95:fe:97:fb:
         26:70:5b:6b:52:1f:42:9b:7d:8c:81:91:bc:2a:b6:eb:b7:3a:
         99:20:c7:17:44:61:ee:50:f2:e9:8d:ca:21
-----BEGIN CERTIFICATE-----
MIIDCDCCAmmgAwIBAgIBATAKBggqhkjOPQQDAjCBlzELMAkGA1UEBhMCVVMxEDAO
BgNVBAgMB01vbnRhbmExEDAOBgNVBAcMB0JvemVtYW4xFTATBgNVBAoMDHdvbGZT
U0xfUDUyMTESMBAGA1UECwwJUm9vdC1QNTIxMRgwFgYDVQQDDA93d3cud29sZnNz
bC5jb20xHzAdBgkqhkiG9w0BCQEWEGluZm9Ad29sZnNzbC5jb20wHhcNMjEwMjEw
MTk0OTUzWhcNMjMxMTA3MTk0OTUzWjCBlTELMAkGA1UEBhMCVVMxEDAOBgNVBAgM
B01vbnRhbmExEDAOBgNVBAcMB0JvemVtYW4xFTATBgNVBAoMDHdvbGZTU0xfcDUy
MTEQMA4GA1UECwwHQ0EtcDUyMTEYMBYGA1UEAwwPd3d3LndvbGZzc2wuY29tMR8w
HQYJKoZIhvcNAQkBFhBpbmZvQHdvbGZzc2wuY29tMIGbMBAGByqGSM49AgEGBSuB
BAAjA4GGAAQALRgkLeTbbMNpm9sYZzPxYGiUFM2RSldl7zb6JIKI7Mfwy0hFbpZf
f+t2vkRAwxnAM2jEBgSOwiWxloMiDnvHsvwBhpHtQ1044AwljbPbsdzetyGAz4fe
ZPQhPi2veb320ABLgXn69xCqGc1A1x51NFMpA+1IVCHlj5W1m0GNX91y0lqjYzBh
MB0GA1UdDgQWBBRAiR0wXgxu1T3G1SWQ2rZCZ+3pgjAfBgNVHSMEGDAWgBRkp2iV
UzMYoiCSvGRVpqvKdmibyDAPBgNVHRMBAf8EBTADAQH/MA4GA1UdDwEB/wQEAwIB
hjAKBggqhkjOPQQDAgOBjAAwgYgCQgHESzBw2LM0VhVqstwJr/n4orhr50aMXpV3
0NuSatQFM0uUZutsAlDAESFl2EfCDG0QxDuTl2bKcbCkUT3h6XHHhwJCAKFzGHXH
qneISc1f5nv1w7B3J+0jCHyquqBAIWmYa5X+l/smcFtrUh9Cm32MgZG8KrbrtzqZ
IMcXRGHuUPLpjcoh
-----END CERTIFICATE-----
