Certificate:
    Data:
        Version: 3 (0x2)
        Serial Number:
            1c:51:b2:53:72:e9:2e:9f:6c:07:60:e6:b5:8b:f0:bf:fd:6c:5d:40
        Signature Algorithm: sha256WithRSAEncryption
        Issuer: C = US, ST = Montana, L = Bozeman, O = wolfSSL_4096, OU = Programming-4096, CN = www.wolfssl.com, emailAddress = info@wolfssl.com
        Validity
            Not Before: Feb 15 12:50:24 2022 GMT
            Not After : Nov 11 12:50:24 2024 GMT
        Subject: C = US, ST = Montana, L = Bozeman, O = wolfSSL_4096, OU = Programming-4096, CN = www.wolfssl.com, emailAddress = info@wolfssl.com
        Subject Public Key Info:
            Public Key Algorithm: rsaEncryption
                RSA Public-Key: (4096 bit)
                Modulus:
                    00:f5:d0:31:e4:71:59:58:b3:07:50:dd:16:79:fc:
                    c6:95:50:fc:46:0e:57:12:86:71:8d:e3:9b:4a:33:
                    ea:4f:d9:17:13:6d:48:69:df:59:11:08:02:9d:af:
                    2b:c7:30:be:0c:dc:87:d4:5a:12:09:23:5d:e1:76:
                    5a:62:37:46:74:ef:03:05:bb:1e:6d:29:75:6c:2e:
                    9d:87:0d:8f:87:cb:14:95:9b:be:17:6b:51:d1:4c:
                    da:d7:91:66:c5:36:eb:e0:07:1a:76:4d:b0:fb:c1:
                    f5:5e:05:db:ba:cb:25:d9:99:13:1c:c0:35:dc:40:
                    e9:36:cd:c4:d5:7a:41:70:0f:36:eb:a5:4e:17:05:
                    d5:75:1b:64:62:7a:3f:0d:28:48:6a:e3:ac:9c:a8:
                    8f:e9:ed:f7:cd:24:a0:b1:a0:03:ac:e3:03:f5:3f:
                    d1:96:ff:2a:7e:08:b1:d3:e0:18:14:ec:65:37:50:
                    43:c2:6a:8c:f4:5b:fe:c4:cb:8d:3f:81:02:f7:c2:
                    dd:e4:c1:8e:80:0c:04:25:2d:80:5a:2e:0f:22:35:
                    4a:f4:85:ed:51:d8:ab:6d:8f:a2:3b:24:00:6e:81:
                    e2:1e:76:d6:ac:31:12:db:f3:8e:07:a1:de:89:4a:
                    39:60:77:c5:aa:f1:51:e6:06:f1:95:56:2a:e1:8e:
                    92:30:9f:fe:58:44:ac:46:f2:fd:9a:fc:a8:1d:a1:
                    d3:55:37:4a:8b:fc:9c:33:f8:a7:61:48:41:7c:9c:
                    77:3f:f5:80:23:7d:43:b4:d5:88:0a:c9:75:d7:44:
                    19:4d:77:6c:0b:0a:49:aa:1c:2f:d6:5a:44:a6:47:
                    4d:e5:36:96:40:99:2c:56:26:b1:f2:92:31:59:d7:
                    2c:d4:b4:21:d6:65:13:0b:3e:fb:ff:04:eb:b9:85:
                    b9:d8:d8:28:4f:5c:17:96:a3:51:be:fe:7d:0b:1b:
                    48:40:25:76:94:dc:41:fb:bf:73:76:da:eb:b3:62:
                    e7:c1:c8:54:6a:93:e1:8d:31:e8:3e:3e:df:bc:87:
                    02:30:22:57:c4:e0:18:7a:d3:ae:e4:02:9b:aa:bd:
                    4e:49:47:72:e9:8d:13:2d:54:9b:00:a7:91:61:71:
                    c9:cc:48:4f:ee:df:5e:1b:1a:df:67:d3:20:e6:44:
                    45:98:7e:e7:0e:63:16:83:c9:26:5d:90:c1:e5:2a:
                    5c:45:54:13:b2:81:18:06:20:2e:2e:66:5a:b5:7b:
                    6e:d6:0c:4e:89:01:56:70:bb:ae:de:e9:99:5e:d1:
                    b9:3a:b7:6c:17:b6:03:a9:08:dd:9c:f4:14:c9:c9:
                    59:39:72:d4:7e:02:37:31:cd:0e:a7:3d:f8:f2:cf:
                    6b:15:ab
                Exponent: 65537 (0x10001)
        X509v3 extensions:
            X509v3 Subject Key Identifier: 
                FA:54:89:67:E5:5F:B7:31:40:EA:FD:E7:F6:A3:C6:5A:56:16:A5:6E
            X509v3 Authority Key Identifier: 
                keyid:FA:54:89:67:E5:5F:B7:31:40:EA:FD:E7:F6:A3:C6:5A:56:16:A5:6E
                DirName:/C=US/ST=Montana/L=Bozeman/O=wolfSSL_4096/OU=Programming-4096/CN=www.wolfssl.com/emailAddress=info@wolfssl.com
                serial:1C:51:B2:53:72:E9:2E:9F:6C:07:60:E6:B5:8B:F0:BF:FD:6C:5D:40

            X509v3 Basic Constraints: 
                CA:TRUE
            X509v3 Subject Alternative Name: 
                DNS:example.com, IP Address:127.0.0.1
            X509v3 Extended Key Usage: 
                TLS Web Server Authentication, TLS Web Client Authentication
    Signature Algorithm: sha256WithRSAEncryption
         17:18:82:26:09:97:dd:af:eb:a6:55:24:1e:e6:b5:38:ac:38:
         39:ac:2a:29:6a:d0:5a:7c:38:30:af:e2:74:8b:3e:36:d1:b9:
         f8:02:ca:53:35:20:2b:ff:07:6a:47:0e:cf:13:04:c0:c1:7c:
         d8:fc:d1:54:4e:95:e1:c1:6a:7d:4d:f1:12:82:4d:af:27:24:
         39:5a:fd:b4:32:cd:4d:04:39:4c:c9:e2:f6:4d:66:be:5f:97:
         d9:4d:11:ff:a4:cd:40:7d:06:0c:25:93:f9:c7:33:61:f0:41:
         93:12:8c:c0:f5:16:81:f0:0b:04:07:4c:6f:4a:c6:d1:97:80:
         3d:4b:5f:20:7b:20:7f:1b:51:09:12:c2:64:08:7e:d6:27:37:
         db:b2:a4:ea:0a:f8:f0:0f:e9:d8:a6:cd:12:ea:48:83:e6:d6:
         6e:e0:56:04:e3:d5:ca:00:6c:67:08:40:73:0b:be:49:79:25:
         fa:69:26:74:50:10:c8:e9:02:67:22:d2:2b:b5:fd:2d:30:03:
         b8:4e:a4:35:9d:7c:f4:43:da:aa:74:e2:d1:77:d1:ea:0b:78:
         4d:ce:2e:8e:8c:2e:70:a7:57:38:68:9f:05:bf:5f:cb:78:b5:
         dd:90:85:50:b6:94:c8:e2:aa:37:25:6a:ec:47:9a:c6:50:ca:
         3c:bc:ef:f5:f3:a9:e3:5f:e5:0a:a7:e8:58:ab:14:cc:aa:38:
         fe:9d:a4:8a:26:29:fe:81:05:dc:e2:21:a2:4a:5d:c7:5b:5e:
         1f:4a:98:27:96:2c:e3:ae:e0:f0:3a:53:17:e8:b5:2a:ad:b3:
         90:97:ed:aa:cb:af:fa:26:47:70:4a:ab:a7:f1:d7:99:5e:f6:
         cc:fe:d2:43:76:77:90:ab:83:5e:ac:57:43:69:4e:cb:81:05:
         4e:88:f3:1c:ed:46:12:6b:55:b2:a4:45:18:ee:d8:1b:29:8f:
         88:71:6a:ec:85:fd:38:4b:08:19:22:c6:96:25:3d:f6:91:27:
         0a:8d:43:46:9d:52:a7:78:ad:4a:5e:7d:8f:2c:da:63:28:04:
         7b:40:40:fa:93:86:21:68:50:3c:35:78:e6:6b:f9:0d:9e:06:
         02:37:a2:99:0c:58:09:fb:a2:48:ef:e8:68:5c:b7:cc:ed:b0:
         f0:0b:ee:5e:ea:0f:e6:fd:b7:26:b4:cd:c6:27:df:be:64:93:
         1a:64:5c:87:a5:67:1b:4a:06:dd:5b:c9:54:7a:8a:b1:9a:f3:
         1f:dc:bb:a7:59:aa:e6:68:22:5a:92:c6:12:fb:24:25:84:3f:
         28:5c:e3:81:dc:34:da:31:74:d9:4b:2b:1f:6d:fc:3e:a3:6f:
         ca:1c:92:8c:50:c9:f5:03
-----BEGIN CERTIFICATE-----
MIIHHTCCBQWgAwIBAgIUHFGyU3LpLp9sB2DmtYvwv/1sXUAwDQYJKoZIhvcNAQEL
BQAwgZ4xCzAJBgNVBAYTAlVTMRAwDgYDVQQIDAdNb250YW5hMRAwDgYDVQQHDAdC
b3plbWFuMRUwEwYDVQQKDAx3b2xmU1NMXzQwOTYxGTAXBgNVBAsMEFByb2dyYW1t
aW5nLTQwOTYxGDAWBgNVBAMMD3d3dy53b2xmc3NsLmNvbTEfMB0GCSqGSIb3DQEJ
ARYQaW5mb0B3b2xmc3NsLmNvbTAeFw0yMjAyMTUxMjUwMjRaFw0yNDExMTExMjUw
MjRaMIGeMQswCQYDVQQGEwJVUzEQMA4GA1UECAwHTW9udGFuYTEQMA4GA1UEBwwH
Qm96ZW1hbjEVMBMGA1UECgwMd29sZlNTTF80MDk2MRkwFwYDVQQLDBBQcm9ncmFt
bWluZy00MDk2MRgwFgYDVQQDDA93d3cud29sZnNzbC5jb20xHzAdBgkqhkiG9w0B
CQEWEGluZm9Ad29sZnNzbC5jb20wggIiMA0GCSqGSIb3DQEBAQUAA4ICDwAwggIK
AoICAQD10DHkcVlYswdQ3RZ5/MaVUPxGDlcShnGN45tKM+pP2RcTbUhp31kRCAKd
ryvHML4M3IfUWhIJI13hdlpiN0Z07wMFux5tKXVsLp2HDY+HyxSVm74Xa1HRTNrX
kWbFNuvgBxp2TbD7wfVeBdu6yyXZmRMcwDXcQOk2zcTVekFwDzbrpU4XBdV1G2Ri
ej8NKEhq46ycqI/p7ffNJKCxoAOs4wP1P9GW/yp+CLHT4BgU7GU3UEPCaoz0W/7E
y40/gQL3wt3kwY6ADAQlLYBaLg8iNUr0he1R2Kttj6I7JABugeIedtasMRLb844H
od6JSjlgd8Wq8VHmBvGVVirhjpIwn/5YRKxG8v2a/KgdodNVN0qL/Jwz+KdhSEF8
nHc/9YAjfUO01YgKyXXXRBlNd2wLCkmqHC/WWkSmR03lNpZAmSxWJrHykjFZ1yzU
tCHWZRMLPvv/BOu5hbnY2ChPXBeWo1G+/n0LG0hAJXaU3EH7v3N22uuzYufByFRq
k+GNMeg+Pt+8hwIwIlfE4Bh6067kApuqvU5JR3LpjRMtVJsAp5FhccnMSE/u314b
Gt9n0yDmREWYfucOYxaDySZdkMHlKlxFVBOygRgGIC4uZlq1e27WDE6JAVZwu67e
6Zle0bk6t2wXtgOpCN2c9BTJyVk5ctR+AjcxzQ6nPfjyz2sVqwIDAQABo4IBTzCC
AUswHQYDVR0OBBYEFPpUiWflX7cxQOr95/ajxlpWFqVuMIHeBgNVHSMEgdYwgdOA
FPpUiWflX7cxQOr95/ajxlpWFqVuoYGkpIGhMIGeMQswCQYDVQQGEwJVUzEQMA4G
A1UECAwHTW9udGFuYTEQMA4GA1UEBwwHQm96ZW1hbjEVMBMGA1UECgwMd29sZlNT
TF80MDk2MRkwFwYDVQQLDBBQcm9ncmFtbWluZy00MDk2MRgwFgYDVQQDDA93d3cu
d29sZnNzbC5jb20xHzAdBgkqhkiG9w0BCQEWEGluZm9Ad29sZnNzbC5jb22CFBxR
slNy6S6fbAdg5rWL8L/9bF1AMAwGA1UdEwQFMAMBAf8wHAYDVR0RBBUwE4ILZXhh
bXBsZS5jb22HBH8AAAEwHQYDVR0lBBYwFAYIKwYBBQUHAwEGCCsGAQUFBwMCMA0G
CSqGSIb3DQEBCwUAA4ICAQAXGIImCZfdr+umVSQe5rU4rDg5rCopatBafDgwr+J0
iz420bn4AspTNSAr/wdqRw7PEwTAwXzY/NFUTpXhwWp9TfESgk2vJyQ5Wv20Ms1N
BDlMyeL2TWa+X5fZTRH/pM1AfQYMJZP5xzNh8EGTEozA9RaB8AsEB0xvSsbRl4A9
S18geyB/G1EJEsJkCH7WJzfbsqTqCvjwD+nYps0S6kiD5tZu4FYE49XKAGxnCEBz
C75JeSX6aSZ0UBDI6QJnItIrtf0tMAO4TqQ1nXz0Q9qqdOLRd9HqC3hNzi6OjC5w
p1c4aJ8Fv1/LeLXdkIVQtpTI4qo3JWrsR5rGUMo8vO/186njX+UKp+hYqxTMqjj+
naSKJin+gQXc4iGiSl3HW14fSpgnlizjruDwOlMX6LUqrbOQl+2qy6/6JkdwSqun
8deZXvbM/tJDdneQq4NerFdDaU7LgQVOiPMc7UYSa1WypEUY7tgbKY+IcWrshf04
SwgZIsaWJT32kScKjUNGnVKneK1KXn2PLNpjKAR7QED6k4YhaFA8NXjma/kNngYC
N6KZDFgJ+6JI7+hoXLfM7bDwC+5e6g/m/bcmtM3GJ9++ZJMaZFyHpWcbSgbdW8lU
eoqxmvMf3LunWarmaCJaksYS+yQlhD8oXOOB3DTaMXTZSysfbfw+o2/KHJKMUMn1
Aw==
-----END CERTIFICATE-----
