Certificate:
    Data:
        Version: 3 (0x2)
        Serial Number:
            2f:36:54:05:64:52:dd:0e:75:75:33:7c:b2:ce:9f:5c:48:9b:ab:0e
        Signature Algorithm: sha256WithRSAEncryption
        Issuer: C = US, ST = Montana, L = Bozeman, O = wolfSSL_4096, OU = Programming-4096, CN = www.wolfssl.com, emailAddress = info@wolfssl.com
        Validity
            Not Before: Dec 13 22:19:28 2023 GMT
            Not After : Sep  8 22:19:28 2026 GMT
        Subject: C = US, ST = Montana, L = Bozeman, O = wolfSSL_4096, OU = Programming-4096, CN = www.wolfssl.com, emailAddress = info@wolfssl.com
        Subject Public Key Info:
            Public Key Algorithm: rsaEncryption
                RSA Public-Key: (4096 bit)
                Modulus:
                    00:f5:d0:31:e4:71:59:58:b3:07:50:dd:16:79:fc:
                    c6:95:50:fc:46:0e:57:12:86:71:8d:e3:9b:4a:33:
                    ea:4f:d9:17:13:6d:48:69:df:59:11:08:02:9d:af:
                    2b:c7:30:be:0c:dc:87:d4:5a:12:09:23:5d:e1:76:
                    5a:62:37:46:74:ef:03:05:bb:1e:6d:29:75:6c:2e:
                    9d:87:0d:8f:87:cb:14:95:9b:be:17:6b:51:d1:4c:
                    da:d7:91:66:c5:36:eb:e0:07:1a:76:4d:b0:fb:c1:
                    f5:5e:05:db:ba:cb:25:d9:99:13:1c:c0:35:dc:40:
                    e9:36:cd:c4:d5:7a:41:70:0f:36:eb:a5:4e:17:05:
                    d5:75:1b:64:62:7a:3f:0d:28:48:6a:e3:ac:9c:a8:
                    8f:e9:ed:f7:cd:24:a0:b1:a0:03:ac:e3:03:f5:3f:
                    d1:96:ff:2a:7e:08:b1:d3:e0:18:14:ec:65:37:50:
                    43:c2:6a:8c:f4:5b:fe:c4:cb:8d:3f:81:02:f7:c2:
                    dd:e4:c1:8e:80:0c:04:25:2d:80:5a:2e:0f:22:35:
                    4a:f4:85:ed:51:d8:ab:6d:8f:a2:3b:24:00:6e:81:
                    e2:1e:76:d6:ac:31:12:db:f3:8e:07:a1:de:89:4a:
                    39:60:77:c5:aa:f1:51:e6:06:f1:95:56:2a:e1:8e:
                    92:30:9f:fe:58:44:ac:46:f2:fd:9a:fc:a8:1d:a1:
                    d3:55:37:4a:8b:fc:9c:33:f8:a7:61:48:41:7c:9c:
                    77:3f:f5:80:23:7d:43:b4:d5:88:0a:c9:75:d7:44:
                    19:4d:77:6c:0b:0a:49:aa:1c:2f:d6:5a:44:a6:47:
                    4d:e5:36:96:40:99:2c:56:26:b1:f2:92:31:59:d7:
                    2c:d4:b4:21:d6:65:13:0b:3e:fb:ff:04:eb:b9:85:
                    b9:d8:d8:28:4f:5c:17:96:a3:51:be:fe:7d:0b:1b:
                    48:40:25:76:94:dc:41:fb:bf:73:76:da:eb:b3:62:
                    e7:c1:c8:54:6a:93:e1:8d:31:e8:3e:3e:df:bc:87:
                    02:30:22:57:c4:e0:18:7a:d3:ae:e4:02:9b:aa:bd:
                    4e:49:47:72:e9:8d:13:2d:54:9b:00:a7:91:61:71:
                    c9:cc:48:4f:ee:df:5e:1b:1a:df:67:d3:20:e6:44:
                    45:98:7e:e7:0e:63:16:83:c9:26:5d:90:c1:e5:2a:
                    5c:45:54:13:b2:81:18:06:20:2e:2e:66:5a:b5:7b:
                    6e:d6:0c:4e:89:01:56:70:bb:ae:de:e9:99:5e:d1:
                    b9:3a:b7:6c:17:b6:03:a9:08:dd:9c:f4:14:c9:c9:
                    59:39:72:d4:7e:02:37:31:cd:0e:a7:3d:f8:f2:cf:
                    6b:15:ab
                Exponent: 65537 (0x10001)
        X509v3 extensions:
            X509v3 Subject Key Identifier: 
                FA:54:89:67:E5:5F:B7:31:40:EA:FD:E7:F6:A3:C6:5A:56:16:A5:6E
            X509v3 Authority Key Identifier: 
                keyid:FA:54:89:67:E5:5F:B7:31:40:EA:FD:E7:F6:A3:C6:5A:56:16:A5:6E
                DirName:/C=US/ST=Montana/L=Bozeman/O=wolfSSL_4096/OU=Programming-4096/CN=www.wolfssl.com/emailAddress=info@wolfssl.com
                serial:2F:36:54:05:64:52:DD:0E:75:75:33:7C:B2:CE:9F:5C:48:9B:AB:0E

            X509v3 Basic Constraints: 
                CA:TRUE
            X509v3 Subject Alternative Name: 
                DNS:example.com, IP Address:127.0.0.1
            X509v3 Extended Key Usage: 
                TLS Web Server Authentication, TLS Web Client Authentication
    Signature Algorithm: sha256WithRSAEncryption
         c2:72:38:27:f0:5c:45:04:4b:09:0e:5d:98:6e:38:6a:bc:fb:
         a8:85:4f:f2:04:38:63:4f:86:4f:3c:f5:fd:f8:cd:89:09:76:
         72:47:97:df:f8:17:6a:81:3a:b2:b4:fc:ac:e9:fc:e2:47:9b:
         07:6d:9c:53:ed:d8:64:bc:6c:4d:a9:bd:3e:5e:cd:61:bc:8e:
         82:20:b2:50:bc:9e:72:e6:9f:40:ff:6c:4b:38:f8:4b:82:0f:
         7e:49:cd:45:5c:cd:44:de:47:25:b3:57:d0:1a:0d:8d:4d:c7:
         ea:23:fa:03:e8:86:d8:37:89:84:2e:e8:53:7a:77:be:94:ec:
         70:e7:c4:7b:8f:6f:28:67:33:89:ec:c9:df:98:6d:4a:d9:c6:
         7b:d3:b5:82:d0:8a:ce:8f:06:bf:a2:f7:de:4a:45:22:6f:ff:
         41:6f:08:f5:c3:65:25:27:fb:43:3e:cc:25:0a:d3:3d:d2:34:
         9f:89:6b:e2:97:9c:42:d9:3e:64:03:45:5f:07:95:ed:1a:70:
         6a:be:3e:7f:7f:16:be:47:a6:6d:3b:0d:27:b3:89:b1:f1:f6:
         ce:99:71:18:b6:c0:c5:9e:76:7a:8e:fb:4a:be:4f:cd:bc:21:
         a9:4e:9c:fc:48:86:ff:e4:63:14:96:3a:eb:c8:48:ae:27:bd:
         43:0c:27:85:e1:25:1a:69:48:6c:e7:11:f8:f3:68:9d:ee:15:
         1a:be:ad:46:33:24:3d:be:b8:0e:6e:4d:ef:12:b6:ae:1b:88:
         bd:0e:a6:ff:91:08:dc:ed:af:fa:13:2b:f2:b4:2c:ea:72:c2:
         85:d6:ee:64:09:e1:4e:1a:5a:bd:c2:44:c2:95:82:59:0a:d8:
         27:bc:48:4a:8a:a3:c3:77:ac:92:b6:8b:0b:13:e2:87:ec:21:
         7e:7e:52:29:51:5c:59:e1:c8:db:05:ce:9e:f4:36:d8:63:42:
         45:71:9a:ee:0e:24:b0:ba:a5:a5:aa:c9:ee:9e:a3:e3:e9:7f:
         c6:64:6c:9e:65:78:88:f2:61:6f:d3:3b:9e:0d:16:fa:ad:c2:
         58:ac:bc:14:b1:f7:6f:db:b9:7e:79:81:f1:f8:e9:41:5b:fe:
         d9:e2:89:86:5c:01:03:5d:0c:d9:a9:d6:df:4b:26:5c:ae:e6:
         df:b5:c9:f0:86:ca:7b:80:db:6a:86:fd:a9:00:46:32:39:5a:
         72:c4:67:20:db:d8:7a:5d:2d:78:b9:a7:de:7f:f4:7a:5b:0f:
         38:b0:9e:1a:ae:c5:cc:ff:61:5e:ec:f1:0d:f7:0a:22:bb:cb:
         08:2b:91:58:77:1f:90:2b:a3:78:be:ef:4d:d8:8d:e8:f7:31:
         f8:92:84:e5:b2:2a:e8:3a
-----BEGIN CERTIFICATE-----
MIIHHTCCBQWgAwIBAgIULzZUBWRS3Q51dTN8ss6fXEibqw4wDQYJKoZIhvcNAQEL
BQAwgZ4xCzAJBgNVBAYTAlVTMRAwDgYDVQQIDAdNb250YW5hMRAwDgYDVQQHDAdC
b3plbWFuMRUwEwYDVQQKDAx3b2xmU1NMXzQwOTYxGTAXBgNVBAsMEFByb2dyYW1t
aW5nLTQwOTYxGDAWBgNVBAMMD3d3dy53b2xmc3NsLmNvbTEfMB0GCSqGSIb3DQEJ
ARYQaW5mb0B3b2xmc3NsLmNvbTAeFw0yMzEyMTMyMjE5MjhaFw0yNjA5MDgyMjE5
MjhaMIGeMQswCQYDVQQGEwJVUzEQMA4GA1UECAwHTW9udGFuYTEQMA4GA1UEBwwH
Qm96ZW1hbjEVMBMGA1UECgwMd29sZlNTTF80MDk2MRkwFwYDVQQLDBBQcm9ncmFt
bWluZy00MDk2MRgwFgYDVQQDDA93d3cud29sZnNzbC5jb20xHzAdBgkqhkiG9w0B
CQEWEGluZm9Ad29sZnNzbC5jb20wggIiMA0GCSqGSIb3DQEBAQUAA4ICDwAwggIK
AoICAQD10DHkcVlYswdQ3RZ5/MaVUPxGDlcShnGN45tKM+pP2RcTbUhp31kRCAKd
ryvHML4M3IfUWhIJI13hdlpiN0Z07wMFux5tKXVsLp2HDY+HyxSVm74Xa1HRTNrX
kWbFNuvgBxp2TbD7wfVeBdu6yyXZmRMcwDXcQOk2zcTVekFwDzbrpU4XBdV1G2Ri
ej8NKEhq46ycqI/p7ffNJKCxoAOs4wP1P9GW/yp+CLHT4BgU7GU3UEPCaoz0W/7E
y40/gQL3wt3kwY6ADAQlLYBaLg8iNUr0he1R2Kttj6I7JABugeIedtasMRLb844H
od6JSjlgd8Wq8VHmBvGVVirhjpIwn/5YRKxG8v2a/KgdodNVN0qL/Jwz+KdhSEF8
nHc/9YAjfUO01YgKyXXXRBlNd2wLCkmqHC/WWkSmR03lNpZAmSxWJrHykjFZ1yzU
tCHWZRMLPvv/BOu5hbnY2ChPXBeWo1G+/n0LG0hAJXaU3EH7v3N22uuzYufByFRq
k+GNMeg+Pt+8hwIwIlfE4Bh6067kApuqvU5JR3LpjRMtVJsAp5FhccnMSE/u314b
Gt9n0yDmREWYfucOYxaDySZdkMHlKlxFVBOygRgGIC4uZlq1e27WDE6JAVZwu67e
6Zle0bk6t2wXtgOpCN2c9BTJyVk5ctR+AjcxzQ6nPfjyz2sVqwIDAQABo4IBTzCC
AUswHQYDVR0OBBYEFPpUiWflX7cxQOr95/ajxlpWFqVuMIHeBgNVHSMEgdYwgdOA
FPpUiWflX7cxQOr95/ajxlpWFqVuoYGkpIGhMIGeMQswCQYDVQQGEwJVUzEQMA4G
A1UECAwHTW9udGFuYTEQMA4GA1UEBwwHQm96ZW1hbjEVMBMGA1UECgwMd29sZlNT
TF80MDk2MRkwFwYDVQQLDBBQcm9ncmFtbWluZy00MDk2MRgwFgYDVQQDDA93d3cu
d29sZnNzbC5jb20xHzAdBgkqhkiG9w0BCQEWEGluZm9Ad29sZnNzbC5jb22CFC82
VAVkUt0OdXUzfLLOn1xIm6sOMAwGA1UdEwQFMAMBAf8wHAYDVR0RBBUwE4ILZXhh
bXBsZS5jb22HBH8AAAEwHQYDVR0lBBYwFAYIKwYBBQUHAwEGCCsGAQUFBwMCMA0G
CSqGSIb3DQEBCwUAA4ICAQDCcjgn8FxFBEsJDl2YbjhqvPuohU/yBDhjT4ZPPPX9
+M2JCXZyR5ff+BdqgTqytPys6fziR5sHbZxT7dhkvGxNqb0+Xs1hvI6CILJQvJ5y
5p9A/2xLOPhLgg9+Sc1FXM1E3kcls1fQGg2NTcfqI/oD6IbYN4mELuhTene+lOxw
58R7j28oZzOJ7MnfmG1K2cZ707WC0IrOjwa/ovfeSkUib/9Bbwj1w2UlJ/tDPswl
CtM90jSfiWvil5xC2T5kA0VfB5XtGnBqvj5/fxa+R6ZtOw0ns4mx8fbOmXEYtsDF
nnZ6jvtKvk/NvCGpTpz8SIb/5GMUljrryEiuJ71DDCeF4SUaaUhs5xH482id7hUa
vq1GMyQ9vrgObk3vErauG4i9Dqb/kQjc7a/6EyvytCzqcsKF1u5kCeFOGlq9wkTC
lYJZCtgnvEhKiqPDd6yStosLE+KH7CF+flIpUVxZ4cjbBc6e9DbYY0JFcZruDiSw
uqWlqsnunqPj6X/GZGyeZXiI8mFv0zueDRb6rcJYrLwUsfdv27l+eYHx+OlBW/7Z
4omGXAEDXQzZqdbfSyZcrubftcnwhsp7gNtqhv2pAEYyOVpyxGcg29h6XS14uafe
f/R6Ww84sJ4arsXM/2Fe7PEN9woiu8sIK5FYdx+QK6N4vu9N2I3o9zH4koTlsiro
Og==
-----END CERTIFICATE-----
