Certificate:
    Data:
        Version: 3 (0x2)
        Serial Number: 11546908179272725132 (0xa03edbcf979a728c)
    Signature Algorithm: sha256WithRSAEncryption
        Issuer: C=US, ST=Montana, L=Bozeman, O=wolfSSL_4096, OU=Programming-4096, CN=www.wolfssl.com/emailAddress=info@wolfssl.com
        Validity
            Not Before: Feb 10 19:49:52 2021 GMT
            Not After : Nov  7 19:49:52 2023 GMT
        Subject: C=US, ST=Montana, L=Bozeman, O=wolfSSL_4096, OU=Programming-4096, CN=www.wolfssl.com/emailAddress=info@wolfssl.com
        Subject Public Key Info:
            Public Key Algorithm: rsaEncryption
                Public-Key: (4096 bit)
                Modulus:
                    00:f5:d0:31:e4:71:59:58:b3:07:50:dd:16:79:fc:
                    c6:95:50:fc:46:0e:57:12:86:71:8d:e3:9b:4a:33:
                    ea:4f:d9:17:13:6d:48:69:df:59:11:08:02:9d:af:
                    2b:c7:30:be:0c:dc:87:d4:5a:12:09:23:5d:e1:76:
                    5a:62:37:46:74:ef:03:05:bb:1e:6d:29:75:6c:2e:
                    9d:87:0d:8f:87:cb:14:95:9b:be:17:6b:51:d1:4c:
                    da:d7:91:66:c5:36:eb:e0:07:1a:76:4d:b0:fb:c1:
                    f5:5e:05:db:ba:cb:25:d9:99:13:1c:c0:35:dc:40:
                    e9:36:cd:c4:d5:7a:41:70:0f:36:eb:a5:4e:17:05:
                    d5:75:1b:64:62:7a:3f:0d:28:48:6a:e3:ac:9c:a8:
                    8f:e9:ed:f7:cd:24:a0:b1:a0:03:ac:e3:03:f5:3f:
                    d1:96:ff:2a:7e:08:b1:d3:e0:18:14:ec:65:37:50:
                    43:c2:6a:8c:f4:5b:fe:c4:cb:8d:3f:81:02:f7:c2:
                    dd:e4:c1:8e:80:0c:04:25:2d:80:5a:2e:0f:22:35:
                    4a:f4:85:ed:51:d8:ab:6d:8f:a2:3b:24:00:6e:81:
                    e2:1e:76:d6:ac:31:12:db:f3:8e:07:a1:de:89:4a:
                    39:60:77:c5:aa:f1:51:e6:06:f1:95:56:2a:e1:8e:
                    92:30:9f:fe:58:44:ac:46:f2:fd:9a:fc:a8:1d:a1:
                    d3:55:37:4a:8b:fc:9c:33:f8:a7:61:48:41:7c:9c:
                    77:3f:f5:80:23:7d:43:b4:d5:88:0a:c9:75:d7:44:
                    19:4d:77:6c:0b:0a:49:aa:1c:2f:d6:5a:44:a6:47:
                    4d:e5:36:96:40:99:2c:56:26:b1:f2:92:31:59:d7:
                    2c:d4:b4:21:d6:65:13:0b:3e:fb:ff:04:eb:b9:85:
                    b9:d8:d8:28:4f:5c:17:96:a3:51:be:fe:7d:0b:1b:
                    48:40:25:76:94:dc:41:fb:bf:73:76:da:eb:b3:62:
                    e7:c1:c8:54:6a:93:e1:8d:31:e8:3e:3e:df:bc:87:
                    02:30:22:57:c4:e0:18:7a:d3:ae:e4:02:9b:aa:bd:
                    4e:49:47:72:e9:8d:13:2d:54:9b:00:a7:91:61:71:
                    c9:cc:48:4f:ee:df:5e:1b:1a:df:67:d3:20:e6:44:
                    45:98:7e:e7:0e:63:16:83:c9:26:5d:90:c1:e5:2a:
                    5c:45:54:13:b2:81:18:06:20:2e:2e:66:5a:b5:7b:
                    6e:d6:0c:4e:89:01:56:70:bb:ae:de:e9:99:5e:d1:
                    b9:3a:b7:6c:17:b6:03:a9:08:dd:9c:f4:14:c9:c9:
                    59:39:72:d4:7e:02:37:31:cd:0e:a7:3d:f8:f2:cf:
                    6b:15:ab
                Exponent: 65537 (0x10001)
        X509v3 extensions:
            X509v3 Subject Key Identifier: 
                FA:54:89:67:E5:5F:B7:31:40:EA:FD:E7:F6:A3:C6:5A:56:16:A5:6E
            X509v3 Authority Key Identifier: 
                keyid:FA:54:89:67:E5:5F:B7:31:40:EA:FD:E7:F6:A3:C6:5A:56:16:A5:6E
                DirName:/C=US/ST=Montana/L=Bozeman/O=wolfSSL_4096/OU=Programming-4096/CN=www.wolfssl.com/emailAddress=info@wolfssl.com
                serial:A0:3E:DB:CF:97:9A:72:8C

            X509v3 Basic Constraints: 
                CA:TRUE
            X509v3 Subject Alternative Name: 
                DNS:example.com, IP Address:127.0.0.1
            X509v3 Extended Key Usage: 
                TLS Web Server Authentication, TLS Web Client Authentication
    Signature Algorithm: sha256WithRSAEncryption
         17:ab:22:61:05:6d:3a:c0:0d:6b:d9:15:82:11:cf:e7:f8:65:
         da:c7:ef:da:0f:50:75:bd:55:cf:3d:50:dd:d4:0d:2c:04:48:
         a8:25:3a:b9:c4:ce:48:7e:b8:63:cd:cd:ce:bc:50:26:dc:6d:
         c2:1e:d1:71:3a:2f:db:e5:03:6b:73:55:23:70:76:1e:08:2a:
         92:7b:d6:6a:ef:17:a0:f3:8c:ea:eb:c4:2e:cb:d4:d9:d5:ab:
         f7:e6:8d:ec:d9:97:a1:56:a7:0b:5d:e5:3f:1f:5e:6a:7a:a4:
         64:d7:b2:42:1a:1e:49:37:93:bc:be:13:a8:fb:b1:93:7b:a8:
         2b:49:90:43:84:24:60:44:fc:32:74:85:0e:1b:f8:3a:92:3d:
         aa:25:1b:9f:97:31:95:97:c5:3d:51:dd:b6:d5:4a:7e:41:b3:
         90:83:7c:98:fa:cb:22:33:a5:f4:32:74:bd:3e:b1:3b:34:f9:
         c3:3f:be:db:0e:d9:2f:1a:f9:d2:4f:14:53:63:f2:21:a3:e9:
         c3:ad:04:6e:e7:ad:1f:6b:ce:4e:35:4a:61:84:b9:61:65:1d:
         a2:d7:a1:e6:74:08:15:38:75:b0:23:70:22:15:59:2c:48:f0:
         da:9a:99:d4:2b:83:df:9a:93:78:45:b9:84:5c:7e:71:90:da:
         56:1c:9f:57:ed:76:f7:17:e5:d2:01:90:99:5f:4c:07:49:07:
         82:75:92:44:7a:fe:9b:a7:4d:ec:c8:dc:46:67:28:04:8b:08:
         17:94:13:e9:a0:d2:b2:26:56:27:60:94:5a:50:5c:cf:34:4d:
         3f:35:e7:12:5d:c5:32:00:2f:e0:1d:09:e5:36:8d:77:93:f6:
         e5:62:b4:a3:9b:c6:7c:e6:3d:d5:38:33:5f:23:5b:81:2e:24:
         26:9e:98:a8:af:04:3d:65:3f:71:88:48:44:5c:1a:11:0e:1b:
         e1:81:b1:b6:66:e6:3c:13:67:d6:6b:a3:f3:b7:f6:9f:14:a6:
         87:7f:2b:14:31:22:7a:f5:0d:44:e6:a3:1a:d6:d2:dc:88:71:
         37:28:11:6c:ef:95:ab:1d:c5:c3:9a:ef:1a:54:11:92:8e:89:
         43:03:26:d0:e9:63:33:fe:79:4c:a6:6f:c4:58:58:2e:b6:ab:
         57:a0:39:4d:ff:88:c0:23:2c:3b:e3:9a:df:48:d3:17:45:5d:
         36:4e:00:58:72:c3:ef:e7:76:0b:f8:19:a8:5f:f6:53:98:49:
         2b:52:b5:8e:a5:d8:73:6e:3c:23:23:06:86:25:6b:0d:3b:f2:
         9a:17:33:a4:4e:f5:6b:de:b3:64:20:58:c6:6d:22:a9:ae:f4:
         09:9d:0d:6e:9f:96:2a:9e
-----BEGIN CERTIFICATE-----
MIIHBzCCBO+gAwIBAgIJAKA+28+XmnKMMA0GCSqGSIb3DQEBCwUAMIGeMQswCQYD
VQQGEwJVUzEQMA4GA1UECAwHTW9udGFuYTEQMA4GA1UEBwwHQm96ZW1hbjEVMBMG
A1UECgwMd29sZlNTTF80MDk2MRkwFwYDVQQLDBBQcm9ncmFtbWluZy00MDk2MRgw
FgYDVQQDDA93d3cud29sZnNzbC5jb20xHzAdBgkqhkiG9w0BCQEWEGluZm9Ad29s
ZnNzbC5jb20wHhcNMjEwMjEwMTk0OTUyWhcNMjMxMTA3MTk0OTUyWjCBnjELMAkG
A1UEBhMCVVMxEDAOBgNVBAgMB01vbnRhbmExEDAOBgNVBAcMB0JvemVtYW4xFTAT
BgNVBAoMDHdvbGZTU0xfNDA5NjEZMBcGA1UECwwQUHJvZ3JhbW1pbmctNDA5NjEY
MBYGA1UEAwwPd3d3LndvbGZzc2wuY29tMR8wHQYJKoZIhvcNAQkBFhBpbmZvQHdv
bGZzc2wuY29tMIICIjANBgkqhkiG9w0BAQEFAAOCAg8AMIICCgKCAgEA9dAx5HFZ
WLMHUN0WefzGlVD8Rg5XEoZxjeObSjPqT9kXE21Iad9ZEQgCna8rxzC+DNyH1FoS
CSNd4XZaYjdGdO8DBbsebSl1bC6dhw2Ph8sUlZu+F2tR0Uza15FmxTbr4Acadk2w
+8H1XgXbussl2ZkTHMA13EDpNs3E1XpBcA8266VOFwXVdRtkYno/DShIauOsnKiP
6e33zSSgsaADrOMD9T/Rlv8qfgix0+AYFOxlN1BDwmqM9Fv+xMuNP4EC98Ld5MGO
gAwEJS2AWi4PIjVK9IXtUdirbY+iOyQAboHiHnbWrDES2/OOB6HeiUo5YHfFqvFR
5gbxlVYq4Y6SMJ/+WESsRvL9mvyoHaHTVTdKi/ycM/inYUhBfJx3P/WAI31DtNWI
Csl110QZTXdsCwpJqhwv1lpEpkdN5TaWQJksViax8pIxWdcs1LQh1mUTCz77/wTr
uYW52NgoT1wXlqNRvv59CxtIQCV2lNxB+79zdtrrs2LnwchUapPhjTHoPj7fvIcC
MCJXxOAYetOu5AKbqr1OSUdy6Y0TLVSbAKeRYXHJzEhP7t9eGxrfZ9Mg5kRFmH7n
DmMWg8kmXZDB5SpcRVQTsoEYBiAuLmZatXtu1gxOiQFWcLuu3umZXtG5OrdsF7YD
qQjdnPQUyclZOXLUfgI3Mc0Opz348s9rFasCAwEAAaOCAUQwggFAMB0GA1UdDgQW
BBT6VIln5V+3MUDq/ef2o8ZaVhalbjCB0wYDVR0jBIHLMIHIgBT6VIln5V+3MUDq
/ef2o8ZaVhalbqGBpKSBoTCBnjELMAkGA1UEBhMCVVMxEDAOBgNVBAgMB01vbnRh
bmExEDAOBgNVBAcMB0JvemVtYW4xFTATBgNVBAoMDHdvbGZTU0xfNDA5NjEZMBcG
A1UECwwQUHJvZ3JhbW1pbmctNDA5NjEYMBYGA1UEAwwPd3d3LndvbGZzc2wuY29t
MR8wHQYJKoZIhvcNAQkBFhBpbmZvQHdvbGZzc2wuY29tggkAoD7bz5eacowwDAYD
VR0TBAUwAwEB/zAcBgNVHREEFTATggtleGFtcGxlLmNvbYcEfwAAATAdBgNVHSUE
FjAUBggrBgEFBQcDAQYIKwYBBQUHAwIwDQYJKoZIhvcNAQELBQADggIBABerImEF
bTrADWvZFYIRz+f4ZdrH79oPUHW9Vc89UN3UDSwESKglOrnEzkh+uGPNzc68UCbc
bcIe0XE6L9vlA2tzVSNwdh4IKpJ71mrvF6DzjOrrxC7L1NnVq/fmjezZl6FWpwtd
5T8fXmp6pGTXskIaHkk3k7y+E6j7sZN7qCtJkEOEJGBE/DJ0hQ4b+DqSPaolG5+X
MZWXxT1R3bbVSn5Bs5CDfJj6yyIzpfQydL0+sTs0+cM/vtsO2S8a+dJPFFNj8iGj
6cOtBG7nrR9rzk41SmGEuWFlHaLXoeZ0CBU4dbAjcCIVWSxI8NqamdQrg9+ak3hF
uYRcfnGQ2lYcn1ftdvcX5dIBkJlfTAdJB4J1kkR6/punTezI3EZnKASLCBeUE+mg
0rImVidglFpQXM80TT815xJdxTIAL+AdCeU2jXeT9uVitKObxnzmPdU4M18jW4Eu
JCaemKivBD1lP3GISERcGhEOG+GBsbZm5jwTZ9Zro/O39p8Upod/KxQxInr1DUTm
oxrW0tyIcTcoEWzvlasdxcOa7xpUEZKOiUMDJtDpYzP+eUymb8RYWC62q1egOU3/
iMAjLDvjmt9I0xdFXTZOAFhyw+/ndgv4Gahf9lOYSStStY6l2HNuPCMjBoYlaw07
8poXM6RO9Wves2QgWMZtIqmu9AmdDW6fliqe
-----END CERTIFICATE-----
