Certificate:
    Data:
        Version: 3 (0x2)
        Serial Number:
            36:8a:a6:8a:3d:0a:72:ff:dd:e4:4f:56:bd:89:24:23:3c:0b:b6:40
        Signature Algorithm: sha256WithRSAEncryption
        Issuer: C = US, ST = Montana, L = Bozeman, O = wolfSSL_4096, OU = Programming-4096, CN = www.wolfssl.com, emailAddress = info@wolfssl.com
        Validity
            Not Before: Jun 19 13:23:41 2020 GMT
            Not After : Mar 16 13:23:41 2023 GMT
        Subject: C = US, ST = Montana, L = Bozeman, O = wolfSSL_4096, OU = Programming-4096, CN = www.wolfssl.com, emailAddress = info@wolfssl.com
        Subject Public Key Info:
            Public Key Algorithm: rsaEncryption
                RSA Public-Key: (4096 bit)
                Modulus:
                    00:f5:d0:31:e4:71:59:58:b3:07:50:dd:16:79:fc:
                    c6:95:50:fc:46:0e:57:12:86:71:8d:e3:9b:4a:33:
                    ea:4f:d9:17:13:6d:48:69:df:59:11:08:02:9d:af:
                    2b:c7:30:be:0c:dc:87:d4:5a:12:09:23:5d:e1:76:
                    5a:62:37:46:74:ef:03:05:bb:1e:6d:29:75:6c:2e:
                    9d:87:0d:8f:87:cb:14:95:9b:be:17:6b:51:d1:4c:
                    da:d7:91:66:c5:36:eb:e0:07:1a:76:4d:b0:fb:c1:
                    f5:5e:05:db:ba:cb:25:d9:99:13:1c:c0:35:dc:40:
                    e9:36:cd:c4:d5:7a:41:70:0f:36:eb:a5:4e:17:05:
                    d5:75:1b:64:62:7a:3f:0d:28:48:6a:e3:ac:9c:a8:
                    8f:e9:ed:f7:cd:24:a0:b1:a0:03:ac:e3:03:f5:3f:
                    d1:96:ff:2a:7e:08:b1:d3:e0:18:14:ec:65:37:50:
                    43:c2:6a:8c:f4:5b:fe:c4:cb:8d:3f:81:02:f7:c2:
                    dd:e4:c1:8e:80:0c:04:25:2d:80:5a:2e:0f:22:35:
                    4a:f4:85:ed:51:d8:ab:6d:8f:a2:3b:24:00:6e:81:
                    e2:1e:76:d6:ac:31:12:db:f3:8e:07:a1:de:89:4a:
                    39:60:77:c5:aa:f1:51:e6:06:f1:95:56:2a:e1:8e:
                    92:30:9f:fe:58:44:ac:46:f2:fd:9a:fc:a8:1d:a1:
                    d3:55:37:4a:8b:fc:9c:33:f8:a7:61:48:41:7c:9c:
                    77:3f:f5:80:23:7d:43:b4:d5:88:0a:c9:75:d7:44:
                    19:4d:77:6c:0b:0a:49:aa:1c:2f:d6:5a:44:a6:47:
                    4d:e5:36:96:40:99:2c:56:26:b1:f2:92:31:59:d7:
                    2c:d4:b4:21:d6:65:13:0b:3e:fb:ff:04:eb:b9:85:
                    b9:d8:d8:28:4f:5c:17:96:a3:51:be:fe:7d:0b:1b:
                    48:40:25:76:94:dc:41:fb:bf:73:76:da:eb:b3:62:
                    e7:c1:c8:54:6a:93:e1:8d:31:e8:3e:3e:df:bc:87:
                    02:30:22:57:c4:e0:18:7a:d3:ae:e4:02:9b:aa:bd:
                    4e:49:47:72:e9:8d:13:2d:54:9b:00:a7:91:61:71:
                    c9:cc:48:4f:ee:df:5e:1b:1a:df:67:d3:20:e6:44:
                    45:98:7e:e7:0e:63:16:83:c9:26:5d:90:c1:e5:2a:
                    5c:45:54:13:b2:81:18:06:20:2e:2e:66:5a:b5:7b:
                    6e:d6:0c:4e:89:01:56:70:bb:ae:de:e9:99:5e:d1:
                    b9:3a:b7:6c:17:b6:03:a9:08:dd:9c:f4:14:c9:c9:
                    59:39:72:d4:7e:02:37:31:cd:0e:a7:3d:f8:f2:cf:
                    6b:15:ab
                Exponent: 65537 (0x10001)
        X509v3 extensions:
            X509v3 Subject Key Identifier: 
                FA:54:89:67:E5:5F:B7:31:40:EA:FD:E7:F6:A3:C6:5A:56:16:A5:6E
            X509v3 Authority Key Identifier: 
                keyid:FA:54:89:67:E5:5F:B7:31:40:EA:FD:E7:F6:A3:C6:5A:56:16:A5:6E
                DirName:/C=US/ST=Montana/L=Bozeman/O=wolfSSL_4096/OU=Programming-4096/CN=www.wolfssl.com/emailAddress=info@wolfssl.com
                serial:36:8A:A6:8A:3D:0A:72:FF:DD:E4:4F:56:BD:89:24:23:3C:0B:B6:40

            X509v3 Basic Constraints: 
                CA:TRUE
            X509v3 Subject Alternative Name: 
                DNS:example.com, IP Address:127.0.0.1
            X509v3 Extended Key Usage: 
                TLS Web Server Authentication, TLS Web Client Authentication
    Signature Algorithm: sha256WithRSAEncryption
         64:d8:59:19:c0:b5:79:9e:58:63:ae:8b:28:64:81:d9:d2:cd:
         e8:26:1f:04:09:7b:52:0a:7a:16:70:ee:37:8a:6d:7c:74:67:
         51:2f:cf:97:a1:d6:54:a2:a3:93:dd:2b:63:5e:9f:13:56:7f:
         8c:e5:9b:49:19:78:db:3d:75:fe:b7:b8:57:92:58:ff:84:8b:
         d1:2f:f4:b0:22:d2:f9:bb:00:dd:3b:d2:7a:b9:d9:50:e5:90:
         70:2d:77:f2:74:c2:40:2f:39:25:5d:8e:de:11:e1:cf:a7:8f:
         8e:bd:2a:aa:2e:a1:14:3d:06:70:c7:c9:58:86:9e:4c:86:65:
         9e:69:62:3e:30:22:eb:d5:00:d1:1e:8c:ba:f2:7b:a3:39:77:
         fe:90:42:b7:a4:98:28:d7:82:4a:54:1b:27:c9:cf:09:b5:60:
         b6:09:37:40:e9:a5:cd:3e:80:84:c4:c4:b6:63:06:ea:5c:63:
         f2:2b:ee:00:31:52:d8:6c:cd:6a:d2:57:a0:6b:d5:a7:6e:4c:
         ce:3b:ff:44:7d:99:a5:e3:fb:23:91:99:8c:19:ce:1f:c1:a1:
         89:e3:bc:e8:74:2c:3d:80:bc:0c:6c:6a:39:a6:50:4c:d1:25:
         1e:a6:96:f4:54:fd:2a:ce:3c:59:aa:1c:05:df:df:10:9a:2b:
         52:9c:f1:a8:19:ac:56:03:56:1f:c9:a5:e4:aa:bc:e2:90:c1:
         c9:ad:f5:94:1b:72:a7:c9:9e:90:26:2e:70:48:41:b5:2f:6c:
         35:ca:30:e3:ca:71:5b:97:96:15:6f:b5:4d:43:d1:5a:02:d0:
         21:48:ee:2b:c7:8d:e1:60:92:86:8c:5e:8d:9c:a1:6a:99:c0:
         d0:3d:3a:8c:7e:c3:87:b2:81:8b:e9:bd:b0:d3:f3:6f:f2:89:
         40:b9:d1:5c:d0:1c:9d:bf:80:fc:75:0a:66:c6:5a:d1:41:15:
         31:07:55:f8:00:96:77:b4:a7:dc:d7:62:15:ed:75:7a:3e:cd:
         b9:e0:56:7d:38:4c:2e:ec:ef:00:70:93:12:0d:25:5a:e7:f8:
         02:37:e8:dd:bb:7e:61:9f:b2:a8:70:da:7f:94:7b:29:e0:a4:
         58:01:8d:43:f1:25:16:59:fe:d5:21:42:ee:ab:a8:03:3e:ee:
         1f:74:1c:43:2d:37:0f:05:14:29:0d:ac:e8:c7:72:0e:10:b5:
         9e:f8:80:41:d0:a2:aa:6c:94:26:49:91:c7:2c:30:04:2a:91:
         f0:e6:7f:76:71:80:09:07:00:98:b7:f1:1f:3c:0c:db:98:0a:
         22:cc:af:6f:e5:c7:0d:26:a1:65:b3:5d:37:04:de:f4:61:91:
         06:06:a4:9a:65:51:8b:3e
-----BEGIN CERTIFICATE-----
MIIHHTCCBQWgAwIBAgIUNoqmij0Kcv/d5E9WvYkkIzwLtkAwDQYJKoZIhvcNAQEL
BQAwgZ4xCzAJBgNVBAYTAlVTMRAwDgYDVQQIDAdNb250YW5hMRAwDgYDVQQHDAdC
b3plbWFuMRUwEwYDVQQKDAx3b2xmU1NMXzQwOTYxGTAXBgNVBAsMEFByb2dyYW1t
aW5nLTQwOTYxGDAWBgNVBAMMD3d3dy53b2xmc3NsLmNvbTEfMB0GCSqGSIb3DQEJ
ARYQaW5mb0B3b2xmc3NsLmNvbTAeFw0yMDA2MTkxMzIzNDFaFw0yMzAzMTYxMzIz
NDFaMIGeMQswCQYDVQQGEwJVUzEQMA4GA1UECAwHTW9udGFuYTEQMA4GA1UEBwwH
Qm96ZW1hbjEVMBMGA1UECgwMd29sZlNTTF80MDk2MRkwFwYDVQQLDBBQcm9ncmFt
bWluZy00MDk2MRgwFgYDVQQDDA93d3cud29sZnNzbC5jb20xHzAdBgkqhkiG9w0B
CQEWEGluZm9Ad29sZnNzbC5jb20wggIiMA0GCSqGSIb3DQEBAQUAA4ICDwAwggIK
AoICAQD10DHkcVlYswdQ3RZ5/MaVUPxGDlcShnGN45tKM+pP2RcTbUhp31kRCAKd
ryvHML4M3IfUWhIJI13hdlpiN0Z07wMFux5tKXVsLp2HDY+HyxSVm74Xa1HRTNrX
kWbFNuvgBxp2TbD7wfVeBdu6yyXZmRMcwDXcQOk2zcTVekFwDzbrpU4XBdV1G2Ri
ej8NKEhq46ycqI/p7ffNJKCxoAOs4wP1P9GW/yp+CLHT4BgU7GU3UEPCaoz0W/7E
y40/gQL3wt3kwY6ADAQlLYBaLg8iNUr0he1R2Kttj6I7JABugeIedtasMRLb844H
od6JSjlgd8Wq8VHmBvGVVirhjpIwn/5YRKxG8v2a/KgdodNVN0qL/Jwz+KdhSEF8
nHc/9YAjfUO01YgKyXXXRBlNd2wLCkmqHC/WWkSmR03lNpZAmSxWJrHykjFZ1yzU
tCHWZRMLPvv/BOu5hbnY2ChPXBeWo1G+/n0LG0hAJXaU3EH7v3N22uuzYufByFRq
k+GNMeg+Pt+8hwIwIlfE4Bh6067kApuqvU5JR3LpjRMtVJsAp5FhccnMSE/u314b
Gt9n0yDmREWYfucOYxaDySZdkMHlKlxFVBOygRgGIC4uZlq1e27WDE6JAVZwu67e
6Zle0bk6t2wXtgOpCN2c9BTJyVk5ctR+AjcxzQ6nPfjyz2sVqwIDAQABo4IBTzCC
AUswHQYDVR0OBBYEFPpUiWflX7cxQOr95/ajxlpWFqVuMIHeBgNVHSMEgdYwgdOA
FPpUiWflX7cxQOr95/ajxlpWFqVuoYGkpIGhMIGeMQswCQYDVQQGEwJVUzEQMA4G
A1UECAwHTW9udGFuYTEQMA4GA1UEBwwHQm96ZW1hbjEVMBMGA1UECgwMd29sZlNT
TF80MDk2MRkwFwYDVQQLDBBQcm9ncmFtbWluZy00MDk2MRgwFgYDVQQDDA93d3cu
d29sZnNzbC5jb20xHzAdBgkqhkiG9w0BCQEWEGluZm9Ad29sZnNzbC5jb22CFDaK
poo9CnL/3eRPVr2JJCM8C7ZAMAwGA1UdEwQFMAMBAf8wHAYDVR0RBBUwE4ILZXhh
bXBsZS5jb22HBH8AAAEwHQYDVR0lBBYwFAYIKwYBBQUHAwEGCCsGAQUFBwMCMA0G
CSqGSIb3DQEBCwUAA4ICAQBk2FkZwLV5nlhjrosoZIHZ0s3oJh8ECXtSCnoWcO43
im18dGdRL8+XodZUoqOT3StjXp8TVn+M5ZtJGXjbPXX+t7hXklj/hIvRL/SwItL5
uwDdO9J6udlQ5ZBwLXfydMJALzklXY7eEeHPp4+OvSqqLqEUPQZwx8lYhp5MhmWe
aWI+MCLr1QDRHoy68nujOXf+kEK3pJgo14JKVBsnyc8JtWC2CTdA6aXNPoCExMS2
YwbqXGPyK+4AMVLYbM1q0lega9WnbkzOO/9EfZml4/sjkZmMGc4fwaGJ47zodCw9
gLwMbGo5plBM0SUeppb0VP0qzjxZqhwF398QmitSnPGoGaxWA1YfyaXkqrzikMHJ
rfWUG3KnyZ6QJi5wSEG1L2w1yjDjynFbl5YVb7VNQ9FaAtAhSO4rx43hYJKGjF6N
nKFqmcDQPTqMfsOHsoGL6b2w0/Nv8olAudFc0Bydv4D8dQpmxlrRQRUxB1X4AJZ3
tKfc12IV7XV6Ps254FZ9OEwu7O8AcJMSDSVa5/gCN+jdu35hn7KocNp/lHsp4KRY
AY1D8SUWWf7VIULuq6gDPu4fdBxDLTcPBRQpDazox3IOELWe+IBB0KKqbJQmSZHH
LDAEKpHw5n92cYAJBwCYt/EfPAzbmAoizK9v5ccNJqFls103BN70YZEGBqSaZVGL
Pg==
-----END CERTIFICATE-----
