Certificate:
    Data:
        Version: 3 (0x2)
        Serial Number:
            35:c5:93:ad:74:24:8d:c5:87:a1:1d:2f:14:4c:de:20:76:84:ec:99
        Signature Algorithm: sha256WithRSAEncryption
        Issuer: C=US, ST=Montana, L=Bozeman, O=wolfSSL_4096, OU=Programming-4096, CN=www.wolfssl.com, emailAddress=info@wolfssl.com
        Validity
            Not Before: Nov 13 20:41:11 2025 GMT
            Not After : Aug  9 20:41:11 2028 GMT
        Subject: C=US, ST=Montana, L=Bozeman, O=wolfSSL_4096, OU=Programming-4096, CN=www.wolfssl.com, emailAddress=info@wolfssl.com
        Subject Public Key Info:
            Public Key Algorithm: rsaEncryption
                Public-Key: (4096 bit)
                Modulus:
                    00:f5:d0:31:e4:71:59:58:b3:07:50:dd:16:79:fc:
                    c6:95:50:fc:46:0e:57:12:86:71:8d:e3:9b:4a:33:
                    ea:4f:d9:17:13:6d:48:69:df:59:11:08:02:9d:af:
                    2b:c7:30:be:0c:dc:87:d4:5a:12:09:23:5d:e1:76:
                    5a:62:37:46:74:ef:03:05:bb:1e:6d:29:75:6c:2e:
                    9d:87:0d:8f:87:cb:14:95:9b:be:17:6b:51:d1:4c:
                    da:d7:91:66:c5:36:eb:e0:07:1a:76:4d:b0:fb:c1:
                    f5:5e:05:db:ba:cb:25:d9:99:13:1c:c0:35:dc:40:
                    e9:36:cd:c4:d5:7a:41:70:0f:36:eb:a5:4e:17:05:
                    d5:75:1b:64:62:7a:3f:0d:28:48:6a:e3:ac:9c:a8:
                    8f:e9:ed:f7:cd:24:a0:b1:a0:03:ac:e3:03:f5:3f:
                    d1:96:ff:2a:7e:08:b1:d3:e0:18:14:ec:65:37:50:
                    43:c2:6a:8c:f4:5b:fe:c4:cb:8d:3f:81:02:f7:c2:
                    dd:e4:c1:8e:80:0c:04:25:2d:80:5a:2e:0f:22:35:
                    4a:f4:85:ed:51:d8:ab:6d:8f:a2:3b:24:00:6e:81:
                    e2:1e:76:d6:ac:31:12:db:f3:8e:07:a1:de:89:4a:
                    39:60:77:c5:aa:f1:51:e6:06:f1:95:56:2a:e1:8e:
                    92:30:9f:fe:58:44:ac:46:f2:fd:9a:fc:a8:1d:a1:
                    d3:55:37:4a:8b:fc:9c:33:f8:a7:61:48:41:7c:9c:
                    77:3f:f5:80:23:7d:43:b4:d5:88:0a:c9:75:d7:44:
                    19:4d:77:6c:0b:0a:49:aa:1c:2f:d6:5a:44:a6:47:
                    4d:e5:36:96:40:99:2c:56:26:b1:f2:92:31:59:d7:
                    2c:d4:b4:21:d6:65:13:0b:3e:fb:ff:04:eb:b9:85:
                    b9:d8:d8:28:4f:5c:17:96:a3:51:be:fe:7d:0b:1b:
                    48:40:25:76:94:dc:41:fb:bf:73:76:da:eb:b3:62:
                    e7:c1:c8:54:6a:93:e1:8d:31:e8:3e:3e:df:bc:87:
                    02:30:22:57:c4:e0:18:7a:d3:ae:e4:02:9b:aa:bd:
                    4e:49:47:72:e9:8d:13:2d:54:9b:00:a7:91:61:71:
                    c9:cc:48:4f:ee:df:5e:1b:1a:df:67:d3:20:e6:44:
                    45:98:7e:e7:0e:63:16:83:c9:26:5d:90:c1:e5:2a:
                    5c:45:54:13:b2:81:18:06:20:2e:2e:66:5a:b5:7b:
                    6e:d6:0c:4e:89:01:56:70:bb:ae:de:e9:99:5e:d1:
                    b9:3a:b7:6c:17:b6:03:a9:08:dd:9c:f4:14:c9:c9:
                    59:39:72:d4:7e:02:37:31:cd:0e:a7:3d:f8:f2:cf:
                    6b:15:ab
                Exponent: 65537 (0x10001)
        X509v3 extensions:
            X509v3 Subject Key Identifier: 
                FA:54:89:67:E5:5F:B7:31:40:EA:FD:E7:F6:A3:C6:5A:56:16:A5:6E
            X509v3 Authority Key Identifier: 
                keyid:FA:54:89:67:E5:5F:B7:31:40:EA:FD:E7:F6:A3:C6:5A:56:16:A5:6E
                DirName:/C=US/ST=Montana/L=Bozeman/O=wolfSSL_4096/OU=Programming-4096/CN=www.wolfssl.com/emailAddress=info@wolfssl.com
                serial:35:C5:93:AD:74:24:8D:C5:87:A1:1D:2F:14:4C:DE:20:76:84:EC:99
            X509v3 Basic Constraints: 
                CA:TRUE
            X509v3 Subject Alternative Name: 
                DNS:example.com, IP Address:127.0.0.1
            X509v3 Extended Key Usage: 
                TLS Web Server Authentication, TLS Web Client Authentication
    Signature Algorithm: sha256WithRSAEncryption
    Signature Value:
        e4:f5:b3:bc:7e:51:7f:58:08:a9:23:38:4c:0e:3c:7e:79:29:
        de:d5:49:39:d5:53:57:e1:f5:20:55:a4:b0:a5:d2:01:a7:5d:
        31:11:74:13:44:ae:75:95:59:b9:46:20:41:82:fb:63:30:b2:
        0b:45:06:c1:e3:69:61:36:b0:d6:7c:20:2b:48:b7:28:5a:60:
        7c:67:e2:81:33:03:7c:67:24:08:1d:b5:80:a6:5e:5d:86:0f:
        eb:c5:7d:06:0c:be:c4:4c:dc:9c:ae:59:7d:aa:8e:88:bc:87:
        71:9c:e0:8d:78:5b:3e:05:29:f6:c7:3b:b3:da:0f:e0:95:09:
        57:96:4a:0a:b2:3e:df:67:be:e5:25:78:70:d2:c3:bc:22:11:
        76:6d:f2:ce:9d:84:ea:76:4e:ae:c0:72:a6:8b:1b:cd:59:fc:
        9e:97:e0:ee:46:1e:f8:de:db:86:6a:46:da:af:b8:b9:1c:a0:
        09:ba:31:92:95:d4:8b:ba:bf:17:4b:82:c6:0f:5d:15:4f:5b:
        67:5a:1e:e1:cc:9f:e5:94:80:8e:e9:39:6d:40:a8:1f:63:4e:
        f5:06:4e:66:e7:46:7c:38:c0:c9:73:5e:ea:ae:e1:c4:77:c7:
        14:45:28:79:98:8e:db:a2:16:ec:3d:a1:09:13:4c:37:10:46:
        f4:f5:84:e8:c7:57:c6:ee:50:35:ba:d6:41:74:a6:3e:d3:0d:
        c3:82:d5:33:45:24:be:70:4c:f3:95:dc:77:eb:4c:4d:bd:20:
        6f:ac:c8:2f:6b:6a:24:8e:c4:3e:81:e3:4f:0e:e7:7e:9a:ac:
        5d:8a:42:56:7a:a2:03:cd:5c:6e:e5:0e:45:47:c2:2e:90:4e:
        2d:6c:9f:f7:ce:81:1a:9e:2f:c7:0a:a4:1e:30:7d:d5:04:1f:
        5c:98:4f:91:ed:a0:6d:63:7d:a8:e8:ee:4a:e1:62:7b:f9:89:
        ce:f2:40:06:a7:3a:97:07:d7:68:f0:01:58:70:a1:8b:01:f4:
        29:29:d6:0c:62:b4:15:84:b1:ae:ec:c7:68:6f:75:9b:d6:6b:
        de:59:6c:cb:67:f8:d4:fe:0c:c7:9d:b2:3a:a4:4d:d1:46:20:
        4c:3d:3d:61:c6:f8:93:ac:b0:3b:da:50:2c:05:00:55:3d:8d:
        bd:ca:4d:32:83:31:13:36:fa:6c:41:b1:e4:30:56:f9:9b:70:
        b3:d1:8b:68:11:5e:c0:e5:8b:35:38:c7:d1:c7:35:8f:36:15:
        73:f2:bc:82:a0:a8:46:2e:21:95:9a:4a:41:3c:3d:8b:53:bd:
        d2:77:c8:68:a8:8c:c9:84:77:f6:bc:af:0c:5f:70:df:95:a4:
        c8:72:85:b7:42:82:68:24
-----BEGIN CERTIFICATE-----
MIIHHTCCBQWgAwIBAgIUNcWTrXQkjcWHoR0vFEzeIHaE7JkwDQYJKoZIhvcNAQEL
BQAwgZ4xCzAJBgNVBAYTAlVTMRAwDgYDVQQIDAdNb250YW5hMRAwDgYDVQQHDAdC
b3plbWFuMRUwEwYDVQQKDAx3b2xmU1NMXzQwOTYxGTAXBgNVBAsMEFByb2dyYW1t
aW5nLTQwOTYxGDAWBgNVBAMMD3d3dy53b2xmc3NsLmNvbTEfMB0GCSqGSIb3DQEJ
ARYQaW5mb0B3b2xmc3NsLmNvbTAeFw0yNTExMTMyMDQxMTFaFw0yODA4MDkyMDQx
MTFaMIGeMQswCQYDVQQGEwJVUzEQMA4GA1UECAwHTW9udGFuYTEQMA4GA1UEBwwH
Qm96ZW1hbjEVMBMGA1UECgwMd29sZlNTTF80MDk2MRkwFwYDVQQLDBBQcm9ncmFt
bWluZy00MDk2MRgwFgYDVQQDDA93d3cud29sZnNzbC5jb20xHzAdBgkqhkiG9w0B
CQEWEGluZm9Ad29sZnNzbC5jb20wggIiMA0GCSqGSIb3DQEBAQUAA4ICDwAwggIK
AoICAQD10DHkcVlYswdQ3RZ5/MaVUPxGDlcShnGN45tKM+pP2RcTbUhp31kRCAKd
ryvHML4M3IfUWhIJI13hdlpiN0Z07wMFux5tKXVsLp2HDY+HyxSVm74Xa1HRTNrX
kWbFNuvgBxp2TbD7wfVeBdu6yyXZmRMcwDXcQOk2zcTVekFwDzbrpU4XBdV1G2Ri
ej8NKEhq46ycqI/p7ffNJKCxoAOs4wP1P9GW/yp+CLHT4BgU7GU3UEPCaoz0W/7E
y40/gQL3wt3kwY6ADAQlLYBaLg8iNUr0he1R2Kttj6I7JABugeIedtasMRLb844H
od6JSjlgd8Wq8VHmBvGVVirhjpIwn/5YRKxG8v2a/KgdodNVN0qL/Jwz+KdhSEF8
nHc/9YAjfUO01YgKyXXXRBlNd2wLCkmqHC/WWkSmR03lNpZAmSxWJrHykjFZ1yzU
tCHWZRMLPvv/BOu5hbnY2ChPXBeWo1G+/n0LG0hAJXaU3EH7v3N22uuzYufByFRq
k+GNMeg+Pt+8hwIwIlfE4Bh6067kApuqvU5JR3LpjRMtVJsAp5FhccnMSE/u314b
Gt9n0yDmREWYfucOYxaDySZdkMHlKlxFVBOygRgGIC4uZlq1e27WDE6JAVZwu67e
6Zle0bk6t2wXtgOpCN2c9BTJyVk5ctR+AjcxzQ6nPfjyz2sVqwIDAQABo4IBTzCC
AUswHQYDVR0OBBYEFPpUiWflX7cxQOr95/ajxlpWFqVuMIHeBgNVHSMEgdYwgdOA
FPpUiWflX7cxQOr95/ajxlpWFqVuoYGkpIGhMIGeMQswCQYDVQQGEwJVUzEQMA4G
A1UECAwHTW9udGFuYTEQMA4GA1UEBwwHQm96ZW1hbjEVMBMGA1UECgwMd29sZlNT
TF80MDk2MRkwFwYDVQQLDBBQcm9ncmFtbWluZy00MDk2MRgwFgYDVQQDDA93d3cu
d29sZnNzbC5jb20xHzAdBgkqhkiG9w0BCQEWEGluZm9Ad29sZnNzbC5jb22CFDXF
k610JI3Fh6EdLxRM3iB2hOyZMAwGA1UdEwQFMAMBAf8wHAYDVR0RBBUwE4ILZXhh
bXBsZS5jb22HBH8AAAEwHQYDVR0lBBYwFAYIKwYBBQUHAwEGCCsGAQUFBwMCMA0G
CSqGSIb3DQEBCwUAA4ICAQDk9bO8flF/WAipIzhMDjx+eSne1Uk51VNX4fUgVaSw
pdIBp10xEXQTRK51lVm5RiBBgvtjMLILRQbB42lhNrDWfCArSLcoWmB8Z+KBMwN8
ZyQIHbWApl5dhg/rxX0GDL7ETNycrll9qo6IvIdxnOCNeFs+BSn2xzuz2g/glQlX
lkoKsj7fZ77lJXhw0sO8IhF2bfLOnYTqdk6uwHKmixvNWfyel+DuRh743tuGakba
r7i5HKAJujGSldSLur8XS4LGD10VT1tnWh7hzJ/llICO6TltQKgfY071Bk5m50Z8
OMDJc17qruHEd8cURSh5mI7bohbsPaEJE0w3EEb09YTox1fG7lA1utZBdKY+0w3D
gtUzRSS+cEzzldx360xNvSBvrMgva2okjsQ+geNPDud+mqxdikJWeqIDzVxu5Q5F
R8IukE4tbJ/3zoEani/HCqQeMH3VBB9cmE+R7aBtY32o6O5K4WJ7+YnO8kAGpzqX
B9do8AFYcKGLAfQpKdYMYrQVhLGu7Mdob3Wb1mveWWzLZ/jU/gzHnbI6pE3RRiBM
PT1hxviTrLA72lAsBQBVPY29yk0ygzETNvpsQbHkMFb5m3Cz0YtoEV7A5Ys1OMfR
xzWPNhVz8ryCoKhGLiGVmkpBPD2LU73Sd8hoqIzJhHf2vK8MX3DflaTIcoW3QoJo
JA==
-----END CERTIFICATE-----
