Certificate:
    Data:
        Version: 3 (0x2)
        Serial Number:
            6e:95:19:50:0b:44:01:78:eb:cd:d8:41:61:b2:62:9d:aa:f9:55:9d
        Signature Algorithm: sha256WithRSAEncryption
        Issuer: C=US, ST=Montana, L=Bozeman, O=wolfSSL_4096, OU=Programming-4096, CN=www.wolfssl.com, emailAddress=facts@wolfssl.com
        Validity
            Not Before: Jun 11 21:44:28 2026 GMT
            Not After : Mar  7 21:44:28 2029 GMT
        Subject: C=US, ST=Montana, L=Bozeman, O=wolfSSL_4096, OU=Programming-4096, CN=www.wolfssl.com, emailAddress=facts@wolfssl.com
        Subject Public Key Info:
            Public Key Algorithm: rsaEncryption
                Public-Key: (4096 bit)
                Modulus:
                    00:f5:d0:31:e4:71:59:58:b3:07:50:dd:16:79:fc:
                    c6:95:50:fc:46:0e:57:12:86:71:8d:e3:9b:4a:33:
                    ea:4f:d9:17:13:6d:48:69:df:59:11:08:02:9d:af:
                    2b:c7:30:be:0c:dc:87:d4:5a:12:09:23:5d:e1:76:
                    5a:62:37:46:74:ef:03:05:bb:1e:6d:29:75:6c:2e:
                    9d:87:0d:8f:87:cb:14:95:9b:be:17:6b:51:d1:4c:
                    da:d7:91:66:c5:36:eb:e0:07:1a:76:4d:b0:fb:c1:
                    f5:5e:05:db:ba:cb:25:d9:99:13:1c:c0:35:dc:40:
                    e9:36:cd:c4:d5:7a:41:70:0f:36:eb:a5:4e:17:05:
                    d5:75:1b:64:62:7a:3f:0d:28:48:6a:e3:ac:9c:a8:
                    8f:e9:ed:f7:cd:24:a0:b1:a0:03:ac:e3:03:f5:3f:
                    d1:96:ff:2a:7e:08:b1:d3:e0:18:14:ec:65:37:50:
                    43:c2:6a:8c:f4:5b:fe:c4:cb:8d:3f:81:02:f7:c2:
                    dd:e4:c1:8e:80:0c:04:25:2d:80:5a:2e:0f:22:35:
                    4a:f4:85:ed:51:d8:ab:6d:8f:a2:3b:24:00:6e:81:
                    e2:1e:76:d6:ac:31:12:db:f3:8e:07:a1:de:89:4a:
                    39:60:77:c5:aa:f1:51:e6:06:f1:95:56:2a:e1:8e:
                    92:30:9f:fe:58:44:ac:46:f2:fd:9a:fc:a8:1d:a1:
                    d3:55:37:4a:8b:fc:9c:33:f8:a7:61:48:41:7c:9c:
                    77:3f:f5:80:23:7d:43:b4:d5:88:0a:c9:75:d7:44:
                    19:4d:77:6c:0b:0a:49:aa:1c:2f:d6:5a:44:a6:47:
                    4d:e5:36:96:40:99:2c:56:26:b1:f2:92:31:59:d7:
                    2c:d4:b4:21:d6:65:13:0b:3e:fb:ff:04:eb:b9:85:
                    b9:d8:d8:28:4f:5c:17:96:a3:51:be:fe:7d:0b:1b:
                    48:40:25:76:94:dc:41:fb:bf:73:76:da:eb:b3:62:
                    e7:c1:c8:54:6a:93:e1:8d:31:e8:3e:3e:df:bc:87:
                    02:30:22:57:c4:e0:18:7a:d3:ae:e4:02:9b:aa:bd:
                    4e:49:47:72:e9:8d:13:2d:54:9b:00:a7:91:61:71:
                    c9:cc:48:4f:ee:df:5e:1b:1a:df:67:d3:20:e6:44:
                    45:98:7e:e7:0e:63:16:83:c9:26:5d:90:c1:e5:2a:
                    5c:45:54:13:b2:81:18:06:20:2e:2e:66:5a:b5:7b:
                    6e:d6:0c:4e:89:01:56:70:bb:ae:de:e9:99:5e:d1:
                    b9:3a:b7:6c:17:b6:03:a9:08:dd:9c:f4:14:c9:c9:
                    59:39:72:d4:7e:02:37:31:cd:0e:a7:3d:f8:f2:cf:
                    6b:15:ab
                Exponent: 65537 (0x10001)
        X509v3 extensions:
            X509v3 Subject Key Identifier: 
                FA:54:89:67:E5:5F:B7:31:40:EA:FD:E7:F6:A3:C6:5A:56:16:A5:6E
            X509v3 Authority Key Identifier: 
                keyid:FA:54:89:67:E5:5F:B7:31:40:EA:FD:E7:F6:A3:C6:5A:56:16:A5:6E
                DirName:/C=US/ST=Montana/L=Bozeman/O=wolfSSL_4096/OU=Programming-4096/CN=www.wolfssl.com/emailAddress=facts@wolfssl.com
                serial:6E:95:19:50:0B:44:01:78:EB:CD:D8:41:61:B2:62:9D:AA:F9:55:9D
            X509v3 Basic Constraints: 
                CA:TRUE
            X509v3 Subject Alternative Name: 
                DNS:example.com, IP Address:127.0.0.1
            X509v3 Extended Key Usage: 
                TLS Web Server Authentication, TLS Web Client Authentication
    Signature Algorithm: sha256WithRSAEncryption
    Signature Value:
        e7:55:13:7e:37:3d:89:cd:cd:46:9d:dd:3c:14:fd:94:e2:02:
        e0:57:14:e6:1c:28:f0:26:e8:76:c4:db:87:54:c6:8f:7e:28:
        8c:f7:65:70:1f:71:75:8a:07:2b:ce:4e:32:dc:80:9e:23:d0:
        bb:07:96:df:a1:c2:c3:33:97:3c:18:f3:d7:2a:3b:75:24:84:
        8d:a9:d5:38:5e:13:d0:a7:38:10:54:32:61:d3:b3:e1:3d:02:
        54:2b:87:6f:7a:8b:62:61:71:28:d1:c8:d6:fb:ae:43:0f:73:
        3c:13:c6:ad:f7:2e:e0:cd:f9:b3:2e:12:d6:f5:97:bb:11:db:
        69:9f:6d:80:3d:f4:13:b9:33:c0:eb:09:ec:1e:24:4b:67:51:
        96:75:b6:f8:a1:8b:2e:00:9f:75:e5:eb:4d:e0:e1:d3:ef:75:
        fc:be:dd:d1:a7:e7:ce:d1:da:1f:f1:e3:b9:9a:99:46:a4:15:
        e7:41:89:5c:65:b8:61:d0:96:34:83:d3:47:67:42:2d:58:8a:
        ca:46:7f:63:6d:4a:3f:28:0f:03:d7:42:96:9b:ea:10:92:b9:
        5d:03:f2:4a:50:5a:8f:be:26:cd:54:f9:cf:e2:31:5d:fc:fa:
        de:13:e7:9a:04:9c:85:6c:cf:88:3c:ae:ea:91:42:a5:8d:f4:
        c1:85:0f:0e:45:95:a9:7b:d3:c9:54:5f:98:9c:4a:7d:b0:10:
        ed:7d:b8:b3:ae:66:4f:db:fe:96:da:bf:66:d1:85:78:23:7e:
        aa:1e:ca:43:5e:e3:c4:c4:1e:d2:84:7b:29:1d:00:19:d1:6c:
        41:8e:ff:6d:44:f4:8e:9d:e7:b1:46:86:69:08:e2:8e:fb:72:
        0a:d6:b4:aa:55:bd:8d:24:52:15:12:c3:7c:70:b0:d6:76:64:
        36:2e:a2:15:fb:f1:6e:8b:51:61:25:f4:7c:e5:5f:6c:1e:51:
        d7:7a:84:0a:40:11:6a:79:da:00:0b:97:40:1c:a9:27:69:00:
        de:1c:75:a6:06:28:4b:a3:4d:54:34:8c:24:76:4a:90:df:63:
        6a:3e:36:c1:48:de:9e:82:24:a5:23:da:c6:01:7c:8f:0c:8e:
        58:32:24:7d:a1:58:1b:f2:31:2d:3b:1b:6a:37:b2:a2:c0:a4:
        14:6d:88:cc:85:83:9c:36:ce:ce:5c:28:b0:2d:92:24:af:84:
        04:3e:5c:0b:fa:f8:7f:18:82:7a:0b:a9:af:4a:51:7d:0e:c9:
        22:81:4e:f3:a0:15:6b:c5:70:cc:2b:63:50:da:26:a5:37:24:
        8a:4b:c0:b9:7b:13:81:56:b3:e1:c8:73:72:09:b6:5f:1b:84:
        9f:f9:bc:d7:35:1d:f4:13
-----BEGIN CERTIFICATE-----
MIIHIDCCBQigAwIBAgIUbpUZUAtEAXjrzdhBYbJinar5VZ0wDQYJKoZIhvcNAQEL
BQAwgZ8xCzAJBgNVBAYTAlVTMRAwDgYDVQQIDAdNb250YW5hMRAwDgYDVQQHDAdC
b3plbWFuMRUwEwYDVQQKDAx3b2xmU1NMXzQwOTYxGTAXBgNVBAsMEFByb2dyYW1t
aW5nLTQwOTYxGDAWBgNVBAMMD3d3dy53b2xmc3NsLmNvbTEgMB4GCSqGSIb3DQEJ
ARYRZmFjdHNAd29sZnNzbC5jb20wHhcNMjYwNjExMjE0NDI4WhcNMjkwMzA3MjE0
NDI4WjCBnzELMAkGA1UEBhMCVVMxEDAOBgNVBAgMB01vbnRhbmExEDAOBgNVBAcM
B0JvemVtYW4xFTATBgNVBAoMDHdvbGZTU0xfNDA5NjEZMBcGA1UECwwQUHJvZ3Jh
bW1pbmctNDA5NjEYMBYGA1UEAwwPd3d3LndvbGZzc2wuY29tMSAwHgYJKoZIhvcN
AQkBFhFmYWN0c0B3b2xmc3NsLmNvbTCCAiIwDQYJKoZIhvcNAQEBBQADggIPADCC
AgoCggIBAPXQMeRxWVizB1DdFnn8xpVQ/EYOVxKGcY3jm0oz6k/ZFxNtSGnfWREI
Ap2vK8cwvgzch9RaEgkjXeF2WmI3RnTvAwW7Hm0pdWwunYcNj4fLFJWbvhdrUdFM
2teRZsU26+AHGnZNsPvB9V4F27rLJdmZExzANdxA6TbNxNV6QXAPNuulThcF1XUb
ZGJ6Pw0oSGrjrJyoj+nt980koLGgA6zjA/U/0Zb/Kn4IsdPgGBTsZTdQQ8JqjPRb
/sTLjT+BAvfC3eTBjoAMBCUtgFouDyI1SvSF7VHYq22PojskAG6B4h521qwxEtvz
jgeh3olKOWB3xarxUeYG8ZVWKuGOkjCf/lhErEby/Zr8qB2h01U3Sov8nDP4p2FI
QXycdz/1gCN9Q7TViArJdddEGU13bAsKSaocL9ZaRKZHTeU2lkCZLFYmsfKSMVnX
LNS0IdZlEws++/8E67mFudjYKE9cF5ajUb7+fQsbSEAldpTcQfu/c3ba67Ni58HI
VGqT4Y0x6D4+37yHAjAiV8TgGHrTruQCm6q9TklHcumNEy1UmwCnkWFxycxIT+7f
Xhsa32fTIOZERZh+5w5jFoPJJl2QweUqXEVUE7KBGAYgLi5mWrV7btYMTokBVnC7
rt7pmV7RuTq3bBe2A6kI3Zz0FMnJWTly1H4CNzHNDqc9+PLPaxWrAgMBAAGjggFQ
MIIBTDAdBgNVHQ4EFgQU+lSJZ+VftzFA6v3n9qPGWlYWpW4wgd8GA1UdIwSB1zCB
1IAU+lSJZ+VftzFA6v3n9qPGWlYWpW6hgaWkgaIwgZ8xCzAJBgNVBAYTAlVTMRAw
DgYDVQQIDAdNb250YW5hMRAwDgYDVQQHDAdCb3plbWFuMRUwEwYDVQQKDAx3b2xm
U1NMXzQwOTYxGTAXBgNVBAsMEFByb2dyYW1taW5nLTQwOTYxGDAWBgNVBAMMD3d3
dy53b2xmc3NsLmNvbTEgMB4GCSqGSIb3DQEJARYRZmFjdHNAd29sZnNzbC5jb22C
FG6VGVALRAF4683YQWGyYp2q+VWdMAwGA1UdEwQFMAMBAf8wHAYDVR0RBBUwE4IL
ZXhhbXBsZS5jb22HBH8AAAEwHQYDVR0lBBYwFAYIKwYBBQUHAwEGCCsGAQUFBwMC
MA0GCSqGSIb3DQEBCwUAA4ICAQDnVRN+Nz2Jzc1Gnd08FP2U4gLgVxTmHCjwJuh2
xNuHVMaPfiiM92VwH3F1igcrzk4y3ICeI9C7B5bfocLDM5c8GPPXKjt1JISNqdU4
XhPQpzgQVDJh07PhPQJUK4dveotiYXEo0cjW+65DD3M8E8at9y7gzfmzLhLW9Ze7
Edtpn22APfQTuTPA6wnsHiRLZ1GWdbb4oYsuAJ915etN4OHT73X8vt3Rp+fO0dof
8eO5mplGpBXnQYlcZbhh0JY0g9NHZ0ItWIrKRn9jbUo/KA8D10KWm+oQkrldA/JK
UFqPvibNVPnP4jFd/PreE+eaBJyFbM+IPK7qkUKljfTBhQ8ORZWpe9PJVF+YnEp9
sBDtfbizrmZP2/6W2r9m0YV4I36qHspDXuPExB7ShHspHQAZ0WxBjv9tRPSOneex
RoZpCOKO+3IK1rSqVb2NJFIVEsN8cLDWdmQ2LqIV+/Fui1FhJfR85V9sHlHXeoQK
QBFqedoAC5dAHKknaQDeHHWmBihLo01UNIwkdkqQ32NqPjbBSN6egiSlI9rGAXyP
DI5YMiR9oVgb8jEtOxtqN7KiwKQUbYjMhYOcNs7OXCiwLZIkr4QEPlwL+vh/GIJ6
C6mvSlF9DskigU7zoBVrxXDMK2NQ2ialNySKS8C5exOBVrPhyHNyCbZfG4Sf+bzX
NR30Ew==
-----END CERTIFICATE-----
