Certificate:
    Data:
        Version: 3 (0x2)
        Serial Number:
            12:66:c3:a2:08:5c:f7:d0:6e:e9:a8:82:a2:ab:9c:0f:76:9e:96:f4
        Signature Algorithm: sha256WithRSAEncryption
        Issuer: C = US, ST = Montana, L = Bozeman, O = wolfSSL_4096, OU = Programming-4096, CN = www.wolfssl.com, emailAddress = info@wolfssl.com
        Validity
            Not Before: Dec 18 21:25:29 2024 GMT
            Not After : Sep 14 21:25:29 2027 GMT
        Subject: C = US, ST = Montana, L = Bozeman, O = wolfSSL_4096, OU = Programming-4096, CN = www.wolfssl.com, emailAddress = info@wolfssl.com
        Subject Public Key Info:
            Public Key Algorithm: rsaEncryption
                Public-Key: (4096 bit)
                Modulus:
                    00:f5:d0:31:e4:71:59:58:b3:07:50:dd:16:79:fc:
                    c6:95:50:fc:46:0e:57:12:86:71:8d:e3:9b:4a:33:
                    ea:4f:d9:17:13:6d:48:69:df:59:11:08:02:9d:af:
                    2b:c7:30:be:0c:dc:87:d4:5a:12:09:23:5d:e1:76:
                    5a:62:37:46:74:ef:03:05:bb:1e:6d:29:75:6c:2e:
                    9d:87:0d:8f:87:cb:14:95:9b:be:17:6b:51:d1:4c:
                    da:d7:91:66:c5:36:eb:e0:07:1a:76:4d:b0:fb:c1:
                    f5:5e:05:db:ba:cb:25:d9:99:13:1c:c0:35:dc:40:
                    e9:36:cd:c4:d5:7a:41:70:0f:36:eb:a5:4e:17:05:
                    d5:75:1b:64:62:7a:3f:0d:28:48:6a:e3:ac:9c:a8:
                    8f:e9:ed:f7:cd:24:a0:b1:a0:03:ac:e3:03:f5:3f:
                    d1:96:ff:2a:7e:08:b1:d3:e0:18:14:ec:65:37:50:
                    43:c2:6a:8c:f4:5b:fe:c4:cb:8d:3f:81:02:f7:c2:
                    dd:e4:c1:8e:80:0c:04:25:2d:80:5a:2e:0f:22:35:
                    4a:f4:85:ed:51:d8:ab:6d:8f:a2:3b:24:00:6e:81:
                    e2:1e:76:d6:ac:31:12:db:f3:8e:07:a1:de:89:4a:
                    39:60:77:c5:aa:f1:51:e6:06:f1:95:56:2a:e1:8e:
                    92:30:9f:fe:58:44:ac:46:f2:fd:9a:fc:a8:1d:a1:
                    d3:55:37:4a:8b:fc:9c:33:f8:a7:61:48:41:7c:9c:
                    77:3f:f5:80:23:7d:43:b4:d5:88:0a:c9:75:d7:44:
                    19:4d:77:6c:0b:0a:49:aa:1c:2f:d6:5a:44:a6:47:
                    4d:e5:36:96:40:99:2c:56:26:b1:f2:92:31:59:d7:
                    2c:d4:b4:21:d6:65:13:0b:3e:fb:ff:04:eb:b9:85:
                    b9:d8:d8:28:4f:5c:17:96:a3:51:be:fe:7d:0b:1b:
                    48:40:25:76:94:dc:41:fb:bf:73:76:da:eb:b3:62:
                    e7:c1:c8:54:6a:93:e1:8d:31:e8:3e:3e:df:bc:87:
                    02:30:22:57:c4:e0:18:7a:d3:ae:e4:02:9b:aa:bd:
                    4e:49:47:72:e9:8d:13:2d:54:9b:00:a7:91:61:71:
                    c9:cc:48:4f:ee:df:5e:1b:1a:df:67:d3:20:e6:44:
                    45:98:7e:e7:0e:63:16:83:c9:26:5d:90:c1:e5:2a:
                    5c:45:54:13:b2:81:18:06:20:2e:2e:66:5a:b5:7b:
                    6e:d6:0c:4e:89:01:56:70:bb:ae:de:e9:99:5e:d1:
                    b9:3a:b7:6c:17:b6:03:a9:08:dd:9c:f4:14:c9:c9:
                    59:39:72:d4:7e:02:37:31:cd:0e:a7:3d:f8:f2:cf:
                    6b:15:ab
                Exponent: 65537 (0x10001)
        X509v3 extensions:
            X509v3 Subject Key Identifier: 
                FA:54:89:67:E5:5F:B7:31:40:EA:FD:E7:F6:A3:C6:5A:56:16:A5:6E
            X509v3 Authority Key Identifier: 
                keyid:FA:54:89:67:E5:5F:B7:31:40:EA:FD:E7:F6:A3:C6:5A:56:16:A5:6E
                DirName:/C=US/ST=Montana/L=Bozeman/O=wolfSSL_4096/OU=Programming-4096/CN=www.wolfssl.com/emailAddress=info@wolfssl.com
                serial:12:66:C3:A2:08:5C:F7:D0:6E:E9:A8:82:A2:AB:9C:0F:76:9E:96:F4
            X509v3 Basic Constraints: 
                CA:TRUE
            X509v3 Subject Alternative Name: 
                DNS:example.com, IP Address:127.0.0.1
            X509v3 Extended Key Usage: 
                TLS Web Server Authentication, TLS Web Client Authentication
    Signature Algorithm: sha256WithRSAEncryption
    Signature Value:
        b0:00:28:7b:c8:3f:ae:93:f5:16:87:30:d6:07:2b:71:16:34:
        1e:5c:48:0f:4a:e7:50:07:9d:f4:75:5b:90:53:72:87:2a:bb:
        ef:04:bc:52:d2:bf:ff:27:58:2f:5c:af:be:f3:f6:00:a2:37:
        8b:ec:2c:d7:b7:e7:bb:3b:ca:6f:9d:42:b7:00:b8:c2:a2:8e:
        8e:e4:57:fd:83:4b:b8:47:aa:a1:28:ac:bd:c1:59:04:90:17:
        40:40:35:04:c6:40:a9:21:d3:79:45:0e:22:c8:6f:ec:ae:58:
        a5:c2:d8:1b:11:49:94:58:c2:11:7d:f8:0a:bb:47:fd:ac:cf:
        f7:23:05:3f:ab:1d:0e:30:c5:98:29:13:1a:90:6f:f9:3f:f2:
        d6:df:03:cc:f1:48:e7:71:e6:c4:ce:f3:f9:bf:07:c9:cf:dd:
        63:0e:fe:bc:93:1c:9a:52:7d:63:f9:6d:a5:50:f3:ef:54:d7:
        da:42:74:85:b1:b4:7c:d5:03:cc:b8:c3:ba:1f:b8:4f:5a:f9:
        05:ba:4b:0d:57:8d:05:cf:4f:b7:c4:64:2e:2c:10:f3:fa:79:
        0c:8c:1f:cc:84:33:88:fb:77:b5:6e:45:35:15:cc:28:80:2b:
        2d:6b:3f:d0:a3:10:d1:53:c0:bb:70:43:79:2f:ff:3f:63:26:
        c5:60:9b:87:e9:a2:5b:40:13:41:25:d2:9c:3e:42:79:00:e1:
        12:0e:aa:06:e0:65:59:a1:fa:db:c4:c2:97:a8:87:35:96:1c:
        8e:ff:eb:91:e0:8b:e3:3e:c8:b2:8c:d3:84:5e:76:80:d7:29:
        0a:59:cc:71:d5:e5:65:3c:30:38:6e:f5:3f:7e:28:0f:3d:15:
        10:86:30:39:56:23:13:30:b4:70:f7:7b:c3:0d:51:ad:18:b1:
        87:b3:3f:1c:69:f5:d4:1e:72:66:5e:44:b9:53:ba:9e:f0:b8:
        4a:b1:34:50:98:d8:f2:b9:b2:c5:ed:73:c9:ee:dd:33:8c:cf:
        72:35:e0:3d:0f:45:2a:89:f9:a3:76:40:07:0f:f6:48:6c:f1:
        8c:30:3a:c2:51:06:c2:51:5e:75:98:06:e0:1e:29:f7:12:9a:
        56:a4:38:83:b1:8b:86:b6:ab:87:aa:3c:39:9d:4d:0c:e8:78:
        9f:52:47:66:69:c8:66:0c:fe:d9:74:1d:78:0b:51:e4:d9:c8:
        35:97:95:c7:31:97:13:49:ed:aa:9e:9c:fd:66:04:79:d2:24:
        4d:64:8d:3f:cd:94:b0:05:0a:30:3b:1c:96:e7:79:00:03:47:
        55:34:51:1f:46:3a:24:47:e6:dd:78:89:18:29:32:c5:ad:fb:
        9c:f7:26:ac:56:3e:f7:73
-----BEGIN CERTIFICATE-----
MIIHHTCCBQWgAwIBAgIUEmbDoghc99Bu6aiCoqucD3aelvQwDQYJKoZIhvcNAQEL
BQAwgZ4xCzAJBgNVBAYTAlVTMRAwDgYDVQQIDAdNb250YW5hMRAwDgYDVQQHDAdC
b3plbWFuMRUwEwYDVQQKDAx3b2xmU1NMXzQwOTYxGTAXBgNVBAsMEFByb2dyYW1t
aW5nLTQwOTYxGDAWBgNVBAMMD3d3dy53b2xmc3NsLmNvbTEfMB0GCSqGSIb3DQEJ
ARYQaW5mb0B3b2xmc3NsLmNvbTAeFw0yNDEyMTgyMTI1MjlaFw0yNzA5MTQyMTI1
MjlaMIGeMQswCQYDVQQGEwJVUzEQMA4GA1UECAwHTW9udGFuYTEQMA4GA1UEBwwH
Qm96ZW1hbjEVMBMGA1UECgwMd29sZlNTTF80MDk2MRkwFwYDVQQLDBBQcm9ncmFt
bWluZy00MDk2MRgwFgYDVQQDDA93d3cud29sZnNzbC5jb20xHzAdBgkqhkiG9w0B
CQEWEGluZm9Ad29sZnNzbC5jb20wggIiMA0GCSqGSIb3DQEBAQUAA4ICDwAwggIK
AoICAQD10DHkcVlYswdQ3RZ5/MaVUPxGDlcShnGN45tKM+pP2RcTbUhp31kRCAKd
ryvHML4M3IfUWhIJI13hdlpiN0Z07wMFux5tKXVsLp2HDY+HyxSVm74Xa1HRTNrX
kWbFNuvgBxp2TbD7wfVeBdu6yyXZmRMcwDXcQOk2zcTVekFwDzbrpU4XBdV1G2Ri
ej8NKEhq46ycqI/p7ffNJKCxoAOs4wP1P9GW/yp+CLHT4BgU7GU3UEPCaoz0W/7E
y40/gQL3wt3kwY6ADAQlLYBaLg8iNUr0he1R2Kttj6I7JABugeIedtasMRLb844H
od6JSjlgd8Wq8VHmBvGVVirhjpIwn/5YRKxG8v2a/KgdodNVN0qL/Jwz+KdhSEF8
nHc/9YAjfUO01YgKyXXXRBlNd2wLCkmqHC/WWkSmR03lNpZAmSxWJrHykjFZ1yzU
tCHWZRMLPvv/BOu5hbnY2ChPXBeWo1G+/n0LG0hAJXaU3EH7v3N22uuzYufByFRq
k+GNMeg+Pt+8hwIwIlfE4Bh6067kApuqvU5JR3LpjRMtVJsAp5FhccnMSE/u314b
Gt9n0yDmREWYfucOYxaDySZdkMHlKlxFVBOygRgGIC4uZlq1e27WDE6JAVZwu67e
6Zle0bk6t2wXtgOpCN2c9BTJyVk5ctR+AjcxzQ6nPfjyz2sVqwIDAQABo4IBTzCC
AUswHQYDVR0OBBYEFPpUiWflX7cxQOr95/ajxlpWFqVuMIHeBgNVHSMEgdYwgdOA
FPpUiWflX7cxQOr95/ajxlpWFqVuoYGkpIGhMIGeMQswCQYDVQQGEwJVUzEQMA4G
A1UECAwHTW9udGFuYTEQMA4GA1UEBwwHQm96ZW1hbjEVMBMGA1UECgwMd29sZlNT
TF80MDk2MRkwFwYDVQQLDBBQcm9ncmFtbWluZy00MDk2MRgwFgYDVQQDDA93d3cu
d29sZnNzbC5jb20xHzAdBgkqhkiG9w0BCQEWEGluZm9Ad29sZnNzbC5jb22CFBJm
w6IIXPfQbumogqKrnA92npb0MAwGA1UdEwQFMAMBAf8wHAYDVR0RBBUwE4ILZXhh
bXBsZS5jb22HBH8AAAEwHQYDVR0lBBYwFAYIKwYBBQUHAwEGCCsGAQUFBwMCMA0G
CSqGSIb3DQEBCwUAA4ICAQCwACh7yD+uk/UWhzDWBytxFjQeXEgPSudQB530dVuQ
U3KHKrvvBLxS0r//J1gvXK++8/YAojeL7CzXt+e7O8pvnUK3ALjCoo6O5Ff9g0u4
R6qhKKy9wVkEkBdAQDUExkCpIdN5RQ4iyG/srlilwtgbEUmUWMIRffgKu0f9rM/3
IwU/qx0OMMWYKRMakG/5P/LW3wPM8UjncebEzvP5vwfJz91jDv68kxyaUn1j+W2l
UPPvVNfaQnSFsbR81QPMuMO6H7hPWvkFuksNV40Fz0+3xGQuLBDz+nkMjB/MhDOI
+3e1bkU1FcwogCstaz/QoxDRU8C7cEN5L/8/YybFYJuH6aJbQBNBJdKcPkJ5AOES
DqoG4GVZofrbxMKXqIc1lhyO/+uR4IvjPsiyjNOEXnaA1ykKWcxx1eVlPDA4bvU/
figPPRUQhjA5ViMTMLRw93vDDVGtGLGHsz8cafXUHnJmXkS5U7qe8LhKsTRQmNjy
ubLF7XPJ7t0zjM9yNeA9D0UqifmjdkAHD/ZIbPGMMDrCUQbCUV51mAbgHin3EppW
pDiDsYuGtquHqjw5nU0M6HifUkdmachmDP7ZdB14C1Hk2cg1l5XHMZcTSe2qnpz9
ZgR50iRNZI0/zZSwBQowOxyW53kAA0dVNFEfRjokR+bdeIkYKTLFrfuc9yasVj73
cw==
-----END CERTIFICATE-----
