Certificate:
    Data:
        Version: 3 (0x2)
        Serial Number:
            6b:94:0e:b3:2d:2e:13:2e:d0:79:56:c5:27:bf:3f:a0:c6:6d:61:c5
        Signature Algorithm: sha256WithRSAEncryption
        Issuer: C = US, ST = Montana, L = Bozeman, O = wolfSSL_4096, OU = Programming-4096, CN = www.wolfssl.com, emailAddress = info@wolfssl.com
        Validity
            Not Before: Sep 26 17:22:42 2023 GMT
            Not After : Jun 22 17:22:42 2026 GMT
        Subject: C = US, ST = Montana, L = Bozeman, O = wolfSSL_4096, OU = Programming-4096, CN = www.wolfssl.com, emailAddress = info@wolfssl.com
        Subject Public Key Info:
            Public Key Algorithm: rsaEncryption
                Public-Key: (4096 bit)
                Modulus:
                    00:f5:d0:31:e4:71:59:58:b3:07:50:dd:16:79:fc:
                    c6:95:50:fc:46:0e:57:12:86:71:8d:e3:9b:4a:33:
                    ea:4f:d9:17:13:6d:48:69:df:59:11:08:02:9d:af:
                    2b:c7:30:be:0c:dc:87:d4:5a:12:09:23:5d:e1:76:
                    5a:62:37:46:74:ef:03:05:bb:1e:6d:29:75:6c:2e:
                    9d:87:0d:8f:87:cb:14:95:9b:be:17:6b:51:d1:4c:
                    da:d7:91:66:c5:36:eb:e0:07:1a:76:4d:b0:fb:c1:
                    f5:5e:05:db:ba:cb:25:d9:99:13:1c:c0:35:dc:40:
                    e9:36:cd:c4:d5:7a:41:70:0f:36:eb:a5:4e:17:05:
                    d5:75:1b:64:62:7a:3f:0d:28:48:6a:e3:ac:9c:a8:
                    8f:e9:ed:f7:cd:24:a0:b1:a0:03:ac:e3:03:f5:3f:
                    d1:96:ff:2a:7e:08:b1:d3:e0:18:14:ec:65:37:50:
                    43:c2:6a:8c:f4:5b:fe:c4:cb:8d:3f:81:02:f7:c2:
                    dd:e4:c1:8e:80:0c:04:25:2d:80:5a:2e:0f:22:35:
                    4a:f4:85:ed:51:d8:ab:6d:8f:a2:3b:24:00:6e:81:
                    e2:1e:76:d6:ac:31:12:db:f3:8e:07:a1:de:89:4a:
                    39:60:77:c5:aa:f1:51:e6:06:f1:95:56:2a:e1:8e:
                    92:30:9f:fe:58:44:ac:46:f2:fd:9a:fc:a8:1d:a1:
                    d3:55:37:4a:8b:fc:9c:33:f8:a7:61:48:41:7c:9c:
                    77:3f:f5:80:23:7d:43:b4:d5:88:0a:c9:75:d7:44:
                    19:4d:77:6c:0b:0a:49:aa:1c:2f:d6:5a:44:a6:47:
                    4d:e5:36:96:40:99:2c:56:26:b1:f2:92:31:59:d7:
                    2c:d4:b4:21:d6:65:13:0b:3e:fb:ff:04:eb:b9:85:
                    b9:d8:d8:28:4f:5c:17:96:a3:51:be:fe:7d:0b:1b:
                    48:40:25:76:94:dc:41:fb:bf:73:76:da:eb:b3:62:
                    e7:c1:c8:54:6a:93:e1:8d:31:e8:3e:3e:df:bc:87:
                    02:30:22:57:c4:e0:18:7a:d3:ae:e4:02:9b:aa:bd:
                    4e:49:47:72:e9:8d:13:2d:54:9b:00:a7:91:61:71:
                    c9:cc:48:4f:ee:df:5e:1b:1a:df:67:d3:20:e6:44:
                    45:98:7e:e7:0e:63:16:83:c9:26:5d:90:c1:e5:2a:
                    5c:45:54:13:b2:81:18:06:20:2e:2e:66:5a:b5:7b:
                    6e:d6:0c:4e:89:01:56:70:bb:ae:de:e9:99:5e:d1:
                    b9:3a:b7:6c:17:b6:03:a9:08:dd:9c:f4:14:c9:c9:
                    59:39:72:d4:7e:02:37:31:cd:0e:a7:3d:f8:f2:cf:
                    6b:15:ab
                Exponent: 65537 (0x10001)
        X509v3 extensions:
            X509v3 Subject Key Identifier: 
                FA:54:89:67:E5:5F:B7:31:40:EA:FD:E7:F6:A3:C6:5A:56:16:A5:6E
            X509v3 Authority Key Identifier: 
                keyid:FA:54:89:67:E5:5F:B7:31:40:EA:FD:E7:F6:A3:C6:5A:56:16:A5:6E
                DirName:/C=US/ST=Montana/L=Bozeman/O=wolfSSL_4096/OU=Programming-4096/CN=www.wolfssl.com/emailAddress=info@wolfssl.com
                serial:6B:94:0E:B3:2D:2E:13:2E:D0:79:56:C5:27:BF:3F:A0:C6:6D:61:C5
            X509v3 Basic Constraints: 
                CA:TRUE
            X509v3 Subject Alternative Name: 
                DNS:example.com, IP Address:127.0.0.1
            X509v3 Extended Key Usage: 
                TLS Web Server Authentication, TLS Web Client Authentication
    Signature Algorithm: sha256WithRSAEncryption
    Signature Value:
        6c:50:99:26:26:a0:c0:0b:04:e2:77:d6:7b:af:61:ef:f5:2c:
        06:42:c9:94:5d:91:6a:58:f8:0c:3a:88:2a:e3:e8:f8:a1:93:
        09:02:7f:e9:2c:49:c9:e5:e4:01:0f:63:6c:a0:5c:f3:92:e6:
        d9:b5:80:1b:29:8c:f9:34:b0:c1:3d:86:21:ca:31:f9:90:b9:
        43:e9:ef:8b:e4:2b:be:eb:59:2e:83:34:cc:4b:e7:e6:21:c8:
        6c:60:53:ee:7a:21:a4:2c:6b:ff:d7:ad:f3:05:ad:91:d1:65:
        33:0d:68:c6:86:e9:cb:cd:73:b8:86:2a:5c:60:9e:79:ab:59:
        d7:f8:95:3c:dc:e1:72:ff:4d:76:43:2d:26:a2:5d:91:5d:b4:
        26:bc:ea:96:4f:9e:18:f0:33:c2:37:b1:87:b3:61:b3:c9:db:
        54:f6:66:3d:3e:cc:22:5e:bf:ed:89:b5:af:5a:39:29:db:e9:
        89:da:c4:b1:a3:9b:6a:e8:5e:13:a7:e9:5e:db:ba:fa:c7:c7:
        52:55:51:3f:6c:87:0a:87:9d:01:f4:4b:38:5b:63:bb:be:a0:
        71:dc:50:c9:3c:2b:8a:d2:e4:e7:d7:47:07:32:a8:64:0e:22:
        fc:d7:8f:83:f4:0e:6b:66:75:80:bf:8f:1a:1b:76:64:3f:53:
        e7:f7:24:55:c6:ad:4c:70:1f:00:aa:60:ce:7c:68:cd:cc:a1:
        5b:62:3b:26:e2:61:78:2e:fd:80:a9:81:e2:96:4f:0e:9f:50:
        e4:68:c7:02:68:88:bb:9d:78:f9:a6:2b:47:c7:66:b2:41:39:
        7c:fe:6d:f7:01:85:fb:05:36:f5:f5:c8:f6:23:13:f6:6f:a3:
        e5:30:70:f3:bf:21:9e:60:f8:71:10:0d:aa:21:7c:ea:ab:4d:
        c6:b5:89:1b:0c:33:38:dc:09:e2:1f:46:f8:dd:64:22:c8:2c:
        06:6d:92:1a:ef:47:08:d4:91:c8:25:f8:e4:42:2e:9c:09:3f:
        f4:dc:fb:00:53:80:59:3e:74:a0:74:58:0b:94:22:d9:dc:34:
        a8:f3:70:61:d2:be:6c:49:a8:e7:11:46:7a:c5:56:fb:f4:8c:
        09:a9:17:72:26:fd:04:18:29:c8:ed:0b:d4:8f:21:59:a1:2a:
        7c:ce:08:6b:b9:b6:62:17:43:dc:26:16:4d:6a:b2:8c:46:a9:
        2d:77:e1:e3:85:22:6f:e2:0f:1c:a8:1d:1f:2b:7d:6c:fb:19:
        e5:60:d4:47:c7:1a:78:b6:10:f5:af:6d:e6:51:52:6b:cb:79:
        b5:41:ef:29:b9:02:25:81:f7:bd:d6:a5:0f:32:7d:e1:2f:87:
        09:79:2d:a0:2d:75:9c:2a
-----BEGIN CERTIFICATE-----
MIIHHTCCBQWgAwIBAgIUa5QOsy0uEy7QeVbFJ78/oMZtYcUwDQYJKoZIhvcNAQEL
BQAwgZ4xCzAJBgNVBAYTAlVTMRAwDgYDVQQIDAdNb250YW5hMRAwDgYDVQQHDAdC
b3plbWFuMRUwEwYDVQQKDAx3b2xmU1NMXzQwOTYxGTAXBgNVBAsMEFByb2dyYW1t
aW5nLTQwOTYxGDAWBgNVBAMMD3d3dy53b2xmc3NsLmNvbTEfMB0GCSqGSIb3DQEJ
ARYQaW5mb0B3b2xmc3NsLmNvbTAeFw0yMzA5MjYxNzIyNDJaFw0yNjA2MjIxNzIy
NDJaMIGeMQswCQYDVQQGEwJVUzEQMA4GA1UECAwHTW9udGFuYTEQMA4GA1UEBwwH
Qm96ZW1hbjEVMBMGA1UECgwMd29sZlNTTF80MDk2MRkwFwYDVQQLDBBQcm9ncmFt
bWluZy00MDk2MRgwFgYDVQQDDA93d3cud29sZnNzbC5jb20xHzAdBgkqhkiG9w0B
CQEWEGluZm9Ad29sZnNzbC5jb20wggIiMA0GCSqGSIb3DQEBAQUAA4ICDwAwggIK
AoICAQD10DHkcVlYswdQ3RZ5/MaVUPxGDlcShnGN45tKM+pP2RcTbUhp31kRCAKd
ryvHML4M3IfUWhIJI13hdlpiN0Z07wMFux5tKXVsLp2HDY+HyxSVm74Xa1HRTNrX
kWbFNuvgBxp2TbD7wfVeBdu6yyXZmRMcwDXcQOk2zcTVekFwDzbrpU4XBdV1G2Ri
ej8NKEhq46ycqI/p7ffNJKCxoAOs4wP1P9GW/yp+CLHT4BgU7GU3UEPCaoz0W/7E
y40/gQL3wt3kwY6ADAQlLYBaLg8iNUr0he1R2Kttj6I7JABugeIedtasMRLb844H
od6JSjlgd8Wq8VHmBvGVVirhjpIwn/5YRKxG8v2a/KgdodNVN0qL/Jwz+KdhSEF8
nHc/9YAjfUO01YgKyXXXRBlNd2wLCkmqHC/WWkSmR03lNpZAmSxWJrHykjFZ1yzU
tCHWZRMLPvv/BOu5hbnY2ChPXBeWo1G+/n0LG0hAJXaU3EH7v3N22uuzYufByFRq
k+GNMeg+Pt+8hwIwIlfE4Bh6067kApuqvU5JR3LpjRMtVJsAp5FhccnMSE/u314b
Gt9n0yDmREWYfucOYxaDySZdkMHlKlxFVBOygRgGIC4uZlq1e27WDE6JAVZwu67e
6Zle0bk6t2wXtgOpCN2c9BTJyVk5ctR+AjcxzQ6nPfjyz2sVqwIDAQABo4IBTzCC
AUswHQYDVR0OBBYEFPpUiWflX7cxQOr95/ajxlpWFqVuMIHeBgNVHSMEgdYwgdOA
FPpUiWflX7cxQOr95/ajxlpWFqVuoYGkpIGhMIGeMQswCQYDVQQGEwJVUzEQMA4G
A1UECAwHTW9udGFuYTEQMA4GA1UEBwwHQm96ZW1hbjEVMBMGA1UECgwMd29sZlNT
TF80MDk2MRkwFwYDVQQLDBBQcm9ncmFtbWluZy00MDk2MRgwFgYDVQQDDA93d3cu
d29sZnNzbC5jb20xHzAdBgkqhkiG9w0BCQEWEGluZm9Ad29sZnNzbC5jb22CFGuU
DrMtLhMu0HlWxSe/P6DGbWHFMAwGA1UdEwQFMAMBAf8wHAYDVR0RBBUwE4ILZXhh
bXBsZS5jb22HBH8AAAEwHQYDVR0lBBYwFAYIKwYBBQUHAwEGCCsGAQUFBwMCMA0G
CSqGSIb3DQEBCwUAA4ICAQBsUJkmJqDACwTid9Z7r2Hv9SwGQsmUXZFqWPgMOogq
4+j4oZMJAn/pLEnJ5eQBD2NsoFzzkubZtYAbKYz5NLDBPYYhyjH5kLlD6e+L5Cu+
61kugzTMS+fmIchsYFPueiGkLGv/163zBa2R0WUzDWjGhunLzXO4hipcYJ55q1nX
+JU83OFy/012Qy0mol2RXbQmvOqWT54Y8DPCN7GHs2GzydtU9mY9PswiXr/tibWv
Wjkp2+mJ2sSxo5tq6F4Tp+le27r6x8dSVVE/bIcKh50B9Es4W2O7vqBx3FDJPCuK
0uTn10cHMqhkDiL814+D9A5rZnWAv48aG3ZkP1Pn9yRVxq1McB8AqmDOfGjNzKFb
Yjsm4mF4Lv2AqYHilk8On1DkaMcCaIi7nXj5pitHx2ayQTl8/m33AYX7BTb19cj2
IxP2b6PlMHDzvyGeYPhxEA2qIXzqq03GtYkbDDM43AniH0b43WQiyCwGbZIa70cI
1JHIJfjkQi6cCT/03PsAU4BZPnSgdFgLlCLZ3DSo83Bh0r5sSajnEUZ6xVb79IwJ
qRdyJv0EGCnI7QvUjyFZoSp8zghrubZiF0PcJhZNarKMRqktd+HjhSJv4g8cqB0f
K31s+xnlYNRHxxp4thD1r23mUVJry3m1Qe8puQIlgfe91qUPMn3hL4cJeS2gLXWc
Kg==
-----END CERTIFICATE-----
