Certificate:
    Data:
        Version: 3 (0x2)
        Serial Number:
            07:91:84:28:88:1f:29:d0:53:fd:ed:42:1f:cf:88:4c:15:d1:f1:a4
        Signature Algorithm: sha256WithRSAEncryption
        Issuer: C = US, ST = Montana, L = Bozeman, O = wolfSSL_4096, OU = Programming-4096, CN = www.wolfssl.com, emailAddress = info@wolfssl.com
        Validity
            Not Before: Dec 20 23:07:24 2021 GMT
            Not After : Sep 15 23:07:24 2024 GMT
        Subject: C = US, ST = Montana, L = Bozeman, O = wolfSSL_4096, OU = Programming-4096, CN = www.wolfssl.com, emailAddress = info@wolfssl.com
        Subject Public Key Info:
            Public Key Algorithm: rsaEncryption
                RSA Public-Key: (4096 bit)
                Modulus:
                    00:f5:d0:31:e4:71:59:58:b3:07:50:dd:16:79:fc:
                    c6:95:50:fc:46:0e:57:12:86:71:8d:e3:9b:4a:33:
                    ea:4f:d9:17:13:6d:48:69:df:59:11:08:02:9d:af:
                    2b:c7:30:be:0c:dc:87:d4:5a:12:09:23:5d:e1:76:
                    5a:62:37:46:74:ef:03:05:bb:1e:6d:29:75:6c:2e:
                    9d:87:0d:8f:87:cb:14:95:9b:be:17:6b:51:d1:4c:
                    da:d7:91:66:c5:36:eb:e0:07:1a:76:4d:b0:fb:c1:
                    f5:5e:05:db:ba:cb:25:d9:99:13:1c:c0:35:dc:40:
                    e9:36:cd:c4:d5:7a:41:70:0f:36:eb:a5:4e:17:05:
                    d5:75:1b:64:62:7a:3f:0d:28:48:6a:e3:ac:9c:a8:
                    8f:e9:ed:f7:cd:24:a0:b1:a0:03:ac:e3:03:f5:3f:
                    d1:96:ff:2a:7e:08:b1:d3:e0:18:14:ec:65:37:50:
                    43:c2:6a:8c:f4:5b:fe:c4:cb:8d:3f:81:02:f7:c2:
                    dd:e4:c1:8e:80:0c:04:25:2d:80:5a:2e:0f:22:35:
                    4a:f4:85:ed:51:d8:ab:6d:8f:a2:3b:24:00:6e:81:
                    e2:1e:76:d6:ac:31:12:db:f3:8e:07:a1:de:89:4a:
                    39:60:77:c5:aa:f1:51:e6:06:f1:95:56:2a:e1:8e:
                    92:30:9f:fe:58:44:ac:46:f2:fd:9a:fc:a8:1d:a1:
                    d3:55:37:4a:8b:fc:9c:33:f8:a7:61:48:41:7c:9c:
                    77:3f:f5:80:23:7d:43:b4:d5:88:0a:c9:75:d7:44:
                    19:4d:77:6c:0b:0a:49:aa:1c:2f:d6:5a:44:a6:47:
                    4d:e5:36:96:40:99:2c:56:26:b1:f2:92:31:59:d7:
                    2c:d4:b4:21:d6:65:13:0b:3e:fb:ff:04:eb:b9:85:
                    b9:d8:d8:28:4f:5c:17:96:a3:51:be:fe:7d:0b:1b:
                    48:40:25:76:94:dc:41:fb:bf:73:76:da:eb:b3:62:
                    e7:c1:c8:54:6a:93:e1:8d:31:e8:3e:3e:df:bc:87:
                    02:30:22:57:c4:e0:18:7a:d3:ae:e4:02:9b:aa:bd:
                    4e:49:47:72:e9:8d:13:2d:54:9b:00:a7:91:61:71:
                    c9:cc:48:4f:ee:df:5e:1b:1a:df:67:d3:20:e6:44:
                    45:98:7e:e7:0e:63:16:83:c9:26:5d:90:c1:e5:2a:
                    5c:45:54:13:b2:81:18:06:20:2e:2e:66:5a:b5:7b:
                    6e:d6:0c:4e:89:01:56:70:bb:ae:de:e9:99:5e:d1:
                    b9:3a:b7:6c:17:b6:03:a9:08:dd:9c:f4:14:c9:c9:
                    59:39:72:d4:7e:02:37:31:cd:0e:a7:3d:f8:f2:cf:
                    6b:15:ab
                Exponent: 65537 (0x10001)
        X509v3 extensions:
            X509v3 Subject Key Identifier: 
                FA:54:89:67:E5:5F:B7:31:40:EA:FD:E7:F6:A3:C6:5A:56:16:A5:6E
            X509v3 Authority Key Identifier: 
                keyid:FA:54:89:67:E5:5F:B7:31:40:EA:FD:E7:F6:A3:C6:5A:56:16:A5:6E
                DirName:/C=US/ST=Montana/L=Bozeman/O=wolfSSL_4096/OU=Programming-4096/CN=www.wolfssl.com/emailAddress=info@wolfssl.com
                serial:07:91:84:28:88:1F:29:D0:53:FD:ED:42:1F:CF:88:4C:15:D1:F1:A4

            X509v3 Basic Constraints: 
                CA:TRUE
            X509v3 Subject Alternative Name: 
                DNS:example.com, IP Address:127.0.0.1
            X509v3 Extended Key Usage: 
                TLS Web Server Authentication, TLS Web Client Authentication
    Signature Algorithm: sha256WithRSAEncryption
         97:3a:5c:65:88:d6:bd:d6:80:4a:a3:a4:13:99:d8:7f:db:6d:
         68:f6:32:c8:ef:7a:70:db:1b:c2:11:7a:21:2b:e4:df:1e:78:
         08:0b:51:6d:0c:c4:cc:a8:e6:ad:ee:7d:67:6b:ce:74:3a:90:
         4c:c0:33:18:c4:b4:ef:27:aa:73:e3:92:d7:f5:31:6f:6b:62:
         57:22:e2:69:05:0f:c0:99:8e:c2:ff:be:99:bf:05:93:05:0b:
         19:8d:0d:ba:92:c9:dd:68:1f:3e:e2:24:b7:34:13:32:0b:92:
         dd:85:a1:fc:38:89:03:4d:96:4d:bf:1f:a2:7b:b1:9f:4c:de:
         a2:7c:e3:1d:33:05:ea:f0:91:5e:e5:90:cd:62:06:b0:98:73:
         f4:74:bc:f7:1d:10:43:6d:d0:85:c8:15:ca:43:6a:df:de:bc:
         fa:3c:e7:03:6e:d4:aa:46:db:fe:18:1b:d0:ca:94:7e:7a:e4:
         d4:21:c4:15:27:b9:46:7b:1f:b6:cd:03:ae:8d:a3:cf:14:df:
         54:4f:4a:f6:58:4e:b1:bf:5e:d6:7c:21:73:c9:4e:c9:0d:0f:
         b8:d1:a1:80:9e:e6:f3:4b:8e:cb:b7:bb:19:5d:f6:16:67:5e:
         01:97:17:59:71:59:ca:eb:3b:ea:70:8e:8f:58:1f:5c:d0:ac:
         12:b5:e4:de:f6:b0:7f:e7:86:fc:ab:d0:78:6c:e6:ba:f4:fa:
         7f:42:cd:4e:7f:43:ed:39:b7:50:1b:34:39:c6:30:bc:d7:7e:
         5c:59:ba:6b:7a:90:49:a0:de:f8:43:00:82:6d:6b:82:01:06:
         01:b0:04:49:fe:bd:8b:2d:c6:10:9f:d3:fb:1d:56:3a:bf:28:
         a2:a5:bd:c7:6b:a7:0c:01:bf:18:4e:75:77:49:86:ac:44:16:
         2f:9e:fa:e6:4e:f5:81:00:e7:e9:49:6d:ee:1e:c2:0c:91:3e:
         fc:14:07:cd:de:08:dc:cb:9a:3c:2c:9a:3e:32:03:ba:1e:42:
         17:3b:63:8c:ce:da:fd:6c:d5:55:3a:28:a5:35:1d:5f:41:f8:
         1c:fd:f5:73:a1:24:c5:a9:40:ab:ae:d0:4b:d3:d3:b1:23:64:
         2b:64:be:c4:3b:39:dc:46:d6:f4:9f:f9:4a:74:a1:14:58:8e:
         d7:8f:04:e5:cd:fb:35:a2:16:86:ed:95:ea:7a:f5:b5:0f:9b:
         bd:0c:dc:61:4a:a0:d3:cf:51:f5:be:fd:3b:e7:66:41:37:6c:
         89:d1:40:e0:2f:65:b6:03:a1:a9:57:4c:9f:93:95:95:97:ca:
         4f:5a:71:92:98:5c:39:ed:24:ac:35:ca:51:b7:32:74:1e:f9:
         83:e8:6b:4e:be:d4:75:85
-----BEGIN CERTIFICATE-----
MIIHHTCCBQWgAwIBAgIUB5GEKIgfKdBT/e1CH8+ITBXR8aQwDQYJKoZIhvcNAQEL
BQAwgZ4xCzAJBgNVBAYTAlVTMRAwDgYDVQQIDAdNb250YW5hMRAwDgYDVQQHDAdC
b3plbWFuMRUwEwYDVQQKDAx3b2xmU1NMXzQwOTYxGTAXBgNVBAsMEFByb2dyYW1t
aW5nLTQwOTYxGDAWBgNVBAMMD3d3dy53b2xmc3NsLmNvbTEfMB0GCSqGSIb3DQEJ
ARYQaW5mb0B3b2xmc3NsLmNvbTAeFw0yMTEyMjAyMzA3MjRaFw0yNDA5MTUyMzA3
MjRaMIGeMQswCQYDVQQGEwJVUzEQMA4GA1UECAwHTW9udGFuYTEQMA4GA1UEBwwH
Qm96ZW1hbjEVMBMGA1UECgwMd29sZlNTTF80MDk2MRkwFwYDVQQLDBBQcm9ncmFt
bWluZy00MDk2MRgwFgYDVQQDDA93d3cud29sZnNzbC5jb20xHzAdBgkqhkiG9w0B
CQEWEGluZm9Ad29sZnNzbC5jb20wggIiMA0GCSqGSIb3DQEBAQUAA4ICDwAwggIK
AoICAQD10DHkcVlYswdQ3RZ5/MaVUPxGDlcShnGN45tKM+pP2RcTbUhp31kRCAKd
ryvHML4M3IfUWhIJI13hdlpiN0Z07wMFux5tKXVsLp2HDY+HyxSVm74Xa1HRTNrX
kWbFNuvgBxp2TbD7wfVeBdu6yyXZmRMcwDXcQOk2zcTVekFwDzbrpU4XBdV1G2Ri
ej8NKEhq46ycqI/p7ffNJKCxoAOs4wP1P9GW/yp+CLHT4BgU7GU3UEPCaoz0W/7E
y40/gQL3wt3kwY6ADAQlLYBaLg8iNUr0he1R2Kttj6I7JABugeIedtasMRLb844H
od6JSjlgd8Wq8VHmBvGVVirhjpIwn/5YRKxG8v2a/KgdodNVN0qL/Jwz+KdhSEF8
nHc/9YAjfUO01YgKyXXXRBlNd2wLCkmqHC/WWkSmR03lNpZAmSxWJrHykjFZ1yzU
tCHWZRMLPvv/BOu5hbnY2ChPXBeWo1G+/n0LG0hAJXaU3EH7v3N22uuzYufByFRq
k+GNMeg+Pt+8hwIwIlfE4Bh6067kApuqvU5JR3LpjRMtVJsAp5FhccnMSE/u314b
Gt9n0yDmREWYfucOYxaDySZdkMHlKlxFVBOygRgGIC4uZlq1e27WDE6JAVZwu67e
6Zle0bk6t2wXtgOpCN2c9BTJyVk5ctR+AjcxzQ6nPfjyz2sVqwIDAQABo4IBTzCC
AUswHQYDVR0OBBYEFPpUiWflX7cxQOr95/ajxlpWFqVuMIHeBgNVHSMEgdYwgdOA
FPpUiWflX7cxQOr95/ajxlpWFqVuoYGkpIGhMIGeMQswCQYDVQQGEwJVUzEQMA4G
A1UECAwHTW9udGFuYTEQMA4GA1UEBwwHQm96ZW1hbjEVMBMGA1UECgwMd29sZlNT
TF80MDk2MRkwFwYDVQQLDBBQcm9ncmFtbWluZy00MDk2MRgwFgYDVQQDDA93d3cu
d29sZnNzbC5jb20xHzAdBgkqhkiG9w0BCQEWEGluZm9Ad29sZnNzbC5jb22CFAeR
hCiIHynQU/3tQh/PiEwV0fGkMAwGA1UdEwQFMAMBAf8wHAYDVR0RBBUwE4ILZXhh
bXBsZS5jb22HBH8AAAEwHQYDVR0lBBYwFAYIKwYBBQUHAwEGCCsGAQUFBwMCMA0G
CSqGSIb3DQEBCwUAA4ICAQCXOlxliNa91oBKo6QTmdh/221o9jLI73pw2xvCEXoh
K+TfHngIC1FtDMTMqOat7n1na850OpBMwDMYxLTvJ6pz45LX9TFva2JXIuJpBQ/A
mY7C/76ZvwWTBQsZjQ26ksndaB8+4iS3NBMyC5LdhaH8OIkDTZZNvx+ie7GfTN6i
fOMdMwXq8JFe5ZDNYgawmHP0dLz3HRBDbdCFyBXKQ2rf3rz6POcDbtSqRtv+GBvQ
ypR+euTUIcQVJ7lGex+2zQOujaPPFN9UT0r2WE6xv17WfCFzyU7JDQ+40aGAnubz
S47Lt7sZXfYWZ14BlxdZcVnK6zvqcI6PWB9c0KwSteTe9rB/54b8q9B4bOa69Pp/
Qs1Of0PtObdQGzQ5xjC8135cWbprepBJoN74QwCCbWuCAQYBsARJ/r2LLcYQn9P7
HVY6vyiipb3Ha6cMAb8YTnV3SYasRBYvnvrmTvWBAOfpSW3uHsIMkT78FAfN3gjc
y5o8LJo+MgO6HkIXO2OMztr9bNVVOiilNR1fQfgc/fVzoSTFqUCrrtBL09OxI2Qr
ZL7EOzncRtb0n/lKdKEUWI7XjwTlzfs1ohaG7ZXqevW1D5u9DNxhSqDTz1H1vv07
52ZBN2yJ0UDgL2W2A6GpV0yfk5WVl8pPWnGSmFw57SSsNcpRtzJ0HvmD6GtOvtR1
hQ==
-----END CERTIFICATE-----
