Certificate:
    Data:
        Version: 3 (0x2)
        Serial Number: 4104 (0x1008)
        Signature Algorithm: sha256WithRSAEncryption
        Issuer: C=US, ST=Washington, L=Seattle, O=wolfSSL, OU=Development, CN=wolfSSL Intermediate CA, emailAddress=facts@wolfssl.com
        Validity
            Not Before: Jun 11 17:01:57 2026 GMT
            Not After : Jun  6 17:01:57 2046 GMT
        Subject: C=US, ST=Washington, L=Seattle, O=wolfSSL, OU=Development, CN=www.wolfssl.com, emailAddress=facts@wolfssl.com
        Subject Public Key Info:
            Public Key Algorithm: id-ecPublicKey
                Public-Key: (256 bit)
                pub:
                    04:02:d3:d9:6e:d6:01:8e:45:c8:b9:90:31:e5:c0:
                    4c:e3:9e:ad:29:38:98:ba:10:d6:e9:09:2a:80:a9:
                    2e:17:2a:b9:8a:bf:33:83:46:e3:95:0b:e4:77:40:
                    b5:3b:43:45:33:0f:61:53:7c:37:44:c1:cb:fc:80:
                    ca:e8:43:ea:a7
                ASN1 OID: prime256v1
                NIST CURVE: P-256
        X509v3 extensions:
            X509v3 Subject Key Identifier: 
                56:8E:9A:C3:F0:42:DE:18:B9:45:55:6E:F9:93:CF:EA:C3:F3:A5:21
            X509v3 Authority Key Identifier: 
                EF:69:E0:F7:D5:1D:E6:99:EC:DC:6D:D0:F7:E2:B9:5C:64:71:83:35
            X509v3 Basic Constraints: critical
                CA:TRUE, pathlen:1
            X509v3 Key Usage: critical
                Digital Signature, Certificate Sign, CRL Sign
    Signature Algorithm: sha256WithRSAEncryption
    Signature Value:
        b4:5f:8f:a5:1b:69:e0:25:61:8c:0d:32:9e:5c:7f:08:46:e0:
        b1:90:36:f8:f0:0a:24:7e:65:6e:2e:15:e9:b9:17:89:27:2c:
        4c:92:0b:91:a6:94:66:90:f7:6e:6e:b0:45:90:12:e5:90:d4:
        3a:ba:cc:a5:59:ff:56:73:9e:7f:b6:01:4f:5e:68:4e:11:32:
        e7:b5:e8:cb:97:f2:7e:20:9b:c9:9f:12:d4:73:d0:ff:8e:d9:
        00:e9:49:64:d2:ac:3b:52:1f:5a:21:f9:7a:99:ea:7a:83:13:
        ee:9a:6b:a0:2c:89:9d:be:d5:73:01:e2:95:7c:1d:87:ac:5e:
        22:09:c8:d2:6f:87:b0:24:53:f1:09:22:7d:c8:3f:61:04:3a:
        d1:c0:6c:9c:bd:6e:ba:16:60:44:5b:9b:34:5b:54:c4:0e:81:
        b1:e7:a3:96:b4:85:67:1e:e3:ae:e4:3e:10:8f:89:fc:0c:cf:
        fb:f4:04:1d:e7:09:d1:87:a4:94:f8:99:65:43:81:ed:a8:f5:
        e1:a4:0e:89:7f:87:e2:d7:6b:32:de:0b:93:d1:18:7a:f6:84:
        b8:ac:29:3c:e9:8b:4a:3c:17:25:39:68:df:16:29:98:8d:34:
        cc:db:2d:03:32:66:a8:d5:e2:fe:8b:32:ca:ad:6a:3f:c0:2d:
        99:8d:1a:89
-----BEGIN CERTIFICATE-----
MIIDUTCCAjmgAwIBAgICEAgwDQYJKoZIhvcNAQELBQAwgaAxCzAJBgNVBAYTAlVT
MRMwEQYDVQQIDApXYXNoaW5ndG9uMRAwDgYDVQQHDAdTZWF0dGxlMRAwDgYDVQQK
DAd3b2xmU1NMMRQwEgYDVQQLDAtEZXZlbG9wbWVudDEgMB4GA1UEAwwXd29sZlNT
TCBJbnRlcm1lZGlhdGUgQ0ExIDAeBgkqhkiG9w0BCQEWEWZhY3RzQHdvbGZzc2wu
Y29tMB4XDTI2MDYxMTE3MDE1N1oXDTQ2MDYwNjE3MDE1N1owgZgxCzAJBgNVBAYT
AlVTMRMwEQYDVQQIDApXYXNoaW5ndG9uMRAwDgYDVQQHDAdTZWF0dGxlMRAwDgYD
VQQKDAd3b2xmU1NMMRQwEgYDVQQLDAtEZXZlbG9wbWVudDEYMBYGA1UEAwwPd3d3
LndvbGZzc2wuY29tMSAwHgYJKoZIhvcNAQkBFhFmYWN0c0B3b2xmc3NsLmNvbTBZ
MBMGByqGSM49AgEGCCqGSM49AwEHA0IABALT2W7WAY5FyLmQMeXATOOerSk4mLoQ
1ukJKoCpLhcquYq/M4NG45UL5HdAtTtDRTMPYVN8N0TBy/yAyuhD6qejZjBkMB0G
A1UdDgQWBBRWjprD8ELeGLlFVW75k8/qw/OlITAfBgNVHSMEGDAWgBTvaeD31R3m
mezcbdD34rlcZHGDNTASBgNVHRMBAf8ECDAGAQH/AgEBMA4GA1UdDwEB/wQEAwIB
hjANBgkqhkiG9w0BAQsFAAOCAQEAtF+PpRtp4CVhjA0ynlx/CEbgsZA2+PAKJH5l
bi4V6bkXiScsTJILkaaUZpD3bm6wRZAS5ZDUOrrMpVn/VnOef7YBT15oThEy57Xo
y5fyfiCbyZ8S1HPQ/47ZAOlJZNKsO1IfWiH5epnqeoMT7pproCyJnb7VcwHilXwd
h6xeIgnI0m+HsCRT8Qkifcg/YQQ60cBsnL1uuhZgRFubNFtUxA6BseejlrSFZx7j
ruQ+EI+J/AzP+/QEHecJ0YeklPiZZUOB7aj14aQOiX+H4tdrMt4Lk9EYevaEuKwp
POmLSjwXJTlo3xYpmI00zNstAzJmqNXi/osyyq1qP8AtmY0aiQ==
-----END CERTIFICATE-----
