Certificate:
    Data:
        Version: 3 (0x2)
        Serial Number: 4101 (0x1005)
        Signature Algorithm: ecdsa-with-SHA256
        Issuer: C=US, ST=Washington, L=Seattle, O=wolfSSL, OU=Development, CN=wolfSSL Intermediate CA ECC, emailAddress=facts@wolfssl.com
        Validity
            Not Before: Jun 11 17:01:57 2026 GMT
            Not After : Jun  6 17:01:57 2046 GMT
        Subject: C=US, ST=Washington, L=Seattle, O=wolfSSL, OU=Development, CN=wolfSSL Intermediate2 CA ECC, emailAddress=facts@wolfssl.com
        Subject Public Key Info:
            Public Key Algorithm: id-ecPublicKey
                Public-Key: (256 bit)
                pub:
                    04:c7:b4:a9:9f:32:fb:a2:8f:6a:f3:2e:c1:5d:ca:
                    08:ec:c6:9f:13:ad:f5:3e:9d:75:f7:e4:f2:16:99:
                    37:f7:89:73:cf:54:81:5f:16:0c:04:78:85:33:ef:
                    92:a2:f7:86:3f:c7:a1:ba:0a:74:17:c2:45:7a:77:
                    13:a9:13:fd:d3
                ASN1 OID: prime256v1
                NIST CURVE: P-256
        X509v3 extensions:
            X509v3 Subject Key Identifier: 
                9F:AE:7B:7A:70:80:04:55:2B:C6:B7:0C:5B:79:E4:12:41:65:31:29
            X509v3 Authority Key Identifier: 
                97:1D:60:C3:87:22:59:9B:60:1F:84:B4:99:1C:88:4D:BF:DA:1E:6E
            X509v3 Basic Constraints: critical
                CA:TRUE, pathlen:1
            X509v3 Key Usage: critical
                Digital Signature, Certificate Sign, CRL Sign
    Signature Algorithm: ecdsa-with-SHA256
    Signature Value:
        30:45:02:21:00:8c:5b:5b:65:11:f1:00:16:0a:9e:0e:9a:d0:
        09:ab:ef:3b:5a:da:4f:ca:8c:e5:b7:83:87:15:ad:ca:8f:2d:
        76:02:20:0e:73:cf:66:d9:41:4a:bc:ba:1d:13:78:b1:65:51:
        22:8a:79:c5:16:01:4f:1c:1d:41:4f:96:bf:0a:72:0b:2b
-----BEGIN CERTIFICATE-----
MIICoTCCAkegAwIBAgICEAUwCgYIKoZIzj0EAwIwgaQxCzAJBgNVBAYTAlVTMRMw
EQYDVQQIDApXYXNoaW5ndG9uMRAwDgYDVQQHDAdTZWF0dGxlMRAwDgYDVQQKDAd3
b2xmU1NMMRQwEgYDVQQLDAtEZXZlbG9wbWVudDEkMCIGA1UEAwwbd29sZlNTTCBJ
bnRlcm1lZGlhdGUgQ0EgRUNDMSAwHgYJKoZIhvcNAQkBFhFmYWN0c0B3b2xmc3Ns
LmNvbTAeFw0yNjA2MTExNzAxNTdaFw00NjA2MDYxNzAxNTdaMIGlMQswCQYDVQQG
EwJVUzETMBEGA1UECAwKV2FzaGluZ3RvbjEQMA4GA1UEBwwHU2VhdHRsZTEQMA4G
A1UECgwHd29sZlNTTDEUMBIGA1UECwwLRGV2ZWxvcG1lbnQxJTAjBgNVBAMMHHdv
bGZTU0wgSW50ZXJtZWRpYXRlMiBDQSBFQ0MxIDAeBgkqhkiG9w0BCQEWEWZhY3Rz
QHdvbGZzc2wuY29tMFkwEwYHKoZIzj0CAQYIKoZIzj0DAQcDQgAEx7SpnzL7oo9q
8y7BXcoI7MafE631Pp119+TyFpk394lzz1SBXxYMBHiFM++SoveGP8ehugp0F8JF
encTqRP906NmMGQwHQYDVR0OBBYEFJ+ue3pwgARVK8a3DFt55BJBZTEpMB8GA1Ud
IwQYMBaAFJcdYMOHIlmbYB+EtJkciE2/2h5uMBIGA1UdEwEB/wQIMAYBAf8CAQEw
DgYDVR0PAQH/BAQDAgGGMAoGCCqGSM49BAMCA0gAMEUCIQCMW1tlEfEAFgqeDprQ
CavvO1raT8qM5beDhxWtyo8tdgIgDnPPZtlBSry6HRN4sWVRIop5xRYBTxwdQU+W
vwpyCys=
-----END CERTIFICATE-----
