Certificate:
    Data:
        Version: 3 (0x2)
        Serial Number: 4100 (0x1004)
        Signature Algorithm: ecdsa-with-SHA256
        Issuer: C=US, ST=Washington, L=Seattle, O=wolfSSL, OU=Development, CN=www.wolfssl.com, emailAddress=info@wolfssl.com
        Validity
            Not Before: Jun 25 15:56:23 2025 GMT
            Not After : Jun 20 15:56:23 2045 GMT
        Subject: C=US, ST=Washington, L=Seattle, O=wolfSSL, OU=Development, CN=wolfSSL Intermediate CA ECC, emailAddress=info@wolfssl.com
        Subject Public Key Info:
            Public Key Algorithm: id-ecPublicKey
                Public-Key: (256 bit)
                pub:
                    04:95:df:1c:b2:9e:20:a9:1d:a2:5b:ab:5c:9b:a8:
                    66:06:29:e6:b2:d8:e3:14:a6:c3:c1:b4:ad:4d:44:
                    18:20:1e:5d:67:fd:15:1d:6d:25:e1:17:b1:71:ca:
                    85:03:f0:d2:af:41:66:46:36:6d:ea:41:cb:4f:c8:
                    4a:d0:a0:61:8c
                ASN1 OID: prime256v1
                NIST CURVE: P-256
        X509v3 extensions:
            X509v3 Subject Key Identifier: 
                97:1D:60:C3:87:22:59:9B:60:1F:84:B4:99:1C:88:4D:BF:DA:1E:6E
            X509v3 Authority Key Identifier: 
                56:8E:9A:C3:F0:42:DE:18:B9:45:55:6E:F9:93:CF:EA:C3:F3:A5:21
            X509v3 Basic Constraints: critical
                CA:TRUE, pathlen:1
            X509v3 Key Usage: critical
                Digital Signature, Certificate Sign, CRL Sign
    Signature Algorithm: ecdsa-with-SHA256
    Signature Value:
        30:44:02:20:38:c9:9e:a8:6b:d4:16:9c:4b:68:66:45:10:c7:
        73:10:df:d8:79:c9:1f:67:16:4e:55:b0:88:51:80:b9:27:33:
        02:20:0b:3a:73:49:f4:7e:2b:53:02:07:46:99:57:da:5a:5b:
        fe:30:7a:1d:02:ae:65:f1:3d:fb:2d:35:22:ba:9a:39
-----BEGIN CERTIFICATE-----
MIICkTCCAjigAwIBAgICEAQwCgYIKoZIzj0EAwIwgZcxCzAJBgNVBAYTAlVTMRMw
EQYDVQQIDApXYXNoaW5ndG9uMRAwDgYDVQQHDAdTZWF0dGxlMRAwDgYDVQQKDAd3
b2xmU1NMMRQwEgYDVQQLDAtEZXZlbG9wbWVudDEYMBYGA1UEAwwPd3d3LndvbGZz
c2wuY29tMR8wHQYJKoZIhvcNAQkBFhBpbmZvQHdvbGZzc2wuY29tMB4XDTI1MDYy
NTE1NTYyM1oXDTQ1MDYyMDE1NTYyM1owgaMxCzAJBgNVBAYTAlVTMRMwEQYDVQQI
DApXYXNoaW5ndG9uMRAwDgYDVQQHDAdTZWF0dGxlMRAwDgYDVQQKDAd3b2xmU1NM
MRQwEgYDVQQLDAtEZXZlbG9wbWVudDEkMCIGA1UEAwwbd29sZlNTTCBJbnRlcm1l
ZGlhdGUgQ0EgRUNDMR8wHQYJKoZIhvcNAQkBFhBpbmZvQHdvbGZzc2wuY29tMFkw
EwYHKoZIzj0CAQYIKoZIzj0DAQcDQgAEld8csp4gqR2iW6tcm6hmBinmstjjFKbD
wbStTUQYIB5dZ/0VHW0l4RexccqFA/DSr0FmRjZt6kHLT8hK0KBhjKNmMGQwHQYD
VR0OBBYEFJcdYMOHIlmbYB+EtJkciE2/2h5uMB8GA1UdIwQYMBaAFFaOmsPwQt4Y
uUVVbvmTz+rD86UhMBIGA1UdEwEB/wQIMAYBAf8CAQEwDgYDVR0PAQH/BAQDAgGG
MAoGCCqGSM49BAMCA0cAMEQCIDjJnqhr1BacS2hmRRDHcxDf2HnJH2cWTlWwiFGA
uSczAiALOnNJ9H4rUwIHRplX2lpb/jB6HQKuZfE9+y01IrqaOQ==
-----END CERTIFICATE-----
