Certificate:
    Data:
        Version: 3 (0x2)
        Serial Number: 4097 (0x1001)
        Signature Algorithm: sha256WithRSAEncryption
        Issuer: C = US, ST = Washington, L = Seattle, O = wolfSSL, OU = Development, CN = wolfSSL Intermediate CA, emailAddress = info@wolfssl.com
        Validity
            Not Before: Sep 27 12:10:09 2023 GMT
            Not After : Sep 22 12:10:09 2043 GMT
        Subject: C = US, ST = Washington, L = Seattle, O = wolfSSL, OU = Development, CN = wolfSSL Intermediate2 CA, emailAddress = info@wolfssl.com
        Subject Public Key Info:
            Public Key Algorithm: rsaEncryption
                Public-Key: (2048 bit)
                Modulus:
                    00:cf:c9:3d:59:01:9f:1d:77:91:56:cb:ab:06:82:
                    c1:81:31:9a:e2:f9:c6:f9:a3:40:2d:86:42:d7:5f:
                    41:a5:05:42:0f:5f:2b:6b:bd:29:92:e5:52:c6:5c:
                    f9:7e:9d:fb:8e:d6:69:8c:03:91:87:1c:1f:bf:24:
                    59:44:cc:ef:af:92:2a:06:e1:a1:01:5b:04:57:8a:
                    1a:b6:04:e2:c2:3c:10:3c:42:31:01:aa:c3:f2:32:
                    1e:01:95:d0:91:a7:66:c1:22:68:36:53:2a:52:03:
                    eb:b5:9b:82:01:24:f9:d1:ae:fb:53:4c:5a:06:e5:
                    6e:5a:d6:ac:5b:28:1a:53:e8:d7:a5:ce:6e:9c:34:
                    c3:08:0b:cb:2f:8e:df:ef:8c:35:f5:b0:bc:5d:0f:
                    ae:0a:4a:cf:54:01:d2:3c:b4:78:ee:48:10:56:80:
                    4f:83:87:4e:67:1f:4f:17:2e:3e:2d:f5:6d:c9:07:
                    a2:3e:32:92:0f:1e:a4:0b:55:a6:1f:84:ef:9d:75:
                    ef:66:7c:75:f7:e7:40:3a:9c:c1:33:42:3d:2f:7f:
                    99:5d:7b:04:d5:a9:6c:41:e8:89:16:58:fd:3a:a0:
                    04:bd:77:d6:63:5e:6a:13:59:37:5f:f1:59:01:45:
                    48:9c:8b:f7:16:f4:50:f7:5a:b4:5a:33:f6:f5:41:
                    c1:3d
                Exponent: 65537 (0x10001)
        X509v3 extensions:
            X509v3 Subject Key Identifier: 
                0D:C9:60:20:43:58:81:E0:9A:21:EF:66:16:DC:6E:21:25:DF:2B:45
            X509v3 Authority Key Identifier: 
                EF:69:E0:F7:D5:1D:E6:99:EC:DC:6D:D0:F7:E2:B9:5C:64:71:83:35
            X509v3 Basic Constraints: critical
                CA:TRUE, pathlen:1
            X509v3 Key Usage: critical
                Digital Signature, Certificate Sign, CRL Sign
    Signature Algorithm: sha256WithRSAEncryption
    Signature Value:
        86:c3:f8:62:d2:10:a0:b4:da:78:e9:85:c5:99:04:24:9e:77:
        1a:58:a4:9f:26:c7:58:5b:b8:76:80:57:ce:20:a4:e5:de:21:
        21:3d:70:01:4d:0f:6d:5a:f6:3d:48:68:d2:38:c5:ea:d4:9f:
        a4:00:b2:e4:de:70:6b:58:b9:a2:a9:9b:dd:a6:a6:8e:6c:c4:
        f9:5f:d7:17:45:85:be:e8:2f:fb:d2:82:d2:ab:2c:e2:ff:35:
        20:b4:6c:06:7e:08:51:7a:af:19:73:58:f3:a8:48:65:0a:4f:
        67:44:7e:c0:fd:4b:94:94:b1:4c:56:85:7a:31:af:09:03:fa:
        cc:5d:85:55:0b:ac:1b:6a:c9:aa:c4:bb:e4:e0:ad:42:38:f1:
        6f:74:d7:db:0c:ca:01:e0:f3:4a:c7:eb:f2:6e:30:c6:8e:a3:
        cf:5a:45:0f:7f:98:92:31:20:fc:26:21:34:15:06:4f:29:a3:
        5c:15:11:5b:04:94:d5:2c:9b:1e:5b:61:65:dc:6e:6c:00:05:
        01:ce:2b:48:54:f9:91:2b:4c:8c:bb:db:94:b5:08:53:11:97:
        15:01:bc:65:28:b6:a2:83:5f:f0:d8:79:84:17:27:75:2a:54:
        c8:07:31:d7:50:05:51:07:4f:57:c8:bf:49:75:35:a1:39:af:
        66:ec:26:e1
-----BEGIN CERTIFICATE-----
MIIEIzCCAwugAwIBAgICEAEwDQYJKoZIhvcNAQELBQAwgZ8xCzAJBgNVBAYTAlVT
MRMwEQYDVQQIDApXYXNoaW5ndG9uMRAwDgYDVQQHDAdTZWF0dGxlMRAwDgYDVQQK
DAd3b2xmU1NMMRQwEgYDVQQLDAtEZXZlbG9wbWVudDEgMB4GA1UEAwwXd29sZlNT
TCBJbnRlcm1lZGlhdGUgQ0ExHzAdBgkqhkiG9w0BCQEWEGluZm9Ad29sZnNzbC5j
b20wHhcNMjMwOTI3MTIxMDA5WhcNNDMwOTIyMTIxMDA5WjCBoDELMAkGA1UEBhMC
VVMxEzARBgNVBAgMCldhc2hpbmd0b24xEDAOBgNVBAcMB1NlYXR0bGUxEDAOBgNV
BAoMB3dvbGZTU0wxFDASBgNVBAsMC0RldmVsb3BtZW50MSEwHwYDVQQDDBh3b2xm
U1NMIEludGVybWVkaWF0ZTIgQ0ExHzAdBgkqhkiG9w0BCQEWEGluZm9Ad29sZnNz
bC5jb20wggEiMA0GCSqGSIb3DQEBAQUAA4IBDwAwggEKAoIBAQDPyT1ZAZ8dd5FW
y6sGgsGBMZri+cb5o0AthkLXX0GlBUIPXytrvSmS5VLGXPl+nfuO1mmMA5GHHB+/
JFlEzO+vkioG4aEBWwRXihq2BOLCPBA8QjEBqsPyMh4BldCRp2bBImg2UypSA+u1
m4IBJPnRrvtTTFoG5W5a1qxbKBpT6Nelzm6cNMMIC8svjt/vjDX1sLxdD64KSs9U
AdI8tHjuSBBWgE+Dh05nH08XLj4t9W3JB6I+MpIPHqQLVaYfhO+dde9mfHX350A6
nMEzQj0vf5ldewTVqWxB6IkWWP06oAS9d9ZjXmoTWTdf8VkBRUici/cW9FD3WrRa
M/b1QcE9AgMBAAGjZjBkMB0GA1UdDgQWBBQNyWAgQ1iB4Joh72YW3G4hJd8rRTAf
BgNVHSMEGDAWgBTvaeD31R3mmezcbdD34rlcZHGDNTASBgNVHRMBAf8ECDAGAQH/
AgEBMA4GA1UdDwEB/wQEAwIBhjANBgkqhkiG9w0BAQsFAAOCAQEAhsP4YtIQoLTa
eOmFxZkEJJ53GliknybHWFu4doBXziCk5d4hIT1wAU0PbVr2PUho0jjF6tSfpACy
5N5wa1i5oqmb3aamjmzE+V/XF0WFvugv+9KC0qss4v81ILRsBn4IUXqvGXNY86hI
ZQpPZ0R+wP1LlJSxTFaFejGvCQP6zF2FVQusG2rJqsS75OCtQjjxb3TX2wzKAeDz
Ssfr8m4wxo6jz1pFD3+YkjEg/CYhNBUGTymjXBURWwSU1SybHlthZdxubAAFAc4r
SFT5kStMjLvblLUIUxGXFQG8ZSi2ooNf8Nh5hBcndSpUyAcx11AFUQdPV8i/SXU1
oTmvZuwm4Q==
-----END CERTIFICATE-----
