Certificate:
    Data:
        Version: 3 (0x2)
        Serial Number: 4097 (0x1001)
        Signature Algorithm: sha256WithRSAEncryption
        Issuer: C=US, ST=Washington, L=Seattle, O=wolfSSL, OU=Development, CN=wolfSSL Intermediate CA, emailAddress=facts@wolfssl.com
        Validity
            Not Before: Jun 11 17:01:56 2026 GMT
            Not After : Jun  6 17:01:56 2046 GMT
        Subject: C=US, ST=Washington, L=Seattle, O=wolfSSL, OU=Development, CN=wolfSSL Intermediate2 CA, emailAddress=facts@wolfssl.com
        Subject Public Key Info:
            Public Key Algorithm: rsaEncryption
                Public-Key: (2048 bit)
                Modulus:
                    00:cf:c9:3d:59:01:9f:1d:77:91:56:cb:ab:06:82:
                    c1:81:31:9a:e2:f9:c6:f9:a3:40:2d:86:42:d7:5f:
                    41:a5:05:42:0f:5f:2b:6b:bd:29:92:e5:52:c6:5c:
                    f9:7e:9d:fb:8e:d6:69:8c:03:91:87:1c:1f:bf:24:
                    59:44:cc:ef:af:92:2a:06:e1:a1:01:5b:04:57:8a:
                    1a:b6:04:e2:c2:3c:10:3c:42:31:01:aa:c3:f2:32:
                    1e:01:95:d0:91:a7:66:c1:22:68:36:53:2a:52:03:
                    eb:b5:9b:82:01:24:f9:d1:ae:fb:53:4c:5a:06:e5:
                    6e:5a:d6:ac:5b:28:1a:53:e8:d7:a5:ce:6e:9c:34:
                    c3:08:0b:cb:2f:8e:df:ef:8c:35:f5:b0:bc:5d:0f:
                    ae:0a:4a:cf:54:01:d2:3c:b4:78:ee:48:10:56:80:
                    4f:83:87:4e:67:1f:4f:17:2e:3e:2d:f5:6d:c9:07:
                    a2:3e:32:92:0f:1e:a4:0b:55:a6:1f:84:ef:9d:75:
                    ef:66:7c:75:f7:e7:40:3a:9c:c1:33:42:3d:2f:7f:
                    99:5d:7b:04:d5:a9:6c:41:e8:89:16:58:fd:3a:a0:
                    04:bd:77:d6:63:5e:6a:13:59:37:5f:f1:59:01:45:
                    48:9c:8b:f7:16:f4:50:f7:5a:b4:5a:33:f6:f5:41:
                    c1:3d
                Exponent: 65537 (0x10001)
        X509v3 extensions:
            X509v3 Subject Key Identifier: 
                0D:C9:60:20:43:58:81:E0:9A:21:EF:66:16:DC:6E:21:25:DF:2B:45
            X509v3 Authority Key Identifier: 
                EF:69:E0:F7:D5:1D:E6:99:EC:DC:6D:D0:F7:E2:B9:5C:64:71:83:35
            X509v3 Basic Constraints: critical
                CA:TRUE, pathlen:1
            X509v3 Key Usage: critical
                Digital Signature, Certificate Sign, CRL Sign
    Signature Algorithm: sha256WithRSAEncryption
    Signature Value:
        44:ce:8b:65:4a:cf:a9:4c:eb:e5:61:29:d6:67:63:be:23:be:
        3d:91:0f:4c:ea:45:4e:c3:91:6b:8d:45:7c:b2:7e:de:dc:67:
        eb:1d:77:1e:50:1b:f8:57:a5:4b:3b:e4:21:23:b8:67:e9:2b:
        72:ae:aa:06:a2:51:f7:b3:da:bc:91:1b:ac:aa:91:d0:59:16:
        83:51:63:ad:f9:51:23:1a:90:21:91:eb:42:12:3b:6f:c2:61:
        32:16:60:fe:d9:56:7c:00:27:f2:6b:cd:2e:bd:65:d9:15:34:
        e1:85:64:22:88:89:e8:d8:2a:7f:ee:46:c4:d9:89:a3:be:27:
        0b:37:b2:1e:36:5a:a0:6f:50:dd:fb:da:56:fb:09:95:13:53:
        71:7b:3b:51:ad:b5:79:61:55:de:dd:3c:9a:85:63:11:06:49:
        20:0a:b6:6c:13:58:c9:19:6f:1b:88:aa:66:ff:68:1c:88:49:
        24:60:4c:51:00:3f:2f:20:92:7d:3b:1a:2e:8b:a0:46:bd:d0:
        a4:21:9e:6d:1d:05:b3:c9:74:bf:4c:6c:5f:10:87:c9:7c:ff:
        14:ff:cb:61:02:91:96:95:36:81:aa:8c:22:a5:56:d9:3d:52:
        fc:56:6e:42:ac:5c:5e:91:b8:cd:47:a1:88:41:8e:84:6c:df:
        e2:1e:1c:6f
-----BEGIN CERTIFICATE-----
MIIEJTCCAw2gAwIBAgICEAEwDQYJKoZIhvcNAQELBQAwgaAxCzAJBgNVBAYTAlVT
MRMwEQYDVQQIDApXYXNoaW5ndG9uMRAwDgYDVQQHDAdTZWF0dGxlMRAwDgYDVQQK
DAd3b2xmU1NMMRQwEgYDVQQLDAtEZXZlbG9wbWVudDEgMB4GA1UEAwwXd29sZlNT
TCBJbnRlcm1lZGlhdGUgQ0ExIDAeBgkqhkiG9w0BCQEWEWZhY3RzQHdvbGZzc2wu
Y29tMB4XDTI2MDYxMTE3MDE1NloXDTQ2MDYwNjE3MDE1NlowgaExCzAJBgNVBAYT
AlVTMRMwEQYDVQQIDApXYXNoaW5ndG9uMRAwDgYDVQQHDAdTZWF0dGxlMRAwDgYD
VQQKDAd3b2xmU1NMMRQwEgYDVQQLDAtEZXZlbG9wbWVudDEhMB8GA1UEAwwYd29s
ZlNTTCBJbnRlcm1lZGlhdGUyIENBMSAwHgYJKoZIhvcNAQkBFhFmYWN0c0B3b2xm
c3NsLmNvbTCCASIwDQYJKoZIhvcNAQEBBQADggEPADCCAQoCggEBAM/JPVkBnx13
kVbLqwaCwYExmuL5xvmjQC2GQtdfQaUFQg9fK2u9KZLlUsZc+X6d+47WaYwDkYcc
H78kWUTM76+SKgbhoQFbBFeKGrYE4sI8EDxCMQGqw/IyHgGV0JGnZsEiaDZTKlID
67WbggEk+dGu+1NMWgblblrWrFsoGlPo16XObpw0wwgLyy+O3++MNfWwvF0PrgpK
z1QB0jy0eO5IEFaAT4OHTmcfTxcuPi31bckHoj4ykg8epAtVph+E751172Z8dffn
QDqcwTNCPS9/mV17BNWpbEHoiRZY/TqgBL131mNeahNZN1/xWQFFSJyL9xb0UPda
tFoz9vVBwT0CAwEAAaNmMGQwHQYDVR0OBBYEFA3JYCBDWIHgmiHvZhbcbiEl3ytF
MB8GA1UdIwQYMBaAFO9p4PfVHeaZ7Nxt0PfiuVxkcYM1MBIGA1UdEwEB/wQIMAYB
Af8CAQEwDgYDVR0PAQH/BAQDAgGGMA0GCSqGSIb3DQEBCwUAA4IBAQBEzotlSs+p
TOvlYSnWZ2O+I749kQ9M6kVOw5FrjUV8sn7e3GfrHXceUBv4V6VLO+QhI7hn6Sty
rqoGolH3s9q8kRusqpHQWRaDUWOt+VEjGpAhketCEjtvwmEyFmD+2VZ8ACfya80u
vWXZFTThhWQiiIno2Cp/7kbE2YmjvicLN7IeNlqgb1Dd+9pW+wmVE1NxeztRrbV5
YVXe3TyahWMRBkkgCrZsE1jJGW8biKpm/2gciEkkYExRAD8vIJJ9Oxoui6BGvdCk
IZ5tHQWzyXS/TGxfEIfJfP8U/8thApGWlTaBqowipVbZPVL8Vm5CrFxekbjNR6GI
QY6EbN/iHhxv
-----END CERTIFICATE-----
