Certificate:
    Data:
        Version: 3 (0x2)
        Serial Number: 4101 (0x1005)
        Signature Algorithm: ecdsa-with-SHA256
        Issuer: C=US, ST=Washington, L=Seattle, O=wolfSSL, OU=Development, CN=wolfSSL Intermediate CA ECC, emailAddress=info@wolfssl.com
        Validity
            Not Before: Jun 25 15:56:23 2025 GMT
            Not After : Jun 20 15:56:23 2045 GMT
        Subject: C=US, ST=Washington, L=Seattle, O=wolfSSL, OU=Development, CN=wolfSSL Intermediate2 CA ECC, emailAddress=info@wolfssl.com
        Subject Public Key Info:
            Public Key Algorithm: id-ecPublicKey
                Public-Key: (256 bit)
                pub:
                    04:c7:b4:a9:9f:32:fb:a2:8f:6a:f3:2e:c1:5d:ca:
                    08:ec:c6:9f:13:ad:f5:3e:9d:75:f7:e4:f2:16:99:
                    37:f7:89:73:cf:54:81:5f:16:0c:04:78:85:33:ef:
                    92:a2:f7:86:3f:c7:a1:ba:0a:74:17:c2:45:7a:77:
                    13:a9:13:fd:d3
                ASN1 OID: prime256v1
                NIST CURVE: P-256
        X509v3 extensions:
            X509v3 Subject Key Identifier: 
                9F:AE:7B:7A:70:80:04:55:2B:C6:B7:0C:5B:79:E4:12:41:65:31:29
            X509v3 Authority Key Identifier: 
                97:1D:60:C3:87:22:59:9B:60:1F:84:B4:99:1C:88:4D:BF:DA:1E:6E
            X509v3 Basic Constraints: critical
                CA:TRUE, pathlen:1
            X509v3 Key Usage: critical
                Digital Signature, Certificate Sign, CRL Sign
    Signature Algorithm: ecdsa-with-SHA256
    Signature Value:
        30:45:02:20:6b:5c:73:09:e8:37:68:71:4e:0e:de:31:cc:a7:
        c7:fb:61:1f:e5:60:e7:78:a3:e0:ff:99:dc:dc:c5:27:4a:c1:
        02:21:00:bd:0d:21:02:6e:12:e6:06:b6:e8:77:a7:54:1d:1b:
        31:6b:65:b2:55:b1:65:0f:06:c9:0e:67:d1:d3:38:a3:d0
-----BEGIN CERTIFICATE-----
MIICnzCCAkWgAwIBAgICEAUwCgYIKoZIzj0EAwIwgaMxCzAJBgNVBAYTAlVTMRMw
EQYDVQQIDApXYXNoaW5ndG9uMRAwDgYDVQQHDAdTZWF0dGxlMRAwDgYDVQQKDAd3
b2xmU1NMMRQwEgYDVQQLDAtEZXZlbG9wbWVudDEkMCIGA1UEAwwbd29sZlNTTCBJ
bnRlcm1lZGlhdGUgQ0EgRUNDMR8wHQYJKoZIhvcNAQkBFhBpbmZvQHdvbGZzc2wu
Y29tMB4XDTI1MDYyNTE1NTYyM1oXDTQ1MDYyMDE1NTYyM1owgaQxCzAJBgNVBAYT
AlVTMRMwEQYDVQQIDApXYXNoaW5ndG9uMRAwDgYDVQQHDAdTZWF0dGxlMRAwDgYD
VQQKDAd3b2xmU1NMMRQwEgYDVQQLDAtEZXZlbG9wbWVudDElMCMGA1UEAwwcd29s
ZlNTTCBJbnRlcm1lZGlhdGUyIENBIEVDQzEfMB0GCSqGSIb3DQEJARYQaW5mb0B3
b2xmc3NsLmNvbTBZMBMGByqGSM49AgEGCCqGSM49AwEHA0IABMe0qZ8y+6KPavMu
wV3KCOzGnxOt9T6ddffk8haZN/eJc89UgV8WDAR4hTPvkqL3hj/HoboKdBfCRXp3
E6kT/dOjZjBkMB0GA1UdDgQWBBSfrnt6cIAEVSvGtwxbeeQSQWUxKTAfBgNVHSME
GDAWgBSXHWDDhyJZm2AfhLSZHIhNv9oebjASBgNVHRMBAf8ECDAGAQH/AgEBMA4G
A1UdDwEB/wQEAwIBhjAKBggqhkjOPQQDAgNIADBFAiBrXHMJ6DdocU4O3jHMp8f7
YR/lYOd4o+D/mdzcxSdKwQIhAL0NIQJuEuYGtuh3p1QdGzFrZbJVsWUPBskOZ9HT
OKPQ
-----END CERTIFICATE-----
