Certificate:
    Data:
        Version: 3 (0x2)
        Serial Number: 4100 (0x1004)
        Signature Algorithm: ecdsa-with-SHA256
        Issuer: C=US, ST=Washington, L=Seattle, O=wolfSSL, OU=Development, CN=www.wolfssl.com, emailAddress=facts@wolfssl.com
        Validity
            Not Before: Jun 11 17:01:57 2026 GMT
            Not After : Jun  6 17:01:57 2046 GMT
        Subject: C=US, ST=Washington, L=Seattle, O=wolfSSL, OU=Development, CN=wolfSSL Intermediate CA ECC, emailAddress=facts@wolfssl.com
        Subject Public Key Info:
            Public Key Algorithm: id-ecPublicKey
                Public-Key: (256 bit)
                pub:
                    04:95:df:1c:b2:9e:20:a9:1d:a2:5b:ab:5c:9b:a8:
                    66:06:29:e6:b2:d8:e3:14:a6:c3:c1:b4:ad:4d:44:
                    18:20:1e:5d:67:fd:15:1d:6d:25:e1:17:b1:71:ca:
                    85:03:f0:d2:af:41:66:46:36:6d:ea:41:cb:4f:c8:
                    4a:d0:a0:61:8c
                ASN1 OID: prime256v1
                NIST CURVE: P-256
        X509v3 extensions:
            X509v3 Subject Key Identifier: 
                97:1D:60:C3:87:22:59:9B:60:1F:84:B4:99:1C:88:4D:BF:DA:1E:6E
            X509v3 Authority Key Identifier: 
                56:8E:9A:C3:F0:42:DE:18:B9:45:55:6E:F9:93:CF:EA:C3:F3:A5:21
            X509v3 Basic Constraints: critical
                CA:TRUE, pathlen:1
            X509v3 Key Usage: critical
                Digital Signature, Certificate Sign, CRL Sign
    Signature Algorithm: ecdsa-with-SHA256
    Signature Value:
        30:46:02:21:00:a4:e9:fb:41:70:66:9f:90:45:30:06:38:7b:
        8f:82:7a:1b:08:62:c1:56:f3:c1:c2:a9:82:18:47:57:63:08:
        f2:02:21:00:90:e1:c0:ab:29:cf:fb:0b:81:96:9c:71:34:ca:
        0b:38:f0:8c:23:bf:91:83:6d:7a:51:47:dc:0b:3a:1b:d8:f4
-----BEGIN CERTIFICATE-----
MIIClTCCAjqgAwIBAgICEAQwCgYIKoZIzj0EAwIwgZgxCzAJBgNVBAYTAlVTMRMw
EQYDVQQIDApXYXNoaW5ndG9uMRAwDgYDVQQHDAdTZWF0dGxlMRAwDgYDVQQKDAd3
b2xmU1NMMRQwEgYDVQQLDAtEZXZlbG9wbWVudDEYMBYGA1UEAwwPd3d3LndvbGZz
c2wuY29tMSAwHgYJKoZIhvcNAQkBFhFmYWN0c0B3b2xmc3NsLmNvbTAeFw0yNjA2
MTExNzAxNTdaFw00NjA2MDYxNzAxNTdaMIGkMQswCQYDVQQGEwJVUzETMBEGA1UE
CAwKV2FzaGluZ3RvbjEQMA4GA1UEBwwHU2VhdHRsZTEQMA4GA1UECgwHd29sZlNT
TDEUMBIGA1UECwwLRGV2ZWxvcG1lbnQxJDAiBgNVBAMMG3dvbGZTU0wgSW50ZXJt
ZWRpYXRlIENBIEVDQzEgMB4GCSqGSIb3DQEJARYRZmFjdHNAd29sZnNzbC5jb20w
WTATBgcqhkjOPQIBBggqhkjOPQMBBwNCAASV3xyyniCpHaJbq1ybqGYGKeay2OMU
psPBtK1NRBggHl1n/RUdbSXhF7FxyoUD8NKvQWZGNm3qQctPyErQoGGMo2YwZDAd
BgNVHQ4EFgQUlx1gw4ciWZtgH4S0mRyITb/aHm4wHwYDVR0jBBgwFoAUVo6aw/BC
3hi5RVVu+ZPP6sPzpSEwEgYDVR0TAQH/BAgwBgEB/wIBATAOBgNVHQ8BAf8EBAMC
AYYwCgYIKoZIzj0EAwIDSQAwRgIhAKTp+0FwZp+QRTAGOHuPgnobCGLBVvPBwqmC
GEdXYwjyAiEAkOHAqynP+wuBlpxxNMoLOPCMI7+Rg216UUfcCzob2PQ=
-----END CERTIFICATE-----
