Certificate:
    Data:
        Version: 3 (0x2)
        Serial Number: 4097 (0x1001)
        Signature Algorithm: sha256WithRSAEncryption
        Issuer: C=US, ST=Washington, L=Seattle, O=wolfSSL, OU=Development, CN=wolfSSL Intermediate CA, emailAddress=info@wolfssl.com
        Validity
            Not Before: Jun 25 15:56:22 2025 GMT
            Not After : Jun 20 15:56:22 2045 GMT
        Subject: C=US, ST=Washington, L=Seattle, O=wolfSSL, OU=Development, CN=wolfSSL Intermediate2 CA, emailAddress=info@wolfssl.com
        Subject Public Key Info:
            Public Key Algorithm: rsaEncryption
                Public-Key: (2048 bit)
                Modulus:
                    00:cf:c9:3d:59:01:9f:1d:77:91:56:cb:ab:06:82:
                    c1:81:31:9a:e2:f9:c6:f9:a3:40:2d:86:42:d7:5f:
                    41:a5:05:42:0f:5f:2b:6b:bd:29:92:e5:52:c6:5c:
                    f9:7e:9d:fb:8e:d6:69:8c:03:91:87:1c:1f:bf:24:
                    59:44:cc:ef:af:92:2a:06:e1:a1:01:5b:04:57:8a:
                    1a:b6:04:e2:c2:3c:10:3c:42:31:01:aa:c3:f2:32:
                    1e:01:95:d0:91:a7:66:c1:22:68:36:53:2a:52:03:
                    eb:b5:9b:82:01:24:f9:d1:ae:fb:53:4c:5a:06:e5:
                    6e:5a:d6:ac:5b:28:1a:53:e8:d7:a5:ce:6e:9c:34:
                    c3:08:0b:cb:2f:8e:df:ef:8c:35:f5:b0:bc:5d:0f:
                    ae:0a:4a:cf:54:01:d2:3c:b4:78:ee:48:10:56:80:
                    4f:83:87:4e:67:1f:4f:17:2e:3e:2d:f5:6d:c9:07:
                    a2:3e:32:92:0f:1e:a4:0b:55:a6:1f:84:ef:9d:75:
                    ef:66:7c:75:f7:e7:40:3a:9c:c1:33:42:3d:2f:7f:
                    99:5d:7b:04:d5:a9:6c:41:e8:89:16:58:fd:3a:a0:
                    04:bd:77:d6:63:5e:6a:13:59:37:5f:f1:59:01:45:
                    48:9c:8b:f7:16:f4:50:f7:5a:b4:5a:33:f6:f5:41:
                    c1:3d
                Exponent: 65537 (0x10001)
        X509v3 extensions:
            X509v3 Subject Key Identifier: 
                0D:C9:60:20:43:58:81:E0:9A:21:EF:66:16:DC:6E:21:25:DF:2B:45
            X509v3 Authority Key Identifier: 
                EF:69:E0:F7:D5:1D:E6:99:EC:DC:6D:D0:F7:E2:B9:5C:64:71:83:35
            X509v3 Basic Constraints: critical
                CA:TRUE, pathlen:1
            X509v3 Key Usage: critical
                Digital Signature, Certificate Sign, CRL Sign
    Signature Algorithm: sha256WithRSAEncryption
    Signature Value:
        37:e9:c9:a8:cd:98:59:7c:c0:91:6b:81:14:83:f1:b1:53:c4:
        8a:45:04:bc:c0:63:bb:a9:aa:53:25:31:b9:6e:e7:8a:cb:b9:
        3d:ff:6b:db:ff:db:8d:b4:11:bc:90:7d:47:12:c7:0a:b2:ef:
        b6:dd:83:5f:f5:2b:67:65:3b:b8:53:11:e6:88:f0:30:95:ae:
        4b:17:f9:41:f8:a2:0e:7b:d2:43:b4:dc:00:3d:6f:18:9f:3a:
        27:7a:b3:c8:5e:cf:f1:6f:54:ff:f6:5f:cf:12:8c:30:52:9e:
        4d:e0:c8:c8:7c:43:da:d0:75:99:2a:aa:83:65:18:9b:8c:17:
        af:1e:55:8f:84:ca:ac:d9:55:cb:a7:fa:06:6a:28:c5:58:55:
        00:41:f9:7c:19:1b:8a:f9:f3:5d:e9:e1:2b:d0:22:af:77:dd:
        95:59:8d:95:df:04:db:cb:83:0c:ec:8a:e4:f9:54:33:5b:bf:
        2a:38:90:ac:6c:d9:a4:3e:be:7f:33:62:c2:89:74:59:05:49:
        1d:a5:8c:e1:9f:0b:93:2f:d6:94:8e:36:66:e1:91:44:9a:50:
        f8:ca:ac:0f:c4:0f:af:ca:60:d5:2b:63:9d:3d:82:aa:1e:f5:
        5c:ef:e9:38:03:15:0a:45:1a:6b:ab:18:24:8a:6b:bc:37:0c:
        89:fd:6e:a9
-----BEGIN CERTIFICATE-----
MIIEIzCCAwugAwIBAgICEAEwDQYJKoZIhvcNAQELBQAwgZ8xCzAJBgNVBAYTAlVT
MRMwEQYDVQQIDApXYXNoaW5ndG9uMRAwDgYDVQQHDAdTZWF0dGxlMRAwDgYDVQQK
DAd3b2xmU1NMMRQwEgYDVQQLDAtEZXZlbG9wbWVudDEgMB4GA1UEAwwXd29sZlNT
TCBJbnRlcm1lZGlhdGUgQ0ExHzAdBgkqhkiG9w0BCQEWEGluZm9Ad29sZnNzbC5j
b20wHhcNMjUwNjI1MTU1NjIyWhcNNDUwNjIwMTU1NjIyWjCBoDELMAkGA1UEBhMC
VVMxEzARBgNVBAgMCldhc2hpbmd0b24xEDAOBgNVBAcMB1NlYXR0bGUxEDAOBgNV
BAoMB3dvbGZTU0wxFDASBgNVBAsMC0RldmVsb3BtZW50MSEwHwYDVQQDDBh3b2xm
U1NMIEludGVybWVkaWF0ZTIgQ0ExHzAdBgkqhkiG9w0BCQEWEGluZm9Ad29sZnNz
bC5jb20wggEiMA0GCSqGSIb3DQEBAQUAA4IBDwAwggEKAoIBAQDPyT1ZAZ8dd5FW
y6sGgsGBMZri+cb5o0AthkLXX0GlBUIPXytrvSmS5VLGXPl+nfuO1mmMA5GHHB+/
JFlEzO+vkioG4aEBWwRXihq2BOLCPBA8QjEBqsPyMh4BldCRp2bBImg2UypSA+u1
m4IBJPnRrvtTTFoG5W5a1qxbKBpT6Nelzm6cNMMIC8svjt/vjDX1sLxdD64KSs9U
AdI8tHjuSBBWgE+Dh05nH08XLj4t9W3JB6I+MpIPHqQLVaYfhO+dde9mfHX350A6
nMEzQj0vf5ldewTVqWxB6IkWWP06oAS9d9ZjXmoTWTdf8VkBRUici/cW9FD3WrRa
M/b1QcE9AgMBAAGjZjBkMB0GA1UdDgQWBBQNyWAgQ1iB4Joh72YW3G4hJd8rRTAf
BgNVHSMEGDAWgBTvaeD31R3mmezcbdD34rlcZHGDNTASBgNVHRMBAf8ECDAGAQH/
AgEBMA4GA1UdDwEB/wQEAwIBhjANBgkqhkiG9w0BAQsFAAOCAQEAN+nJqM2YWXzA
kWuBFIPxsVPEikUEvMBju6mqUyUxuW7nisu5Pf9r2//bjbQRvJB9RxLHCrLvtt2D
X/UrZ2U7uFMR5ojwMJWuSxf5QfiiDnvSQ7TcAD1vGJ86J3qzyF7P8W9U//ZfzxKM
MFKeTeDIyHxD2tB1mSqqg2UYm4wXrx5Vj4TKrNlVy6f6BmooxVhVAEH5fBkbivnz
XenhK9Air3fdlVmNld8E28uDDOyK5PlUM1u/KjiQrGzZpD6+fzNiwol0WQVJHaWM
4Z8Lky/WlI42ZuGRRJpQ+MqsD8QPr8pg1StjnT2Cqh71XO/pOAMVCkUaa6sYJIpr
vDcMif1uqQ==
-----END CERTIFICATE-----
