Certificate:
    Data:
        Version: 3 (0x2)
        Serial Number: 4096 (0x1000)
        Signature Algorithm: sha256WithRSAEncryption
        Issuer: C=US, ST=Montana, L=Bozeman, O=Sawtooth, OU=Consulting, CN=www.wolfssl.com, emailAddress=facts@wolfssl.com
        Validity
            Not Before: Jun 11 17:01:56 2026 GMT
            Not After : Jun  6 17:01:56 2046 GMT
        Subject: C=US, ST=Washington, L=Seattle, O=wolfSSL, OU=Development, CN=wolfSSL Intermediate CA, emailAddress=facts@wolfssl.com
        Subject Public Key Info:
            Public Key Algorithm: rsaEncryption
                Public-Key: (2048 bit)
                Modulus:
                    00:c3:a2:73:5d:21:62:20:ce:3a:71:38:a7:94:bb:
                    db:87:04:1c:5a:1b:9e:4b:0d:3e:ca:f8:a5:f7:0d:
                    6a:dc:23:90:22:6a:2b:58:63:4a:28:6a:48:a8:e7:
                    73:1f:a2:55:d8:4d:02:3b:e2:cb:6b:e2:83:c9:51:
                    8f:77:fd:dc:2d:5d:23:b7:23:9a:7e:b6:29:68:e8:
                    2a:4e:a9:fe:32:70:31:9e:f0:ef:ee:f8:8d:e3:fc:
                    f3:d7:28:dd:7a:1d:9e:ad:23:2b:f1:a6:7f:34:52:
                    29:66:d2:e5:64:55:64:d6:dd:4b:41:3b:55:83:6e:
                    c0:11:0e:6e:20:c2:16:73:eb:30:ff:09:46:bb:e7:
                    cc:c6:03:44:41:11:c6:c1:6c:36:2f:4a:f9:91:55:
                    ca:58:5e:37:b8:28:10:30:89:40:96:77:cf:70:66:
                    a4:55:fb:69:0b:e7:d9:b2:33:65:db:72:3a:77:b7:
                    2b:49:fc:b6:cd:58:10:8d:ab:aa:cb:40:45:77:02:
                    39:18:b3:8f:33:01:48:77:50:be:8e:73:a7:de:36:
                    a0:49:8e:2c:16:af:b9:fb:42:2d:35:6a:db:34:37:
                    d5:14:59:7d:65:72:e5:8b:65:55:4b:20:5e:47:f9:
                    f8:3a:d3:6c:d9:3a:f5:c7:01:46:31:c3:79:9a:18:
                    be:49
                Exponent: 65537 (0x10001)
        X509v3 extensions:
            X509v3 Subject Key Identifier: 
                EF:69:E0:F7:D5:1D:E6:99:EC:DC:6D:D0:F7:E2:B9:5C:64:71:83:35
            X509v3 Authority Key Identifier: 
                27:8E:67:11:74:C3:26:1D:3F:ED:33:63:B3:A4:D8:1D:30:E5:E8:D5
            X509v3 Basic Constraints: critical
                CA:TRUE, pathlen:1
            X509v3 Key Usage: critical
                Digital Signature, Certificate Sign, CRL Sign
    Signature Algorithm: sha256WithRSAEncryption
    Signature Value:
        35:ce:f0:f3:2e:32:73:9d:35:fb:1b:40:62:b9:2e:e9:f9:92:
        4c:f5:38:26:c5:fc:9a:1d:83:41:fe:73:ea:2a:68:7d:e4:5f:
        a4:ac:0f:fc:e1:ef:b7:60:9b:3e:e4:db:d9:71:e5:23:92:02:
        ba:8a:4b:b2:f0:09:5e:fd:90:15:d5:61:d0:a2:6b:70:2a:ff:
        18:84:de:ed:63:fd:49:87:cd:c8:9f:63:df:51:4a:51:bf:cd:
        9b:38:62:5f:1d:90:e9:7e:2b:c4:1c:16:39:f8:6e:ae:fb:d8:
        92:ab:ac:2d:90:df:3c:da:a7:e2:88:7a:a8:2d:d7:81:db:1d:
        d0:57:43:ac:06:57:65:d8:2e:63:0a:90:a6:22:40:7f:e7:64:
        57:be:9d:11:23:2e:c9:75:cd:86:54:1b:39:0a:fe:ae:24:ad:
        b4:c7:f3:3b:67:f9:2c:ca:db:78:e2:e0:86:42:b3:77:f0:34:
        38:cf:da:45:e2:6f:bf:27:59:83:27:af:5c:3e:b4:4e:5f:ac:
        97:a2:ed:86:99:0d:e0:0e:26:34:95:f4:d2:8a:2e:d4:ea:ab:
        f1:90:70:4f:2f:fd:59:2f:35:bd:e5:59:9a:ee:fc:72:ce:2a:
        f8:3d:58:5b:52:42:15:bc:96:f6:ae:2d:81:61:df:e2:6a:63:
        82:6e:c8:62
-----BEGIN CERTIFICATE-----
MIIEGTCCAwGgAwIBAgICEAAwDQYJKoZIhvcNAQELBQAwgZUxCzAJBgNVBAYTAlVT
MRAwDgYDVQQIDAdNb250YW5hMRAwDgYDVQQHDAdCb3plbWFuMREwDwYDVQQKDAhT
YXd0b290aDETMBEGA1UECwwKQ29uc3VsdGluZzEYMBYGA1UEAwwPd3d3LndvbGZz
c2wuY29tMSAwHgYJKoZIhvcNAQkBFhFmYWN0c0B3b2xmc3NsLmNvbTAeFw0yNjA2
MTExNzAxNTZaFw00NjA2MDYxNzAxNTZaMIGgMQswCQYDVQQGEwJVUzETMBEGA1UE
CAwKV2FzaGluZ3RvbjEQMA4GA1UEBwwHU2VhdHRsZTEQMA4GA1UECgwHd29sZlNT
TDEUMBIGA1UECwwLRGV2ZWxvcG1lbnQxIDAeBgNVBAMMF3dvbGZTU0wgSW50ZXJt
ZWRpYXRlIENBMSAwHgYJKoZIhvcNAQkBFhFmYWN0c0B3b2xmc3NsLmNvbTCCASIw
DQYJKoZIhvcNAQEBBQADggEPADCCAQoCggEBAMOic10hYiDOOnE4p5S724cEHFob
nksNPsr4pfcNatwjkCJqK1hjSihqSKjncx+iVdhNAjviy2vig8lRj3f93C1dI7cj
mn62KWjoKk6p/jJwMZ7w7+74jeP889co3Xodnq0jK/GmfzRSKWbS5WRVZNbdS0E7
VYNuwBEObiDCFnPrMP8JRrvnzMYDREERxsFsNi9K+ZFVylheN7goEDCJQJZ3z3Bm
pFX7aQvn2bIzZdtyOne3K0n8ts1YEI2rqstARXcCORizjzMBSHdQvo5zp942oEmO
LBavuftCLTVq2zQ31RRZfWVy5YtlVUsgXkf5+DrTbNk69ccBRjHDeZoYvkkCAwEA
AaNmMGQwHQYDVR0OBBYEFO9p4PfVHeaZ7Nxt0PfiuVxkcYM1MB8GA1UdIwQYMBaA
FCeOZxF0wyYdP+0zY7Ok2B0w5ejVMBIGA1UdEwEB/wQIMAYBAf8CAQEwDgYDVR0P
AQH/BAQDAgGGMA0GCSqGSIb3DQEBCwUAA4IBAQA1zvDzLjJznTX7G0BiuS7p+ZJM
9TgmxfyaHYNB/nPqKmh95F+krA/84e+3YJs+5NvZceUjkgK6ikuy8Ale/ZAV1WHQ
omtwKv8YhN7tY/1Jh83In2PfUUpRv82bOGJfHZDpfivEHBY5+G6u+9iSq6wtkN88
2qfiiHqoLdeB2x3QV0OsBldl2C5jCpCmIkB/52RXvp0RIy7Jdc2GVBs5Cv6uJK20
x/M7Z/ksytt44uCGQrN38DQ4z9pF4m+/J1mDJ69cPrROX6yXou2GmQ3gDiY0lfTS
ii7U6qvxkHBPL/1ZLzW95Vma7vxyzir4PVhbUkIVvJb2ri2BYd/iamOCbshi
-----END CERTIFICATE-----
