Certificate:
    Data:
        Version: 3 (0x2)
        Serial Number: 4096 (0x1000)
        Signature Algorithm: sha256WithRSAEncryption
        Issuer: C=US, ST=Montana, L=Bozeman, O=Sawtooth, OU=Consulting, CN=www.wolfssl.com, emailAddress=info@wolfssl.com
        Validity
            Not Before: Jun 25 15:56:22 2025 GMT
            Not After : Jun 20 15:56:22 2045 GMT
        Subject: C=US, ST=Washington, L=Seattle, O=wolfSSL, OU=Development, CN=wolfSSL Intermediate CA, emailAddress=info@wolfssl.com
        Subject Public Key Info:
            Public Key Algorithm: rsaEncryption
                Public-Key: (2048 bit)
                Modulus:
                    00:c3:a2:73:5d:21:62:20:ce:3a:71:38:a7:94:bb:
                    db:87:04:1c:5a:1b:9e:4b:0d:3e:ca:f8:a5:f7:0d:
                    6a:dc:23:90:22:6a:2b:58:63:4a:28:6a:48:a8:e7:
                    73:1f:a2:55:d8:4d:02:3b:e2:cb:6b:e2:83:c9:51:
                    8f:77:fd:dc:2d:5d:23:b7:23:9a:7e:b6:29:68:e8:
                    2a:4e:a9:fe:32:70:31:9e:f0:ef:ee:f8:8d:e3:fc:
                    f3:d7:28:dd:7a:1d:9e:ad:23:2b:f1:a6:7f:34:52:
                    29:66:d2:e5:64:55:64:d6:dd:4b:41:3b:55:83:6e:
                    c0:11:0e:6e:20:c2:16:73:eb:30:ff:09:46:bb:e7:
                    cc:c6:03:44:41:11:c6:c1:6c:36:2f:4a:f9:91:55:
                    ca:58:5e:37:b8:28:10:30:89:40:96:77:cf:70:66:
                    a4:55:fb:69:0b:e7:d9:b2:33:65:db:72:3a:77:b7:
                    2b:49:fc:b6:cd:58:10:8d:ab:aa:cb:40:45:77:02:
                    39:18:b3:8f:33:01:48:77:50:be:8e:73:a7:de:36:
                    a0:49:8e:2c:16:af:b9:fb:42:2d:35:6a:db:34:37:
                    d5:14:59:7d:65:72:e5:8b:65:55:4b:20:5e:47:f9:
                    f8:3a:d3:6c:d9:3a:f5:c7:01:46:31:c3:79:9a:18:
                    be:49
                Exponent: 65537 (0x10001)
        X509v3 extensions:
            X509v3 Subject Key Identifier: 
                EF:69:E0:F7:D5:1D:E6:99:EC:DC:6D:D0:F7:E2:B9:5C:64:71:83:35
            X509v3 Authority Key Identifier: 
                27:8E:67:11:74:C3:26:1D:3F:ED:33:63:B3:A4:D8:1D:30:E5:E8:D5
            X509v3 Basic Constraints: critical
                CA:TRUE, pathlen:1
            X509v3 Key Usage: critical
                Digital Signature, Certificate Sign, CRL Sign
    Signature Algorithm: sha256WithRSAEncryption
    Signature Value:
        59:dd:c9:25:71:0b:cd:07:26:99:78:8c:8b:3a:f2:78:20:8b:
        01:14:29:69:53:92:4f:5f:8d:e0:ce:fa:af:11:44:18:25:3a:
        93:07:b2:b5:17:f4:4e:ff:f1:59:b8:45:ef:e0:2c:81:3d:fa:
        c5:3e:90:84:b7:fc:41:b0:6c:7d:b8:27:75:3b:60:82:ff:68:
        72:1f:5a:43:d1:e7:92:8b:66:cd:dd:fe:40:39:de:b5:83:d1:
        6c:55:4c:ec:b8:ce:64:4a:31:a0:a3:b8:5c:af:bd:ea:a6:0f:
        da:ab:e8:26:3b:dd:db:1d:f2:67:8c:04:93:b4:af:27:c1:82:
        5e:de:98:37:16:1c:66:4b:c5:7f:3a:00:44:d3:a8:2d:6b:0c:
        0c:02:b5:b5:5e:24:25:cf:eb:c9:54:dd:eb:9e:d3:07:69:76:
        bf:34:2e:eb:67:57:08:1e:1a:fd:5c:90:a2:0c:78:6c:07:a6:
        11:a5:52:ec:ed:e5:7d:4a:1f:fd:98:5a:e3:95:85:11:a5:85:
        31:d1:77:25:02:2f:5e:46:f7:d8:78:fb:2d:5a:f9:8e:16:ec:
        53:9c:db:1a:92:31:b1:4a:be:10:74:bd:eb:9e:c3:bf:73:e0:
        9c:86:3a:ed:1e:ea:3e:e8:99:93:da:3c:d7:ef:73:49:c3:75:
        fd:3d:1b:6d
-----BEGIN CERTIFICATE-----
MIIEFzCCAv+gAwIBAgICEAAwDQYJKoZIhvcNAQELBQAwgZQxCzAJBgNVBAYTAlVT
MRAwDgYDVQQIDAdNb250YW5hMRAwDgYDVQQHDAdCb3plbWFuMREwDwYDVQQKDAhT
YXd0b290aDETMBEGA1UECwwKQ29uc3VsdGluZzEYMBYGA1UEAwwPd3d3LndvbGZz
c2wuY29tMR8wHQYJKoZIhvcNAQkBFhBpbmZvQHdvbGZzc2wuY29tMB4XDTI1MDYy
NTE1NTYyMloXDTQ1MDYyMDE1NTYyMlowgZ8xCzAJBgNVBAYTAlVTMRMwEQYDVQQI
DApXYXNoaW5ndG9uMRAwDgYDVQQHDAdTZWF0dGxlMRAwDgYDVQQKDAd3b2xmU1NM
MRQwEgYDVQQLDAtEZXZlbG9wbWVudDEgMB4GA1UEAwwXd29sZlNTTCBJbnRlcm1l
ZGlhdGUgQ0ExHzAdBgkqhkiG9w0BCQEWEGluZm9Ad29sZnNzbC5jb20wggEiMA0G
CSqGSIb3DQEBAQUAA4IBDwAwggEKAoIBAQDDonNdIWIgzjpxOKeUu9uHBBxaG55L
DT7K+KX3DWrcI5AiaitYY0ooakio53MfolXYTQI74str4oPJUY93/dwtXSO3I5p+
tilo6CpOqf4ycDGe8O/u+I3j/PPXKN16HZ6tIyvxpn80Uilm0uVkVWTW3UtBO1WD
bsARDm4gwhZz6zD/CUa758zGA0RBEcbBbDYvSvmRVcpYXje4KBAwiUCWd89wZqRV
+2kL59myM2Xbcjp3tytJ/LbNWBCNq6rLQEV3AjkYs48zAUh3UL6Oc6feNqBJjiwW
r7n7Qi01ats0N9UUWX1lcuWLZVVLIF5H+fg602zZOvXHAUYxw3maGL5JAgMBAAGj
ZjBkMB0GA1UdDgQWBBTvaeD31R3mmezcbdD34rlcZHGDNTAfBgNVHSMEGDAWgBQn
jmcRdMMmHT/tM2OzpNgdMOXo1TASBgNVHRMBAf8ECDAGAQH/AgEBMA4GA1UdDwEB
/wQEAwIBhjANBgkqhkiG9w0BAQsFAAOCAQEAWd3JJXELzQcmmXiMizryeCCLARQp
aVOST1+N4M76rxFEGCU6kweytRf0Tv/xWbhF7+AsgT36xT6QhLf8QbBsfbgndTtg
gv9och9aQ9Hnkotmzd3+QDnetYPRbFVM7LjOZEoxoKO4XK+96qYP2qvoJjvd2x3y
Z4wEk7SvJ8GCXt6YNxYcZkvFfzoARNOoLWsMDAK1tV4kJc/ryVTd657TB2l2vzQu
62dXCB4a/VyQogx4bAemEaVS7O3lfUof/Zha45WFEaWFMdF3JQIvXkb32Hj7LVr5
jhbsU5zbGpIxsUq+EHS9657Dv3PgnIY67R7qPuiZk9o81+9zScN1/T0bbQ==
-----END CERTIFICATE-----
