Certificate:
    Data:
        Version: 3 (0x2)
        Serial Number: 4096 (0x1000)
        Signature Algorithm: sha256WithRSAEncryption
        Issuer: C = US, ST = Montana, L = Bozeman, O = Sawtooth, OU = Consulting, CN = www.wolfssl.com, emailAddress = info@wolfssl.com
        Validity
            Not Before: Sep 27 12:10:09 2023 GMT
            Not After : Sep 22 12:10:09 2043 GMT
        Subject: C = US, ST = Washington, L = Seattle, O = wolfSSL, OU = Development, CN = wolfSSL Intermediate CA, emailAddress = info@wolfssl.com
        Subject Public Key Info:
            Public Key Algorithm: rsaEncryption
                Public-Key: (2048 bit)
                Modulus:
                    00:c3:a2:73:5d:21:62:20:ce:3a:71:38:a7:94:bb:
                    db:87:04:1c:5a:1b:9e:4b:0d:3e:ca:f8:a5:f7:0d:
                    6a:dc:23:90:22:6a:2b:58:63:4a:28:6a:48:a8:e7:
                    73:1f:a2:55:d8:4d:02:3b:e2:cb:6b:e2:83:c9:51:
                    8f:77:fd:dc:2d:5d:23:b7:23:9a:7e:b6:29:68:e8:
                    2a:4e:a9:fe:32:70:31:9e:f0:ef:ee:f8:8d:e3:fc:
                    f3:d7:28:dd:7a:1d:9e:ad:23:2b:f1:a6:7f:34:52:
                    29:66:d2:e5:64:55:64:d6:dd:4b:41:3b:55:83:6e:
                    c0:11:0e:6e:20:c2:16:73:eb:30:ff:09:46:bb:e7:
                    cc:c6:03:44:41:11:c6:c1:6c:36:2f:4a:f9:91:55:
                    ca:58:5e:37:b8:28:10:30:89:40:96:77:cf:70:66:
                    a4:55:fb:69:0b:e7:d9:b2:33:65:db:72:3a:77:b7:
                    2b:49:fc:b6:cd:58:10:8d:ab:aa:cb:40:45:77:02:
                    39:18:b3:8f:33:01:48:77:50:be:8e:73:a7:de:36:
                    a0:49:8e:2c:16:af:b9:fb:42:2d:35:6a:db:34:37:
                    d5:14:59:7d:65:72:e5:8b:65:55:4b:20:5e:47:f9:
                    f8:3a:d3:6c:d9:3a:f5:c7:01:46:31:c3:79:9a:18:
                    be:49
                Exponent: 65537 (0x10001)
        X509v3 extensions:
            X509v3 Subject Key Identifier: 
                EF:69:E0:F7:D5:1D:E6:99:EC:DC:6D:D0:F7:E2:B9:5C:64:71:83:35
            X509v3 Authority Key Identifier: 
                27:8E:67:11:74:C3:26:1D:3F:ED:33:63:B3:A4:D8:1D:30:E5:E8:D5
            X509v3 Basic Constraints: critical
                CA:TRUE, pathlen:1
            X509v3 Key Usage: critical
                Digital Signature, Certificate Sign, CRL Sign
    Signature Algorithm: sha256WithRSAEncryption
    Signature Value:
        83:d7:44:cb:2d:2e:1e:83:47:9b:e0:24:24:89:90:12:96:a8:
        f4:c7:ac:ea:8c:dc:ff:93:40:bb:a2:3a:57:60:fd:94:b1:e2:
        c9:56:be:a5:12:b5:b9:2a:50:57:48:fd:5b:90:96:7b:52:d3:
        a4:3f:a2:3c:cb:2e:2d:a9:19:17:9a:30:b0:49:cd:78:25:98:
        1e:f5:3b:37:fa:ec:cb:4d:45:46:b8:45:7f:97:b6:f3:79:e6:
        2d:31:75:2c:80:f9:db:3b:af:94:31:6b:63:e4:5b:78:7f:6d:
        52:84:22:60:56:3b:37:0f:8b:7b:5f:5c:f6:f3:f0:1f:d9:00:
        8b:2a:ca:df:0e:03:94:90:d0:f4:ef:a5:47:8a:b6:7c:db:cf:
        05:47:70:73:5d:b2:41:44:a0:a0:0e:62:39:7f:cc:06:87:13:
        35:74:8c:9e:2c:46:2e:e5:0a:d3:92:7a:83:8d:22:8c:06:b3:
        2f:0d:5c:26:9a:e4:19:cb:61:45:5a:2a:cb:8e:91:e6:63:58:
        38:c3:14:db:07:8d:1a:9e:dd:f1:07:58:71:de:3d:0b:6c:c1:
        98:8b:66:33:26:d9:61:db:01:c7:30:b8:e8:0a:bf:7a:58:6b:
        98:6c:a7:3c:2c:f8:60:b7:05:7b:73:8b:d6:c5:c8:d5:5a:25:
        03:df:e7:fc
-----BEGIN CERTIFICATE-----
MIIEFzCCAv+gAwIBAgICEAAwDQYJKoZIhvcNAQELBQAwgZQxCzAJBgNVBAYTAlVT
MRAwDgYDVQQIDAdNb250YW5hMRAwDgYDVQQHDAdCb3plbWFuMREwDwYDVQQKDAhT
YXd0b290aDETMBEGA1UECwwKQ29uc3VsdGluZzEYMBYGA1UEAwwPd3d3LndvbGZz
c2wuY29tMR8wHQYJKoZIhvcNAQkBFhBpbmZvQHdvbGZzc2wuY29tMB4XDTIzMDky
NzEyMTAwOVoXDTQzMDkyMjEyMTAwOVowgZ8xCzAJBgNVBAYTAlVTMRMwEQYDVQQI
DApXYXNoaW5ndG9uMRAwDgYDVQQHDAdTZWF0dGxlMRAwDgYDVQQKDAd3b2xmU1NM
MRQwEgYDVQQLDAtEZXZlbG9wbWVudDEgMB4GA1UEAwwXd29sZlNTTCBJbnRlcm1l
ZGlhdGUgQ0ExHzAdBgkqhkiG9w0BCQEWEGluZm9Ad29sZnNzbC5jb20wggEiMA0G
CSqGSIb3DQEBAQUAA4IBDwAwggEKAoIBAQDDonNdIWIgzjpxOKeUu9uHBBxaG55L
DT7K+KX3DWrcI5AiaitYY0ooakio53MfolXYTQI74str4oPJUY93/dwtXSO3I5p+
tilo6CpOqf4ycDGe8O/u+I3j/PPXKN16HZ6tIyvxpn80Uilm0uVkVWTW3UtBO1WD
bsARDm4gwhZz6zD/CUa758zGA0RBEcbBbDYvSvmRVcpYXje4KBAwiUCWd89wZqRV
+2kL59myM2Xbcjp3tytJ/LbNWBCNq6rLQEV3AjkYs48zAUh3UL6Oc6feNqBJjiwW
r7n7Qi01ats0N9UUWX1lcuWLZVVLIF5H+fg602zZOvXHAUYxw3maGL5JAgMBAAGj
ZjBkMB0GA1UdDgQWBBTvaeD31R3mmezcbdD34rlcZHGDNTAfBgNVHSMEGDAWgBQn
jmcRdMMmHT/tM2OzpNgdMOXo1TASBgNVHRMBAf8ECDAGAQH/AgEBMA4GA1UdDwEB
/wQEAwIBhjANBgkqhkiG9w0BAQsFAAOCAQEAg9dEyy0uHoNHm+AkJImQEpao9Mes
6ozc/5NAu6I6V2D9lLHiyVa+pRK1uSpQV0j9W5CWe1LTpD+iPMsuLakZF5owsEnN
eCWYHvU7N/rsy01FRrhFf5e283nmLTF1LID52zuvlDFrY+RbeH9tUoQiYFY7Nw+L
e19c9vPwH9kAiyrK3w4DlJDQ9O+lR4q2fNvPBUdwc12yQUSgoA5iOX/MBocTNXSM
nixGLuUK05J6g40ijAazLw1cJprkGcthRVoqy46R5mNYOMMU2weNGp7d8QdYcd49
C2zBmItmMybZYdsBxzC46Aq/elhrmGynPCz4YLcFe3OL1sXI1VolA9/n/A==
-----END CERTIFICATE-----
