Certificate:
    Data:
        Version: 3 (0x2)
        Serial Number: 4099 (0x1003)
        Signature Algorithm: sha256WithRSAEncryption
        Issuer: C=US, ST=Washington, L=Seattle, O=wolfSSL, OU=Development, CN=wolfSSL Intermediate2 CA, emailAddress=facts@wolfssl.com
        Validity
            Not Before: Jun 11 17:01:57 2026 GMT
            Not After : Jun  8 17:01:57 2036 GMT
        Subject: C=US, ST=Washington, L=Seattle, O=wolfSSL, OU=Development, CN=wolfSSL Client Chain, emailAddress=facts@wolfssl.com
        Subject Public Key Info:
            Public Key Algorithm: rsaEncryption
                Public-Key: (2048 bit)
                Modulus:
                    00:c3:03:d1:2b:fe:39:a4:32:45:3b:53:c8:84:2b:
                    2a:7c:74:9a:bd:aa:2a:52:07:47:d6:a6:36:b2:07:
                    32:8e:d0:ba:69:7b:c6:c3:44:9e:d4:81:48:fd:2d:
                    68:a2:8b:67:bb:a1:75:c8:36:2c:4a:d2:1b:f7:8b:
                    ba:cf:0d:f9:ef:ec:f1:81:1e:7b:9b:03:47:9a:bf:
                    65:cc:7f:65:24:69:a6:e8:14:89:5b:e4:34:f7:c5:
                    b0:14:93:f5:67:7b:3a:7a:78:e1:01:56:56:91:a6:
                    13:42:8d:d2:3c:40:9c:4c:ef:d1:86:df:37:51:1b:
                    0c:a1:3b:f5:f1:a3:4a:35:e4:e1:ce:96:df:1b:7e:
                    bf:4e:97:d0:10:e8:a8:08:30:81:af:20:0b:43:14:
                    c5:74:67:b4:32:82:6f:8d:86:c2:88:40:99:36:83:
                    ba:1e:40:72:22:17:d7:52:65:24:73:b0:ce:ef:19:
                    cd:ae:ff:78:6c:7b:c0:12:03:d4:4e:72:0d:50:6d:
                    3b:a3:3b:a3:99:5e:9d:c8:d9:0c:85:b3:d9:8a:d9:
                    54:26:db:6d:fa:ac:bb:ff:25:4c:c4:d1:79:f4:71:
                    d3:86:40:18:13:b0:63:b5:72:4e:30:c4:97:84:86:
                    2d:56:2f:d7:15:f7:7f:c0:ae:f5:fc:5b:e5:fb:a1:
                    ba:d3
                Exponent: 65537 (0x10001)
        X509v3 extensions:
            X509v3 Basic Constraints: 
                CA:FALSE
            Netscape Cert Type: 
                SSL Client, S/MIME
            X509v3 Subject Key Identifier: 
                33:D8:45:66:D7:68:87:18:7E:54:0D:70:27:91:C7:26:D7:85:65:C0
            X509v3 Authority Key Identifier: 
                0D:C9:60:20:43:58:81:E0:9A:21:EF:66:16:DC:6E:21:25:DF:2B:45
            X509v3 Key Usage: critical
                Digital Signature, Non Repudiation, Key Encipherment
            X509v3 Extended Key Usage: 
                TLS Web Client Authentication, E-mail Protection
    Signature Algorithm: sha256WithRSAEncryption
    Signature Value:
        4f:ca:50:a0:26:a8:cb:c1:ad:d6:0b:35:9d:23:e6:a7:69:49:
        b2:5b:53:db:44:40:72:1d:ea:f8:41:2e:c7:df:7f:cc:bb:48:
        4c:e8:95:54:06:17:e8:01:4a:f8:52:69:e8:f2:83:2f:6b:25:
        cc:3f:03:ea:aa:77:29:4e:d5:d2:f7:af:7b:d8:a3:d3:5e:10:
        c1:2a:fd:88:49:37:f5:62:0f:af:90:f7:22:b5:95:ee:38:e0:
        89:73:eb:1e:b6:12:31:83:a8:c2:46:70:7a:42:8c:0a:e3:84:
        54:c8:19:2d:d9:4d:17:14:fb:7b:62:97:8d:1f:14:4f:47:31:
        e7:77:35:24:39:2e:44:23:2c:b3:ba:d9:d2:60:61:25:d7:b9:
        1f:d1:92:db:bf:a2:48:a3:a2:d7:ad:d0:7b:d2:bc:20:8a:28:
        a0:bb:22:21:79:5b:1a:c4:4b:a6:40:bd:79:d3:ed:c8:28:96:
        dd:6b:7e:73:c7:93:6e:e7:5e:b9:ac:11:f2:bc:3d:9e:ec:1a:
        dd:97:08:01:49:b8:da:7b:4a:33:85:37:cf:2d:5a:7c:2b:88:
        57:61:1b:e1:f3:c7:a9:02:d9:b1:eb:81:6b:bc:9f:6c:06:2f:
        f0:19:aa:81:2e:1a:c9:1b:ff:3c:3f:75:3b:51:84:9f:82:51:
        88:4c:f8:15
-----BEGIN CERTIFICATE-----
MIIETTCCAzWgAwIBAgICEAMwDQYJKoZIhvcNAQELBQAwgaExCzAJBgNVBAYTAlVT
MRMwEQYDVQQIDApXYXNoaW5ndG9uMRAwDgYDVQQHDAdTZWF0dGxlMRAwDgYDVQQK
DAd3b2xmU1NMMRQwEgYDVQQLDAtEZXZlbG9wbWVudDEhMB8GA1UEAwwYd29sZlNT
TCBJbnRlcm1lZGlhdGUyIENBMSAwHgYJKoZIhvcNAQkBFhFmYWN0c0B3b2xmc3Ns
LmNvbTAeFw0yNjA2MTExNzAxNTdaFw0zNjA2MDgxNzAxNTdaMIGdMQswCQYDVQQG
EwJVUzETMBEGA1UECAwKV2FzaGluZ3RvbjEQMA4GA1UEBwwHU2VhdHRsZTEQMA4G
A1UECgwHd29sZlNTTDEUMBIGA1UECwwLRGV2ZWxvcG1lbnQxHTAbBgNVBAMMFHdv
bGZTU0wgQ2xpZW50IENoYWluMSAwHgYJKoZIhvcNAQkBFhFmYWN0c0B3b2xmc3Ns
LmNvbTCCASIwDQYJKoZIhvcNAQEBBQADggEPADCCAQoCggEBAMMD0Sv+OaQyRTtT
yIQrKnx0mr2qKlIHR9amNrIHMo7Quml7xsNEntSBSP0taKKLZ7uhdcg2LErSG/eL
us8N+e/s8YEee5sDR5q/Zcx/ZSRppugUiVvkNPfFsBST9Wd7Onp44QFWVpGmE0KN
0jxAnEzv0YbfN1EbDKE79fGjSjXk4c6W3xt+v06X0BDoqAgwga8gC0MUxXRntDKC
b42GwohAmTaDuh5AciIX11JlJHOwzu8Zza7/eGx7wBID1E5yDVBtO6M7o5lencjZ
DIWz2YrZVCbbbfqsu/8lTMTRefRx04ZAGBOwY7VyTjDEl4SGLVYv1xX3f8Cu9fxb
5fuhutMCAwEAAaOBkDCBjTAJBgNVHRMEAjAAMBEGCWCGSAGG+EIBAQQEAwIFoDAd
BgNVHQ4EFgQUM9hFZtdohxh+VA1wJ5HHJteFZcAwHwYDVR0jBBgwFoAUDclgIENY
geCaIe9mFtxuISXfK0UwDgYDVR0PAQH/BAQDAgXgMB0GA1UdJQQWMBQGCCsGAQUF
BwMCBggrBgEFBQcDBDANBgkqhkiG9w0BAQsFAAOCAQEAT8pQoCaoy8Gt1gs1nSPm
p2lJsltT20RAch3q+EEux99/zLtITOiVVAYX6AFK+FJp6PKDL2slzD8D6qp3KU7V
0veve9ij014QwSr9iEk39WIPr5D3IrWV7jjgiXPrHrYSMYOowkZwekKMCuOEVMgZ
LdlNFxT7e2KXjR8UT0cx53c1JDkuRCMss7rZ0mBhJde5H9GS27+iSKOi163Qe9K8
IIoooLsiIXlbGsRLpkC9edPtyCiW3Wt+c8eTbudeuawR8rw9nuwa3ZcIAUm42ntK
M4U3zy1afCuIV2Eb4fPHqQLZseuBa7yfbAYv8BmqgS4ayRv/PD91O1GEn4JRiEz4
FQ==
-----END CERTIFICATE-----
