Certificate:
    Data:
        Version: 3 (0x2)
        Serial Number: 4103 (0x1007)
        Signature Algorithm: ecdsa-with-SHA256
        Issuer: C=US, ST=Washington, L=Seattle, O=wolfSSL, OU=Development, CN=wolfSSL Intermediate2 CA ECC, emailAddress=facts@wolfssl.com
        Validity
            Not Before: Jun 11 17:01:57 2026 GMT
            Not After : Jun  8 17:01:57 2036 GMT
        Subject: C=US, ST=Washington, L=Seattle, O=wolfSSL, OU=Development, CN=wolfSSL Client Chain ECC, emailAddress=facts@wolfssl.com
        Subject Public Key Info:
            Public Key Algorithm: id-ecPublicKey
                Public-Key: (256 bit)
                pub:
                    04:55:bf:f4:0f:44:50:9a:3d:ce:9b:b7:f0:c5:4d:
                    f5:70:7b:d4:ec:24:8e:19:80:ec:5a:4c:a2:24:03:
                    62:2c:9b:da:ef:a2:35:12:43:84:76:16:c6:56:95:
                    06:cc:01:a9:bd:f6:75:1a:42:f7:bd:a9:b2:36:22:
                    5f:c7:5d:7f:b4
                ASN1 OID: prime256v1
                NIST CURVE: P-256
        X509v3 extensions:
            X509v3 Basic Constraints: 
                CA:FALSE
            Netscape Cert Type: 
                SSL Client, S/MIME
            X509v3 Subject Key Identifier: 
                EB:D4:4B:59:6B:95:61:3F:51:57:B6:04:4D:89:41:88:44:5C:AB:F2
            X509v3 Authority Key Identifier: 
                9F:AE:7B:7A:70:80:04:55:2B:C6:B7:0C:5B:79:E4:12:41:65:31:29
            X509v3 Key Usage: critical
                Digital Signature, Non Repudiation, Key Encipherment
            X509v3 Extended Key Usage: 
                TLS Web Client Authentication, E-mail Protection
    Signature Algorithm: ecdsa-with-SHA256
    Signature Value:
        30:45:02:20:44:e7:94:20:99:76:e7:aa:38:fb:40:5b:cf:9f:
        c4:b5:0a:d0:52:55:b7:ec:57:c4:aa:ad:c1:47:4f:af:21:74:
        02:21:00:d4:2e:c3:e6:0d:06:ab:e9:6a:67:e8:c5:9b:42:0f:
        2a:01:ec:e5:c0:e1:0b:43:d5:57:a8:35:30:e7:b2:49:07
-----BEGIN CERTIFICATE-----
MIICyTCCAm+gAwIBAgICEAcwCgYIKoZIzj0EAwIwgaUxCzAJBgNVBAYTAlVTMRMw
EQYDVQQIDApXYXNoaW5ndG9uMRAwDgYDVQQHDAdTZWF0dGxlMRAwDgYDVQQKDAd3
b2xmU1NMMRQwEgYDVQQLDAtEZXZlbG9wbWVudDElMCMGA1UEAwwcd29sZlNTTCBJ
bnRlcm1lZGlhdGUyIENBIEVDQzEgMB4GCSqGSIb3DQEJARYRZmFjdHNAd29sZnNz
bC5jb20wHhcNMjYwNjExMTcwMTU3WhcNMzYwNjA4MTcwMTU3WjCBoTELMAkGA1UE
BhMCVVMxEzARBgNVBAgMCldhc2hpbmd0b24xEDAOBgNVBAcMB1NlYXR0bGUxEDAO
BgNVBAoMB3dvbGZTU0wxFDASBgNVBAsMC0RldmVsb3BtZW50MSEwHwYDVQQDDBh3
b2xmU1NMIENsaWVudCBDaGFpbiBFQ0MxIDAeBgkqhkiG9w0BCQEWEWZhY3RzQHdv
bGZzc2wuY29tMFkwEwYHKoZIzj0CAQYIKoZIzj0DAQcDQgAEVb/0D0RQmj3Om7fw
xU31cHvU7CSOGYDsWkyiJANiLJva76I1EkOEdhbGVpUGzAGpvfZ1GkL3vamyNiJf
x11/tKOBkDCBjTAJBgNVHRMEAjAAMBEGCWCGSAGG+EIBAQQEAwIFoDAdBgNVHQ4E
FgQU69RLWWuVYT9RV7YETYlBiERcq/IwHwYDVR0jBBgwFoAUn657enCABFUrxrcM
W3nkEkFlMSkwDgYDVR0PAQH/BAQDAgXgMB0GA1UdJQQWMBQGCCsGAQUFBwMCBggr
BgEFBQcDBDAKBggqhkjOPQQDAgNIADBFAiBE55QgmXbnqjj7QFvPn8S1CtBSVbfs
V8SqrcFHT68hdAIhANQuw+YNBqvpamfoxZtCDyoB7OXA4QtD1VeoNTDnskkH
-----END CERTIFICATE-----
