Certificate:
    Data:
        Version: 3 (0x2)
        Serial Number: 4103 (0x1007)
        Signature Algorithm: ecdsa-with-SHA256
        Issuer: C=US, ST=Washington, L=Seattle, O=wolfSSL, OU=Development, CN=wolfSSL Intermediate2 CA ECC, emailAddress=info@wolfssl.com
        Validity
            Not Before: Jun 25 15:56:23 2025 GMT
            Not After : Jun 23 15:56:23 2035 GMT
        Subject: C=US, ST=Washington, L=Seattle, O=wolfSSL, OU=Development, CN=wolfSSL Client Chain ECC, emailAddress=info@wolfssl.com
        Subject Public Key Info:
            Public Key Algorithm: id-ecPublicKey
                Public-Key: (256 bit)
                pub:
                    04:55:bf:f4:0f:44:50:9a:3d:ce:9b:b7:f0:c5:4d:
                    f5:70:7b:d4:ec:24:8e:19:80:ec:5a:4c:a2:24:03:
                    62:2c:9b:da:ef:a2:35:12:43:84:76:16:c6:56:95:
                    06:cc:01:a9:bd:f6:75:1a:42:f7:bd:a9:b2:36:22:
                    5f:c7:5d:7f:b4
                ASN1 OID: prime256v1
                NIST CURVE: P-256
        X509v3 extensions:
            X509v3 Basic Constraints: 
                CA:FALSE
            Netscape Cert Type: 
                SSL Client, S/MIME
            X509v3 Subject Key Identifier: 
                EB:D4:4B:59:6B:95:61:3F:51:57:B6:04:4D:89:41:88:44:5C:AB:F2
            X509v3 Authority Key Identifier: 
                9F:AE:7B:7A:70:80:04:55:2B:C6:B7:0C:5B:79:E4:12:41:65:31:29
            X509v3 Key Usage: critical
                Digital Signature, Non Repudiation, Key Encipherment
            X509v3 Extended Key Usage: 
                TLS Web Client Authentication, E-mail Protection
    Signature Algorithm: ecdsa-with-SHA256
    Signature Value:
        30:45:02:21:00:a0:c6:20:ba:80:17:93:c8:a8:26:3f:67:31:
        2d:29:d5:b5:46:35:d6:a9:21:f3:15:eb:56:05:2b:f0:d4:bd:
        16:02:20:41:92:0e:bf:b4:17:9d:2a:a7:37:ab:d8:d7:53:60:
        e6:71:11:9e:94:96:16:d9:8f:09:35:37:bc:03:23:1e:6f
-----BEGIN CERTIFICATE-----
MIICxzCCAm2gAwIBAgICEAcwCgYIKoZIzj0EAwIwgaQxCzAJBgNVBAYTAlVTMRMw
EQYDVQQIDApXYXNoaW5ndG9uMRAwDgYDVQQHDAdTZWF0dGxlMRAwDgYDVQQKDAd3
b2xmU1NMMRQwEgYDVQQLDAtEZXZlbG9wbWVudDElMCMGA1UEAwwcd29sZlNTTCBJ
bnRlcm1lZGlhdGUyIENBIEVDQzEfMB0GCSqGSIb3DQEJARYQaW5mb0B3b2xmc3Ns
LmNvbTAeFw0yNTA2MjUxNTU2MjNaFw0zNTA2MjMxNTU2MjNaMIGgMQswCQYDVQQG
EwJVUzETMBEGA1UECAwKV2FzaGluZ3RvbjEQMA4GA1UEBwwHU2VhdHRsZTEQMA4G
A1UECgwHd29sZlNTTDEUMBIGA1UECwwLRGV2ZWxvcG1lbnQxITAfBgNVBAMMGHdv
bGZTU0wgQ2xpZW50IENoYWluIEVDQzEfMB0GCSqGSIb3DQEJARYQaW5mb0B3b2xm
c3NsLmNvbTBZMBMGByqGSM49AgEGCCqGSM49AwEHA0IABFW/9A9EUJo9zpu38MVN
9XB71OwkjhmA7FpMoiQDYiyb2u+iNRJDhHYWxlaVBswBqb32dRpC972psjYiX8dd
f7SjgZAwgY0wCQYDVR0TBAIwADARBglghkgBhvhCAQEEBAMCBaAwHQYDVR0OBBYE
FOvUS1lrlWE/UVe2BE2JQYhEXKvyMB8GA1UdIwQYMBaAFJ+ue3pwgARVK8a3DFt5
5BJBZTEpMA4GA1UdDwEB/wQEAwIF4DAdBgNVHSUEFjAUBggrBgEFBQcDAgYIKwYB
BQUHAwQwCgYIKoZIzj0EAwIDSAAwRQIhAKDGILqAF5PIqCY/ZzEtKdW1RjXWqSHz
FetWBSvw1L0WAiBBkg6/tBedKqc3q9jXU2DmcRGelJYW2Y8JNTe8AyMebw==
-----END CERTIFICATE-----
