Certificate:
    Data:
        Version: 3 (0x2)
        Serial Number: 4099 (0x1003)
        Signature Algorithm: sha256WithRSAEncryption
        Issuer: C = US, ST = Washington, L = Seattle, O = wolfSSL, OU = Development, CN = wolfSSL Intermediate2 CA, emailAddress = info@wolfssl.com
        Validity
            Not Before: Sep 27 12:10:09 2023 GMT
            Not After : Sep 24 12:10:09 2033 GMT
        Subject: C = US, ST = Washington, L = Seattle, O = wolfSSL, OU = Development, CN = wolfSSL Client Chain, emailAddress = info@wolfssl.com
        Subject Public Key Info:
            Public Key Algorithm: rsaEncryption
                Public-Key: (2048 bit)
                Modulus:
                    00:c3:03:d1:2b:fe:39:a4:32:45:3b:53:c8:84:2b:
                    2a:7c:74:9a:bd:aa:2a:52:07:47:d6:a6:36:b2:07:
                    32:8e:d0:ba:69:7b:c6:c3:44:9e:d4:81:48:fd:2d:
                    68:a2:8b:67:bb:a1:75:c8:36:2c:4a:d2:1b:f7:8b:
                    ba:cf:0d:f9:ef:ec:f1:81:1e:7b:9b:03:47:9a:bf:
                    65:cc:7f:65:24:69:a6:e8:14:89:5b:e4:34:f7:c5:
                    b0:14:93:f5:67:7b:3a:7a:78:e1:01:56:56:91:a6:
                    13:42:8d:d2:3c:40:9c:4c:ef:d1:86:df:37:51:1b:
                    0c:a1:3b:f5:f1:a3:4a:35:e4:e1:ce:96:df:1b:7e:
                    bf:4e:97:d0:10:e8:a8:08:30:81:af:20:0b:43:14:
                    c5:74:67:b4:32:82:6f:8d:86:c2:88:40:99:36:83:
                    ba:1e:40:72:22:17:d7:52:65:24:73:b0:ce:ef:19:
                    cd:ae:ff:78:6c:7b:c0:12:03:d4:4e:72:0d:50:6d:
                    3b:a3:3b:a3:99:5e:9d:c8:d9:0c:85:b3:d9:8a:d9:
                    54:26:db:6d:fa:ac:bb:ff:25:4c:c4:d1:79:f4:71:
                    d3:86:40:18:13:b0:63:b5:72:4e:30:c4:97:84:86:
                    2d:56:2f:d7:15:f7:7f:c0:ae:f5:fc:5b:e5:fb:a1:
                    ba:d3
                Exponent: 65537 (0x10001)
        X509v3 extensions:
            X509v3 Basic Constraints: 
                CA:FALSE
            Netscape Cert Type: 
                SSL Client, S/MIME
            X509v3 Subject Key Identifier: 
                33:D8:45:66:D7:68:87:18:7E:54:0D:70:27:91:C7:26:D7:85:65:C0
            X509v3 Authority Key Identifier: 
                0D:C9:60:20:43:58:81:E0:9A:21:EF:66:16:DC:6E:21:25:DF:2B:45
            X509v3 Key Usage: critical
                Digital Signature, Non Repudiation, Key Encipherment
            X509v3 Extended Key Usage: 
                TLS Web Client Authentication, E-mail Protection
    Signature Algorithm: sha256WithRSAEncryption
    Signature Value:
        c5:68:d3:86:36:7d:ce:fc:3d:fb:e6:44:1c:e6:60:9b:8a:43:
        ec:e9:c9:ae:6c:90:6b:8e:45:d1:e4:1b:8e:08:42:89:2c:39:
        81:c3:da:47:cd:5b:0b:d9:5b:d2:97:2b:6b:12:00:24:eb:e4:
        0a:1d:b5:7c:50:e1:8c:c7:f3:ff:81:c7:8c:85:e5:50:0b:83:
        1d:e0:aa:1c:72:8e:38:63:b1:f7:90:58:d2:9d:e3:a5:c3:03:
        27:cb:f3:c9:ed:28:4f:61:9b:ea:09:65:d5:09:fc:f6:57:7e:
        6f:70:55:13:66:fa:06:66:72:1c:da:4d:13:34:60:0b:87:9f:
        2b:b2:56:ac:62:80:6e:e7:5a:30:a3:eb:2c:38:2c:a9:a8:7a:
        08:b1:16:89:99:54:4c:8e:8b:30:f9:42:66:4f:5f:76:2b:a1:
        85:99:dc:d6:a2:d5:35:58:7e:ab:e0:8b:9f:5b:6b:c1:e2:bc:
        20:df:7a:cb:29:a7:dc:5e:9f:62:8a:63:f3:21:e6:19:5c:9a:
        aa:75:26:f4:f1:a8:a9:57:39:e5:83:66:e4:56:d3:11:fd:3b:
        fa:04:47:f3:df:e4:a0:b4:08:ec:4f:29:ff:ec:84:17:62:f7:
        6d:79:cd:52:18:60:95:db:a1:1f:1a:80:11:26:73:db:de:eb:
        47:5e:e4:ab
-----BEGIN CERTIFICATE-----
MIIESzCCAzOgAwIBAgICEAMwDQYJKoZIhvcNAQELBQAwgaAxCzAJBgNVBAYTAlVT
MRMwEQYDVQQIDApXYXNoaW5ndG9uMRAwDgYDVQQHDAdTZWF0dGxlMRAwDgYDVQQK
DAd3b2xmU1NMMRQwEgYDVQQLDAtEZXZlbG9wbWVudDEhMB8GA1UEAwwYd29sZlNT
TCBJbnRlcm1lZGlhdGUyIENBMR8wHQYJKoZIhvcNAQkBFhBpbmZvQHdvbGZzc2wu
Y29tMB4XDTIzMDkyNzEyMTAwOVoXDTMzMDkyNDEyMTAwOVowgZwxCzAJBgNVBAYT
AlVTMRMwEQYDVQQIDApXYXNoaW5ndG9uMRAwDgYDVQQHDAdTZWF0dGxlMRAwDgYD
VQQKDAd3b2xmU1NMMRQwEgYDVQQLDAtEZXZlbG9wbWVudDEdMBsGA1UEAwwUd29s
ZlNTTCBDbGllbnQgQ2hhaW4xHzAdBgkqhkiG9w0BCQEWEGluZm9Ad29sZnNzbC5j
b20wggEiMA0GCSqGSIb3DQEBAQUAA4IBDwAwggEKAoIBAQDDA9Er/jmkMkU7U8iE
Kyp8dJq9qipSB0fWpjayBzKO0Lppe8bDRJ7UgUj9LWiii2e7oXXINixK0hv3i7rP
Dfnv7PGBHnubA0eav2XMf2UkaaboFIlb5DT3xbAUk/Vnezp6eOEBVlaRphNCjdI8
QJxM79GG3zdRGwyhO/Xxo0o15OHOlt8bfr9Ol9AQ6KgIMIGvIAtDFMV0Z7Qygm+N
hsKIQJk2g7oeQHIiF9dSZSRzsM7vGc2u/3hse8ASA9ROcg1QbTujO6OZXp3I2QyF
s9mK2VQm2236rLv/JUzE0Xn0cdOGQBgTsGO1ck4wxJeEhi1WL9cV93/ArvX8W+X7
obrTAgMBAAGjgZAwgY0wCQYDVR0TBAIwADARBglghkgBhvhCAQEEBAMCBaAwHQYD
VR0OBBYEFDPYRWbXaIcYflQNcCeRxybXhWXAMB8GA1UdIwQYMBaAFA3JYCBDWIHg
miHvZhbcbiEl3ytFMA4GA1UdDwEB/wQEAwIF4DAdBgNVHSUEFjAUBggrBgEFBQcD
AgYIKwYBBQUHAwQwDQYJKoZIhvcNAQELBQADggEBAMVo04Y2fc78PfvmRBzmYJuK
Q+zpya5skGuORdHkG44IQoksOYHD2kfNWwvZW9KXK2sSACTr5AodtXxQ4YzH8/+B
x4yF5VALgx3gqhxyjjhjsfeQWNKd46XDAyfL88ntKE9hm+oJZdUJ/PZXfm9wVRNm
+gZmchzaTRM0YAuHnyuyVqxigG7nWjCj6yw4LKmoegixFomZVEyOizD5QmZPX3Yr
oYWZ3Nai1TVYfqvgi59ba8HivCDfesspp9xen2KKY/Mh5hlcmqp1JvTxqKlXOeWD
ZuRW0xH9O/oER/Pf5KC0COxPKf/shBdi9215zVIYYJXboR8agBEmc9ve60de5Ks=
-----END CERTIFICATE-----
