Certificate:
    Data:
        Version: 3 (0x2)
        Serial Number: 4099 (0x1003)
        Signature Algorithm: sha256WithRSAEncryption
        Issuer: C=US, ST=Washington, L=Seattle, O=wolfSSL, OU=Development, CN=wolfSSL Intermediate2 CA, emailAddress=info@wolfssl.com
        Validity
            Not Before: Jun 25 15:56:22 2025 GMT
            Not After : Jun 23 15:56:22 2035 GMT
        Subject: C=US, ST=Washington, L=Seattle, O=wolfSSL, OU=Development, CN=wolfSSL Client Chain, emailAddress=info@wolfssl.com
        Subject Public Key Info:
            Public Key Algorithm: rsaEncryption
                Public-Key: (2048 bit)
                Modulus:
                    00:c3:03:d1:2b:fe:39:a4:32:45:3b:53:c8:84:2b:
                    2a:7c:74:9a:bd:aa:2a:52:07:47:d6:a6:36:b2:07:
                    32:8e:d0:ba:69:7b:c6:c3:44:9e:d4:81:48:fd:2d:
                    68:a2:8b:67:bb:a1:75:c8:36:2c:4a:d2:1b:f7:8b:
                    ba:cf:0d:f9:ef:ec:f1:81:1e:7b:9b:03:47:9a:bf:
                    65:cc:7f:65:24:69:a6:e8:14:89:5b:e4:34:f7:c5:
                    b0:14:93:f5:67:7b:3a:7a:78:e1:01:56:56:91:a6:
                    13:42:8d:d2:3c:40:9c:4c:ef:d1:86:df:37:51:1b:
                    0c:a1:3b:f5:f1:a3:4a:35:e4:e1:ce:96:df:1b:7e:
                    bf:4e:97:d0:10:e8:a8:08:30:81:af:20:0b:43:14:
                    c5:74:67:b4:32:82:6f:8d:86:c2:88:40:99:36:83:
                    ba:1e:40:72:22:17:d7:52:65:24:73:b0:ce:ef:19:
                    cd:ae:ff:78:6c:7b:c0:12:03:d4:4e:72:0d:50:6d:
                    3b:a3:3b:a3:99:5e:9d:c8:d9:0c:85:b3:d9:8a:d9:
                    54:26:db:6d:fa:ac:bb:ff:25:4c:c4:d1:79:f4:71:
                    d3:86:40:18:13:b0:63:b5:72:4e:30:c4:97:84:86:
                    2d:56:2f:d7:15:f7:7f:c0:ae:f5:fc:5b:e5:fb:a1:
                    ba:d3
                Exponent: 65537 (0x10001)
        X509v3 extensions:
            X509v3 Basic Constraints: 
                CA:FALSE
            Netscape Cert Type: 
                SSL Client, S/MIME
            X509v3 Subject Key Identifier: 
                33:D8:45:66:D7:68:87:18:7E:54:0D:70:27:91:C7:26:D7:85:65:C0
            X509v3 Authority Key Identifier: 
                0D:C9:60:20:43:58:81:E0:9A:21:EF:66:16:DC:6E:21:25:DF:2B:45
            X509v3 Key Usage: critical
                Digital Signature, Non Repudiation, Key Encipherment
            X509v3 Extended Key Usage: 
                TLS Web Client Authentication, E-mail Protection
    Signature Algorithm: sha256WithRSAEncryption
    Signature Value:
        7a:92:7b:2b:28:ca:b3:e4:55:93:8f:de:c4:a3:62:1b:09:65:
        4f:fd:dd:c9:27:75:2b:07:1c:21:99:4c:55:76:97:0c:dd:10:
        09:ec:6f:b9:20:29:29:16:25:35:e8:2a:44:d6:5c:26:bb:a5:
        d0:f5:06:5b:69:35:34:14:32:8b:51:41:eb:2e:20:38:7f:01:
        04:4e:a5:45:46:3f:40:2f:79:d1:08:b3:4a:1e:c2:8b:c8:f8:
        bb:36:aa:4d:a6:a6:7f:94:8c:e5:88:9c:ba:db:d9:03:70:37:
        ec:40:56:fb:32:b7:7b:b3:02:a5:84:af:98:17:ba:e9:84:5d:
        43:12:50:42:66:c3:8c:63:01:7d:c9:17:19:57:db:d8:e9:49:
        8f:0f:a6:01:f3:30:b0:28:84:b5:ac:67:e9:49:3e:6e:e0:96:
        d4:d6:23:40:39:b3:f7:12:4e:91:c0:4c:6a:e2:b1:cf:b7:b1:
        8e:1e:95:28:0a:67:48:a3:44:37:20:22:4a:5b:f7:3f:e5:8e:
        4b:42:27:c5:cd:83:26:d5:b5:74:78:99:e2:92:9e:78:78:4a:
        b5:2e:be:6c:de:29:59:7a:49:8d:4a:21:a4:1d:cb:50:42:1f:
        c8:cd:f1:15:ad:21:74:d6:87:c0:b3:3f:55:b9:a4:39:ae:95:
        ad:08:39:49
-----BEGIN CERTIFICATE-----
MIIESzCCAzOgAwIBAgICEAMwDQYJKoZIhvcNAQELBQAwgaAxCzAJBgNVBAYTAlVT
MRMwEQYDVQQIDApXYXNoaW5ndG9uMRAwDgYDVQQHDAdTZWF0dGxlMRAwDgYDVQQK
DAd3b2xmU1NMMRQwEgYDVQQLDAtEZXZlbG9wbWVudDEhMB8GA1UEAwwYd29sZlNT
TCBJbnRlcm1lZGlhdGUyIENBMR8wHQYJKoZIhvcNAQkBFhBpbmZvQHdvbGZzc2wu
Y29tMB4XDTI1MDYyNTE1NTYyMloXDTM1MDYyMzE1NTYyMlowgZwxCzAJBgNVBAYT
AlVTMRMwEQYDVQQIDApXYXNoaW5ndG9uMRAwDgYDVQQHDAdTZWF0dGxlMRAwDgYD
VQQKDAd3b2xmU1NMMRQwEgYDVQQLDAtEZXZlbG9wbWVudDEdMBsGA1UEAwwUd29s
ZlNTTCBDbGllbnQgQ2hhaW4xHzAdBgkqhkiG9w0BCQEWEGluZm9Ad29sZnNzbC5j
b20wggEiMA0GCSqGSIb3DQEBAQUAA4IBDwAwggEKAoIBAQDDA9Er/jmkMkU7U8iE
Kyp8dJq9qipSB0fWpjayBzKO0Lppe8bDRJ7UgUj9LWiii2e7oXXINixK0hv3i7rP
Dfnv7PGBHnubA0eav2XMf2UkaaboFIlb5DT3xbAUk/Vnezp6eOEBVlaRphNCjdI8
QJxM79GG3zdRGwyhO/Xxo0o15OHOlt8bfr9Ol9AQ6KgIMIGvIAtDFMV0Z7Qygm+N
hsKIQJk2g7oeQHIiF9dSZSRzsM7vGc2u/3hse8ASA9ROcg1QbTujO6OZXp3I2QyF
s9mK2VQm2236rLv/JUzE0Xn0cdOGQBgTsGO1ck4wxJeEhi1WL9cV93/ArvX8W+X7
obrTAgMBAAGjgZAwgY0wCQYDVR0TBAIwADARBglghkgBhvhCAQEEBAMCBaAwHQYD
VR0OBBYEFDPYRWbXaIcYflQNcCeRxybXhWXAMB8GA1UdIwQYMBaAFA3JYCBDWIHg
miHvZhbcbiEl3ytFMA4GA1UdDwEB/wQEAwIF4DAdBgNVHSUEFjAUBggrBgEFBQcD
AgYIKwYBBQUHAwQwDQYJKoZIhvcNAQELBQADggEBAHqSeysoyrPkVZOP3sSjYhsJ
ZU/93ckndSsHHCGZTFV2lwzdEAnsb7kgKSkWJTXoKkTWXCa7pdD1BltpNTQUMotR
QesuIDh/AQROpUVGP0AvedEIs0oewovI+Ls2qk2mpn+UjOWInLrb2QNwN+xAVvsy
t3uzAqWEr5gXuumEXUMSUEJmw4xjAX3JFxlX29jpSY8PpgHzMLAohLWsZ+lJPm7g
ltTWI0A5s/cSTpHATGrisc+3sY4elSgKZ0ijRDcgIkpb9z/ljktCJ8XNgybVtXR4
meKSnnh4SrUuvmzeKVl6SY1KIaQdy1BCH8jN8RWtIXTWh8CzP1W5pDmula0IOUk=
-----END CERTIFICATE-----
