Certificate:
    Data:
        Version: 3 (0x2)
        Serial Number: 4102 (0x1006)
        Signature Algorithm: ecdsa-with-SHA256
        Issuer: C=US, ST=Washington, L=Seattle, O=wolfSSL, OU=Development, CN=wolfSSL Intermediate2 CA ECC, emailAddress=info@wolfssl.com
        Validity
            Not Before: Jun 25 15:56:23 2025 GMT
            Not After : Jun 23 15:56:23 2035 GMT
        Subject: C=US, ST=Washington, L=Seattle, O=wolfSSL, OU=Development, CN=wolfSSL Server Chain ECC, emailAddress=info@wolfssl.com
        Subject Public Key Info:
            Public Key Algorithm: id-ecPublicKey
                Public-Key: (256 bit)
                pub:
                    04:bb:33:ac:4c:27:50:4a:c6:4a:a5:04:c3:3c:de:
                    9f:36:db:72:2d:ce:94:ea:2b:fa:cb:20:09:39:2c:
                    16:e8:61:02:e9:af:4d:d3:02:93:9a:31:5b:97:92:
                    21:7f:f0:cf:18:da:91:11:02:34:86:e8:20:58:33:
                    0b:80:34:89:d8
                ASN1 OID: prime256v1
                NIST CURVE: P-256
        X509v3 extensions:
            X509v3 Basic Constraints: 
                CA:FALSE
            Netscape Cert Type: 
                SSL Server
            X509v3 Subject Key Identifier: 
                5D:5D:26:EF:AC:7E:36:F9:9B:76:15:2B:4A:25:02:23:EF:B2:89:30
            X509v3 Authority Key Identifier: 
                keyid:9F:AE:7B:7A:70:80:04:55:2B:C6:B7:0C:5B:79:E4:12:41:65:31:29
                DirName:/C=US/ST=Washington/L=Seattle/O=wolfSSL/OU=Development/CN=wolfSSL Intermediate CA ECC/emailAddress=info@wolfssl.com
                serial:10:05
            X509v3 Key Usage: critical
                Digital Signature, Key Encipherment, Key Agreement
            X509v3 Extended Key Usage: 
                TLS Web Server Authentication
    Signature Algorithm: ecdsa-with-SHA256
    Signature Value:
        30:46:02:21:00:af:56:42:7c:a5:ac:8c:75:ee:3c:61:c4:b3:
        8e:90:bf:5b:9b:11:1c:ff:3d:88:39:9a:3e:98:5d:38:51:ff:
        0a:02:21:00:f5:bb:66:62:1a:45:46:08:23:a7:11:62:a8:4d:
        79:89:ea:88:dd:c5:f2:f7:77:96:6c:18:e1:08:25:ca:ce:69
-----BEGIN CERTIFICATE-----
MIIDczCCAxigAwIBAgICEAYwCgYIKoZIzj0EAwIwgaQxCzAJBgNVBAYTAlVTMRMw
EQYDVQQIDApXYXNoaW5ndG9uMRAwDgYDVQQHDAdTZWF0dGxlMRAwDgYDVQQKDAd3
b2xmU1NMMRQwEgYDVQQLDAtEZXZlbG9wbWVudDElMCMGA1UEAwwcd29sZlNTTCBJ
bnRlcm1lZGlhdGUyIENBIEVDQzEfMB0GCSqGSIb3DQEJARYQaW5mb0B3b2xmc3Ns
LmNvbTAeFw0yNTA2MjUxNTU2MjNaFw0zNTA2MjMxNTU2MjNaMIGgMQswCQYDVQQG
EwJVUzETMBEGA1UECAwKV2FzaGluZ3RvbjEQMA4GA1UEBwwHU2VhdHRsZTEQMA4G
A1UECgwHd29sZlNTTDEUMBIGA1UECwwLRGV2ZWxvcG1lbnQxITAfBgNVBAMMGHdv
bGZTU0wgU2VydmVyIENoYWluIEVDQzEfMB0GCSqGSIb3DQEJARYQaW5mb0B3b2xm
c3NsLmNvbTBZMBMGByqGSM49AgEGCCqGSM49AwEHA0IABLszrEwnUErGSqUEwzze
nzbbci3OlOor+ssgCTksFuhhAumvTdMCk5oxW5eSIX/wzxjakRECNIboIFgzC4A0
idijggE6MIIBNjAJBgNVHRMEAjAAMBEGCWCGSAGG+EIBAQQEAwIGQDAdBgNVHQ4E
FgQUXV0m76x+NvmbdhUrSiUCI++yiTAwgdEGA1UdIwSByTCBxoAUn657enCABFUr
xrcMW3nkEkFlMSmhgamkgaYwgaMxCzAJBgNVBAYTAlVTMRMwEQYDVQQIDApXYXNo
aW5ndG9uMRAwDgYDVQQHDAdTZWF0dGxlMRAwDgYDVQQKDAd3b2xmU1NMMRQwEgYD
VQQLDAtEZXZlbG9wbWVudDEkMCIGA1UEAwwbd29sZlNTTCBJbnRlcm1lZGlhdGUg
Q0EgRUNDMR8wHQYJKoZIhvcNAQkBFhBpbmZvQHdvbGZzc2wuY29tggIQBTAOBgNV
HQ8BAf8EBAMCA6gwEwYDVR0lBAwwCgYIKwYBBQUHAwEwCgYIKoZIzj0EAwIDSQAw
RgIhAK9WQnylrIx17jxhxLOOkL9bmxEc/z2IOZo+mF04Uf8KAiEA9btmYhpFRggj
pxFiqE15ieqI3cXy93eWbBjhCCXKzmk=
-----END CERTIFICATE-----
