Certificate:
    Data:
        Version: 3 (0x2)
        Serial Number: 4098 (0x1002)
        Signature Algorithm: sha256WithRSAEncryption
        Issuer: C=US, ST=Washington, L=Seattle, O=wolfSSL, OU=Development, CN=wolfSSL Intermediate2 CA, emailAddress=info@wolfssl.com
        Validity
            Not Before: Jun 25 15:56:22 2025 GMT
            Not After : Jun 23 15:56:22 2035 GMT
        Subject: C=US, ST=Washington, L=Seattle, O=wolfSSL, OU=Development, CN=wolfSSL Server Chain, emailAddress=info@wolfssl.com
        Subject Public Key Info:
            Public Key Algorithm: rsaEncryption
                Public-Key: (2048 bit)
                Modulus:
                    00:c0:95:08:e1:57:41:f2:71:6d:b7:d2:45:41:27:
                    01:65:c6:45:ae:f2:bc:24:30:b8:95:ce:2f:4e:d6:
                    f6:1c:88:bc:7c:9f:fb:a8:67:7f:fe:5c:9c:51:75:
                    f7:8a:ca:07:e7:35:2f:8f:e1:bd:7b:c0:2f:7c:ab:
                    64:a8:17:fc:ca:5d:7b:ba:e0:21:e5:72:2e:6f:2e:
                    86:d8:95:73:da:ac:1b:53:b9:5f:3f:d7:19:0d:25:
                    4f:e1:63:63:51:8b:0b:64:3f:ad:43:b8:a5:1c:5c:
                    34:b3:ae:00:a0:63:c5:f6:7f:0b:59:68:78:73:a6:
                    8c:18:a9:02:6d:af:c3:19:01:2e:b8:10:e3:c6:cc:
                    40:b4:69:a3:46:33:69:87:6e:c4:bb:17:a6:f3:e8:
                    dd:ad:73:bc:7b:2f:21:b5:fd:66:51:0c:bd:54:b3:
                    e1:6d:5f:1c:bc:23:73:d1:09:03:89:14:d2:10:b9:
                    64:c3:2a:d0:a1:96:4a:bc:e1:d4:1a:5b:c7:a0:c0:
                    c1:63:78:0f:44:37:30:32:96:80:32:23:95:a1:77:
                    ba:13:d2:97:73:e2:5d:25:c9:6a:0d:c3:39:60:a4:
                    b4:b0:69:42:42:09:e9:d8:08:bc:33:20:b3:58:22:
                    a7:aa:eb:c4:e1:e6:61:83:c5:d2:96:df:d9:d0:4f:
                    ad:d7
                Exponent: 65537 (0x10001)
        X509v3 extensions:
            X509v3 Basic Constraints: 
                CA:FALSE
            Netscape Cert Type: 
                SSL Server
            X509v3 Subject Key Identifier: 
                B3:11:32:C9:92:98:84:E2:C9:F8:D0:3B:6E:03:42:CA:1F:0E:8E:3C
            X509v3 Authority Key Identifier: 
                keyid:0D:C9:60:20:43:58:81:E0:9A:21:EF:66:16:DC:6E:21:25:DF:2B:45
                DirName:/C=US/ST=Washington/L=Seattle/O=wolfSSL/OU=Development/CN=wolfSSL Intermediate CA/emailAddress=info@wolfssl.com
                serial:10:01
            X509v3 Key Usage: critical
                Digital Signature, Key Encipherment, Key Agreement
            X509v3 Extended Key Usage: 
                TLS Web Server Authentication
    Signature Algorithm: sha256WithRSAEncryption
    Signature Value:
        70:26:27:a1:71:48:89:ad:76:2a:6f:e8:95:80:5a:19:47:7e:
        2f:64:15:00:c9:57:06:9f:ce:e4:5c:11:6b:c6:db:a1:f3:36:
        2a:9c:f8:05:75:1f:6f:43:b3:86:bc:de:c7:b2:26:97:39:0a:
        b6:2a:c2:3b:97:ab:0f:08:7f:38:a0:8b:6a:01:9a:a5:28:72:
        6b:39:73:34:1d:9b:bd:ee:29:f1:fa:99:74:89:e6:f1:a8:65:
        64:dd:a3:e1:61:59:62:2c:c7:9c:73:8b:95:4b:39:2e:77:09:
        26:21:7d:33:f8:db:bf:c5:f4:8a:76:6b:e1:3e:a4:cd:b8:8f:
        57:6d:20:07:ae:98:95:b1:cb:2f:6e:11:f2:3e:8b:58:66:78:
        9d:38:69:da:cb:25:a7:0b:42:6c:75:1c:88:7e:6a:74:a5:20:
        66:3b:a9:46:f2:dd:9d:bd:e0:1d:5a:8d:45:c3:d9:3d:a5:79:
        82:d5:85:32:cb:57:82:9c:93:81:33:d7:06:4c:65:c2:44:fe:
        eb:56:fe:2a:a9:55:d8:c0:0a:8f:ca:2c:98:c0:2f:40:e7:33:
        07:0b:cd:4b:d8:5f:5b:25:f0:1c:05:cc:bd:91:ab:4c:29:cb:
        a2:04:5a:0d:9e:46:55:3e:9f:73:14:c9:9f:27:ab:3e:d4:7a:
        3a:7e:64:d6
-----BEGIN CERTIFICATE-----
MIIE8jCCA9qgAwIBAgICEAIwDQYJKoZIhvcNAQELBQAwgaAxCzAJBgNVBAYTAlVT
MRMwEQYDVQQIDApXYXNoaW5ndG9uMRAwDgYDVQQHDAdTZWF0dGxlMRAwDgYDVQQK
DAd3b2xmU1NMMRQwEgYDVQQLDAtEZXZlbG9wbWVudDEhMB8GA1UEAwwYd29sZlNT
TCBJbnRlcm1lZGlhdGUyIENBMR8wHQYJKoZIhvcNAQkBFhBpbmZvQHdvbGZzc2wu
Y29tMB4XDTI1MDYyNTE1NTYyMloXDTM1MDYyMzE1NTYyMlowgZwxCzAJBgNVBAYT
AlVTMRMwEQYDVQQIDApXYXNoaW5ndG9uMRAwDgYDVQQHDAdTZWF0dGxlMRAwDgYD
VQQKDAd3b2xmU1NMMRQwEgYDVQQLDAtEZXZlbG9wbWVudDEdMBsGA1UEAwwUd29s
ZlNTTCBTZXJ2ZXIgQ2hhaW4xHzAdBgkqhkiG9w0BCQEWEGluZm9Ad29sZnNzbC5j
b20wggEiMA0GCSqGSIb3DQEBAQUAA4IBDwAwggEKAoIBAQDAlQjhV0HycW230kVB
JwFlxkWu8rwkMLiVzi9O1vYciLx8n/uoZ3/+XJxRdfeKygfnNS+P4b17wC98q2So
F/zKXXu64CHlci5vLobYlXParBtTuV8/1xkNJU/hY2NRiwtkP61DuKUcXDSzrgCg
Y8X2fwtZaHhzpowYqQJtr8MZAS64EOPGzEC0aaNGM2mHbsS7F6bz6N2tc7x7LyG1
/WZRDL1Us+FtXxy8I3PRCQOJFNIQuWTDKtChlkq84dQaW8egwMFjeA9ENzAyloAy
I5Whd7oT0pdz4l0lyWoNwzlgpLSwaUJCCenYCLwzILNYIqeq68Th5mGDxdKW39nQ
T63XAgMBAAGjggE2MIIBMjAJBgNVHRMEAjAAMBEGCWCGSAGG+EIBAQQEAwIGQDAd
BgNVHQ4EFgQUsxEyyZKYhOLJ+NA7bgNCyh8Ojjwwgc0GA1UdIwSBxTCBwoAUDclg
IENYgeCaIe9mFtxuISXfK0WhgaWkgaIwgZ8xCzAJBgNVBAYTAlVTMRMwEQYDVQQI
DApXYXNoaW5ndG9uMRAwDgYDVQQHDAdTZWF0dGxlMRAwDgYDVQQKDAd3b2xmU1NM
MRQwEgYDVQQLDAtEZXZlbG9wbWVudDEgMB4GA1UEAwwXd29sZlNTTCBJbnRlcm1l
ZGlhdGUgQ0ExHzAdBgkqhkiG9w0BCQEWEGluZm9Ad29sZnNzbC5jb22CAhABMA4G
A1UdDwEB/wQEAwIDqDATBgNVHSUEDDAKBggrBgEFBQcDATANBgkqhkiG9w0BAQsF
AAOCAQEAcCYnoXFIia12Km/olYBaGUd+L2QVAMlXBp/O5FwRa8bbofM2Kpz4BXUf
b0Ozhrzex7ImlzkKtirCO5erDwh/OKCLagGapShyazlzNB2bve4p8fqZdInm8ahl
ZN2j4WFZYizHnHOLlUs5LncJJiF9M/jbv8X0inZr4T6kzbiPV20gB66YlbHLL24R
8j6LWGZ4nThp2sslpwtCbHUciH5qdKUgZjupRvLdnb3gHVqNRcPZPaV5gtWFMstX
gpyTgTPXBkxlwkT+61b+KqlV2MAKj8osmMAvQOczBwvNS9hfWyXwHAXMvZGrTCnL
ogRaDZ5GVT6fcxTJnyerPtR6On5k1g==
-----END CERTIFICATE-----
