Certificate:
    Data:
        Version: 3 (0x2)
        Serial Number: 4102 (0x1006)
        Signature Algorithm: ecdsa-with-SHA256
        Issuer: C=US, ST=Washington, L=Seattle, O=wolfSSL, OU=Development, CN=wolfSSL Intermediate2 CA ECC, emailAddress=facts@wolfssl.com
        Validity
            Not Before: Jun 11 17:01:57 2026 GMT
            Not After : Jun  8 17:01:57 2036 GMT
        Subject: C=US, ST=Washington, L=Seattle, O=wolfSSL, OU=Development, CN=wolfSSL Server Chain ECC, emailAddress=facts@wolfssl.com
        Subject Public Key Info:
            Public Key Algorithm: id-ecPublicKey
                Public-Key: (256 bit)
                pub:
                    04:bb:33:ac:4c:27:50:4a:c6:4a:a5:04:c3:3c:de:
                    9f:36:db:72:2d:ce:94:ea:2b:fa:cb:20:09:39:2c:
                    16:e8:61:02:e9:af:4d:d3:02:93:9a:31:5b:97:92:
                    21:7f:f0:cf:18:da:91:11:02:34:86:e8:20:58:33:
                    0b:80:34:89:d8
                ASN1 OID: prime256v1
                NIST CURVE: P-256
        X509v3 extensions:
            X509v3 Basic Constraints: 
                CA:FALSE
            Netscape Cert Type: 
                SSL Server
            X509v3 Subject Key Identifier: 
                5D:5D:26:EF:AC:7E:36:F9:9B:76:15:2B:4A:25:02:23:EF:B2:89:30
            X509v3 Authority Key Identifier: 
                keyid:9F:AE:7B:7A:70:80:04:55:2B:C6:B7:0C:5B:79:E4:12:41:65:31:29
                DirName:/C=US/ST=Washington/L=Seattle/O=wolfSSL/OU=Development/CN=wolfSSL Intermediate CA ECC/emailAddress=facts@wolfssl.com
                serial:10:05
            X509v3 Key Usage: critical
                Digital Signature, Key Encipherment, Key Agreement
            X509v3 Extended Key Usage: 
                TLS Web Server Authentication
    Signature Algorithm: ecdsa-with-SHA256
    Signature Value:
        30:46:02:21:00:99:7e:10:bf:43:6a:6f:ff:e2:6c:e5:ec:84:
        a3:1e:01:34:c0:ed:0b:f1:de:17:80:db:94:ee:37:e5:dd:90:
        61:02:21:00:82:4f:4c:02:ee:62:a0:c2:99:8e:eb:e2:84:4d:
        65:58:b8:ba:15:49:fe:bb:75:c4:a0:43:df:e5:83:e5:24:09
-----BEGIN CERTIFICATE-----
MIIDdjCCAxugAwIBAgICEAYwCgYIKoZIzj0EAwIwgaUxCzAJBgNVBAYTAlVTMRMw
EQYDVQQIDApXYXNoaW5ndG9uMRAwDgYDVQQHDAdTZWF0dGxlMRAwDgYDVQQKDAd3
b2xmU1NMMRQwEgYDVQQLDAtEZXZlbG9wbWVudDElMCMGA1UEAwwcd29sZlNTTCBJ
bnRlcm1lZGlhdGUyIENBIEVDQzEgMB4GCSqGSIb3DQEJARYRZmFjdHNAd29sZnNz
bC5jb20wHhcNMjYwNjExMTcwMTU3WhcNMzYwNjA4MTcwMTU3WjCBoTELMAkGA1UE
BhMCVVMxEzARBgNVBAgMCldhc2hpbmd0b24xEDAOBgNVBAcMB1NlYXR0bGUxEDAO
BgNVBAoMB3dvbGZTU0wxFDASBgNVBAsMC0RldmVsb3BtZW50MSEwHwYDVQQDDBh3
b2xmU1NMIFNlcnZlciBDaGFpbiBFQ0MxIDAeBgkqhkiG9w0BCQEWEWZhY3RzQHdv
bGZzc2wuY29tMFkwEwYHKoZIzj0CAQYIKoZIzj0DAQcDQgAEuzOsTCdQSsZKpQTD
PN6fNttyLc6U6iv6yyAJOSwW6GEC6a9N0wKTmjFbl5Ihf/DPGNqREQI0huggWDML
gDSJ2KOCATswggE3MAkGA1UdEwQCMAAwEQYJYIZIAYb4QgEBBAQDAgZAMB0GA1Ud
DgQWBBRdXSbvrH42+Zt2FStKJQIj77KJMDCB0gYDVR0jBIHKMIHHgBSfrnt6cIAE
VSvGtwxbeeQSQWUxKaGBqqSBpzCBpDELMAkGA1UEBhMCVVMxEzARBgNVBAgMCldh
c2hpbmd0b24xEDAOBgNVBAcMB1NlYXR0bGUxEDAOBgNVBAoMB3dvbGZTU0wxFDAS
BgNVBAsMC0RldmVsb3BtZW50MSQwIgYDVQQDDBt3b2xmU1NMIEludGVybWVkaWF0
ZSBDQSBFQ0MxIDAeBgkqhkiG9w0BCQEWEWZhY3RzQHdvbGZzc2wuY29tggIQBTAO
BgNVHQ8BAf8EBAMCA6gwEwYDVR0lBAwwCgYIKwYBBQUHAwEwCgYIKoZIzj0EAwID
SQAwRgIhAJl+EL9Dam//4mzl7ISjHgE0wO0L8d4XgNuU7jfl3ZBhAiEAgk9MAu5i
oMKZjuvihE1lWLi6FUn+u3XEoEPf5YPlJAk=
-----END CERTIFICATE-----
