Certificate:
    Data:
        Version: 3 (0x2)
        Serial Number: 4098 (0x1002)
        Signature Algorithm: sha256WithRSAEncryption
        Issuer: C=US, ST=Washington, L=Seattle, O=wolfSSL, OU=Development, CN=wolfSSL Intermediate2 CA, emailAddress=facts@wolfssl.com
        Validity
            Not Before: Jun 11 17:01:56 2026 GMT
            Not After : Jun  8 17:01:56 2036 GMT
        Subject: C=US, ST=Washington, L=Seattle, O=wolfSSL, OU=Development, CN=wolfSSL Server Chain, emailAddress=facts@wolfssl.com
        Subject Public Key Info:
            Public Key Algorithm: rsaEncryption
                Public-Key: (2048 bit)
                Modulus:
                    00:c0:95:08:e1:57:41:f2:71:6d:b7:d2:45:41:27:
                    01:65:c6:45:ae:f2:bc:24:30:b8:95:ce:2f:4e:d6:
                    f6:1c:88:bc:7c:9f:fb:a8:67:7f:fe:5c:9c:51:75:
                    f7:8a:ca:07:e7:35:2f:8f:e1:bd:7b:c0:2f:7c:ab:
                    64:a8:17:fc:ca:5d:7b:ba:e0:21:e5:72:2e:6f:2e:
                    86:d8:95:73:da:ac:1b:53:b9:5f:3f:d7:19:0d:25:
                    4f:e1:63:63:51:8b:0b:64:3f:ad:43:b8:a5:1c:5c:
                    34:b3:ae:00:a0:63:c5:f6:7f:0b:59:68:78:73:a6:
                    8c:18:a9:02:6d:af:c3:19:01:2e:b8:10:e3:c6:cc:
                    40:b4:69:a3:46:33:69:87:6e:c4:bb:17:a6:f3:e8:
                    dd:ad:73:bc:7b:2f:21:b5:fd:66:51:0c:bd:54:b3:
                    e1:6d:5f:1c:bc:23:73:d1:09:03:89:14:d2:10:b9:
                    64:c3:2a:d0:a1:96:4a:bc:e1:d4:1a:5b:c7:a0:c0:
                    c1:63:78:0f:44:37:30:32:96:80:32:23:95:a1:77:
                    ba:13:d2:97:73:e2:5d:25:c9:6a:0d:c3:39:60:a4:
                    b4:b0:69:42:42:09:e9:d8:08:bc:33:20:b3:58:22:
                    a7:aa:eb:c4:e1:e6:61:83:c5:d2:96:df:d9:d0:4f:
                    ad:d7
                Exponent: 65537 (0x10001)
        X509v3 extensions:
            X509v3 Basic Constraints: 
                CA:FALSE
            Netscape Cert Type: 
                SSL Server
            X509v3 Subject Key Identifier: 
                B3:11:32:C9:92:98:84:E2:C9:F8:D0:3B:6E:03:42:CA:1F:0E:8E:3C
            X509v3 Authority Key Identifier: 
                keyid:0D:C9:60:20:43:58:81:E0:9A:21:EF:66:16:DC:6E:21:25:DF:2B:45
                DirName:/C=US/ST=Washington/L=Seattle/O=wolfSSL/OU=Development/CN=wolfSSL Intermediate CA/emailAddress=facts@wolfssl.com
                serial:10:01
            X509v3 Key Usage: critical
                Digital Signature, Key Encipherment, Key Agreement
            X509v3 Extended Key Usage: 
                TLS Web Server Authentication
    Signature Algorithm: sha256WithRSAEncryption
    Signature Value:
        9a:58:de:3a:fa:fd:ac:59:07:2e:5e:97:5a:d4:2a:0c:17:78:
        76:0e:8a:a2:30:c2:1e:ec:4c:42:f1:13:67:9a:31:fe:63:77:
        76:5c:a9:3c:10:c7:20:59:b7:04:dd:c7:a7:86:7a:45:03:03:
        59:c4:1f:47:76:cf:c5:80:bf:0b:0a:09:ef:9e:02:ca:d6:d1:
        1d:cf:ea:20:0d:62:bc:01:45:23:24:c7:dc:71:e0:59:2b:3c:
        7a:02:2c:08:f0:78:37:51:fa:fd:c4:df:12:2b:67:10:78:93:
        7c:0d:35:21:d2:f7:6f:29:c2:e8:ef:ef:bb:43:e4:bb:e0:9c:
        47:ef:0c:37:4d:62:5f:0f:c3:1d:aa:3a:7f:7c:41:5b:9b:d7:
        94:b9:c6:8b:64:78:f2:b7:07:b5:f4:6f:27:d2:cd:f3:46:08:
        15:ea:7c:50:7c:4f:2f:16:05:6e:57:2e:9d:d6:8e:9e:6b:bd:
        4e:47:8c:7a:c2:77:4a:04:6b:b6:a8:a6:90:08:b7:08:0f:7f:
        6f:58:59:18:d3:e3:53:da:5f:f1:2b:c6:73:58:41:9a:97:a5:
        79:26:9e:07:d4:79:d0:00:23:c3:c4:5e:e0:f6:fa:21:27:4d:
        72:d0:59:53:ed:8c:a6:a7:e5:34:1c:bb:fd:e8:df:cf:55:49:
        f4:27:ab:d2
-----BEGIN CERTIFICATE-----
MIIE9TCCA92gAwIBAgICEAIwDQYJKoZIhvcNAQELBQAwgaExCzAJBgNVBAYTAlVT
MRMwEQYDVQQIDApXYXNoaW5ndG9uMRAwDgYDVQQHDAdTZWF0dGxlMRAwDgYDVQQK
DAd3b2xmU1NMMRQwEgYDVQQLDAtEZXZlbG9wbWVudDEhMB8GA1UEAwwYd29sZlNT
TCBJbnRlcm1lZGlhdGUyIENBMSAwHgYJKoZIhvcNAQkBFhFmYWN0c0B3b2xmc3Ns
LmNvbTAeFw0yNjA2MTExNzAxNTZaFw0zNjA2MDgxNzAxNTZaMIGdMQswCQYDVQQG
EwJVUzETMBEGA1UECAwKV2FzaGluZ3RvbjEQMA4GA1UEBwwHU2VhdHRsZTEQMA4G
A1UECgwHd29sZlNTTDEUMBIGA1UECwwLRGV2ZWxvcG1lbnQxHTAbBgNVBAMMFHdv
bGZTU0wgU2VydmVyIENoYWluMSAwHgYJKoZIhvcNAQkBFhFmYWN0c0B3b2xmc3Ns
LmNvbTCCASIwDQYJKoZIhvcNAQEBBQADggEPADCCAQoCggEBAMCVCOFXQfJxbbfS
RUEnAWXGRa7yvCQwuJXOL07W9hyIvHyf+6hnf/5cnFF194rKB+c1L4/hvXvAL3yr
ZKgX/Mpde7rgIeVyLm8uhtiVc9qsG1O5Xz/XGQ0lT+FjY1GLC2Q/rUO4pRxcNLOu
AKBjxfZ/C1loeHOmjBipAm2vwxkBLrgQ48bMQLRpo0YzaYduxLsXpvPo3a1zvHsv
IbX9ZlEMvVSz4W1fHLwjc9EJA4kU0hC5ZMMq0KGWSrzh1Bpbx6DAwWN4D0Q3MDKW
gDIjlaF3uhPSl3PiXSXJag3DOWCktLBpQkIJ6dgIvDMgs1gip6rrxOHmYYPF0pbf
2dBPrdcCAwEAAaOCATcwggEzMAkGA1UdEwQCMAAwEQYJYIZIAYb4QgEBBAQDAgZA
MB0GA1UdDgQWBBSzETLJkpiE4sn40DtuA0LKHw6OPDCBzgYDVR0jBIHGMIHDgBQN
yWAgQ1iB4Joh72YW3G4hJd8rRaGBpqSBozCBoDELMAkGA1UEBhMCVVMxEzARBgNV
BAgMCldhc2hpbmd0b24xEDAOBgNVBAcMB1NlYXR0bGUxEDAOBgNVBAoMB3dvbGZT
U0wxFDASBgNVBAsMC0RldmVsb3BtZW50MSAwHgYDVQQDDBd3b2xmU1NMIEludGVy
bWVkaWF0ZSBDQTEgMB4GCSqGSIb3DQEJARYRZmFjdHNAd29sZnNzbC5jb22CAhAB
MA4GA1UdDwEB/wQEAwIDqDATBgNVHSUEDDAKBggrBgEFBQcDATANBgkqhkiG9w0B
AQsFAAOCAQEAmljeOvr9rFkHLl6XWtQqDBd4dg6KojDCHuxMQvETZ5ox/mN3dlyp
PBDHIFm3BN3Hp4Z6RQMDWcQfR3bPxYC/CwoJ754CytbRHc/qIA1ivAFFIyTH3HHg
WSs8egIsCPB4N1H6/cTfEitnEHiTfA01IdL3bynC6O/vu0Pku+CcR+8MN01iXw/D
Hao6f3xBW5vXlLnGi2R48rcHtfRvJ9LN80YIFep8UHxPLxYFblcundaOnmu9TkeM
esJ3SgRrtqimkAi3CA9/b1hZGNPjU9pf8SvGc1hBmpeleSaeB9R50AAjw8Re4Pb6
ISdNctBZU+2MpqflNBy7/ejfz1VJ9Cer0g==
-----END CERTIFICATE-----
