Certificate:
    Data:
        Version: 3 (0x2)
        Serial Number: 4102 (0x1006)
        Signature Algorithm: ecdsa-with-SHA256
        Issuer: C = US, ST = Washington, L = Seattle, O = wolfSSL, OU = Development, CN = wolfSSL Intermediate2 CA ECC, emailAddress = info@wolfssl.com
        Validity
            Not Before: Sep 27 12:10:09 2023 GMT
            Not After : Sep 24 12:10:09 2033 GMT
        Subject: C = US, ST = Washington, L = Seattle, O = wolfSSL, OU = Development, CN = wolfSSL Server Chain ECC, emailAddress = info@wolfssl.com
        Subject Public Key Info:
            Public Key Algorithm: id-ecPublicKey
                Public-Key: (256 bit)
                pub:
                    04:bb:33:ac:4c:27:50:4a:c6:4a:a5:04:c3:3c:de:
                    9f:36:db:72:2d:ce:94:ea:2b:fa:cb:20:09:39:2c:
                    16:e8:61:02:e9:af:4d:d3:02:93:9a:31:5b:97:92:
                    21:7f:f0:cf:18:da:91:11:02:34:86:e8:20:58:33:
                    0b:80:34:89:d8
                ASN1 OID: prime256v1
                NIST CURVE: P-256
        X509v3 extensions:
            X509v3 Basic Constraints: 
                CA:FALSE
            Netscape Cert Type: 
                SSL Server
            X509v3 Subject Key Identifier: 
                5D:5D:26:EF:AC:7E:36:F9:9B:76:15:2B:4A:25:02:23:EF:B2:89:30
            X509v3 Authority Key Identifier: 
                keyid:9F:AE:7B:7A:70:80:04:55:2B:C6:B7:0C:5B:79:E4:12:41:65:31:29
                DirName:/C=US/ST=Washington/L=Seattle/O=wolfSSL/OU=Development/CN=wolfSSL Intermediate CA ECC/emailAddress=info@wolfssl.com
                serial:10:05
            X509v3 Key Usage: critical
                Digital Signature, Key Encipherment, Key Agreement
            X509v3 Extended Key Usage: 
                TLS Web Server Authentication
    Signature Algorithm: ecdsa-with-SHA256
    Signature Value:
        30:45:02:21:00:cd:89:cf:ce:26:69:1f:ef:60:37:ad:c9:e3:
        c8:61:06:fa:fa:b8:6f:3c:6b:12:55:a0:ff:e2:fa:9f:f8:47:
        93:02:20:69:4a:2e:3f:0d:c6:e7:4e:d1:29:e5:37:02:03:a9:
        2d:88:be:f8:08:be:1e:cb:0d:06:a3:21:8f:a8:60:a3:b5
-----BEGIN CERTIFICATE-----
MIIDcjCCAxigAwIBAgICEAYwCgYIKoZIzj0EAwIwgaQxCzAJBgNVBAYTAlVTMRMw
EQYDVQQIDApXYXNoaW5ndG9uMRAwDgYDVQQHDAdTZWF0dGxlMRAwDgYDVQQKDAd3
b2xmU1NMMRQwEgYDVQQLDAtEZXZlbG9wbWVudDElMCMGA1UEAwwcd29sZlNTTCBJ
bnRlcm1lZGlhdGUyIENBIEVDQzEfMB0GCSqGSIb3DQEJARYQaW5mb0B3b2xmc3Ns
LmNvbTAeFw0yMzA5MjcxMjEwMDlaFw0zMzA5MjQxMjEwMDlaMIGgMQswCQYDVQQG
EwJVUzETMBEGA1UECAwKV2FzaGluZ3RvbjEQMA4GA1UEBwwHU2VhdHRsZTEQMA4G
A1UECgwHd29sZlNTTDEUMBIGA1UECwwLRGV2ZWxvcG1lbnQxITAfBgNVBAMMGHdv
bGZTU0wgU2VydmVyIENoYWluIEVDQzEfMB0GCSqGSIb3DQEJARYQaW5mb0B3b2xm
c3NsLmNvbTBZMBMGByqGSM49AgEGCCqGSM49AwEHA0IABLszrEwnUErGSqUEwzze
nzbbci3OlOor+ssgCTksFuhhAumvTdMCk5oxW5eSIX/wzxjakRECNIboIFgzC4A0
idijggE6MIIBNjAJBgNVHRMEAjAAMBEGCWCGSAGG+EIBAQQEAwIGQDAdBgNVHQ4E
FgQUXV0m76x+NvmbdhUrSiUCI++yiTAwgdEGA1UdIwSByTCBxoAUn657enCABFUr
xrcMW3nkEkFlMSmhgamkgaYwgaMxCzAJBgNVBAYTAlVTMRMwEQYDVQQIDApXYXNo
aW5ndG9uMRAwDgYDVQQHDAdTZWF0dGxlMRAwDgYDVQQKDAd3b2xmU1NMMRQwEgYD
VQQLDAtEZXZlbG9wbWVudDEkMCIGA1UEAwwbd29sZlNTTCBJbnRlcm1lZGlhdGUg
Q0EgRUNDMR8wHQYJKoZIhvcNAQkBFhBpbmZvQHdvbGZzc2wuY29tggIQBTAOBgNV
HQ8BAf8EBAMCA6gwEwYDVR0lBAwwCgYIKwYBBQUHAwEwCgYIKoZIzj0EAwIDSAAw
RQIhAM2Jz84maR/vYDetyePIYQb6+rhvPGsSVaD/4vqf+EeTAiBpSi4/DcbnTtEp
5TcCA6ktiL74CL4eyw0GoyGPqGCjtQ==
-----END CERTIFICATE-----
