Certificate:
    Data:
        Version: 3 (0x2)
        Serial Number: 4098 (0x1002)
        Signature Algorithm: sha256WithRSAEncryption
        Issuer: C = US, ST = Washington, L = Seattle, O = wolfSSL, OU = Development, CN = wolfSSL Intermediate2 CA, emailAddress = info@wolfssl.com
        Validity
            Not Before: Sep 27 12:10:09 2023 GMT
            Not After : Sep 24 12:10:09 2033 GMT
        Subject: C = US, ST = Washington, L = Seattle, O = wolfSSL, OU = Development, CN = wolfSSL Server Chain, emailAddress = info@wolfssl.com
        Subject Public Key Info:
            Public Key Algorithm: rsaEncryption
                Public-Key: (2048 bit)
                Modulus:
                    00:c0:95:08:e1:57:41:f2:71:6d:b7:d2:45:41:27:
                    01:65:c6:45:ae:f2:bc:24:30:b8:95:ce:2f:4e:d6:
                    f6:1c:88:bc:7c:9f:fb:a8:67:7f:fe:5c:9c:51:75:
                    f7:8a:ca:07:e7:35:2f:8f:e1:bd:7b:c0:2f:7c:ab:
                    64:a8:17:fc:ca:5d:7b:ba:e0:21:e5:72:2e:6f:2e:
                    86:d8:95:73:da:ac:1b:53:b9:5f:3f:d7:19:0d:25:
                    4f:e1:63:63:51:8b:0b:64:3f:ad:43:b8:a5:1c:5c:
                    34:b3:ae:00:a0:63:c5:f6:7f:0b:59:68:78:73:a6:
                    8c:18:a9:02:6d:af:c3:19:01:2e:b8:10:e3:c6:cc:
                    40:b4:69:a3:46:33:69:87:6e:c4:bb:17:a6:f3:e8:
                    dd:ad:73:bc:7b:2f:21:b5:fd:66:51:0c:bd:54:b3:
                    e1:6d:5f:1c:bc:23:73:d1:09:03:89:14:d2:10:b9:
                    64:c3:2a:d0:a1:96:4a:bc:e1:d4:1a:5b:c7:a0:c0:
                    c1:63:78:0f:44:37:30:32:96:80:32:23:95:a1:77:
                    ba:13:d2:97:73:e2:5d:25:c9:6a:0d:c3:39:60:a4:
                    b4:b0:69:42:42:09:e9:d8:08:bc:33:20:b3:58:22:
                    a7:aa:eb:c4:e1:e6:61:83:c5:d2:96:df:d9:d0:4f:
                    ad:d7
                Exponent: 65537 (0x10001)
        X509v3 extensions:
            X509v3 Basic Constraints: 
                CA:FALSE
            Netscape Cert Type: 
                SSL Server
            X509v3 Subject Key Identifier: 
                B3:11:32:C9:92:98:84:E2:C9:F8:D0:3B:6E:03:42:CA:1F:0E:8E:3C
            X509v3 Authority Key Identifier: 
                keyid:0D:C9:60:20:43:58:81:E0:9A:21:EF:66:16:DC:6E:21:25:DF:2B:45
                DirName:/C=US/ST=Washington/L=Seattle/O=wolfSSL/OU=Development/CN=wolfSSL Intermediate CA/emailAddress=info@wolfssl.com
                serial:10:01
            X509v3 Key Usage: critical
                Digital Signature, Key Encipherment, Key Agreement
            X509v3 Extended Key Usage: 
                TLS Web Server Authentication
    Signature Algorithm: sha256WithRSAEncryption
    Signature Value:
        49:27:f0:d8:01:dc:ea:a6:f0:94:bf:22:6d:c7:a6:f9:1f:08:
        7e:75:b1:96:ac:56:51:e0:72:8b:65:2c:39:b7:74:78:97:da:
        21:52:d1:43:4c:d7:09:0e:13:80:8a:e8:45:90:0f:39:e4:72:
        df:40:08:21:f4:b5:69:a5:c2:04:21:57:d8:6b:91:17:d4:55:
        dc:73:6e:d7:cc:c7:d8:c1:66:ee:94:6f:18:47:8d:23:cf:c2:
        a4:3d:a4:45:d2:1a:7c:b8:23:79:e2:b4:ac:71:26:a4:1a:e3:
        a2:97:da:c8:85:00:e7:1f:7b:b2:05:db:ed:95:d8:16:59:0b:
        7b:23:01:eb:e6:4f:70:c2:ae:b7:7e:5b:2c:5a:73:6e:d2:a8:
        a6:3e:1b:9e:78:b5:3b:7d:1f:5f:a9:4b:ca:83:41:7f:48:18:
        b6:99:b9:8f:56:6c:33:0a:70:ca:6e:a6:f0:93:5d:3a:92:31:
        2d:c7:7c:1a:50:40:49:5d:d4:b2:8d:9a:d0:18:37:4e:25:a1:
        98:3c:ff:5f:3b:13:5e:4a:bc:f9:1c:c9:2a:9f:f2:f6:70:f2:
        f6:ec:e2:23:26:27:c8:8a:e8:0a:81:70:5f:6a:67:fc:57:6c:
        6f:da:fe:33:3f:21:96:65:b6:4f:f8:89:5a:92:0e:e1:2e:fd:
        0e:16:f5:6e
-----BEGIN CERTIFICATE-----
MIIE8jCCA9qgAwIBAgICEAIwDQYJKoZIhvcNAQELBQAwgaAxCzAJBgNVBAYTAlVT
MRMwEQYDVQQIDApXYXNoaW5ndG9uMRAwDgYDVQQHDAdTZWF0dGxlMRAwDgYDVQQK
DAd3b2xmU1NMMRQwEgYDVQQLDAtEZXZlbG9wbWVudDEhMB8GA1UEAwwYd29sZlNT
TCBJbnRlcm1lZGlhdGUyIENBMR8wHQYJKoZIhvcNAQkBFhBpbmZvQHdvbGZzc2wu
Y29tMB4XDTIzMDkyNzEyMTAwOVoXDTMzMDkyNDEyMTAwOVowgZwxCzAJBgNVBAYT
AlVTMRMwEQYDVQQIDApXYXNoaW5ndG9uMRAwDgYDVQQHDAdTZWF0dGxlMRAwDgYD
VQQKDAd3b2xmU1NMMRQwEgYDVQQLDAtEZXZlbG9wbWVudDEdMBsGA1UEAwwUd29s
ZlNTTCBTZXJ2ZXIgQ2hhaW4xHzAdBgkqhkiG9w0BCQEWEGluZm9Ad29sZnNzbC5j
b20wggEiMA0GCSqGSIb3DQEBAQUAA4IBDwAwggEKAoIBAQDAlQjhV0HycW230kVB
JwFlxkWu8rwkMLiVzi9O1vYciLx8n/uoZ3/+XJxRdfeKygfnNS+P4b17wC98q2So
F/zKXXu64CHlci5vLobYlXParBtTuV8/1xkNJU/hY2NRiwtkP61DuKUcXDSzrgCg
Y8X2fwtZaHhzpowYqQJtr8MZAS64EOPGzEC0aaNGM2mHbsS7F6bz6N2tc7x7LyG1
/WZRDL1Us+FtXxy8I3PRCQOJFNIQuWTDKtChlkq84dQaW8egwMFjeA9ENzAyloAy
I5Whd7oT0pdz4l0lyWoNwzlgpLSwaUJCCenYCLwzILNYIqeq68Th5mGDxdKW39nQ
T63XAgMBAAGjggE2MIIBMjAJBgNVHRMEAjAAMBEGCWCGSAGG+EIBAQQEAwIGQDAd
BgNVHQ4EFgQUsxEyyZKYhOLJ+NA7bgNCyh8Ojjwwgc0GA1UdIwSBxTCBwoAUDclg
IENYgeCaIe9mFtxuISXfK0WhgaWkgaIwgZ8xCzAJBgNVBAYTAlVTMRMwEQYDVQQI
DApXYXNoaW5ndG9uMRAwDgYDVQQHDAdTZWF0dGxlMRAwDgYDVQQKDAd3b2xmU1NM
MRQwEgYDVQQLDAtEZXZlbG9wbWVudDEgMB4GA1UEAwwXd29sZlNTTCBJbnRlcm1l
ZGlhdGUgQ0ExHzAdBgkqhkiG9w0BCQEWEGluZm9Ad29sZnNzbC5jb22CAhABMA4G
A1UdDwEB/wQEAwIDqDATBgNVHSUEDDAKBggrBgEFBQcDATANBgkqhkiG9w0BAQsF
AAOCAQEASSfw2AHc6qbwlL8ibcem+R8IfnWxlqxWUeByi2UsObd0eJfaIVLRQ0zX
CQ4TgIroRZAPOeRy30AIIfS1aaXCBCFX2GuRF9RV3HNu18zH2MFm7pRvGEeNI8/C
pD2kRdIafLgjeeK0rHEmpBrjopfayIUA5x97sgXb7ZXYFlkLeyMB6+ZPcMKut35b
LFpzbtKopj4bnni1O30fX6lLyoNBf0gYtpm5j1ZsMwpwym6m8JNdOpIxLcd8GlBA
SV3Uso2a0Bg3TiWhmDz/XzsTXkq8+RzJKp/y9nDy9uziIyYnyIroCoFwX2pn/Fds
b9r+Mz8hlmW2T/iJWpIO4S79Dhb1bg==
-----END CERTIFICATE-----
