Certificate:
    Data:
        Version: 3 (0x2)
        Serial Number: 1 (0x1)
        Signature Algorithm: SM2-with-SM3
        Issuer: C=US, ST=Montana, L=Bozeman, O=wolfSSL_SM2, OU=Root-SM2, CN=www.wolfssl.com, emailAddress=facts@wolfssl.com
        Validity
            Not Before: Jun 11 21:44:32 2026 GMT
            Not After : Mar  7 21:44:32 2029 GMT
        Subject: C=US, ST=Montana, L=Bozeman, O=wolfSSL_sm2, OU=CA-sm2, CN=www.wolfssl.com, emailAddress=facts@wolfssl.com, UID=wolfSSL
        Subject Public Key Info:
            Public Key Algorithm: sm2
                Public-Key: (256 bit)
                pub:
                    04:21:92:f7:cb:24:df:64:4d:ba:ab:66:7b:83:75:
                    a9:29:e7:ff:64:63:b6:d5:42:80:20:bd:e2:e2:02:
                    12:3b:8e:b4:00:95:09:80:cb:56:ed:4b:ca:8d:57:
                    e6:ae:05:d3:76:27:63:71:39:89:b7:69:e6:48:80:
                    ae:d1:a9:48:12
                ASN1 OID: SM2
        X509v3 extensions:
            X509v3 Subject Key Identifier: 
                47:0A:48:7E:BB:02:A8:5A:26:57:2B:19:A9:7B:61:8B:7F:5D:99:6E
            X509v3 Authority Key Identifier: 
                34:1D:79:44:15:79:A1:B1:63:99:E3:ED:65:7C:64:89:80:FF:B8:EC
            X509v3 Basic Constraints: critical
                CA:TRUE
            X509v3 Key Usage: critical
                Digital Signature, Certificate Sign, CRL Sign
    Signature Algorithm: SM2-with-SM3
    Signature Value:
        30:44:02:20:5e:58:bb:f4:2b:4c:0d:39:16:bb:5d:f1:79:11:
        d2:7c:f3:d1:34:1a:5c:e5:44:a0:c7:69:2b:de:de:ad:be:72:
        02:20:5b:dc:75:be:c2:54:e9:8a:79:38:5a:6e:b5:e5:6f:1c:
        71:ca:09:9a:11:36:45:52:4f:b3:91:56:62:fe:60:e1
-----BEGIN CERTIFICATE-----
MIIClzCCAj6gAwIBAgIBATAKBggqgRzPVQGDdTCBljELMAkGA1UEBhMCVVMxEDAO
BgNVBAgMB01vbnRhbmExEDAOBgNVBAcMB0JvemVtYW4xFDASBgNVBAoMC3dvbGZT
U0xfU00yMREwDwYDVQQLDAhSb290LVNNMjEYMBYGA1UEAwwPd3d3LndvbGZzc2wu
Y29tMSAwHgYJKoZIhvcNAQkBFhFmYWN0c0B3b2xmc3NsLmNvbTAeFw0yNjA2MTEy
MTQ0MzJaFw0yOTAzMDcyMTQ0MzJaMIGtMQswCQYDVQQGEwJVUzEQMA4GA1UECAwH
TW9udGFuYTEQMA4GA1UEBwwHQm96ZW1hbjEUMBIGA1UECgwLd29sZlNTTF9zbTIx
DzANBgNVBAsMBkNBLXNtMjEYMBYGA1UEAwwPd3d3LndvbGZzc2wuY29tMSAwHgYJ
KoZIhvcNAQkBFhFmYWN0c0B3b2xmc3NsLmNvbTEXMBUGCgmSJomT8ixkAQEMB3dv
bGZTU0wwWjAUBggqgRzPVQGCLQYIKoEcz1UBgi0DQgAEIZL3yyTfZE26q2Z7g3Wp
Kef/ZGO21UKAIL3i4gISO460AJUJgMtW7UvKjVfmrgXTdidjcTmJt2nmSICu0alI
EqNjMGEwHQYDVR0OBBYEFEcKSH67AqhaJlcrGal7YYt/XZluMB8GA1UdIwQYMBaA
FDQdeUQVeaGxY5nj7WV8ZImA/7jsMA8GA1UdEwEB/wQFMAMBAf8wDgYDVR0PAQH/
BAQDAgGGMAoGCCqBHM9VAYN1A0cAMEQCIF5Yu/QrTA05Frtd8XkR0nzz0TQaXOVE
oMdpK97erb5yAiBb3HW+wlTpink4Wm615W8cccoJmhE2RVJPs5FWYv5g4Q==
-----END CERTIFICATE-----
