Certificate:
    Data:
        Version: 3 (0x2)
        Serial Number:
            63:dd:75:63:8a:b0:51:4f:9c:4e:ff:6d:55:4e:cd:ee:8f:26:d3:80
        Signature Algorithm: SM2-with-SM3
        Issuer: C=US, ST=Montana, L=Bozeman, O=wolfSSL_sm2, OU=Client-sm2, CN=www.wolfssl.com, emailAddress=info@wolfssl.com, UID=wolfSSL
        Validity
            Not Before: Feb 18 17:56:57 2026 GMT
            Not After : Nov 14 17:56:57 2028 GMT
        Subject: C=US, ST=Montana, L=Bozeman, O=wolfSSL_sm2, OU=Client-sm2, CN=www.wolfssl.com, emailAddress=info@wolfssl.com, UID=wolfSSL
        Subject Public Key Info:
            Public Key Algorithm: sm2
                Public-Key: (256 bit)
                pub:
                    04:3a:1d:e8:cb:4b:d3:2e:3f:4b:07:3f:b0:21:fe:
                    c5:9e:d9:ca:3a:93:93:95:76:1d:30:d9:0b:f5:56:
                    ed:19:60:ed:01:4c:f6:67:1d:f1:ac:a8:74:0d:b2:
                    77:c8:49:38:e4:ff:4c:ef:8d:6d:87:f6:4e:c7:f8:
                    39:74:70:70:b5
                ASN1 OID: SM2
        X509v3 extensions:
            X509v3 Subject Key Identifier: 
                E4:21:B2:C5:E5:D4:9E:82:CA:F8:67:F2:28:99:F6:85:E8:F1:55:EF
            X509v3 Authority Key Identifier: 
                keyid:E4:21:B2:C5:E5:D4:9E:82:CA:F8:67:F2:28:99:F6:85:E8:F1:55:EF
                DirName:/C=US/ST=Montana/L=Bozeman/O=wolfSSL_sm2/OU=Client-sm2/CN=www.wolfssl.com/emailAddress=info@wolfssl.com/UID=wolfSSL
                serial:63:DD:75:63:8A:B0:51:4F:9C:4E:FF:6D:55:4E:CD:EE:8F:26:D3:80
            X509v3 Basic Constraints: 
                CA:TRUE
            X509v3 Subject Alternative Name: 
                DNS:example.com, IP Address:127.0.0.1
            X509v3 Extended Key Usage: 
                TLS Web Server Authentication, TLS Web Client Authentication
    Signature Algorithm: SM2-with-SM3
    Signature Value:
        30:46:02:21:00:dd:98:90:68:35:95:61:2f:11:90:a5:e9:30:
        8b:9a:aa:33:cc:73:8a:76:96:8b:97:8c:4c:c3:10:fc:14:56:
        9b:02:21:00:f8:de:db:67:54:59:ca:98:27:3d:3f:f6:6f:30:
        0c:65:e1:fb:a0:9f:11:ab:ea:76:30:31:c4:66:11:d7:b9:f2
-----BEGIN CERTIFICATE-----
MIIDyTCCA26gAwIBAgIUY911Y4qwUU+cTv9tVU7N7o8m04AwCgYIKoEcz1UBg3Uw
gbAxCzAJBgNVBAYTAlVTMRAwDgYDVQQIDAdNb250YW5hMRAwDgYDVQQHDAdCb3pl
bWFuMRQwEgYDVQQKDAt3b2xmU1NMX3NtMjETMBEGA1UECwwKQ2xpZW50LXNtMjEY
MBYGA1UEAwwPd3d3LndvbGZzc2wuY29tMR8wHQYJKoZIhvcNAQkBFhBpbmZvQHdv
bGZzc2wuY29tMRcwFQYKCZImiZPyLGQBAQwHd29sZlNTTDAeFw0yNjAyMTgxNzU2
NTdaFw0yODExMTQxNzU2NTdaMIGwMQswCQYDVQQGEwJVUzEQMA4GA1UECAwHTW9u
dGFuYTEQMA4GA1UEBwwHQm96ZW1hbjEUMBIGA1UECgwLd29sZlNTTF9zbTIxEzAR
BgNVBAsMCkNsaWVudC1zbTIxGDAWBgNVBAMMD3d3dy53b2xmc3NsLmNvbTEfMB0G
CSqGSIb3DQEJARYQaW5mb0B3b2xmc3NsLmNvbTEXMBUGCgmSJomT8ixkAQEMB3dv
bGZTU0wwWjAUBggqgRzPVQGCLQYIKoEcz1UBgi0DQgAEOh3oy0vTLj9LBz+wIf7F
ntnKOpOTlXYdMNkL9VbtGWDtAUz2Zx3xrKh0DbJ3yEk45P9M741th/ZOx/g5dHBw
taOCAWEwggFdMB0GA1UdDgQWBBTkIbLF5dSegsr4Z/IomfaF6PFV7zCB8AYDVR0j
BIHoMIHlgBTkIbLF5dSegsr4Z/IomfaF6PFV76GBtqSBszCBsDELMAkGA1UEBhMC
VVMxEDAOBgNVBAgMB01vbnRhbmExEDAOBgNVBAcMB0JvemVtYW4xFDASBgNVBAoM
C3dvbGZTU0xfc20yMRMwEQYDVQQLDApDbGllbnQtc20yMRgwFgYDVQQDDA93d3cu
d29sZnNzbC5jb20xHzAdBgkqhkiG9w0BCQEWEGluZm9Ad29sZnNzbC5jb20xFzAV
BgoJkiaJk/IsZAEBDAd3b2xmU1NMghRj3XVjirBRT5xO/21VTs3ujybTgDAMBgNV
HRMEBTADAQH/MBwGA1UdEQQVMBOCC2V4YW1wbGUuY29thwR/AAABMB0GA1UdJQQW
MBQGCCsGAQUFBwMBBggrBgEFBQcDAjAKBggqgRzPVQGDdQNJADBGAiEA3ZiQaDWV
YS8RkKXpMIuaqjPMc4p2louXjEzDEPwUVpsCIQD43ttnVFnKmCc9P/ZvMAxl4fug
nxGr6nYwMcRmEde58g==
-----END CERTIFICATE-----
