Certificate:
    Data:
        Version: 3 (0x2)
        Serial Number:
            34:cf:c0:ef:a0:c0:f8:fe:11:28:f9:f1:38:fa:d3:89:c0:55:f1:d1
        Signature Algorithm: SM2-with-SM3
        Issuer: C=US, ST=Montana, L=Bozeman, O=wolfSSL_sm2, OU=Client-sm2, CN=www.wolfssl.com, emailAddress=facts@wolfssl.com, UID=wolfSSL
        Validity
            Not Before: Jun 11 21:44:32 2026 GMT
            Not After : Mar  7 21:44:32 2029 GMT
        Subject: C=US, ST=Montana, L=Bozeman, O=wolfSSL_sm2, OU=Client-sm2, CN=www.wolfssl.com, emailAddress=facts@wolfssl.com, UID=wolfSSL
        Subject Public Key Info:
            Public Key Algorithm: sm2
                Public-Key: (256 bit)
                pub:
                    04:3a:1d:e8:cb:4b:d3:2e:3f:4b:07:3f:b0:21:fe:
                    c5:9e:d9:ca:3a:93:93:95:76:1d:30:d9:0b:f5:56:
                    ed:19:60:ed:01:4c:f6:67:1d:f1:ac:a8:74:0d:b2:
                    77:c8:49:38:e4:ff:4c:ef:8d:6d:87:f6:4e:c7:f8:
                    39:74:70:70:b5
                ASN1 OID: SM2
        X509v3 extensions:
            X509v3 Subject Key Identifier: 
                E4:21:B2:C5:E5:D4:9E:82:CA:F8:67:F2:28:99:F6:85:E8:F1:55:EF
            X509v3 Authority Key Identifier: 
                keyid:E4:21:B2:C5:E5:D4:9E:82:CA:F8:67:F2:28:99:F6:85:E8:F1:55:EF
                DirName:/C=US/ST=Montana/L=Bozeman/O=wolfSSL_sm2/OU=Client-sm2/CN=www.wolfssl.com/emailAddress=facts@wolfssl.com/UID=wolfSSL
                serial:34:CF:C0:EF:A0:C0:F8:FE:11:28:F9:F1:38:FA:D3:89:C0:55:F1:D1
            X509v3 Basic Constraints: 
                CA:TRUE
            X509v3 Subject Alternative Name: 
                DNS:example.com, IP Address:127.0.0.1
            X509v3 Extended Key Usage: 
                TLS Web Server Authentication, TLS Web Client Authentication
    Signature Algorithm: SM2-with-SM3
    Signature Value:
        30:46:02:21:00:db:02:a3:fe:3c:46:96:14:f5:bc:3e:c0:0c:
        ca:6c:40:ad:42:12:de:bc:2f:c8:05:ce:a9:c5:19:ef:7a:23:
        d4:02:21:00:ed:06:60:31:fc:b6:56:c3:29:17:cf:19:59:0c:
        64:e4:89:b5:17:bc:4d:b2:d1:9f:2d:fc:ec:1f:fa:7b:a1:e7
-----BEGIN CERTIFICATE-----
MIIDzDCCA3GgAwIBAgIUNM/A76DA+P4RKPnxOPrTicBV8dEwCgYIKoEcz1UBg3Uw
gbExCzAJBgNVBAYTAlVTMRAwDgYDVQQIDAdNb250YW5hMRAwDgYDVQQHDAdCb3pl
bWFuMRQwEgYDVQQKDAt3b2xmU1NMX3NtMjETMBEGA1UECwwKQ2xpZW50LXNtMjEY
MBYGA1UEAwwPd3d3LndvbGZzc2wuY29tMSAwHgYJKoZIhvcNAQkBFhFmYWN0c0B3
b2xmc3NsLmNvbTEXMBUGCgmSJomT8ixkAQEMB3dvbGZTU0wwHhcNMjYwNjExMjE0
NDMyWhcNMjkwMzA3MjE0NDMyWjCBsTELMAkGA1UEBhMCVVMxEDAOBgNVBAgMB01v
bnRhbmExEDAOBgNVBAcMB0JvemVtYW4xFDASBgNVBAoMC3dvbGZTU0xfc20yMRMw
EQYDVQQLDApDbGllbnQtc20yMRgwFgYDVQQDDA93d3cud29sZnNzbC5jb20xIDAe
BgkqhkiG9w0BCQEWEWZhY3RzQHdvbGZzc2wuY29tMRcwFQYKCZImiZPyLGQBAQwH
d29sZlNTTDBaMBQGCCqBHM9VAYItBggqgRzPVQGCLQNCAAQ6HejLS9MuP0sHP7Ah
/sWe2co6k5OVdh0w2Qv1Vu0ZYO0BTPZnHfGsqHQNsnfISTjk/0zvjW2H9k7H+Dl0
cHC1o4IBYjCCAV4wHQYDVR0OBBYEFOQhssXl1J6Cyvhn8iiZ9oXo8VXvMIHxBgNV
HSMEgekwgeaAFOQhssXl1J6Cyvhn8iiZ9oXo8VXvoYG3pIG0MIGxMQswCQYDVQQG
EwJVUzEQMA4GA1UECAwHTW9udGFuYTEQMA4GA1UEBwwHQm96ZW1hbjEUMBIGA1UE
CgwLd29sZlNTTF9zbTIxEzARBgNVBAsMCkNsaWVudC1zbTIxGDAWBgNVBAMMD3d3
dy53b2xmc3NsLmNvbTEgMB4GCSqGSIb3DQEJARYRZmFjdHNAd29sZnNzbC5jb20x
FzAVBgoJkiaJk/IsZAEBDAd3b2xmU1NMghQ0z8DvoMD4/hEo+fE4+tOJwFXx0TAM
BgNVHRMEBTADAQH/MBwGA1UdEQQVMBOCC2V4YW1wbGUuY29thwR/AAABMB0GA1Ud
JQQWMBQGCCsGAQUFBwMBBggrBgEFBQcDAjAKBggqgRzPVQGDdQNJADBGAiEA2wKj
/jxGlhT1vD7ADMpsQK1CEt68L8gFzqnFGe96I9QCIQDtBmAx/LZWwykXzxlZDGTk
ibUXvE2y0Z8t/Owf+nuh5w==
-----END CERTIFICATE-----
