Certificate:
    Data:
        Version: 3 (0x2)
        Serial Number:
            22:ce:97:23:6f:99:f4:f3:25:25:7e:01:76:ce:ae:80:56:b6:41:d1
        Signature Algorithm: SM2-with-SM3
        Issuer: C=US, ST=Montana, L=Bozeman, O=wolfSSL_sm2, OU=Client-sm2, CN=www.wolfssl.com, emailAddress=info@wolfssl.com, UID=wolfSSL
        Validity
            Not Before: Feb 18 14:27:26 2026 GMT
            Not After : Nov 14 14:27:26 2028 GMT
        Subject: C=US, ST=Montana, L=Bozeman, O=wolfSSL_sm2, OU=Client-sm2, CN=www.wolfssl.com, emailAddress=info@wolfssl.com, UID=wolfSSL
        Subject Public Key Info:
            Public Key Algorithm: id-ecPublicKey
                Public-Key: (256 bit)
                pub:
                    04:3a:1d:e8:cb:4b:d3:2e:3f:4b:07:3f:b0:21:fe:
                    c5:9e:d9:ca:3a:93:93:95:76:1d:30:d9:0b:f5:56:
                    ed:19:60:ed:01:4c:f6:67:1d:f1:ac:a8:74:0d:b2:
                    77:c8:49:38:e4:ff:4c:ef:8d:6d:87:f6:4e:c7:f8:
                    39:74:70:70:b5
                ASN1 OID: SM2
        X509v3 extensions:
            X509v3 Subject Key Identifier: 
                E4:21:B2:C5:E5:D4:9E:82:CA:F8:67:F2:28:99:F6:85:E8:F1:55:EF
            X509v3 Authority Key Identifier: 
                keyid:E4:21:B2:C5:E5:D4:9E:82:CA:F8:67:F2:28:99:F6:85:E8:F1:55:EF
                DirName:/C=US/ST=Montana/L=Bozeman/O=wolfSSL_sm2/OU=Client-sm2/CN=www.wolfssl.com/emailAddress=info@wolfssl.com/UID=wolfSSL
                serial:22:CE:97:23:6F:99:F4:F3:25:25:7E:01:76:CE:AE:80:56:B6:41:D1
            X509v3 Basic Constraints: 
                CA:TRUE
            X509v3 Subject Alternative Name: 
                DNS:example.com, IP Address:127.0.0.1
            X509v3 Extended Key Usage: 
                TLS Web Server Authentication, TLS Web Client Authentication
    Signature Algorithm: SM2-with-SM3
    Signature Value:
        30:44:02:20:27:71:25:22:69:ed:80:eb:3f:39:0e:7a:9b:a7:
        22:66:76:ef:d4:b4:5e:e8:8f:47:06:c7:2f:a4:f5:0f:09:6e:
        02:20:18:f9:bb:4c:4a:a0:a0:c9:ff:42:24:a1:9a:63:6b:ec:
        d1:25:e5:49:de:bd:83:e0:90:81:f4:23:49:f7:84:6e
-----BEGIN CERTIFICATE-----
MIIDxjCCA22gAwIBAgIUIs6XI2+Z9PMlJX4Bds6ugFa2QdEwCgYIKoEcz1UBg3Uw
gbAxCzAJBgNVBAYTAlVTMRAwDgYDVQQIDAdNb250YW5hMRAwDgYDVQQHDAdCb3pl
bWFuMRQwEgYDVQQKDAt3b2xmU1NMX3NtMjETMBEGA1UECwwKQ2xpZW50LXNtMjEY
MBYGA1UEAwwPd3d3LndvbGZzc2wuY29tMR8wHQYJKoZIhvcNAQkBFhBpbmZvQHdv
bGZzc2wuY29tMRcwFQYKCZImiZPyLGQBAQwHd29sZlNTTDAeFw0yNjAyMTgxNDI3
MjZaFw0yODExMTQxNDI3MjZaMIGwMQswCQYDVQQGEwJVUzEQMA4GA1UECAwHTW9u
dGFuYTEQMA4GA1UEBwwHQm96ZW1hbjEUMBIGA1UECgwLd29sZlNTTF9zbTIxEzAR
BgNVBAsMCkNsaWVudC1zbTIxGDAWBgNVBAMMD3d3dy53b2xmc3NsLmNvbTEfMB0G
CSqGSIb3DQEJARYQaW5mb0B3b2xmc3NsLmNvbTEXMBUGCgmSJomT8ixkAQEMB3dv
bGZTU0wwWTATBgcqhkjOPQIBBggqgRzPVQGCLQNCAAQ6HejLS9MuP0sHP7Ah/sWe
2co6k5OVdh0w2Qv1Vu0ZYO0BTPZnHfGsqHQNsnfISTjk/0zvjW2H9k7H+Dl0cHC1
o4IBYTCCAV0wHQYDVR0OBBYEFOQhssXl1J6Cyvhn8iiZ9oXo8VXvMIHwBgNVHSME
gegwgeWAFOQhssXl1J6Cyvhn8iiZ9oXo8VXvoYG2pIGzMIGwMQswCQYDVQQGEwJV
UzEQMA4GA1UECAwHTW9udGFuYTEQMA4GA1UEBwwHQm96ZW1hbjEUMBIGA1UECgwL
d29sZlNTTF9zbTIxEzARBgNVBAsMCkNsaWVudC1zbTIxGDAWBgNVBAMMD3d3dy53
b2xmc3NsLmNvbTEfMB0GCSqGSIb3DQEJARYQaW5mb0B3b2xmc3NsLmNvbTEXMBUG
CgmSJomT8ixkAQEMB3dvbGZTU0yCFCLOlyNvmfTzJSV+AXbOroBWtkHRMAwGA1Ud
EwQFMAMBAf8wHAYDVR0RBBUwE4ILZXhhbXBsZS5jb22HBH8AAAEwHQYDVR0lBBYw
FAYIKwYBBQUHAwEGCCsGAQUFBwMCMAoGCCqBHM9VAYN1A0cAMEQCICdxJSJp7YDr
PzkOepunImZ279S0XuiPRwbHL6T1DwluAiAY+btMSqCgyf9CJKGaY2vs0SXlSd69
g+CQgfQjSfeEbg==
-----END CERTIFICATE-----
