Certificate:
    Data:
        Version: 3 (0x2)
        Serial Number:
            44:c9:fc:33:05:6b:3c:f7:fc:15:02:02:f6:57:86:92:ca:7e:c2:31
        Signature Algorithm: SM2-with-SM3
        Issuer: C=US, ST=Montana, L=Bozeman, O=wolfSSL_SM2, OU=Root-SM2, CN=www.wolfssl.com, emailAddress=info@wolfssl.com
        Validity
            Not Before: Feb 18 14:27:26 2026 GMT
            Not After : Nov 14 14:27:26 2028 GMT
        Subject: C=US, ST=Montana, L=Bozeman, O=wolfSSL_SM2, OU=Root-SM2, CN=www.wolfssl.com, emailAddress=info@wolfssl.com
        Subject Public Key Info:
            Public Key Algorithm: id-ecPublicKey
                Public-Key: (256 bit)
                pub:
                    04:bb:9c:75:8c:f7:17:f8:48:ab:f7:f6:db:0d:9a:
                    8d:9f:c2:d1:47:97:95:0b:4e:e6:57:ec:c5:f8:57:
                    54:71:39:3c:79:e1:40:3f:b6:51:e9:7c:c7:da:2d:
                    ef:d2:e8:79:81:7b:ab:a3:5f:6b:2a:6c:97:1a:5e:
                    8e:d9:d0:cc:04
                ASN1 OID: SM2
        X509v3 extensions:
            X509v3 Subject Key Identifier: 
                34:1D:79:44:15:79:A1:B1:63:99:E3:ED:65:7C:64:89:80:FF:B8:EC
            X509v3 Authority Key Identifier: 
                34:1D:79:44:15:79:A1:B1:63:99:E3:ED:65:7C:64:89:80:FF:B8:EC
            X509v3 Basic Constraints: critical
                CA:TRUE
            X509v3 Key Usage: critical
                Digital Signature, Certificate Sign, CRL Sign
    Signature Algorithm: SM2-with-SM3
    Signature Value:
        30:46:02:21:00:87:f1:03:a0:b5:79:57:61:26:7e:73:1d:10:
        2f:dc:eb:e2:25:4a:a3:06:27:77:0d:d0:f4:ed:8d:53:62:83:
        6e:02:21:00:b6:e8:0b:78:ac:f6:79:e1:42:50:e1:46:68:6f:
        3f:4b:31:eb:ba:f0:04:40:5e:6a:50:39:a3:26:14:0d:5a:62
-----BEGIN CERTIFICATE-----
MIICkjCCAjegAwIBAgIURMn8MwVrPPf8FQIC9leGksp+wjEwCgYIKoEcz1UBg3Uw
gZUxCzAJBgNVBAYTAlVTMRAwDgYDVQQIDAdNb250YW5hMRAwDgYDVQQHDAdCb3pl
bWFuMRQwEgYDVQQKDAt3b2xmU1NMX1NNMjERMA8GA1UECwwIUm9vdC1TTTIxGDAW
BgNVBAMMD3d3dy53b2xmc3NsLmNvbTEfMB0GCSqGSIb3DQEJARYQaW5mb0B3b2xm
c3NsLmNvbTAeFw0yNjAyMTgxNDI3MjZaFw0yODExMTQxNDI3MjZaMIGVMQswCQYD
VQQGEwJVUzEQMA4GA1UECAwHTW9udGFuYTEQMA4GA1UEBwwHQm96ZW1hbjEUMBIG
A1UECgwLd29sZlNTTF9TTTIxETAPBgNVBAsMCFJvb3QtU00yMRgwFgYDVQQDDA93
d3cud29sZnNzbC5jb20xHzAdBgkqhkiG9w0BCQEWEGluZm9Ad29sZnNzbC5jb20w
WTATBgcqhkjOPQIBBggqgRzPVQGCLQNCAAS7nHWM9xf4SKv39tsNmo2fwtFHl5UL
TuZX7MX4V1RxOTx54UA/tlHpfMfaLe/S6HmBe6ujX2sqbJcaXo7Z0MwEo2MwYTAd
BgNVHQ4EFgQUNB15RBV5obFjmePtZXxkiYD/uOwwHwYDVR0jBBgwFoAUNB15RBV5
obFjmePtZXxkiYD/uOwwDwYDVR0TAQH/BAUwAwEB/zAOBgNVHQ8BAf8EBAMCAYYw
CgYIKoEcz1UBg3UDSQAwRgIhAIfxA6C1eVdhJn5zHRAv3OviJUqjBid3DdD07Y1T
YoNuAiEAtugLeKz2eeFCUOFGaG8/SzHruvAEQF5qUDmjJhQNWmI=
-----END CERTIFICATE-----
