Certificate:
    Data:
        Version: 3 (0x2)
        Serial Number:
            61:2a:93:12:b3:6e:ff:d6:9a:a7:98:c4:49:4d:c6:2c:3e:ea:5a:f9
        Signature Algorithm: SM2-with-SM3
        Issuer: C=US, ST=Montana, L=Bozeman, O=wolfSSL_SM2, OU=Root-SM2, CN=www.wolfssl.com, emailAddress=info@wolfssl.com
        Validity
            Not Before: Feb 18 17:56:57 2026 GMT
            Not After : Nov 14 17:56:57 2028 GMT
        Subject: C=US, ST=Montana, L=Bozeman, O=wolfSSL_SM2, OU=Root-SM2, CN=www.wolfssl.com, emailAddress=info@wolfssl.com
        Subject Public Key Info:
            Public Key Algorithm: sm2
                Public-Key: (256 bit)
                pub:
                    04:bb:9c:75:8c:f7:17:f8:48:ab:f7:f6:db:0d:9a:
                    8d:9f:c2:d1:47:97:95:0b:4e:e6:57:ec:c5:f8:57:
                    54:71:39:3c:79:e1:40:3f:b6:51:e9:7c:c7:da:2d:
                    ef:d2:e8:79:81:7b:ab:a3:5f:6b:2a:6c:97:1a:5e:
                    8e:d9:d0:cc:04
                ASN1 OID: SM2
        X509v3 extensions:
            X509v3 Subject Key Identifier: 
                34:1D:79:44:15:79:A1:B1:63:99:E3:ED:65:7C:64:89:80:FF:B8:EC
            X509v3 Authority Key Identifier: 
                34:1D:79:44:15:79:A1:B1:63:99:E3:ED:65:7C:64:89:80:FF:B8:EC
            X509v3 Basic Constraints: critical
                CA:TRUE
            X509v3 Key Usage: critical
                Digital Signature, Certificate Sign, CRL Sign
    Signature Algorithm: SM2-with-SM3
    Signature Value:
        30:46:02:21:00:fe:8d:2f:b9:c9:55:db:2c:d4:89:ff:a1:92:
        03:ce:4a:09:00:7f:c4:b3:b6:55:ae:a1:f6:7b:3e:ed:c4:dd:
        7c:02:21:00:d0:be:9b:4a:a9:cf:52:c1:cd:0d:bc:86:29:9e:
        c4:e2:f1:fa:86:f3:73:01:e2:3b:c5:cc:99:0a:bb:c3:a8:ee
-----BEGIN CERTIFICATE-----
MIICkzCCAjigAwIBAgIUYSqTErNu/9aap5jESU3GLD7qWvkwCgYIKoEcz1UBg3Uw
gZUxCzAJBgNVBAYTAlVTMRAwDgYDVQQIDAdNb250YW5hMRAwDgYDVQQHDAdCb3pl
bWFuMRQwEgYDVQQKDAt3b2xmU1NMX1NNMjERMA8GA1UECwwIUm9vdC1TTTIxGDAW
BgNVBAMMD3d3dy53b2xmc3NsLmNvbTEfMB0GCSqGSIb3DQEJARYQaW5mb0B3b2xm
c3NsLmNvbTAeFw0yNjAyMTgxNzU2NTdaFw0yODExMTQxNzU2NTdaMIGVMQswCQYD
VQQGEwJVUzEQMA4GA1UECAwHTW9udGFuYTEQMA4GA1UEBwwHQm96ZW1hbjEUMBIG
A1UECgwLd29sZlNTTF9TTTIxETAPBgNVBAsMCFJvb3QtU00yMRgwFgYDVQQDDA93
d3cud29sZnNzbC5jb20xHzAdBgkqhkiG9w0BCQEWEGluZm9Ad29sZnNzbC5jb20w
WjAUBggqgRzPVQGCLQYIKoEcz1UBgi0DQgAEu5x1jPcX+Eir9/bbDZqNn8LRR5eV
C07mV+zF+FdUcTk8eeFAP7ZR6XzH2i3v0uh5gXuro19rKmyXGl6O2dDMBKNjMGEw
HQYDVR0OBBYEFDQdeUQVeaGxY5nj7WV8ZImA/7jsMB8GA1UdIwQYMBaAFDQdeUQV
eaGxY5nj7WV8ZImA/7jsMA8GA1UdEwEB/wQFMAMBAf8wDgYDVR0PAQH/BAQDAgGG
MAoGCCqBHM9VAYN1A0kAMEYCIQD+jS+5yVXbLNSJ/6GSA85KCQB/xLO2Va6h9ns+
7cTdfAIhANC+m0qpz1LBzQ28himexOLx+obzcwHiO8XMmQq7w6ju
-----END CERTIFICATE-----
