Certificate:
    Data:
        Version: 3 (0x2)
        Serial Number:
            5b:d3:47:de:7c:47:a6:ff:0e:78:9b:cf:2a:de:e7:38:cc:de:96:7e
        Signature Algorithm: SM2-with-SM3
        Issuer: C=US, ST=Montana, L=Bozeman, O=wolfSSL_SM2, OU=Root-SM2, CN=www.wolfssl.com, emailAddress=facts@wolfssl.com
        Validity
            Not Before: Jun 11 21:44:31 2026 GMT
            Not After : Mar  7 21:44:31 2029 GMT
        Subject: C=US, ST=Montana, L=Bozeman, O=wolfSSL_SM2, OU=Root-SM2, CN=www.wolfssl.com, emailAddress=facts@wolfssl.com
        Subject Public Key Info:
            Public Key Algorithm: sm2
                Public-Key: (256 bit)
                pub:
                    04:bb:9c:75:8c:f7:17:f8:48:ab:f7:f6:db:0d:9a:
                    8d:9f:c2:d1:47:97:95:0b:4e:e6:57:ec:c5:f8:57:
                    54:71:39:3c:79:e1:40:3f:b6:51:e9:7c:c7:da:2d:
                    ef:d2:e8:79:81:7b:ab:a3:5f:6b:2a:6c:97:1a:5e:
                    8e:d9:d0:cc:04
                ASN1 OID: SM2
        X509v3 extensions:
            X509v3 Subject Key Identifier: 
                34:1D:79:44:15:79:A1:B1:63:99:E3:ED:65:7C:64:89:80:FF:B8:EC
            X509v3 Authority Key Identifier: 
                34:1D:79:44:15:79:A1:B1:63:99:E3:ED:65:7C:64:89:80:FF:B8:EC
            X509v3 Basic Constraints: critical
                CA:TRUE
            X509v3 Key Usage: critical
                Digital Signature, Certificate Sign, CRL Sign
    Signature Algorithm: SM2-with-SM3
    Signature Value:
        30:44:02:20:62:53:24:b9:70:c4:92:d3:fe:af:27:7c:64:20:
        09:3d:da:fc:ea:cf:1c:53:18:62:03:de:a8:0c:57:99:f5:51:
        02:20:2c:73:16:e0:16:86:e2:78:e1:e0:a0:29:60:2a:44:ba:
        11:88:cc:00:bd:17:1b:01:86:15:1e:df:79:a2:58:90
-----BEGIN CERTIFICATE-----
MIICkzCCAjqgAwIBAgIUW9NH3nxHpv8OeJvPKt7nOMzeln4wCgYIKoEcz1UBg3Uw
gZYxCzAJBgNVBAYTAlVTMRAwDgYDVQQIDAdNb250YW5hMRAwDgYDVQQHDAdCb3pl
bWFuMRQwEgYDVQQKDAt3b2xmU1NMX1NNMjERMA8GA1UECwwIUm9vdC1TTTIxGDAW
BgNVBAMMD3d3dy53b2xmc3NsLmNvbTEgMB4GCSqGSIb3DQEJARYRZmFjdHNAd29s
ZnNzbC5jb20wHhcNMjYwNjExMjE0NDMxWhcNMjkwMzA3MjE0NDMxWjCBljELMAkG
A1UEBhMCVVMxEDAOBgNVBAgMB01vbnRhbmExEDAOBgNVBAcMB0JvemVtYW4xFDAS
BgNVBAoMC3dvbGZTU0xfU00yMREwDwYDVQQLDAhSb290LVNNMjEYMBYGA1UEAwwP
d3d3LndvbGZzc2wuY29tMSAwHgYJKoZIhvcNAQkBFhFmYWN0c0B3b2xmc3NsLmNv
bTBaMBQGCCqBHM9VAYItBggqgRzPVQGCLQNCAAS7nHWM9xf4SKv39tsNmo2fwtFH
l5ULTuZX7MX4V1RxOTx54UA/tlHpfMfaLe/S6HmBe6ujX2sqbJcaXo7Z0MwEo2Mw
YTAdBgNVHQ4EFgQUNB15RBV5obFjmePtZXxkiYD/uOwwHwYDVR0jBBgwFoAUNB15
RBV5obFjmePtZXxkiYD/uOwwDwYDVR0TAQH/BAUwAwEB/zAOBgNVHQ8BAf8EBAMC
AYYwCgYIKoEcz1UBg3UDRwAwRAIgYlMkuXDEktP+ryd8ZCAJPdr86s8cUxhiA96o
DFeZ9VECICxzFuAWhuJ44eCgKWAqRLoRiMwAvRcbAYYVHt95oliQ
-----END CERTIFICATE-----
