Certificate:
    Data:
        Version: 3 (0x2)
        Serial Number:
            26:2d:4b:fe:64:7d:97:44:c8:85:22:01:96:b3:a5:db:1c:64:12:1b
        Signature Algorithm: SM2-with-SM3
        Issuer: C=AU, ST=QLD, O=wolfSSL, OU=Testing, CN=wolfssl-dev-sm2, emailAddress=info@wolfssl.com, UID=wolfSSL
        Validity
            Not Before: Feb 18 17:56:57 2026 GMT
            Not After : Nov 14 17:56:57 2028 GMT
        Subject: C=AU, ST=QLD, O=wolfSSL, OU=Testing, CN=wolfssl-dev-sm2, emailAddress=info@wolfssl.com, UID=wolfSSL
        Subject Public Key Info:
            Public Key Algorithm: sm2
                Public-Key: (256 bit)
                pub:
                    04:d8:c4:a1:f1:0b:8b:8d:c4:7d:dc:d4:65:b9:a5:
                    55:4e:fb:ac:33:ab:9b:43:94:4c:48:40:1b:33:d9:
                    1b:cc:31:c1:82:56:3f:b0:c0:6b:95:40:51:fd:88:
                    02:01:b1:b0:94:6c:06:eb:a7:da:8e:ee:70:b6:e5:
                    bb:b4:1e:e7:b4
                ASN1 OID: SM2
        X509v3 extensions:
            X509v3 Subject Key Identifier: 
                6E:97:E8:98:B6:5B:B6:AE:87:04:DB:14:56:66:16:F4:B8:2D:8C:F2
            X509v3 Authority Key Identifier: 
                6E:97:E8:98:B6:5B:B6:AE:87:04:DB:14:56:66:16:F4:B8:2D:8C:F2
            X509v3 Basic Constraints: critical
                CA:TRUE
            X509v3 Key Usage: critical
                Digital Signature, Certificate Sign, CRL Sign
    Signature Algorithm: SM2-with-SM3
    Signature Value:
        30:45:02:21:00:cb:1a:f6:3d:c5:63:4f:fb:23:c9:22:e5:c6:
        53:12:e0:90:81:42:ef:61:98:0b:c9:93:ff:27:59:e6:81:57:
        25:02:20:45:7a:6e:db:0f:15:c7:90:f0:ad:fe:a6:85:42:d3:
        dc:ed:7b:56:e6:12:6e:73:12:55:69:32:c5:16:22:f0:cd
-----BEGIN CERTIFICATE-----
MIICjjCCAjSgAwIBAgIUJi1L/mR9l0TIhSIBlrOl2xxkEhswCgYIKoEcz1UBg3Uw
gZMxCzAJBgNVBAYTAkFVMQwwCgYDVQQIDANRTEQxEDAOBgNVBAoMB3dvbGZTU0wx
EDAOBgNVBAsMB1Rlc3RpbmcxGDAWBgNVBAMMD3dvbGZzc2wtZGV2LXNtMjEfMB0G
CSqGSIb3DQEJARYQaW5mb0B3b2xmc3NsLmNvbTEXMBUGCgmSJomT8ixkAQEMB3dv
bGZTU0wwHhcNMjYwMjE4MTc1NjU3WhcNMjgxMTE0MTc1NjU3WjCBkzELMAkGA1UE
BhMCQVUxDDAKBgNVBAgMA1FMRDEQMA4GA1UECgwHd29sZlNTTDEQMA4GA1UECwwH
VGVzdGluZzEYMBYGA1UEAwwPd29sZnNzbC1kZXYtc20yMR8wHQYJKoZIhvcNAQkB
FhBpbmZvQHdvbGZzc2wuY29tMRcwFQYKCZImiZPyLGQBAQwHd29sZlNTTDBaMBQG
CCqBHM9VAYItBggqgRzPVQGCLQNCAATYxKHxC4uNxH3c1GW5pVVO+6wzq5tDlExI
QBsz2RvMMcGCVj+wwGuVQFH9iAIBsbCUbAbrp9qO7nC25bu0Hue0o2MwYTAdBgNV
HQ4EFgQUbpfomLZbtq6HBNsUVmYW9LgtjPIwHwYDVR0jBBgwFoAUbpfomLZbtq6H
BNsUVmYW9LgtjPIwDwYDVR0TAQH/BAUwAwEB/zAOBgNVHQ8BAf8EBAMCAYYwCgYI
KoEcz1UBg3UDSAAwRQIhAMsa9j3FY0/7I8ki5cZTEuCQgULvYZgLyZP/J1nmgVcl
AiBFem7bDxXHkPCt/qaFQtPc7XtW5hJucxJVaTLFFiLwzQ==
-----END CERTIFICATE-----
