Certificate:
    Data:
        Version: 3 (0x2)
        Serial Number:
            5a:4d:19:0c:5a:d6:78:7e:81:86:ec:3c:90:3a:31:f8:0c:be:8c:0f
        Signature Algorithm: SM2-with-SM3
        Issuer: C=AU, ST=QLD, O=wolfSSL, OU=Testing, CN=wolfssl-dev-sm2, emailAddress=info@wolfssl.com, UID=wolfSSL
        Validity
            Not Before: Feb 18 14:27:26 2026 GMT
            Not After : Nov 14 14:27:26 2028 GMT
        Subject: C=AU, ST=QLD, O=wolfSSL, OU=Testing, CN=wolfssl-dev-sm2, emailAddress=info@wolfssl.com, UID=wolfSSL
        Subject Public Key Info:
            Public Key Algorithm: id-ecPublicKey
                Public-Key: (256 bit)
                pub:
                    04:d8:c4:a1:f1:0b:8b:8d:c4:7d:dc:d4:65:b9:a5:
                    55:4e:fb:ac:33:ab:9b:43:94:4c:48:40:1b:33:d9:
                    1b:cc:31:c1:82:56:3f:b0:c0:6b:95:40:51:fd:88:
                    02:01:b1:b0:94:6c:06:eb:a7:da:8e:ee:70:b6:e5:
                    bb:b4:1e:e7:b4
                ASN1 OID: SM2
        X509v3 extensions:
            X509v3 Subject Key Identifier: 
                6E:97:E8:98:B6:5B:B6:AE:87:04:DB:14:56:66:16:F4:B8:2D:8C:F2
            X509v3 Authority Key Identifier: 
                6E:97:E8:98:B6:5B:B6:AE:87:04:DB:14:56:66:16:F4:B8:2D:8C:F2
            X509v3 Basic Constraints: critical
                CA:TRUE
            X509v3 Key Usage: critical
                Digital Signature, Certificate Sign, CRL Sign
    Signature Algorithm: SM2-with-SM3
    Signature Value:
        30:45:02:20:1b:ca:50:2d:8d:36:ae:cf:53:63:c7:77:b8:77:
        c3:83:61:9f:7f:62:d5:86:5d:30:b8:a7:ac:28:b2:b0:68:e4:
        02:21:00:ff:d7:47:b4:ae:d6:b8:d3:8d:b8:5d:b1:44:5e:10:
        16:91:e8:1b:06:95:12:b1:aa:42:f0:74:db:f6:ee:80:06
-----BEGIN CERTIFICATE-----
MIICjTCCAjOgAwIBAgIUWk0ZDFrWeH6Bhuw8kDox+Ay+jA8wCgYIKoEcz1UBg3Uw
gZMxCzAJBgNVBAYTAkFVMQwwCgYDVQQIDANRTEQxEDAOBgNVBAoMB3dvbGZTU0wx
EDAOBgNVBAsMB1Rlc3RpbmcxGDAWBgNVBAMMD3dvbGZzc2wtZGV2LXNtMjEfMB0G
CSqGSIb3DQEJARYQaW5mb0B3b2xmc3NsLmNvbTEXMBUGCgmSJomT8ixkAQEMB3dv
bGZTU0wwHhcNMjYwMjE4MTQyNzI2WhcNMjgxMTE0MTQyNzI2WjCBkzELMAkGA1UE
BhMCQVUxDDAKBgNVBAgMA1FMRDEQMA4GA1UECgwHd29sZlNTTDEQMA4GA1UECwwH
VGVzdGluZzEYMBYGA1UEAwwPd29sZnNzbC1kZXYtc20yMR8wHQYJKoZIhvcNAQkB
FhBpbmZvQHdvbGZzc2wuY29tMRcwFQYKCZImiZPyLGQBAQwHd29sZlNTTDBZMBMG
ByqGSM49AgEGCCqBHM9VAYItA0IABNjEofELi43EfdzUZbmlVU77rDOrm0OUTEhA
GzPZG8wxwYJWP7DAa5VAUf2IAgGxsJRsBuun2o7ucLblu7Qe57SjYzBhMB0GA1Ud
DgQWBBRul+iYtlu2rocE2xRWZhb0uC2M8jAfBgNVHSMEGDAWgBRul+iYtlu2rocE
2xRWZhb0uC2M8jAPBgNVHRMBAf8EBTADAQH/MA4GA1UdDwEB/wQEAwIBhjAKBggq
gRzPVQGDdQNIADBFAiAbylAtjTauz1Njx3e4d8ODYZ9/YtWGXTC4p6wosrBo5AIh
AP/XR7Su1rjTjbhdsUReEBaR6BsGlRKxqkLwdNv27oAG
-----END CERTIFICATE-----
