Certificate:
    Data:
        Version: 3 (0x2)
        Serial Number:
            25:79:1e:d2:c4:26:07:77:73:90:92:80:51:18:bf:ca:d6:4c:4e:df
        Signature Algorithm: SM2-with-SM3
        Issuer: C=AU, ST=QLD, O=wolfSSL, OU=Testing, CN=wolfssl-dev-sm2, emailAddress=facts@wolfssl.com, UID=wolfSSL
        Validity
            Not Before: Jun 11 21:44:32 2026 GMT
            Not After : Mar  7 21:44:32 2029 GMT
        Subject: C=AU, ST=QLD, O=wolfSSL, OU=Testing, CN=wolfssl-dev-sm2, emailAddress=facts@wolfssl.com, UID=wolfSSL
        Subject Public Key Info:
            Public Key Algorithm: sm2
                Public-Key: (256 bit)
                pub:
                    04:d8:c4:a1:f1:0b:8b:8d:c4:7d:dc:d4:65:b9:a5:
                    55:4e:fb:ac:33:ab:9b:43:94:4c:48:40:1b:33:d9:
                    1b:cc:31:c1:82:56:3f:b0:c0:6b:95:40:51:fd:88:
                    02:01:b1:b0:94:6c:06:eb:a7:da:8e:ee:70:b6:e5:
                    bb:b4:1e:e7:b4
                ASN1 OID: SM2
        X509v3 extensions:
            X509v3 Subject Key Identifier: 
                6E:97:E8:98:B6:5B:B6:AE:87:04:DB:14:56:66:16:F4:B8:2D:8C:F2
            X509v3 Authority Key Identifier: 
                6E:97:E8:98:B6:5B:B6:AE:87:04:DB:14:56:66:16:F4:B8:2D:8C:F2
            X509v3 Basic Constraints: critical
                CA:TRUE
            X509v3 Key Usage: critical
                Digital Signature, Certificate Sign, CRL Sign
    Signature Algorithm: SM2-with-SM3
    Signature Value:
        30:44:02:20:1a:e6:1d:73:11:16:9d:99:1e:68:0e:c0:da:e4:
        95:bf:8f:e9:c0:de:03:53:36:7c:5e:41:2e:3b:93:36:44:96:
        02:20:20:7a:d5:25:c5:ae:bb:40:00:18:15:ce:87:67:3f:6e:
        7f:8b:22:21:65:66:3d:3c:4a:a5:77:f6:42:45:da:e9
-----BEGIN CERTIFICATE-----
MIICjzCCAjagAwIBAgIUJXke0sQmB3dzkJKAURi/ytZMTt8wCgYIKoEcz1UBg3Uw
gZQxCzAJBgNVBAYTAkFVMQwwCgYDVQQIDANRTEQxEDAOBgNVBAoMB3dvbGZTU0wx
EDAOBgNVBAsMB1Rlc3RpbmcxGDAWBgNVBAMMD3dvbGZzc2wtZGV2LXNtMjEgMB4G
CSqGSIb3DQEJARYRZmFjdHNAd29sZnNzbC5jb20xFzAVBgoJkiaJk/IsZAEBDAd3
b2xmU1NMMB4XDTI2MDYxMTIxNDQzMloXDTI5MDMwNzIxNDQzMlowgZQxCzAJBgNV
BAYTAkFVMQwwCgYDVQQIDANRTEQxEDAOBgNVBAoMB3dvbGZTU0wxEDAOBgNVBAsM
B1Rlc3RpbmcxGDAWBgNVBAMMD3dvbGZzc2wtZGV2LXNtMjEgMB4GCSqGSIb3DQEJ
ARYRZmFjdHNAd29sZnNzbC5jb20xFzAVBgoJkiaJk/IsZAEBDAd3b2xmU1NMMFow
FAYIKoEcz1UBgi0GCCqBHM9VAYItA0IABNjEofELi43EfdzUZbmlVU77rDOrm0OU
TEhAGzPZG8wxwYJWP7DAa5VAUf2IAgGxsJRsBuun2o7ucLblu7Qe57SjYzBhMB0G
A1UdDgQWBBRul+iYtlu2rocE2xRWZhb0uC2M8jAfBgNVHSMEGDAWgBRul+iYtlu2
rocE2xRWZhb0uC2M8jAPBgNVHRMBAf8EBTADAQH/MA4GA1UdDwEB/wQEAwIBhjAK
BggqgRzPVQGDdQNHADBEAiAa5h1zERadmR5oDsDa5JW/j+nA3gNTNnxeQS47kzZE
lgIgIHrVJcWuu0AAGBXOh2c/bn+LIiFlZj08SqV39kJF2uk=
-----END CERTIFICATE-----
