Certificate:
    Data:
        Version: 3 (0x2)
        Serial Number: 1 (0x1)
        Signature Algorithm: SM2-with-SM3
        Issuer: C=US, ST=Montana, L=Bozeman, O=wolfSSL_sm2, OU=CA-sm2, CN=www.wolfssl.com, emailAddress=info@wolfssl.com, UID=wolfSSL
        Validity
            Not Before: Feb 18 14:27:26 2026 GMT
            Not After : Nov 14 14:27:26 2028 GMT
        Subject: C=US, ST=Montana, L=Bozeman, O=wolfSSL_sm2, OU=Server-sm2, CN=www.wolfssl.com, emailAddress=info@wolfssl.com, UID=wolfSSL
        Subject Public Key Info:
            Public Key Algorithm: id-ecPublicKey
                Public-Key: (256 bit)
                pub:
                    04:94:70:2b:46:e4:5e:0f:41:fb:8f:2d:34:0a:41:
                    40:19:5e:fb:d4:1d:11:ac:fa:f5:93:37:c6:fa:87:
                    08:f7:16:1f:2c:ce:30:40:9d:4f:a6:2a:0a:a1:d6:
                    95:33:c3:a6:03:98:e6:8d:05:34:b0:97:0c:de:a4:
                    c7:cf:53:8f:d1
                ASN1 OID: SM2
        X509v3 extensions:
            X509v3 Subject Key Identifier: 
                67:AE:60:FF:7E:1B:0F:95:AE:1F:82:59:F2:6C:56:2D:93:EF:17:32
            X509v3 Authority Key Identifier: 
                47:0A:48:7E:BB:02:A8:5A:26:57:2B:19:A9:7B:61:8B:7F:5D:99:6E
            X509v3 Basic Constraints: critical
                CA:FALSE
            X509v3 Key Usage: critical
                Digital Signature, Key Encipherment, Key Agreement
            X509v3 Extended Key Usage: 
                TLS Web Server Authentication
            Netscape Cert Type: 
                SSL Server
    Signature Algorithm: SM2-with-SM3
    Signature Value:
        30:45:02:20:07:11:e4:64:42:5a:2b:74:1d:7d:bb:81:33:7f:
        fd:5c:bd:93:f5:73:09:fc:23:5a:c4:f6:94:fc:4d:6a:da:ee:
        02:21:00:fb:f5:72:b6:cc:6c:92:d6:38:68:01:c5:ab:cb:9b:
        d7:dc:cc:bb:6f:38:4e:1b:85:7d:d7:9c:a4:ed:b8:29:c8
-----BEGIN CERTIFICATE-----
MIIC1zCCAn2gAwIBAgIBATAKBggqgRzPVQGDdTCBrDELMAkGA1UEBhMCVVMxEDAO
BgNVBAgMB01vbnRhbmExEDAOBgNVBAcMB0JvemVtYW4xFDASBgNVBAoMC3dvbGZT
U0xfc20yMQ8wDQYDVQQLDAZDQS1zbTIxGDAWBgNVBAMMD3d3dy53b2xmc3NsLmNv
bTEfMB0GCSqGSIb3DQEJARYQaW5mb0B3b2xmc3NsLmNvbTEXMBUGCgmSJomT8ixk
AQEMB3dvbGZTU0wwHhcNMjYwMjE4MTQyNzI2WhcNMjgxMTE0MTQyNzI2WjCBsDEL
MAkGA1UEBhMCVVMxEDAOBgNVBAgMB01vbnRhbmExEDAOBgNVBAcMB0JvemVtYW4x
FDASBgNVBAoMC3dvbGZTU0xfc20yMRMwEQYDVQQLDApTZXJ2ZXItc20yMRgwFgYD
VQQDDA93d3cud29sZnNzbC5jb20xHzAdBgkqhkiG9w0BCQEWEGluZm9Ad29sZnNz
bC5jb20xFzAVBgoJkiaJk/IsZAEBDAd3b2xmU1NMMFkwEwYHKoZIzj0CAQYIKoEc
z1UBgi0DQgAElHArRuReD0H7jy00CkFAGV771B0RrPr1kzfG+ocI9xYfLM4wQJ1P
pioKodaVM8OmA5jmjQU0sJcM3qTHz1OP0aOBiTCBhjAdBgNVHQ4EFgQUZ65g/34b
D5WuH4JZ8mxWLZPvFzIwHwYDVR0jBBgwFoAURwpIfrsCqFomVysZqXthi39dmW4w
DAYDVR0TAQH/BAIwADAOBgNVHQ8BAf8EBAMCA6gwEwYDVR0lBAwwCgYIKwYBBQUH
AwEwEQYJYIZIAYb4QgEBBAQDAgZAMAoGCCqBHM9VAYN1A0gAMEUCIAcR5GRCWit0
HX27gTN//Vy9k/VzCfwjWsT2lPxNatruAiEA+/VytsxsktY4aAHFq8ub19zMu284
ThuFfdecpO24Kcg=
-----END CERTIFICATE-----
Certificate:
    Data:
        Version: 3 (0x2)
        Serial Number: 1 (0x1)
        Signature Algorithm: SM2-with-SM3
        Issuer: C=US, ST=Montana, L=Bozeman, O=wolfSSL_SM2, OU=Root-SM2, CN=www.wolfssl.com, emailAddress=info@wolfssl.com
        Validity
            Not Before: Feb 18 14:27:26 2026 GMT
            Not After : Nov 14 14:27:26 2028 GMT
        Subject: C=US, ST=Montana, L=Bozeman, O=wolfSSL_sm2, OU=CA-sm2, CN=www.wolfssl.com, emailAddress=info@wolfssl.com, UID=wolfSSL
        Subject Public Key Info:
            Public Key Algorithm: id-ecPublicKey
                Public-Key: (256 bit)
                pub:
                    04:21:92:f7:cb:24:df:64:4d:ba:ab:66:7b:83:75:
                    a9:29:e7:ff:64:63:b6:d5:42:80:20:bd:e2:e2:02:
                    12:3b:8e:b4:00:95:09:80:cb:56:ed:4b:ca:8d:57:
                    e6:ae:05:d3:76:27:63:71:39:89:b7:69:e6:48:80:
                    ae:d1:a9:48:12
                ASN1 OID: SM2
        X509v3 extensions:
            X509v3 Subject Key Identifier: 
                47:0A:48:7E:BB:02:A8:5A:26:57:2B:19:A9:7B:61:8B:7F:5D:99:6E
            X509v3 Authority Key Identifier: 
                34:1D:79:44:15:79:A1:B1:63:99:E3:ED:65:7C:64:89:80:FF:B8:EC
            X509v3 Basic Constraints: critical
                CA:TRUE
            X509v3 Key Usage: critical
                Digital Signature, Certificate Sign, CRL Sign
    Signature Algorithm: SM2-with-SM3
    Signature Value:
        30:46:02:21:00:ba:6b:14:b0:ef:08:bf:4c:32:63:62:2e:e1:
        5d:04:d9:45:04:79:c9:bf:9a:93:9f:05:44:f5:e6:33:64:b4:
        7e:02:21:00:e3:17:fe:87:35:30:f2:3b:ab:16:2d:5e:30:76:
        42:4e:cc:85:96:b9:2f:af:55:00:a5:4f:43:7c:13:54:3f:4f
-----BEGIN CERTIFICATE-----
MIICljCCAjugAwIBAgIBATAKBggqgRzPVQGDdTCBlTELMAkGA1UEBhMCVVMxEDAO
BgNVBAgMB01vbnRhbmExEDAOBgNVBAcMB0JvemVtYW4xFDASBgNVBAoMC3dvbGZT
U0xfU00yMREwDwYDVQQLDAhSb290LVNNMjEYMBYGA1UEAwwPd3d3LndvbGZzc2wu
Y29tMR8wHQYJKoZIhvcNAQkBFhBpbmZvQHdvbGZzc2wuY29tMB4XDTI2MDIxODE0
MjcyNloXDTI4MTExNDE0MjcyNlowgawxCzAJBgNVBAYTAlVTMRAwDgYDVQQIDAdN
b250YW5hMRAwDgYDVQQHDAdCb3plbWFuMRQwEgYDVQQKDAt3b2xmU1NMX3NtMjEP
MA0GA1UECwwGQ0Etc20yMRgwFgYDVQQDDA93d3cud29sZnNzbC5jb20xHzAdBgkq
hkiG9w0BCQEWEGluZm9Ad29sZnNzbC5jb20xFzAVBgoJkiaJk/IsZAEBDAd3b2xm
U1NMMFkwEwYHKoZIzj0CAQYIKoEcz1UBgi0DQgAEIZL3yyTfZE26q2Z7g3WpKef/
ZGO21UKAIL3i4gISO460AJUJgMtW7UvKjVfmrgXTdidjcTmJt2nmSICu0alIEqNj
MGEwHQYDVR0OBBYEFEcKSH67AqhaJlcrGal7YYt/XZluMB8GA1UdIwQYMBaAFDQd
eUQVeaGxY5nj7WV8ZImA/7jsMA8GA1UdEwEB/wQFMAMBAf8wDgYDVR0PAQH/BAQD
AgGGMAoGCCqBHM9VAYN1A0kAMEYCIQC6axSw7wi/TDJjYi7hXQTZRQR5yb+ak58F
RPXmM2S0fgIhAOMX/oc1MPI7qxYtXjB2Qk7MhZa5L69VAKVPQ3wTVD9P
-----END CERTIFICATE-----
