Certificate:
    Data:
        Version: 3 (0x2)
        Serial Number: 1 (0x1)
        Signature Algorithm: SM2-with-SM3
        Issuer: C=US, ST=Montana, L=Bozeman, O=wolfSSL_sm2, OU=CA-sm2, CN=www.wolfssl.com, emailAddress=info@wolfssl.com, UID=wolfSSL
        Validity
            Not Before: Feb 18 17:56:57 2026 GMT
            Not After : Nov 14 17:56:57 2028 GMT
        Subject: C=US, ST=Montana, L=Bozeman, O=wolfSSL_sm2, OU=Server-sm2, CN=www.wolfssl.com, emailAddress=info@wolfssl.com, UID=wolfSSL
        Subject Public Key Info:
            Public Key Algorithm: sm2
                Public-Key: (256 bit)
                pub:
                    04:94:70:2b:46:e4:5e:0f:41:fb:8f:2d:34:0a:41:
                    40:19:5e:fb:d4:1d:11:ac:fa:f5:93:37:c6:fa:87:
                    08:f7:16:1f:2c:ce:30:40:9d:4f:a6:2a:0a:a1:d6:
                    95:33:c3:a6:03:98:e6:8d:05:34:b0:97:0c:de:a4:
                    c7:cf:53:8f:d1
                ASN1 OID: SM2
        X509v3 extensions:
            X509v3 Subject Key Identifier: 
                67:AE:60:FF:7E:1B:0F:95:AE:1F:82:59:F2:6C:56:2D:93:EF:17:32
            X509v3 Authority Key Identifier: 
                47:0A:48:7E:BB:02:A8:5A:26:57:2B:19:A9:7B:61:8B:7F:5D:99:6E
            X509v3 Basic Constraints: critical
                CA:FALSE
            X509v3 Key Usage: critical
                Digital Signature, Key Encipherment, Key Agreement
            X509v3 Extended Key Usage: 
                TLS Web Server Authentication
            Netscape Cert Type: 
                SSL Server
    Signature Algorithm: SM2-with-SM3
    Signature Value:
        30:46:02:21:00:96:50:5f:3e:3f:bf:1e:50:6c:9a:5d:4e:8e:
        ef:27:a1:4d:fa:b9:75:a6:58:0e:f6:db:60:32:20:e4:31:1d:
        36:02:21:00:e7:cb:5c:9f:85:7d:4c:b5:54:74:e4:45:c4:f0:
        01:53:51:33:07:dd:28:c6:c7:47:ff:d6:dc:b0:e1:36:cc:3b
-----BEGIN CERTIFICATE-----
MIIC2TCCAn6gAwIBAgIBATAKBggqgRzPVQGDdTCBrDELMAkGA1UEBhMCVVMxEDAO
BgNVBAgMB01vbnRhbmExEDAOBgNVBAcMB0JvemVtYW4xFDASBgNVBAoMC3dvbGZT
U0xfc20yMQ8wDQYDVQQLDAZDQS1zbTIxGDAWBgNVBAMMD3d3dy53b2xmc3NsLmNv
bTEfMB0GCSqGSIb3DQEJARYQaW5mb0B3b2xmc3NsLmNvbTEXMBUGCgmSJomT8ixk
AQEMB3dvbGZTU0wwHhcNMjYwMjE4MTc1NjU3WhcNMjgxMTE0MTc1NjU3WjCBsDEL
MAkGA1UEBhMCVVMxEDAOBgNVBAgMB01vbnRhbmExEDAOBgNVBAcMB0JvemVtYW4x
FDASBgNVBAoMC3dvbGZTU0xfc20yMRMwEQYDVQQLDApTZXJ2ZXItc20yMRgwFgYD
VQQDDA93d3cud29sZnNzbC5jb20xHzAdBgkqhkiG9w0BCQEWEGluZm9Ad29sZnNz
bC5jb20xFzAVBgoJkiaJk/IsZAEBDAd3b2xmU1NMMFowFAYIKoEcz1UBgi0GCCqB
HM9VAYItA0IABJRwK0bkXg9B+48tNApBQBle+9QdEaz69ZM3xvqHCPcWHyzOMECd
T6YqCqHWlTPDpgOY5o0FNLCXDN6kx89Tj9GjgYkwgYYwHQYDVR0OBBYEFGeuYP9+
Gw+Vrh+CWfJsVi2T7xcyMB8GA1UdIwQYMBaAFEcKSH67AqhaJlcrGal7YYt/XZlu
MAwGA1UdEwEB/wQCMAAwDgYDVR0PAQH/BAQDAgOoMBMGA1UdJQQMMAoGCCsGAQUF
BwMBMBEGCWCGSAGG+EIBAQQEAwIGQDAKBggqgRzPVQGDdQNJADBGAiEAllBfPj+/
HlBsml1Oju8noU36uXWmWA7222AyIOQxHTYCIQDny1yfhX1MtVR05EXE8AFTUTMH
3SjGx0f/1tyw4TbMOw==
-----END CERTIFICATE-----
Certificate:
    Data:
        Version: 3 (0x2)
        Serial Number: 1 (0x1)
        Signature Algorithm: SM2-with-SM3
        Issuer: C=US, ST=Montana, L=Bozeman, O=wolfSSL_SM2, OU=Root-SM2, CN=www.wolfssl.com, emailAddress=info@wolfssl.com
        Validity
            Not Before: Feb 18 17:56:57 2026 GMT
            Not After : Nov 14 17:56:57 2028 GMT
        Subject: C=US, ST=Montana, L=Bozeman, O=wolfSSL_sm2, OU=CA-sm2, CN=www.wolfssl.com, emailAddress=info@wolfssl.com, UID=wolfSSL
        Subject Public Key Info:
            Public Key Algorithm: sm2
                Public-Key: (256 bit)
                pub:
                    04:21:92:f7:cb:24:df:64:4d:ba:ab:66:7b:83:75:
                    a9:29:e7:ff:64:63:b6:d5:42:80:20:bd:e2:e2:02:
                    12:3b:8e:b4:00:95:09:80:cb:56:ed:4b:ca:8d:57:
                    e6:ae:05:d3:76:27:63:71:39:89:b7:69:e6:48:80:
                    ae:d1:a9:48:12
                ASN1 OID: SM2
        X509v3 extensions:
            X509v3 Subject Key Identifier: 
                47:0A:48:7E:BB:02:A8:5A:26:57:2B:19:A9:7B:61:8B:7F:5D:99:6E
            X509v3 Authority Key Identifier: 
                34:1D:79:44:15:79:A1:B1:63:99:E3:ED:65:7C:64:89:80:FF:B8:EC
            X509v3 Basic Constraints: critical
                CA:TRUE
            X509v3 Key Usage: critical
                Digital Signature, Certificate Sign, CRL Sign
    Signature Algorithm: SM2-with-SM3
    Signature Value:
        30:46:02:21:00:b2:b9:5b:02:ad:78:f8:52:ba:67:cf:cb:25:
        9b:ba:d9:56:f5:a7:ff:af:25:26:d5:f6:f3:f3:a6:f5:9a:2f:
        9b:02:21:00:bc:96:f3:39:13:76:dc:02:35:39:0e:dc:0a:69:
        bf:02:18:b6:01:be:ff:05:d7:2e:f2:7b:67:eb:16:e9:8e:c5
-----BEGIN CERTIFICATE-----
MIIClzCCAjygAwIBAgIBATAKBggqgRzPVQGDdTCBlTELMAkGA1UEBhMCVVMxEDAO
BgNVBAgMB01vbnRhbmExEDAOBgNVBAcMB0JvemVtYW4xFDASBgNVBAoMC3dvbGZT
U0xfU00yMREwDwYDVQQLDAhSb290LVNNMjEYMBYGA1UEAwwPd3d3LndvbGZzc2wu
Y29tMR8wHQYJKoZIhvcNAQkBFhBpbmZvQHdvbGZzc2wuY29tMB4XDTI2MDIxODE3
NTY1N1oXDTI4MTExNDE3NTY1N1owgawxCzAJBgNVBAYTAlVTMRAwDgYDVQQIDAdN
b250YW5hMRAwDgYDVQQHDAdCb3plbWFuMRQwEgYDVQQKDAt3b2xmU1NMX3NtMjEP
MA0GA1UECwwGQ0Etc20yMRgwFgYDVQQDDA93d3cud29sZnNzbC5jb20xHzAdBgkq
hkiG9w0BCQEWEGluZm9Ad29sZnNzbC5jb20xFzAVBgoJkiaJk/IsZAEBDAd3b2xm
U1NMMFowFAYIKoEcz1UBgi0GCCqBHM9VAYItA0IABCGS98sk32RNuqtme4N1qSnn
/2RjttVCgCC94uICEjuOtACVCYDLVu1Lyo1X5q4F03YnY3E5ibdp5kiArtGpSBKj
YzBhMB0GA1UdDgQWBBRHCkh+uwKoWiZXKxmpe2GLf12ZbjAfBgNVHSMEGDAWgBQ0
HXlEFXmhsWOZ4+1lfGSJgP+47DAPBgNVHRMBAf8EBTADAQH/MA4GA1UdDwEB/wQE
AwIBhjAKBggqgRzPVQGDdQNJADBGAiEAsrlbAq14+FK6Z8/LJZu62Vb1p/+vJSbV
9vPzpvWaL5sCIQC8lvM5E3bcAjU5DtwKab8CGLYBvv8F1y7ye2frFumOxQ==
-----END CERTIFICATE-----
