Certificate:
    Data:
        Version: 3 (0x2)
        Serial Number: 1 (0x1)
        Signature Algorithm: SM2-with-SM3
        Issuer: C=US, ST=Montana, L=Bozeman, O=wolfSSL_sm2, OU=CA-sm2, CN=www.wolfssl.com, emailAddress=facts@wolfssl.com, UID=wolfSSL
        Validity
            Not Before: Jun 11 21:44:32 2026 GMT
            Not After : Mar  7 21:44:32 2029 GMT
        Subject: C=US, ST=Montana, L=Bozeman, O=wolfSSL_sm2, OU=Server-sm2, CN=www.wolfssl.com, emailAddress=facts@wolfssl.com, UID=wolfSSL
        Subject Public Key Info:
            Public Key Algorithm: sm2
                Public-Key: (256 bit)
                pub:
                    04:94:70:2b:46:e4:5e:0f:41:fb:8f:2d:34:0a:41:
                    40:19:5e:fb:d4:1d:11:ac:fa:f5:93:37:c6:fa:87:
                    08:f7:16:1f:2c:ce:30:40:9d:4f:a6:2a:0a:a1:d6:
                    95:33:c3:a6:03:98:e6:8d:05:34:b0:97:0c:de:a4:
                    c7:cf:53:8f:d1
                ASN1 OID: SM2
        X509v3 extensions:
            X509v3 Subject Key Identifier: 
                67:AE:60:FF:7E:1B:0F:95:AE:1F:82:59:F2:6C:56:2D:93:EF:17:32
            X509v3 Authority Key Identifier: 
                47:0A:48:7E:BB:02:A8:5A:26:57:2B:19:A9:7B:61:8B:7F:5D:99:6E
            X509v3 Basic Constraints: critical
                CA:FALSE
            X509v3 Key Usage: critical
                Digital Signature, Key Encipherment, Key Agreement
            X509v3 Extended Key Usage: 
                TLS Web Server Authentication
            Netscape Cert Type: 
                SSL Server
    Signature Algorithm: SM2-with-SM3
    Signature Value:
        30:45:02:21:00:9a:64:8d:ea:89:7c:fb:b2:79:e4:d7:9c:ff:
        fe:8c:48:f8:b2:fc:5a:fc:d5:55:8c:a8:c7:bb:c2:66:d0:32:
        29:02:20:6d:c1:8b:61:fc:3f:e7:ad:12:50:8d:04:83:07:ae:
        4a:03:94:ea:33:06:ce:b5:b0:87:39:16:78:7c:43:11:40
-----BEGIN CERTIFICATE-----
MIIC2jCCAoCgAwIBAgIBATAKBggqgRzPVQGDdTCBrTELMAkGA1UEBhMCVVMxEDAO
BgNVBAgMB01vbnRhbmExEDAOBgNVBAcMB0JvemVtYW4xFDASBgNVBAoMC3dvbGZT
U0xfc20yMQ8wDQYDVQQLDAZDQS1zbTIxGDAWBgNVBAMMD3d3dy53b2xmc3NsLmNv
bTEgMB4GCSqGSIb3DQEJARYRZmFjdHNAd29sZnNzbC5jb20xFzAVBgoJkiaJk/Is
ZAEBDAd3b2xmU1NMMB4XDTI2MDYxMTIxNDQzMloXDTI5MDMwNzIxNDQzMlowgbEx
CzAJBgNVBAYTAlVTMRAwDgYDVQQIDAdNb250YW5hMRAwDgYDVQQHDAdCb3plbWFu
MRQwEgYDVQQKDAt3b2xmU1NMX3NtMjETMBEGA1UECwwKU2VydmVyLXNtMjEYMBYG
A1UEAwwPd3d3LndvbGZzc2wuY29tMSAwHgYJKoZIhvcNAQkBFhFmYWN0c0B3b2xm
c3NsLmNvbTEXMBUGCgmSJomT8ixkAQEMB3dvbGZTU0wwWjAUBggqgRzPVQGCLQYI
KoEcz1UBgi0DQgAElHArRuReD0H7jy00CkFAGV771B0RrPr1kzfG+ocI9xYfLM4w
QJ1PpioKodaVM8OmA5jmjQU0sJcM3qTHz1OP0aOBiTCBhjAdBgNVHQ4EFgQUZ65g
/34bD5WuH4JZ8mxWLZPvFzIwHwYDVR0jBBgwFoAURwpIfrsCqFomVysZqXthi39d
mW4wDAYDVR0TAQH/BAIwADAOBgNVHQ8BAf8EBAMCA6gwEwYDVR0lBAwwCgYIKwYB
BQUHAwEwEQYJYIZIAYb4QgEBBAQDAgZAMAoGCCqBHM9VAYN1A0gAMEUCIQCaZI3q
iXz7snnk15z//oxI+LL8WvzVVYyox7vCZtAyKQIgbcGLYfw/560SUI0EgweuSgOU
6jMGzrWwhzkWeHxDEUA=
-----END CERTIFICATE-----
Certificate:
    Data:
        Version: 3 (0x2)
        Serial Number: 1 (0x1)
        Signature Algorithm: SM2-with-SM3
        Issuer: C=US, ST=Montana, L=Bozeman, O=wolfSSL_SM2, OU=Root-SM2, CN=www.wolfssl.com, emailAddress=facts@wolfssl.com
        Validity
            Not Before: Jun 11 21:44:32 2026 GMT
            Not After : Mar  7 21:44:32 2029 GMT
        Subject: C=US, ST=Montana, L=Bozeman, O=wolfSSL_sm2, OU=CA-sm2, CN=www.wolfssl.com, emailAddress=facts@wolfssl.com, UID=wolfSSL
        Subject Public Key Info:
            Public Key Algorithm: sm2
                Public-Key: (256 bit)
                pub:
                    04:21:92:f7:cb:24:df:64:4d:ba:ab:66:7b:83:75:
                    a9:29:e7:ff:64:63:b6:d5:42:80:20:bd:e2:e2:02:
                    12:3b:8e:b4:00:95:09:80:cb:56:ed:4b:ca:8d:57:
                    e6:ae:05:d3:76:27:63:71:39:89:b7:69:e6:48:80:
                    ae:d1:a9:48:12
                ASN1 OID: SM2
        X509v3 extensions:
            X509v3 Subject Key Identifier: 
                47:0A:48:7E:BB:02:A8:5A:26:57:2B:19:A9:7B:61:8B:7F:5D:99:6E
            X509v3 Authority Key Identifier: 
                34:1D:79:44:15:79:A1:B1:63:99:E3:ED:65:7C:64:89:80:FF:B8:EC
            X509v3 Basic Constraints: critical
                CA:TRUE
            X509v3 Key Usage: critical
                Digital Signature, Certificate Sign, CRL Sign
    Signature Algorithm: SM2-with-SM3
    Signature Value:
        30:44:02:20:5e:58:bb:f4:2b:4c:0d:39:16:bb:5d:f1:79:11:
        d2:7c:f3:d1:34:1a:5c:e5:44:a0:c7:69:2b:de:de:ad:be:72:
        02:20:5b:dc:75:be:c2:54:e9:8a:79:38:5a:6e:b5:e5:6f:1c:
        71:ca:09:9a:11:36:45:52:4f:b3:91:56:62:fe:60:e1
-----BEGIN CERTIFICATE-----
MIIClzCCAj6gAwIBAgIBATAKBggqgRzPVQGDdTCBljELMAkGA1UEBhMCVVMxEDAO
BgNVBAgMB01vbnRhbmExEDAOBgNVBAcMB0JvemVtYW4xFDASBgNVBAoMC3dvbGZT
U0xfU00yMREwDwYDVQQLDAhSb290LVNNMjEYMBYGA1UEAwwPd3d3LndvbGZzc2wu
Y29tMSAwHgYJKoZIhvcNAQkBFhFmYWN0c0B3b2xmc3NsLmNvbTAeFw0yNjA2MTEy
MTQ0MzJaFw0yOTAzMDcyMTQ0MzJaMIGtMQswCQYDVQQGEwJVUzEQMA4GA1UECAwH
TW9udGFuYTEQMA4GA1UEBwwHQm96ZW1hbjEUMBIGA1UECgwLd29sZlNTTF9zbTIx
DzANBgNVBAsMBkNBLXNtMjEYMBYGA1UEAwwPd3d3LndvbGZzc2wuY29tMSAwHgYJ
KoZIhvcNAQkBFhFmYWN0c0B3b2xmc3NsLmNvbTEXMBUGCgmSJomT8ixkAQEMB3dv
bGZTU0wwWjAUBggqgRzPVQGCLQYIKoEcz1UBgi0DQgAEIZL3yyTfZE26q2Z7g3Wp
Kef/ZGO21UKAIL3i4gISO460AJUJgMtW7UvKjVfmrgXTdidjcTmJt2nmSICu0alI
EqNjMGEwHQYDVR0OBBYEFEcKSH67AqhaJlcrGal7YYt/XZluMB8GA1UdIwQYMBaA
FDQdeUQVeaGxY5nj7WV8ZImA/7jsMA8GA1UdEwEB/wQFMAMBAf8wDgYDVR0PAQH/
BAQDAgGGMAoGCCqBHM9VAYN1A0cAMEQCIF5Yu/QrTA05Frtd8XkR0nzz0TQaXOVE
oMdpK97erb5yAiBb3HW+wlTpink4Wm615W8cccoJmhE2RVJPs5FWYv5g4Q==
-----END CERTIFICATE-----
