Certificate:
    Data:
        Version: 3 (0x2)
        Serial Number: 1 (0x1)
        Signature Algorithm: SM2-with-SM3
        Issuer: C=US, ST=Montana, L=Bozeman, O=wolfSSL_sm2, OU=CA-sm2, CN=www.wolfssl.com, emailAddress=facts@wolfssl.com, UID=wolfSSL
        Validity
            Not Before: Jun 11 21:44:32 2026 GMT
            Not After : Mar  7 21:44:32 2029 GMT
        Subject: C=US, ST=Montana, L=Bozeman, O=wolfSSL_sm2, OU=Server-sm2, CN=www.wolfssl.com, emailAddress=facts@wolfssl.com, UID=wolfSSL
        Subject Public Key Info:
            Public Key Algorithm: sm2
                Public-Key: (256 bit)
                pub:
                    04:94:70:2b:46:e4:5e:0f:41:fb:8f:2d:34:0a:41:
                    40:19:5e:fb:d4:1d:11:ac:fa:f5:93:37:c6:fa:87:
                    08:f7:16:1f:2c:ce:30:40:9d:4f:a6:2a:0a:a1:d6:
                    95:33:c3:a6:03:98:e6:8d:05:34:b0:97:0c:de:a4:
                    c7:cf:53:8f:d1
                ASN1 OID: SM2
        X509v3 extensions:
            X509v3 Subject Key Identifier: 
                67:AE:60:FF:7E:1B:0F:95:AE:1F:82:59:F2:6C:56:2D:93:EF:17:32
            X509v3 Authority Key Identifier: 
                47:0A:48:7E:BB:02:A8:5A:26:57:2B:19:A9:7B:61:8B:7F:5D:99:6E
            X509v3 Basic Constraints: critical
                CA:FALSE
            X509v3 Key Usage: critical
                Digital Signature, Key Encipherment, Key Agreement
            X509v3 Extended Key Usage: 
                TLS Web Server Authentication
            Netscape Cert Type: 
                SSL Server
    Signature Algorithm: SM2-with-SM3
    Signature Value:
        30:45:02:21:00:9a:64:8d:ea:89:7c:fb:b2:79:e4:d7:9c:ff:
        fe:8c:48:f8:b2:fc:5a:fc:d5:55:8c:a8:c7:bb:c2:66:d0:32:
        29:02:20:6d:c1:8b:61:fc:3f:e7:ad:12:50:8d:04:83:07:ae:
        4a:03:94:ea:33:06:ce:b5:b0:87:39:16:78:7c:43:11:40
-----BEGIN CERTIFICATE-----
MIIC2jCCAoCgAwIBAgIBATAKBggqgRzPVQGDdTCBrTELMAkGA1UEBhMCVVMxEDAO
BgNVBAgMB01vbnRhbmExEDAOBgNVBAcMB0JvemVtYW4xFDASBgNVBAoMC3dvbGZT
U0xfc20yMQ8wDQYDVQQLDAZDQS1zbTIxGDAWBgNVBAMMD3d3dy53b2xmc3NsLmNv
bTEgMB4GCSqGSIb3DQEJARYRZmFjdHNAd29sZnNzbC5jb20xFzAVBgoJkiaJk/Is
ZAEBDAd3b2xmU1NMMB4XDTI2MDYxMTIxNDQzMloXDTI5MDMwNzIxNDQzMlowgbEx
CzAJBgNVBAYTAlVTMRAwDgYDVQQIDAdNb250YW5hMRAwDgYDVQQHDAdCb3plbWFu
MRQwEgYDVQQKDAt3b2xmU1NMX3NtMjETMBEGA1UECwwKU2VydmVyLXNtMjEYMBYG
A1UEAwwPd3d3LndvbGZzc2wuY29tMSAwHgYJKoZIhvcNAQkBFhFmYWN0c0B3b2xm
c3NsLmNvbTEXMBUGCgmSJomT8ixkAQEMB3dvbGZTU0wwWjAUBggqgRzPVQGCLQYI
KoEcz1UBgi0DQgAElHArRuReD0H7jy00CkFAGV771B0RrPr1kzfG+ocI9xYfLM4w
QJ1PpioKodaVM8OmA5jmjQU0sJcM3qTHz1OP0aOBiTCBhjAdBgNVHQ4EFgQUZ65g
/34bD5WuH4JZ8mxWLZPvFzIwHwYDVR0jBBgwFoAURwpIfrsCqFomVysZqXthi39d
mW4wDAYDVR0TAQH/BAIwADAOBgNVHQ8BAf8EBAMCA6gwEwYDVR0lBAwwCgYIKwYB
BQUHAwEwEQYJYIZIAYb4QgEBBAQDAgZAMAoGCCqBHM9VAYN1A0gAMEUCIQCaZI3q
iXz7snnk15z//oxI+LL8WvzVVYyox7vCZtAyKQIgbcGLYfw/560SUI0EgweuSgOU
6jMGzrWwhzkWeHxDEUA=
-----END CERTIFICATE-----
