Certificate Revocation List (CRL):
        Version 2 (0x1)
        Signature Algorithm: sha256WithRSAEncryption
        Issuer: C=US, ST=Montana, L=Bozeman, O=Sawtooth, OU=Consulting, CN=www.wolfssl.com, emailAddress=facts@wolfssl.com
        Last Update: Jun 11 21:44:41 2026 GMT
        Next Update: Mar  7 21:44:41 2029 GMT
        CRL extensions:
            X509v3 CRL Number: 
                0x444444444444444444444444444444444444444444444444444444444444444444444444444444444444444444444444444444444444444444
No Revoked Certificates.
    Signature Algorithm: sha256WithRSAEncryption
    Signature Value:
        7f:46:ca:12:fa:84:2d:83:ee:33:4c:11:60:c0:f5:7c:e3:a4:
        51:2b:7c:eb:dc:2d:03:8b:eb:6b:43:07:cc:ec:fc:ce:00:37:
        72:ae:25:ad:d4:13:07:0d:e7:77:65:3f:56:9a:ca:3c:5a:c1:
        ec:47:2c:ba:8a:d1:ba:de:9f:62:d4:ed:20:d5:7a:a9:4c:38:
        93:88:28:86:47:aa:5f:a7:28:e2:bb:d8:8d:a7:74:7e:fe:3e:
        93:13:fe:3c:15:cf:2d:10:54:78:69:4b:1f:8a:f2:da:9b:27:
        2d:d8:00:cf:c3:73:61:06:fe:91:a0:94:92:0b:51:9d:d6:a9:
        9b:ae:bf:6f:c9:b6:23:9f:67:a1:a6:15:ce:74:5c:aa:bc:9e:
        cd:b3:e7:ef:57:e1:77:8b:a6:a5:35:10:7f:b1:bd:ca:d1:d9:
        db:18:20:46:bd:0c:6a:b6:33:90:02:7d:64:ae:f3:ba:e1:11:
        7a:03:e0:d1:91:cc:99:35:6a:1e:ab:02:14:0f:13:56:39:a6:
        1c:1e:7a:ef:91:27:f2:43:1f:a7:95:5d:13:d5:96:56:0a:f4:
        2f:21:50:35:d9:45:1c:d5:5f:e6:54:21:99:1b:a0:b5:85:6e:
        e8:47:e6:37:dc:6e:bf:e2:46:af:e1:66:56:a3:99:99:46:69:
        b4:83:9d:c9
-----BEGIN X509 CRL-----
MIICKDCCARACAQEwDQYJKoZIhvcNAQELBQAwgZUxCzAJBgNVBAYTAlVTMRAwDgYD
VQQIDAdNb250YW5hMRAwDgYDVQQHDAdCb3plbWFuMREwDwYDVQQKDAhTYXd0b290
aDETMBEGA1UECwwKQ29uc3VsdGluZzEYMBYGA1UEAwwPd3d3LndvbGZzc2wuY29t
MSAwHgYJKoZIhvcNAQkBFhFmYWN0c0B3b2xmc3NsLmNvbRcNMjYwNjExMjE0NDQx
WhcNMjkwMzA3MjE0NDQxWqBGMEQwQgYDVR0UBDsCOURERERERERERERERERERERE
RERERERERERERERERERERERERERERERERERERERERERERERERERERDANBgkqhkiG
9w0BAQsFAAOCAQEAf0bKEvqELYPuM0wRYMD1fOOkUSt869wtA4vra0MHzOz8zgA3
cq4lrdQTBw3nd2U/VprKPFrB7EcsuorRut6fYtTtINV6qUw4k4gohkeqX6co4rvY
jad0fv4+kxP+PBXPLRBUeGlLH4ry2psnLdgAz8NzYQb+kaCUkgtRndapm66/b8m2
I59noaYVznRcqryezbPn71fhd4umpTUQf7G9ytHZ2xggRr0MarYzkAJ9ZK7zuuER
egPg0ZHMmTVqHqsCFA8TVjmmHB5675En8kMfp5VdE9WWVgr0LyFQNdlFHNVf5lQh
mRugtYVu6EfmN9xuv+JGr+FmVqOZmUZptIOdyQ==
-----END X509 CRL-----
