Certificate Revocation List (CRL):
        Version 2 (0x1)
        Signature Algorithm: sha256WithRSAEncryption
        Issuer: C=US, ST=Montana, L=Bozeman, O=Sawtooth, OU=Consulting, CN=www.wolfssl.com, emailAddress=facts@wolfssl.com
        Last Update: Jun 11 21:44:41 2026 GMT
        Next Update: Mar  7 21:44:41 2029 GMT
        CRL extensions:
            X509v3 CRL Number: 
                0x44444444444444444444444444444444444444444444444444444444444444444444444444444444444444444444444444444444444444444444444444444444
No Revoked Certificates.
    Signature Algorithm: sha256WithRSAEncryption
    Signature Value:
        61:c8:e6:87:19:fb:be:19:1e:37:2b:86:5c:fb:69:2f:06:3b:
        8e:40:06:15:7c:0a:e9:7e:43:65:47:f4:7d:43:61:22:29:a9:
        16:0e:5a:ee:30:2b:89:5b:d1:0d:4d:51:74:01:43:06:29:2e:
        84:3d:65:03:0a:cc:12:c2:e1:4e:ca:88:63:1d:32:24:21:8f:
        6c:98:07:f9:7d:20:1b:56:9c:55:67:2b:52:0d:f5:49:78:e4:
        38:d6:e2:c4:a7:28:fe:f2:b2:61:2a:5d:3d:08:26:94:a7:a3:
        b9:01:49:18:93:90:b9:be:6d:0c:de:3c:47:36:af:ad:40:d2:
        0a:6b:bb:a6:cf:d2:0f:cc:65:2c:b6:3f:10:65:e4:9e:63:fe:
        78:bf:b0:70:71:be:c8:50:2b:77:bb:4f:d3:28:2d:dd:9c:cf:
        c7:fc:f6:50:13:98:fe:66:4a:de:8b:c9:1b:b0:ec:ea:90:fe:
        2c:9c:72:d1:67:72:32:a5:20:d8:0a:1e:67:78:44:83:fb:e7:
        ae:c2:72:86:fd:d9:9b:73:d7:92:d7:7a:b8:4b:07:b5:45:f3:
        67:02:ae:12:4f:3e:3d:b7:b0:a5:67:5e:3c:4c:f1:59:c8:d0:
        f4:99:bc:21:76:32:7c:45:3e:d9:e4:da:85:ec:d9:a3:3d:ed:
        00:19:47:ce
-----BEGIN X509 CRL-----
MIICLzCCARcCAQEwDQYJKoZIhvcNAQELBQAwgZUxCzAJBgNVBAYTAlVTMRAwDgYD
VQQIDAdNb250YW5hMRAwDgYDVQQHDAdCb3plbWFuMREwDwYDVQQKDAhTYXd0b290
aDETMBEGA1UECwwKQ29uc3VsdGluZzEYMBYGA1UEAwwPd3d3LndvbGZzc2wuY29t
MSAwHgYJKoZIhvcNAQkBFhFmYWN0c0B3b2xmc3NsLmNvbRcNMjYwNjExMjE0NDQx
WhcNMjkwMzA3MjE0NDQxWqBNMEswSQYDVR0UBEICQERERERERERERERERERERERE
REREREREREREREREREREREREREREREREREREREREREREREREREREREREREREREQw
DQYJKoZIhvcNAQELBQADggEBAGHI5ocZ+74ZHjcrhlz7aS8GO45ABhV8Cul+Q2VH
9H1DYSIpqRYOWu4wK4lb0Q1NUXQBQwYpLoQ9ZQMKzBLC4U7KiGMdMiQhj2yYB/l9
IBtWnFVnK1IN9Ul45DjW4sSnKP7ysmEqXT0IJpSno7kBSRiTkLm+bQzePEc2r61A
0gpru6bP0g/MZSy2PxBl5J5j/ni/sHBxvshQK3e7T9MoLd2cz8f89lATmP5mSt6L
yRuw7OqQ/iycctFncjKlINgKHmd4RIP7567Ccob92Ztz15LXerhLB7VF82cCrhJP
Pj23sKVnXjxM8VnI0PSZvCF2MnxFPtnk2oXs2aM97QAZR84=
-----END X509 CRL-----
