Certificate Revocation List (CRL):
        Version 2 (0x1)
        Signature Algorithm: sha256WithRSAEncryption
        Issuer: C=US, ST=Montana, L=Bozeman, O=Sawtooth, OU=Consulting, CN=www.wolfssl.com, emailAddress=info@wolfssl.com
        Last Update: Mar  5 05:15:20 2026 GMT
        Next Update: Nov 29 05:15:20 2028 GMT
        CRL extensions:
            X509v3 CRL Number: 
                0x444444444444444444444444444444444444444444444444444444444444444444444444444444444444444444444444444444444444444444
Revoked Certificates:
    Serial Number: 01
        Revocation Date: Mar  5 05:15:20 2026 GMT
    Signature Algorithm: sha256WithRSAEncryption
    Signature Value:
        2d:38:2c:0e:27:b8:55:dd:0c:c5:1b:9d:13:b9:6a:c4:05:6d:
        43:37:41:ee:d7:e1:5e:7f:2c:3e:72:14:9d:0b:f0:89:f8:06:
        3c:75:21:cf:8a:5d:3b:56:3c:c6:a9:b1:56:2e:84:c2:05:60:
        8b:86:33:d0:0b:ab:ba:37:9f:13:af:a1:2e:40:c6:35:f0:b3:
        e3:ce:40:2f:4a:65:2b:72:ab:54:c2:56:b7:ca:8a:54:22:c9:
        ba:d2:fb:ab:f6:e1:cb:05:ae:25:3a:11:ce:bf:9b:0a:9a:37:
        1a:05:3e:a2:c4:98:68:71:78:70:58:d6:6b:93:97:36:54:7b:
        73:1c:24:5b:19:a8:f4:da:c6:73:f1:58:1a:e6:53:0d:88:d9:
        b8:b1:e7:f7:f6:13:4c:8d:86:d7:51:c8:89:93:1f:f0:e5:0a:
        4c:01:21:9b:ad:fe:ed:5b:0f:77:71:8e:3b:ec:3c:e0:c9:3e:
        ed:a0:20:f8:51:6c:bc:a9:57:27:13:ff:1d:28:70:41:ce:42:
        05:9f:f5:1f:d4:73:13:89:c0:9e:34:d1:8f:12:9d:07:2b:2e:
        1d:3b:ba:5e:18:72:b7:11:f7:3b:54:59:7d:81:57:1f:25:02:
        c5:e1:58:b5:f8:01:e0:62:6d:92:50:bc:c4:f9:26:4e:72:37:
        16:42:e0:c1
-----BEGIN X509 CRL-----
MIICPTCCASUCAQEwDQYJKoZIhvcNAQELBQAwgZQxCzAJBgNVBAYTAlVTMRAwDgYD
VQQIDAdNb250YW5hMRAwDgYDVQQHDAdCb3plbWFuMREwDwYDVQQKDAhTYXd0b290
aDETMBEGA1UECwwKQ29uc3VsdGluZzEYMBYGA1UEAwwPd3d3LndvbGZzc2wuY29t
MR8wHQYJKoZIhvcNAQkBFhBpbmZvQHdvbGZzc2wuY29tFw0yNjAzMDUwNTE1MjBa
Fw0yODExMjkwNTE1MjBaMBQwEgIBARcNMjYwMzA1MDUxNTIwWqBGMEQwQgYDVR0U
BDsCOURERERERERERERERERERERERERERERERERERERERERERERERERERERERERE
RERERERERERERERERDANBgkqhkiG9w0BAQsFAAOCAQEALTgsDie4Vd0MxRudE7lq
xAVtQzdB7tfhXn8sPnIUnQvwifgGPHUhz4pdO1Y8xqmxVi6EwgVgi4Yz0Aurujef
E6+hLkDGNfCz485AL0plK3KrVMJWt8qKVCLJutL7q/bhywWuJToRzr+bCpo3GgU+
osSYaHF4cFjWa5OXNlR7cxwkWxmo9NrGc/FYGuZTDYjZuLHn9/YTTI2G11HIiZMf
8OUKTAEhm63+7VsPd3GOO+w84Mk+7aAg+FFsvKlXJxP/HShwQc5CBZ/1H9RzE4nA
njTRjxKdBysuHTu6XhhytxH3O1RZfYFXHyUCxeFYtfgB4GJtklC8xPkmTnI3FkLg
wQ==
-----END X509 CRL-----
