Certificate Revocation List (CRL):
        Version 2 (0x1)
        Signature Algorithm: sha256WithRSAEncryption
        Issuer: C=US, ST=Montana, L=Bozeman, O=Sawtooth, OU=Consulting, CN=www.wolfssl.com, emailAddress=info@wolfssl.com
        Last Update: Mar  5 05:15:20 2026 GMT
        Next Update: Nov 29 05:15:20 2028 GMT
        CRL extensions:
            X509v3 CRL Number: 
                0x44444444444444444444444444444444444444444444444444444444444444444444444444444444444444444444444444444444444444444444444444444444
Revoked Certificates:
    Serial Number: 01
        Revocation Date: Mar  5 05:15:20 2026 GMT
    Signature Algorithm: sha256WithRSAEncryption
    Signature Value:
        24:11:b9:3a:df:b5:07:d0:94:b7:1a:73:10:02:f6:13:c5:57:
        e3:48:6e:e7:fc:8c:c6:07:15:0b:21:f4:4b:61:d4:1f:98:79:
        8d:02:d6:b5:30:e5:72:85:36:a2:8f:73:32:9b:6c:e1:5b:0f:
        9e:e9:e7:ba:0c:a2:f9:4e:87:84:40:dd:4b:5d:26:e5:87:23:
        01:3e:87:3b:19:86:a6:25:6a:48:73:1c:d5:a0:56:1a:52:65:
        7e:aa:00:b0:2a:6b:ce:95:ce:c0:4f:7c:d7:ef:78:c2:78:b0:
        ce:ad:4f:02:e2:ce:56:de:a5:43:5b:ad:78:5a:a7:bc:8d:6e:
        ef:86:e1:9e:47:5c:e7:c8:12:81:8d:5a:63:c4:5a:2c:20:54:
        da:1e:7f:f0:16:c9:f5:fc:9a:fa:ca:03:73:90:38:11:d1:0e:
        98:34:84:fe:62:1e:8a:20:66:ee:40:09:f1:8d:bc:b5:52:af:
        22:b8:a7:e5:0c:a7:38:e8:4a:9c:09:99:95:ae:cf:a2:8e:a8:
        21:cd:5e:96:a7:ea:4f:bc:a5:be:37:a1:c7:5b:27:3f:b5:99:
        08:62:35:7f:98:2a:20:27:3e:c3:1b:9d:c2:51:66:7c:dd:64:
        38:89:fc:89:fc:c0:54:f9:0d:16:72:44:3c:25:3c:a3:88:b9:
        c7:00:df:81
-----BEGIN X509 CRL-----
MIICRDCCASwCAQEwDQYJKoZIhvcNAQELBQAwgZQxCzAJBgNVBAYTAlVTMRAwDgYD
VQQIDAdNb250YW5hMRAwDgYDVQQHDAdCb3plbWFuMREwDwYDVQQKDAhTYXd0b290
aDETMBEGA1UECwwKQ29uc3VsdGluZzEYMBYGA1UEAwwPd3d3LndvbGZzc2wuY29t
MR8wHQYJKoZIhvcNAQkBFhBpbmZvQHdvbGZzc2wuY29tFw0yNjAzMDUwNTE1MjBa
Fw0yODExMjkwNTE1MjBaMBQwEgIBARcNMjYwMzA1MDUxNTIwWqBNMEswSQYDVR0U
BEICQERERERERERERERERERERERERERERERERERERERERERERERERERERERERERE
REREREREREREREREREREREREREQwDQYJKoZIhvcNAQELBQADggEBACQRuTrftQfQ
lLcacxAC9hPFV+NIbuf8jMYHFQsh9Eth1B+YeY0C1rUw5XKFNqKPczKbbOFbD57p
57oMovlOh4RA3UtdJuWHIwE+hzsZhqYlakhzHNWgVhpSZX6qALAqa86VzsBPfNfv
eMJ4sM6tTwLizlbepUNbrXhap7yNbu+G4Z5HXOfIEoGNWmPEWiwgVNoef/AWyfX8
mvrKA3OQOBHRDpg0hP5iHoogZu5ACfGNvLVSryK4p+UMpzjoSpwJmZWuz6KOqCHN
Xpan6k+8pb43ocdbJz+1mQhiNX+YKiAnPsMbncJRZnzdZDiJ/In8wFT5DRZyRDwl
PKOIuccA34E=
-----END X509 CRL-----
