Certificate Revocation List (CRL):
        Version 2 (0x1)
        Signature Algorithm: sha256WithRSAEncryption
        Issuer: C=US, ST=Montana, L=Bozeman, O=Sawtooth, OU=Consulting, CN=www.wolfssl.com, emailAddress=info@wolfssl.com
        Last Update: Jan  8 07:15:25 2026 GMT
        Next Update: Oct  4 07:15:25 2028 GMT
        CRL extensions:
            X509v3 CRL Number: 
                0x8BC28C3B3F7A6344CD464A9FDC837F2009DEB94FD3
Revoked Certificates:
    Serial Number: 01
        Revocation Date: Jan  8 07:15:25 2026 GMT
    Signature Algorithm: sha256WithRSAEncryption
    Signature Value:
        47:71:aa:8d:29:11:90:57:c9:70:78:a5:de:40:ee:c3:da:81:
        68:d0:20:09:af:5b:5f:30:f9:69:14:ff:8a:cf:46:0d:e8:0d:
        45:df:1d:49:ce:05:01:28:a5:34:50:b6:cb:54:9d:a1:42:6c:
        f6:e2:66:de:be:e4:90:55:c1:83:e5:4c:26:96:43:29:39:84:
        ad:68:3c:0d:5a:d4:e7:ba:7c:21:e9:a1:c2:0c:ad:6f:0c:32:
        71:81:9f:df:7d:c3:0d:92:a4:6f:43:9f:8f:b7:ef:2d:6d:92:
        a6:17:cb:c7:4c:2e:3b:a5:2b:2c:74:fa:d1:be:6d:dc:19:04:
        d6:b6:56:6c:26:94:8e:13:15:29:12:fe:1a:a4:73:55:df:a5:
        c8:d3:d5:99:4a:c6:be:64:1f:90:a9:d8:94:d1:3b:b1:0e:ff:
        e4:81:d0:e5:a4:8a:a7:a9:82:fb:a6:86:be:e7:e1:a8:b5:0d:
        87:bb:76:5b:0e:05:1f:d4:82:3c:68:99:ec:ae:ae:8e:4a:72:
        cf:3f:8a:7f:b0:a2:69:d9:8c:68:7d:2f:3e:54:e9:fb:70:cf:
        d4:ed:1b:61:68:33:4f:93:9b:5f:5e:e9:de:e8:51:66:fd:c8:
        35:40:a0:7d:42:bd:d7:f4:96:cd:c8:72:14:84:cd:f5:19:8c:
        a0:5a:b7:72
-----BEGIN X509 CRL-----
MIICGjCCAQICAQEwDQYJKoZIhvcNAQELBQAwgZQxCzAJBgNVBAYTAlVTMRAwDgYD
VQQIDAdNb250YW5hMRAwDgYDVQQHDAdCb3plbWFuMREwDwYDVQQKDAhTYXd0b290
aDETMBEGA1UECwwKQ29uc3VsdGluZzEYMBYGA1UEAwwPd3d3LndvbGZzc2wuY29t
MR8wHQYJKoZIhvcNAQkBFhBpbmZvQHdvbGZzc2wuY29tFw0yNjAxMDgwNzE1MjVa
Fw0yODEwMDQwNzE1MjVaMBQwEgIBARcNMjYwMTA4MDcxNTI1WqAjMCEwHwYDVR0U
BBgCFgCLwow7P3pjRM1GSp/cg38gCd65T9MwDQYJKoZIhvcNAQELBQADggEBAEdx
qo0pEZBXyXB4pd5A7sPagWjQIAmvW18w+WkU/4rPRg3oDUXfHUnOBQEopTRQtstU
naFCbPbiZt6+5JBVwYPlTCaWQyk5hK1oPA1a1Oe6fCHpocIMrW8MMnGBn999ww2S
pG9Dn4+37y1tkqYXy8dMLjulKyx0+tG+bdwZBNa2VmwmlI4TFSkS/hqkc1XfpcjT
1ZlKxr5kH5Cp2JTRO7EO/+SB0OWkiqepgvumhr7n4ai1DYe7dlsOBR/Ugjxomeyu
ro5Kcs8/in+womnZjGh9Lz5U6ftwz9TtG2FoM0+Tm19e6d7oUWb9yDVAoH1Cvdf0
ls3IchSEzfUZjKBat3I=
-----END X509 CRL-----
