Certificate Revocation List (CRL):
        Version 2 (0x1)
        Signature Algorithm: sha256WithRSAEncryption
        Issuer: C=US, ST=Montana, L=Bozeman, O=Sawtooth, OU=Consulting, CN=www.wolfssl.com, emailAddress=facts@wolfssl.com
        Last Update: Jun 11 21:44:41 2026 GMT
        Next Update: Mar  7 21:44:41 2029 GMT
        CRL extensions:
            X509v3 CRL Number: 
                0x8BC28C3B3F7A6344CD464A9FDC837F2009DEB94FD3
Revoked Certificates:
    Serial Number: 01
        Revocation Date: Jun 11 21:44:41 2026 GMT
    Signature Algorithm: sha256WithRSAEncryption
    Signature Value:
        27:22:fa:93:7f:ad:fe:5b:47:fd:0a:bc:6a:57:12:3a:69:e3:
        2f:45:ca:54:1d:f1:97:78:36:f6:88:d6:0f:63:9e:b7:ad:81:
        6c:bb:8f:5c:cb:91:c5:21:bf:6f:88:42:72:6c:3d:ff:2e:8b:
        03:f2:25:ed:67:9f:3f:00:c1:5b:96:4d:b8:81:44:ad:02:1a:
        9b:69:94:bd:36:24:95:f2:f5:59:ee:3c:52:a3:82:5b:0b:9b:
        7a:3e:da:0d:d3:8b:82:73:4f:58:4f:3f:0e:d0:3e:cd:2b:e5:
        37:2f:30:17:c7:0b:58:5b:59:2b:99:02:1f:43:26:43:e7:19:
        42:4b:cc:e8:34:fc:2a:77:60:4b:a7:09:da:c2:53:5b:36:d5:
        50:e4:84:ee:14:91:95:a1:82:b4:66:f7:94:69:01:e8:ef:a1:
        57:23:36:05:6d:07:8b:72:8a:cc:f7:18:63:ff:be:bc:e9:e1:
        77:30:30:9d:63:ff:bc:6a:72:53:ba:09:c1:a6:0c:11:1a:0c:
        ef:d1:63:99:c8:50:7a:94:6a:7e:12:c0:a9:8c:38:76:ee:54:
        5e:e7:88:c2:8c:68:b5:46:37:79:60:97:48:4a:d9:5f:f2:0f:
        c9:f2:34:24:0d:4c:19:bc:4c:d1:bb:63:99:ee:cc:15:fc:a0:
        52:90:8c:49
-----BEGIN X509 CRL-----
MIICGzCCAQMCAQEwDQYJKoZIhvcNAQELBQAwgZUxCzAJBgNVBAYTAlVTMRAwDgYD
VQQIDAdNb250YW5hMRAwDgYDVQQHDAdCb3plbWFuMREwDwYDVQQKDAhTYXd0b290
aDETMBEGA1UECwwKQ29uc3VsdGluZzEYMBYGA1UEAwwPd3d3LndvbGZzc2wuY29t
MSAwHgYJKoZIhvcNAQkBFhFmYWN0c0B3b2xmc3NsLmNvbRcNMjYwNjExMjE0NDQx
WhcNMjkwMzA3MjE0NDQxWjAUMBICAQEXDTI2MDYxMTIxNDQ0MVqgIzAhMB8GA1Ud
FAQYAhYAi8KMOz96Y0TNRkqf3IN/IAneuU/TMA0GCSqGSIb3DQEBCwUAA4IBAQAn
IvqTf63+W0f9CrxqVxI6aeMvRcpUHfGXeDb2iNYPY563rYFsu49cy5HFIb9viEJy
bD3/LosD8iXtZ58/AMFblk24gUStAhqbaZS9NiSV8vVZ7jxSo4JbC5t6PtoN04uC
c09YTz8O0D7NK+U3LzAXxwtYW1krmQIfQyZD5xlCS8zoNPwqd2BLpwnawlNbNtVQ
5ITuFJGVoYK0ZveUaQHo76FXIzYFbQeLcorM9xhj/7686eF3MDCdY/+8anJTugnB
pgwRGgzv0WOZyFB6lGp+EsCpjDh27lRe54jCjGi1Rjd5YJdIStlf8g/J8jQkDUwZ
vEzRu2OZ7swV/KBSkIxJ
-----END X509 CRL-----
