Certificate Revocation List (CRL):
        Version 2 (0x1)
        Signature Algorithm: sha256WithRSAEncryption
        Issuer: C=US, ST=Montana, L=Bozeman, O=Sawtooth, OU=Consulting, CN=www.wolfssl.com, emailAddress=info@wolfssl.com
        Last Update: Jan  8 07:15:25 2026 GMT
        Next Update: Oct  4 07:15:25 2028 GMT
        CRL extensions:
            X509v3 CRL Number: 
                0xD8AFADA7F08B38E6178BD0E5CD7B0DF80071BA74
Revoked Certificates:
    Serial Number: 01
        Revocation Date: Jan  8 07:15:25 2026 GMT
    Signature Algorithm: sha256WithRSAEncryption
    Signature Value:
        0c:45:a0:2e:ba:ad:28:48:eb:61:29:a6:fa:d0:76:8c:96:bb:
        1a:9a:79:90:05:06:78:8e:d2:f6:4d:6d:4c:75:62:d2:b2:91:
        f8:e4:59:a9:db:6f:e6:58:fe:f9:2e:7a:67:a7:01:a3:68:ee:
        b1:23:a6:25:2a:85:84:3d:bf:86:bf:6d:d5:a6:2d:03:8e:d1:
        ac:0f:73:4c:47:ea:fb:75:2e:85:1f:dc:fa:5e:b2:eb:d1:f4:
        75:e9:ae:a9:90:6e:ec:c9:05:db:61:39:30:a8:4e:c3:d2:ce:
        77:2d:ba:bf:fd:74:dc:c6:41:db:65:c4:83:66:9c:91:60:43:
        57:a3:52:bb:9c:b7:fa:30:d3:01:89:7f:5e:c8:06:0a:34:1b:
        77:ce:e8:b4:85:c5:6e:63:50:f3:88:cc:e3:54:7b:29:5c:08:
        4a:7b:35:b4:3f:01:2e:c5:93:4f:7c:7a:17:bf:0d:bd:be:3e:
        a9:1b:ef:a0:9c:bc:78:9e:91:99:91:e7:38:63:f1:24:86:02:
        63:81:cb:67:3a:f7:3c:5c:45:87:54:f4:9a:16:25:a2:e5:bd:
        ee:7e:9a:28:c0:db:4e:bc:4a:0d:c2:5f:14:ea:9c:8a:42:db:
        d2:1d:27:b8:d2:3c:57:4a:bf:46:4a:95:ac:7f:f4:47:22:dd:
        d5:dc:52:3f
-----BEGIN X509 CRL-----
MIICGTCCAQECAQEwDQYJKoZIhvcNAQELBQAwgZQxCzAJBgNVBAYTAlVTMRAwDgYD
VQQIDAdNb250YW5hMRAwDgYDVQQHDAdCb3plbWFuMREwDwYDVQQKDAhTYXd0b290
aDETMBEGA1UECwwKQ29uc3VsdGluZzEYMBYGA1UEAwwPd3d3LndvbGZzc2wuY29t
MR8wHQYJKoZIhvcNAQkBFhBpbmZvQHdvbGZzc2wuY29tFw0yNjAxMDgwNzE1MjVa
Fw0yODEwMDQwNzE1MjVaMBQwEgIBARcNMjYwMTA4MDcxNTI1WqAiMCAwHgYDVR0U
BBcCFQDYr62n8Is45heL0OXNew34AHG6dDANBgkqhkiG9w0BAQsFAAOCAQEADEWg
LrqtKEjrYSmm+tB2jJa7Gpp5kAUGeI7S9k1tTHVi0rKR+ORZqdtv5lj++S56Z6cB
o2jusSOmJSqFhD2/hr9t1aYtA47RrA9zTEfq+3UuhR/c+l6y69H0demuqZBu7MkF
22E5MKhOw9LOdy26v/103MZB22XEg2ackWBDV6NSu5y3+jDTAYl/XsgGCjQbd87o
tIXFbmNQ84jM41R7KVwISns1tD8BLsWTT3x6F78Nvb4+qRvvoJy8eJ6RmZHnOGPx
JIYCY4HLZzr3PFxFh1T0mhYlouW97n6aKMDbTrxKDcJfFOqcikLb0h0nuNI8V0q/
RkqVrH/0RyLd1dxSPw==
-----END X509 CRL-----
