Certificate Revocation List (CRL):
        Version 2 (0x1)
        Signature Algorithm: sha256WithRSAEncryption
        Issuer: C=US, ST=Montana, L=Bozeman, O=Sawtooth, OU=Consulting, CN=www.wolfssl.com, emailAddress=facts@wolfssl.com
        Last Update: Jun 11 21:44:41 2026 GMT
        Next Update: Mar  7 21:44:41 2029 GMT
        CRL extensions:
            X509v3 CRL Number: 
                0xD8AFADA7F08B38E6178BD0E5CD7B0DF80071BA74
Revoked Certificates:
    Serial Number: 01
        Revocation Date: Jun 11 21:44:41 2026 GMT
    Signature Algorithm: sha256WithRSAEncryption
    Signature Value:
        5b:08:fe:4a:b0:d5:e3:7d:2b:14:cd:38:f0:7a:9f:7b:2d:56:
        28:c1:da:9c:a0:97:a3:cd:8b:15:c7:ee:ec:5a:9f:15:b8:e3:
        77:47:3e:56:32:61:f4:38:7d:30:c2:fa:c3:37:42:2b:ce:93:
        bd:67:be:ee:fa:ae:e1:7e:4a:92:f3:54:73:d5:40:59:58:18:
        8a:d3:46:c5:0d:4e:50:a5:3b:7b:16:c2:96:d0:e7:7e:cc:3b:
        14:a3:b6:f6:81:d2:0f:f1:22:78:8a:62:6a:25:cd:e3:9b:22:
        27:6c:2e:99:ee:6d:5f:6b:73:87:e5:ec:08:89:0b:d0:eb:58:
        f6:46:0d:8e:84:8c:2f:94:28:21:4b:55:7e:d0:73:85:00:12:
        3b:1e:fa:95:73:89:f1:c6:25:56:8d:7f:66:89:9b:b2:02:dd:
        15:58:8d:5f:5c:df:6b:02:67:75:6e:02:d1:74:8b:1e:57:42:
        27:10:1e:c7:69:c3:bc:97:f1:1c:92:6f:0a:79:b3:48:88:b5:
        c5:d6:ee:b6:7b:b2:04:c0:0c:a4:7a:d8:02:e8:27:84:ff:9b:
        86:a3:ed:e3:f2:72:64:1a:d0:cc:73:f7:1b:73:80:a4:96:fc:
        98:e2:cb:3a:e4:c9:20:c9:cd:79:95:bb:8c:7b:a9:73:96:f1:
        b8:0f:33:68
-----BEGIN X509 CRL-----
MIICGjCCAQICAQEwDQYJKoZIhvcNAQELBQAwgZUxCzAJBgNVBAYTAlVTMRAwDgYD
VQQIDAdNb250YW5hMRAwDgYDVQQHDAdCb3plbWFuMREwDwYDVQQKDAhTYXd0b290
aDETMBEGA1UECwwKQ29uc3VsdGluZzEYMBYGA1UEAwwPd3d3LndvbGZzc2wuY29t
MSAwHgYJKoZIhvcNAQkBFhFmYWN0c0B3b2xmc3NsLmNvbRcNMjYwNjExMjE0NDQx
WhcNMjkwMzA3MjE0NDQxWjAUMBICAQEXDTI2MDYxMTIxNDQ0MVqgIjAgMB4GA1Ud
FAQXAhUA2K+tp/CLOOYXi9DlzXsN+ABxunQwDQYJKoZIhvcNAQELBQADggEBAFsI
/kqw1eN9KxTNOPB6n3stVijB2pygl6PNixXH7uxanxW443dHPlYyYfQ4fTDC+sM3
QivOk71nvu76ruF+SpLzVHPVQFlYGIrTRsUNTlClO3sWwpbQ537MOxSjtvaB0g/x
IniKYmolzeObIidsLpnubV9rc4fl7AiJC9DrWPZGDY6EjC+UKCFLVX7Qc4UAEjse
+pVzifHGJVaNf2aJm7IC3RVYjV9c32sCZ3VuAtF0ix5XQicQHsdpw7yX8RySbwp5
s0iItcXW7rZ7sgTADKR62ALoJ4T/m4aj7ePycmQa0Mxz9xtzgKSW/JjiyzrkySDJ
zXmVu4x7qXOW8bgPM2g=
-----END X509 CRL-----
