Certificate:
    Data:
        Version: 3 (0x2)
        Serial Number: 101 (0x65)
        Signature Algorithm: sha256WithRSAEncryption
        Issuer: C=US, ST=Washington, L=Seattle, O=wolfSSL Inc., OU=Engineering, CN=chainF-ICA1-pathlen1, emailAddress=facts@wolfssl.com
        Validity
            Not Before: Jun 11 21:44:39 2026 GMT
            Not After : Mar  7 21:44:39 2029 GMT
        Subject: C=US, ST=Washington, L=Seattle, O=wolfSSL Inc., OU=Engineering, CN=chainF-entity, emailAddress=facts@wolfssl.com
        Subject Public Key Info:
            Public Key Algorithm: rsaEncryption
                Public-Key: (2048 bit)
                Modulus:
                    00:c9:f8:2c:ad:25:a9:65:3b:72:13:5d:aa:7f:5b:
                    71:f5:e0:43:c4:3a:b3:36:0d:34:61:35:86:77:a0:
                    2a:81:de:2c:7c:7d:01:fb:f4:c3:00:b0:17:b9:49:
                    93:1d:c2:1b:6f:40:ee:86:e0:a7:f3:5e:ad:23:43:
                    99:5f:34:38:c8:58:02:9b:cc:9e:59:da:81:5b:b1:
                    40:74:ca:c1:b8:67:14:ba:3f:71:16:d9:ba:a9:cd:
                    f1:96:1b:52:e2:d2:07:6d:6a:d6:cf:e7:a8:c8:e0:
                    4f:eb:35:64:bc:aa:1a:17:af:98:de:d0:9b:08:73:
                    72:d8:fe:e2:e5:4e:7e:97:37:37:58:9e:5c:65:91:
                    b9:5d:38:da:ba:db:00:c0:f6:4a:6f:9c:86:23:ad:
                    b0:c4:ff:b7:dd:d6:9a:b0:de:8d:15:87:e2:4b:04:
                    85:6d:5d:cc:5f:65:6f:e1:ae:22:44:80:18:ba:c2:
                    95:a4:a3:28:c5:3f:7b:4c:85:6c:0f:11:14:56:d2:
                    d5:a7:f7:03:e9:f7:ce:ef:d9:18:02:f0:f2:6e:81:
                    ef:ac:50:87:0e:b0:46:9f:ae:c0:77:8f:03:28:8a:
                    9d:6e:87:50:8f:37:46:b3:29:57:a4:c2:ef:25:cd:
                    23:1a:ef:1a:03:c9:59:69:cd:45:5f:39:3f:76:d4:
                    79:53
                Exponent: 65537 (0x10001)
        X509v3 extensions:
            X509v3 Subject Key Identifier: 
                E9:27:36:DA:64:81:70:89:C9:C1:F9:E3:92:7A:67:11:07:01:4A:49
            X509v3 Authority Key Identifier: 
                keyid:75:32:21:05:2B:60:FE:44:17:AF:18:65:86:85:19:82:3F:F9:64:83
                DirName:/C=US/ST=Washington/L=Seattle/O=wolfSSL Inc./OU=Engineering/CN=chainF-ICA2-pathlen0/emailAddress=facts@wolfssl.com
                serial:64
            X509v3 Basic Constraints: 
                CA:FALSE
    Signature Algorithm: sha256WithRSAEncryption
    Signature Value:
        5a:9f:f3:02:b5:e0:d0:09:01:3f:c6:92:b2:27:69:5b:e2:f7:
        7e:96:08:c6:42:42:2c:b1:ba:a5:5c:4e:fa:f7:35:2b:f2:eb:
        38:ea:92:e2:67:e0:5d:71:22:61:f2:3c:cb:7d:71:f6:94:5b:
        80:42:5c:4f:a4:0c:5f:0a:94:61:b1:37:4e:3f:de:d0:c6:c4:
        a2:b8:31:59:b4:c2:8e:d9:43:e1:df:8b:61:75:bb:06:1e:99:
        24:ca:08:6f:c7:94:13:f7:17:d7:5f:6e:0e:60:65:c6:c2:6c:
        3a:26:c3:e5:78:de:f8:53:18:b5:9a:f0:de:fa:d9:eb:39:49:
        19:55:cc:03:0e:61:d0:32:17:8a:99:22:f7:d8:d3:c4:55:96:
        a1:de:fd:57:3e:ab:3f:05:3c:8b:be:8d:7d:b2:8f:12:b7:58:
        a4:c0:87:90:c9:4f:9e:97:93:e8:e7:fa:50:0c:97:86:7e:0c:
        27:c6:c6:3b:d4:53:0c:2e:77:34:a4:88:ff:ec:a1:c6:44:cc:
        63:9a:18:f4:1a:b3:8b:68:ab:d2:d8:31:28:77:3b:f2:02:31:
        14:cd:75:1d:6e:36:cd:ca:46:8d:98:32:15:b1:e4:09:c0:8f:
        d1:88:33:15:de:3a:d5:9d:25:43:fb:bf:80:04:e6:c2:81:19:
        11:9f:04:8f
-----BEGIN CERTIFICATE-----
MIIEujCCA6KgAwIBAgIBZTANBgkqhkiG9w0BAQsFADCBojELMAkGA1UEBhMCVVMx
EzARBgNVBAgMCldhc2hpbmd0b24xEDAOBgNVBAcMB1NlYXR0bGUxFTATBgNVBAoM
DHdvbGZTU0wgSW5jLjEUMBIGA1UECwwLRW5naW5lZXJpbmcxHTAbBgNVBAMMFGNo
YWluRi1JQ0ExLXBhdGhsZW4xMSAwHgYJKoZIhvcNAQkBFhFmYWN0c0B3b2xmc3Ns
LmNvbTAeFw0yNjA2MTEyMTQ0MzlaFw0yOTAzMDcyMTQ0MzlaMIGbMQswCQYDVQQG
EwJVUzETMBEGA1UECAwKV2FzaGluZ3RvbjEQMA4GA1UEBwwHU2VhdHRsZTEVMBMG
A1UECgwMd29sZlNTTCBJbmMuMRQwEgYDVQQLDAtFbmdpbmVlcmluZzEWMBQGA1UE
AwwNY2hhaW5GLWVudGl0eTEgMB4GCSqGSIb3DQEJARYRZmFjdHNAd29sZnNzbC5j
b20wggEiMA0GCSqGSIb3DQEBAQUAA4IBDwAwggEKAoIBAQDJ+CytJallO3ITXap/
W3H14EPEOrM2DTRhNYZ3oCqB3ix8fQH79MMAsBe5SZMdwhtvQO6G4KfzXq0jQ5lf
NDjIWAKbzJ5Z2oFbsUB0ysG4ZxS6P3EW2bqpzfGWG1Li0gdtatbP56jI4E/rNWS8
qhoXr5je0JsIc3LY/uLlTn6XNzdYnlxlkbldONq62wDA9kpvnIYjrbDE/7fd1pqw
3o0Vh+JLBIVtXcxfZW/hriJEgBi6wpWkoyjFP3tMhWwPERRW0tWn9wPp987v2RgC
8PJuge+sUIcOsEafrsB3jwMoip1uh1CPN0azKVekwu8lzSMa7xoDyVlpzUVfOT92
1HlTAgMBAAGjgf8wgfwwHQYDVR0OBBYEFOknNtpkgXCJycH545J6ZxEHAUpJMIHP
BgNVHSMEgccwgcSAFHUyIQUrYP5EF68YZYaFGYI/+WSDoYGopIGlMIGiMQswCQYD
VQQGEwJVUzETMBEGA1UECAwKV2FzaGluZ3RvbjEQMA4GA1UEBwwHU2VhdHRsZTEV
MBMGA1UECgwMd29sZlNTTCBJbmMuMRQwEgYDVQQLDAtFbmdpbmVlcmluZzEdMBsG
A1UEAwwUY2hhaW5GLUlDQTItcGF0aGxlbjAxIDAeBgkqhkiG9w0BCQEWEWZhY3Rz
QHdvbGZzc2wuY29tggFkMAkGA1UdEwQCMAAwDQYJKoZIhvcNAQELBQADggEBAFqf
8wK14NAJAT/GkrInaVvi936WCMZCQiyxuqVcTvr3NSvy6zjqkuJn4F1xImHyPMt9
cfaUW4BCXE+kDF8KlGGxN04/3tDGxKK4MVm0wo7ZQ+Hfi2F1uwYemSTKCG/HlBP3
F9dfbg5gZcbCbDomw+V43vhTGLWa8N762es5SRlVzAMOYdAyF4qZIvfY08RVlqHe
/Vc+qz8FPIu+jX2yjxK3WKTAh5DJT56Xk+jn+lAMl4Z+DCfGxjvUUwwudzSkiP/s
ocZEzGOaGPQas4toq9LYMSh3O/ICMRTNdR1uNs3KRo2YMhWx5AnAj9GIMxXeOtWd
JUP7v4AE5sKBGRGfBI8=
-----END CERTIFICATE-----
