Certificate:
    Data:
        Version: 3 (0x2)
        Serial Number: 101 (0x65)
        Signature Algorithm: sha256WithRSAEncryption
        Issuer: C = US, ST = Washington, L = Seattle, O = wolfSSL Inc., OU = Engineering, CN = chainB-ICA1-pathlen0, emailAddress = info@wolfssl.com
        Validity
            Not Before: Dec 20 23:07:25 2021 GMT
            Not After : Sep 15 23:07:25 2024 GMT
        Subject: C = US, ST = Washington, L = Seattle, O = wolfSSL Inc., OU = Engineering, CN = chainB-entity, emailAddress = info@wolfssl.com
        Subject Public Key Info:
            Public Key Algorithm: rsaEncryption
                RSA Public-Key: (2048 bit)
                Modulus:
                    00:d7:5f:d9:3d:d7:5b:11:aa:3e:53:31:d0:32:78:
                    87:fb:c0:8e:80:6d:fc:68:73:1f:9c:77:66:16:35:
                    fc:2f:d7:e4:ca:ba:2a:73:5f:14:94:12:f0:48:31:
                    a2:40:ad:b4:e3:07:0c:02:47:b4:0a:07:69:d5:d2:
                    85:bf:c8:bc:14:8c:c7:87:ba:5f:87:c5:07:f4:df:
                    a4:46:1e:b7:13:0f:9d:7e:f6:1a:7b:29:09:55:4c:
                    17:ee:c8:b0:9d:39:0c:89:6e:18:9c:06:7f:5d:95:
                    d2:4c:71:b3:1f:ea:5d:d2:f6:2c:69:a8:16:15:59:
                    e5:7d:03:d7:bd:1a:34:e3:f1:27:e3:b9:7d:68:e0:
                    39:3f:35:62:2f:20:20:fa:19:62:37:1a:30:47:6c:
                    a3:f9:8e:9c:f3:67:2e:bb:38:4c:2e:0a:21:9b:70:
                    b6:97:a2:1b:b3:98:0d:5b:74:97:33:f0:b8:6c:4e:
                    ad:b4:1f:48:62:c9:9a:af:2d:a6:a1:06:ae:98:30:
                    54:5e:cb:dd:23:77:d5:ee:5c:fb:81:f0:2b:ad:6f:
                    fa:e3:b1:0e:98:bd:3e:0b:f4:7c:c5:e3:50:bf:08:
                    9b:bf:be:f8:6a:d9:db:78:36:84:f2:7e:7b:7d:5e:
                    a7:8f:42:81:5f:41:f4:77:5c:30:51:f5:3f:2d:25:
                    95:4d
                Exponent: 65537 (0x10001)
        X509v3 extensions:
            X509v3 Subject Key Identifier: 
                7F:17:7E:8E:A8:2C:AD:9C:C7:22:7E:A6:C6:90:9E:63:C4:5F:33:9E
            X509v3 Authority Key Identifier: 
                keyid:D7:90:E4:86:59:24:F9:2B:B8:06:8E:B1:8F:33:E5:2C:63:F1:03:16
                DirName:/C=US/ST=Washington/L=Seattle/O=wolfSSL Inc./OU=Engineering/CN=chainB-ICA2-pathlen1/emailAddress=info@wolfssl.com
                serial:64

            X509v3 Basic Constraints: 
                CA:FALSE
    Signature Algorithm: sha256WithRSAEncryption
         6a:04:9e:c8:1b:03:38:96:f6:a2:7c:70:54:65:0a:d8:b7:24:
         34:92:2a:92:95:c5:66:26:96:2b:e3:23:27:14:2c:73:26:b3:
         01:ef:f0:6a:fd:24:71:49:00:1a:1f:31:33:6d:0e:3d:61:36:
         b1:07:46:ae:8c:51:3a:77:4c:15:0c:90:63:68:e3:ea:ad:60:
         cd:53:d2:a3:9b:6d:8d:16:61:c5:5a:74:b7:4e:ac:97:f0:f9:
         02:7c:01:5e:25:50:23:87:4c:2c:59:d5:b1:66:30:31:b8:e6:
         e3:b8:72:80:03:97:91:b1:ee:15:6d:92:20:69:d4:a4:aa:c6:
         88:42:11:7f:f9:55:4e:10:78:53:53:f7:86:79:a0:7a:08:34:
         3e:f7:9c:5b:90:e7:8c:ed:ab:10:c1:c0:ec:e0:b7:5d:4e:39:
         c6:91:aa:83:1b:73:5b:02:c4:6a:39:2d:4c:c8:51:3c:f9:67:
         db:b7:2d:ab:ac:2f:14:1a:6b:9e:24:e6:a6:ce:f3:bb:ff:33:
         f8:b4:71:9f:cc:85:6c:1c:41:0a:37:0a:5c:b2:a3:ca:25:8c:
         05:52:1b:d0:2f:de:29:d9:8d:3a:98:fd:1d:57:8b:f7:ee:70:
         5b:be:ab:f3:fc:c8:83:1d:14:eb:55:58:70:c3:17:d2:cd:c9:
         4e:ac:05:6c
-----BEGIN CERTIFICATE-----
MIIEtzCCA5+gAwIBAgIBZTANBgkqhkiG9w0BAQsFADCBoTELMAkGA1UEBhMCVVMx
EzARBgNVBAgMCldhc2hpbmd0b24xEDAOBgNVBAcMB1NlYXR0bGUxFTATBgNVBAoM
DHdvbGZTU0wgSW5jLjEUMBIGA1UECwwLRW5naW5lZXJpbmcxHTAbBgNVBAMMFGNo
YWluQi1JQ0ExLXBhdGhsZW4wMR8wHQYJKoZIhvcNAQkBFhBpbmZvQHdvbGZzc2wu
Y29tMB4XDTIxMTIyMDIzMDcyNVoXDTI0MDkxNTIzMDcyNVowgZoxCzAJBgNVBAYT
AlVTMRMwEQYDVQQIDApXYXNoaW5ndG9uMRAwDgYDVQQHDAdTZWF0dGxlMRUwEwYD
VQQKDAx3b2xmU1NMIEluYy4xFDASBgNVBAsMC0VuZ2luZWVyaW5nMRYwFAYDVQQD
DA1jaGFpbkItZW50aXR5MR8wHQYJKoZIhvcNAQkBFhBpbmZvQHdvbGZzc2wuY29t
MIIBIjANBgkqhkiG9w0BAQEFAAOCAQ8AMIIBCgKCAQEA11/ZPddbEao+UzHQMniH
+8COgG38aHMfnHdmFjX8L9fkyroqc18UlBLwSDGiQK204wcMAke0Cgdp1dKFv8i8
FIzHh7pfh8UH9N+kRh63Ew+dfvYaeykJVUwX7siwnTkMiW4YnAZ/XZXSTHGzH+pd
0vYsaagWFVnlfQPXvRo04/En47l9aOA5PzViLyAg+hliNxowR2yj+Y6c82cuuzhM
Lgohm3C2l6Ibs5gNW3SXM/C4bE6ttB9IYsmary2moQaumDBUXsvdI3fV7lz7gfAr
rW/647EOmL0+C/R8xeNQvwibv774atnbeDaE8n57fV6nj0KBX0H0d1wwUfU/LSWV
TQIDAQABo4H+MIH7MB0GA1UdDgQWBBR/F36OqCytnMcifqbGkJ5jxF8znjCBzgYD
VR0jBIHGMIHDgBTXkOSGWST5K7gGjrGPM+UsY/EDFqGBp6SBpDCBoTELMAkGA1UE
BhMCVVMxEzARBgNVBAgMCldhc2hpbmd0b24xEDAOBgNVBAcMB1NlYXR0bGUxFTAT
BgNVBAoMDHdvbGZTU0wgSW5jLjEUMBIGA1UECwwLRW5naW5lZXJpbmcxHTAbBgNV
BAMMFGNoYWluQi1JQ0EyLXBhdGhsZW4xMR8wHQYJKoZIhvcNAQkBFhBpbmZvQHdv
bGZzc2wuY29tggFkMAkGA1UdEwQCMAAwDQYJKoZIhvcNAQELBQADggEBAGoEnsgb
AziW9qJ8cFRlCti3JDSSKpKVxWYmlivjIycULHMmswHv8Gr9JHFJABofMTNtDj1h
NrEHRq6MUTp3TBUMkGNo4+qtYM1T0qObbY0WYcVadLdOrJfw+QJ8AV4lUCOHTCxZ
1bFmMDG45uO4coADl5Gx7hVtkiBp1KSqxohCEX/5VU4QeFNT94Z5oHoIND73nFuQ
54ztqxDBwOzgt11OOcaRqoMbc1sCxGo5LUzIUTz5Z9u3LausLxQaa54k5qbO87v/
M/i0cZ/MhWwcQQo3Clyyo8oljAVSG9Av3inZjTqY/R1Xi/fucFu+q/P8yIMdFOtV
WHDDF9LNyU6sBWw=
-----END CERTIFICATE-----
Certificate:
    Data:
        Version: 3 (0x2)
        Serial Number: 100 (0x64)
        Signature Algorithm: sha256WithRSAEncryption
        Issuer: C = US, ST = Washington, L = Seattle, O = wolfSSL Inc., OU = Engineering, CN = chainB-ICA2-pathlen1, emailAddress = info@wolfssl.com
        Validity
            Not Before: Dec 20 23:07:25 2021 GMT
            Not After : Sep 15 23:07:25 2024 GMT
        Subject: C = US, ST = Washington, L = Seattle, O = wolfSSL Inc., OU = Engineering, CN = chainB-ICA1-pathlen0, emailAddress = info@wolfssl.com
        Subject Public Key Info:
            Public Key Algorithm: rsaEncryption
                RSA Public-Key: (2048 bit)
                Modulus:
                    00:b2:f7:aa:ae:91:d1:24:41:52:a1:22:e0:d3:97:
                    9b:e0:0c:94:9c:4a:e4:b3:85:ae:a9:43:9f:ec:7a:
                    05:dd:88:5c:e5:19:52:53:39:86:8a:b2:e2:86:27:
                    ab:03:9a:be:c4:54:67:af:b9:ac:65:e2:61:97:78:
                    66:60:29:90:62:08:62:91:a0:96:2b:0f:30:6c:da:
                    3d:70:35:52:a8:a7:d5:85:49:25:6a:56:59:bc:6b:
                    45:91:c3:37:fc:06:0d:a2:a9:46:e2:29:82:1b:77:
                    a6:49:35:fb:57:5f:33:02:92:e5:6b:67:c2:61:e2:
                    37:9c:12:5c:b5:2c:9b:2a:a5:85:97:22:73:3d:36:
                    50:55:1a:6a:59:d9:da:ac:2d:3f:e6:6a:b1:1d:60:
                    52:03:05:40:5f:cf:06:68:f0:32:86:5a:6f:b5:02:
                    63:e6:2e:1e:9f:09:82:8c:03:18:19:e4:79:d5:35:
                    6e:d9:17:9f:3c:c1:d9:3b:95:f9:6f:f3:19:d1:d3:
                    b8:5d:7c:93:37:c3:7c:3b:a0:58:c7:fb:e5:2d:f5:
                    58:d3:9b:72:f3:43:7a:29:ec:6b:f4:86:81:c8:e6:
                    60:8b:2b:c5:ad:59:e5:a4:a0:05:97:09:02:00:a7:
                    55:dc:5b:ef:e4:8b:83:1a:ee:c8:1c:b5:b6:e6:61:
                    6b:d1
                Exponent: 65537 (0x10001)
        X509v3 extensions:
            X509v3 Subject Key Identifier: 
                D7:90:E4:86:59:24:F9:2B:B8:06:8E:B1:8F:33:E5:2C:63:F1:03:16
            X509v3 Authority Key Identifier: 
                keyid:EE:59:9D:56:0B:7C:0A:45:44:E3:15:57:E2:B2:F3:1D:64:6F:AF:7A
                DirName:/C=US/ST=Montana/L=Bozeman/O=Sawtooth/OU=Consulting/CN=www.wolfssl.com/emailAddress=info@wolfssl.com
                serial:64

            X509v3 Basic Constraints: 
                CA:TRUE, pathlen:0
            X509v3 Key Usage: 
                Certificate Sign, CRL Sign
    Signature Algorithm: sha256WithRSAEncryption
         30:65:c9:85:15:6a:5d:e2:ba:d7:22:7f:f8:98:15:f0:3f:0d:
         a0:c7:e8:33:72:57:1c:cc:54:3f:df:c6:64:72:2d:87:83:44:
         f1:3d:8a:ef:52:c9:a9:9c:56:07:88:bd:25:4f:0a:b4:bd:a3:
         1b:d7:39:0b:bd:7e:3d:09:7f:65:ad:b2:21:23:74:80:1b:a5:
         4d:65:61:f4:9a:19:63:5a:37:f9:a9:6d:3d:1d:b0:9f:43:e3:
         be:78:cf:b2:5f:62:f1:1f:f6:e2:f4:a5:e6:e4:0a:8c:d8:4b:
         05:3c:c0:8f:37:41:ad:b9:6a:fa:02:1c:35:12:8c:29:c6:6b:
         6e:e2:30:76:f0:63:39:fe:38:96:3d:51:58:eb:c0:6c:ad:eb:
         35:14:fe:ff:1c:70:b8:86:92:ae:ca:74:ad:90:ac:ae:c5:d8:
         a2:4e:7f:8c:3d:53:74:98:ed:05:b2:83:27:22:3e:19:89:60:
         0c:2c:f6:f7:d2:f6:ac:76:7a:5c:9d:bb:26:c6:90:ad:29:b5:
         28:ac:f1:49:86:28:82:1a:d5:f8:4e:50:d5:51:8f:90:86:0b:
         98:fb:c1:1f:a9:3f:73:72:a2:08:9e:f8:28:8b:25:3d:37:38:
         fb:d9:d8:1a:00:3b:23:88:a1:06:14:19:95:b9:e8:24:11:84:
         18:cc:88:21
-----BEGIN CERTIFICATE-----
MIIExjCCA66gAwIBAgIBZDANBgkqhkiG9w0BAQsFADCBoTELMAkGA1UEBhMCVVMx
EzARBgNVBAgMCldhc2hpbmd0b24xEDAOBgNVBAcMB1NlYXR0bGUxFTATBgNVBAoM
DHdvbGZTU0wgSW5jLjEUMBIGA1UECwwLRW5naW5lZXJpbmcxHTAbBgNVBAMMFGNo
YWluQi1JQ0EyLXBhdGhsZW4xMR8wHQYJKoZIhvcNAQkBFhBpbmZvQHdvbGZzc2wu
Y29tMB4XDTIxMTIyMDIzMDcyNVoXDTI0MDkxNTIzMDcyNVowgaExCzAJBgNVBAYT
AlVTMRMwEQYDVQQIDApXYXNoaW5ndG9uMRAwDgYDVQQHDAdTZWF0dGxlMRUwEwYD
VQQKDAx3b2xmU1NMIEluYy4xFDASBgNVBAsMC0VuZ2luZWVyaW5nMR0wGwYDVQQD
DBRjaGFpbkItSUNBMS1wYXRobGVuMDEfMB0GCSqGSIb3DQEJARYQaW5mb0B3b2xm
c3NsLmNvbTCCASIwDQYJKoZIhvcNAQEBBQADggEPADCCAQoCggEBALL3qq6R0SRB
UqEi4NOXm+AMlJxK5LOFrqlDn+x6Bd2IXOUZUlM5hoqy4oYnqwOavsRUZ6+5rGXi
YZd4ZmApkGIIYpGglisPMGzaPXA1Uqin1YVJJWpWWbxrRZHDN/wGDaKpRuIpght3
pkk1+1dfMwKS5WtnwmHiN5wSXLUsmyqlhZcicz02UFUaalnZ2qwtP+ZqsR1gUgMF
QF/PBmjwMoZab7UCY+YuHp8JgowDGBnkedU1btkXnzzB2TuV+W/zGdHTuF18kzfD
fDugWMf75S31WNObcvNDeinsa/SGgcjmYIsrxa1Z5aSgBZcJAgCnVdxb7+SLgxru
yBy1tuZha9ECAwEAAaOCAQUwggEBMB0GA1UdDgQWBBTXkOSGWST5K7gGjrGPM+Us
Y/EDFjCBwQYDVR0jBIG5MIG2gBTuWZ1WC3wKRUTjFVfisvMdZG+veqGBmqSBlzCB
lDELMAkGA1UEBhMCVVMxEDAOBgNVBAgMB01vbnRhbmExEDAOBgNVBAcMB0JvemVt
YW4xETAPBgNVBAoMCFNhd3Rvb3RoMRMwEQYDVQQLDApDb25zdWx0aW5nMRgwFgYD
VQQDDA93d3cud29sZnNzbC5jb20xHzAdBgkqhkiG9w0BCQEWEGluZm9Ad29sZnNz
bC5jb22CAWQwDwYDVR0TBAgwBgEB/wIBADALBgNVHQ8EBAMCAQYwDQYJKoZIhvcN
AQELBQADggEBADBlyYUVal3iutcif/iYFfA/DaDH6DNyVxzMVD/fxmRyLYeDRPE9
iu9SyamcVgeIvSVPCrS9oxvXOQu9fj0Jf2WtsiEjdIAbpU1lYfSaGWNaN/mpbT0d
sJ9D4754z7JfYvEf9uL0pebkCozYSwU8wI83Qa25avoCHDUSjCnGa27iMHbwYzn+
OJY9UVjrwGyt6zUU/v8ccLiGkq7KdK2QrK7F2KJOf4w9U3SY7QWygyciPhmJYAws
9vfS9qx2elyduybGkK0ptSis8UmGKIIa1fhOUNVRj5CGC5j7wR+pP3Nyogie+CiL
JT03OPvZ2BoAOyOIoQYUGZW56CQRhBjMiCE=
-----END CERTIFICATE-----
Certificate:
    Data:
        Version: 3 (0x2)
        Serial Number: 100 (0x64)
        Signature Algorithm: sha256WithRSAEncryption
        Issuer: C = US, ST = Montana, L = Bozeman, O = Sawtooth, OU = Consulting, CN = www.wolfssl.com, emailAddress = info@wolfssl.com
        Validity
            Not Before: Dec 20 23:07:25 2021 GMT
            Not After : Sep 15 23:07:25 2024 GMT
        Subject: C = US, ST = Washington, L = Seattle, O = wolfSSL Inc., OU = Engineering, CN = chainB-ICA2-pathlen1, emailAddress = info@wolfssl.com
        Subject Public Key Info:
            Public Key Algorithm: rsaEncryption
                RSA Public-Key: (2048 bit)
                Modulus:
                    00:d0:7f:82:05:9d:5b:c4:49:e0:3e:1f:87:6e:17:
                    05:eb:e2:0a:d1:d1:a5:f5:cc:be:1d:46:d8:cd:a8:
                    6e:22:ce:3d:5c:39:71:a4:0d:03:fa:78:7e:bb:6c:
                    e8:51:e5:98:ef:a6:5e:62:d2:30:fa:3b:8f:21:5f:
                    b7:5f:98:b7:9f:a8:56:7a:39:ca:c2:df:a1:56:fe:
                    95:97:56:5e:5b:fe:74:d9:f2:2e:ca:7e:db:50:77:
                    5a:d1:90:dc:22:d6:fe:4b:c0:57:a1:c6:3b:4a:ba:
                    ad:05:14:c9:24:68:76:b5:e2:26:d5:cb:50:fd:d0:
                    77:0e:8c:0c:b9:5e:f7:a4:9a:45:35:6c:62:ca:e9:
                    38:d4:10:9a:5c:30:a5:4f:26:47:03:03:73:56:85:
                    8c:be:f5:d0:c0:09:06:3e:0e:e8:e5:7d:d0:19:54:
                    ed:57:ec:51:cf:bc:95:15:91:cf:d0:9a:84:dd:8a:
                    50:7c:33:c2:1a:61:70:31:9a:19:17:28:b3:8c:da:
                    5f:b8:d2:06:6b:82:3f:b6:6a:28:29:86:b4:20:cb:
                    a5:af:73:66:e4:37:36:81:f0:3f:ad:bf:05:b8:db:
                    2e:c4:22:e2:eb:46:87:f4:60:d1:a6:7f:ee:9c:41:
                    a7:f3:aa:e9:37:dd:da:d6:f0:cd:48:ac:51:d1:77:
                    8d:a1
                Exponent: 65537 (0x10001)
        X509v3 extensions:
            X509v3 Subject Key Identifier: 
                EE:59:9D:56:0B:7C:0A:45:44:E3:15:57:E2:B2:F3:1D:64:6F:AF:7A
            X509v3 Authority Key Identifier: 
                keyid:27:8E:67:11:74:C3:26:1D:3F:ED:33:63:B3:A4:D8:1D:30:E5:E8:D5
                DirName:/C=US/ST=Montana/L=Bozeman/O=Sawtooth/OU=Consulting/CN=www.wolfssl.com/emailAddress=info@wolfssl.com
                serial:7D:94:70:88:BA:07:42:8D:AA:AF:4F:BE:C2:1A:48:F0:D1:40:E6:42

            X509v3 Basic Constraints: 
                CA:TRUE, pathlen:1
            X509v3 Key Usage: 
                Certificate Sign, CRL Sign
    Signature Algorithm: sha256WithRSAEncryption
         27:15:71:ae:36:f4:cd:a0:70:78:44:74:e8:17:7f:f4:cf:eb:
         d8:bc:5d:6a:b3:91:79:ab:d1:d4:ef:72:b7:64:30:c2:49:96:
         9c:a3:d8:05:66:a7:e5:7b:96:8e:ff:bd:3f:3a:d6:36:f5:01:
         06:6b:a8:83:d2:23:dc:48:ff:a7:66:f6:27:a8:99:82:dd:d0:
         a4:c4:a9:92:f0:d6:f2:1a:d0:cb:c3:0b:65:63:31:30:46:92:
         65:84:fe:0b:da:fa:9e:b6:70:24:9a:b0:69:d0:90:cb:c1:ec:
         9e:99:10:74:19:5b:78:e1:17:64:d5:74:5d:85:11:92:bd:94:
         b5:18:11:ae:82:c2:78:36:4c:eb:11:e8:a3:95:42:07:cd:9d:
         5d:36:14:03:3c:d6:46:0d:7c:19:8c:7c:13:51:e3:5c:c2:a4:
         ed:0c:a0:cc:71:08:a6:ec:0f:18:13:bd:59:e5:e3:96:c7:d8:
         04:77:00:7f:45:90:ca:e4:de:63:d7:83:3a:94:e3:01:98:d2:
         6d:cd:22:2a:cb:31:b7:08:29:15:e3:a2:f8:46:98:56:07:6d:
         b2:0b:91:38:a0:ea:20:c9:63:6f:41:df:b6:3a:bd:58:f4:8b:
         d3:62:ae:1b:b5:64:d3:c0:49:b6:63:20:a4:6b:39:e6:66:48:
         f5:c9:81:9c
-----BEGIN CERTIFICATE-----
MIIEzDCCA7SgAwIBAgIBZDANBgkqhkiG9w0BAQsFADCBlDELMAkGA1UEBhMCVVMx
EDAOBgNVBAgMB01vbnRhbmExEDAOBgNVBAcMB0JvemVtYW4xETAPBgNVBAoMCFNh
d3Rvb3RoMRMwEQYDVQQLDApDb25zdWx0aW5nMRgwFgYDVQQDDA93d3cud29sZnNz
bC5jb20xHzAdBgkqhkiG9w0BCQEWEGluZm9Ad29sZnNzbC5jb20wHhcNMjExMjIw
MjMwNzI1WhcNMjQwOTE1MjMwNzI1WjCBoTELMAkGA1UEBhMCVVMxEzARBgNVBAgM
Cldhc2hpbmd0b24xEDAOBgNVBAcMB1NlYXR0bGUxFTATBgNVBAoMDHdvbGZTU0wg
SW5jLjEUMBIGA1UECwwLRW5naW5lZXJpbmcxHTAbBgNVBAMMFGNoYWluQi1JQ0Ey
LXBhdGhsZW4xMR8wHQYJKoZIhvcNAQkBFhBpbmZvQHdvbGZzc2wuY29tMIIBIjAN
BgkqhkiG9w0BAQEFAAOCAQ8AMIIBCgKCAQEA0H+CBZ1bxEngPh+HbhcF6+IK0dGl
9cy+HUbYzahuIs49XDlxpA0D+nh+u2zoUeWY76ZeYtIw+juPIV+3X5i3n6hWejnK
wt+hVv6Vl1ZeW/502fIuyn7bUHda0ZDcItb+S8BXocY7SrqtBRTJJGh2teIm1ctQ
/dB3DowMuV73pJpFNWxiyuk41BCaXDClTyZHAwNzVoWMvvXQwAkGPg7o5X3QGVTt
V+xRz7yVFZHP0JqE3YpQfDPCGmFwMZoZFyizjNpfuNIGa4I/tmooKYa0IMulr3Nm
5Dc2gfA/rb8FuNsuxCLi60aH9GDRpn/unEGn86rpN93a1vDNSKxR0XeNoQIDAQAB
o4IBGDCCARQwHQYDVR0OBBYEFO5ZnVYLfApFROMVV+Ky8x1kb696MIHUBgNVHSME
gcwwgcmAFCeOZxF0wyYdP+0zY7Ok2B0w5ejVoYGapIGXMIGUMQswCQYDVQQGEwJV
UzEQMA4GA1UECAwHTW9udGFuYTEQMA4GA1UEBwwHQm96ZW1hbjERMA8GA1UECgwI
U2F3dG9vdGgxEzARBgNVBAsMCkNvbnN1bHRpbmcxGDAWBgNVBAMMD3d3dy53b2xm
c3NsLmNvbTEfMB0GCSqGSIb3DQEJARYQaW5mb0B3b2xmc3NsLmNvbYIUfZRwiLoH
Qo2qr0++whpI8NFA5kIwDwYDVR0TBAgwBgEB/wIBATALBgNVHQ8EBAMCAQYwDQYJ
KoZIhvcNAQELBQADggEBACcVca429M2gcHhEdOgXf/TP69i8XWqzkXmr0dTvcrdk
MMJJlpyj2AVmp+V7lo7/vT861jb1AQZrqIPSI9xI/6dm9ieomYLd0KTEqZLw1vIa
0MvDC2VjMTBGkmWE/gva+p62cCSasGnQkMvB7J6ZEHQZW3jhF2TVdF2FEZK9lLUY
Ea6Cwng2TOsR6KOVQgfNnV02FAM81kYNfBmMfBNR41zCpO0MoMxxCKbsDxgTvVnl
45bH2AR3AH9FkMrk3mPXgzqU4wGY0m3NIirLMbcIKRXjovhGmFYHbbILkTig6iDJ
Y29B37Y6vVj0i9Nirhu1ZNPASbZjIKRrOeZmSPXJgZw=
-----END CERTIFICATE-----
