Certificate:
    Data:
        Version: 3 (0x2)
        Serial Number: 100 (0x64)
        Signature Algorithm: sha256WithRSAEncryption
        Issuer: C = US, ST = Washington, L = Seattle, O = wolfSSL Inc., OU = Engineering, CN = chainJ-ICA4-pathlen2, emailAddress = info@wolfssl.com
        Validity
            Not Before: Feb 15 12:50:26 2022 GMT
            Not After : Nov 11 12:50:26 2024 GMT
        Subject: C = US, ST = Washington, L = Seattle, O = wolfSSL Inc., OU = Engineering, CN = chainJ-ICA3-no_pathlen, emailAddress = info@wolfssl.com
        Subject Public Key Info:
            Public Key Algorithm: rsaEncryption
                RSA Public-Key: (2048 bit)
                Modulus:
                    00:d8:aa:f6:05:95:70:5a:53:c7:66:10:aa:90:79:
                    3b:cb:78:2a:ef:5f:43:22:71:7c:6d:47:99:a7:8b:
                    39:e1:e7:4e:48:29:48:25:e1:b5:f5:25:df:64:7b:
                    ea:ed:aa:1f:8b:0d:e7:eb:f5:2f:ae:2a:5a:3d:50:
                    c7:fb:ef:0b:8b:44:0b:63:94:be:c6:d7:63:45:2e:
                    85:96:00:5c:be:7e:10:09:b3:d0:aa:7c:de:20:f8:
                    75:39:23:85:ee:84:13:88:54:2a:96:f5:16:27:9f:
                    8b:b0:a6:2a:f4:9d:13:8c:71:1c:0c:a6:59:53:ec:
                    f9:0b:2b:c9:45:13:d6:12:ef:39:d1:8e:9c:9e:ae:
                    3c:bb:b6:d8:10:ac:b7:59:49:5b:73:00:be:af:92:
                    21:14:54:a3:fa:b6:17:ae:b6:dc:b1:f1:61:f0:75:
                    07:43:5e:48:fa:e7:80:56:cf:df:ad:46:52:85:42:
                    fb:a7:70:53:14:c6:b7:51:fa:23:f0:f5:4b:d1:bb:
                    3f:9b:fc:35:ca:d2:85:f1:a0:77:02:06:7c:79:99:
                    13:b5:68:b4:16:47:42:88:f7:bc:eb:78:b2:e8:11:
                    2f:62:f6:da:f9:ef:1b:e0:9f:b5:d5:32:65:b5:4e:
                    e4:be:36:6b:65:65:1a:96:a2:47:b5:3e:9f:b0:0d:
                    63:41
                Exponent: 65537 (0x10001)
        X509v3 extensions:
            X509v3 Subject Key Identifier: 
                CD:97:49:78:F7:31:61:ED:2F:71:1A:68:E9:45:2C:40:78:51:93:5B
            X509v3 Authority Key Identifier: 
                keyid:FC:18:13:52:BB:33:4A:DB:1C:5B:D1:80:98:3E:40:86:95:58:72:F9
                DirName:/C=US/ST=Montana/L=Bozeman/O=Sawtooth/OU=Consulting/CN=www.wolfssl.com/emailAddress=info@wolfssl.com
                serial:64

            X509v3 Basic Constraints: 
                CA:TRUE
            X509v3 Key Usage: 
                Certificate Sign, CRL Sign
    Signature Algorithm: sha256WithRSAEncryption
         2c:da:81:64:69:af:80:e9:90:34:88:6f:94:32:96:f0:98:45:
         a5:14:19:90:94:f1:f2:31:09:43:48:f0:55:e3:95:85:67:94:
         c7:03:09:7c:0b:84:8a:6e:6f:57:73:04:0d:77:c5:53:56:52:
         f0:44:4c:29:0a:98:55:8e:05:22:ea:1a:5e:84:ef:22:a8:a9:
         29:54:e0:bb:60:14:32:b1:59:81:bc:4f:6d:3d:10:fc:33:73:
         5a:eb:f9:00:66:b6:71:01:e4:39:d2:3f:3f:6d:f3:5e:ae:ac:
         c5:cb:78:8c:3e:6f:98:d9:c1:be:55:50:99:8f:db:62:e4:5a:
         42:72:f6:9c:8d:77:8f:c3:2c:5e:8f:eb:52:7c:ed:87:8c:44:
         6c:d5:24:59:cb:d4:24:cb:90:82:a9:47:df:86:95:2c:49:d4:
         8d:b0:da:c6:5d:d2:bf:1e:ec:82:67:3f:37:66:12:fa:3e:55:
         80:b0:29:28:61:79:dd:c9:4a:22:c9:ef:80:14:7c:d7:bb:29:
         5d:d1:b2:b7:54:df:61:2a:41:c5:45:64:d5:80:e6:43:a0:1f:
         a5:28:67:41:13:ce:3d:dc:27:8d:39:44:b3:98:d3:1c:a1:cf:
         58:55:72:33:75:16:9a:bd:3e:73:9f:07:ee:e7:4f:fb:f5:a0:
         6b:c5:8e:8f
-----BEGIN CERTIFICATE-----
MIIExDCCA6ygAwIBAgIBZDANBgkqhkiG9w0BAQsFADCBoTELMAkGA1UEBhMCVVMx
EzARBgNVBAgMCldhc2hpbmd0b24xEDAOBgNVBAcMB1NlYXR0bGUxFTATBgNVBAoM
DHdvbGZTU0wgSW5jLjEUMBIGA1UECwwLRW5naW5lZXJpbmcxHTAbBgNVBAMMFGNo
YWluSi1JQ0E0LXBhdGhsZW4yMR8wHQYJKoZIhvcNAQkBFhBpbmZvQHdvbGZzc2wu
Y29tMB4XDTIyMDIxNTEyNTAyNloXDTI0MTExMTEyNTAyNlowgaMxCzAJBgNVBAYT
AlVTMRMwEQYDVQQIDApXYXNoaW5ndG9uMRAwDgYDVQQHDAdTZWF0dGxlMRUwEwYD
VQQKDAx3b2xmU1NMIEluYy4xFDASBgNVBAsMC0VuZ2luZWVyaW5nMR8wHQYDVQQD
DBZjaGFpbkotSUNBMy1ub19wYXRobGVuMR8wHQYJKoZIhvcNAQkBFhBpbmZvQHdv
bGZzc2wuY29tMIIBIjANBgkqhkiG9w0BAQEFAAOCAQ8AMIIBCgKCAQEA2Kr2BZVw
WlPHZhCqkHk7y3gq719DInF8bUeZp4s54edOSClIJeG19SXfZHvq7aofiw3n6/Uv
ripaPVDH++8Li0QLY5S+xtdjRS6FlgBcvn4QCbPQqnzeIPh1OSOF7oQTiFQqlvUW
J5+LsKYq9J0TjHEcDKZZU+z5CyvJRRPWEu850Y6cnq48u7bYEKy3WUlbcwC+r5Ih
FFSj+rYXrrbcsfFh8HUHQ15I+ueAVs/frUZShUL7p3BTFMa3Ufoj8PVL0bs/m/w1
ytKF8aB3AgZ8eZkTtWi0FkdCiPe863iy6BEvYvba+e8b4J+11TJltU7kvjZrZWUa
lqJHtT6fsA1jQQIDAQABo4IBATCB/jAdBgNVHQ4EFgQUzZdJePcxYe0vcRpo6UUs
QHhRk1swgcEGA1UdIwSBuTCBtoAU/BgTUrszStscW9GAmD5AhpVYcvmhgZqkgZcw
gZQxCzAJBgNVBAYTAlVTMRAwDgYDVQQIDAdNb250YW5hMRAwDgYDVQQHDAdCb3pl
bWFuMREwDwYDVQQKDAhTYXd0b290aDETMBEGA1UECwwKQ29uc3VsdGluZzEYMBYG
A1UEAwwPd3d3LndvbGZzc2wuY29tMR8wHQYJKoZIhvcNAQkBFhBpbmZvQHdvbGZz
c2wuY29tggFkMAwGA1UdEwQFMAMBAf8wCwYDVR0PBAQDAgEGMA0GCSqGSIb3DQEB
CwUAA4IBAQAs2oFkaa+A6ZA0iG+UMpbwmEWlFBmQlPHyMQlDSPBV45WFZ5THAwl8
C4SKbm9XcwQNd8VTVlLwREwpCphVjgUi6hpehO8iqKkpVOC7YBQysVmBvE9tPRD8
M3Na6/kAZrZxAeQ50j8/bfNerqzFy3iMPm+Y2cG+VVCZj9ti5FpCcvacjXePwyxe
j+tSfO2HjERs1SRZy9Qky5CCqUffhpUsSdSNsNrGXdK/HuyCZz83ZhL6PlWAsCko
YXndyUoiye+AFHzXuyld0bK3VN9hKkHFRWTVgOZDoB+lKGdBE8493CeNOUSzmNMc
oc9YVXIzdRaavT5znwfu50/79aBrxY6P
-----END CERTIFICATE-----
