Certificate:
    Data:
        Version: 3 (0x2)
        Serial Number: 100 (0x64)
        Signature Algorithm: sha256WithRSAEncryption
        Issuer: C = US, ST = Washington, L = Seattle, O = wolfSSL Inc., OU = Engineering, CN = chainI-ICA3-pathlen2, emailAddress = info@wolfssl.com
        Validity
            Not Before: Dec 18 21:25:34 2024 GMT
            Not After : Sep 14 21:25:34 2027 GMT
        Subject: C = US, ST = Washington, L = Seattle, O = wolfSSL Inc., OU = Engineering, CN = chainI-ICA2-no_pathlen, emailAddress = info@wolfssl.com
        Subject Public Key Info:
            Public Key Algorithm: rsaEncryption
                Public-Key: (2048 bit)
                Modulus:
                    00:de:1e:08:66:12:fe:20:07:10:1b:a1:27:0d:f9:
                    22:30:81:9b:ce:62:b1:a6:6d:49:d4:ed:b8:2d:4b:
                    97:77:1e:94:51:3d:73:2b:16:e9:05:e9:4c:1b:82:
                    ad:47:9d:33:30:53:b5:9b:d2:2d:e9:7b:d6:63:f3:
                    61:20:1b:23:6e:47:09:8b:c0:d5:09:85:a6:e2:e4:
                    3a:4d:b3:f9:dd:c6:7c:9a:42:07:22:d5:7b:67:18:
                    38:c4:fc:ea:8d:09:80:a0:b0:44:33:fd:c1:aa:8b:
                    9c:98:e3:95:c3:74:71:3b:71:b8:b3:80:bf:30:63:
                    85:09:27:8b:12:b5:86:b0:0b:99:ff:97:42:52:a0:
                    ac:b2:38:38:8d:13:96:d9:d6:fa:8f:c4:89:14:06:
                    9c:1f:0a:a3:3a:a2:f7:1f:83:d8:ae:41:44:9e:21:
                    b2:5b:b7:a2:19:e9:46:58:de:e5:a2:ab:07:7a:9a:
                    9a:60:bc:14:ed:cf:4d:42:fc:5c:28:ea:42:d1:ae:
                    cc:71:7e:52:5d:84:88:de:b6:7d:72:6e:ab:73:4b:
                    0d:ab:92:9f:11:b4:51:da:14:54:9a:0e:ec:ac:42:
                    fc:71:87:5b:54:38:09:2c:f0:5d:86:0c:34:b7:92:
                    33:5c:3e:19:b1:4d:a0:62:9b:b4:68:36:36:38:ec:
                    29:b3
                Exponent: 65537 (0x10001)
        X509v3 extensions:
            X509v3 Subject Key Identifier: 
                D1:BA:FB:FF:1D:29:41:8A:6A:5F:B2:F3:A7:41:05:47:09:1F:48:42
            X509v3 Authority Key Identifier: 
                keyid:EE:37:A6:F2:40:D0:EF:FD:22:C7:A3:B4:6C:57:47:40:B9:99:F9:8D
                DirName:/C=US/ST=Montana/L=Bozeman/O=Sawtooth/OU=Consulting/CN=www.wolfssl.com/emailAddress=info@wolfssl.com
                serial:64
            X509v3 Basic Constraints: 
                CA:TRUE
            X509v3 Key Usage: 
                Certificate Sign, CRL Sign
    Signature Algorithm: sha256WithRSAEncryption
    Signature Value:
        58:ae:c8:f4:6e:ca:c0:46:0e:59:bb:5d:05:e2:aa:0a:99:f4:
        f6:91:af:31:f8:e5:44:4a:56:84:68:1e:5e:e4:b7:75:38:b0:
        26:a4:9d:72:83:89:5a:20:30:ce:b1:8f:e0:6a:a3:99:68:da:
        2f:b4:69:4f:4c:84:a5:0c:a3:d3:e7:05:c8:06:38:f4:01:00:
        f1:f6:e8:db:b1:7c:ce:eb:58:35:cc:2e:8f:ee:0d:3d:03:27:
        9b:f9:6f:ab:c9:55:45:ff:b9:67:70:00:dd:94:ff:6d:11:55:
        26:24:05:ae:13:fc:db:38:c6:e2:05:df:94:11:37:59:1c:67:
        a3:72:8c:99:2c:64:4c:5d:20:91:ff:2f:39:48:b7:23:92:56:
        3b:27:79:03:c5:60:b7:b3:17:bc:b7:e5:4e:36:9f:99:47:06:
        17:ee:f1:bf:3f:95:c5:41:73:8e:5b:f8:9b:61:1b:05:50:7a:
        10:6e:77:45:d9:7b:40:99:a3:1e:d4:d6:90:60:18:2a:2d:b1:
        21:1f:a4:84:e5:12:58:67:f4:06:06:74:93:0f:ba:4a:31:83:
        d3:de:50:a3:76:3a:68:1b:44:00:56:48:3e:f9:a6:77:94:a9:
        21:06:ea:e4:31:09:3c:b0:1f:9a:bb:58:9e:e1:ea:40:2d:ff:
        d5:66:9b:8e
-----BEGIN CERTIFICATE-----
MIIExDCCA6ygAwIBAgIBZDANBgkqhkiG9w0BAQsFADCBoTELMAkGA1UEBhMCVVMx
EzARBgNVBAgMCldhc2hpbmd0b24xEDAOBgNVBAcMB1NlYXR0bGUxFTATBgNVBAoM
DHdvbGZTU0wgSW5jLjEUMBIGA1UECwwLRW5naW5lZXJpbmcxHTAbBgNVBAMMFGNo
YWluSS1JQ0EzLXBhdGhsZW4yMR8wHQYJKoZIhvcNAQkBFhBpbmZvQHdvbGZzc2wu
Y29tMB4XDTI0MTIxODIxMjUzNFoXDTI3MDkxNDIxMjUzNFowgaMxCzAJBgNVBAYT
AlVTMRMwEQYDVQQIDApXYXNoaW5ndG9uMRAwDgYDVQQHDAdTZWF0dGxlMRUwEwYD
VQQKDAx3b2xmU1NMIEluYy4xFDASBgNVBAsMC0VuZ2luZWVyaW5nMR8wHQYDVQQD
DBZjaGFpbkktSUNBMi1ub19wYXRobGVuMR8wHQYJKoZIhvcNAQkBFhBpbmZvQHdv
bGZzc2wuY29tMIIBIjANBgkqhkiG9w0BAQEFAAOCAQ8AMIIBCgKCAQEA3h4IZhL+
IAcQG6EnDfkiMIGbzmKxpm1J1O24LUuXdx6UUT1zKxbpBelMG4KtR50zMFO1m9It
6XvWY/NhIBsjbkcJi8DVCYWm4uQ6TbP53cZ8mkIHItV7Zxg4xPzqjQmAoLBEM/3B
qoucmOOVw3RxO3G4s4C/MGOFCSeLErWGsAuZ/5dCUqCssjg4jROW2db6j8SJFAac
HwqjOqL3H4PYrkFEniGyW7eiGelGWN7loqsHepqaYLwU7c9NQvxcKOpC0a7McX5S
XYSI3rZ9cm6rc0sNq5KfEbRR2hRUmg7srEL8cYdbVDgJLPBdhgw0t5IzXD4ZsU2g
Ypu0aDY2OOwpswIDAQABo4IBATCB/jAdBgNVHQ4EFgQU0br7/x0pQYpqX7Lzp0EF
RwkfSEIwgcEGA1UdIwSBuTCBtoAU7jem8kDQ7/0ix6O0bFdHQLmZ+Y2hgZqkgZcw
gZQxCzAJBgNVBAYTAlVTMRAwDgYDVQQIDAdNb250YW5hMRAwDgYDVQQHDAdCb3pl
bWFuMREwDwYDVQQKDAhTYXd0b290aDETMBEGA1UECwwKQ29uc3VsdGluZzEYMBYG
A1UEAwwPd3d3LndvbGZzc2wuY29tMR8wHQYJKoZIhvcNAQkBFhBpbmZvQHdvbGZz
c2wuY29tggFkMAwGA1UdEwQFMAMBAf8wCwYDVR0PBAQDAgEGMA0GCSqGSIb3DQEB
CwUAA4IBAQBYrsj0bsrARg5Zu10F4qoKmfT2ka8x+OVESlaEaB5e5Ld1OLAmpJ1y
g4laIDDOsY/gaqOZaNovtGlPTISlDKPT5wXIBjj0AQDx9ujbsXzO61g1zC6P7g09
Ayeb+W+ryVVF/7lncADdlP9tEVUmJAWuE/zbOMbiBd+UETdZHGejcoyZLGRMXSCR
/y85SLcjklY7J3kDxWC3sxe8t+VONp+ZRwYX7vG/P5XFQXOOW/ibYRsFUHoQbndF
2XtAmaMe1NaQYBgqLbEhH6SE5RJYZ/QGBnSTD7pKMYPT3lCjdjpoG0QAVkg++aZ3
lKkhBurkMQk8sB+au1ie4epALf/VZpuO
-----END CERTIFICATE-----
