Certificate:
    Data:
        Version: 3 (0x2)
        Serial Number: 100 (0x64)
        Signature Algorithm: sha256WithRSAEncryption
        Issuer: C = US, ST = Washington, L = Seattle, O = wolfSSL Inc., OU = Engineering, CN = chainG-ICA6-pathlen10, emailAddress = info@wolfssl.com
        Validity
            Not Before: Jun 19 13:23:42 2020 GMT
            Not After : Mar 16 13:23:42 2023 GMT
        Subject: C = US, ST = Washington, L = Seattle, O = wolfSSL Inc., OU = Engineering, CN = chainG-ICA5-pathlen20, emailAddress = info@wolfssl.com
        Subject Public Key Info:
            Public Key Algorithm: rsaEncryption
                RSA Public-Key: (2048 bit)
                Modulus:
                    00:be:9d:98:a2:41:ca:64:1f:a2:34:dc:51:7d:49:
                    2b:f7:f8:7a:fc:1a:22:8d:3a:17:8e:00:9c:74:06:
                    18:0f:26:d1:e8:1d:55:4b:3e:bb:6e:98:6d:65:cb:
                    6f:be:c5:98:40:65:1d:e1:1d:af:ad:bc:7c:b0:fa:
                    b6:2a:cb:af:df:d5:52:98:e6:01:01:31:01:3f:c7:
                    16:06:44:92:55:43:6f:dd:49:be:aa:52:d2:80:ca:
                    3a:d0:72:f3:0a:7e:59:cb:2c:74:7c:5b:19:3d:75:
                    9d:3e:da:35:45:49:8b:0d:36:84:80:41:b7:ce:70:
                    fc:a8:d0:4d:0b:d4:f3:4e:73:87:db:2e:18:20:45:
                    70:f3:5a:d1:cf:4f:f8:78:ad:7c:4b:97:3c:f1:0f:
                    8a:f6:6c:8f:7a:3a:c9:79:82:2d:bf:ae:80:f8:8b:
                    1d:79:17:9b:76:34:97:b1:79:5d:79:fa:30:73:78:
                    fc:9c:ee:eb:62:20:95:f1:a8:af:1e:4a:91:cc:1e:
                    34:90:c7:89:21:41:41:90:09:10:52:dd:21:75:15:
                    11:aa:cf:d8:e4:6c:7d:96:c8:d6:cd:90:eb:fa:df:
                    86:e7:3d:36:73:18:f3:86:c5:99:0e:0e:f7:e4:09:
                    8f:8c:29:f1:ad:15:e9:82:c9:6c:87:fc:00:7b:4b:
                    2e:f1
                Exponent: 65537 (0x10001)
        X509v3 extensions:
            X509v3 Subject Key Identifier: 
                1D:51:80:B6:9A:A7:AC:DD:80:7B:4B:A2:0B:62:BE:E4:87:30:C7:CA
            X509v3 Authority Key Identifier: 
                keyid:14:07:E8:A7:3A:A2:9C:DD:4C:30:B0:4D:F0:00:C4:88:C4:39:DF:73
                DirName:/C=US/ST=Washington/L=Seattle/O=wolfSSL Inc./OU=Engineering/CN=chainG-ICA7-pathlen100/emailAddress=info@wolfssl.com
                serial:64

            X509v3 Basic Constraints: 
                CA:TRUE, pathlen:20
            X509v3 Key Usage: 
                Certificate Sign, CRL Sign
    Signature Algorithm: sha256WithRSAEncryption
         21:96:bc:65:05:25:9e:6b:62:58:7e:88:40:be:b3:fd:b5:71:
         52:3f:c6:1a:4d:2f:b4:92:5e:dc:74:f3:1f:27:3d:48:c7:a3:
         f7:f9:63:17:c4:4b:20:02:60:5a:d9:58:5c:6d:89:df:9b:d7:
         cc:eb:93:e4:24:20:53:8d:79:fb:3a:f6:b1:dd:f7:fa:98:f5:
         6d:7a:4b:e6:59:f4:d7:91:aa:3d:13:85:03:9b:b8:dd:b5:2b:
         dd:c4:e4:a2:62:19:34:c2:28:b9:c1:9e:5e:52:26:f8:b2:66:
         f9:e7:23:81:a6:1c:b5:6c:aa:a8:2f:87:07:15:09:c2:28:ee:
         d3:72:05:76:46:26:f2:22:2f:1e:41:03:eb:51:77:ee:df:72:
         47:1d:7f:de:db:e8:fe:4e:78:0f:a2:55:83:00:9b:04:f1:2e:
         57:56:d8:7f:72:d0:b6:dd:c8:d9:95:79:95:4c:56:e7:d9:71:
         77:0b:0d:7a:00:77:4e:99:85:44:30:7b:93:28:54:75:20:ed:
         20:fa:89:6f:6e:23:44:97:26:9b:b8:73:06:5c:da:84:b4:54:
         34:54:82:1e:8c:61:74:5a:b6:67:81:d7:9a:e6:30:25:41:55:
         4e:5a:71:75:39:45:98:18:6c:ae:b0:ae:b7:79:57:26:5f:77:
         4c:e0:9d:2a
-----BEGIN CERTIFICATE-----
MIIE1zCCA7+gAwIBAgIBZDANBgkqhkiG9w0BAQsFADCBojELMAkGA1UEBhMCVVMx
EzARBgNVBAgMCldhc2hpbmd0b24xEDAOBgNVBAcMB1NlYXR0bGUxFTATBgNVBAoM
DHdvbGZTU0wgSW5jLjEUMBIGA1UECwwLRW5naW5lZXJpbmcxHjAcBgNVBAMMFWNo
YWluRy1JQ0E2LXBhdGhsZW4xMDEfMB0GCSqGSIb3DQEJARYQaW5mb0B3b2xmc3Ns
LmNvbTAeFw0yMDA2MTkxMzIzNDJaFw0yMzAzMTYxMzIzNDJaMIGiMQswCQYDVQQG
EwJVUzETMBEGA1UECAwKV2FzaGluZ3RvbjEQMA4GA1UEBwwHU2VhdHRsZTEVMBMG
A1UECgwMd29sZlNTTCBJbmMuMRQwEgYDVQQLDAtFbmdpbmVlcmluZzEeMBwGA1UE
AwwVY2hhaW5HLUlDQTUtcGF0aGxlbjIwMR8wHQYJKoZIhvcNAQkBFhBpbmZvQHdv
bGZzc2wuY29tMIIBIjANBgkqhkiG9w0BAQEFAAOCAQ8AMIIBCgKCAQEAvp2YokHK
ZB+iNNxRfUkr9/h6/BoijToXjgCcdAYYDybR6B1VSz67bphtZctvvsWYQGUd4R2v
rbx8sPq2Ksuv39VSmOYBATEBP8cWBkSSVUNv3Um+qlLSgMo60HLzCn5Zyyx0fFsZ
PXWdPto1RUmLDTaEgEG3znD8qNBNC9TzTnOH2y4YIEVw81rRz0/4eK18S5c88Q+K
9myPejrJeYItv66A+IsdeRebdjSXsXldefowc3j8nO7rYiCV8aivHkqRzB40kMeJ
IUFBkAkQUt0hdRURqs/Y5Gx9lsjWzZDr+t+G5z02cxjzhsWZDg735AmPjCnxrRXp
gslsh/wAe0su8QIDAQABo4IBFDCCARAwHQYDVR0OBBYEFB1RgLaap6zdgHtLogti
vuSHMMfKMIHQBgNVHSMEgcgwgcWAFBQH6Kc6opzdTDCwTfAAxIjEOd9zoYGppIGm
MIGjMQswCQYDVQQGEwJVUzETMBEGA1UECAwKV2FzaGluZ3RvbjEQMA4GA1UEBwwH
U2VhdHRsZTEVMBMGA1UECgwMd29sZlNTTCBJbmMuMRQwEgYDVQQLDAtFbmdpbmVl
cmluZzEfMB0GA1UEAwwWY2hhaW5HLUlDQTctcGF0aGxlbjEwMDEfMB0GCSqGSIb3
DQEJARYQaW5mb0B3b2xmc3NsLmNvbYIBZDAPBgNVHRMECDAGAQH/AgEUMAsGA1Ud
DwQEAwIBBjANBgkqhkiG9w0BAQsFAAOCAQEAIZa8ZQUlnmtiWH6IQL6z/bVxUj/G
Gk0vtJJe3HTzHyc9SMej9/ljF8RLIAJgWtlYXG2J35vXzOuT5CQgU415+zr2sd33
+pj1bXpL5ln015GqPROFA5u43bUr3cTkomIZNMIoucGeXlIm+LJm+ecjgaYctWyq
qC+HBxUJwiju03IFdkYm8iIvHkED61F37t9yRx1/3tvo/k54D6JVgwCbBPEuV1bY
f3LQtt3I2ZV5lUxW59lxdwsNegB3TpmFRDB7kyhUdSDtIPqJb24jRJcmm7hzBlza
hLRUNFSCHoxhdFq2Z4HXmuYwJUFVTlpxdTlFmBhsrrCut3lXJl93TOCdKg==
-----END CERTIFICATE-----
