Certificate:
    Data:
        Version: 3 (0x2)
        Serial Number: 101 (0x65)
        Signature Algorithm: sha256WithRSAEncryption
        Issuer: C = US, ST = Washington, L = Seattle, O = wolfSSL Inc., OU = Engineering, CN = chainB-ICA1-pathlen0, emailAddress = info@wolfssl.com
        Validity
            Not Before: May  7 07:39:04 2020 GMT
            Not After : Feb  1 07:39:04 2023 GMT
        Subject: C = US, ST = Washington, L = Seattle, O = wolfSSL Inc., OU = Engineering, CN = chainB-entity, emailAddress = info@wolfssl.com
        Subject Public Key Info:
            Public Key Algorithm: rsaEncryption
                RSA Public-Key: (2048 bit)
                Modulus:
                    00:d7:5f:d9:3d:d7:5b:11:aa:3e:53:31:d0:32:78:
                    87:fb:c0:8e:80:6d:fc:68:73:1f:9c:77:66:16:35:
                    fc:2f:d7:e4:ca:ba:2a:73:5f:14:94:12:f0:48:31:
                    a2:40:ad:b4:e3:07:0c:02:47:b4:0a:07:69:d5:d2:
                    85:bf:c8:bc:14:8c:c7:87:ba:5f:87:c5:07:f4:df:
                    a4:46:1e:b7:13:0f:9d:7e:f6:1a:7b:29:09:55:4c:
                    17:ee:c8:b0:9d:39:0c:89:6e:18:9c:06:7f:5d:95:
                    d2:4c:71:b3:1f:ea:5d:d2:f6:2c:69:a8:16:15:59:
                    e5:7d:03:d7:bd:1a:34:e3:f1:27:e3:b9:7d:68:e0:
                    39:3f:35:62:2f:20:20:fa:19:62:37:1a:30:47:6c:
                    a3:f9:8e:9c:f3:67:2e:bb:38:4c:2e:0a:21:9b:70:
                    b6:97:a2:1b:b3:98:0d:5b:74:97:33:f0:b8:6c:4e:
                    ad:b4:1f:48:62:c9:9a:af:2d:a6:a1:06:ae:98:30:
                    54:5e:cb:dd:23:77:d5:ee:5c:fb:81:f0:2b:ad:6f:
                    fa:e3:b1:0e:98:bd:3e:0b:f4:7c:c5:e3:50:bf:08:
                    9b:bf:be:f8:6a:d9:db:78:36:84:f2:7e:7b:7d:5e:
                    a7:8f:42:81:5f:41:f4:77:5c:30:51:f5:3f:2d:25:
                    95:4d
                Exponent: 65537 (0x10001)
        X509v3 extensions:
            X509v3 Subject Key Identifier: 
                7F:17:7E:8E:A8:2C:AD:9C:C7:22:7E:A6:C6:90:9E:63:C4:5F:33:9E
            X509v3 Authority Key Identifier: 
                keyid:D7:90:E4:86:59:24:F9:2B:B8:06:8E:B1:8F:33:E5:2C:63:F1:03:16
                DirName:/C=US/ST=Washington/L=Seattle/O=wolfSSL Inc./OU=Engineering/CN=chainB-ICA2-pathlen1/emailAddress=info@wolfssl.com
                serial:64

            X509v3 Basic Constraints: 
                CA:FALSE
    Signature Algorithm: sha256WithRSAEncryption
         4c:68:70:3b:15:49:d0:d7:71:36:8b:fd:ee:19:14:d0:ad:7d:
         68:a1:81:79:38:d2:bd:a5:48:2a:0a:e3:8a:38:a2:a0:e8:9a:
         a5:e1:f2:4c:9b:06:64:fb:7b:e6:d1:b1:da:6f:4d:dc:b8:34:
         05:87:73:b6:77:a0:01:e9:2f:a4:6a:da:be:0e:16:8e:07:e8:
         20:55:59:6e:32:e9:94:67:46:f0:42:02:f3:84:7f:f8:13:18:
         4c:ae:6f:11:63:c6:3b:24:1e:67:4a:ea:9b:b4:d7:c3:58:ab:
         88:41:31:ef:0d:72:df:40:83:86:1d:a1:6a:51:d6:98:37:84:
         ef:80:c7:47:2a:2d:1b:33:b9:ba:e3:cc:53:36:e0:9f:06:c3:
         92:3c:1a:26:d5:38:1b:11:06:f1:d6:7a:bf:42:52:e9:08:80:
         d5:94:16:70:c5:b1:bc:2f:ae:89:07:5f:77:f3:63:21:8b:5f:
         51:09:a4:76:5f:83:d5:b2:f6:04:3d:60:e4:64:f8:a8:2f:d8:
         79:de:15:e3:fa:48:78:37:62:ca:e8:d2:09:ce:73:69:b7:1f:
         90:5f:67:85:b8:65:d2:95:ac:ef:a7:cf:92:95:19:ce:7a:bd:
         45:c0:db:f0:a6:28:d1:3d:0b:ee:28:09:8d:30:e0:17:a3:50:
         2d:03:cb:d7
-----BEGIN CERTIFICATE-----
MIIEtzCCA5+gAwIBAgIBZTANBgkqhkiG9w0BAQsFADCBoTELMAkGA1UEBhMCVVMx
EzARBgNVBAgMCldhc2hpbmd0b24xEDAOBgNVBAcMB1NlYXR0bGUxFTATBgNVBAoM
DHdvbGZTU0wgSW5jLjEUMBIGA1UECwwLRW5naW5lZXJpbmcxHTAbBgNVBAMMFGNo
YWluQi1JQ0ExLXBhdGhsZW4wMR8wHQYJKoZIhvcNAQkBFhBpbmZvQHdvbGZzc2wu
Y29tMB4XDTIwMDUwNzA3MzkwNFoXDTIzMDIwMTA3MzkwNFowgZoxCzAJBgNVBAYT
AlVTMRMwEQYDVQQIDApXYXNoaW5ndG9uMRAwDgYDVQQHDAdTZWF0dGxlMRUwEwYD
VQQKDAx3b2xmU1NMIEluYy4xFDASBgNVBAsMC0VuZ2luZWVyaW5nMRYwFAYDVQQD
DA1jaGFpbkItZW50aXR5MR8wHQYJKoZIhvcNAQkBFhBpbmZvQHdvbGZzc2wuY29t
MIIBIjANBgkqhkiG9w0BAQEFAAOCAQ8AMIIBCgKCAQEA11/ZPddbEao+UzHQMniH
+8COgG38aHMfnHdmFjX8L9fkyroqc18UlBLwSDGiQK204wcMAke0Cgdp1dKFv8i8
FIzHh7pfh8UH9N+kRh63Ew+dfvYaeykJVUwX7siwnTkMiW4YnAZ/XZXSTHGzH+pd
0vYsaagWFVnlfQPXvRo04/En47l9aOA5PzViLyAg+hliNxowR2yj+Y6c82cuuzhM
Lgohm3C2l6Ibs5gNW3SXM/C4bE6ttB9IYsmary2moQaumDBUXsvdI3fV7lz7gfAr
rW/647EOmL0+C/R8xeNQvwibv774atnbeDaE8n57fV6nj0KBX0H0d1wwUfU/LSWV
TQIDAQABo4H+MIH7MB0GA1UdDgQWBBR/F36OqCytnMcifqbGkJ5jxF8znjCBzgYD
VR0jBIHGMIHDgBTXkOSGWST5K7gGjrGPM+UsY/EDFqGBp6SBpDCBoTELMAkGA1UE
BhMCVVMxEzARBgNVBAgMCldhc2hpbmd0b24xEDAOBgNVBAcMB1NlYXR0bGUxFTAT
BgNVBAoMDHdvbGZTU0wgSW5jLjEUMBIGA1UECwwLRW5naW5lZXJpbmcxHTAbBgNV
BAMMFGNoYWluQi1JQ0EyLXBhdGhsZW4xMR8wHQYJKoZIhvcNAQkBFhBpbmZvQHdv
bGZzc2wuY29tggFkMAkGA1UdEwQCMAAwDQYJKoZIhvcNAQELBQADggEBAExocDsV
SdDXcTaL/e4ZFNCtfWihgXk40r2lSCoK44o4oqDomqXh8kybBmT7e+bRsdpvTdy4
NAWHc7Z3oAHpL6Rq2r4OFo4H6CBVWW4y6ZRnRvBCAvOEf/gTGEyubxFjxjskHmdK
6pu018NYq4hBMe8Nct9Ag4YdoWpR1pg3hO+Ax0cqLRszubrjzFM24J8Gw5I8GibV
OBsRBvHWer9CUukIgNWUFnDFsbwvrokHX3fzYyGLX1EJpHZfg9Wy9gQ9YORk+Kgv
2HneFeP6SHg3Ysro0gnOc2m3H5BfZ4W4ZdKVrO+nz5KVGc56vUXA2/CmKNE9C+4o
CY0w4BejUC0Dy9c=
-----END CERTIFICATE-----
Certificate:
    Data:
        Version: 3 (0x2)
        Serial Number: 100 (0x64)
        Signature Algorithm: sha256WithRSAEncryption
        Issuer: C = US, ST = Washington, L = Seattle, O = wolfSSL Inc., OU = Engineering, CN = chainB-ICA2-pathlen1, emailAddress = info@wolfssl.com
        Validity
            Not Before: May  7 07:39:04 2020 GMT
            Not After : Feb  1 07:39:04 2023 GMT
        Subject: C = US, ST = Washington, L = Seattle, O = wolfSSL Inc., OU = Engineering, CN = chainB-ICA1-pathlen0, emailAddress = info@wolfssl.com
        Subject Public Key Info:
            Public Key Algorithm: rsaEncryption
                RSA Public-Key: (2048 bit)
                Modulus:
                    00:b2:f7:aa:ae:91:d1:24:41:52:a1:22:e0:d3:97:
                    9b:e0:0c:94:9c:4a:e4:b3:85:ae:a9:43:9f:ec:7a:
                    05:dd:88:5c:e5:19:52:53:39:86:8a:b2:e2:86:27:
                    ab:03:9a:be:c4:54:67:af:b9:ac:65:e2:61:97:78:
                    66:60:29:90:62:08:62:91:a0:96:2b:0f:30:6c:da:
                    3d:70:35:52:a8:a7:d5:85:49:25:6a:56:59:bc:6b:
                    45:91:c3:37:fc:06:0d:a2:a9:46:e2:29:82:1b:77:
                    a6:49:35:fb:57:5f:33:02:92:e5:6b:67:c2:61:e2:
                    37:9c:12:5c:b5:2c:9b:2a:a5:85:97:22:73:3d:36:
                    50:55:1a:6a:59:d9:da:ac:2d:3f:e6:6a:b1:1d:60:
                    52:03:05:40:5f:cf:06:68:f0:32:86:5a:6f:b5:02:
                    63:e6:2e:1e:9f:09:82:8c:03:18:19:e4:79:d5:35:
                    6e:d9:17:9f:3c:c1:d9:3b:95:f9:6f:f3:19:d1:d3:
                    b8:5d:7c:93:37:c3:7c:3b:a0:58:c7:fb:e5:2d:f5:
                    58:d3:9b:72:f3:43:7a:29:ec:6b:f4:86:81:c8:e6:
                    60:8b:2b:c5:ad:59:e5:a4:a0:05:97:09:02:00:a7:
                    55:dc:5b:ef:e4:8b:83:1a:ee:c8:1c:b5:b6:e6:61:
                    6b:d1
                Exponent: 65537 (0x10001)
        X509v3 extensions:
            X509v3 Subject Key Identifier: 
                D7:90:E4:86:59:24:F9:2B:B8:06:8E:B1:8F:33:E5:2C:63:F1:03:16
            X509v3 Authority Key Identifier: 
                keyid:EE:59:9D:56:0B:7C:0A:45:44:E3:15:57:E2:B2:F3:1D:64:6F:AF:7A
                DirName:/C=US/ST=Montana/L=Bozeman/O=Sawtooth/OU=Consulting/CN=www.wolfssl.com/emailAddress=info@wolfssl.com
                serial:64

            X509v3 Basic Constraints: 
                CA:TRUE, pathlen:0
            X509v3 Key Usage: 
                Certificate Sign, CRL Sign
    Signature Algorithm: sha256WithRSAEncryption
         04:0a:e8:4e:60:2f:29:8d:52:95:ca:47:9b:b1:93:6b:36:99:
         31:ba:8a:62:9b:ff:ad:08:c9:f5:7a:ef:57:00:96:71:c1:fe:
         cd:a8:49:44:dd:a4:0f:ef:f8:20:d0:04:42:f9:75:78:df:85:
         da:ae:04:4d:ca:35:1a:ab:00:ce:06:32:a5:9f:46:35:71:de:
         b9:a7:5b:bb:e2:8e:22:64:47:94:f4:60:da:37:7b:c4:d5:5c:
         89:16:84:b2:8b:91:53:95:2b:ec:c3:7a:c9:b3:f5:ab:53:c8:
         c5:65:3a:5b:9c:17:f7:04:b8:1e:e6:28:96:b9:75:03:54:a5:
         f2:07:63:d7:86:42:cf:44:ab:ea:79:a0:04:55:a6:5c:2e:63:
         d1:7e:13:0b:24:f8:09:1e:ee:66:48:7f:cf:40:a4:61:18:28:
         ef:da:d2:5f:68:8d:66:4a:68:d5:be:82:ef:92:70:b5:66:4e:
         5e:6b:55:9e:b5:fa:e3:98:b0:35:d4:b0:a9:3a:35:43:d4:94:
         02:cd:97:47:d2:aa:03:15:24:f3:b4:51:69:f1:78:93:e5:8c:
         af:92:2a:00:bf:e6:53:20:08:c3:9a:29:93:82:28:db:df:6f:
         60:28:fc:b5:19:15:32:b7:00:d0:cf:78:b5:3e:9e:7d:74:e9:
         5d:cd:7f:0a
-----BEGIN CERTIFICATE-----
MIIExjCCA66gAwIBAgIBZDANBgkqhkiG9w0BAQsFADCBoTELMAkGA1UEBhMCVVMx
EzARBgNVBAgMCldhc2hpbmd0b24xEDAOBgNVBAcMB1NlYXR0bGUxFTATBgNVBAoM
DHdvbGZTU0wgSW5jLjEUMBIGA1UECwwLRW5naW5lZXJpbmcxHTAbBgNVBAMMFGNo
YWluQi1JQ0EyLXBhdGhsZW4xMR8wHQYJKoZIhvcNAQkBFhBpbmZvQHdvbGZzc2wu
Y29tMB4XDTIwMDUwNzA3MzkwNFoXDTIzMDIwMTA3MzkwNFowgaExCzAJBgNVBAYT
AlVTMRMwEQYDVQQIDApXYXNoaW5ndG9uMRAwDgYDVQQHDAdTZWF0dGxlMRUwEwYD
VQQKDAx3b2xmU1NMIEluYy4xFDASBgNVBAsMC0VuZ2luZWVyaW5nMR0wGwYDVQQD
DBRjaGFpbkItSUNBMS1wYXRobGVuMDEfMB0GCSqGSIb3DQEJARYQaW5mb0B3b2xm
c3NsLmNvbTCCASIwDQYJKoZIhvcNAQEBBQADggEPADCCAQoCggEBALL3qq6R0SRB
UqEi4NOXm+AMlJxK5LOFrqlDn+x6Bd2IXOUZUlM5hoqy4oYnqwOavsRUZ6+5rGXi
YZd4ZmApkGIIYpGglisPMGzaPXA1Uqin1YVJJWpWWbxrRZHDN/wGDaKpRuIpght3
pkk1+1dfMwKS5WtnwmHiN5wSXLUsmyqlhZcicz02UFUaalnZ2qwtP+ZqsR1gUgMF
QF/PBmjwMoZab7UCY+YuHp8JgowDGBnkedU1btkXnzzB2TuV+W/zGdHTuF18kzfD
fDugWMf75S31WNObcvNDeinsa/SGgcjmYIsrxa1Z5aSgBZcJAgCnVdxb7+SLgxru
yBy1tuZha9ECAwEAAaOCAQUwggEBMB0GA1UdDgQWBBTXkOSGWST5K7gGjrGPM+Us
Y/EDFjCBwQYDVR0jBIG5MIG2gBTuWZ1WC3wKRUTjFVfisvMdZG+veqGBmqSBlzCB
lDELMAkGA1UEBhMCVVMxEDAOBgNVBAgMB01vbnRhbmExEDAOBgNVBAcMB0JvemVt
YW4xETAPBgNVBAoMCFNhd3Rvb3RoMRMwEQYDVQQLDApDb25zdWx0aW5nMRgwFgYD
VQQDDA93d3cud29sZnNzbC5jb20xHzAdBgkqhkiG9w0BCQEWEGluZm9Ad29sZnNz
bC5jb22CAWQwDwYDVR0TBAgwBgEB/wIBADALBgNVHQ8EBAMCAQYwDQYJKoZIhvcN
AQELBQADggEBAAQK6E5gLymNUpXKR5uxk2s2mTG6imKb/60IyfV671cAlnHB/s2o
SUTdpA/v+CDQBEL5dXjfhdquBE3KNRqrAM4GMqWfRjVx3rmnW7vijiJkR5T0YNo3
e8TVXIkWhLKLkVOVK+zDesmz9atTyMVlOlucF/cEuB7mKJa5dQNUpfIHY9eGQs9E
q+p5oARVplwuY9F+Ewsk+Ake7mZIf89ApGEYKO/a0l9ojWZKaNW+gu+ScLVmTl5r
VZ61+uOYsDXUsKk6NUPUlALNl0fSqgMVJPO0UWnxeJPljK+SKgC/5lMgCMOaKZOC
KNvfb2Ao/LUZFTK3ANDPeLU+nn106V3Nfwo=
-----END CERTIFICATE-----
Certificate:
    Data:
        Version: 3 (0x2)
        Serial Number: 100 (0x64)
        Signature Algorithm: sha256WithRSAEncryption
        Issuer: C = US, ST = Montana, L = Bozeman, O = Sawtooth, OU = Consulting, CN = www.wolfssl.com, emailAddress = info@wolfssl.com
        Validity
            Not Before: May  7 07:39:04 2020 GMT
            Not After : Feb  1 07:39:04 2023 GMT
        Subject: C = US, ST = Washington, L = Seattle, O = wolfSSL Inc., OU = Engineering, CN = chainB-ICA2-pathlen1, emailAddress = info@wolfssl.com
        Subject Public Key Info:
            Public Key Algorithm: rsaEncryption
                RSA Public-Key: (2048 bit)
                Modulus:
                    00:d0:7f:82:05:9d:5b:c4:49:e0:3e:1f:87:6e:17:
                    05:eb:e2:0a:d1:d1:a5:f5:cc:be:1d:46:d8:cd:a8:
                    6e:22:ce:3d:5c:39:71:a4:0d:03:fa:78:7e:bb:6c:
                    e8:51:e5:98:ef:a6:5e:62:d2:30:fa:3b:8f:21:5f:
                    b7:5f:98:b7:9f:a8:56:7a:39:ca:c2:df:a1:56:fe:
                    95:97:56:5e:5b:fe:74:d9:f2:2e:ca:7e:db:50:77:
                    5a:d1:90:dc:22:d6:fe:4b:c0:57:a1:c6:3b:4a:ba:
                    ad:05:14:c9:24:68:76:b5:e2:26:d5:cb:50:fd:d0:
                    77:0e:8c:0c:b9:5e:f7:a4:9a:45:35:6c:62:ca:e9:
                    38:d4:10:9a:5c:30:a5:4f:26:47:03:03:73:56:85:
                    8c:be:f5:d0:c0:09:06:3e:0e:e8:e5:7d:d0:19:54:
                    ed:57:ec:51:cf:bc:95:15:91:cf:d0:9a:84:dd:8a:
                    50:7c:33:c2:1a:61:70:31:9a:19:17:28:b3:8c:da:
                    5f:b8:d2:06:6b:82:3f:b6:6a:28:29:86:b4:20:cb:
                    a5:af:73:66:e4:37:36:81:f0:3f:ad:bf:05:b8:db:
                    2e:c4:22:e2:eb:46:87:f4:60:d1:a6:7f:ee:9c:41:
                    a7:f3:aa:e9:37:dd:da:d6:f0:cd:48:ac:51:d1:77:
                    8d:a1
                Exponent: 65537 (0x10001)
        X509v3 extensions:
            X509v3 Subject Key Identifier: 
                EE:59:9D:56:0B:7C:0A:45:44:E3:15:57:E2:B2:F3:1D:64:6F:AF:7A
            X509v3 Authority Key Identifier: 
                keyid:27:8E:67:11:74:C3:26:1D:3F:ED:33:63:B3:A4:D8:1D:30:E5:E8:D5
                DirName:/C=US/ST=Montana/L=Bozeman/O=Sawtooth/OU=Consulting/CN=www.wolfssl.com/emailAddress=info@wolfssl.com
                serial:3F:32:13:52:92:C6:DF:4A:D5:42:05:6C:B0:B2:2E:46:C2:F8:B8:67

            X509v3 Basic Constraints: 
                CA:TRUE, pathlen:1
            X509v3 Key Usage: 
                Certificate Sign, CRL Sign
    Signature Algorithm: sha256WithRSAEncryption
         92:d5:a7:bc:16:7e:7f:40:27:a1:7c:50:74:a7:30:4f:5a:6c:
         1b:d3:d9:78:77:85:8d:7b:d1:16:52:65:06:9f:45:22:81:37:
         ca:48:d1:6c:bb:87:7f:6a:1f:72:76:a9:93:74:2a:65:c8:99:
         87:15:ae:50:ed:9b:cd:1a:e0:20:14:ec:31:cf:99:92:c1:86:
         b3:e9:bc:74:b8:7f:c3:b7:17:5b:80:94:a7:85:82:4e:17:2f:
         37:69:e1:ed:4b:05:07:77:ba:02:d1:fd:b1:34:d9:2a:45:53:
         9b:3d:18:52:be:fd:48:78:10:a0:bf:da:29:b0:7e:4d:c4:1e:
         20:b6:6e:59:fb:04:76:fa:df:16:95:01:3c:47:38:32:bd:f0:
         75:b7:0c:8c:29:61:f1:ed:a0:89:93:b3:6c:a5:7d:50:83:e2:
         a5:04:f5:55:6f:fa:8c:dc:ab:ca:f8:d7:86:ce:62:2a:7f:14:
         17:8c:ef:56:a0:bb:67:06:a7:c2:7c:d2:66:21:29:16:8f:72:
         24:95:1c:63:45:c1:cf:1a:d4:7d:04:1e:6a:a1:5b:45:10:e5:
         cb:a3:60:3f:da:71:d3:d2:6c:e4:32:dc:9a:8f:f1:9e:bf:f1:
         8a:75:56:26:e7:26:97:a9:1f:7b:5d:e7:a4:10:c3:c6:64:53:
         ce:8c:92:7c
-----BEGIN CERTIFICATE-----
MIIEzDCCA7SgAwIBAgIBZDANBgkqhkiG9w0BAQsFADCBlDELMAkGA1UEBhMCVVMx
EDAOBgNVBAgMB01vbnRhbmExEDAOBgNVBAcMB0JvemVtYW4xETAPBgNVBAoMCFNh
d3Rvb3RoMRMwEQYDVQQLDApDb25zdWx0aW5nMRgwFgYDVQQDDA93d3cud29sZnNz
bC5jb20xHzAdBgkqhkiG9w0BCQEWEGluZm9Ad29sZnNzbC5jb20wHhcNMjAwNTA3
MDczOTA0WhcNMjMwMjAxMDczOTA0WjCBoTELMAkGA1UEBhMCVVMxEzARBgNVBAgM
Cldhc2hpbmd0b24xEDAOBgNVBAcMB1NlYXR0bGUxFTATBgNVBAoMDHdvbGZTU0wg
SW5jLjEUMBIGA1UECwwLRW5naW5lZXJpbmcxHTAbBgNVBAMMFGNoYWluQi1JQ0Ey
LXBhdGhsZW4xMR8wHQYJKoZIhvcNAQkBFhBpbmZvQHdvbGZzc2wuY29tMIIBIjAN
BgkqhkiG9w0BAQEFAAOCAQ8AMIIBCgKCAQEA0H+CBZ1bxEngPh+HbhcF6+IK0dGl
9cy+HUbYzahuIs49XDlxpA0D+nh+u2zoUeWY76ZeYtIw+juPIV+3X5i3n6hWejnK
wt+hVv6Vl1ZeW/502fIuyn7bUHda0ZDcItb+S8BXocY7SrqtBRTJJGh2teIm1ctQ
/dB3DowMuV73pJpFNWxiyuk41BCaXDClTyZHAwNzVoWMvvXQwAkGPg7o5X3QGVTt
V+xRz7yVFZHP0JqE3YpQfDPCGmFwMZoZFyizjNpfuNIGa4I/tmooKYa0IMulr3Nm
5Dc2gfA/rb8FuNsuxCLi60aH9GDRpn/unEGn86rpN93a1vDNSKxR0XeNoQIDAQAB
o4IBGDCCARQwHQYDVR0OBBYEFO5ZnVYLfApFROMVV+Ky8x1kb696MIHUBgNVHSME
gcwwgcmAFCeOZxF0wyYdP+0zY7Ok2B0w5ejVoYGapIGXMIGUMQswCQYDVQQGEwJV
UzEQMA4GA1UECAwHTW9udGFuYTEQMA4GA1UEBwwHQm96ZW1hbjERMA8GA1UECgwI
U2F3dG9vdGgxEzARBgNVBAsMCkNvbnN1bHRpbmcxGDAWBgNVBAMMD3d3dy53b2xm
c3NsLmNvbTEfMB0GCSqGSIb3DQEJARYQaW5mb0B3b2xmc3NsLmNvbYIUPzITUpLG
30rVQgVssLIuRsL4uGcwDwYDVR0TBAgwBgEB/wIBATALBgNVHQ8EBAMCAQYwDQYJ
KoZIhvcNAQELBQADggEBAJLVp7wWfn9AJ6F8UHSnME9abBvT2Xh3hY170RZSZQaf
RSKBN8pI0Wy7h39qH3J2qZN0KmXImYcVrlDtm80a4CAU7DHPmZLBhrPpvHS4f8O3
F1uAlKeFgk4XLzdp4e1LBQd3ugLR/bE02SpFU5s9GFK+/Uh4EKC/2imwfk3EHiC2
bln7BHb63xaVATxHODK98HW3DIwpYfHtoImTs2ylfVCD4qUE9VVv+ozcq8r414bO
Yip/FBeM71agu2cGp8J80mYhKRaPciSVHGNFwc8a1H0EHmqhW0UQ5cujYD/acdPS
bOQy3JqP8Z6/8Yp1VibnJpepH3td56QQw8ZkU86Mknw=
-----END CERTIFICATE-----
