Certificate:
    Data:
        Version: 3 (0x2)
        Serial Number: 100 (0x64)
        Signature Algorithm: sha256WithRSAEncryption
        Issuer: C = US, ST = Montana, L = Bozeman, O = Sawtooth, OU = Consulting, CN = www.wolfssl.com, emailAddress = info@wolfssl.com
        Validity
            Not Before: Sep 26 17:22:46 2023 GMT
            Not After : Jun 22 17:22:46 2026 GMT
        Subject: C = US, ST = Washington, L = Seattle, O = wolfSSL Inc., OU = Engineering, CN = chainG-ICA7-pathlen100, emailAddress = info@wolfssl.com
        Subject Public Key Info:
            Public Key Algorithm: rsaEncryption
                Public-Key: (2048 bit)
                Modulus:
                    00:d6:8c:d6:c4:29:20:60:9d:15:3d:0c:2a:fb:24:
                    2f:38:89:ed:37:c4:fc:57:67:2a:50:d8:eb:e2:6a:
                    1c:59:06:f2:6d:3e:b9:4f:fe:49:c5:21:c0:16:f8:
                    29:6f:51:0c:ea:78:d7:0e:15:41:da:5a:cb:0b:e0:
                    54:d6:83:fd:0f:e8:4e:30:ff:e4:44:c3:b2:02:f3:
                    7d:3a:c6:5c:4e:86:86:2c:74:d4:21:85:c1:fe:4e:
                    8b:07:3c:54:1b:54:9e:ec:5a:a5:95:ed:5a:35:e0:
                    08:c6:84:7c:e6:ae:71:12:d2:fd:c1:fd:16:0a:3a:
                    b8:c7:23:4b:af:e0:cd:12:5e:9f:4f:62:13:f0:c8:
                    e4:e2:a8:01:d3:37:b0:08:21:d3:0f:6c:e4:d8:c1:
                    04:51:e9:4c:c5:b1:6d:cc:63:23:97:30:ee:f0:1e:
                    ab:6d:ea:93:ca:ad:56:6f:1e:ed:1a:ae:8c:1b:91:
                    04:ea:ab:9d:1b:3b:56:a7:c1:cc:2f:39:2f:b3:ba:
                    8c:16:fd:5e:10:10:9e:24:ea:40:97:74:b6:b4:e5:
                    1c:c0:d3:5f:79:2c:04:43:3a:8e:f4:b1:56:bd:c7:
                    25:63:5c:34:50:4d:bd:2d:f1:08:bd:8c:3e:d2:6f:
                    fa:e4:04:a1:51:eb:d0:d0:90:91:97:7b:46:c6:10:
                    92:af
                Exponent: 65537 (0x10001)
        X509v3 extensions:
            X509v3 Subject Key Identifier: 
                12:E4:A4:19:85:AE:85:B7:D6:EB:63:04:D5:B9:B0:7E:57:5F:0C:16
            X509v3 Authority Key Identifier: 
                keyid:27:8E:67:11:74:C3:26:1D:3F:ED:33:63:B3:A4:D8:1D:30:E5:E8:D5
                DirName:/C=US/ST=Montana/L=Bozeman/O=Sawtooth/OU=Consulting/CN=www.wolfssl.com/emailAddress=info@wolfssl.com
                serial:4F:1D:F3:64:BA:21:A8:E6:CB:74:3A:4E:44:A5:E6:79:19:E8:5B:81
            X509v3 Basic Constraints: 
                CA:TRUE, pathlen:100
            X509v3 Key Usage: 
                Certificate Sign, CRL Sign
    Signature Algorithm: sha256WithRSAEncryption
    Signature Value:
        36:c2:aa:af:ce:d5:76:56:dd:cb:a8:dc:c4:f3:62:74:58:08:
        5d:f2:02:20:25:08:7c:7e:56:15:0a:c4:76:85:8f:2c:6b:ec:
        12:84:d1:a5:94:87:f2:e4:4e:c5:f0:b9:6a:04:29:a7:83:70:
        e1:88:37:21:49:96:50:80:af:99:4b:bc:a7:12:db:5a:5c:19:
        73:0f:6e:7e:14:80:87:9b:1c:6d:e6:57:78:9a:89:23:79:bc:
        34:d9:8f:9e:d2:08:48:d4:cc:4e:d0:86:c6:ab:61:21:54:e4:
        36:8f:46:8f:62:80:f2:19:b2:27:12:59:50:26:dc:e9:20:c9:
        b6:a6:95:0c:50:0f:b6:b2:ba:54:87:81:cc:35:c7:43:26:de:
        6a:71:69:24:3c:c2:a8:5d:b9:dd:92:7f:8e:52:5b:7a:a6:3b:
        91:c7:e4:61:a1:3f:9f:e3:a8:88:44:1e:75:de:f0:17:f1:28:
        fe:46:be:e7:dd:bd:1c:da:4f:32:db:e9:c3:54:2c:e6:1b:18:
        bf:d0:e9:20:37:86:e9:bc:af:34:f9:3e:e2:fb:ce:2e:68:37:
        42:2d:5f:86:77:05:a5:5e:d0:43:b1:49:ba:27:04:fd:ea:87:
        19:6b:9b:11:91:5c:16:e3:63:9b:06:aa:46:d8:17:7f:f9:54:
        42:09:f6:bf
-----BEGIN CERTIFICATE-----
MIIEzjCCA7agAwIBAgIBZDANBgkqhkiG9w0BAQsFADCBlDELMAkGA1UEBhMCVVMx
EDAOBgNVBAgMB01vbnRhbmExEDAOBgNVBAcMB0JvemVtYW4xETAPBgNVBAoMCFNh
d3Rvb3RoMRMwEQYDVQQLDApDb25zdWx0aW5nMRgwFgYDVQQDDA93d3cud29sZnNz
bC5jb20xHzAdBgkqhkiG9w0BCQEWEGluZm9Ad29sZnNzbC5jb20wHhcNMjMwOTI2
MTcyMjQ2WhcNMjYwNjIyMTcyMjQ2WjCBozELMAkGA1UEBhMCVVMxEzARBgNVBAgM
Cldhc2hpbmd0b24xEDAOBgNVBAcMB1NlYXR0bGUxFTATBgNVBAoMDHdvbGZTU0wg
SW5jLjEUMBIGA1UECwwLRW5naW5lZXJpbmcxHzAdBgNVBAMMFmNoYWluRy1JQ0E3
LXBhdGhsZW4xMDAxHzAdBgkqhkiG9w0BCQEWEGluZm9Ad29sZnNzbC5jb20wggEi
MA0GCSqGSIb3DQEBAQUAA4IBDwAwggEKAoIBAQDWjNbEKSBgnRU9DCr7JC84ie03
xPxXZypQ2OviahxZBvJtPrlP/knFIcAW+ClvUQzqeNcOFUHaWssL4FTWg/0P6E4w
/+REw7IC8306xlxOhoYsdNQhhcH+TosHPFQbVJ7sWqWV7Vo14AjGhHzmrnES0v3B
/RYKOrjHI0uv4M0SXp9PYhPwyOTiqAHTN7AIIdMPbOTYwQRR6UzFsW3MYyOXMO7w
Hqtt6pPKrVZvHu0arowbkQTqq50bO1anwcwvOS+zuowW/V4QEJ4k6kCXdLa05RzA
0195LARDOo70sVa9xyVjXDRQTb0t8Qi9jD7Sb/rkBKFR69DQkJGXe0bGEJKvAgMB
AAGjggEYMIIBFDAdBgNVHQ4EFgQUEuSkGYWuhbfW62ME1bmwfldfDBYwgdQGA1Ud
IwSBzDCByYAUJ45nEXTDJh0/7TNjs6TYHTDl6NWhgZqkgZcwgZQxCzAJBgNVBAYT
AlVTMRAwDgYDVQQIDAdNb250YW5hMRAwDgYDVQQHDAdCb3plbWFuMREwDwYDVQQK
DAhTYXd0b290aDETMBEGA1UECwwKQ29uc3VsdGluZzEYMBYGA1UEAwwPd3d3Lndv
bGZzc2wuY29tMR8wHQYJKoZIhvcNAQkBFhBpbmZvQHdvbGZzc2wuY29tghRPHfNk
uiGo5st0Ok5EpeZ5GehbgTAPBgNVHRMECDAGAQH/AgFkMAsGA1UdDwQEAwIBBjAN
BgkqhkiG9w0BAQsFAAOCAQEANsKqr87Vdlbdy6jcxPNidFgIXfICICUIfH5WFQrE
doWPLGvsEoTRpZSH8uROxfC5agQpp4Nw4Yg3IUmWUICvmUu8pxLbWlwZcw9ufhSA
h5scbeZXeJqJI3m8NNmPntIISNTMTtCGxqthIVTkNo9Gj2KA8hmyJxJZUCbc6SDJ
tqaVDFAPtrK6VIeBzDXHQybeanFpJDzCqF253ZJ/jlJbeqY7kcfkYaE/n+OoiEQe
dd7wF/Eo/ka+5929HNpPMtvpw1Qs5hsYv9DpIDeG6byvNPk+4vvOLmg3Qi1fhncF
pV7QQ7FJuicE/eqHGWubEZFcFuNjmwaqRtgXf/lUQgn2vw==
-----END CERTIFICATE-----
