Certificate:
    Data:
        Version: 3 (0x2)
        Serial Number: 100 (0x64)
        Signature Algorithm: sha256WithRSAEncryption
        Issuer: C=US, ST=Washington, L=Seattle, O=wolfSSL Inc., OU=Engineering, CN=chainG-ICA6-pathlen10, emailAddress=facts@wolfssl.com
        Validity
            Not Before: Jun 11 21:44:39 2026 GMT
            Not After : Mar  7 21:44:39 2029 GMT
        Subject: C=US, ST=Washington, L=Seattle, O=wolfSSL Inc., OU=Engineering, CN=chainG-ICA5-pathlen20, emailAddress=facts@wolfssl.com
        Subject Public Key Info:
            Public Key Algorithm: rsaEncryption
                Public-Key: (2048 bit)
                Modulus:
                    00:be:9d:98:a2:41:ca:64:1f:a2:34:dc:51:7d:49:
                    2b:f7:f8:7a:fc:1a:22:8d:3a:17:8e:00:9c:74:06:
                    18:0f:26:d1:e8:1d:55:4b:3e:bb:6e:98:6d:65:cb:
                    6f:be:c5:98:40:65:1d:e1:1d:af:ad:bc:7c:b0:fa:
                    b6:2a:cb:af:df:d5:52:98:e6:01:01:31:01:3f:c7:
                    16:06:44:92:55:43:6f:dd:49:be:aa:52:d2:80:ca:
                    3a:d0:72:f3:0a:7e:59:cb:2c:74:7c:5b:19:3d:75:
                    9d:3e:da:35:45:49:8b:0d:36:84:80:41:b7:ce:70:
                    fc:a8:d0:4d:0b:d4:f3:4e:73:87:db:2e:18:20:45:
                    70:f3:5a:d1:cf:4f:f8:78:ad:7c:4b:97:3c:f1:0f:
                    8a:f6:6c:8f:7a:3a:c9:79:82:2d:bf:ae:80:f8:8b:
                    1d:79:17:9b:76:34:97:b1:79:5d:79:fa:30:73:78:
                    fc:9c:ee:eb:62:20:95:f1:a8:af:1e:4a:91:cc:1e:
                    34:90:c7:89:21:41:41:90:09:10:52:dd:21:75:15:
                    11:aa:cf:d8:e4:6c:7d:96:c8:d6:cd:90:eb:fa:df:
                    86:e7:3d:36:73:18:f3:86:c5:99:0e:0e:f7:e4:09:
                    8f:8c:29:f1:ad:15:e9:82:c9:6c:87:fc:00:7b:4b:
                    2e:f1
                Exponent: 65537 (0x10001)
        X509v3 extensions:
            X509v3 Subject Key Identifier: 
                1D:51:80:B6:9A:A7:AC:DD:80:7B:4B:A2:0B:62:BE:E4:87:30:C7:CA
            X509v3 Authority Key Identifier: 
                keyid:14:07:E8:A7:3A:A2:9C:DD:4C:30:B0:4D:F0:00:C4:88:C4:39:DF:73
                DirName:/C=US/ST=Washington/L=Seattle/O=wolfSSL Inc./OU=Engineering/CN=chainG-ICA7-pathlen100/emailAddress=facts@wolfssl.com
                serial:64
            X509v3 Basic Constraints: 
                CA:TRUE, pathlen:20
            X509v3 Key Usage: 
                Certificate Sign, CRL Sign
    Signature Algorithm: sha256WithRSAEncryption
    Signature Value:
        bd:4b:8b:54:99:13:5e:86:49:f3:53:37:7b:d0:4b:19:1c:7a:
        f3:b9:c1:e7:a2:b0:7c:d7:19:c0:7f:ff:9a:5a:a6:2d:f7:ae:
        e7:97:31:cc:c4:78:c6:06:6a:ee:4f:f8:cb:65:59:51:89:ed:
        05:49:38:8c:70:4c:29:67:f6:6b:dc:a9:ee:e9:64:9a:4f:9f:
        60:1a:87:ec:14:2a:54:3c:59:dd:d6:53:17:58:9b:af:4c:b7:
        f1:15:76:77:60:16:01:d8:04:e4:69:58:e8:ce:70:c5:33:1c:
        3f:8c:4b:21:af:a0:a7:fa:99:91:49:d7:8d:e4:71:6e:9d:e8:
        d0:97:62:5b:b5:38:7f:76:f5:b4:1d:4b:bc:ec:3d:a3:34:23:
        62:e9:39:3d:d6:11:d1:d3:98:af:9c:2e:24:f6:cc:f4:1e:49:
        d8:7f:35:ac:b7:bc:17:31:47:aa:5e:41:4b:7c:7d:4f:b2:e2:
        42:a4:3e:1e:5c:ae:da:5c:28:14:75:54:63:94:ba:76:97:e6:
        ed:7f:fe:af:db:00:36:21:5d:ca:e8:3b:e0:17:de:dd:c1:c8:
        ab:66:4a:fc:da:15:f9:7e:d6:d1:6e:76:26:29:d8:1f:66:45:
        59:e5:45:af:6b:87:1b:eb:a3:6d:b1:80:a1:40:18:a5:b7:11:
        8d:ac:64:cb
-----BEGIN CERTIFICATE-----
MIIE2jCCA8KgAwIBAgIBZDANBgkqhkiG9w0BAQsFADCBozELMAkGA1UEBhMCVVMx
EzARBgNVBAgMCldhc2hpbmd0b24xEDAOBgNVBAcMB1NlYXR0bGUxFTATBgNVBAoM
DHdvbGZTU0wgSW5jLjEUMBIGA1UECwwLRW5naW5lZXJpbmcxHjAcBgNVBAMMFWNo
YWluRy1JQ0E2LXBhdGhsZW4xMDEgMB4GCSqGSIb3DQEJARYRZmFjdHNAd29sZnNz
bC5jb20wHhcNMjYwNjExMjE0NDM5WhcNMjkwMzA3MjE0NDM5WjCBozELMAkGA1UE
BhMCVVMxEzARBgNVBAgMCldhc2hpbmd0b24xEDAOBgNVBAcMB1NlYXR0bGUxFTAT
BgNVBAoMDHdvbGZTU0wgSW5jLjEUMBIGA1UECwwLRW5naW5lZXJpbmcxHjAcBgNV
BAMMFWNoYWluRy1JQ0E1LXBhdGhsZW4yMDEgMB4GCSqGSIb3DQEJARYRZmFjdHNA
d29sZnNzbC5jb20wggEiMA0GCSqGSIb3DQEBAQUAA4IBDwAwggEKAoIBAQC+nZii
QcpkH6I03FF9SSv3+Hr8GiKNOheOAJx0BhgPJtHoHVVLPrtumG1ly2++xZhAZR3h
Ha+tvHyw+rYqy6/f1VKY5gEBMQE/xxYGRJJVQ2/dSb6qUtKAyjrQcvMKflnLLHR8
Wxk9dZ0+2jVFSYsNNoSAQbfOcPyo0E0L1PNOc4fbLhggRXDzWtHPT/h4rXxLlzzx
D4r2bI96Osl5gi2/roD4ix15F5t2NJexeV15+jBzePyc7utiIJXxqK8eSpHMHjSQ
x4khQUGQCRBS3SF1FRGqz9jkbH2WyNbNkOv634bnPTZzGPOGxZkODvfkCY+MKfGt
FemCyWyH/AB7Sy7xAgMBAAGjggEVMIIBETAdBgNVHQ4EFgQUHVGAtpqnrN2Ae0ui
C2K+5Icwx8owgdEGA1UdIwSByTCBxoAUFAfopzqinN1MMLBN8ADEiMQ533Ohgaqk
gacwgaQxCzAJBgNVBAYTAlVTMRMwEQYDVQQIDApXYXNoaW5ndG9uMRAwDgYDVQQH
DAdTZWF0dGxlMRUwEwYDVQQKDAx3b2xmU1NMIEluYy4xFDASBgNVBAsMC0VuZ2lu
ZWVyaW5nMR8wHQYDVQQDDBZjaGFpbkctSUNBNy1wYXRobGVuMTAwMSAwHgYJKoZI
hvcNAQkBFhFmYWN0c0B3b2xmc3NsLmNvbYIBZDAPBgNVHRMECDAGAQH/AgEUMAsG
A1UdDwQEAwIBBjANBgkqhkiG9w0BAQsFAAOCAQEAvUuLVJkTXoZJ81M3e9BLGRx6
87nB56KwfNcZwH//mlqmLfeu55cxzMR4xgZq7k/4y2VZUYntBUk4jHBMKWf2a9yp
7ulkmk+fYBqH7BQqVDxZ3dZTF1ibr0y38RV2d2AWAdgE5GlY6M5wxTMcP4xLIa+g
p/qZkUnXjeRxbp3o0JdiW7U4f3b1tB1LvOw9ozQjYuk5PdYR0dOYr5wuJPbM9B5J
2H81rLe8FzFHql5BS3x9T7LiQqQ+Hlyu2lwoFHVUY5S6dpfm7X/+r9sANiFdyug7
4Bfe3cHIq2ZK/NoV+X7W0W52JinYH2ZFWeVFr2uHG+ujbbGAoUAYpbcRjaxkyw==
-----END CERTIFICATE-----
