Certificate:
    Data:
        Version: 3 (0x2)
        Serial Number: 101 (0x65)
        Signature Algorithm: sha256WithRSAEncryption
        Issuer: C=US, ST=Washington, L=Seattle, O=wolfSSL Inc., OU=Engineering, CN=chainI-ICA1-no_pathlen, emailAddress=facts@wolfssl.com
        Validity
            Not Before: Jun 11 21:44:40 2026 GMT
            Not After : Mar  7 21:44:40 2029 GMT
        Subject: C=US, ST=Washington, L=Seattle, O=wolfSSL Inc., OU=Engineering, CN=chainI-entity, emailAddress=facts@wolfssl.com
        Subject Public Key Info:
            Public Key Algorithm: rsaEncryption
                Public-Key: (2048 bit)
                Modulus:
                    00:f3:ac:32:8f:52:af:a9:cf:9e:23:a4:96:8e:e9:
                    e8:0a:3a:b7:6a:7b:ba:70:85:68:e2:52:f3:38:39:
                    cf:c8:f1:8a:f6:55:1e:59:fa:97:fe:e7:9b:07:2a:
                    b6:80:2a:92:d9:39:95:9e:0c:1f:d7:ad:1f:74:4d:
                    8e:61:6f:64:24:4c:d4:95:03:8f:d3:f2:3d:6e:d8:
                    d8:d5:aa:64:7d:82:ee:74:07:16:68:fa:95:17:9b:
                    35:8f:c3:6c:47:88:3e:40:de:93:36:ed:62:f4:cc:
                    67:45:ee:ea:45:9f:fc:f1:63:6d:b7:fa:f8:c3:e0:
                    6f:c7:4a:3e:04:49:04:37:8b:3a:99:e8:64:0a:86:
                    43:ab:5b:34:1e:6c:33:a2:a4:26:7c:c7:6c:48:99:
                    7d:85:f5:1f:c1:9c:a9:c7:8f:51:6b:8a:86:8d:1c:
                    b0:d2:82:ba:a4:a7:09:29:8b:0a:20:d1:7c:b1:67:
                    0c:61:cd:88:33:5e:38:ab:08:78:0b:80:0b:ce:63:
                    03:b9:40:7b:67:3e:a8:ac:4e:44:92:09:4c:3f:e0:
                    3d:55:cb:aa:5a:bc:17:9c:4e:9e:40:5c:82:fc:3b:
                    3a:54:40:90:f9:22:3c:f4:00:5f:95:13:72:49:29:
                    ae:5f:31:22:30:04:05:6a:7b:b5:0a:0a:a6:5e:72:
                    4d:5f
                Exponent: 65537 (0x10001)
        X509v3 extensions:
            X509v3 Subject Key Identifier: 
                EB:B5:A2:7B:24:95:03:11:6B:56:CB:13:3E:A8:B2:8F:B1:CF:5D:C4
            X509v3 Authority Key Identifier: 
                keyid:9E:54:B6:95:EA:89:07:A6:C9:E4:82:E8:D0:34:64:5D:08:CD:56:A0
                DirName:/C=US/ST=Washington/L=Seattle/O=wolfSSL Inc./OU=Engineering/CN=chainI-ICA2-no_pathlen/emailAddress=facts@wolfssl.com
                serial:64
            X509v3 Basic Constraints: 
                CA:FALSE
    Signature Algorithm: sha256WithRSAEncryption
    Signature Value:
        b8:77:9e:19:b9:20:db:a4:6f:ba:85:39:6c:1f:66:aa:a4:be:
        fb:6a:c3:78:a4:fc:e5:03:9e:0c:d7:a0:d5:8f:07:b2:72:d2:
        ee:94:d0:f2:6d:43:08:fe:24:a4:0a:36:27:d5:b8:98:a9:2d:
        26:58:30:08:81:44:52:d3:34:2f:85:8a:bf:cd:96:0a:17:c7:
        a1:56:27:4c:5b:45:3b:24:4c:36:e9:ec:18:67:b1:50:59:c8:
        02:c9:04:5c:c3:f2:10:39:cb:fb:da:7d:1e:ad:02:c1:2b:b6:
        a1:3e:bb:7d:c9:62:b9:ad:e8:5d:90:c3:07:16:36:37:32:27:
        18:67:17:79:c9:32:0e:e9:45:6a:c5:aa:ef:48:23:7d:3f:b7:
        65:1d:72:cd:67:b4:c7:fe:2e:4d:2d:18:66:0d:b8:0c:33:a1:
        3f:8c:ac:75:9f:24:a2:4b:6b:4a:da:e9:28:b7:fc:cb:bb:a4:
        12:aa:d6:b6:12:5b:23:36:6d:4d:6e:35:22:6c:df:2f:6d:ef:
        5d:86:76:96:5e:3c:d4:50:8b:97:fc:7e:b5:8d:66:64:c8:86:
        7c:ac:56:af:9a:ae:4e:3d:a8:44:b6:dd:0c:70:5f:a4:91:c9:
        ef:d8:bd:61:a6:5f:73:32:b9:bf:1c:03:40:38:98:d4:f4:1e:
        4b:68:98:53
-----BEGIN CERTIFICATE-----
MIIEvzCCA6egAwIBAgIBZTANBgkqhkiG9w0BAQsFADCBpDELMAkGA1UEBhMCVVMx
EzARBgNVBAgMCldhc2hpbmd0b24xEDAOBgNVBAcMB1NlYXR0bGUxFTATBgNVBAoM
DHdvbGZTU0wgSW5jLjEUMBIGA1UECwwLRW5naW5lZXJpbmcxHzAdBgNVBAMMFmNo
YWluSS1JQ0ExLW5vX3BhdGhsZW4xIDAeBgkqhkiG9w0BCQEWEWZhY3RzQHdvbGZz
c2wuY29tMB4XDTI2MDYxMTIxNDQ0MFoXDTI5MDMwNzIxNDQ0MFowgZsxCzAJBgNV
BAYTAlVTMRMwEQYDVQQIDApXYXNoaW5ndG9uMRAwDgYDVQQHDAdTZWF0dGxlMRUw
EwYDVQQKDAx3b2xmU1NMIEluYy4xFDASBgNVBAsMC0VuZ2luZWVyaW5nMRYwFAYD
VQQDDA1jaGFpbkktZW50aXR5MSAwHgYJKoZIhvcNAQkBFhFmYWN0c0B3b2xmc3Ns
LmNvbTCCASIwDQYJKoZIhvcNAQEBBQADggEPADCCAQoCggEBAPOsMo9Sr6nPniOk
lo7p6Ao6t2p7unCFaOJS8zg5z8jxivZVHln6l/7nmwcqtoAqktk5lZ4MH9etH3RN
jmFvZCRM1JUDj9PyPW7Y2NWqZH2C7nQHFmj6lRebNY/DbEeIPkDekzbtYvTMZ0Xu
6kWf/PFjbbf6+MPgb8dKPgRJBDeLOpnoZAqGQ6tbNB5sM6KkJnzHbEiZfYX1H8Gc
qcePUWuKho0csNKCuqSnCSmLCiDRfLFnDGHNiDNeOKsIeAuAC85jA7lAe2c+qKxO
RJIJTD/gPVXLqlq8F5xOnkBcgvw7OlRAkPkiPPQAX5UTckkprl8xIjAEBWp7tQoK
pl5yTV8CAwEAAaOCAQEwgf4wHQYDVR0OBBYEFOu1onsklQMRa1bLEz6oso+xz13E
MIHRBgNVHSMEgckwgcaAFJ5UtpXqiQemyeSC6NA0ZF0IzVagoYGqpIGnMIGkMQsw
CQYDVQQGEwJVUzETMBEGA1UECAwKV2FzaGluZ3RvbjEQMA4GA1UEBwwHU2VhdHRs
ZTEVMBMGA1UECgwMd29sZlNTTCBJbmMuMRQwEgYDVQQLDAtFbmdpbmVlcmluZzEf
MB0GA1UEAwwWY2hhaW5JLUlDQTItbm9fcGF0aGxlbjEgMB4GCSqGSIb3DQEJARYR
ZmFjdHNAd29sZnNzbC5jb22CAWQwCQYDVR0TBAIwADANBgkqhkiG9w0BAQsFAAOC
AQEAuHeeGbkg26RvuoU5bB9mqqS++2rDeKT85QOeDNeg1Y8HsnLS7pTQ8m1DCP4k
pAo2J9W4mKktJlgwCIFEUtM0L4WKv82WChfHoVYnTFtFOyRMNunsGGexUFnIAskE
XMPyEDnL+9p9Hq0CwSu2oT67fcliua3oXZDDBxY2NzInGGcXeckyDulFasWq70gj
fT+3ZR1yzWe0x/4uTS0YZg24DDOhP4ysdZ8koktrStrpKLf8y7ukEqrWthJbIzZt
TW41ImzfL23vXYZ2ll481FCLl/x+tY1mZMiGfKxWr5quTj2oRLbdDHBfpJHJ79i9
YaZfczK5vxwDQDiY1PQeS2iYUw==
-----END CERTIFICATE-----
