Certificate:
    Data:
        Version: 3 (0x2)
        Serial Number: 100 (0x64)
    Signature Algorithm: sha256WithRSAEncryption
        Issuer: C=US, ST=Washington, L=Seattle, O=wolfSSL Inc., OU=Engineering, CN=chainJ-ICA2-no_pathlen/emailAddress=info@wolfssl.com
        Validity
            Not Before: Feb 10 19:49:55 2021 GMT
            Not After : Nov  7 19:49:55 2023 GMT
        Subject: C=US, ST=Washington, L=Seattle, O=wolfSSL Inc., OU=Engineering, CN=chainJ-ICA1-no_pathlen/emailAddress=info@wolfssl.com
        Subject Public Key Info:
            Public Key Algorithm: rsaEncryption
                Public-Key: (2048 bit)
                Modulus:
                    00:a7:6f:44:c2:11:cc:2c:f4:2a:a5:a8:08:53:4b:
                    0e:cd:96:23:bb:15:4a:2a:dd:f9:a7:19:2b:91:28:
                    e8:73:a3:57:b4:49:3a:37:82:8f:15:38:5a:aa:af:
                    ad:72:26:2e:84:c2:0d:de:fc:f0:be:3b:a2:11:a9:
                    12:20:d4:3d:de:62:85:85:91:08:60:db:c0:4a:bb:
                    89:b6:f4:91:1e:51:a3:b2:f7:08:99:df:48:4a:59:
                    84:d1:aa:09:36:0d:cd:68:a5:ae:41:c8:d7:1a:d8:
                    ea:49:87:20:22:27:f9:45:54:3e:c7:c8:00:44:7e:
                    34:72:aa:8d:2d:4d:6a:3e:75:89:e2:d4:17:57:f9:
                    cd:2b:d0:b7:14:6a:54:1b:61:af:9b:68:22:b1:16:
                    73:eb:05:6c:41:ea:ed:10:4e:bc:83:04:68:c8:3a:
                    e1:03:12:ad:28:5c:24:4c:19:a1:7e:d8:ef:1b:80:
                    e4:0e:49:0c:69:86:f6:1e:e7:01:fb:2a:6f:56:1b:
                    6d:0a:ad:e9:29:3f:31:bb:48:28:40:79:2b:b5:f3:
                    aa:ec:e9:09:4c:82:fc:97:28:19:a3:3a:c0:d2:5e:
                    a3:8a:98:c8:8a:b7:d2:c4:90:bc:ff:cc:47:13:90:
                    ad:00:ab:8a:ec:f7:94:35:09:60:10:35:9f:32:c5:
                    00:1b
                Exponent: 65537 (0x10001)
        X509v3 extensions:
            X509v3 Subject Key Identifier: 
                9C:7B:3A:10:B3:08:99:05:00:AF:3E:E0:A4:5D:D9:AF:82:BC:4D:C0
            X509v3 Authority Key Identifier: 
                keyid:A3:F5:71:8A:60:80:3C:93:64:17:D9:2E:B5:C0:CE:A9:C1:14:17:C4
                DirName:/C=US/ST=Washington/L=Seattle/O=wolfSSL Inc./OU=Engineering/CN=chainJ-ICA3-no_pathlen/emailAddress=info@wolfssl.com
                serial:64

            X509v3 Basic Constraints: 
                CA:TRUE
            X509v3 Key Usage: 
                Certificate Sign, CRL Sign
    Signature Algorithm: sha256WithRSAEncryption
         1b:bc:90:0e:7d:7e:8c:da:bb:5c:81:c5:86:8a:da:4e:c9:98:
         a6:0c:e5:8b:ab:a1:a6:9d:94:68:af:18:34:3f:b3:39:e8:0a:
         3f:8f:67:a2:b4:f5:41:eb:ca:ab:93:8f:29:9f:7d:1c:50:7e:
         85:4f:a8:01:11:ea:08:fd:a1:e6:ec:10:4e:84:b3:4d:a0:20:
         c8:32:5a:40:d8:8b:78:41:ea:19:8d:e2:5e:03:72:ee:9b:a0:
         84:bc:87:32:e9:31:24:37:b5:33:78:7a:aa:5a:d4:bb:aa:e1:
         b3:10:c8:98:90:e3:92:23:54:86:0e:2a:04:23:cc:d9:a8:7a:
         c9:1b:17:c1:08:d5:2b:09:e9:9b:ac:07:9f:e0:34:05:eb:01:
         e8:15:c5:7d:69:89:17:15:cc:dc:3b:84:1c:aa:53:e0:06:fa:
         2b:7f:82:07:0d:eb:cb:be:43:8c:7e:9e:2b:62:08:44:32:e8:
         68:48:4e:e0:44:8f:7a:d2:4a:3c:6d:25:56:ce:2b:6a:54:8e:
         67:8e:1e:ef:bb:92:9b:47:7c:95:3d:c5:9b:bf:28:e0:a8:2e:
         e5:17:4d:01:1a:71:1a:d4:0c:4d:d4:c8:f4:df:09:85:1d:36:
         b6:47:9a:f9:83:1a:74:98:23:aa:96:a1:31:c1:67:c7:db:69:
         9a:fe:44:aa
-----BEGIN CERTIFICATE-----
MIIE1jCCA76gAwIBAgIBZDANBgkqhkiG9w0BAQsFADCBozELMAkGA1UEBhMCVVMx
EzARBgNVBAgMCldhc2hpbmd0b24xEDAOBgNVBAcMB1NlYXR0bGUxFTATBgNVBAoM
DHdvbGZTU0wgSW5jLjEUMBIGA1UECwwLRW5naW5lZXJpbmcxHzAdBgNVBAMMFmNo
YWluSi1JQ0EyLW5vX3BhdGhsZW4xHzAdBgkqhkiG9w0BCQEWEGluZm9Ad29sZnNz
bC5jb20wHhcNMjEwMjEwMTk0OTU1WhcNMjMxMTA3MTk0OTU1WjCBozELMAkGA1UE
BhMCVVMxEzARBgNVBAgMCldhc2hpbmd0b24xEDAOBgNVBAcMB1NlYXR0bGUxFTAT
BgNVBAoMDHdvbGZTU0wgSW5jLjEUMBIGA1UECwwLRW5naW5lZXJpbmcxHzAdBgNV
BAMMFmNoYWluSi1JQ0ExLW5vX3BhdGhsZW4xHzAdBgkqhkiG9w0BCQEWEGluZm9A
d29sZnNzbC5jb20wggEiMA0GCSqGSIb3DQEBAQUAA4IBDwAwggEKAoIBAQCnb0TC
Ecws9CqlqAhTSw7NliO7FUoq3fmnGSuRKOhzo1e0STo3go8VOFqqr61yJi6Ewg3e
/PC+O6IRqRIg1D3eYoWFkQhg28BKu4m29JEeUaOy9wiZ30hKWYTRqgk2Dc1opa5B
yNca2OpJhyAiJ/lFVD7HyABEfjRyqo0tTWo+dYni1BdX+c0r0LcUalQbYa+baCKx
FnPrBWxB6u0QTryDBGjIOuEDEq0oXCRMGaF+2O8bgOQOSQxphvYe5wH7Km9WG20K
rekpPzG7SChAeSu186rs6QlMgvyXKBmjOsDSXqOKmMiKt9LEkLz/zEcTkK0Aq4rs
95Q1CWAQNZ8yxQAbAgMBAAGjggERMIIBDTAdBgNVHQ4EFgQUnHs6ELMImQUArz7g
pF3Zr4K8TcAwgdAGA1UdIwSByDCBxYAUo/VximCAPJNkF9kutcDOqcEUF8Shgamk
gaYwgaMxCzAJBgNVBAYTAlVTMRMwEQYDVQQIDApXYXNoaW5ndG9uMRAwDgYDVQQH
DAdTZWF0dGxlMRUwEwYDVQQKDAx3b2xmU1NMIEluYy4xFDASBgNVBAsMC0VuZ2lu
ZWVyaW5nMR8wHQYDVQQDDBZjaGFpbkotSUNBMy1ub19wYXRobGVuMR8wHQYJKoZI
hvcNAQkBFhBpbmZvQHdvbGZzc2wuY29tggFkMAwGA1UdEwQFMAMBAf8wCwYDVR0P
BAQDAgEGMA0GCSqGSIb3DQEBCwUAA4IBAQAbvJAOfX6M2rtcgcWGitpOyZimDOWL
q6GmnZRorxg0P7M56Ao/j2eitPVB68qrk48pn30cUH6FT6gBEeoI/aHm7BBOhLNN
oCDIMlpA2It4QeoZjeJeA3Lum6CEvIcy6TEkN7UzeHqqWtS7quGzEMiYkOOSI1SG
DioEI8zZqHrJGxfBCNUrCembrAef4DQF6wHoFcV9aYkXFczcO4QcqlPgBvorf4IH
DevLvkOMfp4rYghEMuhoSE7gRI960ko8bSVWzitqVI5njh7vu5KbR3yVPcWbvyjg
qC7lF00BGnEa1AxN1Mj03wmFHTa2R5r5gxp0mCOqlqExwWfH22ma/kSq
-----END CERTIFICATE-----
