Certificate:
    Data:
        Version: 3 (0x2)
        Serial Number: 100 (0x64)
        Signature Algorithm: sha1WithRSAEncryption
        Issuer: C = US, ST = Montana, L = Bozeman, O = Sawtooth, OU = Consulting, CN = www.wolfssl.com, emailAddress = info@wolfssl.com
        Validity
            Not Before: Oct 10 21:32:42 2019 GMT
            Not After : Jul  6 21:32:42 2022 GMT
        Subject: C = US, ST = Washington, L = Seattle, O = wolfSSL Inc., OU = Engineering, CN = chainG-ICA7-pathlen100, emailAddress = info@wolfssl.com
        Subject Public Key Info:
            Public Key Algorithm: rsaEncryption
                RSA Public-Key: (2048 bit)
                Modulus:
                    00:d6:8c:d6:c4:29:20:60:9d:15:3d:0c:2a:fb:24:
                    2f:38:89:ed:37:c4:fc:57:67:2a:50:d8:eb:e2:6a:
                    1c:59:06:f2:6d:3e:b9:4f:fe:49:c5:21:c0:16:f8:
                    29:6f:51:0c:ea:78:d7:0e:15:41:da:5a:cb:0b:e0:
                    54:d6:83:fd:0f:e8:4e:30:ff:e4:44:c3:b2:02:f3:
                    7d:3a:c6:5c:4e:86:86:2c:74:d4:21:85:c1:fe:4e:
                    8b:07:3c:54:1b:54:9e:ec:5a:a5:95:ed:5a:35:e0:
                    08:c6:84:7c:e6:ae:71:12:d2:fd:c1:fd:16:0a:3a:
                    b8:c7:23:4b:af:e0:cd:12:5e:9f:4f:62:13:f0:c8:
                    e4:e2:a8:01:d3:37:b0:08:21:d3:0f:6c:e4:d8:c1:
                    04:51:e9:4c:c5:b1:6d:cc:63:23:97:30:ee:f0:1e:
                    ab:6d:ea:93:ca:ad:56:6f:1e:ed:1a:ae:8c:1b:91:
                    04:ea:ab:9d:1b:3b:56:a7:c1:cc:2f:39:2f:b3:ba:
                    8c:16:fd:5e:10:10:9e:24:ea:40:97:74:b6:b4:e5:
                    1c:c0:d3:5f:79:2c:04:43:3a:8e:f4:b1:56:bd:c7:
                    25:63:5c:34:50:4d:bd:2d:f1:08:bd:8c:3e:d2:6f:
                    fa:e4:04:a1:51:eb:d0:d0:90:91:97:7b:46:c6:10:
                    92:af
                Exponent: 65537 (0x10001)
        X509v3 extensions:
            X509v3 Subject Key Identifier: 
                12:E4:A4:19:85:AE:85:B7:D6:EB:63:04:D5:B9:B0:7E:57:5F:0C:16
            X509v3 Authority Key Identifier: 
                keyid:27:8E:67:11:74:C3:26:1D:3F:ED:33:63:B3:A4:D8:1D:30:E5:E8:D5
                DirName:/C=US/ST=Montana/L=Bozeman/O=Sawtooth/OU=Consulting/CN=www.wolfssl.com/emailAddress=info@wolfssl.com
                serial:86:FF:F5:8E:10:DE:B8:FB

            X509v3 Basic Constraints: 
                CA:TRUE, pathlen:100
            X509v3 Key Usage: 
                Certificate Sign, CRL Sign
    Signature Algorithm: sha1WithRSAEncryption
         77:32:87:a1:22:9d:e2:af:39:a7:32:d1:d4:09:0b:7e:a0:d5:
         f7:2d:2f:20:11:39:95:cf:dd:c6:cf:b2:18:93:47:be:0c:2b:
         c2:19:11:10:d6:06:e9:91:7b:35:35:7b:a5:bc:89:0c:bc:58:
         2e:28:66:b5:8a:55:a8:3c:07:f1:9f:1d:66:ab:f0:d7:73:42:
         8a:73:cc:74:dc:9d:d3:85:dd:73:fd:ac:ed:f0:ec:c0:17:1f:
         50:ec:35:eb:76:03:10:e7:59:9c:0d:43:da:19:b2:a7:0c:06:
         16:d5:b0:2c:10:30:a2:47:ab:c3:e2:dd:6d:eb:c0:26:e3:0e:
         df:12:62:b9:cc:eb:31:6f:11:0f:f1:96:09:4a:3b:c2:2c:a8:
         e8:8a:fc:cb:93:4a:c8:f4:63:b4:a8:6f:df:61:b9:f7:fa:fc:
         3d:fd:08:15:b7:33:b0:c8:5c:72:2c:cb:37:88:f9:19:92:f7:
         15:27:32:3e:05:fc:47:2e:8c:02:3f:fd:9a:95:ff:52:b6:bc:
         65:91:3a:1b:37:dd:81:2e:d8:bd:ef:f8:b5:c8:84:66:ce:2f:
         f9:98:af:ee:9a:61:67:da:60:6c:14:e5:eb:4d:6d:d1:d2:24:
         3c:13:8c:44:2f:ea:28:09:86:66:75:0c:95:85:77:87:45:a2:
         ca:8c:2f:a8
-----BEGIN CERTIFICATE-----
MIIEwzCCA6ugAwIBAgIBZDANBgkqhkiG9w0BAQUFADCBlDELMAkGA1UEBhMCVVMx
EDAOBgNVBAgMB01vbnRhbmExEDAOBgNVBAcMB0JvemVtYW4xETAPBgNVBAoMCFNh
d3Rvb3RoMRMwEQYDVQQLDApDb25zdWx0aW5nMRgwFgYDVQQDDA93d3cud29sZnNz
bC5jb20xHzAdBgkqhkiG9w0BCQEWEGluZm9Ad29sZnNzbC5jb20wHhcNMTkxMDEw
MjEzMjQyWhcNMjIwNzA2MjEzMjQyWjCBozELMAkGA1UEBhMCVVMxEzARBgNVBAgM
Cldhc2hpbmd0b24xEDAOBgNVBAcMB1NlYXR0bGUxFTATBgNVBAoMDHdvbGZTU0wg
SW5jLjEUMBIGA1UECwwLRW5naW5lZXJpbmcxHzAdBgNVBAMMFmNoYWluRy1JQ0E3
LXBhdGhsZW4xMDAxHzAdBgkqhkiG9w0BCQEWEGluZm9Ad29sZnNzbC5jb20wggEi
MA0GCSqGSIb3DQEBAQUAA4IBDwAwggEKAoIBAQDWjNbEKSBgnRU9DCr7JC84ie03
xPxXZypQ2OviahxZBvJtPrlP/knFIcAW+ClvUQzqeNcOFUHaWssL4FTWg/0P6E4w
/+REw7IC8306xlxOhoYsdNQhhcH+TosHPFQbVJ7sWqWV7Vo14AjGhHzmrnES0v3B
/RYKOrjHI0uv4M0SXp9PYhPwyOTiqAHTN7AIIdMPbOTYwQRR6UzFsW3MYyOXMO7w
Hqtt6pPKrVZvHu0arowbkQTqq50bO1anwcwvOS+zuowW/V4QEJ4k6kCXdLa05RzA
0195LARDOo70sVa9xyVjXDRQTb0t8Qi9jD7Sb/rkBKFR69DQkJGXe0bGEJKvAgMB
AAGjggENMIIBCTAdBgNVHQ4EFgQUEuSkGYWuhbfW62ME1bmwfldfDBYwgckGA1Ud
IwSBwTCBvoAUJ45nEXTDJh0/7TNjs6TYHTDl6NWhgZqkgZcwgZQxCzAJBgNVBAYT
AlVTMRAwDgYDVQQIDAdNb250YW5hMRAwDgYDVQQHDAdCb3plbWFuMREwDwYDVQQK
DAhTYXd0b290aDETMBEGA1UECwwKQ29uc3VsdGluZzEYMBYGA1UEAwwPd3d3Lndv
bGZzc2wuY29tMR8wHQYJKoZIhvcNAQkBFhBpbmZvQHdvbGZzc2wuY29tggkAhv/1
jhDeuPswDwYDVR0TBAgwBgEB/wIBZDALBgNVHQ8EBAMCAQYwDQYJKoZIhvcNAQEF
BQADggEBAHcyh6EineKvOacy0dQJC36g1fctLyAROZXP3cbPshiTR74MK8IZERDW
BumRezU1e6W8iQy8WC4oZrWKVag8B/GfHWar8NdzQopzzHTcndOF3XP9rO3w7MAX
H1DsNet2AxDnWZwNQ9oZsqcMBhbVsCwQMKJHq8Pi3W3rwCbjDt8SYrnM6zFvEQ/x
lglKO8IsqOiK/MuTSsj0Y7Sob99huff6/D39CBW3M7DIXHIsyzeI+RmS9xUnMj4F
/EcujAI//ZqV/1K2vGWROhs33YEu2L3v+LXIhGbOL/mYr+6aYWfaYGwU5etNbdHS
JDwTjEQv6igJhmZ1DJWFd4dFosqML6g=
-----END CERTIFICATE-----
