Certificate:
    Data:
        Version: 3 (0x2)
        Serial Number: 100 (0x64)
    Signature Algorithm: sha256WithRSAEncryption
        Issuer: C=US, ST=Montana, L=Bozeman, O=Sawtooth, OU=Consulting, CN=www.wolfssl.com/emailAddress=info@wolfssl.com
        Validity
            Not Before: Feb 10 19:49:54 2021 GMT
            Not After : Nov  7 19:49:54 2023 GMT
        Subject: C=US, ST=Washington, L=Seattle, O=wolfSSL Inc., OU=Engineering, CN=chainC-ICA1-pathlen1/emailAddress=info@wolfssl.com
        Subject Public Key Info:
            Public Key Algorithm: rsaEncryption
                Public-Key: (2048 bit)
                Modulus:
                    00:bb:1a:6c:c1:bd:bb:9b:29:ca:35:3d:63:a3:29:
                    cd:a6:65:c4:9e:a3:c5:50:99:ad:51:90:0a:9a:9b:
                    83:ce:be:06:bb:66:4f:ef:1e:31:25:34:6f:5f:98:
                    ae:01:49:c3:63:17:84:b9:7a:6d:c0:d8:fd:0c:ff:
                    9a:02:4c:41:37:49:f0:18:63:1b:4f:fc:37:26:4e:
                    54:79:d7:17:39:50:79:6e:a3:29:99:07:ad:9d:5c:
                    d8:e1:02:e7:33:7e:e4:da:a4:05:bc:62:03:d3:9f:
                    6a:91:92:66:dd:29:d0:95:fb:2f:3f:f0:59:b8:70:
                    5b:25:54:7b:a0:0a:9f:33:09:64:ed:fb:d4:1c:2d:
                    96:54:45:e3:50:98:ff:b1:7f:9a:c6:cf:09:a3:da:
                    e9:57:ad:1d:05:8f:1e:75:75:e7:d2:07:33:de:da:
                    7d:42:d8:0e:94:fe:ae:c7:9b:c3:b5:9e:f3:6b:21:
                    9f:74:c4:b3:32:7c:28:4e:0f:bc:15:33:ba:9c:09:
                    3c:c1:40:06:78:bb:b1:20:3f:61:15:f6:1e:49:73:
                    51:89:95:2d:95:bf:34:d6:c2:a9:d1:34:1d:8d:21:
                    6d:4f:a3:6e:ef:fc:23:a2:76:fc:d0:25:53:0e:43:
                    76:3b:ed:82:ec:d8:23:cb:33:ef:3c:9d:a1:de:e6:
                    7a:ad
                Exponent: 65537 (0x10001)
        X509v3 extensions:
            X509v3 Subject Key Identifier: 
                94:1D:2E:07:37:C6:2F:52:C1:EC:79:6B:13:CE:09:90:5F:F4:C4:51
            X509v3 Authority Key Identifier: 
                keyid:27:8E:67:11:74:C3:26:1D:3F:ED:33:63:B3:A4:D8:1D:30:E5:E8:D5
                DirName:/C=US/ST=Montana/L=Bozeman/O=Sawtooth/OU=Consulting/CN=www.wolfssl.com/emailAddress=info@wolfssl.com
                serial:AA:D3:3F:AC:18:0A:37:4D

            X509v3 Basic Constraints: 
                CA:TRUE, pathlen:1
            X509v3 Key Usage: 
                Certificate Sign, CRL Sign
    Signature Algorithm: sha256WithRSAEncryption
         b2:28:df:aa:26:d1:ba:a6:18:a9:c3:36:29:c1:11:4f:40:e0:
         dc:5b:cd:18:3d:f4:b8:b2:79:c7:03:93:71:91:fb:0b:cd:d9:
         07:21:76:f2:48:29:28:c8:18:88:df:79:26:04:69:5e:ba:e8:
         d6:b9:4e:38:b2:9b:e9:bf:50:91:f6:cb:6f:e0:a6:36:dc:2a:
         27:6b:ca:62:3f:03:e7:cf:24:98:97:a9:c3:7a:b1:79:b3:db:
         2d:4e:38:3e:6d:d9:1d:66:cc:8e:d1:c9:9e:3e:92:8a:76:6d:
         60:53:e6:c3:27:29:dd:f0:7b:17:a5:eb:66:83:40:6c:2f:8d:
         95:d8:91:b6:08:27:1a:ef:96:10:0d:75:76:86:fa:4a:17:e4:
         10:46:16:38:42:65:8c:5e:2c:4c:c0:3f:c7:9d:29:63:53:0b:
         2e:86:44:4c:79:da:c7:2b:af:1a:92:69:43:cb:85:af:79:98:
         fc:01:88:b0:5a:f9:3a:de:f0:bb:7e:fa:37:95:9b:04:5b:eb:
         40:9d:ee:2d:cd:50:48:17:19:28:12:66:c7:d7:77:fa:ba:4c:
         c7:d1:f0:d9:2e:f4:63:40:14:87:48:03:32:99:13:ea:d7:7b:
         4b:c9:ef:16:ca:14:14:79:ed:fe:d7:f5:6f:4c:db:4c:95:a6:
         36:3d:02:0f
-----BEGIN CERTIFICATE-----
MIIEwTCCA6mgAwIBAgIBZDANBgkqhkiG9w0BAQsFADCBlDELMAkGA1UEBhMCVVMx
EDAOBgNVBAgMB01vbnRhbmExEDAOBgNVBAcMB0JvemVtYW4xETAPBgNVBAoMCFNh
d3Rvb3RoMRMwEQYDVQQLDApDb25zdWx0aW5nMRgwFgYDVQQDDA93d3cud29sZnNz
bC5jb20xHzAdBgkqhkiG9w0BCQEWEGluZm9Ad29sZnNzbC5jb20wHhcNMjEwMjEw
MTk0OTU0WhcNMjMxMTA3MTk0OTU0WjCBoTELMAkGA1UEBhMCVVMxEzARBgNVBAgM
Cldhc2hpbmd0b24xEDAOBgNVBAcMB1NlYXR0bGUxFTATBgNVBAoMDHdvbGZTU0wg
SW5jLjEUMBIGA1UECwwLRW5naW5lZXJpbmcxHTAbBgNVBAMMFGNoYWluQy1JQ0Ex
LXBhdGhsZW4xMR8wHQYJKoZIhvcNAQkBFhBpbmZvQHdvbGZzc2wuY29tMIIBIjAN
BgkqhkiG9w0BAQEFAAOCAQ8AMIIBCgKCAQEAuxpswb27mynKNT1joynNpmXEnqPF
UJmtUZAKmpuDzr4Gu2ZP7x4xJTRvX5iuAUnDYxeEuXptwNj9DP+aAkxBN0nwGGMb
T/w3Jk5UedcXOVB5bqMpmQetnVzY4QLnM37k2qQFvGID059qkZJm3SnQlfsvP/BZ
uHBbJVR7oAqfMwlk7fvUHC2WVEXjUJj/sX+axs8Jo9rpV60dBY8edXXn0gcz3tp9
QtgOlP6ux5vDtZ7zayGfdMSzMnwoTg+8FTO6nAk8wUAGeLuxID9hFfYeSXNRiZUt
lb801sKp0TQdjSFtT6Nu7/wjonb80CVTDkN2O+2C7NgjyzPvPJ2h3uZ6rQIDAQAB
o4IBDTCCAQkwHQYDVR0OBBYEFJQdLgc3xi9Swex5axPOCZBf9MRRMIHJBgNVHSME
gcEwgb6AFCeOZxF0wyYdP+0zY7Ok2B0w5ejVoYGapIGXMIGUMQswCQYDVQQGEwJV
UzEQMA4GA1UECAwHTW9udGFuYTEQMA4GA1UEBwwHQm96ZW1hbjERMA8GA1UECgwI
U2F3dG9vdGgxEzARBgNVBAsMCkNvbnN1bHRpbmcxGDAWBgNVBAMMD3d3dy53b2xm
c3NsLmNvbTEfMB0GCSqGSIb3DQEJARYQaW5mb0B3b2xmc3NsLmNvbYIJAKrTP6wY
CjdNMA8GA1UdEwQIMAYBAf8CAQEwCwYDVR0PBAQDAgEGMA0GCSqGSIb3DQEBCwUA
A4IBAQCyKN+qJtG6phipwzYpwRFPQODcW80YPfS4snnHA5NxkfsLzdkHIXbySCko
yBiI33kmBGleuujWuU44spvpv1CR9stv4KY23Cona8piPwPnzySYl6nDerF5s9st
Tjg+bdkdZsyO0cmePpKKdm1gU+bDJynd8HsXpetmg0BsL42V2JG2CCca75YQDXV2
hvpKF+QQRhY4QmWMXixMwD/HnSljUwsuhkRMedrHK68akmlDy4WveZj8AYiwWvk6
3vC7fvo3lZsEW+tAne4tzVBIFxkoEmbH13f6ukzH0fDZLvRjQBSHSAMymRPq13tL
ye8WyhQUee3+1/VvTNtMlaY2PQIP
-----END CERTIFICATE-----
