Certificate:
    Data:
        Version: 3 (0x2)
        Serial Number: 101 (0x65)
        Signature Algorithm: sha256WithRSAEncryption
        Issuer: C = US, ST = Washington, L = Seattle, O = wolfSSL Inc., OU = Engineering, CN = chainE-ICA1-pathlen128, emailAddress = info@wolfssl.com
        Validity
            Not Before: Feb 15 12:50:26 2022 GMT
            Not After : Nov 11 12:50:26 2024 GMT
        Subject: C = US, ST = Washington, L = Seattle, O = wolfSSL Inc., OU = Engineering, CN = chainE-entity, emailAddress = info@wolfssl.com
        Subject Public Key Info:
            Public Key Algorithm: rsaEncryption
                RSA Public-Key: (2048 bit)
                Modulus:
                    00:d8:6f:49:bb:56:ea:34:4c:25:a6:8c:44:f6:c9:
                    75:8f:6b:83:b8:8b:ec:c6:f6:d3:c7:40:e2:d1:b2:
                    d8:77:92:e9:97:c4:b6:57:ad:10:c8:cb:e7:0a:40:
                    ef:3c:a8:38:dc:94:22:08:e7:53:2a:c8:7a:26:90:
                    41:43:6f:7b:8f:4e:58:74:69:20:92:9f:12:aa:6a:
                    c5:cf:7f:24:d1:d0:89:2f:6c:5e:62:31:0a:20:23:
                    6b:07:c2:a0:7d:4d:ed:05:6d:2c:b1:9a:85:e6:41:
                    61:12:6c:85:d3:d4:be:7e:cf:23:d9:79:b1:46:23:
                    d7:1a:f7:d6:f4:97:43:a5:08:03:7a:51:0d:b0:e7:
                    56:62:86:37:07:81:e8:21:f1:10:63:41:b6:82:6d:
                    f2:cd:d9:7f:80:6f:a7:4b:77:10:15:54:02:9c:7a:
                    d0:6e:b8:29:98:72:34:08:7b:ce:d7:24:91:48:a6:
                    c3:f2:9d:77:fc:aa:73:13:70:60:f9:8f:37:4c:d7:
                    34:5c:fa:51:b1:c0:d5:25:e1:75:b2:e2:cd:23:97:
                    c9:a6:bf:d3:5e:21:4b:12:f5:b2:d0:df:92:7f:4c:
                    a8:b2:21:43:2c:f9:3e:fb:14:99:1f:ed:76:2c:87:
                    5a:df:72:d3:85:a3:a8:92:1a:ad:66:19:50:44:8a:
                    05:e1
                Exponent: 65537 (0x10001)
        X509v3 extensions:
            X509v3 Subject Key Identifier: 
                26:FC:70:E0:8F:A1:3D:52:82:76:6B:CB:C7:0F:89:9D:2B:86:69:F5
            X509v3 Authority Key Identifier: 
                keyid:44:7B:00:7C:9C:1C:97:9F:97:AA:6B:F2:5E:E6:81:7C:0E:AE:E6:2B
                DirName:/C=US/ST=Montana/L=Bozeman/O=Sawtooth/OU=Consulting/CN=www.wolfssl.com/emailAddress=info@wolfssl.com
                serial:64

            X509v3 Basic Constraints: 
                CA:FALSE
    Signature Algorithm: sha256WithRSAEncryption
         0b:fc:9b:46:59:41:c0:af:5d:b8:cd:01:ec:20:42:12:e0:1e:
         1b:6c:23:fd:cd:e5:ba:50:28:8a:42:1b:c9:11:74:fb:75:1e:
         8a:6f:67:48:35:63:cb:f3:2f:c5:da:f9:dd:ab:9c:14:67:a2:
         59:56:68:cb:4c:53:7a:31:9f:9e:3a:e4:e4:62:bc:66:e8:03:
         22:98:81:ab:3d:70:6f:0b:c6:61:6e:78:66:a1:a9:82:30:55:
         c0:f8:80:4b:33:1e:42:c5:4d:b9:cc:7c:01:7a:88:68:c6:d6:
         66:3d:d6:9a:7c:5a:e2:a5:b5:fc:57:e1:5b:10:f4:2a:34:ed:
         a8:d0:91:f9:e8:78:bc:4b:0f:3b:b8:8a:ee:15:14:95:25:aa:
         41:69:d3:fd:95:96:d6:fb:3d:66:f5:7c:14:b3:0c:82:7f:c7:
         eb:3f:cd:dc:e9:f5:30:95:01:dd:15:36:71:47:ff:7d:ad:84:
         17:c7:d6:aa:7e:3e:53:b2:c7:73:8d:93:68:94:bf:85:f7:fe:
         a1:89:e1:e5:38:be:b2:11:41:0f:59:cc:dc:e8:2b:b9:c6:9e:
         00:2a:6a:1b:05:cc:c0:c7:f0:dd:80:9e:94:ae:95:83:5a:98:
         0c:db:70:48:22:e6:0d:31:8b:72:c7:c9:e1:16:40:a6:8e:63:
         32:7b:e5:2c
-----BEGIN CERTIFICATE-----
MIIErDCCA5SgAwIBAgIBZTANBgkqhkiG9w0BAQsFADCBozELMAkGA1UEBhMCVVMx
EzARBgNVBAgMCldhc2hpbmd0b24xEDAOBgNVBAcMB1NlYXR0bGUxFTATBgNVBAoM
DHdvbGZTU0wgSW5jLjEUMBIGA1UECwwLRW5naW5lZXJpbmcxHzAdBgNVBAMMFmNo
YWluRS1JQ0ExLXBhdGhsZW4xMjgxHzAdBgkqhkiG9w0BCQEWEGluZm9Ad29sZnNz
bC5jb20wHhcNMjIwMjE1MTI1MDI2WhcNMjQxMTExMTI1MDI2WjCBmjELMAkGA1UE
BhMCVVMxEzARBgNVBAgMCldhc2hpbmd0b24xEDAOBgNVBAcMB1NlYXR0bGUxFTAT
BgNVBAoMDHdvbGZTU0wgSW5jLjEUMBIGA1UECwwLRW5naW5lZXJpbmcxFjAUBgNV
BAMMDWNoYWluRS1lbnRpdHkxHzAdBgkqhkiG9w0BCQEWEGluZm9Ad29sZnNzbC5j
b20wggEiMA0GCSqGSIb3DQEBAQUAA4IBDwAwggEKAoIBAQDYb0m7Vuo0TCWmjET2
yXWPa4O4i+zG9tPHQOLRsth3kumXxLZXrRDIy+cKQO88qDjclCII51MqyHomkEFD
b3uPTlh0aSCSnxKqasXPfyTR0IkvbF5iMQogI2sHwqB9Te0FbSyxmoXmQWESbIXT
1L5+zyPZebFGI9ca99b0l0OlCAN6UQ2w51ZihjcHgegh8RBjQbaCbfLN2X+Ab6dL
dxAVVAKcetBuuCmYcjQIe87XJJFIpsPynXf8qnMTcGD5jzdM1zRc+lGxwNUl4XWy
4s0jl8mmv9NeIUsS9bLQ35J/TKiyIUMs+T77FJkf7XYsh1rfctOFo6iSGq1mGVBE
igXhAgMBAAGjgfEwge4wHQYDVR0OBBYEFCb8cOCPoT1SgnZry8cPiZ0rhmn1MIHB
BgNVHSMEgbkwgbaAFER7AHycHJefl6pr8l7mgXwOruYroYGapIGXMIGUMQswCQYD
VQQGEwJVUzEQMA4GA1UECAwHTW9udGFuYTEQMA4GA1UEBwwHQm96ZW1hbjERMA8G
A1UECgwIU2F3dG9vdGgxEzARBgNVBAsMCkNvbnN1bHRpbmcxGDAWBgNVBAMMD3d3
dy53b2xmc3NsLmNvbTEfMB0GCSqGSIb3DQEJARYQaW5mb0B3b2xmc3NsLmNvbYIB
ZDAJBgNVHRMEAjAAMA0GCSqGSIb3DQEBCwUAA4IBAQAL/JtGWUHAr124zQHsIEIS
4B4bbCP9zeW6UCiKQhvJEXT7dR6Kb2dINWPL8y/F2vndq5wUZ6JZVmjLTFN6MZ+e
OuTkYrxm6AMimIGrPXBvC8ZhbnhmoamCMFXA+IBLMx5CxU25zHwBeohoxtZmPdaa
fFripbX8V+FbEPQqNO2o0JH56Hi8Sw87uIruFRSVJapBadP9lZbW+z1m9XwUswyC
f8frP83c6fUwlQHdFTZxR/99rYQXx9aqfj5TssdzjZNolL+F9/6hieHlOL6yEUEP
Wczc6Cu5xp4AKmobBczAx/DdgJ6UrpWDWpgM23BIIuYNMYtyx8nhFkCmjmMye+Us
-----END CERTIFICATE-----
Certificate:
    Data:
        Version: 3 (0x2)
        Serial Number: 100 (0x64)
        Signature Algorithm: sha256WithRSAEncryption
        Issuer: C = US, ST = Montana, L = Bozeman, O = Sawtooth, OU = Consulting, CN = www.wolfssl.com, emailAddress = info@wolfssl.com
        Validity
            Not Before: Feb 15 12:50:26 2022 GMT
            Not After : Nov 11 12:50:26 2024 GMT
        Subject: C = US, ST = Washington, L = Seattle, O = wolfSSL Inc., OU = Engineering, CN = chainE-ICA1-pathlen128, emailAddress = info@wolfssl.com
        Subject Public Key Info:
            Public Key Algorithm: rsaEncryption
                RSA Public-Key: (2048 bit)
                Modulus:
                    00:d6:f3:6f:b8:db:10:df:89:df:3b:d9:2e:7a:c1:
                    34:1a:56:97:6c:73:04:fc:15:50:04:93:66:cb:17:
                    ba:fb:f9:28:b9:d6:ce:7e:f5:78:bb:b1:4f:aa:4b:
                    f8:80:35:d9:ae:fe:99:75:f7:cd:79:0b:cf:ca:da:
                    cb:58:9a:6e:9b:91:21:f4:17:fd:56:b8:3a:cf:cf:
                    ed:f7:90:6a:73:6c:06:99:ef:0e:8f:65:dc:d0:e8:
                    db:7b:c1:e8:4d:6d:61:9e:cc:5a:20:de:86:3a:58:
                    81:fa:b1:d4:5f:3c:74:43:45:61:36:2c:fe:a4:35:
                    ae:e2:39:c7:fd:dd:b3:83:d6:17:dc:f5:99:3f:67:
                    0e:c1:60:d1:69:8d:3c:f9:62:e9:83:ae:66:10:aa:
                    40:91:63:0b:2a:e5:c1:a8:1f:8e:8a:9b:11:9f:bf:
                    a6:45:fb:16:70:ed:6c:1b:14:98:80:69:04:c3:bd:
                    13:22:e7:d9:33:48:9d:8a:6c:0f:9c:39:08:29:92:
                    83:7b:73:a3:da:86:d6:4a:00:0f:a7:c2:7b:bf:ac:
                    0f:2a:62:96:5b:3b:ef:9f:e1:08:bb:44:ba:c4:99:
                    4f:a0:b9:5e:4d:cb:73:73:fe:ee:82:69:4f:af:c7:
                    59:5a:36:81:44:c6:e3:50:3b:bf:8d:14:ef:7e:96:
                    ef:c1
                Exponent: 65537 (0x10001)
        X509v3 extensions:
            X509v3 Subject Key Identifier: 
                44:7B:00:7C:9C:1C:97:9F:97:AA:6B:F2:5E:E6:81:7C:0E:AE:E6:2B
            X509v3 Authority Key Identifier: 
                keyid:27:8E:67:11:74:C3:26:1D:3F:ED:33:63:B3:A4:D8:1D:30:E5:E8:D5
                DirName:/C=US/ST=Montana/L=Bozeman/O=Sawtooth/OU=Consulting/CN=www.wolfssl.com/emailAddress=info@wolfssl.com
                serial:26:8C:93:F9:F9:F4:1E:B3:01:72:94:55:67:6D:E2:F8:3D:DA:E9:F4

            X509v3 Basic Constraints: 
                CA:TRUE, pathlen:128
            X509v3 Key Usage: 
                Certificate Sign, CRL Sign
    Signature Algorithm: sha256WithRSAEncryption
         62:2f:a0:50:d2:05:a8:12:24:90:3f:64:71:97:d3:00:37:97:
         08:66:86:52:1e:f7:a5:2d:4d:aa:79:cd:44:a2:57:f3:4c:6b:
         75:48:97:b9:95:ac:b8:46:dd:13:c5:0e:12:5a:21:05:01:29:
         cc:04:19:40:d4:c8:22:d4:e1:cc:d7:bb:5a:fd:19:b7:23:a3:
         47:7d:85:1e:2d:f5:69:c2:6b:93:80:cc:64:2f:9a:8a:23:ca:
         06:75:ea:f9:31:9d:88:a5:89:6c:15:4a:65:5a:c4:89:e7:a5:
         ab:e0:dd:db:67:55:ff:24:bb:e2:27:98:14:95:6d:f2:c8:5f:
         2d:6b:78:66:d2:47:30:b2:d9:72:fd:29:52:39:f9:2c:9c:0f:
         6f:44:ba:fa:68:88:2c:35:e7:df:c7:cc:b1:ae:76:92:c3:8f:
         4e:8a:56:3d:24:b6:f2:4a:0b:cb:91:24:ae:93:e7:fb:dd:59:
         02:08:23:71:06:bc:5a:ae:a9:e6:57:f0:fa:b0:f4:45:ef:8e:
         6b:9c:c2:4c:f6:9f:9e:57:a3:07:d5:9c:80:49:4c:ab:df:7c:
         30:6d:2f:a2:74:5c:43:ec:5c:ba:f6:d9:27:38:2f:94:3a:ba:
         4e:4a:ff:ba:77:cb:ac:51:80:4b:c0:27:06:4d:07:c4:65:91:
         32:92:0f:58
-----BEGIN CERTIFICATE-----
MIIEzzCCA7egAwIBAgIBZDANBgkqhkiG9w0BAQsFADCBlDELMAkGA1UEBhMCVVMx
EDAOBgNVBAgMB01vbnRhbmExEDAOBgNVBAcMB0JvemVtYW4xETAPBgNVBAoMCFNh
d3Rvb3RoMRMwEQYDVQQLDApDb25zdWx0aW5nMRgwFgYDVQQDDA93d3cud29sZnNz
bC5jb20xHzAdBgkqhkiG9w0BCQEWEGluZm9Ad29sZnNzbC5jb20wHhcNMjIwMjE1
MTI1MDI2WhcNMjQxMTExMTI1MDI2WjCBozELMAkGA1UEBhMCVVMxEzARBgNVBAgM
Cldhc2hpbmd0b24xEDAOBgNVBAcMB1NlYXR0bGUxFTATBgNVBAoMDHdvbGZTU0wg
SW5jLjEUMBIGA1UECwwLRW5naW5lZXJpbmcxHzAdBgNVBAMMFmNoYWluRS1JQ0Ex
LXBhdGhsZW4xMjgxHzAdBgkqhkiG9w0BCQEWEGluZm9Ad29sZnNzbC5jb20wggEi
MA0GCSqGSIb3DQEBAQUAA4IBDwAwggEKAoIBAQDW82+42xDfid872S56wTQaVpds
cwT8FVAEk2bLF7r7+Si51s5+9Xi7sU+qS/iANdmu/pl19815C8/K2stYmm6bkSH0
F/1WuDrPz+33kGpzbAaZ7w6PZdzQ6Nt7wehNbWGezFog3oY6WIH6sdRfPHRDRWE2
LP6kNa7iOcf93bOD1hfc9Zk/Zw7BYNFpjTz5YumDrmYQqkCRYwsq5cGoH46KmxGf
v6ZF+xZw7WwbFJiAaQTDvRMi59kzSJ2KbA+cOQgpkoN7c6PahtZKAA+nwnu/rA8q
YpZbO++f4Qi7RLrEmU+guV5Ny3Nz/u6CaU+vx1laNoFExuNQO7+NFO9+lu/BAgMB
AAGjggEZMIIBFTAdBgNVHQ4EFgQURHsAfJwcl5+XqmvyXuaBfA6u5iswgdQGA1Ud
IwSBzDCByYAUJ45nEXTDJh0/7TNjs6TYHTDl6NWhgZqkgZcwgZQxCzAJBgNVBAYT
AlVTMRAwDgYDVQQIDAdNb250YW5hMRAwDgYDVQQHDAdCb3plbWFuMREwDwYDVQQK
DAhTYXd0b290aDETMBEGA1UECwwKQ29uc3VsdGluZzEYMBYGA1UEAwwPd3d3Lndv
bGZzc2wuY29tMR8wHQYJKoZIhvcNAQkBFhBpbmZvQHdvbGZzc2wuY29tghQmjJP5
+fQeswFylFVnbeL4Pdrp9DAQBgNVHRMECTAHAQH/AgIAgDALBgNVHQ8EBAMCAQYw
DQYJKoZIhvcNAQELBQADggEBAGIvoFDSBagSJJA/ZHGX0wA3lwhmhlIe96UtTap5
zUSiV/NMa3VIl7mVrLhG3RPFDhJaIQUBKcwEGUDUyCLU4czXu1r9Gbcjo0d9hR4t
9WnCa5OAzGQvmoojygZ16vkxnYiliWwVSmVaxInnpavg3dtnVf8ku+InmBSVbfLI
Xy1reGbSRzCy2XL9KVI5+SycD29EuvpoiCw159/HzLGudpLDj06KVj0ktvJKC8uR
JK6T5/vdWQIII3EGvFquqeZX8Pqw9EXvjmucwkz2n55XowfVnIBJTKvffDBtL6J0
XEPsXLr22Sc4L5Q6uk5K/7p3y6xRgEvAJwZNB8RlkTKSD1g=
-----END CERTIFICATE-----
