Certificate:
    Data:
        Version: 3 (0x2)
        Serial Number: 100 (0x64)
        Signature Algorithm: sha256WithRSAEncryption
        Issuer: C = US, ST = Washington, L = Seattle, O = wolfSSL Inc., OU = Engineering, CN = chainG-ICA2-pathlen1, emailAddress = info@wolfssl.com
        Validity
            Not Before: Jun 19 13:23:42 2020 GMT
            Not After : Mar 16 13:23:42 2023 GMT
        Subject: C = US, ST = Washington, L = Seattle, O = wolfSSL Inc., OU = Engineering, CN = chainG-ICA1-pathlen0, emailAddress = info@wolfssl.com
        Subject Public Key Info:
            Public Key Algorithm: rsaEncryption
                RSA Public-Key: (2048 bit)
                Modulus:
                    00:d2:26:be:51:98:42:e0:1f:ae:fc:c2:cb:ba:d5:
                    0f:44:3b:0b:60:d8:49:ec:03:43:6b:06:ce:f2:28:
                    19:fb:48:9c:0b:5c:7f:00:a3:22:9f:bc:e9:2a:5b:
                    e4:e1:16:d8:9c:b9:c3:0b:30:e3:1c:83:7d:c0:b9:
                    a4:3f:da:38:ec:8b:38:be:45:c4:a7:1d:c1:68:18:
                    28:19:b0:f2:93:06:3a:bd:23:67:aa:05:89:31:3b:
                    c2:b4:5e:b3:12:cb:3b:f3:9c:d6:df:4c:ed:cb:42:
                    1b:25:80:2d:ab:c4:67:8f:a5:ff:da:6c:f1:18:fd:
                    a1:98:8c:d8:1f:67:6c:28:c7:cb:4e:bb:b0:27:ea:
                    25:b1:5d:73:d0:2a:e9:44:50:b9:f5:65:64:e6:cf:
                    3d:92:d8:c0:6d:ed:96:8e:e2:d3:84:70:d0:db:fe:
                    70:63:44:fa:f8:db:35:d1:95:ad:18:95:21:64:ce:
                    e2:23:7e:5e:6c:2f:ef:a7:63:fe:82:4a:cb:cc:23:
                    cf:9d:26:a5:66:ed:9c:06:7e:70:76:03:72:99:db:
                    fa:be:a5:c3:38:8b:40:24:c1:6b:d7:9c:bb:27:86:
                    22:a9:62:e0:b2:bd:e7:b5:e4:81:ea:64:db:18:16:
                    24:62:81:6c:a8:f2:83:3f:af:3b:b5:fd:b0:d8:84:
                    b2:21
                Exponent: 65537 (0x10001)
        X509v3 extensions:
            X509v3 Subject Key Identifier: 
                47:C0:19:4B:ED:C4:DA:97:B1:60:EA:5A:0A:42:6D:A5:D3:D8:25:31
            X509v3 Authority Key Identifier: 
                keyid:E1:E6:9B:28:CF:FD:AB:45:C1:B7:A7:C4:C9:58:FC:41:E3:1A:5C:74
                DirName:/C=US/ST=Washington/L=Seattle/O=wolfSSL Inc./OU=Engineering/CN=chainG-ICA3-pathlen99/emailAddress=info@wolfssl.com
                serial:64

            X509v3 Basic Constraints: 
                CA:TRUE, pathlen:0
            X509v3 Key Usage: 
                Certificate Sign, CRL Sign
    Signature Algorithm: sha256WithRSAEncryption
         13:9a:03:12:27:f2:a7:3c:62:2e:d6:78:67:eb:a9:69:fe:e5:
         72:39:06:32:8f:09:4d:a1:9e:56:10:30:5e:0f:22:65:22:ab:
         76:84:53:1b:74:a1:7f:d9:7a:a2:3e:4d:97:0a:1d:37:cf:a7:
         c0:f6:01:4a:75:3f:22:6c:6c:5b:a7:7f:fe:88:8a:99:aa:05:
         db:5e:66:fc:01:08:08:78:2d:e3:f4:ee:6b:ce:18:92:73:e6:
         08:9e:71:00:31:cb:0f:7d:ae:7e:47:7b:d5:0f:69:2f:90:0d:
         6e:4b:c4:a9:e9:88:95:e9:3e:55:25:22:16:05:b1:bf:29:31:
         de:7c:1a:dd:ed:ce:3d:b4:9e:d3:7a:1e:6a:70:06:f7:f4:2e:
         c4:35:16:97:30:e1:e0:86:93:4f:e1:3f:71:ad:a8:71:e2:5b:
         c6:34:d0:08:d5:cd:a4:2b:4f:ab:45:88:87:6c:0f:90:19:80:
         4b:76:13:3a:42:89:18:40:1f:c7:9b:92:e0:f2:ac:6f:0b:b5:
         ba:6b:d5:0d:4f:47:cb:84:bf:80:10:e1:b0:c8:42:a4:02:60:
         ed:f2:6c:e3:10:db:a7:c0:e0:49:7c:cc:30:dd:11:8f:cb:68:
         7b:f1:aa:2a:3e:63:d1:b4:c5:76:3f:64:3c:f1:2a:9b:54:87:
         60:db:ba:c3
-----BEGIN CERTIFICATE-----
MIIE1DCCA7ygAwIBAgIBZDANBgkqhkiG9w0BAQsFADCBoTELMAkGA1UEBhMCVVMx
EzARBgNVBAgMCldhc2hpbmd0b24xEDAOBgNVBAcMB1NlYXR0bGUxFTATBgNVBAoM
DHdvbGZTU0wgSW5jLjEUMBIGA1UECwwLRW5naW5lZXJpbmcxHTAbBgNVBAMMFGNo
YWluRy1JQ0EyLXBhdGhsZW4xMR8wHQYJKoZIhvcNAQkBFhBpbmZvQHdvbGZzc2wu
Y29tMB4XDTIwMDYxOTEzMjM0MloXDTIzMDMxNjEzMjM0MlowgaExCzAJBgNVBAYT
AlVTMRMwEQYDVQQIDApXYXNoaW5ndG9uMRAwDgYDVQQHDAdTZWF0dGxlMRUwEwYD
VQQKDAx3b2xmU1NMIEluYy4xFDASBgNVBAsMC0VuZ2luZWVyaW5nMR0wGwYDVQQD
DBRjaGFpbkctSUNBMS1wYXRobGVuMDEfMB0GCSqGSIb3DQEJARYQaW5mb0B3b2xm
c3NsLmNvbTCCASIwDQYJKoZIhvcNAQEBBQADggEPADCCAQoCggEBANImvlGYQuAf
rvzCy7rVD0Q7C2DYSewDQ2sGzvIoGftInAtcfwCjIp+86Spb5OEW2Jy5wwsw4xyD
fcC5pD/aOOyLOL5FxKcdwWgYKBmw8pMGOr0jZ6oFiTE7wrResxLLO/Oc1t9M7ctC
GyWALavEZ4+l/9ps8Rj9oZiM2B9nbCjHy067sCfqJbFdc9Aq6URQufVlZObPPZLY
wG3tlo7i04Rw0Nv+cGNE+vjbNdGVrRiVIWTO4iN+Xmwv76dj/oJKy8wjz50mpWbt
nAZ+cHYDcpnb+r6lwziLQCTBa9ecuyeGIqli4LK957Xkgepk2xgWJGKBbKjygz+v
O7X9sNiEsiECAwEAAaOCARMwggEPMB0GA1UdDgQWBBRHwBlL7cTal7Fg6loKQm2l
09glMTCBzwYDVR0jBIHHMIHEgBTh5psoz/2rRcG3p8TJWPxB4xpcdKGBqKSBpTCB
ojELMAkGA1UEBhMCVVMxEzARBgNVBAgMCldhc2hpbmd0b24xEDAOBgNVBAcMB1Nl
YXR0bGUxFTATBgNVBAoMDHdvbGZTU0wgSW5jLjEUMBIGA1UECwwLRW5naW5lZXJp
bmcxHjAcBgNVBAMMFWNoYWluRy1JQ0EzLXBhdGhsZW45OTEfMB0GCSqGSIb3DQEJ
ARYQaW5mb0B3b2xmc3NsLmNvbYIBZDAPBgNVHRMECDAGAQH/AgEAMAsGA1UdDwQE
AwIBBjANBgkqhkiG9w0BAQsFAAOCAQEAE5oDEifypzxiLtZ4Z+upaf7lcjkGMo8J
TaGeVhAwXg8iZSKrdoRTG3Shf9l6oj5NlwodN8+nwPYBSnU/ImxsW6d//oiKmaoF
215m/AEICHgt4/Tua84YknPmCJ5xADHLD32ufkd71Q9pL5ANbkvEqemIlek+VSUi
FgWxvykx3nwa3e3OPbSe03oeanAG9/QuxDUWlzDh4IaTT+E/ca2oceJbxjTQCNXN
pCtPq0WIh2wPkBmAS3YTOkKJGEAfx5uS4PKsbwu1umvVDU9Hy4S/gBDhsMhCpAJg
7fJs4xDbp8DgSXzMMN0Rj8toe/GqKj5j0bTFdj9kPPEqm1SHYNu6ww==
-----END CERTIFICATE-----
