Certificate:
    Data:
        Version: 3 (0x2)
        Serial Number: 100 (0x64)
        Signature Algorithm: sha256WithRSAEncryption
        Issuer: C = US, ST = Washington, L = Seattle, O = wolfSSL Inc., OU = Engineering, CN = chainF-ICA2-pathlen0, emailAddress = info@wolfssl.com
        Validity
            Not Before: Feb 15 12:50:26 2022 GMT
            Not After : Nov 11 12:50:26 2024 GMT
        Subject: C = US, ST = Washington, L = Seattle, O = wolfSSL Inc., OU = Engineering, CN = chainF-ICA1-pathlen1, emailAddress = info@wolfssl.com
        Subject Public Key Info:
            Public Key Algorithm: rsaEncryption
                RSA Public-Key: (2048 bit)
                Modulus:
                    00:e0:13:c9:b0:8e:9d:3f:88:d4:30:4a:b4:e8:11:
                    21:93:5c:20:45:08:f8:7a:91:b9:2c:ad:ff:60:aa:
                    16:9f:1c:bb:88:b8:3d:0a:39:c1:89:a9:76:ca:8e:
                    6c:72:72:7e:6e:74:a6:36:2c:69:df:33:d6:e9:66:
                    70:65:7f:ba:2a:44:17:62:9f:33:46:12:e6:03:a5:
                    a6:e2:5c:09:07:cf:bc:8d:76:fe:a0:fd:d7:72:4a:
                    94:c8:ca:2f:95:91:9c:0a:77:7f:82:23:be:72:27:
                    29:45:cd:41:cf:ec:e1:84:cf:67:d0:18:98:b9:31:
                    be:c9:fe:98:5d:3f:aa:d2:83:76:45:85:ab:08:86:
                    63:58:5b:b3:e5:4a:43:3d:a1:99:e2:80:d1:2b:b2:
                    06:e3:f0:10:85:f9:a6:36:b8:52:2b:9d:73:3b:34:
                    23:51:3d:fe:56:2f:e9:39:b2:68:07:3e:6f:52:7b:
                    f4:40:d4:72:fa:69:19:ca:ff:22:c8:45:95:05:5e:
                    91:08:3f:27:2d:41:d1:74:a5:06:9c:f3:40:bd:bb:
                    fc:65:63:86:ed:80:22:50:c1:f6:4f:dc:8f:43:4c:
                    5e:fb:bf:d9:6d:1f:b4:84:0f:1e:e8:c6:5d:c5:53:
                    d5:2c:c9:7f:6b:98:93:a7:5d:35:9a:17:62:91:2e:
                    20:c1
                Exponent: 65537 (0x10001)
        X509v3 extensions:
            X509v3 Subject Key Identifier: 
                75:32:21:05:2B:60:FE:44:17:AF:18:65:86:85:19:82:3F:F9:64:83
            X509v3 Authority Key Identifier: 
                keyid:4A:53:4A:B7:30:78:35:91:B4:CB:DD:C8:22:74:89:AF:80:0F:7F:68
                DirName:/C=US/ST=Montana/L=Bozeman/O=Sawtooth/OU=Consulting/CN=www.wolfssl.com/emailAddress=info@wolfssl.com
                serial:64

            X509v3 Basic Constraints: 
                CA:TRUE, pathlen:1
            X509v3 Key Usage: 
                Certificate Sign, CRL Sign
    Signature Algorithm: sha256WithRSAEncryption
         5e:08:e2:17:83:28:fd:ce:99:b0:d6:9d:9b:1e:7c:97:46:11:
         38:67:f2:48:6f:9f:7c:63:e2:1e:d3:ba:c4:41:4d:03:7a:00:
         d2:35:ff:76:9c:09:ec:2e:fd:76:2f:a1:02:02:da:80:64:30:
         4a:5d:35:b9:92:2a:d0:aa:64:92:fc:40:f4:3c:04:e8:e1:69:
         a8:0a:34:82:5f:1c:45:df:4e:c6:33:e3:45:7b:e2:2c:d8:27:
         2f:f9:0c:b9:a0:56:e6:3f:08:4e:4a:f9:a1:6a:24:66:53:45:
         e4:9f:c4:a9:45:ec:c5:55:de:09:a4:30:81:24:99:cb:91:ec:
         46:33:75:6d:aa:7b:8e:ad:6b:a1:42:73:97:ec:75:22:ba:1e:
         25:54:8c:fb:1b:d6:2a:af:83:e2:bf:e0:ce:21:96:fc:ed:12:
         a8:a1:0d:6d:bf:d5:c3:1e:4f:c5:4a:ef:4f:be:10:92:d1:e4:
         36:48:96:39:20:6d:7f:0b:a8:c7:a2:8f:eb:66:a2:ef:1b:b1:
         80:c7:05:31:06:93:f4:75:8a:92:e1:09:08:1c:25:81:e6:d9:
         e3:f7:12:1d:39:de:13:a7:16:e1:11:b1:03:03:f6:65:48:46:
         a7:17:1f:af:f5:83:2c:43:70:2c:6c:6a:b1:17:4f:9e:f6:73:
         35:5d:92:9c
-----BEGIN CERTIFICATE-----
MIIExjCCA66gAwIBAgIBZDANBgkqhkiG9w0BAQsFADCBoTELMAkGA1UEBhMCVVMx
EzARBgNVBAgMCldhc2hpbmd0b24xEDAOBgNVBAcMB1NlYXR0bGUxFTATBgNVBAoM
DHdvbGZTU0wgSW5jLjEUMBIGA1UECwwLRW5naW5lZXJpbmcxHTAbBgNVBAMMFGNo
YWluRi1JQ0EyLXBhdGhsZW4wMR8wHQYJKoZIhvcNAQkBFhBpbmZvQHdvbGZzc2wu
Y29tMB4XDTIyMDIxNTEyNTAyNloXDTI0MTExMTEyNTAyNlowgaExCzAJBgNVBAYT
AlVTMRMwEQYDVQQIDApXYXNoaW5ndG9uMRAwDgYDVQQHDAdTZWF0dGxlMRUwEwYD
VQQKDAx3b2xmU1NMIEluYy4xFDASBgNVBAsMC0VuZ2luZWVyaW5nMR0wGwYDVQQD
DBRjaGFpbkYtSUNBMS1wYXRobGVuMTEfMB0GCSqGSIb3DQEJARYQaW5mb0B3b2xm
c3NsLmNvbTCCASIwDQYJKoZIhvcNAQEBBQADggEPADCCAQoCggEBAOATybCOnT+I
1DBKtOgRIZNcIEUI+HqRuSyt/2CqFp8cu4i4PQo5wYmpdsqObHJyfm50pjYsad8z
1ulmcGV/uipEF2KfM0YS5gOlpuJcCQfPvI12/qD913JKlMjKL5WRnAp3f4IjvnIn
KUXNQc/s4YTPZ9AYmLkxvsn+mF0/qtKDdkWFqwiGY1hbs+VKQz2hmeKA0SuyBuPw
EIX5pja4Uiudczs0I1E9/lYv6TmyaAc+b1J79EDUcvppGcr/IshFlQVekQg/Jy1B
0XSlBpzzQL27/GVjhu2AIlDB9k/cj0NMXvu/2W0ftIQPHujGXcVT1SzJf2uYk6dd
NZoXYpEuIMECAwEAAaOCAQUwggEBMB0GA1UdDgQWBBR1MiEFK2D+RBevGGWGhRmC
P/lkgzCBwQYDVR0jBIG5MIG2gBRKU0q3MHg1kbTL3cgidImvgA9/aKGBmqSBlzCB
lDELMAkGA1UEBhMCVVMxEDAOBgNVBAgMB01vbnRhbmExEDAOBgNVBAcMB0JvemVt
YW4xETAPBgNVBAoMCFNhd3Rvb3RoMRMwEQYDVQQLDApDb25zdWx0aW5nMRgwFgYD
VQQDDA93d3cud29sZnNzbC5jb20xHzAdBgkqhkiG9w0BCQEWEGluZm9Ad29sZnNz
bC5jb22CAWQwDwYDVR0TBAgwBgEB/wIBATALBgNVHQ8EBAMCAQYwDQYJKoZIhvcN
AQELBQADggEBAF4I4heDKP3OmbDWnZsefJdGEThn8khvn3xj4h7TusRBTQN6ANI1
/3acCewu/XYvoQIC2oBkMEpdNbmSKtCqZJL8QPQ8BOjhaagKNIJfHEXfTsYz40V7
4izYJy/5DLmgVuY/CE5K+aFqJGZTReSfxKlF7MVV3gmkMIEkmcuR7EYzdW2qe46t
a6FCc5fsdSK6HiVUjPsb1iqvg+K/4M4hlvztEqihDW2/1cMeT8VK70++EJLR5DZI
ljkgbX8LqMeij+tmou8bsYDHBTEGk/R1ipLhCQgcJYHm2eP3Eh053hOnFuERsQMD
9mVIRqcXH6/1gyxDcCxsarEXT572czVdkpw=
-----END CERTIFICATE-----
