Certificate:
    Data:
        Version: 3 (0x2)
        Serial Number: 100 (0x64)
        Signature Algorithm: sha256WithRSAEncryption
        Issuer: C=US, ST=Washington, L=Seattle, O=wolfSSL Inc., OU=Engineering, CN=chainJ-ICA2-no_pathlen, emailAddress=info@wolfssl.com
        Validity
            Not Before: Nov 13 20:41:49 2025 GMT
            Not After : Aug  9 20:41:49 2028 GMT
        Subject: C=US, ST=Washington, L=Seattle, O=wolfSSL Inc., OU=Engineering, CN=chainJ-ICA1-no_pathlen, emailAddress=info@wolfssl.com
        Subject Public Key Info:
            Public Key Algorithm: rsaEncryption
                Public-Key: (2048 bit)
                Modulus:
                    00:a7:6f:44:c2:11:cc:2c:f4:2a:a5:a8:08:53:4b:
                    0e:cd:96:23:bb:15:4a:2a:dd:f9:a7:19:2b:91:28:
                    e8:73:a3:57:b4:49:3a:37:82:8f:15:38:5a:aa:af:
                    ad:72:26:2e:84:c2:0d:de:fc:f0:be:3b:a2:11:a9:
                    12:20:d4:3d:de:62:85:85:91:08:60:db:c0:4a:bb:
                    89:b6:f4:91:1e:51:a3:b2:f7:08:99:df:48:4a:59:
                    84:d1:aa:09:36:0d:cd:68:a5:ae:41:c8:d7:1a:d8:
                    ea:49:87:20:22:27:f9:45:54:3e:c7:c8:00:44:7e:
                    34:72:aa:8d:2d:4d:6a:3e:75:89:e2:d4:17:57:f9:
                    cd:2b:d0:b7:14:6a:54:1b:61:af:9b:68:22:b1:16:
                    73:eb:05:6c:41:ea:ed:10:4e:bc:83:04:68:c8:3a:
                    e1:03:12:ad:28:5c:24:4c:19:a1:7e:d8:ef:1b:80:
                    e4:0e:49:0c:69:86:f6:1e:e7:01:fb:2a:6f:56:1b:
                    6d:0a:ad:e9:29:3f:31:bb:48:28:40:79:2b:b5:f3:
                    aa:ec:e9:09:4c:82:fc:97:28:19:a3:3a:c0:d2:5e:
                    a3:8a:98:c8:8a:b7:d2:c4:90:bc:ff:cc:47:13:90:
                    ad:00:ab:8a:ec:f7:94:35:09:60:10:35:9f:32:c5:
                    00:1b
                Exponent: 65537 (0x10001)
        X509v3 extensions:
            X509v3 Subject Key Identifier: 
                9C:7B:3A:10:B3:08:99:05:00:AF:3E:E0:A4:5D:D9:AF:82:BC:4D:C0
            X509v3 Authority Key Identifier: 
                keyid:A3:F5:71:8A:60:80:3C:93:64:17:D9:2E:B5:C0:CE:A9:C1:14:17:C4
                DirName:/C=US/ST=Washington/L=Seattle/O=wolfSSL Inc./OU=Engineering/CN=chainJ-ICA3-no_pathlen/emailAddress=info@wolfssl.com
                serial:64
            X509v3 Basic Constraints: 
                CA:TRUE
            X509v3 Key Usage: 
                Certificate Sign, CRL Sign
    Signature Algorithm: sha256WithRSAEncryption
    Signature Value:
        26:ed:f8:54:82:f0:14:aa:45:f3:dd:2f:1e:0e:8b:4b:5b:fd:
        04:69:83:a9:3b:a8:0e:07:10:4b:66:20:37:5c:27:3b:c1:7f:
        1d:f1:8b:8b:0e:f7:d0:ae:72:49:f8:09:89:3f:f2:66:21:1b:
        30:f4:f2:a6:99:6c:f9:4a:37:b8:97:38:f8:69:9a:30:9a:d8:
        06:23:4b:9d:8f:c3:33:7b:f2:60:f9:e2:d2:94:5c:69:16:b6:
        4b:51:59:6f:57:e0:cf:1c:79:52:9b:ca:02:14:ed:5f:29:20:
        92:d4:fa:3e:7e:8d:ef:21:82:e8:c8:07:95:2b:3c:9b:24:5a:
        e6:93:25:e3:10:b9:e9:24:b5:b2:64:73:f3:73:6d:46:4a:5d:
        fe:73:30:16:74:91:5c:5a:50:10:2a:1f:68:20:61:7d:dd:a3:
        ff:c7:0e:d3:23:5c:76:8c:aa:f2:e4:73:a7:c1:53:71:28:e9:
        27:4a:c7:25:5e:2d:ef:65:f6:0a:04:1a:81:e7:0b:02:17:87:
        bf:9d:fd:4e:bf:d5:67:57:7e:59:2b:bc:24:c5:57:f7:73:b7:
        32:3b:0a:51:42:4a:72:88:f1:dc:fc:e0:7d:fe:0b:48:28:84:
        ed:f4:cf:7f:a7:10:de:31:30:53:91:bd:c9:56:57:75:de:2f:
        df:85:b2:2b
-----BEGIN CERTIFICATE-----
MIIE1jCCA76gAwIBAgIBZDANBgkqhkiG9w0BAQsFADCBozELMAkGA1UEBhMCVVMx
EzARBgNVBAgMCldhc2hpbmd0b24xEDAOBgNVBAcMB1NlYXR0bGUxFTATBgNVBAoM
DHdvbGZTU0wgSW5jLjEUMBIGA1UECwwLRW5naW5lZXJpbmcxHzAdBgNVBAMMFmNo
YWluSi1JQ0EyLW5vX3BhdGhsZW4xHzAdBgkqhkiG9w0BCQEWEGluZm9Ad29sZnNz
bC5jb20wHhcNMjUxMTEzMjA0MTQ5WhcNMjgwODA5MjA0MTQ5WjCBozELMAkGA1UE
BhMCVVMxEzARBgNVBAgMCldhc2hpbmd0b24xEDAOBgNVBAcMB1NlYXR0bGUxFTAT
BgNVBAoMDHdvbGZTU0wgSW5jLjEUMBIGA1UECwwLRW5naW5lZXJpbmcxHzAdBgNV
BAMMFmNoYWluSi1JQ0ExLW5vX3BhdGhsZW4xHzAdBgkqhkiG9w0BCQEWEGluZm9A
d29sZnNzbC5jb20wggEiMA0GCSqGSIb3DQEBAQUAA4IBDwAwggEKAoIBAQCnb0TC
Ecws9CqlqAhTSw7NliO7FUoq3fmnGSuRKOhzo1e0STo3go8VOFqqr61yJi6Ewg3e
/PC+O6IRqRIg1D3eYoWFkQhg28BKu4m29JEeUaOy9wiZ30hKWYTRqgk2Dc1opa5B
yNca2OpJhyAiJ/lFVD7HyABEfjRyqo0tTWo+dYni1BdX+c0r0LcUalQbYa+baCKx
FnPrBWxB6u0QTryDBGjIOuEDEq0oXCRMGaF+2O8bgOQOSQxphvYe5wH7Km9WG20K
rekpPzG7SChAeSu186rs6QlMgvyXKBmjOsDSXqOKmMiKt9LEkLz/zEcTkK0Aq4rs
95Q1CWAQNZ8yxQAbAgMBAAGjggERMIIBDTAdBgNVHQ4EFgQUnHs6ELMImQUArz7g
pF3Zr4K8TcAwgdAGA1UdIwSByDCBxYAUo/VximCAPJNkF9kutcDOqcEUF8Shgamk
gaYwgaMxCzAJBgNVBAYTAlVTMRMwEQYDVQQIDApXYXNoaW5ndG9uMRAwDgYDVQQH
DAdTZWF0dGxlMRUwEwYDVQQKDAx3b2xmU1NMIEluYy4xFDASBgNVBAsMC0VuZ2lu
ZWVyaW5nMR8wHQYDVQQDDBZjaGFpbkotSUNBMy1ub19wYXRobGVuMR8wHQYJKoZI
hvcNAQkBFhBpbmZvQHdvbGZzc2wuY29tggFkMAwGA1UdEwQFMAMBAf8wCwYDVR0P
BAQDAgEGMA0GCSqGSIb3DQEBCwUAA4IBAQAm7fhUgvAUqkXz3S8eDotLW/0EaYOp
O6gOBxBLZiA3XCc7wX8d8YuLDvfQrnJJ+AmJP/JmIRsw9PKmmWz5Sje4lzj4aZow
mtgGI0udj8Mze/Jg+eLSlFxpFrZLUVlvV+DPHHlSm8oCFO1fKSCS1Po+fo3vIYLo
yAeVKzybJFrmkyXjELnpJLWyZHPzc21GSl3+czAWdJFcWlAQKh9oIGF93aP/xw7T
I1x2jKry5HOnwVNxKOknSsclXi3vZfYKBBqB5wsCF4e/nf1Ov9VnV35ZK7wkxVf3
c7cyOwpRQkpyiPHc/OB9/gtIKITt9M9/pxDeMTBTkb3JVld13i/fhbIr
-----END CERTIFICATE-----
