Certificate:
    Data:
        Version: 3 (0x2)
        Serial Number: 100 (0x64)
        Signature Algorithm: sha256WithRSAEncryption
        Issuer: C = US, ST = Montana, L = Bozeman, O = Sawtooth, OU = Consulting, CN = www.wolfssl.com, emailAddress = info@wolfssl.com
        Validity
            Not Before: Sep 26 17:22:46 2023 GMT
            Not After : Jun 22 17:22:46 2026 GMT
        Subject: C = US, ST = Washington, L = Seattle, O = wolfSSL Inc., OU = Engineering, CN = chainH-ICA4-pathlen2, emailAddress = info@wolfssl.com
        Subject Public Key Info:
            Public Key Algorithm: rsaEncryption
                Public-Key: (2048 bit)
                Modulus:
                    00:bb:f3:2f:8a:cd:9e:87:f1:01:f3:a4:c0:2d:66:
                    36:d7:11:2e:64:08:e8:f1:99:fa:a6:9c:f4:bd:3b:
                    47:72:d2:0e:58:9d:3e:52:e7:da:a3:43:78:c3:c3:
                    93:e6:04:d3:ab:51:8a:1a:24:0e:7a:62:59:aa:c6:
                    42:9e:66:c1:61:5e:31:b1:4d:dc:37:a9:18:76:8d:
                    fe:cb:09:54:3f:4f:bb:5f:ab:ba:70:e9:b4:a1:5e:
                    a0:69:7e:45:3f:c0:cc:78:e9:f2:74:64:79:c2:6a:
                    16:d0:98:30:82:44:4a:b3:99:2c:66:30:ac:99:82:
                    04:2a:bf:0f:60:89:04:36:fa:29:d3:08:56:61:6a:
                    a8:33:40:9a:53:7d:20:a8:51:6f:9b:a0:d9:3e:dc:
                    9a:8b:1d:37:9e:ad:c9:fd:53:a7:04:dc:1f:36:3e:
                    d3:65:52:84:24:61:d0:4e:e2:41:60:bf:fb:fd:b2:
                    04:b3:3f:eb:14:99:5e:bc:e8:7d:e9:65:d1:3f:fe:
                    04:49:e5:bb:a3:2d:e3:db:96:df:d9:81:a0:32:d7:
                    01:b9:b8:02:8e:b9:a2:1f:0a:d4:24:17:3a:19:0f:
                    6d:3a:10:5f:5c:7d:b8:56:82:c7:7f:40:f0:2d:87:
                    63:c1:b1:d8:64:c7:3c:27:13:4a:63:82:21:b1:f2:
                    39:e9
                Exponent: 65537 (0x10001)
        X509v3 extensions:
            X509v3 Subject Key Identifier: 
                18:6D:44:83:EE:1F:EC:B4:22:F0:9C:EB:54:1E:4A:15:58:01:AA:13
            X509v3 Authority Key Identifier: 
                keyid:27:8E:67:11:74:C3:26:1D:3F:ED:33:63:B3:A4:D8:1D:30:E5:E8:D5
                DirName:/C=US/ST=Montana/L=Bozeman/O=Sawtooth/OU=Consulting/CN=www.wolfssl.com/emailAddress=info@wolfssl.com
                serial:4F:1D:F3:64:BA:21:A8:E6:CB:74:3A:4E:44:A5:E6:79:19:E8:5B:81
            X509v3 Basic Constraints: 
                CA:TRUE, pathlen:2
            X509v3 Key Usage: 
                Certificate Sign, CRL Sign
    Signature Algorithm: sha256WithRSAEncryption
    Signature Value:
        45:e8:44:ff:f2:20:fb:62:9e:5e:37:9d:f1:60:d8:21:df:9a:
        55:5d:92:8a:14:7d:92:14:42:59:3a:79:94:1b:46:f7:03:b6:
        b5:5c:5a:ee:3e:0c:af:7d:3a:6a:eb:a6:0b:ec:c3:68:30:76:
        e8:7b:6d:f3:bb:c3:1e:97:af:e6:86:f0:41:c1:29:a2:3f:79:
        2e:8a:03:0c:fb:5e:a1:19:e6:73:af:c3:b3:cb:7a:34:22:ba:
        a2:6f:51:99:0f:51:ce:2e:53:ec:ff:61:1f:01:be:06:ae:1f:
        3d:6e:a6:6c:b4:72:af:12:52:a7:c6:ba:95:6a:76:44:a4:7c:
        19:26:23:b3:03:1f:c8:0f:f2:0c:b4:35:3b:77:76:c8:19:fc:
        6d:88:2e:d0:4d:2b:74:d4:67:34:fb:17:0c:ae:01:e0:99:fd:
        7e:72:95:75:4a:1d:18:c2:dd:f8:45:f7:6d:9a:57:c4:47:ef:
        98:77:a0:e8:56:93:e7:1e:7c:4a:4a:6f:a3:de:27:20:1b:92:
        0b:b3:bf:9b:b0:d9:ca:a5:4a:9a:c7:63:31:89:94:58:88:98:
        ad:93:cc:57:69:46:36:31:01:3a:db:85:ac:8e:78:a3:a0:08:
        2d:0b:dc:cd:7e:bf:f2:c2:48:8e:bd:33:ab:4b:b5:3f:66:de:
        9f:b1:6b:e6
-----BEGIN CERTIFICATE-----
MIIEzDCCA7SgAwIBAgIBZDANBgkqhkiG9w0BAQsFADCBlDELMAkGA1UEBhMCVVMx
EDAOBgNVBAgMB01vbnRhbmExEDAOBgNVBAcMB0JvemVtYW4xETAPBgNVBAoMCFNh
d3Rvb3RoMRMwEQYDVQQLDApDb25zdWx0aW5nMRgwFgYDVQQDDA93d3cud29sZnNz
bC5jb20xHzAdBgkqhkiG9w0BCQEWEGluZm9Ad29sZnNzbC5jb20wHhcNMjMwOTI2
MTcyMjQ2WhcNMjYwNjIyMTcyMjQ2WjCBoTELMAkGA1UEBhMCVVMxEzARBgNVBAgM
Cldhc2hpbmd0b24xEDAOBgNVBAcMB1NlYXR0bGUxFTATBgNVBAoMDHdvbGZTU0wg
SW5jLjEUMBIGA1UECwwLRW5naW5lZXJpbmcxHTAbBgNVBAMMFGNoYWluSC1JQ0E0
LXBhdGhsZW4yMR8wHQYJKoZIhvcNAQkBFhBpbmZvQHdvbGZzc2wuY29tMIIBIjAN
BgkqhkiG9w0BAQEFAAOCAQ8AMIIBCgKCAQEAu/Mvis2eh/EB86TALWY21xEuZAjo
8Zn6ppz0vTtHctIOWJ0+Uufao0N4w8OT5gTTq1GKGiQOemJZqsZCnmbBYV4xsU3c
N6kYdo3+ywlUP0+7X6u6cOm0oV6gaX5FP8DMeOnydGR5wmoW0JgwgkRKs5ksZjCs
mYIEKr8PYIkENvop0whWYWqoM0CaU30gqFFvm6DZPtyaix03nq3J/VOnBNwfNj7T
ZVKEJGHQTuJBYL/7/bIEsz/rFJlevOh96WXRP/4ESeW7oy3j25bf2YGgMtcBubgC
jrmiHwrUJBc6GQ9tOhBfXH24VoLHf0DwLYdjwbHYZMc8JxNKY4IhsfI56QIDAQAB
o4IBGDCCARQwHQYDVR0OBBYEFBhtRIPuH+y0IvCc61QeShVYAaoTMIHUBgNVHSME
gcwwgcmAFCeOZxF0wyYdP+0zY7Ok2B0w5ejVoYGapIGXMIGUMQswCQYDVQQGEwJV
UzEQMA4GA1UECAwHTW9udGFuYTEQMA4GA1UEBwwHQm96ZW1hbjERMA8GA1UECgwI
U2F3dG9vdGgxEzARBgNVBAsMCkNvbnN1bHRpbmcxGDAWBgNVBAMMD3d3dy53b2xm
c3NsLmNvbTEfMB0GCSqGSIb3DQEJARYQaW5mb0B3b2xmc3NsLmNvbYIUTx3zZLoh
qObLdDpORKXmeRnoW4EwDwYDVR0TBAgwBgEB/wIBAjALBgNVHQ8EBAMCAQYwDQYJ
KoZIhvcNAQELBQADggEBAEXoRP/yIPtinl43nfFg2CHfmlVdkooUfZIUQlk6eZQb
RvcDtrVcWu4+DK99Omrrpgvsw2gwduh7bfO7wx6Xr+aG8EHBKaI/eS6KAwz7XqEZ
5nOvw7PLejQiuqJvUZkPUc4uU+z/YR8BvgauHz1upmy0cq8SUqfGupVqdkSkfBkm
I7MDH8gP8gy0NTt3dsgZ/G2ILtBNK3TUZzT7FwyuAeCZ/X5ylXVKHRjC3fhF922a
V8RH75h3oOhWk+cefEpKb6PeJyAbkguzv5uw2cqlSprHYzGJlFiImK2TzFdpRjYx
ATrbhayOeKOgCC0L3M1+v/LCSI69M6tLtT9m3p+xa+Y=
-----END CERTIFICATE-----
