Certificate:
    Data:
        Version: 3 (0x2)
        Serial Number: 100 (0x64)
        Signature Algorithm: sha256WithRSAEncryption
        Issuer: C=US, ST=Montana, L=Bozeman, O=Sawtooth, OU=Consulting, CN=www.wolfssl.com, emailAddress=facts@wolfssl.com
        Validity
            Not Before: Jun 11 21:44:39 2026 GMT
            Not After : Mar  7 21:44:39 2029 GMT
        Subject: C=US, ST=Washington, L=Seattle, O=wolfSSL Inc., OU=Engineering, CN=chainG-ICA7-pathlen100, emailAddress=facts@wolfssl.com
        Subject Public Key Info:
            Public Key Algorithm: rsaEncryption
                Public-Key: (2048 bit)
                Modulus:
                    00:d6:8c:d6:c4:29:20:60:9d:15:3d:0c:2a:fb:24:
                    2f:38:89:ed:37:c4:fc:57:67:2a:50:d8:eb:e2:6a:
                    1c:59:06:f2:6d:3e:b9:4f:fe:49:c5:21:c0:16:f8:
                    29:6f:51:0c:ea:78:d7:0e:15:41:da:5a:cb:0b:e0:
                    54:d6:83:fd:0f:e8:4e:30:ff:e4:44:c3:b2:02:f3:
                    7d:3a:c6:5c:4e:86:86:2c:74:d4:21:85:c1:fe:4e:
                    8b:07:3c:54:1b:54:9e:ec:5a:a5:95:ed:5a:35:e0:
                    08:c6:84:7c:e6:ae:71:12:d2:fd:c1:fd:16:0a:3a:
                    b8:c7:23:4b:af:e0:cd:12:5e:9f:4f:62:13:f0:c8:
                    e4:e2:a8:01:d3:37:b0:08:21:d3:0f:6c:e4:d8:c1:
                    04:51:e9:4c:c5:b1:6d:cc:63:23:97:30:ee:f0:1e:
                    ab:6d:ea:93:ca:ad:56:6f:1e:ed:1a:ae:8c:1b:91:
                    04:ea:ab:9d:1b:3b:56:a7:c1:cc:2f:39:2f:b3:ba:
                    8c:16:fd:5e:10:10:9e:24:ea:40:97:74:b6:b4:e5:
                    1c:c0:d3:5f:79:2c:04:43:3a:8e:f4:b1:56:bd:c7:
                    25:63:5c:34:50:4d:bd:2d:f1:08:bd:8c:3e:d2:6f:
                    fa:e4:04:a1:51:eb:d0:d0:90:91:97:7b:46:c6:10:
                    92:af
                Exponent: 65537 (0x10001)
        X509v3 extensions:
            X509v3 Subject Key Identifier: 
                12:E4:A4:19:85:AE:85:B7:D6:EB:63:04:D5:B9:B0:7E:57:5F:0C:16
            X509v3 Authority Key Identifier: 
                keyid:27:8E:67:11:74:C3:26:1D:3F:ED:33:63:B3:A4:D8:1D:30:E5:E8:D5
                DirName:/C=US/ST=Montana/L=Bozeman/O=Sawtooth/OU=Consulting/CN=www.wolfssl.com/emailAddress=facts@wolfssl.com
                serial:67:19:D2:A8:7F:E3:2D:FA:75:7A:4F:E7:B2:02:D9:AD:C4:77:5E:F8
            X509v3 Basic Constraints: 
                CA:TRUE, pathlen:100
            X509v3 Key Usage: 
                Certificate Sign, CRL Sign
    Signature Algorithm: sha256WithRSAEncryption
    Signature Value:
        39:75:d6:ec:80:00:9b:f8:f5:8f:69:c9:fe:2b:d5:be:7e:86:
        ea:0d:f6:c7:e8:df:17:ab:35:df:7d:61:86:4e:dc:3d:9c:cd:
        11:d0:ea:8e:8a:19:b5:cd:f7:c5:ad:77:b4:fb:45:f7:f9:3b:
        b7:19:c5:e6:b5:49:de:6e:3c:2e:f6:37:fb:b8:db:11:f1:31:
        ca:3d:47:fd:e3:15:20:29:2b:97:93:59:ab:3c:57:ed:85:d0:
        3e:45:c5:08:21:b0:96:a1:97:12:52:88:cb:75:e9:c9:52:49:
        a2:37:75:59:8f:b4:01:f3:03:a8:80:79:92:c4:ef:c2:c5:a9:
        0b:ab:46:a7:84:7e:d2:cc:db:1b:67:27:25:1d:db:d4:f9:1d:
        7d:0a:0b:86:ce:81:62:ad:8f:6c:6e:4c:dd:8b:91:03:41:62:
        c1:14:df:0e:76:8b:99:b6:4a:ee:64:56:14:15:0c:b6:fd:99:
        79:49:0f:51:06:3c:0f:92:a0:5d:b4:3e:21:0d:83:f1:40:02:
        bf:d0:6e:87:4e:6b:e3:72:c8:03:af:85:7d:6b:84:e3:1c:8c:
        5e:47:f9:b2:88:cb:0c:54:86:74:2c:ec:93:4e:bb:a6:d7:2e:
        76:42:27:bc:82:28:6e:51:2f:39:b7:b1:32:a3:98:c1:55:bf:
        c7:16:3e:bf
-----BEGIN CERTIFICATE-----
MIIE0TCCA7mgAwIBAgIBZDANBgkqhkiG9w0BAQsFADCBlTELMAkGA1UEBhMCVVMx
EDAOBgNVBAgMB01vbnRhbmExEDAOBgNVBAcMB0JvemVtYW4xETAPBgNVBAoMCFNh
d3Rvb3RoMRMwEQYDVQQLDApDb25zdWx0aW5nMRgwFgYDVQQDDA93d3cud29sZnNz
bC5jb20xIDAeBgkqhkiG9w0BCQEWEWZhY3RzQHdvbGZzc2wuY29tMB4XDTI2MDYx
MTIxNDQzOVoXDTI5MDMwNzIxNDQzOVowgaQxCzAJBgNVBAYTAlVTMRMwEQYDVQQI
DApXYXNoaW5ndG9uMRAwDgYDVQQHDAdTZWF0dGxlMRUwEwYDVQQKDAx3b2xmU1NM
IEluYy4xFDASBgNVBAsMC0VuZ2luZWVyaW5nMR8wHQYDVQQDDBZjaGFpbkctSUNB
Ny1wYXRobGVuMTAwMSAwHgYJKoZIhvcNAQkBFhFmYWN0c0B3b2xmc3NsLmNvbTCC
ASIwDQYJKoZIhvcNAQEBBQADggEPADCCAQoCggEBANaM1sQpIGCdFT0MKvskLziJ
7TfE/FdnKlDY6+JqHFkG8m0+uU/+ScUhwBb4KW9RDOp41w4VQdpaywvgVNaD/Q/o
TjD/5ETDsgLzfTrGXE6Ghix01CGFwf5Oiwc8VBtUnuxapZXtWjXgCMaEfOaucRLS
/cH9Fgo6uMcjS6/gzRJen09iE/DI5OKoAdM3sAgh0w9s5NjBBFHpTMWxbcxjI5cw
7vAeq23qk8qtVm8e7RqujBuRBOqrnRs7VqfBzC85L7O6jBb9XhAQniTqQJd0trTl
HMDTX3ksBEM6jvSxVr3HJWNcNFBNvS3xCL2MPtJv+uQEoVHr0NCQkZd7RsYQkq8C
AwEAAaOCARkwggEVMB0GA1UdDgQWBBQS5KQZha6Ft9brYwTVubB+V18MFjCB1QYD
VR0jBIHNMIHKgBQnjmcRdMMmHT/tM2OzpNgdMOXo1aGBm6SBmDCBlTELMAkGA1UE
BhMCVVMxEDAOBgNVBAgMB01vbnRhbmExEDAOBgNVBAcMB0JvemVtYW4xETAPBgNV
BAoMCFNhd3Rvb3RoMRMwEQYDVQQLDApDb25zdWx0aW5nMRgwFgYDVQQDDA93d3cu
d29sZnNzbC5jb20xIDAeBgkqhkiG9w0BCQEWEWZhY3RzQHdvbGZzc2wuY29tghRn
GdKof+Mt+nV6T+eyAtmtxHde+DAPBgNVHRMECDAGAQH/AgFkMAsGA1UdDwQEAwIB
BjANBgkqhkiG9w0BAQsFAAOCAQEAOXXW7IAAm/j1j2nJ/ivVvn6G6g32x+jfF6s1
331hhk7cPZzNEdDqjooZtc33xa13tPtF9/k7txnF5rVJ3m48LvY3+7jbEfExyj1H
/eMVICkrl5NZqzxX7YXQPkXFCCGwlqGXElKIy3XpyVJJojd1WY+0AfMDqIB5ksTv
wsWpC6tGp4R+0szbG2cnJR3b1PkdfQoLhs6BYq2PbG5M3YuRA0FiwRTfDnaLmbZK
7mRWFBUMtv2ZeUkPUQY8D5KgXbQ+IQ2D8UACv9Buh05r43LIA6+FfWuE4xyMXkf5
sojLDFSGdCzsk067ptcudkInvIIoblEvObexMqOYwVW/xxY+vw==
-----END CERTIFICATE-----
