Certificate:
    Data:
        Version: 3 (0x2)
        Serial Number: 101 (0x65)
        Signature Algorithm: sha256WithRSAEncryption
        Issuer: C=US, ST=Washington, L=Seattle, O=wolfSSL Inc., OU=Engineering, CN=chainB-ICA1-pathlen0, emailAddress=facts@wolfssl.com
        Validity
            Not Before: Jun 11 21:44:38 2026 GMT
            Not After : Mar  7 21:44:38 2029 GMT
        Subject: C=US, ST=Washington, L=Seattle, O=wolfSSL Inc., OU=Engineering, CN=chainB-entity, emailAddress=facts@wolfssl.com
        Subject Public Key Info:
            Public Key Algorithm: rsaEncryption
                Public-Key: (2048 bit)
                Modulus:
                    00:d7:5f:d9:3d:d7:5b:11:aa:3e:53:31:d0:32:78:
                    87:fb:c0:8e:80:6d:fc:68:73:1f:9c:77:66:16:35:
                    fc:2f:d7:e4:ca:ba:2a:73:5f:14:94:12:f0:48:31:
                    a2:40:ad:b4:e3:07:0c:02:47:b4:0a:07:69:d5:d2:
                    85:bf:c8:bc:14:8c:c7:87:ba:5f:87:c5:07:f4:df:
                    a4:46:1e:b7:13:0f:9d:7e:f6:1a:7b:29:09:55:4c:
                    17:ee:c8:b0:9d:39:0c:89:6e:18:9c:06:7f:5d:95:
                    d2:4c:71:b3:1f:ea:5d:d2:f6:2c:69:a8:16:15:59:
                    e5:7d:03:d7:bd:1a:34:e3:f1:27:e3:b9:7d:68:e0:
                    39:3f:35:62:2f:20:20:fa:19:62:37:1a:30:47:6c:
                    a3:f9:8e:9c:f3:67:2e:bb:38:4c:2e:0a:21:9b:70:
                    b6:97:a2:1b:b3:98:0d:5b:74:97:33:f0:b8:6c:4e:
                    ad:b4:1f:48:62:c9:9a:af:2d:a6:a1:06:ae:98:30:
                    54:5e:cb:dd:23:77:d5:ee:5c:fb:81:f0:2b:ad:6f:
                    fa:e3:b1:0e:98:bd:3e:0b:f4:7c:c5:e3:50:bf:08:
                    9b:bf:be:f8:6a:d9:db:78:36:84:f2:7e:7b:7d:5e:
                    a7:8f:42:81:5f:41:f4:77:5c:30:51:f5:3f:2d:25:
                    95:4d
                Exponent: 65537 (0x10001)
        X509v3 extensions:
            X509v3 Subject Key Identifier: 
                7F:17:7E:8E:A8:2C:AD:9C:C7:22:7E:A6:C6:90:9E:63:C4:5F:33:9E
            X509v3 Authority Key Identifier: 
                keyid:D7:90:E4:86:59:24:F9:2B:B8:06:8E:B1:8F:33:E5:2C:63:F1:03:16
                DirName:/C=US/ST=Washington/L=Seattle/O=wolfSSL Inc./OU=Engineering/CN=chainB-ICA2-pathlen1/emailAddress=facts@wolfssl.com
                serial:64
            X509v3 Basic Constraints: 
                CA:FALSE
    Signature Algorithm: sha256WithRSAEncryption
    Signature Value:
        25:f3:bd:91:41:fd:9b:eb:65:88:17:8e:d5:67:42:07:40:53:
        c7:10:f3:d4:4a:88:a9:50:8c:58:b3:9e:15:7d:13:e5:44:04:
        86:b9:f4:34:38:3f:fc:d8:97:31:d7:0f:1d:a2:56:03:55:84:
        3b:41:13:ce:f0:78:bf:30:ed:b7:f7:51:d9:0d:cb:0a:13:c3:
        c1:93:7d:b0:18:e7:31:a5:97:4e:fb:13:a7:32:c2:7e:1b:38:
        2b:ec:a7:44:66:47:a1:21:56:6b:a1:1b:2c:31:f7:16:9b:cd:
        4c:4a:da:7d:3e:0f:23:84:0d:f5:9d:f2:4b:fd:2d:cc:53:fc:
        d2:5e:de:0e:0f:25:74:b9:60:7a:24:10:15:fe:6f:a0:a1:68:
        53:88:33:ad:80:b6:61:85:59:be:8b:79:b4:57:29:5a:2c:ed:
        b2:a7:ef:d1:72:e0:65:42:cf:90:37:80:72:de:d4:60:71:0f:
        9d:a4:67:4c:14:06:8f:a7:94:f7:a0:41:bc:aa:9c:7a:14:71:
        fb:6d:56:21:74:60:28:70:14:f1:a5:e8:9b:75:6b:43:6b:0d:
        1d:90:28:b0:5e:ad:52:b5:34:5a:89:ef:19:35:dd:5c:e8:d1:
        97:16:d9:9c:b6:65:ac:7f:8a:ca:3b:a1:bc:92:4e:e8:45:3f:
        3e:e7:0c:49
-----BEGIN CERTIFICATE-----
MIIEujCCA6KgAwIBAgIBZTANBgkqhkiG9w0BAQsFADCBojELMAkGA1UEBhMCVVMx
EzARBgNVBAgMCldhc2hpbmd0b24xEDAOBgNVBAcMB1NlYXR0bGUxFTATBgNVBAoM
DHdvbGZTU0wgSW5jLjEUMBIGA1UECwwLRW5naW5lZXJpbmcxHTAbBgNVBAMMFGNo
YWluQi1JQ0ExLXBhdGhsZW4wMSAwHgYJKoZIhvcNAQkBFhFmYWN0c0B3b2xmc3Ns
LmNvbTAeFw0yNjA2MTEyMTQ0MzhaFw0yOTAzMDcyMTQ0MzhaMIGbMQswCQYDVQQG
EwJVUzETMBEGA1UECAwKV2FzaGluZ3RvbjEQMA4GA1UEBwwHU2VhdHRsZTEVMBMG
A1UECgwMd29sZlNTTCBJbmMuMRQwEgYDVQQLDAtFbmdpbmVlcmluZzEWMBQGA1UE
AwwNY2hhaW5CLWVudGl0eTEgMB4GCSqGSIb3DQEJARYRZmFjdHNAd29sZnNzbC5j
b20wggEiMA0GCSqGSIb3DQEBAQUAA4IBDwAwggEKAoIBAQDXX9k911sRqj5TMdAy
eIf7wI6Abfxocx+cd2YWNfwv1+TKuipzXxSUEvBIMaJArbTjBwwCR7QKB2nV0oW/
yLwUjMeHul+HxQf036RGHrcTD51+9hp7KQlVTBfuyLCdOQyJbhicBn9dldJMcbMf
6l3S9ixpqBYVWeV9A9e9GjTj8SfjuX1o4Dk/NWIvICD6GWI3GjBHbKP5jpzzZy67
OEwuCiGbcLaXohuzmA1bdJcz8LhsTq20H0hiyZqvLaahBq6YMFRey90jd9XuXPuB
8Cutb/rjsQ6YvT4L9HzF41C/CJu/vvhq2dt4NoTyfnt9XqePQoFfQfR3XDBR9T8t
JZVNAgMBAAGjgf8wgfwwHQYDVR0OBBYEFH8Xfo6oLK2cxyJ+psaQnmPEXzOeMIHP
BgNVHSMEgccwgcSAFNeQ5IZZJPkruAaOsY8z5Sxj8QMWoYGopIGlMIGiMQswCQYD
VQQGEwJVUzETMBEGA1UECAwKV2FzaGluZ3RvbjEQMA4GA1UEBwwHU2VhdHRsZTEV
MBMGA1UECgwMd29sZlNTTCBJbmMuMRQwEgYDVQQLDAtFbmdpbmVlcmluZzEdMBsG
A1UEAwwUY2hhaW5CLUlDQTItcGF0aGxlbjExIDAeBgkqhkiG9w0BCQEWEWZhY3Rz
QHdvbGZzc2wuY29tggFkMAkGA1UdEwQCMAAwDQYJKoZIhvcNAQELBQADggEBACXz
vZFB/ZvrZYgXjtVnQgdAU8cQ89RKiKlQjFiznhV9E+VEBIa59DQ4P/zYlzHXDx2i
VgNVhDtBE87weL8w7bf3UdkNywoTw8GTfbAY5zGll077E6cywn4bOCvsp0RmR6Eh
VmuhGywx9xabzUxK2n0+DyOEDfWd8kv9LcxT/NJe3g4PJXS5YHokEBX+b6ChaFOI
M62AtmGFWb6LebRXKVos7bKn79Fy4GVCz5A3gHLe1GBxD52kZ0wUBo+nlPegQbyq
nHoUcfttViF0YChwFPGl6Jt1a0NrDR2QKLBerVK1NFqJ7xk13Vzo0ZcW2Zy2Zax/
iso7obySTuhFPz7nDEk=
-----END CERTIFICATE-----
Certificate:
    Data:
        Version: 3 (0x2)
        Serial Number: 100 (0x64)
        Signature Algorithm: sha256WithRSAEncryption
        Issuer: C=US, ST=Washington, L=Seattle, O=wolfSSL Inc., OU=Engineering, CN=chainB-ICA2-pathlen1, emailAddress=facts@wolfssl.com
        Validity
            Not Before: Jun 11 21:44:38 2026 GMT
            Not After : Mar  7 21:44:38 2029 GMT
        Subject: C=US, ST=Washington, L=Seattle, O=wolfSSL Inc., OU=Engineering, CN=chainB-ICA1-pathlen0, emailAddress=facts@wolfssl.com
        Subject Public Key Info:
            Public Key Algorithm: rsaEncryption
                Public-Key: (2048 bit)
                Modulus:
                    00:b2:f7:aa:ae:91:d1:24:41:52:a1:22:e0:d3:97:
                    9b:e0:0c:94:9c:4a:e4:b3:85:ae:a9:43:9f:ec:7a:
                    05:dd:88:5c:e5:19:52:53:39:86:8a:b2:e2:86:27:
                    ab:03:9a:be:c4:54:67:af:b9:ac:65:e2:61:97:78:
                    66:60:29:90:62:08:62:91:a0:96:2b:0f:30:6c:da:
                    3d:70:35:52:a8:a7:d5:85:49:25:6a:56:59:bc:6b:
                    45:91:c3:37:fc:06:0d:a2:a9:46:e2:29:82:1b:77:
                    a6:49:35:fb:57:5f:33:02:92:e5:6b:67:c2:61:e2:
                    37:9c:12:5c:b5:2c:9b:2a:a5:85:97:22:73:3d:36:
                    50:55:1a:6a:59:d9:da:ac:2d:3f:e6:6a:b1:1d:60:
                    52:03:05:40:5f:cf:06:68:f0:32:86:5a:6f:b5:02:
                    63:e6:2e:1e:9f:09:82:8c:03:18:19:e4:79:d5:35:
                    6e:d9:17:9f:3c:c1:d9:3b:95:f9:6f:f3:19:d1:d3:
                    b8:5d:7c:93:37:c3:7c:3b:a0:58:c7:fb:e5:2d:f5:
                    58:d3:9b:72:f3:43:7a:29:ec:6b:f4:86:81:c8:e6:
                    60:8b:2b:c5:ad:59:e5:a4:a0:05:97:09:02:00:a7:
                    55:dc:5b:ef:e4:8b:83:1a:ee:c8:1c:b5:b6:e6:61:
                    6b:d1
                Exponent: 65537 (0x10001)
        X509v3 extensions:
            X509v3 Subject Key Identifier: 
                D7:90:E4:86:59:24:F9:2B:B8:06:8E:B1:8F:33:E5:2C:63:F1:03:16
            X509v3 Authority Key Identifier: 
                keyid:EE:59:9D:56:0B:7C:0A:45:44:E3:15:57:E2:B2:F3:1D:64:6F:AF:7A
                DirName:/C=US/ST=Montana/L=Bozeman/O=Sawtooth/OU=Consulting/CN=www.wolfssl.com/emailAddress=facts@wolfssl.com
                serial:64
            X509v3 Basic Constraints: 
                CA:TRUE, pathlen:0
            X509v3 Key Usage: 
                Certificate Sign, CRL Sign
    Signature Algorithm: sha256WithRSAEncryption
    Signature Value:
        66:be:38:32:e6:8a:47:16:3e:e9:4b:1e:c2:8c:ce:49:b3:d8:
        8d:3a:37:88:eb:86:1c:58:c3:10:e6:95:8e:93:2e:34:a6:06:
        39:5f:d3:af:f5:50:a4:a2:1e:9a:9c:54:c8:4c:96:fe:a4:90:
        7b:db:22:ae:b3:84:c0:52:fc:53:d1:f1:2e:52:05:6a:8c:df:
        53:eb:27:82:51:5d:36:4b:3c:75:ba:2b:42:52:ff:e9:fd:43:
        3c:0c:84:da:35:a3:5e:ba:28:2a:bb:be:2e:46:25:e3:d7:5c:
        76:bd:3f:2a:12:7d:32:1b:f4:90:19:b9:48:6a:7f:ab:33:cb:
        c5:e4:85:e9:84:9b:ed:a3:cd:33:aa:f0:53:7b:4f:db:39:9d:
        22:69:fc:3c:2e:28:b1:3c:75:e7:3c:a7:05:d5:ab:0a:bc:50:
        5e:78:b6:30:03:79:59:40:cf:a7:33:9f:a1:6d:82:35:5b:0a:
        19:08:90:28:3b:43:66:c9:66:47:99:b9:ca:bc:04:f1:bd:ae:
        96:16:0d:e1:c9:14:1e:2e:8f:0c:ae:d1:17:73:43:3b:15:69:
        ee:f8:c8:82:c1:50:09:a6:b5:33:a3:a1:81:13:c7:b8:e1:23:
        5c:04:1d:3e:94:22:32:c6:5a:54:ca:75:58:03:bf:46:cd:e4:
        7a:69:3f:09
-----BEGIN CERTIFICATE-----
MIIEyTCCA7GgAwIBAgIBZDANBgkqhkiG9w0BAQsFADCBojELMAkGA1UEBhMCVVMx
EzARBgNVBAgMCldhc2hpbmd0b24xEDAOBgNVBAcMB1NlYXR0bGUxFTATBgNVBAoM
DHdvbGZTU0wgSW5jLjEUMBIGA1UECwwLRW5naW5lZXJpbmcxHTAbBgNVBAMMFGNo
YWluQi1JQ0EyLXBhdGhsZW4xMSAwHgYJKoZIhvcNAQkBFhFmYWN0c0B3b2xmc3Ns
LmNvbTAeFw0yNjA2MTEyMTQ0MzhaFw0yOTAzMDcyMTQ0MzhaMIGiMQswCQYDVQQG
EwJVUzETMBEGA1UECAwKV2FzaGluZ3RvbjEQMA4GA1UEBwwHU2VhdHRsZTEVMBMG
A1UECgwMd29sZlNTTCBJbmMuMRQwEgYDVQQLDAtFbmdpbmVlcmluZzEdMBsGA1UE
AwwUY2hhaW5CLUlDQTEtcGF0aGxlbjAxIDAeBgkqhkiG9w0BCQEWEWZhY3RzQHdv
bGZzc2wuY29tMIIBIjANBgkqhkiG9w0BAQEFAAOCAQ8AMIIBCgKCAQEAsveqrpHR
JEFSoSLg05eb4AyUnErks4WuqUOf7HoF3Yhc5RlSUzmGirLihierA5q+xFRnr7ms
ZeJhl3hmYCmQYghikaCWKw8wbNo9cDVSqKfVhUklalZZvGtFkcM3/AYNoqlG4imC
G3emSTX7V18zApLla2fCYeI3nBJctSybKqWFlyJzPTZQVRpqWdnarC0/5mqxHWBS
AwVAX88GaPAyhlpvtQJj5i4enwmCjAMYGeR51TVu2RefPMHZO5X5b/MZ0dO4XXyT
N8N8O6BYx/vlLfVY05ty80N6Kexr9IaByOZgiyvFrVnlpKAFlwkCAKdV3Fvv5IuD
Gu7IHLW25mFr0QIDAQABo4IBBjCCAQIwHQYDVR0OBBYEFNeQ5IZZJPkruAaOsY8z
5Sxj8QMWMIHCBgNVHSMEgbowgbeAFO5ZnVYLfApFROMVV+Ky8x1kb696oYGbpIGY
MIGVMQswCQYDVQQGEwJVUzEQMA4GA1UECAwHTW9udGFuYTEQMA4GA1UEBwwHQm96
ZW1hbjERMA8GA1UECgwIU2F3dG9vdGgxEzARBgNVBAsMCkNvbnN1bHRpbmcxGDAW
BgNVBAMMD3d3dy53b2xmc3NsLmNvbTEgMB4GCSqGSIb3DQEJARYRZmFjdHNAd29s
ZnNzbC5jb22CAWQwDwYDVR0TBAgwBgEB/wIBADALBgNVHQ8EBAMCAQYwDQYJKoZI
hvcNAQELBQADggEBAGa+ODLmikcWPulLHsKMzkmz2I06N4jrhhxYwxDmlY6TLjSm
Bjlf06/1UKSiHpqcVMhMlv6kkHvbIq6zhMBS/FPR8S5SBWqM31PrJ4JRXTZLPHW6
K0JS/+n9QzwMhNo1o166KCq7vi5GJePXXHa9PyoSfTIb9JAZuUhqf6szy8XkhemE
m+2jzTOq8FN7T9s5nSJp/DwuKLE8dec8pwXVqwq8UF54tjADeVlAz6czn6FtgjVb
ChkIkCg7Q2bJZkeZucq8BPG9rpYWDeHJFB4ujwyu0RdzQzsVae74yILBUAmmtTOj
oYETx7jhI1wEHT6UIjLGWlTKdVgDv0bN5HppPwk=
-----END CERTIFICATE-----
Certificate:
    Data:
        Version: 3 (0x2)
        Serial Number: 100 (0x64)
        Signature Algorithm: sha256WithRSAEncryption
        Issuer: C=US, ST=Montana, L=Bozeman, O=Sawtooth, OU=Consulting, CN=www.wolfssl.com, emailAddress=facts@wolfssl.com
        Validity
            Not Before: Jun 11 21:44:38 2026 GMT
            Not After : Mar  7 21:44:38 2029 GMT
        Subject: C=US, ST=Washington, L=Seattle, O=wolfSSL Inc., OU=Engineering, CN=chainB-ICA2-pathlen1, emailAddress=facts@wolfssl.com
        Subject Public Key Info:
            Public Key Algorithm: rsaEncryption
                Public-Key: (2048 bit)
                Modulus:
                    00:d0:7f:82:05:9d:5b:c4:49:e0:3e:1f:87:6e:17:
                    05:eb:e2:0a:d1:d1:a5:f5:cc:be:1d:46:d8:cd:a8:
                    6e:22:ce:3d:5c:39:71:a4:0d:03:fa:78:7e:bb:6c:
                    e8:51:e5:98:ef:a6:5e:62:d2:30:fa:3b:8f:21:5f:
                    b7:5f:98:b7:9f:a8:56:7a:39:ca:c2:df:a1:56:fe:
                    95:97:56:5e:5b:fe:74:d9:f2:2e:ca:7e:db:50:77:
                    5a:d1:90:dc:22:d6:fe:4b:c0:57:a1:c6:3b:4a:ba:
                    ad:05:14:c9:24:68:76:b5:e2:26:d5:cb:50:fd:d0:
                    77:0e:8c:0c:b9:5e:f7:a4:9a:45:35:6c:62:ca:e9:
                    38:d4:10:9a:5c:30:a5:4f:26:47:03:03:73:56:85:
                    8c:be:f5:d0:c0:09:06:3e:0e:e8:e5:7d:d0:19:54:
                    ed:57:ec:51:cf:bc:95:15:91:cf:d0:9a:84:dd:8a:
                    50:7c:33:c2:1a:61:70:31:9a:19:17:28:b3:8c:da:
                    5f:b8:d2:06:6b:82:3f:b6:6a:28:29:86:b4:20:cb:
                    a5:af:73:66:e4:37:36:81:f0:3f:ad:bf:05:b8:db:
                    2e:c4:22:e2:eb:46:87:f4:60:d1:a6:7f:ee:9c:41:
                    a7:f3:aa:e9:37:dd:da:d6:f0:cd:48:ac:51:d1:77:
                    8d:a1
                Exponent: 65537 (0x10001)
        X509v3 extensions:
            X509v3 Subject Key Identifier: 
                EE:59:9D:56:0B:7C:0A:45:44:E3:15:57:E2:B2:F3:1D:64:6F:AF:7A
            X509v3 Authority Key Identifier: 
                keyid:27:8E:67:11:74:C3:26:1D:3F:ED:33:63:B3:A4:D8:1D:30:E5:E8:D5
                DirName:/C=US/ST=Montana/L=Bozeman/O=Sawtooth/OU=Consulting/CN=www.wolfssl.com/emailAddress=facts@wolfssl.com
                serial:67:19:D2:A8:7F:E3:2D:FA:75:7A:4F:E7:B2:02:D9:AD:C4:77:5E:F8
            X509v3 Basic Constraints: 
                CA:TRUE, pathlen:1
            X509v3 Key Usage: 
                Certificate Sign, CRL Sign
    Signature Algorithm: sha256WithRSAEncryption
    Signature Value:
        17:e9:fc:65:e2:a9:ea:dc:2b:01:9a:d8:56:c0:e0:01:ee:36:
        2e:85:f9:ae:3d:96:a0:31:3a:e9:95:fa:31:ae:04:ea:57:bf:
        63:52:79:5e:6c:65:e5:ac:21:f0:00:2d:f0:76:26:68:0d:f8:
        ae:2c:36:6c:85:8d:32:f2:fd:bc:09:b9:96:19:db:44:df:7a:
        10:d6:ca:13:3d:0a:31:c7:5d:1d:6e:7d:ea:42:7a:32:04:32:
        97:be:59:2e:a0:f2:1e:44:9b:db:c8:37:9c:f4:3f:b8:81:a5:
        36:77:bf:db:ca:30:85:5b:c6:d2:a4:e8:16:80:66:99:75:8d:
        95:ad:45:b2:97:17:76:c4:93:c3:3c:de:cd:be:43:9a:9f:68:
        66:02:30:28:6f:38:6e:07:78:f2:26:84:5f:b7:9b:2f:f5:61:
        2b:1c:d0:c4:c2:c0:d5:9c:52:1a:b8:c1:ac:94:a6:cf:96:0e:
        2b:75:bb:6f:b9:d2:f0:9a:10:b8:e3:2e:aa:bc:75:d8:ed:42:
        7b:1f:f9:6b:47:21:60:3c:73:be:0f:19:2f:84:56:be:bf:a5:
        c2:5c:8b:64:f7:4d:09:70:4d:90:86:c3:02:9b:1f:35:be:0f:
        9f:63:8b:94:25:76:18:68:33:f1:66:67:f6:80:8f:b6:a7:40:
        26:8e:0a:e9
-----BEGIN CERTIFICATE-----
MIIEzzCCA7egAwIBAgIBZDANBgkqhkiG9w0BAQsFADCBlTELMAkGA1UEBhMCVVMx
EDAOBgNVBAgMB01vbnRhbmExEDAOBgNVBAcMB0JvemVtYW4xETAPBgNVBAoMCFNh
d3Rvb3RoMRMwEQYDVQQLDApDb25zdWx0aW5nMRgwFgYDVQQDDA93d3cud29sZnNz
bC5jb20xIDAeBgkqhkiG9w0BCQEWEWZhY3RzQHdvbGZzc2wuY29tMB4XDTI2MDYx
MTIxNDQzOFoXDTI5MDMwNzIxNDQzOFowgaIxCzAJBgNVBAYTAlVTMRMwEQYDVQQI
DApXYXNoaW5ndG9uMRAwDgYDVQQHDAdTZWF0dGxlMRUwEwYDVQQKDAx3b2xmU1NM
IEluYy4xFDASBgNVBAsMC0VuZ2luZWVyaW5nMR0wGwYDVQQDDBRjaGFpbkItSUNB
Mi1wYXRobGVuMTEgMB4GCSqGSIb3DQEJARYRZmFjdHNAd29sZnNzbC5jb20wggEi
MA0GCSqGSIb3DQEBAQUAA4IBDwAwggEKAoIBAQDQf4IFnVvESeA+H4duFwXr4grR
0aX1zL4dRtjNqG4izj1cOXGkDQP6eH67bOhR5Zjvpl5i0jD6O48hX7dfmLefqFZ6
OcrC36FW/pWXVl5b/nTZ8i7KfttQd1rRkNwi1v5LwFehxjtKuq0FFMkkaHa14ibV
y1D90HcOjAy5XvekmkU1bGLK6TjUEJpcMKVPJkcDA3NWhYy+9dDACQY+DujlfdAZ
VO1X7FHPvJUVkc/QmoTdilB8M8IaYXAxmhkXKLOM2l+40gZrgj+2aigphrQgy6Wv
c2bkNzaB8D+tvwW42y7EIuLrRof0YNGmf+6cQafzquk33drW8M1IrFHRd42hAgMB
AAGjggEZMIIBFTAdBgNVHQ4EFgQU7lmdVgt8CkVE4xVX4rLzHWRvr3owgdUGA1Ud
IwSBzTCByoAUJ45nEXTDJh0/7TNjs6TYHTDl6NWhgZukgZgwgZUxCzAJBgNVBAYT
AlVTMRAwDgYDVQQIDAdNb250YW5hMRAwDgYDVQQHDAdCb3plbWFuMREwDwYDVQQK
DAhTYXd0b290aDETMBEGA1UECwwKQ29uc3VsdGluZzEYMBYGA1UEAwwPd3d3Lndv
bGZzc2wuY29tMSAwHgYJKoZIhvcNAQkBFhFmYWN0c0B3b2xmc3NsLmNvbYIUZxnS
qH/jLfp1ek/nsgLZrcR3XvgwDwYDVR0TBAgwBgEB/wIBATALBgNVHQ8EBAMCAQYw
DQYJKoZIhvcNAQELBQADggEBABfp/GXiqercKwGa2FbA4AHuNi6F+a49lqAxOumV
+jGuBOpXv2NSeV5sZeWsIfAALfB2JmgN+K4sNmyFjTLy/bwJuZYZ20TfehDWyhM9
CjHHXR1ufepCejIEMpe+WS6g8h5Em9vIN5z0P7iBpTZ3v9vKMIVbxtKk6BaAZpl1
jZWtRbKXF3bEk8M83s2+Q5qfaGYCMChvOG4HePImhF+3my/1YSsc0MTCwNWcUhq4
wayUps+WDit1u2+50vCaELjjLqq8ddjtQnsf+WtHIWA8c74PGS+EVr6/pcJci2T3
TQlwTZCGwwKbHzW+D59ji5QldhhoM/FmZ/aAj7anQCaOCuk=
-----END CERTIFICATE-----
