Certificate:
    Data:
        Version: 3 (0x2)
        Serial Number: 100 (0x64)
        Signature Algorithm: sha256WithRSAEncryption
        Issuer: C=US, ST=Washington, L=Seattle, O=wolfSSL Inc., OU=Engineering, CN=chainH-ICA2-pathlen2, emailAddress=facts@wolfssl.com
        Validity
            Not Before: Jun 11 21:44:40 2026 GMT
            Not After : Mar  7 21:44:40 2029 GMT
        Subject: C=US, ST=Washington, L=Seattle, O=wolfSSL Inc., OU=Engineering, CN=chainH-ICA1-pathlen0, emailAddress=facts@wolfssl.com
        Subject Public Key Info:
            Public Key Algorithm: rsaEncryption
                Public-Key: (2048 bit)
                Modulus:
                    00:c7:f4:a6:7e:f2:cb:4f:6e:04:18:d3:53:d5:cf:
                    bf:7e:97:d1:74:94:fe:db:ad:61:3f:12:20:67:f3:
                    10:83:7b:51:43:a3:0c:20:b7:35:63:f1:0a:ee:59:
                    74:82:72:fb:d1:d4:12:71:ec:0e:8f:69:c9:fb:af:
                    a7:2f:c4:3b:2c:66:34:ab:ac:80:c2:6d:4a:0e:54:
                    fe:f6:3e:3a:00:25:84:a7:cb:42:d5:e8:47:04:94:
                    e4:68:c3:f5:32:ad:21:89:d8:5e:f9:88:ee:7d:ce:
                    91:a3:16:fc:87:76:1f:2f:1d:4c:b1:2f:3d:4d:f4:
                    0a:6c:04:fd:49:cf:51:88:49:c4:03:65:63:1e:c8:
                    f1:34:1d:44:34:58:af:f5:ec:90:2a:8c:a9:38:7b:
                    dc:fa:5f:ed:00:ed:08:53:4d:f7:36:10:ed:71:41:
                    aa:e3:bf:e8:5d:ee:4e:36:39:57:7e:f4:fd:c3:f7:
                    8a:52:0f:f1:37:72:2b:ae:90:77:00:d6:7c:ec:ec:
                    ee:8d:f8:4b:fb:39:0a:45:49:81:31:41:3f:a9:bb:
                    7b:1c:8a:cf:31:09:c7:94:a7:70:4a:d4:bb:ea:61:
                    3d:9a:a1:8e:1b:8b:02:3b:1f:1f:c4:85:e9:7f:63:
                    0c:ea:e5:91:83:a8:5b:25:34:7c:a8:68:eb:97:6f:
                    74:99
                Exponent: 65537 (0x10001)
        X509v3 extensions:
            X509v3 Subject Key Identifier: 
                48:80:87:28:EF:E6:28:0F:03:9B:DF:33:48:10:A0:E5:20:B3:69:50
            X509v3 Authority Key Identifier: 
                keyid:80:49:61:8C:1D:13:08:56:B5:42:68:D5:B2:EA:89:2C:B4:8B:05:87
                DirName:/C=US/ST=Washington/L=Seattle/O=wolfSSL Inc./OU=Engineering/CN=chainH-ICA3-pathlen2/emailAddress=facts@wolfssl.com
                serial:64
            X509v3 Basic Constraints: 
                CA:TRUE, pathlen:0
            X509v3 Key Usage: 
                Certificate Sign, CRL Sign
    Signature Algorithm: sha256WithRSAEncryption
    Signature Value:
        1d:05:e1:a8:bc:03:58:f8:23:68:01:8a:c6:fb:9c:0f:c7:49:
        00:29:78:cc:bc:bd:3f:11:1b:42:29:26:00:4a:35:78:dd:45:
        50:44:85:d5:ed:bf:df:05:dd:06:7a:ec:24:fc:7f:2b:09:e2:
        5e:a1:0a:da:e8:a0:d3:dc:e4:25:a4:1c:da:3a:22:1e:b9:81:
        89:44:e3:0d:1b:4a:a5:91:cc:ad:30:33:6a:15:7f:52:9b:ef:
        bd:f3:f1:86:23:7b:2e:91:1c:6d:f7:83:4f:dc:3a:a5:c2:b3:
        2c:bf:3c:0b:e3:34:42:ea:88:3d:ae:33:91:a6:dd:26:14:df:
        69:11:4e:9d:f7:56:1c:6a:75:cd:f7:c6:62:62:6a:1f:76:92:
        c3:ed:35:f5:a3:fb:14:dd:6c:7c:bd:45:50:e9:c2:8a:e3:1c:
        5f:c0:ee:a9:b2:b4:ee:1e:65:f7:26:ca:78:c2:82:1d:83:72:
        40:d6:80:ba:ad:90:94:8e:8d:3b:21:28:36:44:9a:66:da:f9:
        c0:75:b5:78:c7:44:a0:f3:f1:24:c8:e9:06:2f:eb:05:55:4d:
        36:52:42:57:a8:2b:28:a0:8b:e7:7d:93:ef:cd:d6:ad:c2:5d:
        f9:0e:f7:2a:8c:47:fb:53:f8:ce:8f:97:a4:2f:de:99:6c:ff:
        a4:db:04:6c
-----BEGIN CERTIFICATE-----
MIIE1jCCA76gAwIBAgIBZDANBgkqhkiG9w0BAQsFADCBojELMAkGA1UEBhMCVVMx
EzARBgNVBAgMCldhc2hpbmd0b24xEDAOBgNVBAcMB1NlYXR0bGUxFTATBgNVBAoM
DHdvbGZTU0wgSW5jLjEUMBIGA1UECwwLRW5naW5lZXJpbmcxHTAbBgNVBAMMFGNo
YWluSC1JQ0EyLXBhdGhsZW4yMSAwHgYJKoZIhvcNAQkBFhFmYWN0c0B3b2xmc3Ns
LmNvbTAeFw0yNjA2MTEyMTQ0NDBaFw0yOTAzMDcyMTQ0NDBaMIGiMQswCQYDVQQG
EwJVUzETMBEGA1UECAwKV2FzaGluZ3RvbjEQMA4GA1UEBwwHU2VhdHRsZTEVMBMG
A1UECgwMd29sZlNTTCBJbmMuMRQwEgYDVQQLDAtFbmdpbmVlcmluZzEdMBsGA1UE
AwwUY2hhaW5ILUlDQTEtcGF0aGxlbjAxIDAeBgkqhkiG9w0BCQEWEWZhY3RzQHdv
bGZzc2wuY29tMIIBIjANBgkqhkiG9w0BAQEFAAOCAQ8AMIIBCgKCAQEAx/SmfvLL
T24EGNNT1c+/fpfRdJT+261hPxIgZ/MQg3tRQ6MMILc1Y/EK7ll0gnL70dQScewO
j2nJ+6+nL8Q7LGY0q6yAwm1KDlT+9j46ACWEp8tC1ehHBJTkaMP1Mq0hidhe+Yju
fc6Roxb8h3YfLx1MsS89TfQKbAT9Sc9RiEnEA2VjHsjxNB1ENFiv9eyQKoypOHvc
+l/tAO0IU033NhDtcUGq47/oXe5ONjlXfvT9w/eKUg/xN3IrrpB3ANZ87OzujfhL
+zkKRUmBMUE/qbt7HIrPMQnHlKdwStS76mE9mqGOG4sCOx8fxIXpf2MM6uWRg6hb
JTR8qGjrl290mQIDAQABo4IBEzCCAQ8wHQYDVR0OBBYEFEiAhyjv5igPA5vfM0gQ
oOUgs2lQMIHPBgNVHSMEgccwgcSAFIBJYYwdEwhWtUJo1bLqiSy0iwWHoYGopIGl
MIGiMQswCQYDVQQGEwJVUzETMBEGA1UECAwKV2FzaGluZ3RvbjEQMA4GA1UEBwwH
U2VhdHRsZTEVMBMGA1UECgwMd29sZlNTTCBJbmMuMRQwEgYDVQQLDAtFbmdpbmVl
cmluZzEdMBsGA1UEAwwUY2hhaW5ILUlDQTMtcGF0aGxlbjIxIDAeBgkqhkiG9w0B
CQEWEWZhY3RzQHdvbGZzc2wuY29tggFkMA8GA1UdEwQIMAYBAf8CAQAwCwYDVR0P
BAQDAgEGMA0GCSqGSIb3DQEBCwUAA4IBAQAdBeGovANY+CNoAYrG+5wPx0kAKXjM
vL0/ERtCKSYASjV43UVQRIXV7b/fBd0Geuwk/H8rCeJeoQra6KDT3OQlpBzaOiIe
uYGJROMNG0qlkcytMDNqFX9Sm++98/GGI3sukRxt94NP3DqlwrMsvzwL4zRC6og9
rjORpt0mFN9pEU6d91YcanXN98ZiYmofdpLD7TX1o/sU3Wx8vUVQ6cKK4xxfwO6p
srTuHmX3Jsp4woIdg3JA1oC6rZCUjo07ISg2RJpm2vnAdbV4x0Sg8/EkyOkGL+sF
VU02UkJXqCsooIvnfZPvzdatwl35DvcqjEf7U/jOj5ekL96ZbP+k2wRs
-----END CERTIFICATE-----
