Certificate:
    Data:
        Version: 3 (0x2)
        Serial Number: 101 (0x65)
        Signature Algorithm: sha256WithRSAEncryption
        Issuer: C = US, ST = Washington, L = Seattle, O = wolfSSL Inc., OU = Engineering, CN = chainI-ICA1-no_pathlen, emailAddress = info@wolfssl.com
        Validity
            Not Before: Jun 19 13:23:42 2020 GMT
            Not After : Mar 16 13:23:42 2023 GMT
        Subject: C = US, ST = Washington, L = Seattle, O = wolfSSL Inc., OU = Engineering, CN = chainI-entity, emailAddress = info@wolfssl.com
        Subject Public Key Info:
            Public Key Algorithm: rsaEncryption
                RSA Public-Key: (2048 bit)
                Modulus:
                    00:f3:ac:32:8f:52:af:a9:cf:9e:23:a4:96:8e:e9:
                    e8:0a:3a:b7:6a:7b:ba:70:85:68:e2:52:f3:38:39:
                    cf:c8:f1:8a:f6:55:1e:59:fa:97:fe:e7:9b:07:2a:
                    b6:80:2a:92:d9:39:95:9e:0c:1f:d7:ad:1f:74:4d:
                    8e:61:6f:64:24:4c:d4:95:03:8f:d3:f2:3d:6e:d8:
                    d8:d5:aa:64:7d:82:ee:74:07:16:68:fa:95:17:9b:
                    35:8f:c3:6c:47:88:3e:40:de:93:36:ed:62:f4:cc:
                    67:45:ee:ea:45:9f:fc:f1:63:6d:b7:fa:f8:c3:e0:
                    6f:c7:4a:3e:04:49:04:37:8b:3a:99:e8:64:0a:86:
                    43:ab:5b:34:1e:6c:33:a2:a4:26:7c:c7:6c:48:99:
                    7d:85:f5:1f:c1:9c:a9:c7:8f:51:6b:8a:86:8d:1c:
                    b0:d2:82:ba:a4:a7:09:29:8b:0a:20:d1:7c:b1:67:
                    0c:61:cd:88:33:5e:38:ab:08:78:0b:80:0b:ce:63:
                    03:b9:40:7b:67:3e:a8:ac:4e:44:92:09:4c:3f:e0:
                    3d:55:cb:aa:5a:bc:17:9c:4e:9e:40:5c:82:fc:3b:
                    3a:54:40:90:f9:22:3c:f4:00:5f:95:13:72:49:29:
                    ae:5f:31:22:30:04:05:6a:7b:b5:0a:0a:a6:5e:72:
                    4d:5f
                Exponent: 65537 (0x10001)
        X509v3 extensions:
            X509v3 Subject Key Identifier: 
                EB:B5:A2:7B:24:95:03:11:6B:56:CB:13:3E:A8:B2:8F:B1:CF:5D:C4
            X509v3 Authority Key Identifier: 
                keyid:9E:54:B6:95:EA:89:07:A6:C9:E4:82:E8:D0:34:64:5D:08:CD:56:A0
                DirName:/C=US/ST=Washington/L=Seattle/O=wolfSSL Inc./OU=Engineering/CN=chainI-ICA2-no_pathlen/emailAddress=info@wolfssl.com
                serial:64

            X509v3 Basic Constraints: 
                CA:FALSE
    Signature Algorithm: sha256WithRSAEncryption
         31:42:86:ed:6c:a0:4c:dd:d2:14:55:34:b6:d8:8c:8e:dd:19:
         c5:a1:2b:48:28:df:3e:4d:5f:e8:85:66:75:65:2f:84:29:c5:
         03:db:cb:75:93:fb:28:19:38:02:46:27:8c:54:28:56:02:7a:
         d4:6c:06:f0:e3:d3:04:38:a1:84:11:c7:6f:49:cd:a8:6b:7b:
         db:17:7d:db:ee:e2:4e:1f:57:aa:ef:2b:a1:fd:b0:63:67:0e:
         cf:5b:94:07:06:bc:cf:c9:4a:ec:74:99:d1:0e:f5:6a:14:c6:
         0f:75:0f:0d:c6:06:18:a2:a6:5a:bb:59:7d:d1:d5:ef:03:78:
         fb:3e:70:6c:ac:8f:ad:ed:6f:39:61:c7:71:a7:7f:ff:19:bb:
         91:89:b6:f3:b7:90:d2:26:7b:78:47:3e:01:ee:e3:47:a8:01:
         40:cd:d8:94:81:8a:17:90:ac:8a:4c:53:4f:fd:77:d8:c1:0c:
         2b:d0:7f:3a:ed:d7:ab:df:e8:83:0d:02:9c:c9:0b:57:3e:bc:
         07:ef:d9:d4:8a:4c:fb:b9:da:be:6d:ba:3f:18:0d:c8:d4:58:
         9a:f3:a9:de:33:78:3a:b5:b6:bc:55:c9:18:8c:9b:b8:3f:b7:
         27:72:de:d5:3e:be:2e:58:39:c9:79:f1:d4:ee:a1:f1:bd:6e:
         9d:48:af:3e
-----BEGIN CERTIFICATE-----
MIIEvDCCA6SgAwIBAgIBZTANBgkqhkiG9w0BAQsFADCBozELMAkGA1UEBhMCVVMx
EzARBgNVBAgMCldhc2hpbmd0b24xEDAOBgNVBAcMB1NlYXR0bGUxFTATBgNVBAoM
DHdvbGZTU0wgSW5jLjEUMBIGA1UECwwLRW5naW5lZXJpbmcxHzAdBgNVBAMMFmNo
YWluSS1JQ0ExLW5vX3BhdGhsZW4xHzAdBgkqhkiG9w0BCQEWEGluZm9Ad29sZnNz
bC5jb20wHhcNMjAwNjE5MTMyMzQyWhcNMjMwMzE2MTMyMzQyWjCBmjELMAkGA1UE
BhMCVVMxEzARBgNVBAgMCldhc2hpbmd0b24xEDAOBgNVBAcMB1NlYXR0bGUxFTAT
BgNVBAoMDHdvbGZTU0wgSW5jLjEUMBIGA1UECwwLRW5naW5lZXJpbmcxFjAUBgNV
BAMMDWNoYWluSS1lbnRpdHkxHzAdBgkqhkiG9w0BCQEWEGluZm9Ad29sZnNzbC5j
b20wggEiMA0GCSqGSIb3DQEBAQUAA4IBDwAwggEKAoIBAQDzrDKPUq+pz54jpJaO
6egKOrdqe7pwhWjiUvM4Oc/I8Yr2VR5Z+pf+55sHKraAKpLZOZWeDB/XrR90TY5h
b2QkTNSVA4/T8j1u2NjVqmR9gu50BxZo+pUXmzWPw2xHiD5A3pM27WL0zGdF7upF
n/zxY223+vjD4G/HSj4ESQQ3izqZ6GQKhkOrWzQebDOipCZ8x2xImX2F9R/BnKnH
j1FrioaNHLDSgrqkpwkpiwog0XyxZwxhzYgzXjirCHgLgAvOYwO5QHtnPqisTkSS
CUw/4D1Vy6pavBecTp5AXIL8OzpUQJD5Ijz0AF+VE3JJKa5fMSIwBAVqe7UKCqZe
ck1fAgMBAAGjggEAMIH9MB0GA1UdDgQWBBTrtaJ7JJUDEWtWyxM+qLKPsc9dxDCB
0AYDVR0jBIHIMIHFgBSeVLaV6okHpsnkgujQNGRdCM1WoKGBqaSBpjCBozELMAkG
A1UEBhMCVVMxEzARBgNVBAgMCldhc2hpbmd0b24xEDAOBgNVBAcMB1NlYXR0bGUx
FTATBgNVBAoMDHdvbGZTU0wgSW5jLjEUMBIGA1UECwwLRW5naW5lZXJpbmcxHzAd
BgNVBAMMFmNoYWluSS1JQ0EyLW5vX3BhdGhsZW4xHzAdBgkqhkiG9w0BCQEWEGlu
Zm9Ad29sZnNzbC5jb22CAWQwCQYDVR0TBAIwADANBgkqhkiG9w0BAQsFAAOCAQEA
MUKG7WygTN3SFFU0ttiMjt0ZxaErSCjfPk1f6IVmdWUvhCnFA9vLdZP7KBk4AkYn
jFQoVgJ61GwG8OPTBDihhBHHb0nNqGt72xd92+7iTh9Xqu8rof2wY2cOz1uUBwa8
z8lK7HSZ0Q71ahTGD3UPDcYGGKKmWrtZfdHV7wN4+z5wbKyPre1vOWHHcad//xm7
kYm287eQ0iZ7eEc+Ae7jR6gBQM3YlIGKF5CsikxTT/132MEMK9B/Ou3Xq9/ogw0C
nMkLVz68B+/Z1IpM+7navm26PxgNyNRYmvOp3jN4OrW2vFXJGIybuD+3J3Le1T6+
Llg5yXnx1O6h8b1unUivPg==
-----END CERTIFICATE-----
Certificate:
    Data:
        Version: 3 (0x2)
        Serial Number: 100 (0x64)
        Signature Algorithm: sha256WithRSAEncryption
        Issuer: C = US, ST = Washington, L = Seattle, O = wolfSSL Inc., OU = Engineering, CN = chainI-ICA2-no_pathlen, emailAddress = info@wolfssl.com
        Validity
            Not Before: Jun 19 13:23:42 2020 GMT
            Not After : Mar 16 13:23:42 2023 GMT
        Subject: C = US, ST = Washington, L = Seattle, O = wolfSSL Inc., OU = Engineering, CN = chainI-ICA1-no_pathlen, emailAddress = info@wolfssl.com
        Subject Public Key Info:
            Public Key Algorithm: rsaEncryption
                RSA Public-Key: (2048 bit)
                Modulus:
                    00:bb:ba:06:ad:13:cf:da:fb:d1:cb:65:fe:26:58:
                    49:6a:01:14:a6:78:b2:2c:1d:ba:ba:d0:bd:27:38:
                    66:7c:a0:1b:28:08:3c:6a:fd:f8:87:be:49:a2:ed:
                    38:f2:4c:b0:8b:93:ff:d2:c5:3f:cd:03:c5:14:79:
                    e8:76:63:7a:aa:a7:54:1e:0e:27:bd:1b:be:e8:3f:
                    2b:55:40:f0:59:23:d8:3f:e8:05:1a:0b:71:f0:fd:
                    24:d9:f9:0b:99:25:da:af:96:34:ee:e1:91:cb:fc:
                    8f:a0:41:8f:9c:e1:4f:57:5f:b6:d6:55:69:6f:c3:
                    64:c3:11:a9:69:40:85:df:f3:9a:59:b5:ee:90:c0:
                    22:ee:72:28:2e:d3:da:65:27:3b:ba:42:c0:9e:73:
                    ba:a2:f2:45:13:7a:c5:1d:30:a5:b7:db:75:5d:6f:
                    cc:08:77:80:67:8d:18:2a:ca:02:8d:8e:d3:9c:2a:
                    fa:b7:8f:1b:7d:ef:62:77:a4:fa:b6:d8:5a:3e:66:
                    9c:3e:13:45:a8:cf:61:fb:ff:41:45:14:21:e2:63:
                    ac:81:4d:65:89:e3:d5:71:20:01:19:76:ec:a4:16:
                    a6:ef:3c:bc:f2:a2:56:2b:07:31:67:0d:e5:97:88:
                    e8:db:cb:4d:98:cb:99:e6:e0:bd:62:48:2b:b1:04:
                    12:07
                Exponent: 65537 (0x10001)
        X509v3 extensions:
            X509v3 Subject Key Identifier: 
                9E:54:B6:95:EA:89:07:A6:C9:E4:82:E8:D0:34:64:5D:08:CD:56:A0
            X509v3 Authority Key Identifier: 
                keyid:D1:BA:FB:FF:1D:29:41:8A:6A:5F:B2:F3:A7:41:05:47:09:1F:48:42
                DirName:/C=US/ST=Washington/L=Seattle/O=wolfSSL Inc./OU=Engineering/CN=chainI-ICA3-pathlen2/emailAddress=info@wolfssl.com
                serial:64

            X509v3 Basic Constraints: 
                CA:TRUE
            X509v3 Key Usage: 
                Certificate Sign, CRL Sign
    Signature Algorithm: sha256WithRSAEncryption
         63:3c:6d:2f:7f:4e:a3:13:29:5a:1f:20:b6:00:f1:e2:0b:1b:
         c1:9d:d3:ab:d7:e1:53:ac:4c:39:c3:fa:d5:a1:e1:92:c2:d7:
         53:d2:cb:d9:f5:65:7f:3f:df:85:3e:72:b4:8f:85:88:ea:60:
         d6:60:ff:67:a1:09:76:c7:b4:56:67:1b:0a:18:1c:35:46:96:
         2f:1d:88:51:a9:21:f2:6b:0c:a9:2f:96:0d:fd:df:f4:93:02:
         ff:12:94:37:a3:30:d9:a0:61:f9:08:65:b9:81:e2:f5:c8:19:
         1c:0d:2a:08:f9:3a:b2:5c:62:82:d4:47:e3:d3:d4:2f:b1:44:
         ba:cf:20:c1:b6:ef:21:b5:8e:54:28:61:c2:d3:39:3c:3f:b3:
         c9:3c:18:08:7e:64:90:08:08:36:c9:31:0e:38:c3:03:3b:cb:
         4d:86:c7:08:c6:f4:5f:51:58:29:ac:d8:1c:66:25:e1:4e:03:
         c2:94:b4:60:e8:11:e0:01:07:5c:21:48:b4:b0:ef:a1:bf:5e:
         52:90:7f:ac:6a:25:e4:7e:4c:84:60:f2:94:9a:b9:fe:ec:21:
         4f:94:0b:2c:d4:16:98:0d:4e:b2:43:f0:a3:d0:65:6e:99:54:
         5a:3e:22:0f:11:cd:53:a8:40:27:5f:3d:92:4f:73:40:77:52:
         c4:42:6e:bc
-----BEGIN CERTIFICATE-----
MIIE1DCCA7ygAwIBAgIBZDANBgkqhkiG9w0BAQsFADCBozELMAkGA1UEBhMCVVMx
EzARBgNVBAgMCldhc2hpbmd0b24xEDAOBgNVBAcMB1NlYXR0bGUxFTATBgNVBAoM
DHdvbGZTU0wgSW5jLjEUMBIGA1UECwwLRW5naW5lZXJpbmcxHzAdBgNVBAMMFmNo
YWluSS1JQ0EyLW5vX3BhdGhsZW4xHzAdBgkqhkiG9w0BCQEWEGluZm9Ad29sZnNz
bC5jb20wHhcNMjAwNjE5MTMyMzQyWhcNMjMwMzE2MTMyMzQyWjCBozELMAkGA1UE
BhMCVVMxEzARBgNVBAgMCldhc2hpbmd0b24xEDAOBgNVBAcMB1NlYXR0bGUxFTAT
BgNVBAoMDHdvbGZTU0wgSW5jLjEUMBIGA1UECwwLRW5naW5lZXJpbmcxHzAdBgNV
BAMMFmNoYWluSS1JQ0ExLW5vX3BhdGhsZW4xHzAdBgkqhkiG9w0BCQEWEGluZm9A
d29sZnNzbC5jb20wggEiMA0GCSqGSIb3DQEBAQUAA4IBDwAwggEKAoIBAQC7ugat
E8/a+9HLZf4mWElqARSmeLIsHbq60L0nOGZ8oBsoCDxq/fiHvkmi7TjyTLCLk//S
xT/NA8UUeeh2Y3qqp1QeDie9G77oPytVQPBZI9g/6AUaC3Hw/STZ+QuZJdqvljTu
4ZHL/I+gQY+c4U9XX7bWVWlvw2TDEalpQIXf85pZte6QwCLucigu09plJzu6QsCe
c7qi8kUTesUdMKW323Vdb8wId4BnjRgqygKNjtOcKvq3jxt972J3pPq22Fo+Zpw+
E0Woz2H7/0FFFCHiY6yBTWWJ49VxIAEZduykFqbvPLzyolYrBzFnDeWXiOjby02Y
y5nm4L1iSCuxBBIHAgMBAAGjggEPMIIBCzAdBgNVHQ4EFgQUnlS2leqJB6bJ5ILo
0DRkXQjNVqAwgc4GA1UdIwSBxjCBw4AU0br7/x0pQYpqX7Lzp0EFRwkfSEKhgaek
gaQwgaExCzAJBgNVBAYTAlVTMRMwEQYDVQQIDApXYXNoaW5ndG9uMRAwDgYDVQQH
DAdTZWF0dGxlMRUwEwYDVQQKDAx3b2xmU1NMIEluYy4xFDASBgNVBAsMC0VuZ2lu
ZWVyaW5nMR0wGwYDVQQDDBRjaGFpbkktSUNBMy1wYXRobGVuMjEfMB0GCSqGSIb3
DQEJARYQaW5mb0B3b2xmc3NsLmNvbYIBZDAMBgNVHRMEBTADAQH/MAsGA1UdDwQE
AwIBBjANBgkqhkiG9w0BAQsFAAOCAQEAYzxtL39OoxMpWh8gtgDx4gsbwZ3Tq9fh
U6xMOcP61aHhksLXU9LL2fVlfz/fhT5ytI+FiOpg1mD/Z6EJdse0VmcbChgcNUaW
Lx2IUakh8msMqS+WDf3f9JMC/xKUN6Mw2aBh+QhluYHi9cgZHA0qCPk6slxigtRH
49PUL7FEus8gwbbvIbWOVChhwtM5PD+zyTwYCH5kkAgINskxDjjDAzvLTYbHCMb0
X1FYKazYHGYl4U4DwpS0YOgR4AEHXCFItLDvob9eUpB/rGol5H5MhGDylJq5/uwh
T5QLLNQWmA1OskPwo9BlbplUWj4iDxHNU6hAJ189kk9zQHdSxEJuvA==
-----END CERTIFICATE-----
Certificate:
    Data:
        Version: 3 (0x2)
        Serial Number: 100 (0x64)
        Signature Algorithm: sha256WithRSAEncryption
        Issuer: C = US, ST = Washington, L = Seattle, O = wolfSSL Inc., OU = Engineering, CN = chainI-ICA3-pathlen2, emailAddress = info@wolfssl.com
        Validity
            Not Before: Jun 19 13:23:42 2020 GMT
            Not After : Mar 16 13:23:42 2023 GMT
        Subject: C = US, ST = Washington, L = Seattle, O = wolfSSL Inc., OU = Engineering, CN = chainI-ICA2-no_pathlen, emailAddress = info@wolfssl.com
        Subject Public Key Info:
            Public Key Algorithm: rsaEncryption
                RSA Public-Key: (2048 bit)
                Modulus:
                    00:de:1e:08:66:12:fe:20:07:10:1b:a1:27:0d:f9:
                    22:30:81:9b:ce:62:b1:a6:6d:49:d4:ed:b8:2d:4b:
                    97:77:1e:94:51:3d:73:2b:16:e9:05:e9:4c:1b:82:
                    ad:47:9d:33:30:53:b5:9b:d2:2d:e9:7b:d6:63:f3:
                    61:20:1b:23:6e:47:09:8b:c0:d5:09:85:a6:e2:e4:
                    3a:4d:b3:f9:dd:c6:7c:9a:42:07:22:d5:7b:67:18:
                    38:c4:fc:ea:8d:09:80:a0:b0:44:33:fd:c1:aa:8b:
                    9c:98:e3:95:c3:74:71:3b:71:b8:b3:80:bf:30:63:
                    85:09:27:8b:12:b5:86:b0:0b:99:ff:97:42:52:a0:
                    ac:b2:38:38:8d:13:96:d9:d6:fa:8f:c4:89:14:06:
                    9c:1f:0a:a3:3a:a2:f7:1f:83:d8:ae:41:44:9e:21:
                    b2:5b:b7:a2:19:e9:46:58:de:e5:a2:ab:07:7a:9a:
                    9a:60:bc:14:ed:cf:4d:42:fc:5c:28:ea:42:d1:ae:
                    cc:71:7e:52:5d:84:88:de:b6:7d:72:6e:ab:73:4b:
                    0d:ab:92:9f:11:b4:51:da:14:54:9a:0e:ec:ac:42:
                    fc:71:87:5b:54:38:09:2c:f0:5d:86:0c:34:b7:92:
                    33:5c:3e:19:b1:4d:a0:62:9b:b4:68:36:36:38:ec:
                    29:b3
                Exponent: 65537 (0x10001)
        X509v3 extensions:
            X509v3 Subject Key Identifier: 
                D1:BA:FB:FF:1D:29:41:8A:6A:5F:B2:F3:A7:41:05:47:09:1F:48:42
            X509v3 Authority Key Identifier: 
                keyid:EE:37:A6:F2:40:D0:EF:FD:22:C7:A3:B4:6C:57:47:40:B9:99:F9:8D
                DirName:/C=US/ST=Montana/L=Bozeman/O=Sawtooth/OU=Consulting/CN=www.wolfssl.com/emailAddress=info@wolfssl.com
                serial:64

            X509v3 Basic Constraints: 
                CA:TRUE
            X509v3 Key Usage: 
                Certificate Sign, CRL Sign
    Signature Algorithm: sha256WithRSAEncryption
         12:c4:64:57:9e:d7:e2:5e:ce:47:77:01:65:3c:18:54:ef:76:
         d3:f3:87:2e:4e:41:a6:71:9e:59:19:1e:c9:32:db:fb:59:b8:
         6c:cb:88:1f:0d:5d:17:89:96:fc:6b:ea:93:4c:bb:42:90:a1:
         58:6a:e2:34:83:ce:0f:ff:ac:a2:d7:f3:64:fa:0c:f5:45:d4:
         07:4f:51:61:42:2e:09:55:71:fa:da:c4:93:d9:79:89:af:a6:
         31:ff:89:6a:a3:98:3a:2f:f6:c7:de:cb:14:df:60:05:f4:ab:
         de:0a:2c:30:84:43:08:de:86:ac:ad:a1:8a:2c:82:67:93:ef:
         8d:d9:4d:c4:b3:bc:24:ec:2e:e5:6b:dc:fc:f6:68:4d:be:d4:
         77:0e:51:00:df:0c:e4:91:73:fb:fb:88:f7:d3:b9:4d:54:68:
         16:56:ad:b0:a8:69:cc:f0:62:b7:b9:b6:b7:07:8e:20:c8:25:
         de:e8:27:a6:91:67:4a:8a:39:07:75:55:7e:2f:53:b1:10:9b:
         e2:59:45:02:f4:05:62:45:96:1d:5d:3b:4d:e0:0b:cb:3c:44:
         65:00:01:b3:f9:dd:88:72:c8:f2:3f:45:d4:66:36:a4:7e:4e:
         90:68:90:1c:d2:06:0b:74:41:ca:97:bc:43:7c:38:c2:75:80:
         ba:61:e5:34
-----BEGIN CERTIFICATE-----
MIIExDCCA6ygAwIBAgIBZDANBgkqhkiG9w0BAQsFADCBoTELMAkGA1UEBhMCVVMx
EzARBgNVBAgMCldhc2hpbmd0b24xEDAOBgNVBAcMB1NlYXR0bGUxFTATBgNVBAoM
DHdvbGZTU0wgSW5jLjEUMBIGA1UECwwLRW5naW5lZXJpbmcxHTAbBgNVBAMMFGNo
YWluSS1JQ0EzLXBhdGhsZW4yMR8wHQYJKoZIhvcNAQkBFhBpbmZvQHdvbGZzc2wu
Y29tMB4XDTIwMDYxOTEzMjM0MloXDTIzMDMxNjEzMjM0MlowgaMxCzAJBgNVBAYT
AlVTMRMwEQYDVQQIDApXYXNoaW5ndG9uMRAwDgYDVQQHDAdTZWF0dGxlMRUwEwYD
VQQKDAx3b2xmU1NMIEluYy4xFDASBgNVBAsMC0VuZ2luZWVyaW5nMR8wHQYDVQQD
DBZjaGFpbkktSUNBMi1ub19wYXRobGVuMR8wHQYJKoZIhvcNAQkBFhBpbmZvQHdv
bGZzc2wuY29tMIIBIjANBgkqhkiG9w0BAQEFAAOCAQ8AMIIBCgKCAQEA3h4IZhL+
IAcQG6EnDfkiMIGbzmKxpm1J1O24LUuXdx6UUT1zKxbpBelMG4KtR50zMFO1m9It
6XvWY/NhIBsjbkcJi8DVCYWm4uQ6TbP53cZ8mkIHItV7Zxg4xPzqjQmAoLBEM/3B
qoucmOOVw3RxO3G4s4C/MGOFCSeLErWGsAuZ/5dCUqCssjg4jROW2db6j8SJFAac
HwqjOqL3H4PYrkFEniGyW7eiGelGWN7loqsHepqaYLwU7c9NQvxcKOpC0a7McX5S
XYSI3rZ9cm6rc0sNq5KfEbRR2hRUmg7srEL8cYdbVDgJLPBdhgw0t5IzXD4ZsU2g
Ypu0aDY2OOwpswIDAQABo4IBATCB/jAdBgNVHQ4EFgQU0br7/x0pQYpqX7Lzp0EF
RwkfSEIwgcEGA1UdIwSBuTCBtoAU7jem8kDQ7/0ix6O0bFdHQLmZ+Y2hgZqkgZcw
gZQxCzAJBgNVBAYTAlVTMRAwDgYDVQQIDAdNb250YW5hMRAwDgYDVQQHDAdCb3pl
bWFuMREwDwYDVQQKDAhTYXd0b290aDETMBEGA1UECwwKQ29uc3VsdGluZzEYMBYG
A1UEAwwPd3d3LndvbGZzc2wuY29tMR8wHQYJKoZIhvcNAQkBFhBpbmZvQHdvbGZz
c2wuY29tggFkMAwGA1UdEwQFMAMBAf8wCwYDVR0PBAQDAgEGMA0GCSqGSIb3DQEB
CwUAA4IBAQASxGRXntfiXs5HdwFlPBhU73bT84cuTkGmcZ5ZGR7JMtv7Wbhsy4gf
DV0XiZb8a+qTTLtCkKFYauI0g84P/6yi1/Nk+gz1RdQHT1FhQi4JVXH62sST2XmJ
r6Yx/4lqo5g6L/bH3ssU32AF9KveCiwwhEMI3oasraGKLIJnk++N2U3Es7wk7C7l
a9z89mhNvtR3DlEA3wzkkXP7+4j307lNVGgWVq2wqGnM8GK3uba3B44gyCXe6Cem
kWdKijkHdVV+L1OxEJviWUUC9AViRZYdXTtN4AvLPERlAAGz+d2IcsjyP0XUZjak
fk6QaJAc0gYLdEHKl7xDfDjCdYC6YeU0
-----END CERTIFICATE-----
Certificate:
    Data:
        Version: 3 (0x2)
        Serial Number: 100 (0x64)
        Signature Algorithm: sha256WithRSAEncryption
        Issuer: C = US, ST = Montana, L = Bozeman, O = Sawtooth, OU = Consulting, CN = www.wolfssl.com, emailAddress = info@wolfssl.com
        Validity
            Not Before: Jun 19 13:23:42 2020 GMT
            Not After : Mar 16 13:23:42 2023 GMT
        Subject: C = US, ST = Washington, L = Seattle, O = wolfSSL Inc., OU = Engineering, CN = chainI-ICA3-pathlen2, emailAddress = info@wolfssl.com
        Subject Public Key Info:
            Public Key Algorithm: rsaEncryption
                RSA Public-Key: (2048 bit)
                Modulus:
                    00:b8:36:0c:66:a9:06:ce:ac:e0:7c:86:a1:69:9d:
                    be:28:cf:a3:81:f3:b4:dc:5f:c8:92:9d:f2:07:c0:
                    5e:04:d3:e5:74:19:fc:cf:85:7f:f7:91:8c:d5:58:
                    7c:02:4c:88:f1:4d:43:e3:07:bd:2a:4e:df:51:87:
                    29:74:c5:24:67:1d:f1:6f:8b:07:75:39:89:70:2a:
                    9c:00:e0:2e:6c:7c:74:27:18:34:fd:29:98:43:83:
                    d6:e1:51:b3:13:41:1c:bc:29:dc:8b:2f:93:08:95:
                    8b:90:22:4b:e4:98:f5:d6:70:2a:9b:8b:64:e6:49:
                    06:62:a4:23:08:60:68:97:89:a9:b2:c0:94:8e:4f:
                    39:1c:25:3b:0f:e4:c5:1d:7d:89:89:5e:c6:02:69:
                    68:fc:13:55:b5:80:6b:77:f7:59:57:0b:1c:7e:c6:
                    ed:46:c6:70:fb:34:a1:28:1c:82:b1:c2:ab:a6:c1:
                    f0:13:1b:7d:0b:bc:1a:39:23:3c:e7:1d:ee:c8:ee:
                    2f:69:5f:a1:31:3f:1a:2f:98:5d:53:d7:42:93:db:
                    49:ac:d6:7a:12:2e:9d:0d:c9:b0:ef:40:d1:a4:02:
                    5e:52:e8:fb:d4:92:07:98:b1:76:d9:16:0f:e4:8b:
                    de:dc:88:65:e0:fd:52:1d:8b:e2:e3:ed:08:37:d0:
                    11:f7
                Exponent: 65537 (0x10001)
        X509v3 extensions:
            X509v3 Subject Key Identifier: 
                EE:37:A6:F2:40:D0:EF:FD:22:C7:A3:B4:6C:57:47:40:B9:99:F9:8D
            X509v3 Authority Key Identifier: 
                keyid:27:8E:67:11:74:C3:26:1D:3F:ED:33:63:B3:A4:D8:1D:30:E5:E8:D5
                DirName:/C=US/ST=Montana/L=Bozeman/O=Sawtooth/OU=Consulting/CN=www.wolfssl.com/emailAddress=info@wolfssl.com
                serial:5E:BA:A4:F4:B1:F7:48:25:E3:5F:9B:DA:A1:13:ED:D5:2B:03:67:15

            X509v3 Basic Constraints: 
                CA:TRUE, pathlen:2
            X509v3 Key Usage: 
                Certificate Sign, CRL Sign
    Signature Algorithm: sha256WithRSAEncryption
         32:d0:d2:0e:bc:d5:c0:09:64:f8:b2:f8:1a:ea:2d:1e:f0:f6:
         0c:04:92:95:59:9b:13:53:c7:7e:e4:9a:9c:ac:b9:70:4d:63:
         88:9e:b4:ca:9b:db:85:17:6a:e3:ea:d2:5c:19:79:c1:53:26:
         24:68:3b:41:ea:e4:ff:1c:3a:82:22:32:ca:d2:74:43:f1:4d:
         15:b3:83:e4:20:e9:93:85:da:5a:90:5c:a6:2d:f9:43:85:60:
         91:83:3d:71:6e:0f:ca:b0:fd:d9:a5:07:c0:8e:79:ea:5b:06:
         b3:8f:82:cc:a7:32:82:7f:fa:22:51:a6:80:87:f0:1d:68:d1:
         c9:c2:5a:87:f9:fc:1b:94:61:93:a5:10:69:f3:c0:c3:29:f2:
         fb:dd:11:15:fa:5f:6a:80:32:82:d2:df:e2:31:80:fd:49:9f:
         a0:1a:dc:bf:67:79:3f:8a:e5:97:9c:e3:bf:07:97:a2:26:aa:
         6d:4f:47:53:29:03:d9:73:bf:8b:6a:34:4d:ec:2c:1c:e1:f7:
         bb:17:ca:28:0c:80:90:d4:6e:19:f8:69:20:d2:f5:b7:93:c6:
         8b:da:2a:7d:ab:df:45:87:5a:91:f9:a3:7d:58:ef:43:7d:19:
         29:07:18:17:59:70:2f:a8:ab:2b:a3:e0:24:c3:67:0e:70:0e:
         57:39:9b:4e
-----BEGIN CERTIFICATE-----
MIIEzDCCA7SgAwIBAgIBZDANBgkqhkiG9w0BAQsFADCBlDELMAkGA1UEBhMCVVMx
EDAOBgNVBAgMB01vbnRhbmExEDAOBgNVBAcMB0JvemVtYW4xETAPBgNVBAoMCFNh
d3Rvb3RoMRMwEQYDVQQLDApDb25zdWx0aW5nMRgwFgYDVQQDDA93d3cud29sZnNz
bC5jb20xHzAdBgkqhkiG9w0BCQEWEGluZm9Ad29sZnNzbC5jb20wHhcNMjAwNjE5
MTMyMzQyWhcNMjMwMzE2MTMyMzQyWjCBoTELMAkGA1UEBhMCVVMxEzARBgNVBAgM
Cldhc2hpbmd0b24xEDAOBgNVBAcMB1NlYXR0bGUxFTATBgNVBAoMDHdvbGZTU0wg
SW5jLjEUMBIGA1UECwwLRW5naW5lZXJpbmcxHTAbBgNVBAMMFGNoYWluSS1JQ0Ez
LXBhdGhsZW4yMR8wHQYJKoZIhvcNAQkBFhBpbmZvQHdvbGZzc2wuY29tMIIBIjAN
BgkqhkiG9w0BAQEFAAOCAQ8AMIIBCgKCAQEAuDYMZqkGzqzgfIahaZ2+KM+jgfO0
3F/Ikp3yB8BeBNPldBn8z4V/95GM1Vh8AkyI8U1D4we9Kk7fUYcpdMUkZx3xb4sH
dTmJcCqcAOAubHx0Jxg0/SmYQ4PW4VGzE0EcvCnciy+TCJWLkCJL5Jj11nAqm4tk
5kkGYqQjCGBol4mpssCUjk85HCU7D+TFHX2JiV7GAmlo/BNVtYBrd/dZVwscfsbt
RsZw+zShKByCscKrpsHwExt9C7waOSM85x3uyO4vaV+hMT8aL5hdU9dCk9tJrNZ6
Ei6dDcmw70DRpAJeUuj71JIHmLF22RYP5Ive3Ihl4P1SHYvi4+0IN9AR9wIDAQAB
o4IBGDCCARQwHQYDVR0OBBYEFO43pvJA0O/9IsejtGxXR0C5mfmNMIHUBgNVHSME
gcwwgcmAFCeOZxF0wyYdP+0zY7Ok2B0w5ejVoYGapIGXMIGUMQswCQYDVQQGEwJV
UzEQMA4GA1UECAwHTW9udGFuYTEQMA4GA1UEBwwHQm96ZW1hbjERMA8GA1UECgwI
U2F3dG9vdGgxEzARBgNVBAsMCkNvbnN1bHRpbmcxGDAWBgNVBAMMD3d3dy53b2xm
c3NsLmNvbTEfMB0GCSqGSIb3DQEJARYQaW5mb0B3b2xmc3NsLmNvbYIUXrqk9LH3
SCXjX5vaoRPt1SsDZxUwDwYDVR0TBAgwBgEB/wIBAjALBgNVHQ8EBAMCAQYwDQYJ
KoZIhvcNAQELBQADggEBADLQ0g681cAJZPiy+BrqLR7w9gwEkpVZmxNTx37kmpys
uXBNY4ietMqb24UXauPq0lwZecFTJiRoO0Hq5P8cOoIiMsrSdEPxTRWzg+Qg6ZOF
2lqQXKYt+UOFYJGDPXFuD8qw/dmlB8COeepbBrOPgsynMoJ/+iJRpoCH8B1o0cnC
Wof5/BuUYZOlEGnzwMMp8vvdERX6X2qAMoLS3+IxgP1Jn6Aa3L9neT+K5Zec478H
l6Imqm1PR1MpA9lzv4tqNE3sLBzh97sXyigMgJDUbhn4aSDS9beTxovaKn2r30WH
WpH5o31Y70N9GSkHGBdZcC+oqyuj4CTDZw5wDlc5m04=
-----END CERTIFICATE-----
