Certificate:
    Data:
        Version: 3 (0x2)
        Serial Number: 101 (0x65)
        Signature Algorithm: sha256WithRSAEncryption
        Issuer: C = US, ST = Washington, L = Seattle, O = wolfSSL Inc., OU = Engineering, CN = chainG-ICA1-pathlen0, emailAddress = info@wolfssl.com
        Validity
            Not Before: Dec 18 21:25:34 2024 GMT
            Not After : Sep 14 21:25:34 2027 GMT
        Subject: C = US, ST = Washington, L = Seattle, O = wolfSSL Inc., OU = Engineering, CN = chainG-entity, emailAddress = info@wolfssl.com
        Subject Public Key Info:
            Public Key Algorithm: rsaEncryption
                Public-Key: (2048 bit)
                Modulus:
                    00:bb:7b:82:23:a2:34:e7:cb:89:4e:64:cc:f2:98:
                    c8:65:8f:e2:69:55:54:4b:3c:8b:c0:1f:67:37:7f:
                    09:cb:9e:df:5e:75:f6:99:83:12:ac:15:23:cf:64:
                    a4:10:16:a5:10:af:28:86:00:20:4e:f3:4d:fd:08:
                    fb:a1:a7:18:4c:13:1e:4d:90:2e:e6:9a:e3:28:03:
                    b4:f4:83:ce:fd:a2:a9:86:56:02:62:33:9f:6e:98:
                    7e:0f:cc:06:71:31:8a:93:d2:d9:a3:1d:08:7a:92:
                    f8:7e:bf:90:5f:a1:e6:2b:64:58:bb:a6:9a:c9:19:
                    97:fd:c9:a9:f7:08:27:8a:f3:be:e2:db:88:25:84:
                    91:13:06:e2:63:bc:e1:37:82:7e:6f:5a:da:f0:e2:
                    eb:a1:2a:8f:5d:52:11:af:e2:f5:89:42:79:83:b8:
                    c0:a5:95:dc:42:c6:1c:90:51:1e:33:f3:f1:c2:e4:
                    d2:7b:87:c3:64:90:b7:5f:9b:38:ef:d2:d0:4f:d5:
                    51:aa:e0:3a:d1:c3:01:03:e7:32:b1:27:c6:48:5a:
                    c0:ac:26:8d:94:61:76:f8:98:ff:30:6d:aa:55:c3:
                    63:fd:a4:a4:1b:3c:6b:e8:05:75:41:17:5d:ad:c9:
                    17:9b:c3:4d:6e:9f:7d:7d:36:fe:c0:a3:99:d6:e5:
                    92:ad
                Exponent: 65537 (0x10001)
        X509v3 extensions:
            X509v3 Subject Key Identifier: 
                21:3A:72:3B:95:38:DF:99:DE:62:25:21:D0:14:81:6E:CA:AA:FB:A1
            X509v3 Authority Key Identifier: 
                keyid:47:C0:19:4B:ED:C4:DA:97:B1:60:EA:5A:0A:42:6D:A5:D3:D8:25:31
                DirName:/C=US/ST=Washington/L=Seattle/O=wolfSSL Inc./OU=Engineering/CN=chainG-ICA2-pathlen1/emailAddress=info@wolfssl.com
                serial:64
            X509v3 Basic Constraints: 
                CA:FALSE
    Signature Algorithm: sha256WithRSAEncryption
    Signature Value:
        7a:13:a7:3c:50:c4:18:3d:cf:ee:9c:df:1b:50:59:cf:19:66:
        5e:a6:d7:21:e8:38:e9:c1:74:73:1b:40:44:47:42:40:58:e4:
        1b:0c:c1:61:10:9b:f7:4a:9c:7e:43:7e:23:2c:59:0f:a2:61:
        4e:36:c7:95:af:64:a9:52:05:d0:87:87:54:63:6f:5f:14:97:
        45:a2:85:ff:eb:d1:61:53:de:9e:30:0d:66:96:dd:cf:c1:ae:
        9d:4d:f6:01:52:18:63:69:64:2b:7f:35:b9:91:50:83:e3:8b:
        47:82:6e:bc:16:50:5f:1f:ea:5f:74:e0:e8:f7:6f:41:49:ed:
        ca:d8:48:95:f4:6c:ba:2f:27:b7:fc:03:08:c5:61:72:b0:25:
        63:56:08:1f:70:01:3b:65:48:7b:d6:04:77:5a:c0:60:af:a8:
        0e:99:7a:9f:5c:6b:b3:d4:a0:d7:48:4d:7b:68:e5:52:1f:e8:
        c3:d8:3d:6c:81:9e:96:1e:57:b1:cd:d7:01:80:76:df:3a:99:
        7a:84:57:35:a8:ae:70:04:bd:62:64:39:88:17:be:f1:7a:5d:
        c6:cf:d0:90:88:65:81:ae:e0:51:3a:b5:a9:90:68:56:2e:aa:
        78:61:86:7a:89:9c:77:94:9b:37:4e:43:24:e5:f6:6a:2a:b4:
        55:71:74:6a
-----BEGIN CERTIFICATE-----
MIIEtzCCA5+gAwIBAgIBZTANBgkqhkiG9w0BAQsFADCBoTELMAkGA1UEBhMCVVMx
EzARBgNVBAgMCldhc2hpbmd0b24xEDAOBgNVBAcMB1NlYXR0bGUxFTATBgNVBAoM
DHdvbGZTU0wgSW5jLjEUMBIGA1UECwwLRW5naW5lZXJpbmcxHTAbBgNVBAMMFGNo
YWluRy1JQ0ExLXBhdGhsZW4wMR8wHQYJKoZIhvcNAQkBFhBpbmZvQHdvbGZzc2wu
Y29tMB4XDTI0MTIxODIxMjUzNFoXDTI3MDkxNDIxMjUzNFowgZoxCzAJBgNVBAYT
AlVTMRMwEQYDVQQIDApXYXNoaW5ndG9uMRAwDgYDVQQHDAdTZWF0dGxlMRUwEwYD
VQQKDAx3b2xmU1NMIEluYy4xFDASBgNVBAsMC0VuZ2luZWVyaW5nMRYwFAYDVQQD
DA1jaGFpbkctZW50aXR5MR8wHQYJKoZIhvcNAQkBFhBpbmZvQHdvbGZzc2wuY29t
MIIBIjANBgkqhkiG9w0BAQEFAAOCAQ8AMIIBCgKCAQEAu3uCI6I058uJTmTM8pjI
ZY/iaVVUSzyLwB9nN38Jy57fXnX2mYMSrBUjz2SkEBalEK8ohgAgTvNN/Qj7oacY
TBMeTZAu5prjKAO09IPO/aKphlYCYjOfbph+D8wGcTGKk9LZox0IepL4fr+QX6Hm
K2RYu6aayRmX/cmp9wgnivO+4tuIJYSREwbiY7zhN4J+b1ra8OLroSqPXVIRr+L1
iUJ5g7jApZXcQsYckFEeM/PxwuTSe4fDZJC3X5s479LQT9VRquA60cMBA+cysSfG
SFrArCaNlGF2+Jj/MG2qVcNj/aSkGzxr6AV1QRddrckXm8NNbp99fTb+wKOZ1uWS
rQIDAQABo4H+MIH7MB0GA1UdDgQWBBQhOnI7lTjfmd5iJSHQFIFuyqr7oTCBzgYD
VR0jBIHGMIHDgBRHwBlL7cTal7Fg6loKQm2l09glMaGBp6SBpDCBoTELMAkGA1UE
BhMCVVMxEzARBgNVBAgMCldhc2hpbmd0b24xEDAOBgNVBAcMB1NlYXR0bGUxFTAT
BgNVBAoMDHdvbGZTU0wgSW5jLjEUMBIGA1UECwwLRW5naW5lZXJpbmcxHTAbBgNV
BAMMFGNoYWluRy1JQ0EyLXBhdGhsZW4xMR8wHQYJKoZIhvcNAQkBFhBpbmZvQHdv
bGZzc2wuY29tggFkMAkGA1UdEwQCMAAwDQYJKoZIhvcNAQELBQADggEBAHoTpzxQ
xBg9z+6c3xtQWc8ZZl6m1yHoOOnBdHMbQERHQkBY5BsMwWEQm/dKnH5DfiMsWQ+i
YU42x5WvZKlSBdCHh1Rjb18Ul0Wihf/r0WFT3p4wDWaW3c/Brp1N9gFSGGNpZCt/
NbmRUIPji0eCbrwWUF8f6l904Oj3b0FJ7crYSJX0bLovJ7f8AwjFYXKwJWNWCB9w
ATtlSHvWBHdawGCvqA6Zep9ca7PUoNdITXto5VIf6MPYPWyBnpYeV7HN1wGAdt86
mXqEVzWornAEvWJkOYgXvvF6XcbP0JCIZYGu4FE6tamQaFYuqnhhhnqJnHeUmzdO
QyTl9moqtFVxdGo=
-----END CERTIFICATE-----
