Certificate:
    Data:
        Version: 3 (0x2)
        Serial Number: 101 (0x65)
        Signature Algorithm: sha256WithRSAEncryption
        Issuer: C = US, ST = Washington, L = Seattle, O = wolfSSL Inc., OU = Engineering, CN = chainD-ICA1-pathlen127, emailAddress = info@wolfssl.com
        Validity
            Not Before: May  7 07:39:05 2020 GMT
            Not After : Feb  1 07:39:05 2023 GMT
        Subject: C = US, ST = Washington, L = Seattle, O = wolfSSL Inc., OU = Engineering, CN = chainD-entity, emailAddress = info@wolfssl.com
        Subject Public Key Info:
            Public Key Algorithm: rsaEncryption
                RSA Public-Key: (2048 bit)
                Modulus:
                    00:e2:5d:f4:bd:06:b6:a1:21:3a:2d:7f:cc:f2:5a:
                    15:36:28:0a:f2:bb:16:b5:ec:f9:e7:5b:92:ec:17:
                    75:76:89:f4:1b:7c:a9:79:cb:62:4b:55:8a:ca:cc:
                    f9:f0:a9:a2:05:61:ee:d8:8b:d0:5d:c5:49:bc:7d:
                    28:26:7d:3a:22:cc:20:71:55:4c:3a:f7:24:d7:95:
                    ac:ce:18:7d:0d:7b:20:4f:11:a9:7b:02:08:09:e6:
                    85:91:e4:4e:80:b9:a4:76:0f:28:cc:07:f6:f2:be:
                    c1:54:63:d2:b7:81:59:09:0b:c1:bd:0d:27:70:55:
                    c7:5f:bc:54:ee:73:16:7e:d2:b4:4c:df:a8:a9:81:
                    cc:e3:a6:8c:eb:e3:98:49:84:0b:a0:da:f3:e1:5f:
                    32:69:6a:b0:50:69:4f:96:72:04:3f:e7:1c:80:b1:
                    2c:6f:7d:ff:41:f2:bb:0b:17:b7:b5:ce:21:ea:e6:
                    c2:bd:cd:28:08:40:43:04:e5:40:e2:7d:41:35:b5:
                    51:bf:e8:20:01:99:85:a2:38:f1:6e:69:40:da:6e:
                    9f:d3:40:63:89:19:de:4d:49:d2:79:10:b6:2a:bb:
                    6f:66:fa:25:5f:96:c1:e8:38:96:e3:e5:28:28:b4:
                    ca:3c:21:1c:95:cd:b5:5e:50:f1:c9:3e:c2:4c:f2:
                    cb:33
                Exponent: 65537 (0x10001)
        X509v3 extensions:
            X509v3 Subject Key Identifier: 
                58:92:0B:B2:E4:12:D8:A3:31:37:D9:89:F2:9E:6E:62:22:40:42:82
            X509v3 Authority Key Identifier: 
                keyid:67:78:F9:AD:1C:53:41:1F:46:BD:49:9B:73:2E:7C:DC:5C:2D:0B:FB
                DirName:/C=US/ST=Montana/L=Bozeman/O=Sawtooth/OU=Consulting/CN=www.wolfssl.com/emailAddress=info@wolfssl.com
                serial:64

            X509v3 Basic Constraints: 
                CA:FALSE
    Signature Algorithm: sha256WithRSAEncryption
         38:d1:67:2b:24:4b:0f:79:e3:ec:5c:ba:b3:c9:43:a3:aa:74:
         34:54:2e:1c:2a:36:77:62:8a:88:20:8f:30:27:2d:7e:d5:b3:
         e3:df:b3:e0:db:50:1d:5d:16:4d:66:0c:85:3c:f3:56:4d:63:
         f6:ae:1d:dd:a5:5d:69:09:97:59:1b:95:24:92:35:8c:a3:8b:
         4a:8c:f5:af:d6:51:47:27:47:ee:f9:c7:58:b2:fc:5f:0e:a6:
         e4:85:fc:c4:06:6b:aa:a0:d7:d8:a4:92:31:12:c0:3b:18:44:
         64:88:7e:49:22:42:e9:4d:1d:68:50:69:8c:b3:e5:53:25:36:
         a5:14:2a:04:bc:7b:cc:92:bc:c6:6d:6f:3e:81:0b:da:8d:61:
         47:ba:33:20:96:38:b4:29:ca:d9:99:72:48:c8:9f:30:2e:de:
         46:42:84:50:20:85:9d:37:8e:01:ae:5f:c9:10:28:db:ff:46:
         bf:d9:4c:2c:ac:5d:16:c5:45:2c:c4:94:11:5f:cc:a0:70:8d:
         81:4a:d9:ca:5e:34:38:14:31:5e:b4:7d:51:e4:f7:06:4c:91:
         44:e9:78:85:bf:26:50:37:31:81:cb:33:94:af:51:21:5c:f5:
         47:73:b3:f6:2f:4e:6a:77:be:4e:cf:11:3e:f7:54:4f:93:fe:
         4d:2e:d3:85
-----BEGIN CERTIFICATE-----
MIIErDCCA5SgAwIBAgIBZTANBgkqhkiG9w0BAQsFADCBozELMAkGA1UEBhMCVVMx
EzARBgNVBAgMCldhc2hpbmd0b24xEDAOBgNVBAcMB1NlYXR0bGUxFTATBgNVBAoM
DHdvbGZTU0wgSW5jLjEUMBIGA1UECwwLRW5naW5lZXJpbmcxHzAdBgNVBAMMFmNo
YWluRC1JQ0ExLXBhdGhsZW4xMjcxHzAdBgkqhkiG9w0BCQEWEGluZm9Ad29sZnNz
bC5jb20wHhcNMjAwNTA3MDczOTA1WhcNMjMwMjAxMDczOTA1WjCBmjELMAkGA1UE
BhMCVVMxEzARBgNVBAgMCldhc2hpbmd0b24xEDAOBgNVBAcMB1NlYXR0bGUxFTAT
BgNVBAoMDHdvbGZTU0wgSW5jLjEUMBIGA1UECwwLRW5naW5lZXJpbmcxFjAUBgNV
BAMMDWNoYWluRC1lbnRpdHkxHzAdBgkqhkiG9w0BCQEWEGluZm9Ad29sZnNzbC5j
b20wggEiMA0GCSqGSIb3DQEBAQUAA4IBDwAwggEKAoIBAQDiXfS9BrahITotf8zy
WhU2KAryuxa17PnnW5LsF3V2ifQbfKl5y2JLVYrKzPnwqaIFYe7Yi9BdxUm8fSgm
fToizCBxVUw69yTXlazOGH0NeyBPEal7AggJ5oWR5E6AuaR2DyjMB/byvsFUY9K3
gVkJC8G9DSdwVcdfvFTucxZ+0rRM36ipgczjpozr45hJhAug2vPhXzJparBQaU+W
cgQ/5xyAsSxvff9B8rsLF7e1ziHq5sK9zSgIQEME5UDifUE1tVG/6CABmYWiOPFu
aUDabp/TQGOJGd5NSdJ5ELYqu29m+iVflsHoOJbj5SgotMo8IRyVzbVeUPHJPsJM
8sszAgMBAAGjgfEwge4wHQYDVR0OBBYEFFiSC7LkEtijMTfZifKebmIiQEKCMIHB
BgNVHSMEgbkwgbaAFGd4+a0cU0EfRr1Jm3MufNxcLQv7oYGapIGXMIGUMQswCQYD
VQQGEwJVUzEQMA4GA1UECAwHTW9udGFuYTEQMA4GA1UEBwwHQm96ZW1hbjERMA8G
A1UECgwIU2F3dG9vdGgxEzARBgNVBAsMCkNvbnN1bHRpbmcxGDAWBgNVBAMMD3d3
dy53b2xmc3NsLmNvbTEfMB0GCSqGSIb3DQEJARYQaW5mb0B3b2xmc3NsLmNvbYIB
ZDAJBgNVHRMEAjAAMA0GCSqGSIb3DQEBCwUAA4IBAQA40WcrJEsPeePsXLqzyUOj
qnQ0VC4cKjZ3YoqIII8wJy1+1bPj37Pg21AdXRZNZgyFPPNWTWP2rh3dpV1pCZdZ
G5UkkjWMo4tKjPWv1lFHJ0fu+cdYsvxfDqbkhfzEBmuqoNfYpJIxEsA7GERkiH5J
IkLpTR1oUGmMs+VTJTalFCoEvHvMkrzGbW8+gQvajWFHujMglji0KcrZmXJIyJ8w
Lt5GQoRQIIWdN44Brl/JECjb/0a/2UwsrF0WxUUsxJQRX8ygcI2BStnKXjQ4FDFe
tH1R5PcGTJFE6XiFvyZQNzGByzOUr1EhXPVHc7P2L05qd75OzxE+91RPk/5NLtOF
-----END CERTIFICATE-----
Certificate:
    Data:
        Version: 3 (0x2)
        Serial Number: 100 (0x64)
        Signature Algorithm: sha256WithRSAEncryption
        Issuer: C = US, ST = Montana, L = Bozeman, O = Sawtooth, OU = Consulting, CN = www.wolfssl.com, emailAddress = info@wolfssl.com
        Validity
            Not Before: May  7 07:39:05 2020 GMT
            Not After : Feb  1 07:39:05 2023 GMT
        Subject: C = US, ST = Washington, L = Seattle, O = wolfSSL Inc., OU = Engineering, CN = chainD-ICA1-pathlen127, emailAddress = info@wolfssl.com
        Subject Public Key Info:
            Public Key Algorithm: rsaEncryption
                RSA Public-Key: (2048 bit)
                Modulus:
                    00:d7:81:78:a9:19:99:12:d1:cf:3d:51:54:1d:d3:
                    14:94:ed:3e:de:ff:e0:23:e4:f7:23:fc:5c:49:24:
                    d8:36:93:e6:2a:ee:a7:ab:c6:8d:c9:ad:40:45:c9:
                    44:06:47:4c:0d:65:09:dd:db:e2:f0:bd:cd:79:1c:
                    ec:d1:8d:de:f2:ff:66:f5:b2:bd:43:cc:58:7f:1d:
                    db:4b:97:a5:83:5c:87:5e:9b:73:87:c8:1d:2b:47:
                    92:55:e4:db:be:51:d5:eb:76:c2:aa:59:72:7b:f6:
                    27:2f:be:c0:db:dc:3c:f2:e2:19:c9:b0:30:bb:2e:
                    a2:95:48:06:bd:8e:9d:bd:8c:6b:5e:c6:9a:73:4b:
                    6c:b0:20:96:47:44:d3:09:6b:6a:2b:fa:86:5f:1d:
                    0b:a7:62:22:72:d5:56:1c:aa:97:8c:ce:57:a3:0f:
                    e6:bc:cd:63:54:55:60:87:50:eb:fa:8c:e9:15:70:
                    b3:5c:4d:0e:27:60:fd:07:6e:8c:ec:3f:a0:25:c5:
                    01:59:a3:fc:2d:80:4b:84:4c:10:b5:c8:a7:6b:b1:
                    e5:c5:c1:9a:b0:d6:4b:30:21:ba:42:65:e0:3f:59:
                    cf:7f:49:4b:3b:cf:62:06:f4:89:ae:5b:81:5d:15:
                    63:fb:7c:29:a6:b5:cf:f3:b5:b5:66:06:4f:a3:da:
                    67:39
                Exponent: 65537 (0x10001)
        X509v3 extensions:
            X509v3 Subject Key Identifier: 
                67:78:F9:AD:1C:53:41:1F:46:BD:49:9B:73:2E:7C:DC:5C:2D:0B:FB
            X509v3 Authority Key Identifier: 
                keyid:27:8E:67:11:74:C3:26:1D:3F:ED:33:63:B3:A4:D8:1D:30:E5:E8:D5
                DirName:/C=US/ST=Montana/L=Bozeman/O=Sawtooth/OU=Consulting/CN=www.wolfssl.com/emailAddress=info@wolfssl.com
                serial:3F:32:13:52:92:C6:DF:4A:D5:42:05:6C:B0:B2:2E:46:C2:F8:B8:67

            X509v3 Basic Constraints: 
                CA:TRUE, pathlen:127
            X509v3 Key Usage: 
                Certificate Sign, CRL Sign
    Signature Algorithm: sha256WithRSAEncryption
         b6:9c:3d:f0:28:b4:9b:19:21:a2:5f:6e:58:1f:bd:83:ad:1f:
         f8:c6:dc:cd:14:4f:ea:bd:d6:33:bd:c7:a1:5f:0a:f1:7b:ae:
         9f:ac:12:75:28:ef:67:25:cf:6f:cd:89:62:e6:da:f8:3b:c6:
         d5:c4:af:97:bb:cb:47:7c:36:ab:d1:35:27:0d:03:18:bf:6e:
         c7:43:d8:36:a4:df:af:73:43:27:0e:73:2a:6f:99:0c:60:88:
         5e:76:5e:33:79:2e:e0:37:fc:9c:42:78:f6:29:0a:d0:ed:14:
         84:14:96:ca:1e:8a:f4:95:26:86:7c:d7:4c:67:b7:e0:7d:17:
         c6:f1:99:a2:63:a6:24:81:b3:18:b1:ea:3a:ed:d1:b4:74:6b:
         08:d4:48:17:e7:3e:3e:a3:b0:e8:34:d0:3a:a8:54:37:43:75:
         d0:a3:d6:bd:47:8d:65:d0:77:9d:c6:98:c5:65:aa:b9:de:a0:
         8f:5d:55:0e:2b:79:86:0a:41:6a:ee:2c:c6:39:3e:48:d7:b4:
         24:9f:6b:48:28:b8:ae:3e:29:1a:6c:08:bf:e0:14:86:49:4b:
         e0:6b:fd:8a:5d:69:ee:33:81:86:08:0e:32:46:94:61:ca:4f:
         56:48:ea:da:68:06:0d:21:92:6d:41:77:eb:32:b2:7e:34:83:
         88:9d:f5:f2
-----BEGIN CERTIFICATE-----
MIIEzjCCA7agAwIBAgIBZDANBgkqhkiG9w0BAQsFADCBlDELMAkGA1UEBhMCVVMx
EDAOBgNVBAgMB01vbnRhbmExEDAOBgNVBAcMB0JvemVtYW4xETAPBgNVBAoMCFNh
d3Rvb3RoMRMwEQYDVQQLDApDb25zdWx0aW5nMRgwFgYDVQQDDA93d3cud29sZnNz
bC5jb20xHzAdBgkqhkiG9w0BCQEWEGluZm9Ad29sZnNzbC5jb20wHhcNMjAwNTA3
MDczOTA1WhcNMjMwMjAxMDczOTA1WjCBozELMAkGA1UEBhMCVVMxEzARBgNVBAgM
Cldhc2hpbmd0b24xEDAOBgNVBAcMB1NlYXR0bGUxFTATBgNVBAoMDHdvbGZTU0wg
SW5jLjEUMBIGA1UECwwLRW5naW5lZXJpbmcxHzAdBgNVBAMMFmNoYWluRC1JQ0Ex
LXBhdGhsZW4xMjcxHzAdBgkqhkiG9w0BCQEWEGluZm9Ad29sZnNzbC5jb20wggEi
MA0GCSqGSIb3DQEBAQUAA4IBDwAwggEKAoIBAQDXgXipGZkS0c89UVQd0xSU7T7e
/+Aj5Pcj/FxJJNg2k+Yq7qerxo3JrUBFyUQGR0wNZQnd2+Lwvc15HOzRjd7y/2b1
sr1DzFh/HdtLl6WDXIdem3OHyB0rR5JV5Nu+UdXrdsKqWXJ79icvvsDb3Dzy4hnJ
sDC7LqKVSAa9jp29jGtexppzS2ywIJZHRNMJa2or+oZfHQunYiJy1VYcqpeMzlej
D+a8zWNUVWCHUOv6jOkVcLNcTQ4nYP0HbozsP6AlxQFZo/wtgEuETBC1yKdrseXF
wZqw1kswIbpCZeA/Wc9/SUs7z2IG9ImuW4FdFWP7fCmmtc/ztbVmBk+j2mc5AgMB
AAGjggEYMIIBFDAdBgNVHQ4EFgQUZ3j5rRxTQR9GvUmbcy583FwtC/swgdQGA1Ud
IwSBzDCByYAUJ45nEXTDJh0/7TNjs6TYHTDl6NWhgZqkgZcwgZQxCzAJBgNVBAYT
AlVTMRAwDgYDVQQIDAdNb250YW5hMRAwDgYDVQQHDAdCb3plbWFuMREwDwYDVQQK
DAhTYXd0b290aDETMBEGA1UECwwKQ29uc3VsdGluZzEYMBYGA1UEAwwPd3d3Lndv
bGZzc2wuY29tMR8wHQYJKoZIhvcNAQkBFhBpbmZvQHdvbGZzc2wuY29tghQ/MhNS
ksbfStVCBWywsi5Gwvi4ZzAPBgNVHRMECDAGAQH/AgF/MAsGA1UdDwQEAwIBBjAN
BgkqhkiG9w0BAQsFAAOCAQEAtpw98Ci0mxkhol9uWB+9g60f+MbczRRP6r3WM73H
oV8K8Xuun6wSdSjvZyXPb82JYuba+DvG1cSvl7vLR3w2q9E1Jw0DGL9ux0PYNqTf
r3NDJw5zKm+ZDGCIXnZeM3ku4Df8nEJ49ikK0O0UhBSWyh6K9JUmhnzXTGe34H0X
xvGZomOmJIGzGLHqOu3RtHRrCNRIF+c+PqOw6DTQOqhUN0N10KPWvUeNZdB3ncaY
xWWqud6gj11VDit5hgpBau4sxjk+SNe0JJ9rSCi4rj4pGmwIv+AUhklL4Gv9il1p
7jOBhggOMkaUYcpPVkjq2mgGDSGSbUF36zKyfjSDiJ318g==
-----END CERTIFICATE-----
