Certificate:
    Data:
        Version: 3 (0x2)
        Serial Number: 100 (0x64)
        Signature Algorithm: sha256WithRSAEncryption
        Issuer: C=US, ST=Washington, L=Seattle, O=wolfSSL Inc., OU=Engineering, CN=chainJ-ICA4-pathlen2, emailAddress=info@wolfssl.com
        Validity
            Not Before: Nov 13 20:41:48 2025 GMT
            Not After : Aug  9 20:41:48 2028 GMT
        Subject: C=US, ST=Washington, L=Seattle, O=wolfSSL Inc., OU=Engineering, CN=chainJ-ICA3-no_pathlen, emailAddress=info@wolfssl.com
        Subject Public Key Info:
            Public Key Algorithm: rsaEncryption
                Public-Key: (2048 bit)
                Modulus:
                    00:d8:aa:f6:05:95:70:5a:53:c7:66:10:aa:90:79:
                    3b:cb:78:2a:ef:5f:43:22:71:7c:6d:47:99:a7:8b:
                    39:e1:e7:4e:48:29:48:25:e1:b5:f5:25:df:64:7b:
                    ea:ed:aa:1f:8b:0d:e7:eb:f5:2f:ae:2a:5a:3d:50:
                    c7:fb:ef:0b:8b:44:0b:63:94:be:c6:d7:63:45:2e:
                    85:96:00:5c:be:7e:10:09:b3:d0:aa:7c:de:20:f8:
                    75:39:23:85:ee:84:13:88:54:2a:96:f5:16:27:9f:
                    8b:b0:a6:2a:f4:9d:13:8c:71:1c:0c:a6:59:53:ec:
                    f9:0b:2b:c9:45:13:d6:12:ef:39:d1:8e:9c:9e:ae:
                    3c:bb:b6:d8:10:ac:b7:59:49:5b:73:00:be:af:92:
                    21:14:54:a3:fa:b6:17:ae:b6:dc:b1:f1:61:f0:75:
                    07:43:5e:48:fa:e7:80:56:cf:df:ad:46:52:85:42:
                    fb:a7:70:53:14:c6:b7:51:fa:23:f0:f5:4b:d1:bb:
                    3f:9b:fc:35:ca:d2:85:f1:a0:77:02:06:7c:79:99:
                    13:b5:68:b4:16:47:42:88:f7:bc:eb:78:b2:e8:11:
                    2f:62:f6:da:f9:ef:1b:e0:9f:b5:d5:32:65:b5:4e:
                    e4:be:36:6b:65:65:1a:96:a2:47:b5:3e:9f:b0:0d:
                    63:41
                Exponent: 65537 (0x10001)
        X509v3 extensions:
            X509v3 Subject Key Identifier: 
                CD:97:49:78:F7:31:61:ED:2F:71:1A:68:E9:45:2C:40:78:51:93:5B
            X509v3 Authority Key Identifier: 
                keyid:FC:18:13:52:BB:33:4A:DB:1C:5B:D1:80:98:3E:40:86:95:58:72:F9
                DirName:/C=US/ST=Montana/L=Bozeman/O=Sawtooth/OU=Consulting/CN=www.wolfssl.com/emailAddress=info@wolfssl.com
                serial:64
            X509v3 Basic Constraints: 
                CA:TRUE
            X509v3 Key Usage: 
                Certificate Sign, CRL Sign
    Signature Algorithm: sha256WithRSAEncryption
    Signature Value:
        86:4d:25:c0:df:55:84:bc:8d:e0:85:54:ff:cc:bd:b0:95:19:
        50:58:77:dd:67:c6:81:59:f4:7b:1a:00:cb:84:54:bb:5f:44:
        ca:8f:ff:e1:b4:53:25:c2:77:ec:51:ee:cd:46:ce:b9:3a:96:
        69:af:86:b8:62:76:1b:3a:c9:31:60:a3:51:18:c9:2b:19:29:
        55:86:bb:b2:b4:3a:2b:b2:70:47:a0:ba:8e:78:cc:5a:22:ef:
        a0:9d:2f:b9:ef:ef:9b:95:a2:3d:0b:2d:88:de:9b:a2:9a:36:
        6d:dc:26:df:87:40:ec:f6:37:23:d7:0c:41:dc:3e:9f:b6:2c:
        b9:ab:c6:e0:af:f2:83:10:85:43:09:65:9e:f5:ca:55:57:22:
        19:b5:e4:30:bf:a3:9e:71:9d:69:43:46:6f:69:6d:b5:8e:cd:
        c1:b2:76:5a:9e:ff:ea:5f:42:d2:66:d8:df:50:6b:d8:40:6e:
        b5:d1:f1:10:f6:63:68:75:f8:80:da:fb:fa:4d:f1:41:7f:ee:
        0a:cf:2b:bf:91:1e:5b:49:e7:92:95:f4:cd:03:6d:32:42:6a:
        1e:21:1f:1d:5f:15:9a:1f:9f:39:67:90:37:3c:e4:24:d8:fc:
        15:3f:06:93:46:11:e1:da:d4:d3:e2:df:07:e0:f9:3a:c6:9c:
        ff:b7:15:02
-----BEGIN CERTIFICATE-----
MIIExDCCA6ygAwIBAgIBZDANBgkqhkiG9w0BAQsFADCBoTELMAkGA1UEBhMCVVMx
EzARBgNVBAgMCldhc2hpbmd0b24xEDAOBgNVBAcMB1NlYXR0bGUxFTATBgNVBAoM
DHdvbGZTU0wgSW5jLjEUMBIGA1UECwwLRW5naW5lZXJpbmcxHTAbBgNVBAMMFGNo
YWluSi1JQ0E0LXBhdGhsZW4yMR8wHQYJKoZIhvcNAQkBFhBpbmZvQHdvbGZzc2wu
Y29tMB4XDTI1MTExMzIwNDE0OFoXDTI4MDgwOTIwNDE0OFowgaMxCzAJBgNVBAYT
AlVTMRMwEQYDVQQIDApXYXNoaW5ndG9uMRAwDgYDVQQHDAdTZWF0dGxlMRUwEwYD
VQQKDAx3b2xmU1NMIEluYy4xFDASBgNVBAsMC0VuZ2luZWVyaW5nMR8wHQYDVQQD
DBZjaGFpbkotSUNBMy1ub19wYXRobGVuMR8wHQYJKoZIhvcNAQkBFhBpbmZvQHdv
bGZzc2wuY29tMIIBIjANBgkqhkiG9w0BAQEFAAOCAQ8AMIIBCgKCAQEA2Kr2BZVw
WlPHZhCqkHk7y3gq719DInF8bUeZp4s54edOSClIJeG19SXfZHvq7aofiw3n6/Uv
ripaPVDH++8Li0QLY5S+xtdjRS6FlgBcvn4QCbPQqnzeIPh1OSOF7oQTiFQqlvUW
J5+LsKYq9J0TjHEcDKZZU+z5CyvJRRPWEu850Y6cnq48u7bYEKy3WUlbcwC+r5Ih
FFSj+rYXrrbcsfFh8HUHQ15I+ueAVs/frUZShUL7p3BTFMa3Ufoj8PVL0bs/m/w1
ytKF8aB3AgZ8eZkTtWi0FkdCiPe863iy6BEvYvba+e8b4J+11TJltU7kvjZrZWUa
lqJHtT6fsA1jQQIDAQABo4IBATCB/jAdBgNVHQ4EFgQUzZdJePcxYe0vcRpo6UUs
QHhRk1swgcEGA1UdIwSBuTCBtoAU/BgTUrszStscW9GAmD5AhpVYcvmhgZqkgZcw
gZQxCzAJBgNVBAYTAlVTMRAwDgYDVQQIDAdNb250YW5hMRAwDgYDVQQHDAdCb3pl
bWFuMREwDwYDVQQKDAhTYXd0b290aDETMBEGA1UECwwKQ29uc3VsdGluZzEYMBYG
A1UEAwwPd3d3LndvbGZzc2wuY29tMR8wHQYJKoZIhvcNAQkBFhBpbmZvQHdvbGZz
c2wuY29tggFkMAwGA1UdEwQFMAMBAf8wCwYDVR0PBAQDAgEGMA0GCSqGSIb3DQEB
CwUAA4IBAQCGTSXA31WEvI3ghVT/zL2wlRlQWHfdZ8aBWfR7GgDLhFS7X0TKj//h
tFMlwnfsUe7NRs65OpZpr4a4YnYbOskxYKNRGMkrGSlVhruytDorsnBHoLqOeMxa
Iu+gnS+57++blaI9Cy2I3puimjZt3Cbfh0Ds9jcj1wxB3D6ftiy5q8bgr/KDEIVD
CWWe9cpVVyIZteQwv6OecZ1pQ0ZvaW21js3BsnZanv/qX0LSZtjfUGvYQG610fEQ
9mNodfiA2vv6TfFBf+4Kzyu/kR5bSeeSlfTNA20yQmoeIR8dXxWaH585Z5A3POQk
2PwVPwaTRhHh2tTT4t8H4Pk6xpz/txUC
-----END CERTIFICATE-----
