Certificate:
    Data:
        Version: 3 (0x2)
        Serial Number: 101 (0x65)
        Signature Algorithm: sha256WithRSAEncryption
        Issuer: C = US, ST = Washington, L = Seattle, O = wolfSSL Inc., OU = Engineering, CN = chainH-ICA1-pathlen0, emailAddress = info@wolfssl.com
        Validity
            Not Before: Feb 15 12:50:26 2022 GMT
            Not After : Nov 11 12:50:26 2024 GMT
        Subject: C = US, ST = Washington, L = Seattle, O = wolfSSL Inc., OU = Engineering, CN = chainH-entity, emailAddress = info@wolfssl.com
        Subject Public Key Info:
            Public Key Algorithm: rsaEncryption
                RSA Public-Key: (2048 bit)
                Modulus:
                    00:ba:ed:ab:c0:0d:92:6c:10:e4:50:9f:7c:98:cc:
                    87:fd:28:34:77:c0:58:28:52:2c:28:97:80:ec:78:
                    02:4f:f4:ca:60:f8:1d:e7:6a:04:52:2e:75:85:42:
                    74:76:00:e4:70:84:b8:51:8e:29:2e:7f:b6:ad:df:
                    6d:09:b4:4f:11:54:1e:88:16:e2:0e:af:30:f0:3d:
                    a7:da:9f:4e:0d:94:5b:05:51:9c:cc:05:65:8d:6b:
                    1e:3c:79:5b:26:7e:cb:ae:e9:9a:71:69:92:41:9b:
                    1a:cd:b4:53:0b:fb:2e:40:c4:e3:b1:5e:b8:8b:f8:
                    cf:0a:ec:5f:07:10:18:54:f8:8a:7d:35:97:7a:7a:
                    98:ea:93:2d:1b:e6:44:16:3f:cc:a7:4c:b9:cf:b5:
                    0b:09:47:b3:b8:8e:02:1a:56:69:37:b7:49:a4:59:
                    90:a3:20:88:f3:87:77:e8:39:0d:39:36:a5:56:b3:
                    ec:4b:f3:5e:8b:c2:cd:47:0c:d9:56:ce:32:f7:71:
                    33:db:7f:7d:c6:1e:7e:71:c1:01:06:98:9e:52:98:
                    9d:d7:9d:4a:32:94:3c:5a:42:66:00:ca:e2:a3:35:
                    db:b7:f3:27:0b:9c:fa:1b:99:4b:51:fa:6c:25:90:
                    f5:76:8c:d9:0d:80:8c:ac:61:eb:4d:92:12:6d:5f:
                    12:e5
                Exponent: 65537 (0x10001)
        X509v3 extensions:
            X509v3 Subject Key Identifier: 
                ED:62:FB:8F:91:CB:DE:B0:C8:89:CE:BA:B5:80:A8:47:F1:72:16:05
            X509v3 Authority Key Identifier: 
                keyid:48:80:87:28:EF:E6:28:0F:03:9B:DF:33:48:10:A0:E5:20:B3:69:50
                DirName:/C=US/ST=Washington/L=Seattle/O=wolfSSL Inc./OU=Engineering/CN=chainH-ICA2-pathlen2/emailAddress=info@wolfssl.com
                serial:64

            X509v3 Basic Constraints: 
                CA:FALSE
    Signature Algorithm: sha256WithRSAEncryption
         b1:d1:16:af:1c:6e:68:d3:ab:ed:75:38:e7:5d:8e:cb:57:3b:
         74:2d:e7:51:b5:7b:b2:93:b6:95:de:8d:b4:a3:fc:57:5c:9d:
         e5:9c:5a:69:2d:dd:bb:d8:0e:4b:c9:cb:85:53:a0:90:4f:0f:
         f4:57:c8:4d:2c:5f:aa:67:e9:0b:8f:c0:e0:ce:93:4a:2a:00:
         49:ee:34:88:0a:ab:7b:c1:6e:3f:67:56:73:1c:60:d0:9a:bb:
         b1:cb:6c:97:3c:4a:45:28:54:d2:73:0e:db:09:7f:1c:20:69:
         de:de:a3:19:fb:1b:a7:89:db:47:03:9d:ad:2e:df:84:2b:88:
         ae:3d:b3:d1:8c:ac:44:ca:ab:e3:ab:07:fd:45:d1:ab:45:3c:
         a0:b4:6e:26:07:8b:d6:17:bb:6e:4b:6e:bc:bd:cd:59:b8:99:
         ef:69:1c:f3:eb:2b:a1:0c:c9:5a:6e:aa:bf:31:ee:2d:51:16:
         11:8f:42:cd:60:18:0e:ab:b4:73:76:ee:85:fc:86:0f:cc:6f:
         96:bc:86:f9:8c:5e:2c:e4:9a:68:87:8d:86:27:f1:7b:52:93:
         46:46:9e:89:10:16:e7:3c:20:2d:7d:5c:fc:e5:77:ad:1c:d8:
         a6:1f:8c:84:42:da:f8:b4:72:8a:60:06:c2:12:7e:b7:97:a4:
         93:a3:ab:5f
-----BEGIN CERTIFICATE-----
MIIEtzCCA5+gAwIBAgIBZTANBgkqhkiG9w0BAQsFADCBoTELMAkGA1UEBhMCVVMx
EzARBgNVBAgMCldhc2hpbmd0b24xEDAOBgNVBAcMB1NlYXR0bGUxFTATBgNVBAoM
DHdvbGZTU0wgSW5jLjEUMBIGA1UECwwLRW5naW5lZXJpbmcxHTAbBgNVBAMMFGNo
YWluSC1JQ0ExLXBhdGhsZW4wMR8wHQYJKoZIhvcNAQkBFhBpbmZvQHdvbGZzc2wu
Y29tMB4XDTIyMDIxNTEyNTAyNloXDTI0MTExMTEyNTAyNlowgZoxCzAJBgNVBAYT
AlVTMRMwEQYDVQQIDApXYXNoaW5ndG9uMRAwDgYDVQQHDAdTZWF0dGxlMRUwEwYD
VQQKDAx3b2xmU1NMIEluYy4xFDASBgNVBAsMC0VuZ2luZWVyaW5nMRYwFAYDVQQD
DA1jaGFpbkgtZW50aXR5MR8wHQYJKoZIhvcNAQkBFhBpbmZvQHdvbGZzc2wuY29t
MIIBIjANBgkqhkiG9w0BAQEFAAOCAQ8AMIIBCgKCAQEAuu2rwA2SbBDkUJ98mMyH
/Sg0d8BYKFIsKJeA7HgCT/TKYPgd52oEUi51hUJ0dgDkcIS4UY4pLn+2rd9tCbRP
EVQeiBbiDq8w8D2n2p9ODZRbBVGczAVljWsePHlbJn7LrumacWmSQZsazbRTC/su
QMTjsV64i/jPCuxfBxAYVPiKfTWXenqY6pMtG+ZEFj/Mp0y5z7ULCUezuI4CGlZp
N7dJpFmQoyCI84d36DkNOTalVrPsS/Nei8LNRwzZVs4y93Ez2399xh5+ccEBBpie
Upid151KMpQ8WkJmAMriozXbt/MnC5z6G5lLUfpsJZD1dozZDYCMrGHrTZISbV8S
5QIDAQABo4H+MIH7MB0GA1UdDgQWBBTtYvuPkcvesMiJzrq1gKhH8XIWBTCBzgYD
VR0jBIHGMIHDgBRIgIco7+YoDwOb3zNIEKDlILNpUKGBp6SBpDCBoTELMAkGA1UE
BhMCVVMxEzARBgNVBAgMCldhc2hpbmd0b24xEDAOBgNVBAcMB1NlYXR0bGUxFTAT
BgNVBAoMDHdvbGZTU0wgSW5jLjEUMBIGA1UECwwLRW5naW5lZXJpbmcxHTAbBgNV
BAMMFGNoYWluSC1JQ0EyLXBhdGhsZW4yMR8wHQYJKoZIhvcNAQkBFhBpbmZvQHdv
bGZzc2wuY29tggFkMAkGA1UdEwQCMAAwDQYJKoZIhvcNAQELBQADggEBALHRFq8c
bmjTq+11OOddjstXO3Qt51G1e7KTtpXejbSj/FdcneWcWmkt3bvYDkvJy4VToJBP
D/RXyE0sX6pn6QuPwODOk0oqAEnuNIgKq3vBbj9nVnMcYNCau7HLbJc8SkUoVNJz
DtsJfxwgad7eoxn7G6eJ20cDna0u34QriK49s9GMrETKq+OrB/1F0atFPKC0biYH
i9YXu25Lbry9zVm4me9pHPPrK6EMyVpuqr8x7i1RFhGPQs1gGA6rtHN27oX8hg/M
b5a8hvmMXizkmmiHjYYn8XtSk0ZGnokQFuc8IC19XPzld60c2KYfjIRC2vi0copg
BsISfreXpJOjq18=
-----END CERTIFICATE-----
Certificate:
    Data:
        Version: 3 (0x2)
        Serial Number: 100 (0x64)
        Signature Algorithm: sha256WithRSAEncryption
        Issuer: C = US, ST = Washington, L = Seattle, O = wolfSSL Inc., OU = Engineering, CN = chainH-ICA2-pathlen2, emailAddress = info@wolfssl.com
        Validity
            Not Before: Feb 15 12:50:26 2022 GMT
            Not After : Nov 11 12:50:26 2024 GMT
        Subject: C = US, ST = Washington, L = Seattle, O = wolfSSL Inc., OU = Engineering, CN = chainH-ICA1-pathlen0, emailAddress = info@wolfssl.com
        Subject Public Key Info:
            Public Key Algorithm: rsaEncryption
                RSA Public-Key: (2048 bit)
                Modulus:
                    00:c7:f4:a6:7e:f2:cb:4f:6e:04:18:d3:53:d5:cf:
                    bf:7e:97:d1:74:94:fe:db:ad:61:3f:12:20:67:f3:
                    10:83:7b:51:43:a3:0c:20:b7:35:63:f1:0a:ee:59:
                    74:82:72:fb:d1:d4:12:71:ec:0e:8f:69:c9:fb:af:
                    a7:2f:c4:3b:2c:66:34:ab:ac:80:c2:6d:4a:0e:54:
                    fe:f6:3e:3a:00:25:84:a7:cb:42:d5:e8:47:04:94:
                    e4:68:c3:f5:32:ad:21:89:d8:5e:f9:88:ee:7d:ce:
                    91:a3:16:fc:87:76:1f:2f:1d:4c:b1:2f:3d:4d:f4:
                    0a:6c:04:fd:49:cf:51:88:49:c4:03:65:63:1e:c8:
                    f1:34:1d:44:34:58:af:f5:ec:90:2a:8c:a9:38:7b:
                    dc:fa:5f:ed:00:ed:08:53:4d:f7:36:10:ed:71:41:
                    aa:e3:bf:e8:5d:ee:4e:36:39:57:7e:f4:fd:c3:f7:
                    8a:52:0f:f1:37:72:2b:ae:90:77:00:d6:7c:ec:ec:
                    ee:8d:f8:4b:fb:39:0a:45:49:81:31:41:3f:a9:bb:
                    7b:1c:8a:cf:31:09:c7:94:a7:70:4a:d4:bb:ea:61:
                    3d:9a:a1:8e:1b:8b:02:3b:1f:1f:c4:85:e9:7f:63:
                    0c:ea:e5:91:83:a8:5b:25:34:7c:a8:68:eb:97:6f:
                    74:99
                Exponent: 65537 (0x10001)
        X509v3 extensions:
            X509v3 Subject Key Identifier: 
                48:80:87:28:EF:E6:28:0F:03:9B:DF:33:48:10:A0:E5:20:B3:69:50
            X509v3 Authority Key Identifier: 
                keyid:80:49:61:8C:1D:13:08:56:B5:42:68:D5:B2:EA:89:2C:B4:8B:05:87
                DirName:/C=US/ST=Washington/L=Seattle/O=wolfSSL Inc./OU=Engineering/CN=chainH-ICA3-pathlen2/emailAddress=info@wolfssl.com
                serial:64

            X509v3 Basic Constraints: 
                CA:TRUE, pathlen:0
            X509v3 Key Usage: 
                Certificate Sign, CRL Sign
    Signature Algorithm: sha256WithRSAEncryption
         c8:32:93:84:d7:b9:e9:2e:f0:04:23:b9:d9:fe:ec:63:e2:d8:
         30:81:84:58:ea:8d:6e:9b:19:38:60:cd:20:fb:f0:58:b2:d1:
         5b:2f:33:b8:f2:65:9c:86:cb:cb:c0:14:8d:d7:c6:99:bc:c5:
         5f:9a:7f:8b:2e:a2:6d:b5:7c:4f:56:ca:fc:21:c7:8b:db:f4:
         89:f2:05:ce:c2:66:5d:b7:4e:91:f1:db:4e:b2:3f:d6:7f:69:
         54:56:d3:9b:dd:27:d0:66:75:65:aa:04:34:3f:68:35:43:50:
         84:4e:34:96:48:62:14:5e:5c:11:1d:1d:78:33:60:8f:f9:bc:
         6b:35:d6:5c:26:32:64:aa:56:e2:4c:2e:7a:80:09:89:92:1c:
         45:3e:d1:38:11:7c:68:aa:b2:78:b6:58:d6:9b:b0:e5:65:cb:
         ca:fa:61:1d:18:ea:77:4f:1e:13:8a:a2:ed:77:37:05:bd:22:
         03:ad:16:ea:27:cf:b3:b3:88:2a:1d:bf:a2:3f:af:3e:4c:7a:
         71:52:45:47:eb:3f:fe:d7:c6:0f:7d:34:01:4e:af:b0:51:cd:
         4c:71:9e:e9:13:1b:b4:d5:b4:22:ce:c5:8c:6b:3e:65:4f:54:
         01:50:f1:be:08:71:3b:af:4e:95:49:99:6d:70:fc:b8:4b:48:
         e8:5c:17:e4
-----BEGIN CERTIFICATE-----
MIIE0zCCA7ugAwIBAgIBZDANBgkqhkiG9w0BAQsFADCBoTELMAkGA1UEBhMCVVMx
EzARBgNVBAgMCldhc2hpbmd0b24xEDAOBgNVBAcMB1NlYXR0bGUxFTATBgNVBAoM
DHdvbGZTU0wgSW5jLjEUMBIGA1UECwwLRW5naW5lZXJpbmcxHTAbBgNVBAMMFGNo
YWluSC1JQ0EyLXBhdGhsZW4yMR8wHQYJKoZIhvcNAQkBFhBpbmZvQHdvbGZzc2wu
Y29tMB4XDTIyMDIxNTEyNTAyNloXDTI0MTExMTEyNTAyNlowgaExCzAJBgNVBAYT
AlVTMRMwEQYDVQQIDApXYXNoaW5ndG9uMRAwDgYDVQQHDAdTZWF0dGxlMRUwEwYD
VQQKDAx3b2xmU1NMIEluYy4xFDASBgNVBAsMC0VuZ2luZWVyaW5nMR0wGwYDVQQD
DBRjaGFpbkgtSUNBMS1wYXRobGVuMDEfMB0GCSqGSIb3DQEJARYQaW5mb0B3b2xm
c3NsLmNvbTCCASIwDQYJKoZIhvcNAQEBBQADggEPADCCAQoCggEBAMf0pn7yy09u
BBjTU9XPv36X0XSU/tutYT8SIGfzEIN7UUOjDCC3NWPxCu5ZdIJy+9HUEnHsDo9p
yfuvpy/EOyxmNKusgMJtSg5U/vY+OgAlhKfLQtXoRwSU5GjD9TKtIYnYXvmI7n3O
kaMW/Id2Hy8dTLEvPU30CmwE/UnPUYhJxANlYx7I8TQdRDRYr/XskCqMqTh73Ppf
7QDtCFNN9zYQ7XFBquO/6F3uTjY5V370/cP3ilIP8TdyK66QdwDWfOzs7o34S/s5
CkVJgTFBP6m7exyKzzEJx5SncErUu+phPZqhjhuLAjsfH8SF6X9jDOrlkYOoWyU0
fKho65dvdJkCAwEAAaOCARIwggEOMB0GA1UdDgQWBBRIgIco7+YoDwOb3zNIEKDl
ILNpUDCBzgYDVR0jBIHGMIHDgBSASWGMHRMIVrVCaNWy6okstIsFh6GBp6SBpDCB
oTELMAkGA1UEBhMCVVMxEzARBgNVBAgMCldhc2hpbmd0b24xEDAOBgNVBAcMB1Nl
YXR0bGUxFTATBgNVBAoMDHdvbGZTU0wgSW5jLjEUMBIGA1UECwwLRW5naW5lZXJp
bmcxHTAbBgNVBAMMFGNoYWluSC1JQ0EzLXBhdGhsZW4yMR8wHQYJKoZIhvcNAQkB
FhBpbmZvQHdvbGZzc2wuY29tggFkMA8GA1UdEwQIMAYBAf8CAQAwCwYDVR0PBAQD
AgEGMA0GCSqGSIb3DQEBCwUAA4IBAQDIMpOE17npLvAEI7nZ/uxj4tgwgYRY6o1u
mxk4YM0g+/BYstFbLzO48mWchsvLwBSN18aZvMVfmn+LLqJttXxPVsr8IceL2/SJ
8gXOwmZdt06R8dtOsj/Wf2lUVtOb3SfQZnVlqgQ0P2g1Q1CETjSWSGIUXlwRHR14
M2CP+bxrNdZcJjJkqlbiTC56gAmJkhxFPtE4EXxoqrJ4tljWm7DlZcvK+mEdGOp3
Tx4TiqLtdzcFvSIDrRbqJ8+zs4gqHb+iP68+THpxUkVH6z/+18YPfTQBTq+wUc1M
cZ7pExu01bQizsWMaz5lT1QBUPG+CHE7r06VSZltcPy4S0joXBfk
-----END CERTIFICATE-----
Certificate:
    Data:
        Version: 3 (0x2)
        Serial Number: 100 (0x64)
        Signature Algorithm: sha256WithRSAEncryption
        Issuer: C = US, ST = Washington, L = Seattle, O = wolfSSL Inc., OU = Engineering, CN = chainH-ICA3-pathlen2, emailAddress = info@wolfssl.com
        Validity
            Not Before: Feb 15 12:50:26 2022 GMT
            Not After : Nov 11 12:50:26 2024 GMT
        Subject: C = US, ST = Washington, L = Seattle, O = wolfSSL Inc., OU = Engineering, CN = chainH-ICA2-pathlen2, emailAddress = info@wolfssl.com
        Subject Public Key Info:
            Public Key Algorithm: rsaEncryption
                RSA Public-Key: (2048 bit)
                Modulus:
                    00:d9:b5:af:4b:ba:83:03:23:df:50:28:a8:c2:0c:
                    2c:f0:04:cb:2d:04:9b:1e:f5:f4:68:bc:d4:8e:b4:
                    cd:46:04:a2:f5:14:9e:3e:33:d6:76:2d:54:f9:d5:
                    41:b5:7a:47:93:1a:54:80:a4:3d:8b:9d:80:ea:1c:
                    3a:3a:bb:d1:d4:b6:f1:f2:a3:bd:9e:5d:b8:85:01:
                    d7:c8:a0:27:f6:67:41:94:c5:95:91:11:cb:96:fc:
                    95:a9:bc:b5:be:58:77:5c:2b:9b:e9:24:7e:8b:6e:
                    10:a7:d5:3a:fa:05:21:27:14:d8:d2:5f:a2:58:12:
                    b4:d9:bd:88:1a:f1:e7:4c:9d:60:31:0b:1f:3f:8b:
                    af:3a:d9:ca:cf:d4:73:1b:b8:b0:3d:d5:96:5d:4e:
                    a3:62:8f:56:eb:3d:4c:f0:21:4f:f4:8c:c7:55:dd:
                    a6:dc:d9:15:a1:12:db:73:4d:bf:18:89:42:92:0e:
                    83:be:4f:aa:ee:8f:a8:ef:a1:27:01:73:16:29:c0:
                    e8:8c:23:c8:ff:95:68:cd:53:67:49:e5:73:b1:ec:
                    62:60:51:20:e8:a6:49:28:f5:2b:16:30:e8:8b:a6:
                    2f:f4:b7:37:99:8c:32:30:97:5d:16:bf:6b:5e:ba:
                    34:1f:d6:1b:2e:fc:79:f0:00:61:aa:a0:7a:2f:7b:
                    d2:83
                Exponent: 65537 (0x10001)
        X509v3 extensions:
            X509v3 Subject Key Identifier: 
                80:49:61:8C:1D:13:08:56:B5:42:68:D5:B2:EA:89:2C:B4:8B:05:87
            X509v3 Authority Key Identifier: 
                keyid:56:54:36:BE:23:2F:20:89:6D:A6:BA:9A:45:A4:88:0E:40:35:FD:F5
                DirName:/C=US/ST=Washington/L=Seattle/O=wolfSSL Inc./OU=Engineering/CN=chainH-ICA4-pathlen2/emailAddress=info@wolfssl.com
                serial:64

            X509v3 Basic Constraints: 
                CA:TRUE, pathlen:2
            X509v3 Key Usage: 
                Certificate Sign, CRL Sign
    Signature Algorithm: sha256WithRSAEncryption
         49:b2:ae:bb:40:85:b3:24:67:e8:4f:86:e0:87:17:56:ac:4b:
         32:ed:f8:da:c8:2d:85:e8:bc:3c:59:83:18:42:26:7a:b7:91:
         15:23:00:64:79:05:c3:62:75:d4:ce:dc:f7:17:34:52:6f:59:
         b5:f8:f0:69:74:1f:5d:8f:dd:90:97:49:e2:dd:f6:42:53:6e:
         47:9c:a9:d7:f3:a6:54:f7:41:4e:0c:6b:93:46:90:c0:9c:ea:
         64:6e:0e:cf:8c:ef:87:b8:7a:7b:25:5a:ae:7d:57:99:2c:05:
         f3:df:e7:ec:a6:ad:65:b2:a2:86:4e:1a:1b:0f:d7:36:b9:78:
         21:1b:3c:ae:b3:8d:3e:bc:41:a9:1a:5e:ab:96:75:84:8e:1e:
         e3:ba:0b:84:ae:35:83:55:bd:25:f9:5f:6d:2a:c2:26:c9:09:
         09:31:73:27:2c:9e:fd:80:56:77:0e:48:56:a3:6d:12:7f:fc:
         b1:62:6a:e8:07:ea:04:3f:38:e3:69:b5:f3:3f:71:79:82:8d:
         c5:50:b9:84:77:ec:0a:41:54:dd:a3:30:e2:8b:d1:e1:4d:86:
         38:d2:d5:6e:ee:50:23:50:89:b6:f7:70:45:ce:e6:8f:7a:8e:
         ef:f8:45:95:18:79:62:75:b9:29:b8:29:3f:f4:e8:21:43:32:
         3f:00:8f:2a
-----BEGIN CERTIFICATE-----
MIIE0zCCA7ugAwIBAgIBZDANBgkqhkiG9w0BAQsFADCBoTELMAkGA1UEBhMCVVMx
EzARBgNVBAgMCldhc2hpbmd0b24xEDAOBgNVBAcMB1NlYXR0bGUxFTATBgNVBAoM
DHdvbGZTU0wgSW5jLjEUMBIGA1UECwwLRW5naW5lZXJpbmcxHTAbBgNVBAMMFGNo
YWluSC1JQ0EzLXBhdGhsZW4yMR8wHQYJKoZIhvcNAQkBFhBpbmZvQHdvbGZzc2wu
Y29tMB4XDTIyMDIxNTEyNTAyNloXDTI0MTExMTEyNTAyNlowgaExCzAJBgNVBAYT
AlVTMRMwEQYDVQQIDApXYXNoaW5ndG9uMRAwDgYDVQQHDAdTZWF0dGxlMRUwEwYD
VQQKDAx3b2xmU1NMIEluYy4xFDASBgNVBAsMC0VuZ2luZWVyaW5nMR0wGwYDVQQD
DBRjaGFpbkgtSUNBMi1wYXRobGVuMjEfMB0GCSqGSIb3DQEJARYQaW5mb0B3b2xm
c3NsLmNvbTCCASIwDQYJKoZIhvcNAQEBBQADggEPADCCAQoCggEBANm1r0u6gwMj
31AoqMIMLPAEyy0Emx719Gi81I60zUYEovUUnj4z1nYtVPnVQbV6R5MaVICkPYud
gOocOjq70dS28fKjvZ5duIUB18igJ/ZnQZTFlZERy5b8lam8tb5Yd1wrm+kkfotu
EKfVOvoFIScU2NJfolgStNm9iBrx50ydYDELHz+LrzrZys/Ucxu4sD3Vll1Oo2KP
Vus9TPAhT/SMx1XdptzZFaES23NNvxiJQpIOg75Pqu6PqO+hJwFzFinA6IwjyP+V
aM1TZ0nlc7HsYmBRIOimSSj1KxYw6IumL/S3N5mMMjCXXRa/a166NB/WGy78efAA
Yaqgei970oMCAwEAAaOCARIwggEOMB0GA1UdDgQWBBSASWGMHRMIVrVCaNWy6oks
tIsFhzCBzgYDVR0jBIHGMIHDgBRWVDa+Iy8giW2muppFpIgOQDX99aGBp6SBpDCB
oTELMAkGA1UEBhMCVVMxEzARBgNVBAgMCldhc2hpbmd0b24xEDAOBgNVBAcMB1Nl
YXR0bGUxFTATBgNVBAoMDHdvbGZTU0wgSW5jLjEUMBIGA1UECwwLRW5naW5lZXJp
bmcxHTAbBgNVBAMMFGNoYWluSC1JQ0E0LXBhdGhsZW4yMR8wHQYJKoZIhvcNAQkB
FhBpbmZvQHdvbGZzc2wuY29tggFkMA8GA1UdEwQIMAYBAf8CAQIwCwYDVR0PBAQD
AgEGMA0GCSqGSIb3DQEBCwUAA4IBAQBJsq67QIWzJGfoT4bghxdWrEsy7fjayC2F
6Lw8WYMYQiZ6t5EVIwBkeQXDYnXUztz3FzRSb1m1+PBpdB9dj92Ql0ni3fZCU25H
nKnX86ZU90FODGuTRpDAnOpkbg7PjO+HuHp7JVqufVeZLAXz3+fspq1lsqKGThob
D9c2uXghGzyus40+vEGpGl6rlnWEjh7juguErjWDVb0l+V9tKsImyQkJMXMnLJ79
gFZ3DkhWo20Sf/yxYmroB+oEPzjjabXzP3F5go3FULmEd+wKQVTdozDii9HhTYY4
0tVu7lAjUIm293BFzuaPeo7v+EWVGHlidbkpuCk/9OghQzI/AI8q
-----END CERTIFICATE-----
Certificate:
    Data:
        Version: 3 (0x2)
        Serial Number: 100 (0x64)
        Signature Algorithm: sha256WithRSAEncryption
        Issuer: C = US, ST = Washington, L = Seattle, O = wolfSSL Inc., OU = Engineering, CN = chainH-ICA4-pathlen2, emailAddress = info@wolfssl.com
        Validity
            Not Before: Feb 15 12:50:26 2022 GMT
            Not After : Nov 11 12:50:26 2024 GMT
        Subject: C = US, ST = Washington, L = Seattle, O = wolfSSL Inc., OU = Engineering, CN = chainH-ICA3-pathlen2, emailAddress = info@wolfssl.com
        Subject Public Key Info:
            Public Key Algorithm: rsaEncryption
                RSA Public-Key: (2048 bit)
                Modulus:
                    00:b7:b3:1a:1b:4a:80:1b:a2:e5:95:14:bc:55:e4:
                    77:dc:f3:7b:8a:9f:34:7c:93:db:c9:c9:d0:8b:b8:
                    87:45:65:d3:a1:7d:46:f3:70:92:a9:d7:66:ef:3b:
                    b4:a8:16:b0:f0:be:67:70:aa:45:7b:09:bc:ca:77:
                    db:57:a4:24:54:0b:1a:da:5f:ad:64:a3:f1:49:83:
                    bc:9f:5d:c4:b4:da:43:04:aa:cc:c3:b0:4d:c2:f1:
                    73:c9:38:0d:4c:c9:ab:db:df:09:b3:5c:15:0b:66:
                    79:ad:6c:63:d1:38:cc:a6:2d:46:83:ce:19:1d:c1:
                    0b:6e:fc:38:b7:d8:8c:a2:6f:29:87:9b:21:cd:b0:
                    6b:e0:f8:1f:03:db:82:1d:8d:98:63:16:b6:74:47:
                    43:20:f2:a1:4b:16:8b:67:fd:bc:73:78:9b:f9:dd:
                    ba:49:d9:60:a9:b7:85:66:7f:a4:2a:05:c8:2d:93:
                    a0:9b:aa:bf:a6:31:e1:f2:c8:d3:1b:7b:79:d1:b6:
                    6c:ae:3b:6b:00:2e:6e:ae:10:dc:6c:88:dc:1b:93:
                    e8:56:99:8d:46:7e:49:3a:87:a0:b3:00:cc:2e:3b:
                    83:e1:6b:39:16:71:47:47:30:6d:6b:6c:9c:9f:e6:
                    ce:ec:20:2f:8f:c1:5d:ef:d3:84:32:6c:a5:cc:78:
                    fe:a1
                Exponent: 65537 (0x10001)
        X509v3 extensions:
            X509v3 Subject Key Identifier: 
                56:54:36:BE:23:2F:20:89:6D:A6:BA:9A:45:A4:88:0E:40:35:FD:F5
            X509v3 Authority Key Identifier: 
                keyid:18:6D:44:83:EE:1F:EC:B4:22:F0:9C:EB:54:1E:4A:15:58:01:AA:13
                DirName:/C=US/ST=Montana/L=Bozeman/O=Sawtooth/OU=Consulting/CN=www.wolfssl.com/emailAddress=info@wolfssl.com
                serial:64

            X509v3 Basic Constraints: 
                CA:TRUE, pathlen:2
            X509v3 Key Usage: 
                Certificate Sign, CRL Sign
    Signature Algorithm: sha256WithRSAEncryption
         9b:3f:f1:ef:fb:7c:9b:a0:af:89:e7:dd:3d:04:1f:6c:69:90:
         b7:e5:d5:f5:0b:e0:3e:e1:9e:25:22:50:74:91:23:c1:47:43:
         0f:c9:d7:e2:da:b2:14:8b:bb:d3:2b:5e:e3:73:fd:67:bb:74:
         07:18:a6:ba:a4:1f:52:20:51:f0:fe:e3:20:ec:55:c6:d8:46:
         68:ce:22:28:33:42:28:dd:0c:5f:1c:d7:bf:06:00:5e:de:35:
         6f:10:ce:e1:36:91:62:34:84:54:e8:48:d7:eb:22:be:4f:2e:
         25:ca:1d:4f:b1:b0:64:9f:e6:48:60:d3:ac:cc:c5:9c:83:25:
         5d:71:40:bf:ec:95:8a:6d:fc:8c:ba:32:90:fa:c1:40:d5:9b:
         6b:0d:c8:7b:04:c7:94:60:2d:21:b8:2c:9f:85:d5:e0:e4:dc:
         e0:39:19:47:39:33:6d:a2:d3:54:dd:59:70:35:e7:01:80:70:
         91:57:92:ca:8a:cb:57:92:56:31:32:9e:88:57:9a:bf:b5:8c:
         ef:e9:cc:13:ec:a5:30:a0:f4:a4:3e:6f:fc:5c:06:c1:3c:e0:
         a1:c5:c4:ac:ec:e9:5a:13:b1:5e:ab:8b:27:94:54:af:26:da:
         9a:8e:0d:66:b0:f8:39:5f:41:4e:5a:62:3e:d2:a4:c2:a1:ee:
         de:fb:cb:0b
-----BEGIN CERTIFICATE-----
MIIExjCCA66gAwIBAgIBZDANBgkqhkiG9w0BAQsFADCBoTELMAkGA1UEBhMCVVMx
EzARBgNVBAgMCldhc2hpbmd0b24xEDAOBgNVBAcMB1NlYXR0bGUxFTATBgNVBAoM
DHdvbGZTU0wgSW5jLjEUMBIGA1UECwwLRW5naW5lZXJpbmcxHTAbBgNVBAMMFGNo
YWluSC1JQ0E0LXBhdGhsZW4yMR8wHQYJKoZIhvcNAQkBFhBpbmZvQHdvbGZzc2wu
Y29tMB4XDTIyMDIxNTEyNTAyNloXDTI0MTExMTEyNTAyNlowgaExCzAJBgNVBAYT
AlVTMRMwEQYDVQQIDApXYXNoaW5ndG9uMRAwDgYDVQQHDAdTZWF0dGxlMRUwEwYD
VQQKDAx3b2xmU1NMIEluYy4xFDASBgNVBAsMC0VuZ2luZWVyaW5nMR0wGwYDVQQD
DBRjaGFpbkgtSUNBMy1wYXRobGVuMjEfMB0GCSqGSIb3DQEJARYQaW5mb0B3b2xm
c3NsLmNvbTCCASIwDQYJKoZIhvcNAQEBBQADggEPADCCAQoCggEBALezGhtKgBui
5ZUUvFXkd9zze4qfNHyT28nJ0Iu4h0Vl06F9RvNwkqnXZu87tKgWsPC+Z3CqRXsJ
vMp321ekJFQLGtpfrWSj8UmDvJ9dxLTaQwSqzMOwTcLxc8k4DUzJq9vfCbNcFQtm
ea1sY9E4zKYtRoPOGR3BC278OLfYjKJvKYebIc2wa+D4HwPbgh2NmGMWtnRHQyDy
oUsWi2f9vHN4m/nduknZYKm3hWZ/pCoFyC2ToJuqv6Yx4fLI0xt7edG2bK47awAu
bq4Q3GyI3BuT6FaZjUZ+STqHoLMAzC47g+FrORZxR0cwbWtsnJ/mzuwgL4/BXe/T
hDJspcx4/qECAwEAAaOCAQUwggEBMB0GA1UdDgQWBBRWVDa+Iy8giW2muppFpIgO
QDX99TCBwQYDVR0jBIG5MIG2gBQYbUSD7h/stCLwnOtUHkoVWAGqE6GBmqSBlzCB
lDELMAkGA1UEBhMCVVMxEDAOBgNVBAgMB01vbnRhbmExEDAOBgNVBAcMB0JvemVt
YW4xETAPBgNVBAoMCFNhd3Rvb3RoMRMwEQYDVQQLDApDb25zdWx0aW5nMRgwFgYD
VQQDDA93d3cud29sZnNzbC5jb20xHzAdBgkqhkiG9w0BCQEWEGluZm9Ad29sZnNz
bC5jb22CAWQwDwYDVR0TBAgwBgEB/wIBAjALBgNVHQ8EBAMCAQYwDQYJKoZIhvcN
AQELBQADggEBAJs/8e/7fJugr4nn3T0EH2xpkLfl1fUL4D7hniUiUHSRI8FHQw/J
1+LashSLu9MrXuNz/We7dAcYprqkH1IgUfD+4yDsVcbYRmjOIigzQijdDF8c178G
AF7eNW8QzuE2kWI0hFToSNfrIr5PLiXKHU+xsGSf5khg06zMxZyDJV1xQL/slYpt
/Iy6MpD6wUDVm2sNyHsEx5RgLSG4LJ+F1eDk3OA5GUc5M22i01TdWXA15wGAcJFX
ksqKy1eSVjEynohXmr+1jO/pzBPspTCg9KQ+b/xcBsE84KHFxKzs6VoTsV6riyeU
VK8m2pqODWaw+DlfQU5aYj7SpMKh7t77yws=
-----END CERTIFICATE-----
Certificate:
    Data:
        Version: 3 (0x2)
        Serial Number: 100 (0x64)
        Signature Algorithm: sha256WithRSAEncryption
        Issuer: C = US, ST = Montana, L = Bozeman, O = Sawtooth, OU = Consulting, CN = www.wolfssl.com, emailAddress = info@wolfssl.com
        Validity
            Not Before: Feb 15 12:50:26 2022 GMT
            Not After : Nov 11 12:50:26 2024 GMT
        Subject: C = US, ST = Washington, L = Seattle, O = wolfSSL Inc., OU = Engineering, CN = chainH-ICA4-pathlen2, emailAddress = info@wolfssl.com
        Subject Public Key Info:
            Public Key Algorithm: rsaEncryption
                RSA Public-Key: (2048 bit)
                Modulus:
                    00:bb:f3:2f:8a:cd:9e:87:f1:01:f3:a4:c0:2d:66:
                    36:d7:11:2e:64:08:e8:f1:99:fa:a6:9c:f4:bd:3b:
                    47:72:d2:0e:58:9d:3e:52:e7:da:a3:43:78:c3:c3:
                    93:e6:04:d3:ab:51:8a:1a:24:0e:7a:62:59:aa:c6:
                    42:9e:66:c1:61:5e:31:b1:4d:dc:37:a9:18:76:8d:
                    fe:cb:09:54:3f:4f:bb:5f:ab:ba:70:e9:b4:a1:5e:
                    a0:69:7e:45:3f:c0:cc:78:e9:f2:74:64:79:c2:6a:
                    16:d0:98:30:82:44:4a:b3:99:2c:66:30:ac:99:82:
                    04:2a:bf:0f:60:89:04:36:fa:29:d3:08:56:61:6a:
                    a8:33:40:9a:53:7d:20:a8:51:6f:9b:a0:d9:3e:dc:
                    9a:8b:1d:37:9e:ad:c9:fd:53:a7:04:dc:1f:36:3e:
                    d3:65:52:84:24:61:d0:4e:e2:41:60:bf:fb:fd:b2:
                    04:b3:3f:eb:14:99:5e:bc:e8:7d:e9:65:d1:3f:fe:
                    04:49:e5:bb:a3:2d:e3:db:96:df:d9:81:a0:32:d7:
                    01:b9:b8:02:8e:b9:a2:1f:0a:d4:24:17:3a:19:0f:
                    6d:3a:10:5f:5c:7d:b8:56:82:c7:7f:40:f0:2d:87:
                    63:c1:b1:d8:64:c7:3c:27:13:4a:63:82:21:b1:f2:
                    39:e9
                Exponent: 65537 (0x10001)
        X509v3 extensions:
            X509v3 Subject Key Identifier: 
                18:6D:44:83:EE:1F:EC:B4:22:F0:9C:EB:54:1E:4A:15:58:01:AA:13
            X509v3 Authority Key Identifier: 
                keyid:27:8E:67:11:74:C3:26:1D:3F:ED:33:63:B3:A4:D8:1D:30:E5:E8:D5
                DirName:/C=US/ST=Montana/L=Bozeman/O=Sawtooth/OU=Consulting/CN=www.wolfssl.com/emailAddress=info@wolfssl.com
                serial:26:8C:93:F9:F9:F4:1E:B3:01:72:94:55:67:6D:E2:F8:3D:DA:E9:F4

            X509v3 Basic Constraints: 
                CA:TRUE, pathlen:2
            X509v3 Key Usage: 
                Certificate Sign, CRL Sign
    Signature Algorithm: sha256WithRSAEncryption
         71:c3:ef:d2:fe:b7:47:5f:87:7b:cb:d7:ac:22:15:49:e2:34:
         14:b5:d0:d1:ff:76:ee:4f:1c:3f:2d:02:cf:75:a9:b5:89:b6:
         47:79:44:6a:30:8c:6f:9c:26:ea:a7:ec:9b:04:be:6f:f4:e0:
         58:92:cc:ab:d4:6c:b3:37:16:8b:0d:f2:87:00:2c:82:75:ae:
         e5:bb:3f:72:f2:d9:11:f2:eb:76:56:a6:55:91:0c:b4:65:b6:
         e6:23:12:4b:bc:f2:92:2d:00:b5:06:e6:ea:4c:3a:9f:bf:03:
         ff:d5:a7:fc:0c:b8:11:54:d9:bd:c2:a8:47:71:3f:59:cd:ba:
         25:8c:35:8a:b5:cc:30:fe:b1:88:3d:43:49:20:51:3f:50:3c:
         f3:25:72:e9:76:d7:d4:6e:56:5c:0c:54:84:5c:b9:d2:ff:79:
         16:99:a7:f6:13:b2:23:3d:5b:b7:13:23:58:5a:f2:aa:39:07:
         9b:17:e2:0e:d4:23:54:df:17:aa:1f:63:a1:f9:26:c4:c1:5a:
         0d:cc:0d:7f:27:b4:68:bc:78:8c:6e:56:d2:32:bd:d9:f1:55:
         b3:18:40:c9:3f:c2:87:49:01:ce:c5:b0:ba:2c:15:54:7f:9b:
         70:a0:77:ad:b8:21:cf:7b:b7:3c:6f:1f:87:43:17:4d:87:17:
         78:0f:c5:a8
-----BEGIN CERTIFICATE-----
MIIEzDCCA7SgAwIBAgIBZDANBgkqhkiG9w0BAQsFADCBlDELMAkGA1UEBhMCVVMx
EDAOBgNVBAgMB01vbnRhbmExEDAOBgNVBAcMB0JvemVtYW4xETAPBgNVBAoMCFNh
d3Rvb3RoMRMwEQYDVQQLDApDb25zdWx0aW5nMRgwFgYDVQQDDA93d3cud29sZnNz
bC5jb20xHzAdBgkqhkiG9w0BCQEWEGluZm9Ad29sZnNzbC5jb20wHhcNMjIwMjE1
MTI1MDI2WhcNMjQxMTExMTI1MDI2WjCBoTELMAkGA1UEBhMCVVMxEzARBgNVBAgM
Cldhc2hpbmd0b24xEDAOBgNVBAcMB1NlYXR0bGUxFTATBgNVBAoMDHdvbGZTU0wg
SW5jLjEUMBIGA1UECwwLRW5naW5lZXJpbmcxHTAbBgNVBAMMFGNoYWluSC1JQ0E0
LXBhdGhsZW4yMR8wHQYJKoZIhvcNAQkBFhBpbmZvQHdvbGZzc2wuY29tMIIBIjAN
BgkqhkiG9w0BAQEFAAOCAQ8AMIIBCgKCAQEAu/Mvis2eh/EB86TALWY21xEuZAjo
8Zn6ppz0vTtHctIOWJ0+Uufao0N4w8OT5gTTq1GKGiQOemJZqsZCnmbBYV4xsU3c
N6kYdo3+ywlUP0+7X6u6cOm0oV6gaX5FP8DMeOnydGR5wmoW0JgwgkRKs5ksZjCs
mYIEKr8PYIkENvop0whWYWqoM0CaU30gqFFvm6DZPtyaix03nq3J/VOnBNwfNj7T
ZVKEJGHQTuJBYL/7/bIEsz/rFJlevOh96WXRP/4ESeW7oy3j25bf2YGgMtcBubgC
jrmiHwrUJBc6GQ9tOhBfXH24VoLHf0DwLYdjwbHYZMc8JxNKY4IhsfI56QIDAQAB
o4IBGDCCARQwHQYDVR0OBBYEFBhtRIPuH+y0IvCc61QeShVYAaoTMIHUBgNVHSME
gcwwgcmAFCeOZxF0wyYdP+0zY7Ok2B0w5ejVoYGapIGXMIGUMQswCQYDVQQGEwJV
UzEQMA4GA1UECAwHTW9udGFuYTEQMA4GA1UEBwwHQm96ZW1hbjERMA8GA1UECgwI
U2F3dG9vdGgxEzARBgNVBAsMCkNvbnN1bHRpbmcxGDAWBgNVBAMMD3d3dy53b2xm
c3NsLmNvbTEfMB0GCSqGSIb3DQEJARYQaW5mb0B3b2xmc3NsLmNvbYIUJoyT+fn0
HrMBcpRVZ23i+D3a6fQwDwYDVR0TBAgwBgEB/wIBAjALBgNVHQ8EBAMCAQYwDQYJ
KoZIhvcNAQELBQADggEBAHHD79L+t0dfh3vL16wiFUniNBS10NH/du5PHD8tAs91
qbWJtkd5RGowjG+cJuqn7JsEvm/04FiSzKvUbLM3FosN8ocALIJ1ruW7P3Ly2RHy
63ZWplWRDLRltuYjEku88pItALUG5upMOp+/A//Vp/wMuBFU2b3CqEdxP1nNuiWM
NYq1zDD+sYg9Q0kgUT9QPPMlcul219RuVlwMVIRcudL/eRaZp/YTsiM9W7cTI1ha
8qo5B5sX4g7UI1TfF6ofY6H5JsTBWg3MDX8ntGi8eIxuVtIyvdnxVbMYQMk/wodJ
Ac7FsLosFVR/m3Cgd624Ic97tzxvH4dDF02HF3gPxag=
-----END CERTIFICATE-----
