Certificate:
    Data:
        Version: 3 (0x2)
        Serial Number: 101 (0x65)
    Signature Algorithm: sha256WithRSAEncryption
        Issuer: C=US, ST=Washington, L=Seattle, O=wolfSSL Inc., OU=Engineering, CN=chainD-ICA1-pathlen127/emailAddress=info@wolfssl.com
        Validity
            Not Before: Feb 10 19:49:54 2021 GMT
            Not After : Nov  7 19:49:54 2023 GMT
        Subject: C=US, ST=Washington, L=Seattle, O=wolfSSL Inc., OU=Engineering, CN=chainD-entity/emailAddress=info@wolfssl.com
        Subject Public Key Info:
            Public Key Algorithm: rsaEncryption
                Public-Key: (2048 bit)
                Modulus:
                    00:e2:5d:f4:bd:06:b6:a1:21:3a:2d:7f:cc:f2:5a:
                    15:36:28:0a:f2:bb:16:b5:ec:f9:e7:5b:92:ec:17:
                    75:76:89:f4:1b:7c:a9:79:cb:62:4b:55:8a:ca:cc:
                    f9:f0:a9:a2:05:61:ee:d8:8b:d0:5d:c5:49:bc:7d:
                    28:26:7d:3a:22:cc:20:71:55:4c:3a:f7:24:d7:95:
                    ac:ce:18:7d:0d:7b:20:4f:11:a9:7b:02:08:09:e6:
                    85:91:e4:4e:80:b9:a4:76:0f:28:cc:07:f6:f2:be:
                    c1:54:63:d2:b7:81:59:09:0b:c1:bd:0d:27:70:55:
                    c7:5f:bc:54:ee:73:16:7e:d2:b4:4c:df:a8:a9:81:
                    cc:e3:a6:8c:eb:e3:98:49:84:0b:a0:da:f3:e1:5f:
                    32:69:6a:b0:50:69:4f:96:72:04:3f:e7:1c:80:b1:
                    2c:6f:7d:ff:41:f2:bb:0b:17:b7:b5:ce:21:ea:e6:
                    c2:bd:cd:28:08:40:43:04:e5:40:e2:7d:41:35:b5:
                    51:bf:e8:20:01:99:85:a2:38:f1:6e:69:40:da:6e:
                    9f:d3:40:63:89:19:de:4d:49:d2:79:10:b6:2a:bb:
                    6f:66:fa:25:5f:96:c1:e8:38:96:e3:e5:28:28:b4:
                    ca:3c:21:1c:95:cd:b5:5e:50:f1:c9:3e:c2:4c:f2:
                    cb:33
                Exponent: 65537 (0x10001)
        X509v3 extensions:
            X509v3 Subject Key Identifier: 
                58:92:0B:B2:E4:12:D8:A3:31:37:D9:89:F2:9E:6E:62:22:40:42:82
            X509v3 Authority Key Identifier: 
                keyid:67:78:F9:AD:1C:53:41:1F:46:BD:49:9B:73:2E:7C:DC:5C:2D:0B:FB
                DirName:/C=US/ST=Montana/L=Bozeman/O=Sawtooth/OU=Consulting/CN=www.wolfssl.com/emailAddress=info@wolfssl.com
                serial:64

            X509v3 Basic Constraints: 
                CA:FALSE
    Signature Algorithm: sha256WithRSAEncryption
         5e:12:77:cf:93:0c:dd:b4:11:e3:d6:70:70:af:d7:50:01:ea:
         9f:39:4c:7c:06:67:44:dd:1a:25:ee:46:ff:21:8e:7d:3c:24:
         52:42:91:57:eb:5b:63:26:85:30:67:18:22:42:19:cc:e0:1c:
         f1:71:22:da:2f:b4:5e:6f:ed:e1:30:5c:db:e9:07:a7:d6:36:
         94:52:ce:e5:05:a3:9e:d4:b2:2b:be:d3:fc:56:e3:7c:d2:06:
         61:0a:61:91:59:44:24:85:e8:3d:0d:e1:09:7e:4f:91:87:2c:
         26:85:2e:5d:c3:b1:53:96:91:40:64:16:82:7e:b8:4f:c1:60:
         0d:86:5d:99:eb:49:be:9d:63:16:ff:3e:08:4e:fa:c6:18:8f:
         0b:79:92:24:89:bb:74:23:65:53:64:da:d6:d9:f7:06:7b:8d:
         d7:50:ba:16:03:04:b2:eb:6e:7b:18:c6:00:7a:38:b4:bf:77:
         c8:27:bc:c9:ab:a4:9c:96:df:f8:90:4f:7f:cd:06:5b:97:41:
         48:cd:9f:66:05:a5:3e:56:44:6d:e1:89:0d:d3:e4:31:22:35:
         2c:7b:8a:ca:49:22:c2:bc:68:43:fc:db:31:fe:cd:cf:be:8c:
         fa:cc:12:59:82:94:9d:96:7a:fb:e9:55:1b:e5:c4:3d:86:43:
         82:10:2c:ba
-----BEGIN CERTIFICATE-----
MIIErDCCA5SgAwIBAgIBZTANBgkqhkiG9w0BAQsFADCBozELMAkGA1UEBhMCVVMx
EzARBgNVBAgMCldhc2hpbmd0b24xEDAOBgNVBAcMB1NlYXR0bGUxFTATBgNVBAoM
DHdvbGZTU0wgSW5jLjEUMBIGA1UECwwLRW5naW5lZXJpbmcxHzAdBgNVBAMMFmNo
YWluRC1JQ0ExLXBhdGhsZW4xMjcxHzAdBgkqhkiG9w0BCQEWEGluZm9Ad29sZnNz
bC5jb20wHhcNMjEwMjEwMTk0OTU0WhcNMjMxMTA3MTk0OTU0WjCBmjELMAkGA1UE
BhMCVVMxEzARBgNVBAgMCldhc2hpbmd0b24xEDAOBgNVBAcMB1NlYXR0bGUxFTAT
BgNVBAoMDHdvbGZTU0wgSW5jLjEUMBIGA1UECwwLRW5naW5lZXJpbmcxFjAUBgNV
BAMMDWNoYWluRC1lbnRpdHkxHzAdBgkqhkiG9w0BCQEWEGluZm9Ad29sZnNzbC5j
b20wggEiMA0GCSqGSIb3DQEBAQUAA4IBDwAwggEKAoIBAQDiXfS9BrahITotf8zy
WhU2KAryuxa17PnnW5LsF3V2ifQbfKl5y2JLVYrKzPnwqaIFYe7Yi9BdxUm8fSgm
fToizCBxVUw69yTXlazOGH0NeyBPEal7AggJ5oWR5E6AuaR2DyjMB/byvsFUY9K3
gVkJC8G9DSdwVcdfvFTucxZ+0rRM36ipgczjpozr45hJhAug2vPhXzJparBQaU+W
cgQ/5xyAsSxvff9B8rsLF7e1ziHq5sK9zSgIQEME5UDifUE1tVG/6CABmYWiOPFu
aUDabp/TQGOJGd5NSdJ5ELYqu29m+iVflsHoOJbj5SgotMo8IRyVzbVeUPHJPsJM
8sszAgMBAAGjgfEwge4wHQYDVR0OBBYEFFiSC7LkEtijMTfZifKebmIiQEKCMIHB
BgNVHSMEgbkwgbaAFGd4+a0cU0EfRr1Jm3MufNxcLQv7oYGapIGXMIGUMQswCQYD
VQQGEwJVUzEQMA4GA1UECAwHTW9udGFuYTEQMA4GA1UEBwwHQm96ZW1hbjERMA8G
A1UECgwIU2F3dG9vdGgxEzARBgNVBAsMCkNvbnN1bHRpbmcxGDAWBgNVBAMMD3d3
dy53b2xmc3NsLmNvbTEfMB0GCSqGSIb3DQEJARYQaW5mb0B3b2xmc3NsLmNvbYIB
ZDAJBgNVHRMEAjAAMA0GCSqGSIb3DQEBCwUAA4IBAQBeEnfPkwzdtBHj1nBwr9dQ
AeqfOUx8BmdE3Rol7kb/IY59PCRSQpFX61tjJoUwZxgiQhnM4BzxcSLaL7Reb+3h
MFzb6Qen1jaUUs7lBaOe1LIrvtP8VuN80gZhCmGRWUQkheg9DeEJfk+RhywmhS5d
w7FTlpFAZBaCfrhPwWANhl2Z60m+nWMW/z4ITvrGGI8LeZIkibt0I2VTZNrW2fcG
e43XULoWAwSy6257GMYAeji0v3fIJ7zJq6Sclt/4kE9/zQZbl0FIzZ9mBaU+VkRt
4YkN0+QxIjUse4rKSSLCvGhD/Nsx/s3Pvoz6zBJZgpSdlnr76VUb5cQ9hkOCECy6
-----END CERTIFICATE-----
Certificate:
    Data:
        Version: 3 (0x2)
        Serial Number: 100 (0x64)
    Signature Algorithm: sha256WithRSAEncryption
        Issuer: C=US, ST=Montana, L=Bozeman, O=Sawtooth, OU=Consulting, CN=www.wolfssl.com/emailAddress=info@wolfssl.com
        Validity
            Not Before: Feb 10 19:49:54 2021 GMT
            Not After : Nov  7 19:49:54 2023 GMT
        Subject: C=US, ST=Washington, L=Seattle, O=wolfSSL Inc., OU=Engineering, CN=chainD-ICA1-pathlen127/emailAddress=info@wolfssl.com
        Subject Public Key Info:
            Public Key Algorithm: rsaEncryption
                Public-Key: (2048 bit)
                Modulus:
                    00:d7:81:78:a9:19:99:12:d1:cf:3d:51:54:1d:d3:
                    14:94:ed:3e:de:ff:e0:23:e4:f7:23:fc:5c:49:24:
                    d8:36:93:e6:2a:ee:a7:ab:c6:8d:c9:ad:40:45:c9:
                    44:06:47:4c:0d:65:09:dd:db:e2:f0:bd:cd:79:1c:
                    ec:d1:8d:de:f2:ff:66:f5:b2:bd:43:cc:58:7f:1d:
                    db:4b:97:a5:83:5c:87:5e:9b:73:87:c8:1d:2b:47:
                    92:55:e4:db:be:51:d5:eb:76:c2:aa:59:72:7b:f6:
                    27:2f:be:c0:db:dc:3c:f2:e2:19:c9:b0:30:bb:2e:
                    a2:95:48:06:bd:8e:9d:bd:8c:6b:5e:c6:9a:73:4b:
                    6c:b0:20:96:47:44:d3:09:6b:6a:2b:fa:86:5f:1d:
                    0b:a7:62:22:72:d5:56:1c:aa:97:8c:ce:57:a3:0f:
                    e6:bc:cd:63:54:55:60:87:50:eb:fa:8c:e9:15:70:
                    b3:5c:4d:0e:27:60:fd:07:6e:8c:ec:3f:a0:25:c5:
                    01:59:a3:fc:2d:80:4b:84:4c:10:b5:c8:a7:6b:b1:
                    e5:c5:c1:9a:b0:d6:4b:30:21:ba:42:65:e0:3f:59:
                    cf:7f:49:4b:3b:cf:62:06:f4:89:ae:5b:81:5d:15:
                    63:fb:7c:29:a6:b5:cf:f3:b5:b5:66:06:4f:a3:da:
                    67:39
                Exponent: 65537 (0x10001)
        X509v3 extensions:
            X509v3 Subject Key Identifier: 
                67:78:F9:AD:1C:53:41:1F:46:BD:49:9B:73:2E:7C:DC:5C:2D:0B:FB
            X509v3 Authority Key Identifier: 
                keyid:27:8E:67:11:74:C3:26:1D:3F:ED:33:63:B3:A4:D8:1D:30:E5:E8:D5
                DirName:/C=US/ST=Montana/L=Bozeman/O=Sawtooth/OU=Consulting/CN=www.wolfssl.com/emailAddress=info@wolfssl.com
                serial:AA:D3:3F:AC:18:0A:37:4D

            X509v3 Basic Constraints: 
                CA:TRUE, pathlen:127
            X509v3 Key Usage: 
                Certificate Sign, CRL Sign
    Signature Algorithm: sha256WithRSAEncryption
         33:03:d0:c5:e2:4c:91:4f:7d:1a:1b:2d:31:a5:48:bf:bc:86:
         6c:f5:0c:28:2f:61:12:80:c8:7e:45:d6:f9:86:7f:c4:e5:f6:
         3f:04:79:e5:33:5d:48:15:94:c6:1e:2e:75:7d:45:2f:33:75:
         54:d1:29:cf:88:6a:37:91:aa:29:41:69:46:ab:ba:e6:6f:81:
         5c:cf:44:59:50:4f:f0:49:d4:8f:b9:a4:9c:8c:7b:49:9f:43:
         c9:96:02:fb:c8:1d:f3:13:96:12:b5:e9:17:8f:f4:43:c2:f9:
         25:4c:59:53:12:cc:f0:f5:55:48:99:e9:cc:80:1b:54:e6:ad:
         db:fb:60:48:08:8a:79:02:db:d2:33:bd:a7:f3:27:83:75:d5:
         6e:31:d4:a8:67:67:08:30:b8:2f:a1:61:0e:2f:5a:77:bf:2b:
         d1:94:9b:9f:f8:af:fb:54:eb:ab:6f:bc:9c:74:5b:e2:c4:ce:
         2b:98:ea:83:3c:75:b4:ce:5a:96:0a:ee:2b:f8:72:d9:04:30:
         95:fe:3d:5d:1b:5f:6f:40:12:de:d2:c2:1b:0e:9c:29:fe:13:
         53:ae:49:25:1c:6d:db:4c:e3:74:0d:f7:6d:7d:0a:a1:80:83:
         a5:e9:cc:cb:d4:22:32:03:74:48:b1:5c:b0:aa:07:f3:63:3d:
         97:34:b3:17
-----BEGIN CERTIFICATE-----
MIIEwzCCA6ugAwIBAgIBZDANBgkqhkiG9w0BAQsFADCBlDELMAkGA1UEBhMCVVMx
EDAOBgNVBAgMB01vbnRhbmExEDAOBgNVBAcMB0JvemVtYW4xETAPBgNVBAoMCFNh
d3Rvb3RoMRMwEQYDVQQLDApDb25zdWx0aW5nMRgwFgYDVQQDDA93d3cud29sZnNz
bC5jb20xHzAdBgkqhkiG9w0BCQEWEGluZm9Ad29sZnNzbC5jb20wHhcNMjEwMjEw
MTk0OTU0WhcNMjMxMTA3MTk0OTU0WjCBozELMAkGA1UEBhMCVVMxEzARBgNVBAgM
Cldhc2hpbmd0b24xEDAOBgNVBAcMB1NlYXR0bGUxFTATBgNVBAoMDHdvbGZTU0wg
SW5jLjEUMBIGA1UECwwLRW5naW5lZXJpbmcxHzAdBgNVBAMMFmNoYWluRC1JQ0Ex
LXBhdGhsZW4xMjcxHzAdBgkqhkiG9w0BCQEWEGluZm9Ad29sZnNzbC5jb20wggEi
MA0GCSqGSIb3DQEBAQUAA4IBDwAwggEKAoIBAQDXgXipGZkS0c89UVQd0xSU7T7e
/+Aj5Pcj/FxJJNg2k+Yq7qerxo3JrUBFyUQGR0wNZQnd2+Lwvc15HOzRjd7y/2b1
sr1DzFh/HdtLl6WDXIdem3OHyB0rR5JV5Nu+UdXrdsKqWXJ79icvvsDb3Dzy4hnJ
sDC7LqKVSAa9jp29jGtexppzS2ywIJZHRNMJa2or+oZfHQunYiJy1VYcqpeMzlej
D+a8zWNUVWCHUOv6jOkVcLNcTQ4nYP0HbozsP6AlxQFZo/wtgEuETBC1yKdrseXF
wZqw1kswIbpCZeA/Wc9/SUs7z2IG9ImuW4FdFWP7fCmmtc/ztbVmBk+j2mc5AgMB
AAGjggENMIIBCTAdBgNVHQ4EFgQUZ3j5rRxTQR9GvUmbcy583FwtC/swgckGA1Ud
IwSBwTCBvoAUJ45nEXTDJh0/7TNjs6TYHTDl6NWhgZqkgZcwgZQxCzAJBgNVBAYT
AlVTMRAwDgYDVQQIDAdNb250YW5hMRAwDgYDVQQHDAdCb3plbWFuMREwDwYDVQQK
DAhTYXd0b290aDETMBEGA1UECwwKQ29uc3VsdGluZzEYMBYGA1UEAwwPd3d3Lndv
bGZzc2wuY29tMR8wHQYJKoZIhvcNAQkBFhBpbmZvQHdvbGZzc2wuY29tggkAqtM/
rBgKN00wDwYDVR0TBAgwBgEB/wIBfzALBgNVHQ8EBAMCAQYwDQYJKoZIhvcNAQEL
BQADggEBADMD0MXiTJFPfRobLTGlSL+8hmz1DCgvYRKAyH5F1vmGf8Tl9j8EeeUz
XUgVlMYeLnV9RS8zdVTRKc+IajeRqilBaUaruuZvgVzPRFlQT/BJ1I+5pJyMe0mf
Q8mWAvvIHfMTlhK16ReP9EPC+SVMWVMSzPD1VUiZ6cyAG1Tmrdv7YEgIinkC29Iz
vafzJ4N11W4x1KhnZwgwuC+hYQ4vWne/K9GUm5/4r/tU66tvvJx0W+LEziuY6oM8
dbTOWpYK7iv4ctkEMJX+PV0bX29AEt7SwhsOnCn+E1OuSSUcbdtM43QN9219CqGA
g6XpzMvUIjIDdEixXLCqB/NjPZc0sxc=
-----END CERTIFICATE-----
