Certificate:
    Data:
        Version: 3 (0x2)
        Serial Number: 100 (0x64)
    Signature Algorithm: sha256WithRSAEncryption
        Issuer: C=US, ST=Montana, L=Bozeman, O=Sawtooth, OU=Consulting, CN=www.wolfssl.com/emailAddress=info@wolfssl.com
        Validity
            Not Before: Feb 10 19:49:54 2021 GMT
            Not After : Nov  7 19:49:54 2023 GMT
        Subject: C=US, ST=Washington, L=Seattle, O=wolfSSL Inc., OU=Engineering, CN=chainG-ICA7-pathlen100/emailAddress=info@wolfssl.com
        Subject Public Key Info:
            Public Key Algorithm: rsaEncryption
                Public-Key: (2048 bit)
                Modulus:
                    00:d6:8c:d6:c4:29:20:60:9d:15:3d:0c:2a:fb:24:
                    2f:38:89:ed:37:c4:fc:57:67:2a:50:d8:eb:e2:6a:
                    1c:59:06:f2:6d:3e:b9:4f:fe:49:c5:21:c0:16:f8:
                    29:6f:51:0c:ea:78:d7:0e:15:41:da:5a:cb:0b:e0:
                    54:d6:83:fd:0f:e8:4e:30:ff:e4:44:c3:b2:02:f3:
                    7d:3a:c6:5c:4e:86:86:2c:74:d4:21:85:c1:fe:4e:
                    8b:07:3c:54:1b:54:9e:ec:5a:a5:95:ed:5a:35:e0:
                    08:c6:84:7c:e6:ae:71:12:d2:fd:c1:fd:16:0a:3a:
                    b8:c7:23:4b:af:e0:cd:12:5e:9f:4f:62:13:f0:c8:
                    e4:e2:a8:01:d3:37:b0:08:21:d3:0f:6c:e4:d8:c1:
                    04:51:e9:4c:c5:b1:6d:cc:63:23:97:30:ee:f0:1e:
                    ab:6d:ea:93:ca:ad:56:6f:1e:ed:1a:ae:8c:1b:91:
                    04:ea:ab:9d:1b:3b:56:a7:c1:cc:2f:39:2f:b3:ba:
                    8c:16:fd:5e:10:10:9e:24:ea:40:97:74:b6:b4:e5:
                    1c:c0:d3:5f:79:2c:04:43:3a:8e:f4:b1:56:bd:c7:
                    25:63:5c:34:50:4d:bd:2d:f1:08:bd:8c:3e:d2:6f:
                    fa:e4:04:a1:51:eb:d0:d0:90:91:97:7b:46:c6:10:
                    92:af
                Exponent: 65537 (0x10001)
        X509v3 extensions:
            X509v3 Subject Key Identifier: 
                12:E4:A4:19:85:AE:85:B7:D6:EB:63:04:D5:B9:B0:7E:57:5F:0C:16
            X509v3 Authority Key Identifier: 
                keyid:27:8E:67:11:74:C3:26:1D:3F:ED:33:63:B3:A4:D8:1D:30:E5:E8:D5
                DirName:/C=US/ST=Montana/L=Bozeman/O=Sawtooth/OU=Consulting/CN=www.wolfssl.com/emailAddress=info@wolfssl.com
                serial:AA:D3:3F:AC:18:0A:37:4D

            X509v3 Basic Constraints: 
                CA:TRUE, pathlen:100
            X509v3 Key Usage: 
                Certificate Sign, CRL Sign
    Signature Algorithm: sha256WithRSAEncryption
         26:72:76:89:e5:6a:e9:31:30:3d:c1:cf:15:f4:3f:dd:43:f0:
         6d:53:94:8b:90:fe:ea:94:93:bf:57:60:84:b5:a9:39:8b:a6:
         89:65:82:ce:f7:77:1e:ee:7a:65:a8:5d:dc:6f:13:5d:55:94:
         b5:ac:d2:24:ff:f1:f7:8e:49:91:da:86:b9:b6:c7:03:39:e9:
         a1:9b:78:f8:86:85:ab:a6:77:23:e5:02:33:83:e4:a1:c2:e7:
         ae:36:22:4c:2e:a3:81:44:2a:bf:ad:a5:a3:05:c0:7a:3f:c8:
         bc:e9:72:4b:04:1a:82:72:18:6a:8b:4d:2b:c2:53:dd:28:a5:
         d5:5d:b1:87:8a:a2:a7:3a:31:43:c2:79:45:27:61:a7:c1:9d:
         ae:8c:b7:cb:05:6f:04:2a:d7:1f:64:52:dd:ad:9a:b7:69:12:
         2e:82:d2:93:32:f2:03:df:3d:6c:07:6f:13:1d:28:af:ef:86:
         04:de:d6:15:3f:31:37:ff:42:32:8f:9c:64:d5:4f:55:81:3e:
         c8:01:95:51:cd:18:2d:57:9f:30:5c:b5:a8:bc:2e:3e:63:57:
         07:48:ea:ad:23:9f:25:8d:8b:3e:de:8c:6f:a1:52:79:37:a1:
         99:6f:df:0d:84:d9:8d:d8:db:d1:34:60:9e:3b:36:12:df:7b:
         f5:fb:59:1a
-----BEGIN CERTIFICATE-----
MIIEwzCCA6ugAwIBAgIBZDANBgkqhkiG9w0BAQsFADCBlDELMAkGA1UEBhMCVVMx
EDAOBgNVBAgMB01vbnRhbmExEDAOBgNVBAcMB0JvemVtYW4xETAPBgNVBAoMCFNh
d3Rvb3RoMRMwEQYDVQQLDApDb25zdWx0aW5nMRgwFgYDVQQDDA93d3cud29sZnNz
bC5jb20xHzAdBgkqhkiG9w0BCQEWEGluZm9Ad29sZnNzbC5jb20wHhcNMjEwMjEw
MTk0OTU0WhcNMjMxMTA3MTk0OTU0WjCBozELMAkGA1UEBhMCVVMxEzARBgNVBAgM
Cldhc2hpbmd0b24xEDAOBgNVBAcMB1NlYXR0bGUxFTATBgNVBAoMDHdvbGZTU0wg
SW5jLjEUMBIGA1UECwwLRW5naW5lZXJpbmcxHzAdBgNVBAMMFmNoYWluRy1JQ0E3
LXBhdGhsZW4xMDAxHzAdBgkqhkiG9w0BCQEWEGluZm9Ad29sZnNzbC5jb20wggEi
MA0GCSqGSIb3DQEBAQUAA4IBDwAwggEKAoIBAQDWjNbEKSBgnRU9DCr7JC84ie03
xPxXZypQ2OviahxZBvJtPrlP/knFIcAW+ClvUQzqeNcOFUHaWssL4FTWg/0P6E4w
/+REw7IC8306xlxOhoYsdNQhhcH+TosHPFQbVJ7sWqWV7Vo14AjGhHzmrnES0v3B
/RYKOrjHI0uv4M0SXp9PYhPwyOTiqAHTN7AIIdMPbOTYwQRR6UzFsW3MYyOXMO7w
Hqtt6pPKrVZvHu0arowbkQTqq50bO1anwcwvOS+zuowW/V4QEJ4k6kCXdLa05RzA
0195LARDOo70sVa9xyVjXDRQTb0t8Qi9jD7Sb/rkBKFR69DQkJGXe0bGEJKvAgMB
AAGjggENMIIBCTAdBgNVHQ4EFgQUEuSkGYWuhbfW62ME1bmwfldfDBYwgckGA1Ud
IwSBwTCBvoAUJ45nEXTDJh0/7TNjs6TYHTDl6NWhgZqkgZcwgZQxCzAJBgNVBAYT
AlVTMRAwDgYDVQQIDAdNb250YW5hMRAwDgYDVQQHDAdCb3plbWFuMREwDwYDVQQK
DAhTYXd0b290aDETMBEGA1UECwwKQ29uc3VsdGluZzEYMBYGA1UEAwwPd3d3Lndv
bGZzc2wuY29tMR8wHQYJKoZIhvcNAQkBFhBpbmZvQHdvbGZzc2wuY29tggkAqtM/
rBgKN00wDwYDVR0TBAgwBgEB/wIBZDALBgNVHQ8EBAMCAQYwDQYJKoZIhvcNAQEL
BQADggEBACZydonlaukxMD3BzxX0P91D8G1TlIuQ/uqUk79XYIS1qTmLpollgs73
dx7uemWoXdxvE11VlLWs0iT/8feOSZHahrm2xwM56aGbePiGhaumdyPlAjOD5KHC
5642Ikwuo4FEKr+tpaMFwHo/yLzpcksEGoJyGGqLTSvCU90opdVdsYeKoqc6MUPC
eUUnYafBna6Mt8sFbwQq1x9kUt2tmrdpEi6C0pMy8gPfPWwHbxMdKK/vhgTe1hU/
MTf/QjKPnGTVT1WBPsgBlVHNGC1XnzBctai8Lj5jVwdI6q0jnyWNiz7ejG+hUnk3
oZlv3w2E2Y3Y29E0YJ47NhLfe/X7WRo=
-----END CERTIFICATE-----
