Certificate:
    Data:
        Version: 3 (0x2)
        Serial Number: 100 (0x64)
        Signature Algorithm: sha256WithRSAEncryption
        Issuer: C = US, ST = Montana, L = Bozeman, O = Sawtooth, OU = Consulting, CN = www.wolfssl.com, emailAddress = info@wolfssl.com
        Validity
            Not Before: Dec 20 23:07:25 2021 GMT
            Not After : Sep 15 23:07:25 2024 GMT
        Subject: C = US, ST = Washington, L = Seattle, O = wolfSSL Inc., OU = Engineering, CN = chainD-ICA1-pathlen127, emailAddress = info@wolfssl.com
        Subject Public Key Info:
            Public Key Algorithm: rsaEncryption
                RSA Public-Key: (2048 bit)
                Modulus:
                    00:d7:81:78:a9:19:99:12:d1:cf:3d:51:54:1d:d3:
                    14:94:ed:3e:de:ff:e0:23:e4:f7:23:fc:5c:49:24:
                    d8:36:93:e6:2a:ee:a7:ab:c6:8d:c9:ad:40:45:c9:
                    44:06:47:4c:0d:65:09:dd:db:e2:f0:bd:cd:79:1c:
                    ec:d1:8d:de:f2:ff:66:f5:b2:bd:43:cc:58:7f:1d:
                    db:4b:97:a5:83:5c:87:5e:9b:73:87:c8:1d:2b:47:
                    92:55:e4:db:be:51:d5:eb:76:c2:aa:59:72:7b:f6:
                    27:2f:be:c0:db:dc:3c:f2:e2:19:c9:b0:30:bb:2e:
                    a2:95:48:06:bd:8e:9d:bd:8c:6b:5e:c6:9a:73:4b:
                    6c:b0:20:96:47:44:d3:09:6b:6a:2b:fa:86:5f:1d:
                    0b:a7:62:22:72:d5:56:1c:aa:97:8c:ce:57:a3:0f:
                    e6:bc:cd:63:54:55:60:87:50:eb:fa:8c:e9:15:70:
                    b3:5c:4d:0e:27:60:fd:07:6e:8c:ec:3f:a0:25:c5:
                    01:59:a3:fc:2d:80:4b:84:4c:10:b5:c8:a7:6b:b1:
                    e5:c5:c1:9a:b0:d6:4b:30:21:ba:42:65:e0:3f:59:
                    cf:7f:49:4b:3b:cf:62:06:f4:89:ae:5b:81:5d:15:
                    63:fb:7c:29:a6:b5:cf:f3:b5:b5:66:06:4f:a3:da:
                    67:39
                Exponent: 65537 (0x10001)
        X509v3 extensions:
            X509v3 Subject Key Identifier: 
                67:78:F9:AD:1C:53:41:1F:46:BD:49:9B:73:2E:7C:DC:5C:2D:0B:FB
            X509v3 Authority Key Identifier: 
                keyid:27:8E:67:11:74:C3:26:1D:3F:ED:33:63:B3:A4:D8:1D:30:E5:E8:D5
                DirName:/C=US/ST=Montana/L=Bozeman/O=Sawtooth/OU=Consulting/CN=www.wolfssl.com/emailAddress=info@wolfssl.com
                serial:7D:94:70:88:BA:07:42:8D:AA:AF:4F:BE:C2:1A:48:F0:D1:40:E6:42

            X509v3 Basic Constraints: 
                CA:TRUE, pathlen:127
            X509v3 Key Usage: 
                Certificate Sign, CRL Sign
    Signature Algorithm: sha256WithRSAEncryption
         92:5a:c3:d5:88:88:3f:0d:b5:b6:87:4a:6d:0d:4d:f0:34:ea:
         0c:b9:73:30:b3:5e:83:3e:6c:16:63:13:dc:d1:d4:6a:c3:86:
         42:93:5c:85:55:41:5b:5d:42:8c:65:f4:bf:63:6b:7e:2f:f8:
         66:5e:a3:1b:6c:0c:29:47:f7:fb:d9:74:8c:62:de:7d:13:26:
         81:0a:ea:03:d9:e0:25:6e:40:6d:5e:a1:12:ef:8e:97:f0:97:
         64:2f:84:3d:24:27:bb:25:89:94:51:d8:c6:d4:e3:15:83:5b:
         be:4a:a9:61:1a:d1:2f:79:f5:25:3a:a2:e2:d0:92:bf:6f:05:
         09:1d:d5:a8:a8:51:19:70:c4:08:d3:6a:72:08:75:1f:e2:08:
         1e:40:93:93:8c:54:22:ec:a1:2d:37:b3:ab:07:13:88:2b:bf:
         94:be:66:03:ba:e6:2a:69:5d:18:86:c4:4e:06:b5:7a:23:8e:
         82:b8:45:fa:2f:91:b4:04:b5:b8:ef:ad:95:da:9b:70:fe:b5:
         61:cf:9e:ee:51:84:41:35:8a:ef:65:23:a3:8c:30:7f:37:a8:
         0b:5d:94:43:35:0a:2e:1e:19:4e:00:ee:d4:a0:57:ad:5c:25:
         9c:fe:57:75:0e:6b:42:fa:73:5f:92:f0:25:7d:63:cc:1c:59:
         02:96:ba:dd
-----BEGIN CERTIFICATE-----
MIIEzjCCA7agAwIBAgIBZDANBgkqhkiG9w0BAQsFADCBlDELMAkGA1UEBhMCVVMx
EDAOBgNVBAgMB01vbnRhbmExEDAOBgNVBAcMB0JvemVtYW4xETAPBgNVBAoMCFNh
d3Rvb3RoMRMwEQYDVQQLDApDb25zdWx0aW5nMRgwFgYDVQQDDA93d3cud29sZnNz
bC5jb20xHzAdBgkqhkiG9w0BCQEWEGluZm9Ad29sZnNzbC5jb20wHhcNMjExMjIw
MjMwNzI1WhcNMjQwOTE1MjMwNzI1WjCBozELMAkGA1UEBhMCVVMxEzARBgNVBAgM
Cldhc2hpbmd0b24xEDAOBgNVBAcMB1NlYXR0bGUxFTATBgNVBAoMDHdvbGZTU0wg
SW5jLjEUMBIGA1UECwwLRW5naW5lZXJpbmcxHzAdBgNVBAMMFmNoYWluRC1JQ0Ex
LXBhdGhsZW4xMjcxHzAdBgkqhkiG9w0BCQEWEGluZm9Ad29sZnNzbC5jb20wggEi
MA0GCSqGSIb3DQEBAQUAA4IBDwAwggEKAoIBAQDXgXipGZkS0c89UVQd0xSU7T7e
/+Aj5Pcj/FxJJNg2k+Yq7qerxo3JrUBFyUQGR0wNZQnd2+Lwvc15HOzRjd7y/2b1
sr1DzFh/HdtLl6WDXIdem3OHyB0rR5JV5Nu+UdXrdsKqWXJ79icvvsDb3Dzy4hnJ
sDC7LqKVSAa9jp29jGtexppzS2ywIJZHRNMJa2or+oZfHQunYiJy1VYcqpeMzlej
D+a8zWNUVWCHUOv6jOkVcLNcTQ4nYP0HbozsP6AlxQFZo/wtgEuETBC1yKdrseXF
wZqw1kswIbpCZeA/Wc9/SUs7z2IG9ImuW4FdFWP7fCmmtc/ztbVmBk+j2mc5AgMB
AAGjggEYMIIBFDAdBgNVHQ4EFgQUZ3j5rRxTQR9GvUmbcy583FwtC/swgdQGA1Ud
IwSBzDCByYAUJ45nEXTDJh0/7TNjs6TYHTDl6NWhgZqkgZcwgZQxCzAJBgNVBAYT
AlVTMRAwDgYDVQQIDAdNb250YW5hMRAwDgYDVQQHDAdCb3plbWFuMREwDwYDVQQK
DAhTYXd0b290aDETMBEGA1UECwwKQ29uc3VsdGluZzEYMBYGA1UEAwwPd3d3Lndv
bGZzc2wuY29tMR8wHQYJKoZIhvcNAQkBFhBpbmZvQHdvbGZzc2wuY29tghR9lHCI
ugdCjaqvT77CGkjw0UDmQjAPBgNVHRMECDAGAQH/AgF/MAsGA1UdDwQEAwIBBjAN
BgkqhkiG9w0BAQsFAAOCAQEAklrD1YiIPw21todKbQ1N8DTqDLlzMLNegz5sFmMT
3NHUasOGQpNchVVBW11CjGX0v2Nrfi/4Zl6jG2wMKUf3+9l0jGLefRMmgQrqA9ng
JW5AbV6hEu+Ol/CXZC+EPSQnuyWJlFHYxtTjFYNbvkqpYRrRL3n1JTqi4tCSv28F
CR3VqKhRGXDECNNqcgh1H+IIHkCTk4xUIuyhLTezqwcTiCu/lL5mA7rmKmldGIbE
Tga1eiOOgrhF+i+RtAS1uO+tldqbcP61Yc+e7lGEQTWK72Ujo4wwfzeoC12UQzUK
Lh4ZTgDu1KBXrVwlnP5XdQ5rQvpzX5LwJX1jzBxZApa63Q==
-----END CERTIFICATE-----
