Certificate:
    Data:
        Version: 3 (0x2)
        Serial Number: 101 (0x65)
        Signature Algorithm: sha256WithRSAEncryption
        Issuer: C=US, ST=Washington, L=Seattle, O=wolfSSL Inc., OU=Engineering, CN=chainH-ICA1-pathlen0, emailAddress=facts@wolfssl.com
        Validity
            Not Before: Jun 11 21:44:40 2026 GMT
            Not After : Mar  7 21:44:40 2029 GMT
        Subject: C=US, ST=Washington, L=Seattle, O=wolfSSL Inc., OU=Engineering, CN=chainH-entity, emailAddress=facts@wolfssl.com
        Subject Public Key Info:
            Public Key Algorithm: rsaEncryption
                Public-Key: (2048 bit)
                Modulus:
                    00:ba:ed:ab:c0:0d:92:6c:10:e4:50:9f:7c:98:cc:
                    87:fd:28:34:77:c0:58:28:52:2c:28:97:80:ec:78:
                    02:4f:f4:ca:60:f8:1d:e7:6a:04:52:2e:75:85:42:
                    74:76:00:e4:70:84:b8:51:8e:29:2e:7f:b6:ad:df:
                    6d:09:b4:4f:11:54:1e:88:16:e2:0e:af:30:f0:3d:
                    a7:da:9f:4e:0d:94:5b:05:51:9c:cc:05:65:8d:6b:
                    1e:3c:79:5b:26:7e:cb:ae:e9:9a:71:69:92:41:9b:
                    1a:cd:b4:53:0b:fb:2e:40:c4:e3:b1:5e:b8:8b:f8:
                    cf:0a:ec:5f:07:10:18:54:f8:8a:7d:35:97:7a:7a:
                    98:ea:93:2d:1b:e6:44:16:3f:cc:a7:4c:b9:cf:b5:
                    0b:09:47:b3:b8:8e:02:1a:56:69:37:b7:49:a4:59:
                    90:a3:20:88:f3:87:77:e8:39:0d:39:36:a5:56:b3:
                    ec:4b:f3:5e:8b:c2:cd:47:0c:d9:56:ce:32:f7:71:
                    33:db:7f:7d:c6:1e:7e:71:c1:01:06:98:9e:52:98:
                    9d:d7:9d:4a:32:94:3c:5a:42:66:00:ca:e2:a3:35:
                    db:b7:f3:27:0b:9c:fa:1b:99:4b:51:fa:6c:25:90:
                    f5:76:8c:d9:0d:80:8c:ac:61:eb:4d:92:12:6d:5f:
                    12:e5
                Exponent: 65537 (0x10001)
        X509v3 extensions:
            X509v3 Subject Key Identifier: 
                ED:62:FB:8F:91:CB:DE:B0:C8:89:CE:BA:B5:80:A8:47:F1:72:16:05
            X509v3 Authority Key Identifier: 
                keyid:48:80:87:28:EF:E6:28:0F:03:9B:DF:33:48:10:A0:E5:20:B3:69:50
                DirName:/C=US/ST=Washington/L=Seattle/O=wolfSSL Inc./OU=Engineering/CN=chainH-ICA2-pathlen2/emailAddress=facts@wolfssl.com
                serial:64
            X509v3 Basic Constraints: 
                CA:FALSE
    Signature Algorithm: sha256WithRSAEncryption
    Signature Value:
        3b:cb:b4:87:12:8e:d2:be:c5:b0:49:26:f7:ac:11:1f:89:f3:
        d4:23:a0:15:e6:c3:63:44:c8:62:ec:28:ac:5e:f7:a7:01:a8:
        91:65:21:8f:b0:e8:99:16:bd:a3:74:4d:06:95:6a:a2:88:55:
        ee:92:89:fe:10:b1:b1:e0:aa:04:3c:71:b8:1d:2c:c3:02:57:
        21:df:ef:cb:0c:2b:92:15:e3:d8:e4:10:8f:ea:37:78:23:dc:
        6d:cc:d0:60:2e:eb:b7:26:87:a6:41:ec:6f:78:ba:f8:e5:ca:
        89:16:ac:dc:ef:e1:1e:df:d8:cd:87:08:63:c4:3e:ae:17:da:
        2b:68:8f:44:11:7c:53:c9:96:bf:eb:28:b6:69:a6:65:12:8c:
        d5:d8:ea:ff:35:a1:6d:23:13:3f:63:55:45:89:94:5e:64:ce:
        1e:76:58:42:e4:b1:06:30:e5:af:f2:95:ea:48:d4:66:98:15:
        09:19:22:6d:7b:4d:77:d7:fb:d1:2f:6d:cb:25:09:07:bc:20:
        af:fc:3a:94:dc:90:c0:f1:50:5a:54:c8:3b:22:a9:ee:82:42:
        2e:63:34:c6:9b:58:98:8b:d3:0d:c5:d7:bd:3a:bf:2b:1e:6b:
        e2:7c:dd:a6:87:4e:49:68:28:03:dd:27:10:eb:09:32:af:66:
        d1:7d:7e:a1
-----BEGIN CERTIFICATE-----
MIIEujCCA6KgAwIBAgIBZTANBgkqhkiG9w0BAQsFADCBojELMAkGA1UEBhMCVVMx
EzARBgNVBAgMCldhc2hpbmd0b24xEDAOBgNVBAcMB1NlYXR0bGUxFTATBgNVBAoM
DHdvbGZTU0wgSW5jLjEUMBIGA1UECwwLRW5naW5lZXJpbmcxHTAbBgNVBAMMFGNo
YWluSC1JQ0ExLXBhdGhsZW4wMSAwHgYJKoZIhvcNAQkBFhFmYWN0c0B3b2xmc3Ns
LmNvbTAeFw0yNjA2MTEyMTQ0NDBaFw0yOTAzMDcyMTQ0NDBaMIGbMQswCQYDVQQG
EwJVUzETMBEGA1UECAwKV2FzaGluZ3RvbjEQMA4GA1UEBwwHU2VhdHRsZTEVMBMG
A1UECgwMd29sZlNTTCBJbmMuMRQwEgYDVQQLDAtFbmdpbmVlcmluZzEWMBQGA1UE
AwwNY2hhaW5ILWVudGl0eTEgMB4GCSqGSIb3DQEJARYRZmFjdHNAd29sZnNzbC5j
b20wggEiMA0GCSqGSIb3DQEBAQUAA4IBDwAwggEKAoIBAQC67avADZJsEORQn3yY
zIf9KDR3wFgoUiwol4DseAJP9Mpg+B3nagRSLnWFQnR2AORwhLhRjikuf7at320J
tE8RVB6IFuIOrzDwPafan04NlFsFUZzMBWWNax48eVsmfsuu6ZpxaZJBmxrNtFML
+y5AxOOxXriL+M8K7F8HEBhU+Ip9NZd6epjqky0b5kQWP8ynTLnPtQsJR7O4jgIa
Vmk3t0mkWZCjIIjzh3foOQ05NqVWs+xL816Lws1HDNlWzjL3cTPbf33GHn5xwQEG
mJ5SmJ3XnUoylDxaQmYAyuKjNdu38ycLnPobmUtR+mwlkPV2jNkNgIysYetNkhJt
XxLlAgMBAAGjgf8wgfwwHQYDVR0OBBYEFO1i+4+Ry96wyInOurWAqEfxchYFMIHP
BgNVHSMEgccwgcSAFEiAhyjv5igPA5vfM0gQoOUgs2lQoYGopIGlMIGiMQswCQYD
VQQGEwJVUzETMBEGA1UECAwKV2FzaGluZ3RvbjEQMA4GA1UEBwwHU2VhdHRsZTEV
MBMGA1UECgwMd29sZlNTTCBJbmMuMRQwEgYDVQQLDAtFbmdpbmVlcmluZzEdMBsG
A1UEAwwUY2hhaW5ILUlDQTItcGF0aGxlbjIxIDAeBgkqhkiG9w0BCQEWEWZhY3Rz
QHdvbGZzc2wuY29tggFkMAkGA1UdEwQCMAAwDQYJKoZIhvcNAQELBQADggEBADvL
tIcSjtK+xbBJJvesER+J89QjoBXmw2NEyGLsKKxe96cBqJFlIY+w6JkWvaN0TQaV
aqKIVe6Sif4QsbHgqgQ8cbgdLMMCVyHf78sMK5IV49jkEI/qN3gj3G3M0GAu67cm
h6ZB7G94uvjlyokWrNzv4R7f2M2HCGPEPq4X2itoj0QRfFPJlr/rKLZppmUSjNXY
6v81oW0jEz9jVUWJlF5kzh52WELksQYw5a/ylepI1GaYFQkZIm17TXfX+9Evbcsl
CQe8IK/8OpTckMDxUFpUyDsiqe6CQi5jNMabWJiL0w3F1706vysea+J83aaHTklo
KAPdJxDrCTKvZtF9fqE=
-----END CERTIFICATE-----
