Certificate:
    Data:
        Version: 3 (0x2)
        Serial Number: 101 (0x65)
        Signature Algorithm: sha1WithRSAEncryption
        Issuer: C = US, ST = Washington, L = Seattle, O = wolfSSL Inc., OU = Engineering, CN = chainH-ICA1-pathlen0, emailAddress = info@wolfssl.com
        Validity
            Not Before: Oct 10 21:32:43 2019 GMT
            Not After : Jul  6 21:32:43 2022 GMT
        Subject: C = US, ST = Washington, L = Seattle, O = wolfSSL Inc., OU = Engineering, CN = chainH-entity, emailAddress = info@wolfssl.com
        Subject Public Key Info:
            Public Key Algorithm: rsaEncryption
                RSA Public-Key: (2048 bit)
                Modulus:
                    00:ba:ed:ab:c0:0d:92:6c:10:e4:50:9f:7c:98:cc:
                    87:fd:28:34:77:c0:58:28:52:2c:28:97:80:ec:78:
                    02:4f:f4:ca:60:f8:1d:e7:6a:04:52:2e:75:85:42:
                    74:76:00:e4:70:84:b8:51:8e:29:2e:7f:b6:ad:df:
                    6d:09:b4:4f:11:54:1e:88:16:e2:0e:af:30:f0:3d:
                    a7:da:9f:4e:0d:94:5b:05:51:9c:cc:05:65:8d:6b:
                    1e:3c:79:5b:26:7e:cb:ae:e9:9a:71:69:92:41:9b:
                    1a:cd:b4:53:0b:fb:2e:40:c4:e3:b1:5e:b8:8b:f8:
                    cf:0a:ec:5f:07:10:18:54:f8:8a:7d:35:97:7a:7a:
                    98:ea:93:2d:1b:e6:44:16:3f:cc:a7:4c:b9:cf:b5:
                    0b:09:47:b3:b8:8e:02:1a:56:69:37:b7:49:a4:59:
                    90:a3:20:88:f3:87:77:e8:39:0d:39:36:a5:56:b3:
                    ec:4b:f3:5e:8b:c2:cd:47:0c:d9:56:ce:32:f7:71:
                    33:db:7f:7d:c6:1e:7e:71:c1:01:06:98:9e:52:98:
                    9d:d7:9d:4a:32:94:3c:5a:42:66:00:ca:e2:a3:35:
                    db:b7:f3:27:0b:9c:fa:1b:99:4b:51:fa:6c:25:90:
                    f5:76:8c:d9:0d:80:8c:ac:61:eb:4d:92:12:6d:5f:
                    12:e5
                Exponent: 65537 (0x10001)
        X509v3 extensions:
            X509v3 Subject Key Identifier: 
                ED:62:FB:8F:91:CB:DE:B0:C8:89:CE:BA:B5:80:A8:47:F1:72:16:05
            X509v3 Authority Key Identifier: 
                keyid:48:80:87:28:EF:E6:28:0F:03:9B:DF:33:48:10:A0:E5:20:B3:69:50
                DirName:/C=US/ST=Washington/L=Seattle/O=wolfSSL Inc./OU=Engineering/CN=chainH-ICA2-pathlen2/emailAddress=info@wolfssl.com
                serial:64

            X509v3 Basic Constraints: 
                CA:FALSE
    Signature Algorithm: sha1WithRSAEncryption
         31:c8:96:b3:a0:e8:ea:ea:f5:92:e1:5c:3c:8c:52:49:fa:91:
         d1:e0:c2:bf:6c:1c:3a:e0:b7:44:c4:a8:c9:c9:ab:59:f7:56:
         8c:ab:d1:84:4b:86:7b:9d:11:ca:6a:45:a3:2b:b4:1b:0d:b2:
         fb:c2:b2:3f:22:67:58:2c:36:50:67:9f:5a:69:07:b5:3d:54:
         5e:1c:34:eb:ba:f1:b9:ad:da:ed:f3:7a:49:6e:3d:c7:df:cb:
         98:31:ea:f4:9e:aa:da:6e:c5:29:1b:8b:ab:91:4a:b3:be:16:
         d1:99:da:e1:f9:92:46:59:2e:fa:c9:cf:68:eb:80:a1:de:d4:
         0f:81:cc:c9:a8:25:1f:09:95:81:94:06:9c:b8:dc:f6:95:0c:
         e6:d6:32:87:92:b2:2d:9a:5b:f2:00:6d:91:4f:81:76:04:18:
         19:36:03:f6:5b:ec:ba:d1:49:14:48:8f:b7:b1:13:d8:50:41:
         d3:f9:f8:01:f9:56:7e:eb:f1:44:eb:42:e9:ad:4f:05:82:f1:
         cf:2e:b9:44:62:3e:ea:54:cd:56:94:f0:9c:c1:06:c2:ff:02:
         c9:60:23:b3:c6:ea:98:33:61:d7:9a:f4:79:1b:9a:a4:b9:c1:
         50:f4:7f:bc:24:88:a0:f8:12:4b:da:0b:2e:5b:a1:a5:00:6f:
         86:2f:da:d9
-----BEGIN CERTIFICATE-----
MIIEtzCCA5+gAwIBAgIBZTANBgkqhkiG9w0BAQUFADCBoTELMAkGA1UEBhMCVVMx
EzARBgNVBAgMCldhc2hpbmd0b24xEDAOBgNVBAcMB1NlYXR0bGUxFTATBgNVBAoM
DHdvbGZTU0wgSW5jLjEUMBIGA1UECwwLRW5naW5lZXJpbmcxHTAbBgNVBAMMFGNo
YWluSC1JQ0ExLXBhdGhsZW4wMR8wHQYJKoZIhvcNAQkBFhBpbmZvQHdvbGZzc2wu
Y29tMB4XDTE5MTAxMDIxMzI0M1oXDTIyMDcwNjIxMzI0M1owgZoxCzAJBgNVBAYT
AlVTMRMwEQYDVQQIDApXYXNoaW5ndG9uMRAwDgYDVQQHDAdTZWF0dGxlMRUwEwYD
VQQKDAx3b2xmU1NMIEluYy4xFDASBgNVBAsMC0VuZ2luZWVyaW5nMRYwFAYDVQQD
DA1jaGFpbkgtZW50aXR5MR8wHQYJKoZIhvcNAQkBFhBpbmZvQHdvbGZzc2wuY29t
MIIBIjANBgkqhkiG9w0BAQEFAAOCAQ8AMIIBCgKCAQEAuu2rwA2SbBDkUJ98mMyH
/Sg0d8BYKFIsKJeA7HgCT/TKYPgd52oEUi51hUJ0dgDkcIS4UY4pLn+2rd9tCbRP
EVQeiBbiDq8w8D2n2p9ODZRbBVGczAVljWsePHlbJn7LrumacWmSQZsazbRTC/su
QMTjsV64i/jPCuxfBxAYVPiKfTWXenqY6pMtG+ZEFj/Mp0y5z7ULCUezuI4CGlZp
N7dJpFmQoyCI84d36DkNOTalVrPsS/Nei8LNRwzZVs4y93Ez2399xh5+ccEBBpie
Upid151KMpQ8WkJmAMriozXbt/MnC5z6G5lLUfpsJZD1dozZDYCMrGHrTZISbV8S
5QIDAQABo4H+MIH7MB0GA1UdDgQWBBTtYvuPkcvesMiJzrq1gKhH8XIWBTCBzgYD
VR0jBIHGMIHDgBRIgIco7+YoDwOb3zNIEKDlILNpUKGBp6SBpDCBoTELMAkGA1UE
BhMCVVMxEzARBgNVBAgMCldhc2hpbmd0b24xEDAOBgNVBAcMB1NlYXR0bGUxFTAT
BgNVBAoMDHdvbGZTU0wgSW5jLjEUMBIGA1UECwwLRW5naW5lZXJpbmcxHTAbBgNV
BAMMFGNoYWluSC1JQ0EyLXBhdGhsZW4yMR8wHQYJKoZIhvcNAQkBFhBpbmZvQHdv
bGZzc2wuY29tggFkMAkGA1UdEwQCMAAwDQYJKoZIhvcNAQEFBQADggEBADHIlrOg
6Orq9ZLhXDyMUkn6kdHgwr9sHDrgt0TEqMnJq1n3Voyr0YRLhnudEcpqRaMrtBsN
svvCsj8iZ1gsNlBnn1ppB7U9VF4cNOu68bmt2u3zekluPcffy5gx6vSeqtpuxSkb
i6uRSrO+FtGZ2uH5kkZZLvrJz2jrgKHe1A+BzMmoJR8JlYGUBpy43PaVDObWMoeS
si2aW/IAbZFPgXYEGBk2A/Zb7LrRSRRIj7exE9hQQdP5+AH5Vn7r8UTrQumtTwWC
8c8uuURiPupUzVaU8JzBBsL/AslgI7PG6pgzYdea9HkbmqS5wVD0f7wkiKD4Ekva
Cy5boaUAb4Yv2tk=
-----END CERTIFICATE-----
Certificate:
    Data:
        Version: 3 (0x2)
        Serial Number: 100 (0x64)
        Signature Algorithm: sha1WithRSAEncryption
        Issuer: C = US, ST = Washington, L = Seattle, O = wolfSSL Inc., OU = Engineering, CN = chainH-ICA2-pathlen2, emailAddress = info@wolfssl.com
        Validity
            Not Before: Oct 10 21:32:43 2019 GMT
            Not After : Jul  6 21:32:43 2022 GMT
        Subject: C = US, ST = Washington, L = Seattle, O = wolfSSL Inc., OU = Engineering, CN = chainH-ICA1-pathlen0, emailAddress = info@wolfssl.com
        Subject Public Key Info:
            Public Key Algorithm: rsaEncryption
                RSA Public-Key: (2048 bit)
                Modulus:
                    00:c7:f4:a6:7e:f2:cb:4f:6e:04:18:d3:53:d5:cf:
                    bf:7e:97:d1:74:94:fe:db:ad:61:3f:12:20:67:f3:
                    10:83:7b:51:43:a3:0c:20:b7:35:63:f1:0a:ee:59:
                    74:82:72:fb:d1:d4:12:71:ec:0e:8f:69:c9:fb:af:
                    a7:2f:c4:3b:2c:66:34:ab:ac:80:c2:6d:4a:0e:54:
                    fe:f6:3e:3a:00:25:84:a7:cb:42:d5:e8:47:04:94:
                    e4:68:c3:f5:32:ad:21:89:d8:5e:f9:88:ee:7d:ce:
                    91:a3:16:fc:87:76:1f:2f:1d:4c:b1:2f:3d:4d:f4:
                    0a:6c:04:fd:49:cf:51:88:49:c4:03:65:63:1e:c8:
                    f1:34:1d:44:34:58:af:f5:ec:90:2a:8c:a9:38:7b:
                    dc:fa:5f:ed:00:ed:08:53:4d:f7:36:10:ed:71:41:
                    aa:e3:bf:e8:5d:ee:4e:36:39:57:7e:f4:fd:c3:f7:
                    8a:52:0f:f1:37:72:2b:ae:90:77:00:d6:7c:ec:ec:
                    ee:8d:f8:4b:fb:39:0a:45:49:81:31:41:3f:a9:bb:
                    7b:1c:8a:cf:31:09:c7:94:a7:70:4a:d4:bb:ea:61:
                    3d:9a:a1:8e:1b:8b:02:3b:1f:1f:c4:85:e9:7f:63:
                    0c:ea:e5:91:83:a8:5b:25:34:7c:a8:68:eb:97:6f:
                    74:99
                Exponent: 65537 (0x10001)
        X509v3 extensions:
            X509v3 Subject Key Identifier: 
                48:80:87:28:EF:E6:28:0F:03:9B:DF:33:48:10:A0:E5:20:B3:69:50
            X509v3 Authority Key Identifier: 
                keyid:80:49:61:8C:1D:13:08:56:B5:42:68:D5:B2:EA:89:2C:B4:8B:05:87
                DirName:/C=US/ST=Washington/L=Seattle/O=wolfSSL Inc./OU=Engineering/CN=chainH-ICA3-pathlen2/emailAddress=info@wolfssl.com
                serial:64

            X509v3 Basic Constraints: 
                CA:TRUE, pathlen:0
            X509v3 Key Usage: 
                Certificate Sign, CRL Sign
    Signature Algorithm: sha1WithRSAEncryption
         bf:22:d4:fb:ec:f5:70:8a:c3:02:6a:73:25:ac:1e:86:e1:cf:
         d0:d5:83:72:77:5c:06:da:36:ab:fa:d9:db:44:30:3c:b8:57:
         19:a9:47:cf:f6:c7:0c:02:31:94:78:3d:f0:6d:8b:05:58:05:
         7b:77:24:dc:95:a5:0e:41:d6:d2:f5:4b:1c:b9:37:ab:ae:7a:
         57:1e:c2:6d:49:9f:61:42:b7:d9:e8:2f:c3:c9:40:07:ec:e3:
         ef:5b:03:be:38:d4:9f:d8:0a:0b:ba:c2:52:94:ad:f9:f1:8e:
         ce:be:00:89:81:57:ae:2b:77:cc:3d:66:e3:27:57:d4:76:78:
         d7:da:a2:b1:c5:85:73:b7:b9:62:14:62:96:19:d1:85:7b:df:
         97:c0:97:c6:28:8e:e8:bc:05:92:43:be:27:b7:9a:81:9e:d3:
         c4:ad:41:ea:81:59:49:c5:c5:ab:56:73:a8:9b:55:c3:43:93:
         d5:02:e5:8f:05:52:97:f1:ce:ae:95:02:35:80:5d:e2:e9:0e:
         3e:ac:dc:3e:44:62:d4:e2:d9:30:e8:62:c5:86:85:eb:3d:3f:
         e6:7c:f2:25:23:c8:d2:62:3f:60:19:7d:ec:64:84:e1:80:97:
         1a:cc:0c:9a:75:6c:2e:5c:5b:ea:0a:0c:aa:bf:42:a2:d9:9c:
         cf:03:8c:6f
-----BEGIN CERTIFICATE-----
MIIE0zCCA7ugAwIBAgIBZDANBgkqhkiG9w0BAQUFADCBoTELMAkGA1UEBhMCVVMx
EzARBgNVBAgMCldhc2hpbmd0b24xEDAOBgNVBAcMB1NlYXR0bGUxFTATBgNVBAoM
DHdvbGZTU0wgSW5jLjEUMBIGA1UECwwLRW5naW5lZXJpbmcxHTAbBgNVBAMMFGNo
YWluSC1JQ0EyLXBhdGhsZW4yMR8wHQYJKoZIhvcNAQkBFhBpbmZvQHdvbGZzc2wu
Y29tMB4XDTE5MTAxMDIxMzI0M1oXDTIyMDcwNjIxMzI0M1owgaExCzAJBgNVBAYT
AlVTMRMwEQYDVQQIDApXYXNoaW5ndG9uMRAwDgYDVQQHDAdTZWF0dGxlMRUwEwYD
VQQKDAx3b2xmU1NMIEluYy4xFDASBgNVBAsMC0VuZ2luZWVyaW5nMR0wGwYDVQQD
DBRjaGFpbkgtSUNBMS1wYXRobGVuMDEfMB0GCSqGSIb3DQEJARYQaW5mb0B3b2xm
c3NsLmNvbTCCASIwDQYJKoZIhvcNAQEBBQADggEPADCCAQoCggEBAMf0pn7yy09u
BBjTU9XPv36X0XSU/tutYT8SIGfzEIN7UUOjDCC3NWPxCu5ZdIJy+9HUEnHsDo9p
yfuvpy/EOyxmNKusgMJtSg5U/vY+OgAlhKfLQtXoRwSU5GjD9TKtIYnYXvmI7n3O
kaMW/Id2Hy8dTLEvPU30CmwE/UnPUYhJxANlYx7I8TQdRDRYr/XskCqMqTh73Ppf
7QDtCFNN9zYQ7XFBquO/6F3uTjY5V370/cP3ilIP8TdyK66QdwDWfOzs7o34S/s5
CkVJgTFBP6m7exyKzzEJx5SncErUu+phPZqhjhuLAjsfH8SF6X9jDOrlkYOoWyU0
fKho65dvdJkCAwEAAaOCARIwggEOMB0GA1UdDgQWBBRIgIco7+YoDwOb3zNIEKDl
ILNpUDCBzgYDVR0jBIHGMIHDgBSASWGMHRMIVrVCaNWy6okstIsFh6GBp6SBpDCB
oTELMAkGA1UEBhMCVVMxEzARBgNVBAgMCldhc2hpbmd0b24xEDAOBgNVBAcMB1Nl
YXR0bGUxFTATBgNVBAoMDHdvbGZTU0wgSW5jLjEUMBIGA1UECwwLRW5naW5lZXJp
bmcxHTAbBgNVBAMMFGNoYWluSC1JQ0EzLXBhdGhsZW4yMR8wHQYJKoZIhvcNAQkB
FhBpbmZvQHdvbGZzc2wuY29tggFkMA8GA1UdEwQIMAYBAf8CAQAwCwYDVR0PBAQD
AgEGMA0GCSqGSIb3DQEBBQUAA4IBAQC/ItT77PVwisMCanMlrB6G4c/Q1YNyd1wG
2jar+tnbRDA8uFcZqUfP9scMAjGUeD3wbYsFWAV7dyTclaUOQdbS9UscuTerrnpX
HsJtSZ9hQrfZ6C/DyUAH7OPvWwO+ONSf2AoLusJSlK358Y7OvgCJgVeuK3fMPWbj
J1fUdnjX2qKxxYVzt7liFGKWGdGFe9+XwJfGKI7ovAWSQ74nt5qBntPErUHqgVlJ
xcWrVnOom1XDQ5PVAuWPBVKX8c6ulQI1gF3i6Q4+rNw+RGLU4tkw6GLFhoXrPT/m
fPIlI8jSYj9gGX3sZIThgJcazAyadWwuXFvqCgyqv0Ki2ZzPA4xv
-----END CERTIFICATE-----
Certificate:
    Data:
        Version: 3 (0x2)
        Serial Number: 100 (0x64)
        Signature Algorithm: sha1WithRSAEncryption
        Issuer: C = US, ST = Washington, L = Seattle, O = wolfSSL Inc., OU = Engineering, CN = chainH-ICA3-pathlen2, emailAddress = info@wolfssl.com
        Validity
            Not Before: Oct 10 21:32:43 2019 GMT
            Not After : Jul  6 21:32:43 2022 GMT
        Subject: C = US, ST = Washington, L = Seattle, O = wolfSSL Inc., OU = Engineering, CN = chainH-ICA2-pathlen2, emailAddress = info@wolfssl.com
        Subject Public Key Info:
            Public Key Algorithm: rsaEncryption
                RSA Public-Key: (2048 bit)
                Modulus:
                    00:d9:b5:af:4b:ba:83:03:23:df:50:28:a8:c2:0c:
                    2c:f0:04:cb:2d:04:9b:1e:f5:f4:68:bc:d4:8e:b4:
                    cd:46:04:a2:f5:14:9e:3e:33:d6:76:2d:54:f9:d5:
                    41:b5:7a:47:93:1a:54:80:a4:3d:8b:9d:80:ea:1c:
                    3a:3a:bb:d1:d4:b6:f1:f2:a3:bd:9e:5d:b8:85:01:
                    d7:c8:a0:27:f6:67:41:94:c5:95:91:11:cb:96:fc:
                    95:a9:bc:b5:be:58:77:5c:2b:9b:e9:24:7e:8b:6e:
                    10:a7:d5:3a:fa:05:21:27:14:d8:d2:5f:a2:58:12:
                    b4:d9:bd:88:1a:f1:e7:4c:9d:60:31:0b:1f:3f:8b:
                    af:3a:d9:ca:cf:d4:73:1b:b8:b0:3d:d5:96:5d:4e:
                    a3:62:8f:56:eb:3d:4c:f0:21:4f:f4:8c:c7:55:dd:
                    a6:dc:d9:15:a1:12:db:73:4d:bf:18:89:42:92:0e:
                    83:be:4f:aa:ee:8f:a8:ef:a1:27:01:73:16:29:c0:
                    e8:8c:23:c8:ff:95:68:cd:53:67:49:e5:73:b1:ec:
                    62:60:51:20:e8:a6:49:28:f5:2b:16:30:e8:8b:a6:
                    2f:f4:b7:37:99:8c:32:30:97:5d:16:bf:6b:5e:ba:
                    34:1f:d6:1b:2e:fc:79:f0:00:61:aa:a0:7a:2f:7b:
                    d2:83
                Exponent: 65537 (0x10001)
        X509v3 extensions:
            X509v3 Subject Key Identifier: 
                80:49:61:8C:1D:13:08:56:B5:42:68:D5:B2:EA:89:2C:B4:8B:05:87
            X509v3 Authority Key Identifier: 
                keyid:56:54:36:BE:23:2F:20:89:6D:A6:BA:9A:45:A4:88:0E:40:35:FD:F5
                DirName:/C=US/ST=Washington/L=Seattle/O=wolfSSL Inc./OU=Engineering/CN=chainH-ICA4-pathlen2/emailAddress=info@wolfssl.com
                serial:64

            X509v3 Basic Constraints: 
                CA:TRUE, pathlen:2
            X509v3 Key Usage: 
                Certificate Sign, CRL Sign
    Signature Algorithm: sha1WithRSAEncryption
         91:ae:28:e0:35:63:40:7b:39:7a:fd:da:cf:95:96:8d:b7:d1:
         cf:79:31:b9:f2:4e:25:1d:aa:24:71:10:dc:fe:65:41:3e:38:
         4a:35:19:2f:06:ea:4b:73:54:b0:ee:e9:c8:38:b8:a6:a4:ad:
         3e:c7:ff:12:25:0f:8a:78:93:d6:61:9e:a7:df:f0:4c:a2:da:
         cd:6e:a8:fc:03:01:30:90:de:2e:a4:cc:81:03:a8:b8:d5:3d:
         d6:3b:44:00:7c:60:71:88:d0:86:c5:a1:5c:26:d0:79:75:37:
         c8:c7:49:6b:01:90:8c:c2:6c:d1:1b:d3:69:b8:6c:07:66:eb:
         f0:f6:64:f5:a8:63:a8:6a:3b:15:3b:84:31:6a:1f:a2:8f:94:
         55:54:33:d4:42:11:83:3f:9f:16:20:0c:68:be:96:2d:9b:d5:
         51:0c:7a:21:c0:77:21:80:55:fe:11:70:3f:b7:71:04:be:1c:
         05:70:03:54:fc:17:68:ca:64:da:ac:78:21:2a:c3:6b:15:0c:
         e0:65:7f:93:78:99:2e:b5:37:01:58:ac:a2:7e:23:37:b3:81:
         98:32:29:d1:25:9f:e3:75:4e:46:8c:7d:fa:49:01:1e:c6:01:
         9e:0d:4b:f4:29:53:de:17:86:5a:ea:03:1a:f8:96:95:34:86:
         ec:b2:af:6c
-----BEGIN CERTIFICATE-----
MIIE0zCCA7ugAwIBAgIBZDANBgkqhkiG9w0BAQUFADCBoTELMAkGA1UEBhMCVVMx
EzARBgNVBAgMCldhc2hpbmd0b24xEDAOBgNVBAcMB1NlYXR0bGUxFTATBgNVBAoM
DHdvbGZTU0wgSW5jLjEUMBIGA1UECwwLRW5naW5lZXJpbmcxHTAbBgNVBAMMFGNo
YWluSC1JQ0EzLXBhdGhsZW4yMR8wHQYJKoZIhvcNAQkBFhBpbmZvQHdvbGZzc2wu
Y29tMB4XDTE5MTAxMDIxMzI0M1oXDTIyMDcwNjIxMzI0M1owgaExCzAJBgNVBAYT
AlVTMRMwEQYDVQQIDApXYXNoaW5ndG9uMRAwDgYDVQQHDAdTZWF0dGxlMRUwEwYD
VQQKDAx3b2xmU1NMIEluYy4xFDASBgNVBAsMC0VuZ2luZWVyaW5nMR0wGwYDVQQD
DBRjaGFpbkgtSUNBMi1wYXRobGVuMjEfMB0GCSqGSIb3DQEJARYQaW5mb0B3b2xm
c3NsLmNvbTCCASIwDQYJKoZIhvcNAQEBBQADggEPADCCAQoCggEBANm1r0u6gwMj
31AoqMIMLPAEyy0Emx719Gi81I60zUYEovUUnj4z1nYtVPnVQbV6R5MaVICkPYud
gOocOjq70dS28fKjvZ5duIUB18igJ/ZnQZTFlZERy5b8lam8tb5Yd1wrm+kkfotu
EKfVOvoFIScU2NJfolgStNm9iBrx50ydYDELHz+LrzrZys/Ucxu4sD3Vll1Oo2KP
Vus9TPAhT/SMx1XdptzZFaES23NNvxiJQpIOg75Pqu6PqO+hJwFzFinA6IwjyP+V
aM1TZ0nlc7HsYmBRIOimSSj1KxYw6IumL/S3N5mMMjCXXRa/a166NB/WGy78efAA
Yaqgei970oMCAwEAAaOCARIwggEOMB0GA1UdDgQWBBSASWGMHRMIVrVCaNWy6oks
tIsFhzCBzgYDVR0jBIHGMIHDgBRWVDa+Iy8giW2muppFpIgOQDX99aGBp6SBpDCB
oTELMAkGA1UEBhMCVVMxEzARBgNVBAgMCldhc2hpbmd0b24xEDAOBgNVBAcMB1Nl
YXR0bGUxFTATBgNVBAoMDHdvbGZTU0wgSW5jLjEUMBIGA1UECwwLRW5naW5lZXJp
bmcxHTAbBgNVBAMMFGNoYWluSC1JQ0E0LXBhdGhsZW4yMR8wHQYJKoZIhvcNAQkB
FhBpbmZvQHdvbGZzc2wuY29tggFkMA8GA1UdEwQIMAYBAf8CAQIwCwYDVR0PBAQD
AgEGMA0GCSqGSIb3DQEBBQUAA4IBAQCRrijgNWNAezl6/drPlZaNt9HPeTG58k4l
HaokcRDc/mVBPjhKNRkvBupLc1Sw7unIOLimpK0+x/8SJQ+KeJPWYZ6n3/BMotrN
bqj8AwEwkN4upMyBA6i41T3WO0QAfGBxiNCGxaFcJtB5dTfIx0lrAZCMwmzRG9Np
uGwHZuvw9mT1qGOoajsVO4Qxah+ij5RVVDPUQhGDP58WIAxovpYtm9VRDHohwHch
gFX+EXA/t3EEvhwFcANU/BdoymTarHghKsNrFQzgZX+TeJkutTcBWKyifiM3s4GY
MinRJZ/jdU5GjH36SQEexgGeDUv0KVPeF4Za6gMa+JaVNIbssq9s
-----END CERTIFICATE-----
Certificate:
    Data:
        Version: 3 (0x2)
        Serial Number: 100 (0x64)
        Signature Algorithm: sha1WithRSAEncryption
        Issuer: C = US, ST = Washington, L = Seattle, O = wolfSSL Inc., OU = Engineering, CN = chainH-ICA4-pathlen2, emailAddress = info@wolfssl.com
        Validity
            Not Before: Oct 10 21:32:43 2019 GMT
            Not After : Jul  6 21:32:43 2022 GMT
        Subject: C = US, ST = Washington, L = Seattle, O = wolfSSL Inc., OU = Engineering, CN = chainH-ICA3-pathlen2, emailAddress = info@wolfssl.com
        Subject Public Key Info:
            Public Key Algorithm: rsaEncryption
                RSA Public-Key: (2048 bit)
                Modulus:
                    00:b7:b3:1a:1b:4a:80:1b:a2:e5:95:14:bc:55:e4:
                    77:dc:f3:7b:8a:9f:34:7c:93:db:c9:c9:d0:8b:b8:
                    87:45:65:d3:a1:7d:46:f3:70:92:a9:d7:66:ef:3b:
                    b4:a8:16:b0:f0:be:67:70:aa:45:7b:09:bc:ca:77:
                    db:57:a4:24:54:0b:1a:da:5f:ad:64:a3:f1:49:83:
                    bc:9f:5d:c4:b4:da:43:04:aa:cc:c3:b0:4d:c2:f1:
                    73:c9:38:0d:4c:c9:ab:db:df:09:b3:5c:15:0b:66:
                    79:ad:6c:63:d1:38:cc:a6:2d:46:83:ce:19:1d:c1:
                    0b:6e:fc:38:b7:d8:8c:a2:6f:29:87:9b:21:cd:b0:
                    6b:e0:f8:1f:03:db:82:1d:8d:98:63:16:b6:74:47:
                    43:20:f2:a1:4b:16:8b:67:fd:bc:73:78:9b:f9:dd:
                    ba:49:d9:60:a9:b7:85:66:7f:a4:2a:05:c8:2d:93:
                    a0:9b:aa:bf:a6:31:e1:f2:c8:d3:1b:7b:79:d1:b6:
                    6c:ae:3b:6b:00:2e:6e:ae:10:dc:6c:88:dc:1b:93:
                    e8:56:99:8d:46:7e:49:3a:87:a0:b3:00:cc:2e:3b:
                    83:e1:6b:39:16:71:47:47:30:6d:6b:6c:9c:9f:e6:
                    ce:ec:20:2f:8f:c1:5d:ef:d3:84:32:6c:a5:cc:78:
                    fe:a1
                Exponent: 65537 (0x10001)
        X509v3 extensions:
            X509v3 Subject Key Identifier: 
                56:54:36:BE:23:2F:20:89:6D:A6:BA:9A:45:A4:88:0E:40:35:FD:F5
            X509v3 Authority Key Identifier: 
                keyid:18:6D:44:83:EE:1F:EC:B4:22:F0:9C:EB:54:1E:4A:15:58:01:AA:13
                DirName:/C=US/ST=Montana/L=Bozeman/O=Sawtooth/OU=Consulting/CN=www.wolfssl.com/emailAddress=info@wolfssl.com
                serial:64

            X509v3 Basic Constraints: 
                CA:TRUE, pathlen:2
            X509v3 Key Usage: 
                Certificate Sign, CRL Sign
    Signature Algorithm: sha1WithRSAEncryption
         6c:c3:93:16:3e:f6:9f:09:c0:5d:cc:47:8d:db:b8:9b:8e:3d:
         99:0d:37:d2:a1:bc:67:0d:21:a1:d4:6e:4b:35:14:ec:91:56:
         eb:6c:c2:e7:67:1c:0a:78:d7:d8:c8:0c:a3:7b:be:13:de:22:
         62:46:e4:50:89:cd:22:d3:18:2b:d8:2a:46:99:47:91:2f:4b:
         41:2d:42:3b:68:fb:1a:9c:3d:04:53:2d:c1:57:09:5b:99:13:
         1b:e6:99:83:4d:07:f7:3a:d6:45:8c:28:e5:bb:35:21:92:77:
         5c:d9:36:99:4b:3c:86:c7:59:31:08:8c:a9:7a:01:0d:89:06:
         62:c1:f5:95:09:c6:2a:a0:1b:01:28:b4:80:71:fd:84:b3:3c:
         6e:15:08:b7:2e:00:30:d0:b6:e8:6c:a0:5d:ad:7d:9b:52:ac:
         fd:f0:52:7d:f1:34:f9:f0:45:66:83:15:41:61:fd:3e:44:f1:
         df:b3:50:92:be:2e:f9:cc:a7:46:b2:e6:5f:a0:31:db:34:df:
         e7:a4:87:34:3f:9d:c3:58:86:22:06:56:98:56:98:cc:9b:1f:
         84:cf:a9:f9:50:c0:68:c1:c7:f8:a3:5a:5d:bd:0a:03:9f:46:
         8f:0e:94:2b:e3:0b:35:aa:b8:02:ba:9f:b9:d6:79:1c:1b:68:
         7e:4b:ec:a0
-----BEGIN CERTIFICATE-----
MIIExjCCA66gAwIBAgIBZDANBgkqhkiG9w0BAQUFADCBoTELMAkGA1UEBhMCVVMx
EzARBgNVBAgMCldhc2hpbmd0b24xEDAOBgNVBAcMB1NlYXR0bGUxFTATBgNVBAoM
DHdvbGZTU0wgSW5jLjEUMBIGA1UECwwLRW5naW5lZXJpbmcxHTAbBgNVBAMMFGNo
YWluSC1JQ0E0LXBhdGhsZW4yMR8wHQYJKoZIhvcNAQkBFhBpbmZvQHdvbGZzc2wu
Y29tMB4XDTE5MTAxMDIxMzI0M1oXDTIyMDcwNjIxMzI0M1owgaExCzAJBgNVBAYT
AlVTMRMwEQYDVQQIDApXYXNoaW5ndG9uMRAwDgYDVQQHDAdTZWF0dGxlMRUwEwYD
VQQKDAx3b2xmU1NMIEluYy4xFDASBgNVBAsMC0VuZ2luZWVyaW5nMR0wGwYDVQQD
DBRjaGFpbkgtSUNBMy1wYXRobGVuMjEfMB0GCSqGSIb3DQEJARYQaW5mb0B3b2xm
c3NsLmNvbTCCASIwDQYJKoZIhvcNAQEBBQADggEPADCCAQoCggEBALezGhtKgBui
5ZUUvFXkd9zze4qfNHyT28nJ0Iu4h0Vl06F9RvNwkqnXZu87tKgWsPC+Z3CqRXsJ
vMp321ekJFQLGtpfrWSj8UmDvJ9dxLTaQwSqzMOwTcLxc8k4DUzJq9vfCbNcFQtm
ea1sY9E4zKYtRoPOGR3BC278OLfYjKJvKYebIc2wa+D4HwPbgh2NmGMWtnRHQyDy
oUsWi2f9vHN4m/nduknZYKm3hWZ/pCoFyC2ToJuqv6Yx4fLI0xt7edG2bK47awAu
bq4Q3GyI3BuT6FaZjUZ+STqHoLMAzC47g+FrORZxR0cwbWtsnJ/mzuwgL4/BXe/T
hDJspcx4/qECAwEAAaOCAQUwggEBMB0GA1UdDgQWBBRWVDa+Iy8giW2muppFpIgO
QDX99TCBwQYDVR0jBIG5MIG2gBQYbUSD7h/stCLwnOtUHkoVWAGqE6GBmqSBlzCB
lDELMAkGA1UEBhMCVVMxEDAOBgNVBAgMB01vbnRhbmExEDAOBgNVBAcMB0JvemVt
YW4xETAPBgNVBAoMCFNhd3Rvb3RoMRMwEQYDVQQLDApDb25zdWx0aW5nMRgwFgYD
VQQDDA93d3cud29sZnNzbC5jb20xHzAdBgkqhkiG9w0BCQEWEGluZm9Ad29sZnNz
bC5jb22CAWQwDwYDVR0TBAgwBgEB/wIBAjALBgNVHQ8EBAMCAQYwDQYJKoZIhvcN
AQEFBQADggEBAGzDkxY+9p8JwF3MR43buJuOPZkNN9KhvGcNIaHUbks1FOyRVuts
wudnHAp419jIDKN7vhPeImJG5FCJzSLTGCvYKkaZR5EvS0EtQjto+xqcPQRTLcFX
CVuZExvmmYNNB/c61kWMKOW7NSGSd1zZNplLPIbHWTEIjKl6AQ2JBmLB9ZUJxiqg
GwEotIBx/YSzPG4VCLcuADDQtuhsoF2tfZtSrP3wUn3xNPnwRWaDFUFh/T5E8d+z
UJK+LvnMp0ay5l+gMds03+ekhzQ/ncNYhiIGVphWmMybH4TPqflQwGjBx/ijWl29
CgOfRo8OlCvjCzWquAK6n7nWeRwbaH5L7KA=
-----END CERTIFICATE-----
Certificate:
    Data:
        Version: 3 (0x2)
        Serial Number: 100 (0x64)
        Signature Algorithm: sha1WithRSAEncryption
        Issuer: C = US, ST = Montana, L = Bozeman, O = Sawtooth, OU = Consulting, CN = www.wolfssl.com, emailAddress = info@wolfssl.com
        Validity
            Not Before: Oct 10 21:32:43 2019 GMT
            Not After : Jul  6 21:32:43 2022 GMT
        Subject: C = US, ST = Washington, L = Seattle, O = wolfSSL Inc., OU = Engineering, CN = chainH-ICA4-pathlen2, emailAddress = info@wolfssl.com
        Subject Public Key Info:
            Public Key Algorithm: rsaEncryption
                RSA Public-Key: (2048 bit)
                Modulus:
                    00:bb:f3:2f:8a:cd:9e:87:f1:01:f3:a4:c0:2d:66:
                    36:d7:11:2e:64:08:e8:f1:99:fa:a6:9c:f4:bd:3b:
                    47:72:d2:0e:58:9d:3e:52:e7:da:a3:43:78:c3:c3:
                    93:e6:04:d3:ab:51:8a:1a:24:0e:7a:62:59:aa:c6:
                    42:9e:66:c1:61:5e:31:b1:4d:dc:37:a9:18:76:8d:
                    fe:cb:09:54:3f:4f:bb:5f:ab:ba:70:e9:b4:a1:5e:
                    a0:69:7e:45:3f:c0:cc:78:e9:f2:74:64:79:c2:6a:
                    16:d0:98:30:82:44:4a:b3:99:2c:66:30:ac:99:82:
                    04:2a:bf:0f:60:89:04:36:fa:29:d3:08:56:61:6a:
                    a8:33:40:9a:53:7d:20:a8:51:6f:9b:a0:d9:3e:dc:
                    9a:8b:1d:37:9e:ad:c9:fd:53:a7:04:dc:1f:36:3e:
                    d3:65:52:84:24:61:d0:4e:e2:41:60:bf:fb:fd:b2:
                    04:b3:3f:eb:14:99:5e:bc:e8:7d:e9:65:d1:3f:fe:
                    04:49:e5:bb:a3:2d:e3:db:96:df:d9:81:a0:32:d7:
                    01:b9:b8:02:8e:b9:a2:1f:0a:d4:24:17:3a:19:0f:
                    6d:3a:10:5f:5c:7d:b8:56:82:c7:7f:40:f0:2d:87:
                    63:c1:b1:d8:64:c7:3c:27:13:4a:63:82:21:b1:f2:
                    39:e9
                Exponent: 65537 (0x10001)
        X509v3 extensions:
            X509v3 Subject Key Identifier: 
                18:6D:44:83:EE:1F:EC:B4:22:F0:9C:EB:54:1E:4A:15:58:01:AA:13
            X509v3 Authority Key Identifier: 
                keyid:27:8E:67:11:74:C3:26:1D:3F:ED:33:63:B3:A4:D8:1D:30:E5:E8:D5
                DirName:/C=US/ST=Montana/L=Bozeman/O=Sawtooth/OU=Consulting/CN=www.wolfssl.com/emailAddress=info@wolfssl.com
                serial:86:FF:F5:8E:10:DE:B8:FB

            X509v3 Basic Constraints: 
                CA:TRUE, pathlen:2
            X509v3 Key Usage: 
                Certificate Sign, CRL Sign
    Signature Algorithm: sha1WithRSAEncryption
         3d:63:76:f3:81:94:77:9f:6b:19:c9:f3:7f:aa:cc:c3:24:a2:
         50:24:3e:d8:8c:97:34:03:f3:ed:4a:d9:66:71:fa:d4:33:cc:
         fa:48:b4:24:1e:70:2d:5a:ec:7d:5d:51:e9:9e:5c:5a:c2:77:
         be:64:6a:31:d0:b5:f3:a9:d3:4f:d6:fd:43:5f:3f:b2:5e:33:
         41:b1:df:d9:31:fb:22:45:33:8a:43:ec:40:b9:86:26:eb:91:
         0f:b1:fe:0b:65:26:1f:5a:7e:e7:40:1f:8e:aa:c4:23:46:fa:
         49:32:f9:bb:2a:e3:c0:c3:38:c8:f7:99:38:f9:dc:92:7f:8d:
         07:fe:ec:75:62:dc:33:62:28:f8:52:36:0c:31:54:15:0a:76:
         5d:57:f1:35:50:a8:6a:c9:95:dd:36:81:a6:5a:e8:ac:44:bc:
         c1:dd:d7:35:89:ad:eb:6f:69:6e:e5:d7:91:ee:0d:fb:14:50:
         2a:fd:2a:d8:f1:9c:65:ce:04:65:09:2d:8a:93:f3:3e:ae:73:
         07:50:43:51:fb:9c:7a:95:51:43:8e:4b:e3:09:72:d5:13:4c:
         b4:e3:31:c9:d7:bf:2e:e3:3d:12:e2:e3:e0:1c:6a:98:b5:f9:
         e2:9f:15:b3:8c:53:71:ed:81:0e:fb:8c:4c:f9:56:08:38:01:
         0f:90:4c:f8
-----BEGIN CERTIFICATE-----
MIIEwTCCA6mgAwIBAgIBZDANBgkqhkiG9w0BAQUFADCBlDELMAkGA1UEBhMCVVMx
EDAOBgNVBAgMB01vbnRhbmExEDAOBgNVBAcMB0JvemVtYW4xETAPBgNVBAoMCFNh
d3Rvb3RoMRMwEQYDVQQLDApDb25zdWx0aW5nMRgwFgYDVQQDDA93d3cud29sZnNz
bC5jb20xHzAdBgkqhkiG9w0BCQEWEGluZm9Ad29sZnNzbC5jb20wHhcNMTkxMDEw
MjEzMjQzWhcNMjIwNzA2MjEzMjQzWjCBoTELMAkGA1UEBhMCVVMxEzARBgNVBAgM
Cldhc2hpbmd0b24xEDAOBgNVBAcMB1NlYXR0bGUxFTATBgNVBAoMDHdvbGZTU0wg
SW5jLjEUMBIGA1UECwwLRW5naW5lZXJpbmcxHTAbBgNVBAMMFGNoYWluSC1JQ0E0
LXBhdGhsZW4yMR8wHQYJKoZIhvcNAQkBFhBpbmZvQHdvbGZzc2wuY29tMIIBIjAN
BgkqhkiG9w0BAQEFAAOCAQ8AMIIBCgKCAQEAu/Mvis2eh/EB86TALWY21xEuZAjo
8Zn6ppz0vTtHctIOWJ0+Uufao0N4w8OT5gTTq1GKGiQOemJZqsZCnmbBYV4xsU3c
N6kYdo3+ywlUP0+7X6u6cOm0oV6gaX5FP8DMeOnydGR5wmoW0JgwgkRKs5ksZjCs
mYIEKr8PYIkENvop0whWYWqoM0CaU30gqFFvm6DZPtyaix03nq3J/VOnBNwfNj7T
ZVKEJGHQTuJBYL/7/bIEsz/rFJlevOh96WXRP/4ESeW7oy3j25bf2YGgMtcBubgC
jrmiHwrUJBc6GQ9tOhBfXH24VoLHf0DwLYdjwbHYZMc8JxNKY4IhsfI56QIDAQAB
o4IBDTCCAQkwHQYDVR0OBBYEFBhtRIPuH+y0IvCc61QeShVYAaoTMIHJBgNVHSME
gcEwgb6AFCeOZxF0wyYdP+0zY7Ok2B0w5ejVoYGapIGXMIGUMQswCQYDVQQGEwJV
UzEQMA4GA1UECAwHTW9udGFuYTEQMA4GA1UEBwwHQm96ZW1hbjERMA8GA1UECgwI
U2F3dG9vdGgxEzARBgNVBAsMCkNvbnN1bHRpbmcxGDAWBgNVBAMMD3d3dy53b2xm
c3NsLmNvbTEfMB0GCSqGSIb3DQEJARYQaW5mb0B3b2xmc3NsLmNvbYIJAIb/9Y4Q
3rj7MA8GA1UdEwQIMAYBAf8CAQIwCwYDVR0PBAQDAgEGMA0GCSqGSIb3DQEBBQUA
A4IBAQA9Y3bzgZR3n2sZyfN/qszDJKJQJD7YjJc0A/PtStlmcfrUM8z6SLQkHnAt
Wux9XVHpnlxawne+ZGox0LXzqdNP1v1DXz+yXjNBsd/ZMfsiRTOKQ+xAuYYm65EP
sf4LZSYfWn7nQB+OqsQjRvpJMvm7KuPAwzjI95k4+dySf40H/ux1YtwzYij4UjYM
MVQVCnZdV/E1UKhqyZXdNoGmWuisRLzB3dc1ia3rb2lu5deR7g37FFAq/SrY8Zxl
zgRlCS2Kk/M+rnMHUENR+5x6lVFDjkvjCXLVE0y04zHJ178u4z0S4uPgHGqYtfni
nxWzjFNx7YEO+4xM+VYIOAEPkEz4
-----END CERTIFICATE-----
