Certificate:
    Data:
        Version: 3 (0x2)
        Serial Number: 101 (0x65)
        Signature Algorithm: sha256WithRSAEncryption
        Issuer: C = US, ST = Washington, L = Seattle, O = wolfSSL Inc., OU = Engineering, CN = chainI-ICA1-no_pathlen, emailAddress = info@wolfssl.com
        Validity
            Not Before: May  7 07:39:05 2020 GMT
            Not After : Feb  1 07:39:05 2023 GMT
        Subject: C = US, ST = Washington, L = Seattle, O = wolfSSL Inc., OU = Engineering, CN = chainI-entity, emailAddress = info@wolfssl.com
        Subject Public Key Info:
            Public Key Algorithm: rsaEncryption
                RSA Public-Key: (2048 bit)
                Modulus:
                    00:f3:ac:32:8f:52:af:a9:cf:9e:23:a4:96:8e:e9:
                    e8:0a:3a:b7:6a:7b:ba:70:85:68:e2:52:f3:38:39:
                    cf:c8:f1:8a:f6:55:1e:59:fa:97:fe:e7:9b:07:2a:
                    b6:80:2a:92:d9:39:95:9e:0c:1f:d7:ad:1f:74:4d:
                    8e:61:6f:64:24:4c:d4:95:03:8f:d3:f2:3d:6e:d8:
                    d8:d5:aa:64:7d:82:ee:74:07:16:68:fa:95:17:9b:
                    35:8f:c3:6c:47:88:3e:40:de:93:36:ed:62:f4:cc:
                    67:45:ee:ea:45:9f:fc:f1:63:6d:b7:fa:f8:c3:e0:
                    6f:c7:4a:3e:04:49:04:37:8b:3a:99:e8:64:0a:86:
                    43:ab:5b:34:1e:6c:33:a2:a4:26:7c:c7:6c:48:99:
                    7d:85:f5:1f:c1:9c:a9:c7:8f:51:6b:8a:86:8d:1c:
                    b0:d2:82:ba:a4:a7:09:29:8b:0a:20:d1:7c:b1:67:
                    0c:61:cd:88:33:5e:38:ab:08:78:0b:80:0b:ce:63:
                    03:b9:40:7b:67:3e:a8:ac:4e:44:92:09:4c:3f:e0:
                    3d:55:cb:aa:5a:bc:17:9c:4e:9e:40:5c:82:fc:3b:
                    3a:54:40:90:f9:22:3c:f4:00:5f:95:13:72:49:29:
                    ae:5f:31:22:30:04:05:6a:7b:b5:0a:0a:a6:5e:72:
                    4d:5f
                Exponent: 65537 (0x10001)
        X509v3 extensions:
            X509v3 Subject Key Identifier: 
                EB:B5:A2:7B:24:95:03:11:6B:56:CB:13:3E:A8:B2:8F:B1:CF:5D:C4
            X509v3 Authority Key Identifier: 
                keyid:9E:54:B6:95:EA:89:07:A6:C9:E4:82:E8:D0:34:64:5D:08:CD:56:A0
                DirName:/C=US/ST=Washington/L=Seattle/O=wolfSSL Inc./OU=Engineering/CN=chainI-ICA2-no_pathlen/emailAddress=info@wolfssl.com
                serial:64

            X509v3 Basic Constraints: 
                CA:FALSE
    Signature Algorithm: sha256WithRSAEncryption
         b7:2d:06:f7:a6:0d:11:c2:78:32:61:db:d3:82:5d:89:a8:00:
         0c:be:56:77:16:05:2c:96:39:77:31:79:af:17:0a:ff:d8:cf:
         73:29:c6:e8:92:b4:42:e5:89:51:92:d7:01:75:18:88:ee:71:
         24:37:9a:d7:85:fe:38:46:33:08:f8:35:60:6a:92:b7:4a:b3:
         fb:53:6b:21:10:fb:6b:de:e3:98:cf:e3:26:5f:7d:31:d0:52:
         58:32:ed:1c:08:5e:9c:f5:45:be:9e:6d:17:8d:f4:0c:3e:91:
         9c:5f:7b:ad:9a:69:e5:43:b1:73:65:c9:10:dd:a0:6e:c8:49:
         b6:e7:67:5a:ca:6d:33:a9:56:bb:45:32:b8:8a:44:7e:ba:f1:
         e8:67:3e:3d:cf:2f:a4:79:ae:f5:16:be:68:a5:e5:f9:0a:c3:
         d9:5a:f1:1c:aa:c0:28:46:b2:e5:51:d1:d5:70:91:b5:41:23:
         73:80:01:df:c4:9b:bc:52:95:a9:28:3f:de:87:ed:40:a8:ac:
         e2:63:40:a0:a1:78:3f:0f:60:e0:64:33:57:3c:64:a7:ed:32:
         d7:73:14:82:99:c4:2f:e4:47:7a:1c:75:dd:45:d7:9a:c3:85:
         a0:1d:41:77:29:62:03:f9:e7:aa:03:31:ed:ee:dd:aa:43:34:
         9c:d8:b0:6b
-----BEGIN CERTIFICATE-----
MIIEvDCCA6SgAwIBAgIBZTANBgkqhkiG9w0BAQsFADCBozELMAkGA1UEBhMCVVMx
EzARBgNVBAgMCldhc2hpbmd0b24xEDAOBgNVBAcMB1NlYXR0bGUxFTATBgNVBAoM
DHdvbGZTU0wgSW5jLjEUMBIGA1UECwwLRW5naW5lZXJpbmcxHzAdBgNVBAMMFmNo
YWluSS1JQ0ExLW5vX3BhdGhsZW4xHzAdBgkqhkiG9w0BCQEWEGluZm9Ad29sZnNz
bC5jb20wHhcNMjAwNTA3MDczOTA1WhcNMjMwMjAxMDczOTA1WjCBmjELMAkGA1UE
BhMCVVMxEzARBgNVBAgMCldhc2hpbmd0b24xEDAOBgNVBAcMB1NlYXR0bGUxFTAT
BgNVBAoMDHdvbGZTU0wgSW5jLjEUMBIGA1UECwwLRW5naW5lZXJpbmcxFjAUBgNV
BAMMDWNoYWluSS1lbnRpdHkxHzAdBgkqhkiG9w0BCQEWEGluZm9Ad29sZnNzbC5j
b20wggEiMA0GCSqGSIb3DQEBAQUAA4IBDwAwggEKAoIBAQDzrDKPUq+pz54jpJaO
6egKOrdqe7pwhWjiUvM4Oc/I8Yr2VR5Z+pf+55sHKraAKpLZOZWeDB/XrR90TY5h
b2QkTNSVA4/T8j1u2NjVqmR9gu50BxZo+pUXmzWPw2xHiD5A3pM27WL0zGdF7upF
n/zxY223+vjD4G/HSj4ESQQ3izqZ6GQKhkOrWzQebDOipCZ8x2xImX2F9R/BnKnH
j1FrioaNHLDSgrqkpwkpiwog0XyxZwxhzYgzXjirCHgLgAvOYwO5QHtnPqisTkSS
CUw/4D1Vy6pavBecTp5AXIL8OzpUQJD5Ijz0AF+VE3JJKa5fMSIwBAVqe7UKCqZe
ck1fAgMBAAGjggEAMIH9MB0GA1UdDgQWBBTrtaJ7JJUDEWtWyxM+qLKPsc9dxDCB
0AYDVR0jBIHIMIHFgBSeVLaV6okHpsnkgujQNGRdCM1WoKGBqaSBpjCBozELMAkG
A1UEBhMCVVMxEzARBgNVBAgMCldhc2hpbmd0b24xEDAOBgNVBAcMB1NlYXR0bGUx
FTATBgNVBAoMDHdvbGZTU0wgSW5jLjEUMBIGA1UECwwLRW5naW5lZXJpbmcxHzAd
BgNVBAMMFmNoYWluSS1JQ0EyLW5vX3BhdGhsZW4xHzAdBgkqhkiG9w0BCQEWEGlu
Zm9Ad29sZnNzbC5jb22CAWQwCQYDVR0TBAIwADANBgkqhkiG9w0BAQsFAAOCAQEA
ty0G96YNEcJ4MmHb04JdiagADL5WdxYFLJY5dzF5rxcK/9jPcynG6JK0QuWJUZLX
AXUYiO5xJDea14X+OEYzCPg1YGqSt0qz+1NrIRD7a97jmM/jJl99MdBSWDLtHAhe
nPVFvp5tF430DD6RnF97rZpp5UOxc2XJEN2gbshJtudnWsptM6lWu0UyuIpEfrrx
6Gc+Pc8vpHmu9Ra+aKXl+QrD2VrxHKrAKEay5VHR1XCRtUEjc4AB38SbvFKVqSg/
3oftQKis4mNAoKF4Pw9g4GQzVzxkp+0y13MUgpnEL+RHehx13UXXmsOFoB1Bdyli
A/nnqgMx7e7dqkM0nNiwaw==
-----END CERTIFICATE-----
Certificate:
    Data:
        Version: 3 (0x2)
        Serial Number: 100 (0x64)
        Signature Algorithm: sha256WithRSAEncryption
        Issuer: C = US, ST = Washington, L = Seattle, O = wolfSSL Inc., OU = Engineering, CN = chainI-ICA2-no_pathlen, emailAddress = info@wolfssl.com
        Validity
            Not Before: May  7 07:39:05 2020 GMT
            Not After : Feb  1 07:39:05 2023 GMT
        Subject: C = US, ST = Washington, L = Seattle, O = wolfSSL Inc., OU = Engineering, CN = chainI-ICA1-no_pathlen, emailAddress = info@wolfssl.com
        Subject Public Key Info:
            Public Key Algorithm: rsaEncryption
                RSA Public-Key: (2048 bit)
                Modulus:
                    00:bb:ba:06:ad:13:cf:da:fb:d1:cb:65:fe:26:58:
                    49:6a:01:14:a6:78:b2:2c:1d:ba:ba:d0:bd:27:38:
                    66:7c:a0:1b:28:08:3c:6a:fd:f8:87:be:49:a2:ed:
                    38:f2:4c:b0:8b:93:ff:d2:c5:3f:cd:03:c5:14:79:
                    e8:76:63:7a:aa:a7:54:1e:0e:27:bd:1b:be:e8:3f:
                    2b:55:40:f0:59:23:d8:3f:e8:05:1a:0b:71:f0:fd:
                    24:d9:f9:0b:99:25:da:af:96:34:ee:e1:91:cb:fc:
                    8f:a0:41:8f:9c:e1:4f:57:5f:b6:d6:55:69:6f:c3:
                    64:c3:11:a9:69:40:85:df:f3:9a:59:b5:ee:90:c0:
                    22:ee:72:28:2e:d3:da:65:27:3b:ba:42:c0:9e:73:
                    ba:a2:f2:45:13:7a:c5:1d:30:a5:b7:db:75:5d:6f:
                    cc:08:77:80:67:8d:18:2a:ca:02:8d:8e:d3:9c:2a:
                    fa:b7:8f:1b:7d:ef:62:77:a4:fa:b6:d8:5a:3e:66:
                    9c:3e:13:45:a8:cf:61:fb:ff:41:45:14:21:e2:63:
                    ac:81:4d:65:89:e3:d5:71:20:01:19:76:ec:a4:16:
                    a6:ef:3c:bc:f2:a2:56:2b:07:31:67:0d:e5:97:88:
                    e8:db:cb:4d:98:cb:99:e6:e0:bd:62:48:2b:b1:04:
                    12:07
                Exponent: 65537 (0x10001)
        X509v3 extensions:
            X509v3 Subject Key Identifier: 
                9E:54:B6:95:EA:89:07:A6:C9:E4:82:E8:D0:34:64:5D:08:CD:56:A0
            X509v3 Authority Key Identifier: 
                keyid:D1:BA:FB:FF:1D:29:41:8A:6A:5F:B2:F3:A7:41:05:47:09:1F:48:42
                DirName:/C=US/ST=Washington/L=Seattle/O=wolfSSL Inc./OU=Engineering/CN=chainI-ICA3-pathlen2/emailAddress=info@wolfssl.com
                serial:64

            X509v3 Basic Constraints: 
                CA:TRUE
            X509v3 Key Usage: 
                Certificate Sign, CRL Sign
    Signature Algorithm: sha256WithRSAEncryption
         32:84:ce:04:02:b1:f9:94:40:43:d6:38:8a:1a:aa:3f:47:fa:
         cf:01:0a:0e:bb:b8:79:ba:22:be:04:d7:f8:8d:b8:39:0e:3b:
         5d:d8:74:28:93:0c:64:98:78:09:c8:6f:5d:ae:a9:66:b9:80:
         21:03:f1:b8:18:6b:c1:f8:49:3a:e4:9e:10:2e:0c:54:da:df:
         10:70:9f:6d:25:20:66:32:67:1d:ec:47:02:96:f5:b6:e6:72:
         6a:5d:11:b4:39:14:2d:17:10:fe:9b:e8:3f:8b:f5:58:98:36:
         b2:7a:e9:db:d8:b8:23:e3:16:12:72:86:15:3f:13:65:f1:2c:
         a5:df:de:77:50:8a:cc:5c:68:d1:63:c1:57:5e:90:19:4f:77:
         9b:cc:7c:fb:cd:1e:d5:24:aa:08:42:14:ad:26:77:4a:17:4e:
         e8:85:1c:68:af:c6:2f:84:78:3c:ae:54:a0:c6:44:3a:ed:d2:
         d1:8a:6d:26:98:50:84:e3:13:d0:ca:54:21:4a:fb:a6:1b:65:
         4c:51:7b:ab:58:58:e6:02:ee:98:56:d7:06:b2:60:3c:d9:bc:
         f4:13:5c:8d:d8:bd:99:fd:06:1e:46:47:04:dd:f3:3f:fc:0d:
         ae:3b:53:61:54:01:02:c9:89:49:37:5f:76:c4:1d:f9:e9:0f:
         b1:47:70:f0
-----BEGIN CERTIFICATE-----
MIIE1DCCA7ygAwIBAgIBZDANBgkqhkiG9w0BAQsFADCBozELMAkGA1UEBhMCVVMx
EzARBgNVBAgMCldhc2hpbmd0b24xEDAOBgNVBAcMB1NlYXR0bGUxFTATBgNVBAoM
DHdvbGZTU0wgSW5jLjEUMBIGA1UECwwLRW5naW5lZXJpbmcxHzAdBgNVBAMMFmNo
YWluSS1JQ0EyLW5vX3BhdGhsZW4xHzAdBgkqhkiG9w0BCQEWEGluZm9Ad29sZnNz
bC5jb20wHhcNMjAwNTA3MDczOTA1WhcNMjMwMjAxMDczOTA1WjCBozELMAkGA1UE
BhMCVVMxEzARBgNVBAgMCldhc2hpbmd0b24xEDAOBgNVBAcMB1NlYXR0bGUxFTAT
BgNVBAoMDHdvbGZTU0wgSW5jLjEUMBIGA1UECwwLRW5naW5lZXJpbmcxHzAdBgNV
BAMMFmNoYWluSS1JQ0ExLW5vX3BhdGhsZW4xHzAdBgkqhkiG9w0BCQEWEGluZm9A
d29sZnNzbC5jb20wggEiMA0GCSqGSIb3DQEBAQUAA4IBDwAwggEKAoIBAQC7ugat
E8/a+9HLZf4mWElqARSmeLIsHbq60L0nOGZ8oBsoCDxq/fiHvkmi7TjyTLCLk//S
xT/NA8UUeeh2Y3qqp1QeDie9G77oPytVQPBZI9g/6AUaC3Hw/STZ+QuZJdqvljTu
4ZHL/I+gQY+c4U9XX7bWVWlvw2TDEalpQIXf85pZte6QwCLucigu09plJzu6QsCe
c7qi8kUTesUdMKW323Vdb8wId4BnjRgqygKNjtOcKvq3jxt972J3pPq22Fo+Zpw+
E0Woz2H7/0FFFCHiY6yBTWWJ49VxIAEZduykFqbvPLzyolYrBzFnDeWXiOjby02Y
y5nm4L1iSCuxBBIHAgMBAAGjggEPMIIBCzAdBgNVHQ4EFgQUnlS2leqJB6bJ5ILo
0DRkXQjNVqAwgc4GA1UdIwSBxjCBw4AU0br7/x0pQYpqX7Lzp0EFRwkfSEKhgaek
gaQwgaExCzAJBgNVBAYTAlVTMRMwEQYDVQQIDApXYXNoaW5ndG9uMRAwDgYDVQQH
DAdTZWF0dGxlMRUwEwYDVQQKDAx3b2xmU1NMIEluYy4xFDASBgNVBAsMC0VuZ2lu
ZWVyaW5nMR0wGwYDVQQDDBRjaGFpbkktSUNBMy1wYXRobGVuMjEfMB0GCSqGSIb3
DQEJARYQaW5mb0B3b2xmc3NsLmNvbYIBZDAMBgNVHRMEBTADAQH/MAsGA1UdDwQE
AwIBBjANBgkqhkiG9w0BAQsFAAOCAQEAMoTOBAKx+ZRAQ9Y4ihqqP0f6zwEKDru4
eboivgTX+I24OQ47Xdh0KJMMZJh4CchvXa6pZrmAIQPxuBhrwfhJOuSeEC4MVNrf
EHCfbSUgZjJnHexHApb1tuZyal0RtDkULRcQ/pvoP4v1WJg2snrp29i4I+MWEnKG
FT8TZfEspd/ed1CKzFxo0WPBV16QGU93m8x8+80e1SSqCEIUrSZ3ShdO6IUcaK/G
L4R4PK5UoMZEOu3S0YptJphQhOMT0MpUIUr7phtlTFF7q1hY5gLumFbXBrJgPNm8
9BNcjdi9mf0GHkZHBN3zP/wNrjtTYVQBAsmJSTdfdsQd+ekPsUdw8A==
-----END CERTIFICATE-----
Certificate:
    Data:
        Version: 3 (0x2)
        Serial Number: 100 (0x64)
        Signature Algorithm: sha256WithRSAEncryption
        Issuer: C = US, ST = Washington, L = Seattle, O = wolfSSL Inc., OU = Engineering, CN = chainI-ICA3-pathlen2, emailAddress = info@wolfssl.com
        Validity
            Not Before: May  7 07:39:05 2020 GMT
            Not After : Feb  1 07:39:05 2023 GMT
        Subject: C = US, ST = Washington, L = Seattle, O = wolfSSL Inc., OU = Engineering, CN = chainI-ICA2-no_pathlen, emailAddress = info@wolfssl.com
        Subject Public Key Info:
            Public Key Algorithm: rsaEncryption
                RSA Public-Key: (2048 bit)
                Modulus:
                    00:de:1e:08:66:12:fe:20:07:10:1b:a1:27:0d:f9:
                    22:30:81:9b:ce:62:b1:a6:6d:49:d4:ed:b8:2d:4b:
                    97:77:1e:94:51:3d:73:2b:16:e9:05:e9:4c:1b:82:
                    ad:47:9d:33:30:53:b5:9b:d2:2d:e9:7b:d6:63:f3:
                    61:20:1b:23:6e:47:09:8b:c0:d5:09:85:a6:e2:e4:
                    3a:4d:b3:f9:dd:c6:7c:9a:42:07:22:d5:7b:67:18:
                    38:c4:fc:ea:8d:09:80:a0:b0:44:33:fd:c1:aa:8b:
                    9c:98:e3:95:c3:74:71:3b:71:b8:b3:80:bf:30:63:
                    85:09:27:8b:12:b5:86:b0:0b:99:ff:97:42:52:a0:
                    ac:b2:38:38:8d:13:96:d9:d6:fa:8f:c4:89:14:06:
                    9c:1f:0a:a3:3a:a2:f7:1f:83:d8:ae:41:44:9e:21:
                    b2:5b:b7:a2:19:e9:46:58:de:e5:a2:ab:07:7a:9a:
                    9a:60:bc:14:ed:cf:4d:42:fc:5c:28:ea:42:d1:ae:
                    cc:71:7e:52:5d:84:88:de:b6:7d:72:6e:ab:73:4b:
                    0d:ab:92:9f:11:b4:51:da:14:54:9a:0e:ec:ac:42:
                    fc:71:87:5b:54:38:09:2c:f0:5d:86:0c:34:b7:92:
                    33:5c:3e:19:b1:4d:a0:62:9b:b4:68:36:36:38:ec:
                    29:b3
                Exponent: 65537 (0x10001)
        X509v3 extensions:
            X509v3 Subject Key Identifier: 
                D1:BA:FB:FF:1D:29:41:8A:6A:5F:B2:F3:A7:41:05:47:09:1F:48:42
            X509v3 Authority Key Identifier: 
                keyid:EE:37:A6:F2:40:D0:EF:FD:22:C7:A3:B4:6C:57:47:40:B9:99:F9:8D
                DirName:/C=US/ST=Montana/L=Bozeman/O=Sawtooth/OU=Consulting/CN=www.wolfssl.com/emailAddress=info@wolfssl.com
                serial:64

            X509v3 Basic Constraints: 
                CA:TRUE
            X509v3 Key Usage: 
                Certificate Sign, CRL Sign
    Signature Algorithm: sha256WithRSAEncryption
         81:fe:5f:5a:4b:ed:1e:72:84:59:b4:59:83:95:2d:4d:d9:4d:
         a2:07:77:4c:66:b0:f2:fb:a4:81:04:3c:98:36:b0:50:c4:40:
         ca:f1:2f:02:49:05:a3:ea:7f:49:54:13:ca:0d:14:f6:5e:eb:
         59:7f:6e:2a:bc:67:5f:40:46:1d:f4:12:b4:b1:4d:31:ec:2c:
         aa:fc:a5:37:b5:de:eb:68:78:18:61:40:32:66:92:fc:5c:41:
         40:a2:8b:45:fd:71:6a:fa:7e:c1:23:90:3b:40:a0:bc:42:89:
         49:4c:bf:ea:de:d7:0c:76:b5:62:74:4c:ab:a5:f9:a5:67:d6:
         14:9b:c2:ee:ab:7e:1f:24:42:7b:99:d9:24:38:bf:a7:80:43:
         a0:e5:88:ef:c3:85:3b:ca:58:d5:5d:08:1e:f0:91:91:f7:6c:
         db:89:02:d0:87:68:5b:d6:c7:9f:06:b3:25:1c:9c:3f:51:28:
         07:d6:da:8e:c0:0b:13:f6:8e:73:64:38:73:ab:22:c0:0f:51:
         ff:af:29:3b:e8:09:68:83:21:a3:1e:47:98:92:b0:b0:5b:35:
         cb:27:70:78:cf:a4:19:df:7a:61:39:c4:2e:d0:d3:97:c0:4a:
         58:74:89:4a:11:31:62:2d:c4:e9:d1:2a:82:b8:d6:98:39:26:
         6a:eb:03:37
-----BEGIN CERTIFICATE-----
MIIExDCCA6ygAwIBAgIBZDANBgkqhkiG9w0BAQsFADCBoTELMAkGA1UEBhMCVVMx
EzARBgNVBAgMCldhc2hpbmd0b24xEDAOBgNVBAcMB1NlYXR0bGUxFTATBgNVBAoM
DHdvbGZTU0wgSW5jLjEUMBIGA1UECwwLRW5naW5lZXJpbmcxHTAbBgNVBAMMFGNo
YWluSS1JQ0EzLXBhdGhsZW4yMR8wHQYJKoZIhvcNAQkBFhBpbmZvQHdvbGZzc2wu
Y29tMB4XDTIwMDUwNzA3MzkwNVoXDTIzMDIwMTA3MzkwNVowgaMxCzAJBgNVBAYT
AlVTMRMwEQYDVQQIDApXYXNoaW5ndG9uMRAwDgYDVQQHDAdTZWF0dGxlMRUwEwYD
VQQKDAx3b2xmU1NMIEluYy4xFDASBgNVBAsMC0VuZ2luZWVyaW5nMR8wHQYDVQQD
DBZjaGFpbkktSUNBMi1ub19wYXRobGVuMR8wHQYJKoZIhvcNAQkBFhBpbmZvQHdv
bGZzc2wuY29tMIIBIjANBgkqhkiG9w0BAQEFAAOCAQ8AMIIBCgKCAQEA3h4IZhL+
IAcQG6EnDfkiMIGbzmKxpm1J1O24LUuXdx6UUT1zKxbpBelMG4KtR50zMFO1m9It
6XvWY/NhIBsjbkcJi8DVCYWm4uQ6TbP53cZ8mkIHItV7Zxg4xPzqjQmAoLBEM/3B
qoucmOOVw3RxO3G4s4C/MGOFCSeLErWGsAuZ/5dCUqCssjg4jROW2db6j8SJFAac
HwqjOqL3H4PYrkFEniGyW7eiGelGWN7loqsHepqaYLwU7c9NQvxcKOpC0a7McX5S
XYSI3rZ9cm6rc0sNq5KfEbRR2hRUmg7srEL8cYdbVDgJLPBdhgw0t5IzXD4ZsU2g
Ypu0aDY2OOwpswIDAQABo4IBATCB/jAdBgNVHQ4EFgQU0br7/x0pQYpqX7Lzp0EF
RwkfSEIwgcEGA1UdIwSBuTCBtoAU7jem8kDQ7/0ix6O0bFdHQLmZ+Y2hgZqkgZcw
gZQxCzAJBgNVBAYTAlVTMRAwDgYDVQQIDAdNb250YW5hMRAwDgYDVQQHDAdCb3pl
bWFuMREwDwYDVQQKDAhTYXd0b290aDETMBEGA1UECwwKQ29uc3VsdGluZzEYMBYG
A1UEAwwPd3d3LndvbGZzc2wuY29tMR8wHQYJKoZIhvcNAQkBFhBpbmZvQHdvbGZz
c2wuY29tggFkMAwGA1UdEwQFMAMBAf8wCwYDVR0PBAQDAgEGMA0GCSqGSIb3DQEB
CwUAA4IBAQCB/l9aS+0ecoRZtFmDlS1N2U2iB3dMZrDy+6SBBDyYNrBQxEDK8S8C
SQWj6n9JVBPKDRT2XutZf24qvGdfQEYd9BK0sU0x7Cyq/KU3td7raHgYYUAyZpL8
XEFAootF/XFq+n7BI5A7QKC8QolJTL/q3tcMdrVidEyrpfmlZ9YUm8Luq34fJEJ7
mdkkOL+ngEOg5Yjvw4U7yljVXQge8JGR92zbiQLQh2hb1sefBrMlHJw/USgH1tqO
wAsT9o5zZDhzqyLAD1H/ryk76AlogyGjHkeYkrCwWzXLJ3B4z6QZ33phOcQu0NOX
wEpYdIlKETFiLcTp0SqCuNaYOSZq6wM3
-----END CERTIFICATE-----
Certificate:
    Data:
        Version: 3 (0x2)
        Serial Number: 100 (0x64)
        Signature Algorithm: sha256WithRSAEncryption
        Issuer: C = US, ST = Montana, L = Bozeman, O = Sawtooth, OU = Consulting, CN = www.wolfssl.com, emailAddress = info@wolfssl.com
        Validity
            Not Before: May  7 07:39:05 2020 GMT
            Not After : Feb  1 07:39:05 2023 GMT
        Subject: C = US, ST = Washington, L = Seattle, O = wolfSSL Inc., OU = Engineering, CN = chainI-ICA3-pathlen2, emailAddress = info@wolfssl.com
        Subject Public Key Info:
            Public Key Algorithm: rsaEncryption
                RSA Public-Key: (2048 bit)
                Modulus:
                    00:b8:36:0c:66:a9:06:ce:ac:e0:7c:86:a1:69:9d:
                    be:28:cf:a3:81:f3:b4:dc:5f:c8:92:9d:f2:07:c0:
                    5e:04:d3:e5:74:19:fc:cf:85:7f:f7:91:8c:d5:58:
                    7c:02:4c:88:f1:4d:43:e3:07:bd:2a:4e:df:51:87:
                    29:74:c5:24:67:1d:f1:6f:8b:07:75:39:89:70:2a:
                    9c:00:e0:2e:6c:7c:74:27:18:34:fd:29:98:43:83:
                    d6:e1:51:b3:13:41:1c:bc:29:dc:8b:2f:93:08:95:
                    8b:90:22:4b:e4:98:f5:d6:70:2a:9b:8b:64:e6:49:
                    06:62:a4:23:08:60:68:97:89:a9:b2:c0:94:8e:4f:
                    39:1c:25:3b:0f:e4:c5:1d:7d:89:89:5e:c6:02:69:
                    68:fc:13:55:b5:80:6b:77:f7:59:57:0b:1c:7e:c6:
                    ed:46:c6:70:fb:34:a1:28:1c:82:b1:c2:ab:a6:c1:
                    f0:13:1b:7d:0b:bc:1a:39:23:3c:e7:1d:ee:c8:ee:
                    2f:69:5f:a1:31:3f:1a:2f:98:5d:53:d7:42:93:db:
                    49:ac:d6:7a:12:2e:9d:0d:c9:b0:ef:40:d1:a4:02:
                    5e:52:e8:fb:d4:92:07:98:b1:76:d9:16:0f:e4:8b:
                    de:dc:88:65:e0:fd:52:1d:8b:e2:e3:ed:08:37:d0:
                    11:f7
                Exponent: 65537 (0x10001)
        X509v3 extensions:
            X509v3 Subject Key Identifier: 
                EE:37:A6:F2:40:D0:EF:FD:22:C7:A3:B4:6C:57:47:40:B9:99:F9:8D
            X509v3 Authority Key Identifier: 
                keyid:27:8E:67:11:74:C3:26:1D:3F:ED:33:63:B3:A4:D8:1D:30:E5:E8:D5
                DirName:/C=US/ST=Montana/L=Bozeman/O=Sawtooth/OU=Consulting/CN=www.wolfssl.com/emailAddress=info@wolfssl.com
                serial:3F:32:13:52:92:C6:DF:4A:D5:42:05:6C:B0:B2:2E:46:C2:F8:B8:67

            X509v3 Basic Constraints: 
                CA:TRUE, pathlen:2
            X509v3 Key Usage: 
                Certificate Sign, CRL Sign
    Signature Algorithm: sha256WithRSAEncryption
         46:4a:3b:ae:67:9d:d9:e6:c1:8c:0c:01:78:e7:19:91:19:8f:
         01:46:b1:2c:a4:6d:2c:17:9f:6e:ef:c2:1a:dc:fd:de:d7:8d:
         23:10:57:7b:69:03:fe:5a:48:44:80:81:13:a1:79:3e:28:ff:
         9b:f1:3a:c4:87:83:b1:cb:8e:52:b5:50:61:98:74:11:3a:39:
         73:20:a4:3e:c0:51:94:0a:a7:f5:c8:e2:60:59:5c:13:ed:fb:
         0c:3e:5e:f2:bc:72:5f:10:4a:b5:6b:02:7c:45:5c:1c:5d:58:
         a0:5a:30:5a:f2:1f:4a:07:6a:f9:42:83:7b:72:c5:a1:84:ff:
         8a:32:11:bf:fd:8a:36:bc:39:ba:c2:f3:d1:cf:50:d1:5a:21:
         94:55:10:15:0d:09:fd:51:1b:04:e9:f6:58:54:6b:e8:7f:37:
         4f:56:10:36:35:e8:af:5f:04:e2:a7:f1:7f:67:a9:a0:91:e4:
         a3:e8:9f:5e:91:03:8b:79:b1:0c:aa:7b:04:19:6d:11:7d:ab:
         1e:27:41:f0:7b:13:43:29:a0:58:d6:72:68:d8:96:72:08:ab:
         e6:91:99:e5:a5:f7:41:ef:c1:5d:a5:44:7e:a4:12:92:67:3d:
         5f:f3:a8:18:ef:fa:ec:23:d6:ac:7f:6c:c0:20:ca:33:71:c8:
         4e:c1:2b:2e
-----BEGIN CERTIFICATE-----
MIIEzDCCA7SgAwIBAgIBZDANBgkqhkiG9w0BAQsFADCBlDELMAkGA1UEBhMCVVMx
EDAOBgNVBAgMB01vbnRhbmExEDAOBgNVBAcMB0JvemVtYW4xETAPBgNVBAoMCFNh
d3Rvb3RoMRMwEQYDVQQLDApDb25zdWx0aW5nMRgwFgYDVQQDDA93d3cud29sZnNz
bC5jb20xHzAdBgkqhkiG9w0BCQEWEGluZm9Ad29sZnNzbC5jb20wHhcNMjAwNTA3
MDczOTA1WhcNMjMwMjAxMDczOTA1WjCBoTELMAkGA1UEBhMCVVMxEzARBgNVBAgM
Cldhc2hpbmd0b24xEDAOBgNVBAcMB1NlYXR0bGUxFTATBgNVBAoMDHdvbGZTU0wg
SW5jLjEUMBIGA1UECwwLRW5naW5lZXJpbmcxHTAbBgNVBAMMFGNoYWluSS1JQ0Ez
LXBhdGhsZW4yMR8wHQYJKoZIhvcNAQkBFhBpbmZvQHdvbGZzc2wuY29tMIIBIjAN
BgkqhkiG9w0BAQEFAAOCAQ8AMIIBCgKCAQEAuDYMZqkGzqzgfIahaZ2+KM+jgfO0
3F/Ikp3yB8BeBNPldBn8z4V/95GM1Vh8AkyI8U1D4we9Kk7fUYcpdMUkZx3xb4sH
dTmJcCqcAOAubHx0Jxg0/SmYQ4PW4VGzE0EcvCnciy+TCJWLkCJL5Jj11nAqm4tk
5kkGYqQjCGBol4mpssCUjk85HCU7D+TFHX2JiV7GAmlo/BNVtYBrd/dZVwscfsbt
RsZw+zShKByCscKrpsHwExt9C7waOSM85x3uyO4vaV+hMT8aL5hdU9dCk9tJrNZ6
Ei6dDcmw70DRpAJeUuj71JIHmLF22RYP5Ive3Ihl4P1SHYvi4+0IN9AR9wIDAQAB
o4IBGDCCARQwHQYDVR0OBBYEFO43pvJA0O/9IsejtGxXR0C5mfmNMIHUBgNVHSME
gcwwgcmAFCeOZxF0wyYdP+0zY7Ok2B0w5ejVoYGapIGXMIGUMQswCQYDVQQGEwJV
UzEQMA4GA1UECAwHTW9udGFuYTEQMA4GA1UEBwwHQm96ZW1hbjERMA8GA1UECgwI
U2F3dG9vdGgxEzARBgNVBAsMCkNvbnN1bHRpbmcxGDAWBgNVBAMMD3d3dy53b2xm
c3NsLmNvbTEfMB0GCSqGSIb3DQEJARYQaW5mb0B3b2xmc3NsLmNvbYIUPzITUpLG
30rVQgVssLIuRsL4uGcwDwYDVR0TBAgwBgEB/wIBAjALBgNVHQ8EBAMCAQYwDQYJ
KoZIhvcNAQELBQADggEBAEZKO65nndnmwYwMAXjnGZEZjwFGsSykbSwXn27vwhrc
/d7XjSMQV3tpA/5aSESAgROheT4o/5vxOsSHg7HLjlK1UGGYdBE6OXMgpD7AUZQK
p/XI4mBZXBPt+ww+XvK8cl8QSrVrAnxFXBxdWKBaMFryH0oHavlCg3tyxaGE/4oy
Eb/9ija8ObrC89HPUNFaIZRVEBUNCf1RGwTp9lhUa+h/N09WEDY16K9fBOKn8X9n
qaCR5KPon16RA4t5sQyqewQZbRF9qx4nQfB7E0MpoFjWcmjYlnIIq+aRmeWl90Hv
wV2lRH6kEpJnPV/zqBjv+uwj1qx/bMAgyjNxyE7BKy4=
-----END CERTIFICATE-----
