Certificate:
    Data:
        Version: 3 (0x2)
        Serial Number: 100 (0x64)
        Signature Algorithm: sha256WithRSAEncryption
        Issuer: C = US, ST = Washington, L = Seattle, O = wolfSSL Inc., OU = Engineering, CN = chainG-ICA3-pathlen99, emailAddress = info@wolfssl.com
        Validity
            Not Before: Dec 13 22:19:32 2023 GMT
            Not After : Sep  8 22:19:32 2026 GMT
        Subject: C = US, ST = Washington, L = Seattle, O = wolfSSL Inc., OU = Engineering, CN = chainG-ICA2-pathlen1, emailAddress = info@wolfssl.com
        Subject Public Key Info:
            Public Key Algorithm: rsaEncryption
                RSA Public-Key: (2048 bit)
                Modulus:
                    00:d7:3e:de:b9:f9:a9:d7:8e:7a:4b:f2:f1:8c:f9:
                    3b:1c:ce:59:31:4c:57:0c:2e:8a:0f:90:f0:dc:27:
                    55:0b:10:c3:a2:e8:b9:39:75:17:d1:9d:99:43:94:
                    b2:f1:56:76:6b:b9:46:a6:b8:35:95:a1:d2:d0:ec:
                    8e:be:95:dc:78:17:0a:41:a1:23:df:cb:b2:87:cb:
                    2e:1d:02:7d:c4:fe:7a:f6:7a:d8:a5:8d:b5:11:1a:
                    e4:6b:d2:66:01:01:03:a7:3b:95:49:92:5d:c1:c7:
                    49:f0:1a:ef:00:71:37:99:5a:87:0a:40:de:55:0e:
                    68:89:dc:e7:a1:14:bf:9d:72:93:7e:48:29:e4:ea:
                    a6:4f:0a:7a:a5:a1:39:6c:21:84:3a:8f:ca:7a:35:
                    0b:0a:cd:12:67:3c:56:06:f5:9d:24:c9:8e:4a:82:
                    23:c8:38:7f:ac:98:b6:b2:57:dc:82:62:84:00:13:
                    7b:ea:73:80:26:4a:9b:c1:b4:0a:f1:fc:ff:46:58:
                    96:a0:21:a1:c9:8f:d9:99:74:41:0b:d0:6d:31:a7:
                    ab:87:92:76:51:42:ef:88:95:cc:2c:f2:9b:cc:d5:
                    29:a0:f7:aa:6b:e1:ab:32:16:cd:55:c4:15:80:69:
                    80:91:d8:78:2c:07:15:fd:c2:02:a4:f4:13:75:50:
                    b8:2b
                Exponent: 65537 (0x10001)
        X509v3 extensions:
            X509v3 Subject Key Identifier: 
                E1:E6:9B:28:CF:FD:AB:45:C1:B7:A7:C4:C9:58:FC:41:E3:1A:5C:74
            X509v3 Authority Key Identifier: 
                keyid:C1:CD:1F:81:13:82:24:3B:CF:64:51:7A:4C:E3:65:2E:75:1E:01:23
                DirName:/C=US/ST=Washington/L=Seattle/O=wolfSSL Inc./OU=Engineering/CN=chainG-ICA4-pathlen5/emailAddress=info@wolfssl.com
                serial:64

            X509v3 Basic Constraints: 
                CA:TRUE, pathlen:1
            X509v3 Key Usage: 
                Certificate Sign, CRL Sign
    Signature Algorithm: sha256WithRSAEncryption
         50:65:9b:1d:8b:6a:ae:9b:d4:f1:ff:57:ac:51:48:fd:c8:9e:
         19:bb:b2:00:bf:54:ee:c8:d4:2f:eb:5b:ff:17:1e:7c:aa:1d:
         d4:01:9f:e8:cb:c4:8c:e5:ee:99:04:33:e8:16:3a:fc:44:bd:
         56:a5:45:e7:e9:fb:88:25:11:4b:07:73:5d:37:21:47:47:9d:
         f8:e0:89:e0:e4:c0:6a:f4:64:25:e7:b7:d9:47:53:ff:d5:6f:
         f3:e4:8d:b2:33:f6:ce:46:5b:80:82:8f:05:18:f4:bc:90:5a:
         af:4a:7f:9d:67:08:f7:41:27:05:c5:34:46:03:fc:14:2e:4e:
         81:f3:ca:3d:67:9e:a9:53:ec:5b:df:38:d4:b5:92:3d:55:94:
         df:88:be:a1:e7:14:18:a2:9d:22:5d:10:69:f8:54:c3:a9:14:
         ef:8e:af:e1:8a:f8:cd:6d:7e:26:30:2c:40:bc:50:49:e5:9f:
         bc:8f:de:30:23:93:c4:25:b3:e6:fb:b5:64:82:57:41:ac:79:
         1e:58:9e:6c:67:dc:18:ed:c4:60:79:06:b1:ee:9f:4c:2c:a3:
         9c:61:d7:77:33:b5:64:50:65:88:33:a0:30:57:99:0f:a9:aa:
         a7:b3:a8:0d:b1:c5:ce:5a:34:a8:31:47:e4:66:62:b2:11:0e:
         b9:58:4f:06
-----BEGIN CERTIFICATE-----
MIIE1DCCA7ygAwIBAgIBZDANBgkqhkiG9w0BAQsFADCBojELMAkGA1UEBhMCVVMx
EzARBgNVBAgMCldhc2hpbmd0b24xEDAOBgNVBAcMB1NlYXR0bGUxFTATBgNVBAoM
DHdvbGZTU0wgSW5jLjEUMBIGA1UECwwLRW5naW5lZXJpbmcxHjAcBgNVBAMMFWNo
YWluRy1JQ0EzLXBhdGhsZW45OTEfMB0GCSqGSIb3DQEJARYQaW5mb0B3b2xmc3Ns
LmNvbTAeFw0yMzEyMTMyMjE5MzJaFw0yNjA5MDgyMjE5MzJaMIGhMQswCQYDVQQG
EwJVUzETMBEGA1UECAwKV2FzaGluZ3RvbjEQMA4GA1UEBwwHU2VhdHRsZTEVMBMG
A1UECgwMd29sZlNTTCBJbmMuMRQwEgYDVQQLDAtFbmdpbmVlcmluZzEdMBsGA1UE
AwwUY2hhaW5HLUlDQTItcGF0aGxlbjExHzAdBgkqhkiG9w0BCQEWEGluZm9Ad29s
ZnNzbC5jb20wggEiMA0GCSqGSIb3DQEBAQUAA4IBDwAwggEKAoIBAQDXPt65+anX
jnpL8vGM+TsczlkxTFcMLooPkPDcJ1ULEMOi6Lk5dRfRnZlDlLLxVnZruUamuDWV
odLQ7I6+ldx4FwpBoSPfy7KHyy4dAn3E/nr2etiljbURGuRr0mYBAQOnO5VJkl3B
x0nwGu8AcTeZWocKQN5VDmiJ3OehFL+dcpN+SCnk6qZPCnqloTlsIYQ6j8p6NQsK
zRJnPFYG9Z0kyY5KgiPIOH+smLayV9yCYoQAE3vqc4AmSpvBtArx/P9GWJagIaHJ
j9mZdEEL0G0xp6uHknZRQu+Ilcws8pvM1Smg96pr4asyFs1VxBWAaYCR2HgsBxX9
wgKk9BN1ULgrAgMBAAGjggESMIIBDjAdBgNVHQ4EFgQU4eabKM/9q0XBt6fEyVj8
QeMaXHQwgc4GA1UdIwSBxjCBw4AUwc0fgROCJDvPZFF6TONlLnUeASOhgaekgaQw
gaExCzAJBgNVBAYTAlVTMRMwEQYDVQQIDApXYXNoaW5ndG9uMRAwDgYDVQQHDAdT
ZWF0dGxlMRUwEwYDVQQKDAx3b2xmU1NMIEluYy4xFDASBgNVBAsMC0VuZ2luZWVy
aW5nMR0wGwYDVQQDDBRjaGFpbkctSUNBNC1wYXRobGVuNTEfMB0GCSqGSIb3DQEJ
ARYQaW5mb0B3b2xmc3NsLmNvbYIBZDAPBgNVHRMECDAGAQH/AgEBMAsGA1UdDwQE
AwIBBjANBgkqhkiG9w0BAQsFAAOCAQEAUGWbHYtqrpvU8f9XrFFI/cieGbuyAL9U
7sjUL+tb/xcefKod1AGf6MvEjOXumQQz6BY6/ES9VqVF5+n7iCURSwdzXTchR0ed
+OCJ4OTAavRkJee32UdT/9Vv8+SNsjP2zkZbgIKPBRj0vJBar0p/nWcI90EnBcU0
RgP8FC5OgfPKPWeeqVPsW9841LWSPVWU34i+oecUGKKdIl0QafhUw6kU746v4Yr4
zW1+JjAsQLxQSeWfvI/eMCOTxCWz5vu1ZIJXQax5HliebGfcGO3EYHkGse6fTCyj
nGHXdzO1ZFBliDOgMFeZD6mqp7OoDbHFzlo0qDFH5GZishEOuVhPBg==
-----END CERTIFICATE-----
