Certificate:
    Data:
        Version: 3 (0x2)
        Serial Number: 100 (0x64)
        Signature Algorithm: sha256WithRSAEncryption
        Issuer: C = US, ST = Montana, L = Bozeman, O = Sawtooth, OU = Consulting, CN = www.wolfssl.com, emailAddress = info@wolfssl.com
        Validity
            Not Before: Jun 19 13:23:42 2020 GMT
            Not After : Mar 16 13:23:42 2023 GMT
        Subject: C = US, ST = Washington, L = Seattle, O = wolfSSL Inc., OU = Engineering, CN = chainF-ICA2-pathlen0, emailAddress = info@wolfssl.com
        Subject Public Key Info:
            Public Key Algorithm: rsaEncryption
                RSA Public-Key: (2048 bit)
                Modulus:
                    00:da:3a:22:65:f8:6d:1c:b7:1c:87:dd:27:f4:d7:
                    75:aa:7c:1c:37:31:b4:d6:a5:34:4b:36:40:ea:55:
                    08:72:a0:ff:58:e2:5d:26:11:f5:b8:6e:de:d7:c3:
                    bb:26:51:c8:d0:36:14:00:76:42:4d:03:73:ef:88:
                    b9:37:f4:e8:9d:61:45:96:e1:8e:6c:78:58:e1:f6:
                    cf:46:8a:d6:a5:79:4d:47:88:ca:6c:69:4e:28:d4:
                    8d:84:a8:e1:6c:1d:d3:36:7e:23:e3:64:d5:0a:a3:
                    fc:36:89:90:0a:ff:7e:8b:fa:2e:66:fb:c7:33:44:
                    92:df:0f:43:b2:eb:24:7e:2b:ae:b0:43:a9:ad:53:
                    82:f8:de:17:19:26:5f:ca:8c:ac:0c:1f:24:bd:15:
                    ed:4f:5d:82:ea:10:eb:05:70:4f:03:60:d9:23:6d:
                    21:07:4d:12:9c:f3:64:ee:76:fb:9d:f9:c3:d8:1a:
                    3b:6e:a9:82:7b:2d:2e:b0:74:b7:13:d6:65:8a:06:
                    f2:25:74:c2:26:e9:71:66:54:61:fe:2a:34:27:07:
                    c9:8d:ef:a0:a2:86:93:41:47:73:08:01:07:cc:4d:
                    ec:fe:80:88:93:fb:ae:b4:91:16:fa:83:96:84:66:
                    53:cd:f3:52:da:d4:25:e1:09:15:20:e2:10:ea:dd:
                    39:ef
                Exponent: 65537 (0x10001)
        X509v3 extensions:
            X509v3 Subject Key Identifier: 
                4A:53:4A:B7:30:78:35:91:B4:CB:DD:C8:22:74:89:AF:80:0F:7F:68
            X509v3 Authority Key Identifier: 
                keyid:27:8E:67:11:74:C3:26:1D:3F:ED:33:63:B3:A4:D8:1D:30:E5:E8:D5
                DirName:/C=US/ST=Montana/L=Bozeman/O=Sawtooth/OU=Consulting/CN=www.wolfssl.com/emailAddress=info@wolfssl.com
                serial:5E:BA:A4:F4:B1:F7:48:25:E3:5F:9B:DA:A1:13:ED:D5:2B:03:67:15

            X509v3 Basic Constraints: 
                CA:TRUE, pathlen:0
            X509v3 Key Usage: 
                Certificate Sign, CRL Sign
    Signature Algorithm: sha256WithRSAEncryption
         a7:61:d5:54:60:c4:a2:2d:67:a6:a5:81:c2:48:ac:dc:f4:48:
         80:b3:02:b0:e6:21:95:1d:b1:05:84:65:a0:7b:26:aa:5f:95:
         92:a9:71:44:d5:7a:2a:02:34:a5:21:a5:e7:8a:69:ab:6e:9d:
         cb:ef:18:b7:d7:24:06:37:52:74:2c:7f:34:a0:b6:55:36:dc:
         30:96:71:bf:bb:86:77:c2:18:f0:54:36:83:ad:27:7b:3e:d6:
         d2:ba:02:43:57:0c:0f:01:5b:71:46:2e:e5:a0:24:6a:13:86:
         0b:b5:c8:88:af:2f:73:d2:35:1f:0f:02:50:65:01:43:4c:d9:
         58:83:4f:bd:a5:45:e8:74:4b:51:aa:c1:29:82:7d:70:b5:d6:
         80:77:31:9c:17:67:65:7b:f9:b5:df:32:a1:1a:b8:30:fd:6a:
         67:98:0e:11:9d:29:3a:dd:27:f0:c2:aa:1d:25:a3:77:79:ff:
         f0:12:6b:43:dc:3b:7f:65:79:30:67:15:13:0a:10:ac:cb:ff:
         1e:70:60:e1:00:32:cc:f6:a9:21:a5:99:e5:36:74:ee:a2:cd:
         f2:d1:85:0f:51:24:38:ac:7a:ef:e3:c9:b5:35:55:3d:80:ba:
         20:3b:20:0b:c0:a8:b9:fd:91:e7:f5:98:ae:f4:70:82:33:2a:
         89:e4:97:53
-----BEGIN CERTIFICATE-----
MIIEzDCCA7SgAwIBAgIBZDANBgkqhkiG9w0BAQsFADCBlDELMAkGA1UEBhMCVVMx
EDAOBgNVBAgMB01vbnRhbmExEDAOBgNVBAcMB0JvemVtYW4xETAPBgNVBAoMCFNh
d3Rvb3RoMRMwEQYDVQQLDApDb25zdWx0aW5nMRgwFgYDVQQDDA93d3cud29sZnNz
bC5jb20xHzAdBgkqhkiG9w0BCQEWEGluZm9Ad29sZnNzbC5jb20wHhcNMjAwNjE5
MTMyMzQyWhcNMjMwMzE2MTMyMzQyWjCBoTELMAkGA1UEBhMCVVMxEzARBgNVBAgM
Cldhc2hpbmd0b24xEDAOBgNVBAcMB1NlYXR0bGUxFTATBgNVBAoMDHdvbGZTU0wg
SW5jLjEUMBIGA1UECwwLRW5naW5lZXJpbmcxHTAbBgNVBAMMFGNoYWluRi1JQ0Ey
LXBhdGhsZW4wMR8wHQYJKoZIhvcNAQkBFhBpbmZvQHdvbGZzc2wuY29tMIIBIjAN
BgkqhkiG9w0BAQEFAAOCAQ8AMIIBCgKCAQEA2joiZfhtHLcch90n9Nd1qnwcNzG0
1qU0SzZA6lUIcqD/WOJdJhH1uG7e18O7JlHI0DYUAHZCTQNz74i5N/TonWFFluGO
bHhY4fbPRorWpXlNR4jKbGlOKNSNhKjhbB3TNn4j42TVCqP8NomQCv9+i/ouZvvH
M0SS3w9DsuskfiuusEOprVOC+N4XGSZfyoysDB8kvRXtT12C6hDrBXBPA2DZI20h
B00SnPNk7nb7nfnD2Bo7bqmCey0usHS3E9ZligbyJXTCJulxZlRh/io0JwfJje+g
ooaTQUdzCAEHzE3s/oCIk/uutJEW+oOWhGZTzfNS2tQl4QkVIOIQ6t057wIDAQAB
o4IBGDCCARQwHQYDVR0OBBYEFEpTSrcweDWRtMvdyCJ0ia+AD39oMIHUBgNVHSME
gcwwgcmAFCeOZxF0wyYdP+0zY7Ok2B0w5ejVoYGapIGXMIGUMQswCQYDVQQGEwJV
UzEQMA4GA1UECAwHTW9udGFuYTEQMA4GA1UEBwwHQm96ZW1hbjERMA8GA1UECgwI
U2F3dG9vdGgxEzARBgNVBAsMCkNvbnN1bHRpbmcxGDAWBgNVBAMMD3d3dy53b2xm
c3NsLmNvbTEfMB0GCSqGSIb3DQEJARYQaW5mb0B3b2xmc3NsLmNvbYIUXrqk9LH3
SCXjX5vaoRPt1SsDZxUwDwYDVR0TBAgwBgEB/wIBADALBgNVHQ8EBAMCAQYwDQYJ
KoZIhvcNAQELBQADggEBAKdh1VRgxKItZ6algcJIrNz0SICzArDmIZUdsQWEZaB7
JqpflZKpcUTVeioCNKUhpeeKaatuncvvGLfXJAY3UnQsfzSgtlU23DCWcb+7hnfC
GPBUNoOtJ3s+1tK6AkNXDA8BW3FGLuWgJGoThgu1yIivL3PSNR8PAlBlAUNM2ViD
T72lReh0S1GqwSmCfXC11oB3MZwXZ2V7+bXfMqEauDD9ameYDhGdKTrdJ/DCqh0l
o3d5//ASa0PcO39leTBnFRMKEKzL/x5wYOEAMsz2qSGlmeU2dO6izfLRhQ9RJDis
eu/jybU1VT2AuiA7IAvAqLn9kef1mK70cIIzKonkl1M=
-----END CERTIFICATE-----
