Certificate:
    Data:
        Version: 3 (0x2)
        Serial Number: 101 (0x65)
        Signature Algorithm: sha256WithRSAEncryption
        Issuer: C=US, ST=Washington, L=Seattle, O=wolfSSL Inc., OU=Engineering, CN=chainD-ICA1-pathlen127, emailAddress=info@wolfssl.com
        Validity
            Not Before: Nov 13 20:41:42 2025 GMT
            Not After : Aug  9 20:41:42 2028 GMT
        Subject: C=US, ST=Washington, L=Seattle, O=wolfSSL Inc., OU=Engineering, CN=chainD-entity, emailAddress=info@wolfssl.com
        Subject Public Key Info:
            Public Key Algorithm: rsaEncryption
                Public-Key: (2048 bit)
                Modulus:
                    00:e2:5d:f4:bd:06:b6:a1:21:3a:2d:7f:cc:f2:5a:
                    15:36:28:0a:f2:bb:16:b5:ec:f9:e7:5b:92:ec:17:
                    75:76:89:f4:1b:7c:a9:79:cb:62:4b:55:8a:ca:cc:
                    f9:f0:a9:a2:05:61:ee:d8:8b:d0:5d:c5:49:bc:7d:
                    28:26:7d:3a:22:cc:20:71:55:4c:3a:f7:24:d7:95:
                    ac:ce:18:7d:0d:7b:20:4f:11:a9:7b:02:08:09:e6:
                    85:91:e4:4e:80:b9:a4:76:0f:28:cc:07:f6:f2:be:
                    c1:54:63:d2:b7:81:59:09:0b:c1:bd:0d:27:70:55:
                    c7:5f:bc:54:ee:73:16:7e:d2:b4:4c:df:a8:a9:81:
                    cc:e3:a6:8c:eb:e3:98:49:84:0b:a0:da:f3:e1:5f:
                    32:69:6a:b0:50:69:4f:96:72:04:3f:e7:1c:80:b1:
                    2c:6f:7d:ff:41:f2:bb:0b:17:b7:b5:ce:21:ea:e6:
                    c2:bd:cd:28:08:40:43:04:e5:40:e2:7d:41:35:b5:
                    51:bf:e8:20:01:99:85:a2:38:f1:6e:69:40:da:6e:
                    9f:d3:40:63:89:19:de:4d:49:d2:79:10:b6:2a:bb:
                    6f:66:fa:25:5f:96:c1:e8:38:96:e3:e5:28:28:b4:
                    ca:3c:21:1c:95:cd:b5:5e:50:f1:c9:3e:c2:4c:f2:
                    cb:33
                Exponent: 65537 (0x10001)
        X509v3 extensions:
            X509v3 Subject Key Identifier: 
                58:92:0B:B2:E4:12:D8:A3:31:37:D9:89:F2:9E:6E:62:22:40:42:82
            X509v3 Authority Key Identifier: 
                keyid:67:78:F9:AD:1C:53:41:1F:46:BD:49:9B:73:2E:7C:DC:5C:2D:0B:FB
                DirName:/C=US/ST=Montana/L=Bozeman/O=Sawtooth/OU=Consulting/CN=www.wolfssl.com/emailAddress=info@wolfssl.com
                serial:64
            X509v3 Basic Constraints: 
                CA:FALSE
    Signature Algorithm: sha256WithRSAEncryption
    Signature Value:
        a0:7a:52:9c:d9:04:df:a4:8f:b0:aa:35:6d:03:ff:2a:a9:5b:
        87:63:f1:3d:24:90:f2:ed:39:20:91:80:e6:e0:c2:cd:b5:a1:
        3c:2c:f1:71:7a:d4:e1:5a:50:e5:06:c7:0a:cc:50:9a:be:e2:
        e9:b7:40:66:66:ef:04:67:01:2a:83:90:b1:0f:40:0b:0a:b9:
        7b:ec:e1:b5:5d:b0:93:ac:6a:21:68:f0:82:ef:e7:96:3f:ab:
        ba:62:4b:1d:c8:f6:e2:39:3f:f0:ee:75:4f:f8:a3:8b:2d:42:
        19:e8:4d:81:af:42:fe:18:48:46:d8:28:80:14:1d:52:96:22:
        50:e4:24:30:28:b4:a4:92:66:1b:c6:07:a0:27:ff:cb:7e:5b:
        19:71:7e:1d:c0:62:cf:ab:f0:7e:a7:9c:05:71:ca:39:60:12:
        d4:3f:23:b7:bb:9b:d8:3c:61:a9:7d:8f:bf:0d:1d:af:3e:8c:
        ce:cc:fc:73:4f:06:43:7c:c2:f8:98:8e:08:26:65:7c:aa:84:
        93:ce:9c:1d:1e:30:c6:7b:d1:6b:ea:87:28:64:26:a8:01:41:
        a0:f0:12:82:2d:10:5e:76:6e:f1:ea:a8:be:ef:54:15:7f:5e:
        44:7e:94:d0:b9:70:9c:6e:68:79:b2:33:b0:65:6c:73:f5:62:
        0d:98:b8:8d
-----BEGIN CERTIFICATE-----
MIIErDCCA5SgAwIBAgIBZTANBgkqhkiG9w0BAQsFADCBozELMAkGA1UEBhMCVVMx
EzARBgNVBAgMCldhc2hpbmd0b24xEDAOBgNVBAcMB1NlYXR0bGUxFTATBgNVBAoM
DHdvbGZTU0wgSW5jLjEUMBIGA1UECwwLRW5naW5lZXJpbmcxHzAdBgNVBAMMFmNo
YWluRC1JQ0ExLXBhdGhsZW4xMjcxHzAdBgkqhkiG9w0BCQEWEGluZm9Ad29sZnNz
bC5jb20wHhcNMjUxMTEzMjA0MTQyWhcNMjgwODA5MjA0MTQyWjCBmjELMAkGA1UE
BhMCVVMxEzARBgNVBAgMCldhc2hpbmd0b24xEDAOBgNVBAcMB1NlYXR0bGUxFTAT
BgNVBAoMDHdvbGZTU0wgSW5jLjEUMBIGA1UECwwLRW5naW5lZXJpbmcxFjAUBgNV
BAMMDWNoYWluRC1lbnRpdHkxHzAdBgkqhkiG9w0BCQEWEGluZm9Ad29sZnNzbC5j
b20wggEiMA0GCSqGSIb3DQEBAQUAA4IBDwAwggEKAoIBAQDiXfS9BrahITotf8zy
WhU2KAryuxa17PnnW5LsF3V2ifQbfKl5y2JLVYrKzPnwqaIFYe7Yi9BdxUm8fSgm
fToizCBxVUw69yTXlazOGH0NeyBPEal7AggJ5oWR5E6AuaR2DyjMB/byvsFUY9K3
gVkJC8G9DSdwVcdfvFTucxZ+0rRM36ipgczjpozr45hJhAug2vPhXzJparBQaU+W
cgQ/5xyAsSxvff9B8rsLF7e1ziHq5sK9zSgIQEME5UDifUE1tVG/6CABmYWiOPFu
aUDabp/TQGOJGd5NSdJ5ELYqu29m+iVflsHoOJbj5SgotMo8IRyVzbVeUPHJPsJM
8sszAgMBAAGjgfEwge4wHQYDVR0OBBYEFFiSC7LkEtijMTfZifKebmIiQEKCMIHB
BgNVHSMEgbkwgbaAFGd4+a0cU0EfRr1Jm3MufNxcLQv7oYGapIGXMIGUMQswCQYD
VQQGEwJVUzEQMA4GA1UECAwHTW9udGFuYTEQMA4GA1UEBwwHQm96ZW1hbjERMA8G
A1UECgwIU2F3dG9vdGgxEzARBgNVBAsMCkNvbnN1bHRpbmcxGDAWBgNVBAMMD3d3
dy53b2xmc3NsLmNvbTEfMB0GCSqGSIb3DQEJARYQaW5mb0B3b2xmc3NsLmNvbYIB
ZDAJBgNVHRMEAjAAMA0GCSqGSIb3DQEBCwUAA4IBAQCgelKc2QTfpI+wqjVtA/8q
qVuHY/E9JJDy7TkgkYDm4MLNtaE8LPFxetThWlDlBscKzFCavuLpt0BmZu8EZwEq
g5CxD0ALCrl77OG1XbCTrGohaPCC7+eWP6u6YksdyPbiOT/w7nVP+KOLLUIZ6E2B
r0L+GEhG2CiAFB1SliJQ5CQwKLSkkmYbxgegJ//LflsZcX4dwGLPq/B+p5wFcco5
YBLUPyO3u5vYPGGpfY+/DR2vPozOzPxzTwZDfML4mI4IJmV8qoSTzpwdHjDGe9Fr
6ocoZCaoAUGg8BKCLRBedm7x6qi+71QVf15EfpTQuXCcbmh5sjOwZWxz9WINmLiN
-----END CERTIFICATE-----
