Certificate:
    Data:
        Version: 3 (0x2)
        Serial Number: 100 (0x64)
        Signature Algorithm: sha256WithRSAEncryption
        Issuer: C = US, ST = Washington, L = Seattle, O = wolfSSL Inc., OU = Engineering, CN = chainG-ICA6-pathlen10, emailAddress = info@wolfssl.com
        Validity
            Not Before: Feb 15 12:50:26 2022 GMT
            Not After : Nov 11 12:50:26 2024 GMT
        Subject: C = US, ST = Washington, L = Seattle, O = wolfSSL Inc., OU = Engineering, CN = chainG-ICA5-pathlen20, emailAddress = info@wolfssl.com
        Subject Public Key Info:
            Public Key Algorithm: rsaEncryption
                RSA Public-Key: (2048 bit)
                Modulus:
                    00:be:9d:98:a2:41:ca:64:1f:a2:34:dc:51:7d:49:
                    2b:f7:f8:7a:fc:1a:22:8d:3a:17:8e:00:9c:74:06:
                    18:0f:26:d1:e8:1d:55:4b:3e:bb:6e:98:6d:65:cb:
                    6f:be:c5:98:40:65:1d:e1:1d:af:ad:bc:7c:b0:fa:
                    b6:2a:cb:af:df:d5:52:98:e6:01:01:31:01:3f:c7:
                    16:06:44:92:55:43:6f:dd:49:be:aa:52:d2:80:ca:
                    3a:d0:72:f3:0a:7e:59:cb:2c:74:7c:5b:19:3d:75:
                    9d:3e:da:35:45:49:8b:0d:36:84:80:41:b7:ce:70:
                    fc:a8:d0:4d:0b:d4:f3:4e:73:87:db:2e:18:20:45:
                    70:f3:5a:d1:cf:4f:f8:78:ad:7c:4b:97:3c:f1:0f:
                    8a:f6:6c:8f:7a:3a:c9:79:82:2d:bf:ae:80:f8:8b:
                    1d:79:17:9b:76:34:97:b1:79:5d:79:fa:30:73:78:
                    fc:9c:ee:eb:62:20:95:f1:a8:af:1e:4a:91:cc:1e:
                    34:90:c7:89:21:41:41:90:09:10:52:dd:21:75:15:
                    11:aa:cf:d8:e4:6c:7d:96:c8:d6:cd:90:eb:fa:df:
                    86:e7:3d:36:73:18:f3:86:c5:99:0e:0e:f7:e4:09:
                    8f:8c:29:f1:ad:15:e9:82:c9:6c:87:fc:00:7b:4b:
                    2e:f1
                Exponent: 65537 (0x10001)
        X509v3 extensions:
            X509v3 Subject Key Identifier: 
                1D:51:80:B6:9A:A7:AC:DD:80:7B:4B:A2:0B:62:BE:E4:87:30:C7:CA
            X509v3 Authority Key Identifier: 
                keyid:14:07:E8:A7:3A:A2:9C:DD:4C:30:B0:4D:F0:00:C4:88:C4:39:DF:73
                DirName:/C=US/ST=Washington/L=Seattle/O=wolfSSL Inc./OU=Engineering/CN=chainG-ICA7-pathlen100/emailAddress=info@wolfssl.com
                serial:64

            X509v3 Basic Constraints: 
                CA:TRUE, pathlen:20
            X509v3 Key Usage: 
                Certificate Sign, CRL Sign
    Signature Algorithm: sha256WithRSAEncryption
         12:01:88:b5:a0:80:de:20:d1:f4:0a:7a:39:bd:e8:81:be:0c:
         32:66:4e:75:f4:7d:6d:10:15:a2:49:35:0a:e7:fe:d4:d6:69:
         35:f3:2a:43:10:52:69:12:36:44:45:f1:b8:72:3c:4f:6c:9f:
         f9:ea:8c:5b:28:60:68:ce:be:9c:88:fe:82:55:5a:61:ad:17:
         65:1b:54:90:25:49:ab:05:b1:fd:f5:bc:27:6f:6e:23:af:96:
         46:d0:3e:4b:3c:cd:e7:cd:33:56:a1:47:d1:20:62:a6:3b:ed:
         fa:b6:8e:ad:a1:5a:83:2e:de:c3:0e:4f:2d:e2:d9:40:1a:8f:
         8d:5a:ba:c9:cd:d5:04:e3:29:b4:98:6b:e5:a2:85:b6:10:46:
         9a:9f:7a:57:60:44:ae:d3:8d:85:cc:e3:42:a0:c4:91:d8:cb:
         2c:eb:f4:ab:43:08:a4:f3:0a:19:9f:b9:c7:b0:a3:4a:53:a6:
         13:e2:52:c2:6a:5d:98:f8:e2:ee:e2:1d:fc:69:1a:fc:3f:cb:
         24:53:fd:eb:6f:0d:5f:6a:99:a8:94:6b:f7:89:22:64:12:9e:
         c4:0c:ff:42:f2:34:f3:f6:c8:3e:d4:7c:35:db:50:8d:dc:cb:
         f3:eb:5e:00:50:89:27:b7:5d:e2:81:27:b5:d7:45:15:ce:89:
         aa:05:e8:2b
-----BEGIN CERTIFICATE-----
MIIE1zCCA7+gAwIBAgIBZDANBgkqhkiG9w0BAQsFADCBojELMAkGA1UEBhMCVVMx
EzARBgNVBAgMCldhc2hpbmd0b24xEDAOBgNVBAcMB1NlYXR0bGUxFTATBgNVBAoM
DHdvbGZTU0wgSW5jLjEUMBIGA1UECwwLRW5naW5lZXJpbmcxHjAcBgNVBAMMFWNo
YWluRy1JQ0E2LXBhdGhsZW4xMDEfMB0GCSqGSIb3DQEJARYQaW5mb0B3b2xmc3Ns
LmNvbTAeFw0yMjAyMTUxMjUwMjZaFw0yNDExMTExMjUwMjZaMIGiMQswCQYDVQQG
EwJVUzETMBEGA1UECAwKV2FzaGluZ3RvbjEQMA4GA1UEBwwHU2VhdHRsZTEVMBMG
A1UECgwMd29sZlNTTCBJbmMuMRQwEgYDVQQLDAtFbmdpbmVlcmluZzEeMBwGA1UE
AwwVY2hhaW5HLUlDQTUtcGF0aGxlbjIwMR8wHQYJKoZIhvcNAQkBFhBpbmZvQHdv
bGZzc2wuY29tMIIBIjANBgkqhkiG9w0BAQEFAAOCAQ8AMIIBCgKCAQEAvp2YokHK
ZB+iNNxRfUkr9/h6/BoijToXjgCcdAYYDybR6B1VSz67bphtZctvvsWYQGUd4R2v
rbx8sPq2Ksuv39VSmOYBATEBP8cWBkSSVUNv3Um+qlLSgMo60HLzCn5Zyyx0fFsZ
PXWdPto1RUmLDTaEgEG3znD8qNBNC9TzTnOH2y4YIEVw81rRz0/4eK18S5c88Q+K
9myPejrJeYItv66A+IsdeRebdjSXsXldefowc3j8nO7rYiCV8aivHkqRzB40kMeJ
IUFBkAkQUt0hdRURqs/Y5Gx9lsjWzZDr+t+G5z02cxjzhsWZDg735AmPjCnxrRXp
gslsh/wAe0su8QIDAQABo4IBFDCCARAwHQYDVR0OBBYEFB1RgLaap6zdgHtLogti
vuSHMMfKMIHQBgNVHSMEgcgwgcWAFBQH6Kc6opzdTDCwTfAAxIjEOd9zoYGppIGm
MIGjMQswCQYDVQQGEwJVUzETMBEGA1UECAwKV2FzaGluZ3RvbjEQMA4GA1UEBwwH
U2VhdHRsZTEVMBMGA1UECgwMd29sZlNTTCBJbmMuMRQwEgYDVQQLDAtFbmdpbmVl
cmluZzEfMB0GA1UEAwwWY2hhaW5HLUlDQTctcGF0aGxlbjEwMDEfMB0GCSqGSIb3
DQEJARYQaW5mb0B3b2xmc3NsLmNvbYIBZDAPBgNVHRMECDAGAQH/AgEUMAsGA1Ud
DwQEAwIBBjANBgkqhkiG9w0BAQsFAAOCAQEAEgGItaCA3iDR9Ap6Ob3ogb4MMmZO
dfR9bRAVokk1Cuf+1NZpNfMqQxBSaRI2REXxuHI8T2yf+eqMWyhgaM6+nIj+glVa
Ya0XZRtUkCVJqwWx/fW8J29uI6+WRtA+SzzN580zVqFH0SBipjvt+raOraFagy7e
ww5PLeLZQBqPjVq6yc3VBOMptJhr5aKFthBGmp96V2BErtONhczjQqDEkdjLLOv0
q0MIpPMKGZ+5x7CjSlOmE+JSwmpdmPji7uId/Gka/D/LJFP9628NX2qZqJRr94ki
ZBKexAz/QvI08/bIPtR8NdtQjdzL8+teAFCJJ7dd4oEntddFFc6JqgXoKw==
-----END CERTIFICATE-----
