Certificate:
    Data:
        Version: 3 (0x2)
        Serial Number: 101 (0x65)
        Signature Algorithm: sha256WithRSAEncryption
        Issuer: C=US, ST=Washington, L=Seattle, O=wolfSSL Inc., OU=Engineering, CN=chainH-ICA1-pathlen0, emailAddress=info@wolfssl.com
        Validity
            Not Before: Nov 13 20:41:47 2025 GMT
            Not After : Aug  9 20:41:47 2028 GMT
        Subject: C=US, ST=Washington, L=Seattle, O=wolfSSL Inc., OU=Engineering, CN=chainH-entity, emailAddress=info@wolfssl.com
        Subject Public Key Info:
            Public Key Algorithm: rsaEncryption
                Public-Key: (2048 bit)
                Modulus:
                    00:ba:ed:ab:c0:0d:92:6c:10:e4:50:9f:7c:98:cc:
                    87:fd:28:34:77:c0:58:28:52:2c:28:97:80:ec:78:
                    02:4f:f4:ca:60:f8:1d:e7:6a:04:52:2e:75:85:42:
                    74:76:00:e4:70:84:b8:51:8e:29:2e:7f:b6:ad:df:
                    6d:09:b4:4f:11:54:1e:88:16:e2:0e:af:30:f0:3d:
                    a7:da:9f:4e:0d:94:5b:05:51:9c:cc:05:65:8d:6b:
                    1e:3c:79:5b:26:7e:cb:ae:e9:9a:71:69:92:41:9b:
                    1a:cd:b4:53:0b:fb:2e:40:c4:e3:b1:5e:b8:8b:f8:
                    cf:0a:ec:5f:07:10:18:54:f8:8a:7d:35:97:7a:7a:
                    98:ea:93:2d:1b:e6:44:16:3f:cc:a7:4c:b9:cf:b5:
                    0b:09:47:b3:b8:8e:02:1a:56:69:37:b7:49:a4:59:
                    90:a3:20:88:f3:87:77:e8:39:0d:39:36:a5:56:b3:
                    ec:4b:f3:5e:8b:c2:cd:47:0c:d9:56:ce:32:f7:71:
                    33:db:7f:7d:c6:1e:7e:71:c1:01:06:98:9e:52:98:
                    9d:d7:9d:4a:32:94:3c:5a:42:66:00:ca:e2:a3:35:
                    db:b7:f3:27:0b:9c:fa:1b:99:4b:51:fa:6c:25:90:
                    f5:76:8c:d9:0d:80:8c:ac:61:eb:4d:92:12:6d:5f:
                    12:e5
                Exponent: 65537 (0x10001)
        X509v3 extensions:
            X509v3 Subject Key Identifier: 
                ED:62:FB:8F:91:CB:DE:B0:C8:89:CE:BA:B5:80:A8:47:F1:72:16:05
            X509v3 Authority Key Identifier: 
                keyid:48:80:87:28:EF:E6:28:0F:03:9B:DF:33:48:10:A0:E5:20:B3:69:50
                DirName:/C=US/ST=Washington/L=Seattle/O=wolfSSL Inc./OU=Engineering/CN=chainH-ICA2-pathlen2/emailAddress=info@wolfssl.com
                serial:64
            X509v3 Basic Constraints: 
                CA:FALSE
    Signature Algorithm: sha256WithRSAEncryption
    Signature Value:
        7b:11:5e:eb:3b:e4:aa:77:f4:27:a5:ee:b0:ca:fe:e5:88:ff:
        a9:ac:20:76:57:d3:f1:40:c7:89:0b:ad:32:a4:a4:e7:f0:a1:
        60:61:fa:1c:c0:f3:7e:2d:9a:7c:2c:fa:78:7b:50:93:cc:10:
        0f:a6:2f:7b:38:80:e4:b1:b1:db:03:b5:86:4a:53:97:31:4e:
        31:eb:55:c0:04:6c:ee:ed:97:1b:e9:24:41:f7:b7:83:c2:05:
        10:c3:e2:23:6f:83:89:3b:70:c0:20:9f:49:41:10:71:46:35:
        cf:d2:ad:f0:46:05:11:8d:a8:95:6c:ab:67:0b:a4:87:04:7a:
        93:04:b7:48:d7:aa:50:39:39:ce:01:a2:f1:37:0f:6d:bd:f7:
        17:f1:c4:98:18:69:35:6d:35:54:04:89:37:b7:a4:1b:a8:28:
        2e:0f:5c:c0:b8:de:3d:e2:41:46:b3:41:e2:94:2c:b5:54:ff:
        2d:03:d5:3a:c0:0d:2c:b1:91:fd:5d:84:90:27:69:b3:4c:34:
        0d:9f:d2:08:8f:12:0d:87:0e:fd:40:a7:3f:d6:10:f7:de:63:
        cf:71:be:76:ac:f3:45:b7:03:c9:45:e1:6f:88:29:2e:c4:d9:
        d5:70:5f:1e:73:c4:0d:1e:3d:95:48:e4:86:37:f9:31:30:d0:
        e2:53:c3:46
-----BEGIN CERTIFICATE-----
MIIEtzCCA5+gAwIBAgIBZTANBgkqhkiG9w0BAQsFADCBoTELMAkGA1UEBhMCVVMx
EzARBgNVBAgMCldhc2hpbmd0b24xEDAOBgNVBAcMB1NlYXR0bGUxFTATBgNVBAoM
DHdvbGZTU0wgSW5jLjEUMBIGA1UECwwLRW5naW5lZXJpbmcxHTAbBgNVBAMMFGNo
YWluSC1JQ0ExLXBhdGhsZW4wMR8wHQYJKoZIhvcNAQkBFhBpbmZvQHdvbGZzc2wu
Y29tMB4XDTI1MTExMzIwNDE0N1oXDTI4MDgwOTIwNDE0N1owgZoxCzAJBgNVBAYT
AlVTMRMwEQYDVQQIDApXYXNoaW5ndG9uMRAwDgYDVQQHDAdTZWF0dGxlMRUwEwYD
VQQKDAx3b2xmU1NMIEluYy4xFDASBgNVBAsMC0VuZ2luZWVyaW5nMRYwFAYDVQQD
DA1jaGFpbkgtZW50aXR5MR8wHQYJKoZIhvcNAQkBFhBpbmZvQHdvbGZzc2wuY29t
MIIBIjANBgkqhkiG9w0BAQEFAAOCAQ8AMIIBCgKCAQEAuu2rwA2SbBDkUJ98mMyH
/Sg0d8BYKFIsKJeA7HgCT/TKYPgd52oEUi51hUJ0dgDkcIS4UY4pLn+2rd9tCbRP
EVQeiBbiDq8w8D2n2p9ODZRbBVGczAVljWsePHlbJn7LrumacWmSQZsazbRTC/su
QMTjsV64i/jPCuxfBxAYVPiKfTWXenqY6pMtG+ZEFj/Mp0y5z7ULCUezuI4CGlZp
N7dJpFmQoyCI84d36DkNOTalVrPsS/Nei8LNRwzZVs4y93Ez2399xh5+ccEBBpie
Upid151KMpQ8WkJmAMriozXbt/MnC5z6G5lLUfpsJZD1dozZDYCMrGHrTZISbV8S
5QIDAQABo4H+MIH7MB0GA1UdDgQWBBTtYvuPkcvesMiJzrq1gKhH8XIWBTCBzgYD
VR0jBIHGMIHDgBRIgIco7+YoDwOb3zNIEKDlILNpUKGBp6SBpDCBoTELMAkGA1UE
BhMCVVMxEzARBgNVBAgMCldhc2hpbmd0b24xEDAOBgNVBAcMB1NlYXR0bGUxFTAT
BgNVBAoMDHdvbGZTU0wgSW5jLjEUMBIGA1UECwwLRW5naW5lZXJpbmcxHTAbBgNV
BAMMFGNoYWluSC1JQ0EyLXBhdGhsZW4yMR8wHQYJKoZIhvcNAQkBFhBpbmZvQHdv
bGZzc2wuY29tggFkMAkGA1UdEwQCMAAwDQYJKoZIhvcNAQELBQADggEBAHsRXus7
5Kp39Cel7rDK/uWI/6msIHZX0/FAx4kLrTKkpOfwoWBh+hzA834tmnws+nh7UJPM
EA+mL3s4gOSxsdsDtYZKU5cxTjHrVcAEbO7tlxvpJEH3t4PCBRDD4iNvg4k7cMAg
n0lBEHFGNc/SrfBGBRGNqJVsq2cLpIcEepMEt0jXqlA5Oc4BovE3D2299xfxxJgY
aTVtNVQEiTe3pBuoKC4PXMC43j3iQUazQeKULLVU/y0D1TrADSyxkf1dhJAnabNM
NA2f0giPEg2HDv1Apz/WEPfeY89xvnas80W3A8lF4W+IKS7E2dVwXx5zxA0ePZVI
5IY3+TEw0OJTw0Y=
-----END CERTIFICATE-----
