Certificate:
    Data:
        Version: 3 (0x2)
        Serial Number: 100 (0x64)
        Signature Algorithm: sha256WithRSAEncryption
        Issuer: C = US, ST = Washington, L = Seattle, O = wolfSSL Inc., OU = Engineering, CN = chainJ-ICA3-no_pathlen, emailAddress = info@wolfssl.com
        Validity
            Not Before: Feb 15 12:50:26 2022 GMT
            Not After : Nov 11 12:50:26 2024 GMT
        Subject: C = US, ST = Washington, L = Seattle, O = wolfSSL Inc., OU = Engineering, CN = chainJ-ICA2-no_pathlen, emailAddress = info@wolfssl.com
        Subject Public Key Info:
            Public Key Algorithm: rsaEncryption
                RSA Public-Key: (2048 bit)
                Modulus:
                    00:bb:29:fd:89:aa:82:e0:1d:04:78:69:ec:61:58:
                    51:52:84:7e:6b:55:69:2c:f4:23:d6:1f:d8:ed:ab:
                    19:96:38:7b:c6:88:d7:7d:85:93:00:35:40:0b:c0:
                    a9:ff:66:0f:9e:a1:1d:88:6e:a9:8a:f1:ad:47:b4:
                    71:c9:15:50:c6:0f:35:9e:95:4a:66:d3:bd:1b:38:
                    7b:dc:67:85:97:1b:b3:63:c9:72:d6:43:5a:f1:5e:
                    35:f6:05:96:c7:40:bc:23:ab:94:34:82:59:02:b2:
                    33:d0:e6:7f:19:57:65:68:3c:04:61:50:ef:22:95:
                    4f:ef:18:bf:15:b1:4d:8e:cd:a7:a0:98:22:f5:1c:
                    05:01:6b:4b:35:bf:88:c3:47:c3:24:29:b4:45:cb:
                    95:a1:ac:16:1d:dd:b8:68:ac:51:39:24:27:6a:be:
                    31:f1:ec:06:10:55:be:44:02:4f:e8:12:7b:d6:fe:
                    32:c9:48:37:6b:20:68:cb:53:f5:49:3a:ae:4a:c7:
                    43:c1:af:e6:53:11:d9:f8:71:1a:a2:d6:37:c7:2b:
                    45:50:49:51:4f:55:6c:3f:1e:69:7b:58:12:3a:7e:
                    59:a0:57:9d:28:9c:8a:6d:82:e7:13:15:3b:04:8f:
                    e2:82:0f:2f:cf:d9:25:d9:65:a3:3c:03:c0:cd:b6:
                    51:d5
                Exponent: 65537 (0x10001)
        X509v3 extensions:
            X509v3 Subject Key Identifier: 
                A3:F5:71:8A:60:80:3C:93:64:17:D9:2E:B5:C0:CE:A9:C1:14:17:C4
            X509v3 Authority Key Identifier: 
                keyid:CD:97:49:78:F7:31:61:ED:2F:71:1A:68:E9:45:2C:40:78:51:93:5B
                DirName:/C=US/ST=Washington/L=Seattle/O=wolfSSL Inc./OU=Engineering/CN=chainJ-ICA4-pathlen2/emailAddress=info@wolfssl.com
                serial:64

            X509v3 Basic Constraints: 
                CA:TRUE
            X509v3 Key Usage: 
                Certificate Sign, CRL Sign
    Signature Algorithm: sha256WithRSAEncryption
         2e:c3:9b:a2:47:92:bf:0d:58:16:71:ea:99:cd:26:53:8d:9b:
         3c:c8:b1:24:6e:ad:9f:92:e6:5a:fa:e5:a7:d5:65:ca:4e:30:
         3b:37:ff:e5:04:61:10:5b:a2:11:41:6a:da:40:ff:10:1f:39:
         e1:08:0b:4d:bd:33:e5:38:43:85:e9:f7:d5:e8:6a:66:f4:14:
         1c:d2:ad:91:6f:bf:ba:8d:ec:7d:ee:89:00:a0:48:34:b9:56:
         34:42:80:50:84:21:04:27:31:55:49:3a:5c:95:3a:5b:71:94:
         47:8c:df:0a:2c:f7:ee:30:52:61:fe:20:7c:1e:58:24:65:f0:
         7e:d3:6b:05:4a:e0:39:c4:24:d8:8b:ef:1c:b7:85:ed:b0:77:
         87:da:bd:33:0d:bd:4f:4a:65:76:7e:9e:6f:ed:0f:6f:72:9a:
         93:93:f8:e9:b4:8d:4b:33:24:b0:d7:38:33:45:77:00:d8:71:
         fa:37:7d:32:51:96:a9:ee:cd:02:f1:96:fe:dd:61:64:d9:64:
         f1:a2:13:95:3d:cc:56:86:9b:db:f9:3b:4f:85:88:96:aa:c9:
         f5:c2:df:2d:0e:56:6c:ca:26:c4:e2:e7:25:5b:d9:ee:47:6f:
         db:01:48:0f:b2:d8:43:fe:02:e1:a4:9b:7e:33:81:54:c3:6e:
         67:5f:81:84
-----BEGIN CERTIFICATE-----
MIIE1DCCA7ygAwIBAgIBZDANBgkqhkiG9w0BAQsFADCBozELMAkGA1UEBhMCVVMx
EzARBgNVBAgMCldhc2hpbmd0b24xEDAOBgNVBAcMB1NlYXR0bGUxFTATBgNVBAoM
DHdvbGZTU0wgSW5jLjEUMBIGA1UECwwLRW5naW5lZXJpbmcxHzAdBgNVBAMMFmNo
YWluSi1JQ0EzLW5vX3BhdGhsZW4xHzAdBgkqhkiG9w0BCQEWEGluZm9Ad29sZnNz
bC5jb20wHhcNMjIwMjE1MTI1MDI2WhcNMjQxMTExMTI1MDI2WjCBozELMAkGA1UE
BhMCVVMxEzARBgNVBAgMCldhc2hpbmd0b24xEDAOBgNVBAcMB1NlYXR0bGUxFTAT
BgNVBAoMDHdvbGZTU0wgSW5jLjEUMBIGA1UECwwLRW5naW5lZXJpbmcxHzAdBgNV
BAMMFmNoYWluSi1JQ0EyLW5vX3BhdGhsZW4xHzAdBgkqhkiG9w0BCQEWEGluZm9A
d29sZnNzbC5jb20wggEiMA0GCSqGSIb3DQEBAQUAA4IBDwAwggEKAoIBAQC7Kf2J
qoLgHQR4aexhWFFShH5rVWks9CPWH9jtqxmWOHvGiNd9hZMANUALwKn/Zg+eoR2I
bqmK8a1HtHHJFVDGDzWelUpm070bOHvcZ4WXG7NjyXLWQ1rxXjX2BZbHQLwjq5Q0
glkCsjPQ5n8ZV2VoPARhUO8ilU/vGL8VsU2OzaegmCL1HAUBa0s1v4jDR8MkKbRF
y5WhrBYd3bhorFE5JCdqvjHx7AYQVb5EAk/oEnvW/jLJSDdrIGjLU/VJOq5Kx0PB
r+ZTEdn4cRqi1jfHK0VQSVFPVWw/Hml7WBI6flmgV50onIptgucTFTsEj+KCDy/P
2SXZZaM8A8DNtlHVAgMBAAGjggEPMIIBCzAdBgNVHQ4EFgQUo/VximCAPJNkF9ku
tcDOqcEUF8Qwgc4GA1UdIwSBxjCBw4AUzZdJePcxYe0vcRpo6UUsQHhRk1uhgaek
gaQwgaExCzAJBgNVBAYTAlVTMRMwEQYDVQQIDApXYXNoaW5ndG9uMRAwDgYDVQQH
DAdTZWF0dGxlMRUwEwYDVQQKDAx3b2xmU1NMIEluYy4xFDASBgNVBAsMC0VuZ2lu
ZWVyaW5nMR0wGwYDVQQDDBRjaGFpbkotSUNBNC1wYXRobGVuMjEfMB0GCSqGSIb3
DQEJARYQaW5mb0B3b2xmc3NsLmNvbYIBZDAMBgNVHRMEBTADAQH/MAsGA1UdDwQE
AwIBBjANBgkqhkiG9w0BAQsFAAOCAQEALsObokeSvw1YFnHqmc0mU42bPMixJG6t
n5LmWvrlp9Vlyk4wOzf/5QRhEFuiEUFq2kD/EB854QgLTb0z5ThDhen31ehqZvQU
HNKtkW+/uo3sfe6JAKBINLlWNEKAUIQhBCcxVUk6XJU6W3GUR4zfCiz37jBSYf4g
fB5YJGXwftNrBUrgOcQk2IvvHLeF7bB3h9q9Mw29T0pldn6eb+0Pb3Kak5P46bSN
SzMksNc4M0V3ANhx+jd9MlGWqe7NAvGW/t1hZNlk8aITlT3MVoab2/k7T4WIlqrJ
9cLfLQ5WbMomxOLnJVvZ7kdv2wFID7LYQ/4C4aSbfjOBVMNuZ1+BhA==
-----END CERTIFICATE-----
