Certificate:
    Data:
        Version: 3 (0x2)
        Serial Number: 101 (0x65)
        Signature Algorithm: sha256WithRSAEncryption
        Issuer: C = US, ST = Washington, L = Seattle, O = wolfSSL Inc., OU = Engineering, CN = chainF-ICA1-pathlen1, emailAddress = info@wolfssl.com
        Validity
            Not Before: May  7 07:39:05 2020 GMT
            Not After : Feb  1 07:39:05 2023 GMT
        Subject: C = US, ST = Washington, L = Seattle, O = wolfSSL Inc., OU = Engineering, CN = chainF-entity, emailAddress = info@wolfssl.com
        Subject Public Key Info:
            Public Key Algorithm: rsaEncryption
                RSA Public-Key: (2048 bit)
                Modulus:
                    00:c9:f8:2c:ad:25:a9:65:3b:72:13:5d:aa:7f:5b:
                    71:f5:e0:43:c4:3a:b3:36:0d:34:61:35:86:77:a0:
                    2a:81:de:2c:7c:7d:01:fb:f4:c3:00:b0:17:b9:49:
                    93:1d:c2:1b:6f:40:ee:86:e0:a7:f3:5e:ad:23:43:
                    99:5f:34:38:c8:58:02:9b:cc:9e:59:da:81:5b:b1:
                    40:74:ca:c1:b8:67:14:ba:3f:71:16:d9:ba:a9:cd:
                    f1:96:1b:52:e2:d2:07:6d:6a:d6:cf:e7:a8:c8:e0:
                    4f:eb:35:64:bc:aa:1a:17:af:98:de:d0:9b:08:73:
                    72:d8:fe:e2:e5:4e:7e:97:37:37:58:9e:5c:65:91:
                    b9:5d:38:da:ba:db:00:c0:f6:4a:6f:9c:86:23:ad:
                    b0:c4:ff:b7:dd:d6:9a:b0:de:8d:15:87:e2:4b:04:
                    85:6d:5d:cc:5f:65:6f:e1:ae:22:44:80:18:ba:c2:
                    95:a4:a3:28:c5:3f:7b:4c:85:6c:0f:11:14:56:d2:
                    d5:a7:f7:03:e9:f7:ce:ef:d9:18:02:f0:f2:6e:81:
                    ef:ac:50:87:0e:b0:46:9f:ae:c0:77:8f:03:28:8a:
                    9d:6e:87:50:8f:37:46:b3:29:57:a4:c2:ef:25:cd:
                    23:1a:ef:1a:03:c9:59:69:cd:45:5f:39:3f:76:d4:
                    79:53
                Exponent: 65537 (0x10001)
        X509v3 extensions:
            X509v3 Subject Key Identifier: 
                E9:27:36:DA:64:81:70:89:C9:C1:F9:E3:92:7A:67:11:07:01:4A:49
            X509v3 Authority Key Identifier: 
                keyid:75:32:21:05:2B:60:FE:44:17:AF:18:65:86:85:19:82:3F:F9:64:83
                DirName:/C=US/ST=Washington/L=Seattle/O=wolfSSL Inc./OU=Engineering/CN=chainF-ICA2-pathlen0/emailAddress=info@wolfssl.com
                serial:64

            X509v3 Basic Constraints: 
                CA:FALSE
    Signature Algorithm: sha256WithRSAEncryption
         60:29:4d:33:92:ad:24:1e:0e:a2:b6:e4:f3:2e:47:c2:0c:6b:
         4d:1e:28:62:5a:d2:c1:03:a2:c2:83:4f:2f:79:c9:1b:f3:15:
         e0:e9:90:ce:e2:a4:e9:a0:20:b3:df:22:02:c4:da:c7:d8:ea:
         7d:45:8f:65:1b:d5:cf:1f:5a:90:6b:cc:e8:28:69:78:e8:67:
         43:04:92:9b:8b:80:f1:36:40:9e:35:ca:91:7f:dc:80:33:41:
         4c:98:88:61:5a:07:bf:52:b9:79:df:70:40:13:76:58:fb:7b:
         78:09:c9:01:8a:f3:09:1d:a7:04:4b:28:ce:dc:0a:96:11:dc:
         39:7e:6f:89:8c:63:a8:c1:a5:5b:24:7a:f3:0e:16:bd:6d:f0:
         4b:5b:04:5a:ba:66:ef:0d:35:9e:7a:61:39:c8:24:10:82:70:
         7b:67:b1:5c:56:fe:d5:38:f7:3d:a4:55:05:99:75:74:15:a9:
         3b:d4:f1:57:73:36:d2:a3:c5:c0:a3:a2:d9:f7:31:14:f8:59:
         7b:87:ae:ad:13:c3:c9:0a:56:b2:a4:b4:c8:ae:88:5c:0e:1f:
         07:4b:2f:ce:19:1e:a1:f0:31:b3:13:7e:bb:1b:f2:8c:c3:86:
         7f:41:95:cc:ea:2f:34:91:fc:61:60:8d:54:95:ed:f0:26:b2:
         c0:ae:55:0f
-----BEGIN CERTIFICATE-----
MIIEtzCCA5+gAwIBAgIBZTANBgkqhkiG9w0BAQsFADCBoTELMAkGA1UEBhMCVVMx
EzARBgNVBAgMCldhc2hpbmd0b24xEDAOBgNVBAcMB1NlYXR0bGUxFTATBgNVBAoM
DHdvbGZTU0wgSW5jLjEUMBIGA1UECwwLRW5naW5lZXJpbmcxHTAbBgNVBAMMFGNo
YWluRi1JQ0ExLXBhdGhsZW4xMR8wHQYJKoZIhvcNAQkBFhBpbmZvQHdvbGZzc2wu
Y29tMB4XDTIwMDUwNzA3MzkwNVoXDTIzMDIwMTA3MzkwNVowgZoxCzAJBgNVBAYT
AlVTMRMwEQYDVQQIDApXYXNoaW5ndG9uMRAwDgYDVQQHDAdTZWF0dGxlMRUwEwYD
VQQKDAx3b2xmU1NMIEluYy4xFDASBgNVBAsMC0VuZ2luZWVyaW5nMRYwFAYDVQQD
DA1jaGFpbkYtZW50aXR5MR8wHQYJKoZIhvcNAQkBFhBpbmZvQHdvbGZzc2wuY29t
MIIBIjANBgkqhkiG9w0BAQEFAAOCAQ8AMIIBCgKCAQEAyfgsrSWpZTtyE12qf1tx
9eBDxDqzNg00YTWGd6Aqgd4sfH0B+/TDALAXuUmTHcIbb0DuhuCn816tI0OZXzQ4
yFgCm8yeWdqBW7FAdMrBuGcUuj9xFtm6qc3xlhtS4tIHbWrWz+eoyOBP6zVkvKoa
F6+Y3tCbCHNy2P7i5U5+lzc3WJ5cZZG5XTjautsAwPZKb5yGI62wxP+33daasN6N
FYfiSwSFbV3MX2Vv4a4iRIAYusKVpKMoxT97TIVsDxEUVtLVp/cD6ffO79kYAvDy
boHvrFCHDrBGn67Ad48DKIqdbodQjzdGsylXpMLvJc0jGu8aA8lZac1FXzk/dtR5
UwIDAQABo4H+MIH7MB0GA1UdDgQWBBTpJzbaZIFwicnB+eOSemcRBwFKSTCBzgYD
VR0jBIHGMIHDgBR1MiEFK2D+RBevGGWGhRmCP/lkg6GBp6SBpDCBoTELMAkGA1UE
BhMCVVMxEzARBgNVBAgMCldhc2hpbmd0b24xEDAOBgNVBAcMB1NlYXR0bGUxFTAT
BgNVBAoMDHdvbGZTU0wgSW5jLjEUMBIGA1UECwwLRW5naW5lZXJpbmcxHTAbBgNV
BAMMFGNoYWluRi1JQ0EyLXBhdGhsZW4wMR8wHQYJKoZIhvcNAQkBFhBpbmZvQHdv
bGZzc2wuY29tggFkMAkGA1UdEwQCMAAwDQYJKoZIhvcNAQELBQADggEBAGApTTOS
rSQeDqK25PMuR8IMa00eKGJa0sEDosKDTy95yRvzFeDpkM7ipOmgILPfIgLE2sfY
6n1Fj2Ub1c8fWpBrzOgoaXjoZ0MEkpuLgPE2QJ41ypF/3IAzQUyYiGFaB79SuXnf
cEATdlj7e3gJyQGK8wkdpwRLKM7cCpYR3Dl+b4mMY6jBpVskevMOFr1t8EtbBFq6
Zu8NNZ56YTnIJBCCcHtnsVxW/tU49z2kVQWZdXQVqTvU8VdzNtKjxcCjotn3MRT4
WXuHrq0Tw8kKVrKktMiuiFwOHwdLL84ZHqHwMbMTfrsb8ozDhn9BlczqLzSR/GFg
jVSV7fAmssCuVQ8=
-----END CERTIFICATE-----
