Certificate:
    Data:
        Version: 3 (0x2)
        Serial Number: 100 (0x64)
        Signature Algorithm: sha256WithRSAEncryption
        Issuer: C = US, ST = Montana, L = Bozeman, O = Sawtooth, OU = Consulting, CN = www.wolfssl.com, emailAddress = info@wolfssl.com
        Validity
            Not Before: Sep 26 17:22:46 2023 GMT
            Not After : Jun 22 17:22:46 2026 GMT
        Subject: C = US, ST = Washington, L = Seattle, O = wolfSSL Inc., OU = Engineering, CN = chainB-ICA2-pathlen1, emailAddress = info@wolfssl.com
        Subject Public Key Info:
            Public Key Algorithm: rsaEncryption
                Public-Key: (2048 bit)
                Modulus:
                    00:d0:7f:82:05:9d:5b:c4:49:e0:3e:1f:87:6e:17:
                    05:eb:e2:0a:d1:d1:a5:f5:cc:be:1d:46:d8:cd:a8:
                    6e:22:ce:3d:5c:39:71:a4:0d:03:fa:78:7e:bb:6c:
                    e8:51:e5:98:ef:a6:5e:62:d2:30:fa:3b:8f:21:5f:
                    b7:5f:98:b7:9f:a8:56:7a:39:ca:c2:df:a1:56:fe:
                    95:97:56:5e:5b:fe:74:d9:f2:2e:ca:7e:db:50:77:
                    5a:d1:90:dc:22:d6:fe:4b:c0:57:a1:c6:3b:4a:ba:
                    ad:05:14:c9:24:68:76:b5:e2:26:d5:cb:50:fd:d0:
                    77:0e:8c:0c:b9:5e:f7:a4:9a:45:35:6c:62:ca:e9:
                    38:d4:10:9a:5c:30:a5:4f:26:47:03:03:73:56:85:
                    8c:be:f5:d0:c0:09:06:3e:0e:e8:e5:7d:d0:19:54:
                    ed:57:ec:51:cf:bc:95:15:91:cf:d0:9a:84:dd:8a:
                    50:7c:33:c2:1a:61:70:31:9a:19:17:28:b3:8c:da:
                    5f:b8:d2:06:6b:82:3f:b6:6a:28:29:86:b4:20:cb:
                    a5:af:73:66:e4:37:36:81:f0:3f:ad:bf:05:b8:db:
                    2e:c4:22:e2:eb:46:87:f4:60:d1:a6:7f:ee:9c:41:
                    a7:f3:aa:e9:37:dd:da:d6:f0:cd:48:ac:51:d1:77:
                    8d:a1
                Exponent: 65537 (0x10001)
        X509v3 extensions:
            X509v3 Subject Key Identifier: 
                EE:59:9D:56:0B:7C:0A:45:44:E3:15:57:E2:B2:F3:1D:64:6F:AF:7A
            X509v3 Authority Key Identifier: 
                keyid:27:8E:67:11:74:C3:26:1D:3F:ED:33:63:B3:A4:D8:1D:30:E5:E8:D5
                DirName:/C=US/ST=Montana/L=Bozeman/O=Sawtooth/OU=Consulting/CN=www.wolfssl.com/emailAddress=info@wolfssl.com
                serial:4F:1D:F3:64:BA:21:A8:E6:CB:74:3A:4E:44:A5:E6:79:19:E8:5B:81
            X509v3 Basic Constraints: 
                CA:TRUE, pathlen:1
            X509v3 Key Usage: 
                Certificate Sign, CRL Sign
    Signature Algorithm: sha256WithRSAEncryption
    Signature Value:
        a6:95:bb:70:f6:4d:4c:10:b8:b6:95:bb:c5:25:ca:a7:1d:e6:
        8a:f3:88:12:18:29:aa:0b:ac:b2:54:a5:cb:ba:00:e8:41:d5:
        12:ff:0d:b2:05:e5:27:78:e3:f8:a0:92:56:db:7b:5f:ae:37:
        7f:5d:98:0d:ca:c2:a2:71:81:16:fb:07:89:c6:96:30:15:cf:
        82:89:8e:cc:37:0d:21:d0:ba:da:b8:e2:4d:37:7a:37:b8:87:
        50:e4:cb:a3:14:09:d1:f2:13:d0:de:3f:b3:66:17:b3:bb:4f:
        21:78:56:7e:35:11:4c:cc:71:5d:14:e7:e6:e3:d4:44:19:fd:
        98:76:2e:f7:83:62:f6:f6:52:35:bf:8a:9c:e0:6b:99:ce:cf:
        18:b3:00:75:7c:88:14:a7:bc:46:53:e3:82:38:ba:c5:1b:33:
        cd:aa:db:24:d1:65:e6:8b:a7:73:51:e0:15:0a:4a:d5:f2:2a:
        16:f6:8e:48:28:47:36:ca:5f:a1:e8:7a:77:1c:96:d3:b1:6c:
        8e:1e:bb:2d:f4:7c:b8:fa:47:a6:c7:89:ae:be:27:37:8e:a1:
        28:5b:03:63:51:47:eb:99:3c:4a:3f:34:ed:fa:9e:25:f8:96:
        11:5e:8a:de:be:ad:03:bf:60:c6:25:05:4d:d8:f5:4f:40:7c:
        28:16:54:64
-----BEGIN CERTIFICATE-----
MIIEzDCCA7SgAwIBAgIBZDANBgkqhkiG9w0BAQsFADCBlDELMAkGA1UEBhMCVVMx
EDAOBgNVBAgMB01vbnRhbmExEDAOBgNVBAcMB0JvemVtYW4xETAPBgNVBAoMCFNh
d3Rvb3RoMRMwEQYDVQQLDApDb25zdWx0aW5nMRgwFgYDVQQDDA93d3cud29sZnNz
bC5jb20xHzAdBgkqhkiG9w0BCQEWEGluZm9Ad29sZnNzbC5jb20wHhcNMjMwOTI2
MTcyMjQ2WhcNMjYwNjIyMTcyMjQ2WjCBoTELMAkGA1UEBhMCVVMxEzARBgNVBAgM
Cldhc2hpbmd0b24xEDAOBgNVBAcMB1NlYXR0bGUxFTATBgNVBAoMDHdvbGZTU0wg
SW5jLjEUMBIGA1UECwwLRW5naW5lZXJpbmcxHTAbBgNVBAMMFGNoYWluQi1JQ0Ey
LXBhdGhsZW4xMR8wHQYJKoZIhvcNAQkBFhBpbmZvQHdvbGZzc2wuY29tMIIBIjAN
BgkqhkiG9w0BAQEFAAOCAQ8AMIIBCgKCAQEA0H+CBZ1bxEngPh+HbhcF6+IK0dGl
9cy+HUbYzahuIs49XDlxpA0D+nh+u2zoUeWY76ZeYtIw+juPIV+3X5i3n6hWejnK
wt+hVv6Vl1ZeW/502fIuyn7bUHda0ZDcItb+S8BXocY7SrqtBRTJJGh2teIm1ctQ
/dB3DowMuV73pJpFNWxiyuk41BCaXDClTyZHAwNzVoWMvvXQwAkGPg7o5X3QGVTt
V+xRz7yVFZHP0JqE3YpQfDPCGmFwMZoZFyizjNpfuNIGa4I/tmooKYa0IMulr3Nm
5Dc2gfA/rb8FuNsuxCLi60aH9GDRpn/unEGn86rpN93a1vDNSKxR0XeNoQIDAQAB
o4IBGDCCARQwHQYDVR0OBBYEFO5ZnVYLfApFROMVV+Ky8x1kb696MIHUBgNVHSME
gcwwgcmAFCeOZxF0wyYdP+0zY7Ok2B0w5ejVoYGapIGXMIGUMQswCQYDVQQGEwJV
UzEQMA4GA1UECAwHTW9udGFuYTEQMA4GA1UEBwwHQm96ZW1hbjERMA8GA1UECgwI
U2F3dG9vdGgxEzARBgNVBAsMCkNvbnN1bHRpbmcxGDAWBgNVBAMMD3d3dy53b2xm
c3NsLmNvbTEfMB0GCSqGSIb3DQEJARYQaW5mb0B3b2xmc3NsLmNvbYIUTx3zZLoh
qObLdDpORKXmeRnoW4EwDwYDVR0TBAgwBgEB/wIBATALBgNVHQ8EBAMCAQYwDQYJ
KoZIhvcNAQELBQADggEBAKaVu3D2TUwQuLaVu8Ulyqcd5orziBIYKaoLrLJUpcu6
AOhB1RL/DbIF5Sd44/igklbbe1+uN39dmA3KwqJxgRb7B4nGljAVz4KJjsw3DSHQ
utq44k03eje4h1Dky6MUCdHyE9DeP7NmF7O7TyF4Vn41EUzMcV0U5+bj1EQZ/Zh2
LveDYvb2UjW/ipzga5nOzxizAHV8iBSnvEZT44I4usUbM82q2yTRZeaLp3NR4BUK
StXyKhb2jkgoRzbKX6HoenccltOxbI4euy30fLj6R6bHia6+JzeOoShbA2NRR+uZ
PEo/NO36niX4lhFeit6+rQO/YMYlBU3Y9U9AfCgWVGQ=
-----END CERTIFICATE-----
