Certificate:
    Data:
        Version: 3 (0x2)
        Serial Number: 101 (0x65)
        Signature Algorithm: sha256WithRSAEncryption
        Issuer: C = US, ST = Washington, L = Seattle, O = wolfSSL Inc., OU = Engineering, CN = chainB-ICA1-pathlen0, emailAddress = info@wolfssl.com
        Validity
            Not Before: Dec 13 22:19:32 2023 GMT
            Not After : Sep  8 22:19:32 2026 GMT
        Subject: C = US, ST = Washington, L = Seattle, O = wolfSSL Inc., OU = Engineering, CN = chainB-entity, emailAddress = info@wolfssl.com
        Subject Public Key Info:
            Public Key Algorithm: rsaEncryption
                RSA Public-Key: (2048 bit)
                Modulus:
                    00:d7:5f:d9:3d:d7:5b:11:aa:3e:53:31:d0:32:78:
                    87:fb:c0:8e:80:6d:fc:68:73:1f:9c:77:66:16:35:
                    fc:2f:d7:e4:ca:ba:2a:73:5f:14:94:12:f0:48:31:
                    a2:40:ad:b4:e3:07:0c:02:47:b4:0a:07:69:d5:d2:
                    85:bf:c8:bc:14:8c:c7:87:ba:5f:87:c5:07:f4:df:
                    a4:46:1e:b7:13:0f:9d:7e:f6:1a:7b:29:09:55:4c:
                    17:ee:c8:b0:9d:39:0c:89:6e:18:9c:06:7f:5d:95:
                    d2:4c:71:b3:1f:ea:5d:d2:f6:2c:69:a8:16:15:59:
                    e5:7d:03:d7:bd:1a:34:e3:f1:27:e3:b9:7d:68:e0:
                    39:3f:35:62:2f:20:20:fa:19:62:37:1a:30:47:6c:
                    a3:f9:8e:9c:f3:67:2e:bb:38:4c:2e:0a:21:9b:70:
                    b6:97:a2:1b:b3:98:0d:5b:74:97:33:f0:b8:6c:4e:
                    ad:b4:1f:48:62:c9:9a:af:2d:a6:a1:06:ae:98:30:
                    54:5e:cb:dd:23:77:d5:ee:5c:fb:81:f0:2b:ad:6f:
                    fa:e3:b1:0e:98:bd:3e:0b:f4:7c:c5:e3:50:bf:08:
                    9b:bf:be:f8:6a:d9:db:78:36:84:f2:7e:7b:7d:5e:
                    a7:8f:42:81:5f:41:f4:77:5c:30:51:f5:3f:2d:25:
                    95:4d
                Exponent: 65537 (0x10001)
        X509v3 extensions:
            X509v3 Subject Key Identifier: 
                7F:17:7E:8E:A8:2C:AD:9C:C7:22:7E:A6:C6:90:9E:63:C4:5F:33:9E
            X509v3 Authority Key Identifier: 
                keyid:D7:90:E4:86:59:24:F9:2B:B8:06:8E:B1:8F:33:E5:2C:63:F1:03:16
                DirName:/C=US/ST=Washington/L=Seattle/O=wolfSSL Inc./OU=Engineering/CN=chainB-ICA2-pathlen1/emailAddress=info@wolfssl.com
                serial:64

            X509v3 Basic Constraints: 
                CA:FALSE
    Signature Algorithm: sha256WithRSAEncryption
         58:2b:2e:33:ed:42:7d:ce:8a:9f:2e:25:2f:7a:66:6f:d0:8a:
         32:ee:70:b6:a0:ee:6f:ec:0c:52:af:d8:8c:2a:11:9f:f0:f3:
         6a:41:bd:da:43:ad:82:5d:52:95:e2:6b:95:42:d1:24:09:ba:
         7d:b5:6b:73:a2:96:3d:72:ba:65:cd:9c:c6:65:52:fb:68:65:
         cb:55:5d:f5:44:fa:66:72:8c:1c:33:92:a6:37:77:44:16:86:
         ed:f2:d3:a9:49:ff:aa:05:96:c8:e0:1c:b7:0a:60:e7:46:5e:
         94:9d:c8:7a:31:41:98:96:38:17:a0:79:e3:1d:a3:13:06:17:
         2d:b8:fd:6f:34:ed:e3:6d:36:e7:d4:5d:cf:00:4a:ce:a6:ff:
         1c:87:d8:48:1b:65:b0:d0:72:70:48:15:bd:f1:3c:a9:06:f9:
         7e:11:c1:43:6c:0b:60:d9:d9:5c:d3:3b:c2:18:eb:3f:82:eb:
         fd:a5:1a:b2:a2:23:10:c3:30:af:4a:e9:d9:05:f1:e2:4e:e9:
         41:bd:d7:dd:98:db:91:f2:15:54:4c:82:3d:22:aa:18:e5:e6:
         df:9b:85:21:63:74:3d:08:a9:2e:35:e2:5e:61:32:78:04:49:
         91:0d:8c:05:12:90:ec:f5:c5:d2:71:8a:2a:65:5c:b1:d4:14:
         53:de:9b:98
-----BEGIN CERTIFICATE-----
MIIEtzCCA5+gAwIBAgIBZTANBgkqhkiG9w0BAQsFADCBoTELMAkGA1UEBhMCVVMx
EzARBgNVBAgMCldhc2hpbmd0b24xEDAOBgNVBAcMB1NlYXR0bGUxFTATBgNVBAoM
DHdvbGZTU0wgSW5jLjEUMBIGA1UECwwLRW5naW5lZXJpbmcxHTAbBgNVBAMMFGNo
YWluQi1JQ0ExLXBhdGhsZW4wMR8wHQYJKoZIhvcNAQkBFhBpbmZvQHdvbGZzc2wu
Y29tMB4XDTIzMTIxMzIyMTkzMloXDTI2MDkwODIyMTkzMlowgZoxCzAJBgNVBAYT
AlVTMRMwEQYDVQQIDApXYXNoaW5ndG9uMRAwDgYDVQQHDAdTZWF0dGxlMRUwEwYD
VQQKDAx3b2xmU1NMIEluYy4xFDASBgNVBAsMC0VuZ2luZWVyaW5nMRYwFAYDVQQD
DA1jaGFpbkItZW50aXR5MR8wHQYJKoZIhvcNAQkBFhBpbmZvQHdvbGZzc2wuY29t
MIIBIjANBgkqhkiG9w0BAQEFAAOCAQ8AMIIBCgKCAQEA11/ZPddbEao+UzHQMniH
+8COgG38aHMfnHdmFjX8L9fkyroqc18UlBLwSDGiQK204wcMAke0Cgdp1dKFv8i8
FIzHh7pfh8UH9N+kRh63Ew+dfvYaeykJVUwX7siwnTkMiW4YnAZ/XZXSTHGzH+pd
0vYsaagWFVnlfQPXvRo04/En47l9aOA5PzViLyAg+hliNxowR2yj+Y6c82cuuzhM
Lgohm3C2l6Ibs5gNW3SXM/C4bE6ttB9IYsmary2moQaumDBUXsvdI3fV7lz7gfAr
rW/647EOmL0+C/R8xeNQvwibv774atnbeDaE8n57fV6nj0KBX0H0d1wwUfU/LSWV
TQIDAQABo4H+MIH7MB0GA1UdDgQWBBR/F36OqCytnMcifqbGkJ5jxF8znjCBzgYD
VR0jBIHGMIHDgBTXkOSGWST5K7gGjrGPM+UsY/EDFqGBp6SBpDCBoTELMAkGA1UE
BhMCVVMxEzARBgNVBAgMCldhc2hpbmd0b24xEDAOBgNVBAcMB1NlYXR0bGUxFTAT
BgNVBAoMDHdvbGZTU0wgSW5jLjEUMBIGA1UECwwLRW5naW5lZXJpbmcxHTAbBgNV
BAMMFGNoYWluQi1JQ0EyLXBhdGhsZW4xMR8wHQYJKoZIhvcNAQkBFhBpbmZvQHdv
bGZzc2wuY29tggFkMAkGA1UdEwQCMAAwDQYJKoZIhvcNAQELBQADggEBAFgrLjPt
Qn3Oip8uJS96Zm/QijLucLag7m/sDFKv2IwqEZ/w82pBvdpDrYJdUpXia5VC0SQJ
un21a3Oilj1yumXNnMZlUvtoZctVXfVE+mZyjBwzkqY3d0QWhu3y06lJ/6oFlsjg
HLcKYOdGXpSdyHoxQZiWOBegeeMdoxMGFy24/W807eNtNufUXc8ASs6m/xyH2Egb
ZbDQcnBIFb3xPKkG+X4RwUNsC2DZ2VzTO8IY6z+C6/2lGrKiIxDDMK9K6dkF8eJO
6UG9192Y25HyFVRMgj0iqhjl5t+bhSFjdD0IqS414l5hMngESZENjAUSkOz1xdJx
iiplXLHUFFPem5g=
-----END CERTIFICATE-----
Certificate:
    Data:
        Version: 3 (0x2)
        Serial Number: 100 (0x64)
        Signature Algorithm: sha256WithRSAEncryption
        Issuer: C = US, ST = Washington, L = Seattle, O = wolfSSL Inc., OU = Engineering, CN = chainB-ICA2-pathlen1, emailAddress = info@wolfssl.com
        Validity
            Not Before: Dec 13 22:19:32 2023 GMT
            Not After : Sep  8 22:19:32 2026 GMT
        Subject: C = US, ST = Washington, L = Seattle, O = wolfSSL Inc., OU = Engineering, CN = chainB-ICA1-pathlen0, emailAddress = info@wolfssl.com
        Subject Public Key Info:
            Public Key Algorithm: rsaEncryption
                RSA Public-Key: (2048 bit)
                Modulus:
                    00:b2:f7:aa:ae:91:d1:24:41:52:a1:22:e0:d3:97:
                    9b:e0:0c:94:9c:4a:e4:b3:85:ae:a9:43:9f:ec:7a:
                    05:dd:88:5c:e5:19:52:53:39:86:8a:b2:e2:86:27:
                    ab:03:9a:be:c4:54:67:af:b9:ac:65:e2:61:97:78:
                    66:60:29:90:62:08:62:91:a0:96:2b:0f:30:6c:da:
                    3d:70:35:52:a8:a7:d5:85:49:25:6a:56:59:bc:6b:
                    45:91:c3:37:fc:06:0d:a2:a9:46:e2:29:82:1b:77:
                    a6:49:35:fb:57:5f:33:02:92:e5:6b:67:c2:61:e2:
                    37:9c:12:5c:b5:2c:9b:2a:a5:85:97:22:73:3d:36:
                    50:55:1a:6a:59:d9:da:ac:2d:3f:e6:6a:b1:1d:60:
                    52:03:05:40:5f:cf:06:68:f0:32:86:5a:6f:b5:02:
                    63:e6:2e:1e:9f:09:82:8c:03:18:19:e4:79:d5:35:
                    6e:d9:17:9f:3c:c1:d9:3b:95:f9:6f:f3:19:d1:d3:
                    b8:5d:7c:93:37:c3:7c:3b:a0:58:c7:fb:e5:2d:f5:
                    58:d3:9b:72:f3:43:7a:29:ec:6b:f4:86:81:c8:e6:
                    60:8b:2b:c5:ad:59:e5:a4:a0:05:97:09:02:00:a7:
                    55:dc:5b:ef:e4:8b:83:1a:ee:c8:1c:b5:b6:e6:61:
                    6b:d1
                Exponent: 65537 (0x10001)
        X509v3 extensions:
            X509v3 Subject Key Identifier: 
                D7:90:E4:86:59:24:F9:2B:B8:06:8E:B1:8F:33:E5:2C:63:F1:03:16
            X509v3 Authority Key Identifier: 
                keyid:EE:59:9D:56:0B:7C:0A:45:44:E3:15:57:E2:B2:F3:1D:64:6F:AF:7A
                DirName:/C=US/ST=Montana/L=Bozeman/O=Sawtooth/OU=Consulting/CN=www.wolfssl.com/emailAddress=info@wolfssl.com
                serial:64

            X509v3 Basic Constraints: 
                CA:TRUE, pathlen:0
            X509v3 Key Usage: 
                Certificate Sign, CRL Sign
    Signature Algorithm: sha256WithRSAEncryption
         6c:32:8c:c0:5a:4b:18:32:75:8d:04:83:3a:7d:0a:53:81:31:
         ef:7e:47:8b:f3:69:c4:c5:16:82:70:fb:26:9f:f7:c9:d9:07:
         80:45:40:e5:fd:22:f4:a9:90:b4:53:89:20:7d:8c:71:77:35:
         50:79:39:8d:1c:a4:e5:0a:cb:d4:07:34:fd:76:3b:e7:4e:b5:
         ca:6b:97:4b:e4:48:3c:28:5c:7b:6f:34:fc:f8:34:65:5a:d4:
         33:a8:4f:6c:a7:c5:c9:2b:95:48:1a:d2:da:50:45:50:2a:b9:
         16:dc:6a:6a:64:f1:52:55:7c:25:f8:35:4e:8e:86:f1:01:78:
         56:11:10:6e:92:d0:45:6a:9d:03:a0:a3:b8:3b:97:fb:2d:a8:
         1f:83:9d:d0:d9:af:8b:77:08:a2:0d:8e:15:18:97:7e:4b:d9:
         6f:48:cd:a5:6e:04:29:e4:ba:c4:63:e7:a1:b1:bf:22:71:75:
         24:da:6f:73:0f:d3:fc:84:af:68:3c:3d:c5:e0:72:f3:b8:2e:
         8b:5f:d9:00:c6:7e:59:4e:b9:f4:12:a7:df:88:d0:67:f9:40:
         17:4f:25:af:72:b7:a5:ee:b2:69:3b:b2:fe:a7:1b:6b:39:e6:
         be:89:0e:ed:74:87:7e:25:bd:3d:c7:f6:f1:d9:10:47:1c:54:
         47:0c:77:31
-----BEGIN CERTIFICATE-----
MIIExjCCA66gAwIBAgIBZDANBgkqhkiG9w0BAQsFADCBoTELMAkGA1UEBhMCVVMx
EzARBgNVBAgMCldhc2hpbmd0b24xEDAOBgNVBAcMB1NlYXR0bGUxFTATBgNVBAoM
DHdvbGZTU0wgSW5jLjEUMBIGA1UECwwLRW5naW5lZXJpbmcxHTAbBgNVBAMMFGNo
YWluQi1JQ0EyLXBhdGhsZW4xMR8wHQYJKoZIhvcNAQkBFhBpbmZvQHdvbGZzc2wu
Y29tMB4XDTIzMTIxMzIyMTkzMloXDTI2MDkwODIyMTkzMlowgaExCzAJBgNVBAYT
AlVTMRMwEQYDVQQIDApXYXNoaW5ndG9uMRAwDgYDVQQHDAdTZWF0dGxlMRUwEwYD
VQQKDAx3b2xmU1NMIEluYy4xFDASBgNVBAsMC0VuZ2luZWVyaW5nMR0wGwYDVQQD
DBRjaGFpbkItSUNBMS1wYXRobGVuMDEfMB0GCSqGSIb3DQEJARYQaW5mb0B3b2xm
c3NsLmNvbTCCASIwDQYJKoZIhvcNAQEBBQADggEPADCCAQoCggEBALL3qq6R0SRB
UqEi4NOXm+AMlJxK5LOFrqlDn+x6Bd2IXOUZUlM5hoqy4oYnqwOavsRUZ6+5rGXi
YZd4ZmApkGIIYpGglisPMGzaPXA1Uqin1YVJJWpWWbxrRZHDN/wGDaKpRuIpght3
pkk1+1dfMwKS5WtnwmHiN5wSXLUsmyqlhZcicz02UFUaalnZ2qwtP+ZqsR1gUgMF
QF/PBmjwMoZab7UCY+YuHp8JgowDGBnkedU1btkXnzzB2TuV+W/zGdHTuF18kzfD
fDugWMf75S31WNObcvNDeinsa/SGgcjmYIsrxa1Z5aSgBZcJAgCnVdxb7+SLgxru
yBy1tuZha9ECAwEAAaOCAQUwggEBMB0GA1UdDgQWBBTXkOSGWST5K7gGjrGPM+Us
Y/EDFjCBwQYDVR0jBIG5MIG2gBTuWZ1WC3wKRUTjFVfisvMdZG+veqGBmqSBlzCB
lDELMAkGA1UEBhMCVVMxEDAOBgNVBAgMB01vbnRhbmExEDAOBgNVBAcMB0JvemVt
YW4xETAPBgNVBAoMCFNhd3Rvb3RoMRMwEQYDVQQLDApDb25zdWx0aW5nMRgwFgYD
VQQDDA93d3cud29sZnNzbC5jb20xHzAdBgkqhkiG9w0BCQEWEGluZm9Ad29sZnNz
bC5jb22CAWQwDwYDVR0TBAgwBgEB/wIBADALBgNVHQ8EBAMCAQYwDQYJKoZIhvcN
AQELBQADggEBAGwyjMBaSxgydY0Egzp9ClOBMe9+R4vzacTFFoJw+yaf98nZB4BF
QOX9IvSpkLRTiSB9jHF3NVB5OY0cpOUKy9QHNP12O+dOtcprl0vkSDwoXHtvNPz4
NGVa1DOoT2ynxckrlUga0tpQRVAquRbcampk8VJVfCX4NU6OhvEBeFYREG6S0EVq
nQOgo7g7l/stqB+DndDZr4t3CKINjhUYl35L2W9IzaVuBCnkusRj56GxvyJxdSTa
b3MP0/yEr2g8PcXgcvO4Lotf2QDGfllOufQSp9+I0Gf5QBdPJa9yt6Xusmk7sv6n
G2s55r6JDu10h34lvT3H9vHZEEccVEcMdzE=
-----END CERTIFICATE-----
Certificate:
    Data:
        Version: 3 (0x2)
        Serial Number: 100 (0x64)
        Signature Algorithm: sha256WithRSAEncryption
        Issuer: C = US, ST = Montana, L = Bozeman, O = Sawtooth, OU = Consulting, CN = www.wolfssl.com, emailAddress = info@wolfssl.com
        Validity
            Not Before: Dec 13 22:19:32 2023 GMT
            Not After : Sep  8 22:19:32 2026 GMT
        Subject: C = US, ST = Washington, L = Seattle, O = wolfSSL Inc., OU = Engineering, CN = chainB-ICA2-pathlen1, emailAddress = info@wolfssl.com
        Subject Public Key Info:
            Public Key Algorithm: rsaEncryption
                RSA Public-Key: (2048 bit)
                Modulus:
                    00:d0:7f:82:05:9d:5b:c4:49:e0:3e:1f:87:6e:17:
                    05:eb:e2:0a:d1:d1:a5:f5:cc:be:1d:46:d8:cd:a8:
                    6e:22:ce:3d:5c:39:71:a4:0d:03:fa:78:7e:bb:6c:
                    e8:51:e5:98:ef:a6:5e:62:d2:30:fa:3b:8f:21:5f:
                    b7:5f:98:b7:9f:a8:56:7a:39:ca:c2:df:a1:56:fe:
                    95:97:56:5e:5b:fe:74:d9:f2:2e:ca:7e:db:50:77:
                    5a:d1:90:dc:22:d6:fe:4b:c0:57:a1:c6:3b:4a:ba:
                    ad:05:14:c9:24:68:76:b5:e2:26:d5:cb:50:fd:d0:
                    77:0e:8c:0c:b9:5e:f7:a4:9a:45:35:6c:62:ca:e9:
                    38:d4:10:9a:5c:30:a5:4f:26:47:03:03:73:56:85:
                    8c:be:f5:d0:c0:09:06:3e:0e:e8:e5:7d:d0:19:54:
                    ed:57:ec:51:cf:bc:95:15:91:cf:d0:9a:84:dd:8a:
                    50:7c:33:c2:1a:61:70:31:9a:19:17:28:b3:8c:da:
                    5f:b8:d2:06:6b:82:3f:b6:6a:28:29:86:b4:20:cb:
                    a5:af:73:66:e4:37:36:81:f0:3f:ad:bf:05:b8:db:
                    2e:c4:22:e2:eb:46:87:f4:60:d1:a6:7f:ee:9c:41:
                    a7:f3:aa:e9:37:dd:da:d6:f0:cd:48:ac:51:d1:77:
                    8d:a1
                Exponent: 65537 (0x10001)
        X509v3 extensions:
            X509v3 Subject Key Identifier: 
                EE:59:9D:56:0B:7C:0A:45:44:E3:15:57:E2:B2:F3:1D:64:6F:AF:7A
            X509v3 Authority Key Identifier: 
                keyid:27:8E:67:11:74:C3:26:1D:3F:ED:33:63:B3:A4:D8:1D:30:E5:E8:D5
                DirName:/C=US/ST=Montana/L=Bozeman/O=Sawtooth/OU=Consulting/CN=www.wolfssl.com/emailAddress=info@wolfssl.com
                serial:33:44:1A:A8:6C:01:EC:F6:60:F2:70:51:0A:4C:D1:14:FA:BC:E9:44

            X509v3 Basic Constraints: 
                CA:TRUE, pathlen:1
            X509v3 Key Usage: 
                Certificate Sign, CRL Sign
    Signature Algorithm: sha256WithRSAEncryption
         10:af:3a:e5:49:81:7e:0f:ef:ad:b4:62:02:de:5b:2f:d7:bd:
         9c:59:b4:d3:ae:6c:60:12:ba:23:86:ee:34:4e:d5:29:00:1b:
         6e:1e:6b:05:96:0d:2c:4e:5c:91:74:83:ad:ba:8b:fe:cd:a6:
         9b:86:94:f7:7f:b4:5e:c9:cb:e6:6e:90:30:53:cb:44:27:f5:
         0b:37:b9:f0:bc:37:cd:b9:fc:fb:77:03:54:82:b5:d2:97:12:
         01:36:48:1f:a7:ae:7d:a3:c6:55:9e:c4:0e:0b:76:dc:e8:3c:
         b0:cc:06:88:be:74:2e:03:82:72:38:80:ca:14:dc:63:82:6e:
         73:3b:77:e8:c0:4d:e7:0e:8f:7e:9c:65:36:1c:d6:47:40:74:
         ef:ce:fe:6d:60:83:77:18:c9:3c:9f:f6:06:a5:16:e6:07:53:
         66:f0:49:42:dd:04:49:59:a9:b9:12:1f:a4:e9:c7:15:fb:34:
         df:a5:19:62:93:65:6c:ef:66:90:61:fe:0e:19:56:0d:b2:5d:
         b1:ee:55:40:32:7c:36:ff:54:6e:e4:55:16:7e:57:bd:82:f8:
         b1:38:de:86:a8:e8:4d:7e:b2:b8:59:ef:79:89:a3:0e:63:39:
         61:3f:f2:ab:b4:50:eb:74:7c:79:e7:f9:66:91:ff:ea:61:27:
         df:be:c2:89
-----BEGIN CERTIFICATE-----
MIIEzDCCA7SgAwIBAgIBZDANBgkqhkiG9w0BAQsFADCBlDELMAkGA1UEBhMCVVMx
EDAOBgNVBAgMB01vbnRhbmExEDAOBgNVBAcMB0JvemVtYW4xETAPBgNVBAoMCFNh
d3Rvb3RoMRMwEQYDVQQLDApDb25zdWx0aW5nMRgwFgYDVQQDDA93d3cud29sZnNz
bC5jb20xHzAdBgkqhkiG9w0BCQEWEGluZm9Ad29sZnNzbC5jb20wHhcNMjMxMjEz
MjIxOTMyWhcNMjYwOTA4MjIxOTMyWjCBoTELMAkGA1UEBhMCVVMxEzARBgNVBAgM
Cldhc2hpbmd0b24xEDAOBgNVBAcMB1NlYXR0bGUxFTATBgNVBAoMDHdvbGZTU0wg
SW5jLjEUMBIGA1UECwwLRW5naW5lZXJpbmcxHTAbBgNVBAMMFGNoYWluQi1JQ0Ey
LXBhdGhsZW4xMR8wHQYJKoZIhvcNAQkBFhBpbmZvQHdvbGZzc2wuY29tMIIBIjAN
BgkqhkiG9w0BAQEFAAOCAQ8AMIIBCgKCAQEA0H+CBZ1bxEngPh+HbhcF6+IK0dGl
9cy+HUbYzahuIs49XDlxpA0D+nh+u2zoUeWY76ZeYtIw+juPIV+3X5i3n6hWejnK
wt+hVv6Vl1ZeW/502fIuyn7bUHda0ZDcItb+S8BXocY7SrqtBRTJJGh2teIm1ctQ
/dB3DowMuV73pJpFNWxiyuk41BCaXDClTyZHAwNzVoWMvvXQwAkGPg7o5X3QGVTt
V+xRz7yVFZHP0JqE3YpQfDPCGmFwMZoZFyizjNpfuNIGa4I/tmooKYa0IMulr3Nm
5Dc2gfA/rb8FuNsuxCLi60aH9GDRpn/unEGn86rpN93a1vDNSKxR0XeNoQIDAQAB
o4IBGDCCARQwHQYDVR0OBBYEFO5ZnVYLfApFROMVV+Ky8x1kb696MIHUBgNVHSME
gcwwgcmAFCeOZxF0wyYdP+0zY7Ok2B0w5ejVoYGapIGXMIGUMQswCQYDVQQGEwJV
UzEQMA4GA1UECAwHTW9udGFuYTEQMA4GA1UEBwwHQm96ZW1hbjERMA8GA1UECgwI
U2F3dG9vdGgxEzARBgNVBAsMCkNvbnN1bHRpbmcxGDAWBgNVBAMMD3d3dy53b2xm
c3NsLmNvbTEfMB0GCSqGSIb3DQEJARYQaW5mb0B3b2xmc3NsLmNvbYIUM0QaqGwB
7PZg8nBRCkzRFPq86UQwDwYDVR0TBAgwBgEB/wIBATALBgNVHQ8EBAMCAQYwDQYJ
KoZIhvcNAQELBQADggEBABCvOuVJgX4P7620YgLeWy/XvZxZtNOubGASuiOG7jRO
1SkAG24eawWWDSxOXJF0g626i/7NppuGlPd/tF7Jy+ZukDBTy0Qn9Qs3ufC8N825
/Pt3A1SCtdKXEgE2SB+nrn2jxlWexA4LdtzoPLDMBoi+dC4DgnI4gMoU3GOCbnM7
d+jATecOj36cZTYc1kdAdO/O/m1gg3cYyTyf9galFuYHU2bwSULdBElZqbkSH6Tp
xxX7NN+lGWKTZWzvZpBh/g4ZVg2yXbHuVUAyfDb/VG7kVRZ+V72C+LE43oao6E1+
srhZ73mJow5jOWE/8qu0UOt0fHnn+WaR/+phJ9++wok=
-----END CERTIFICATE-----
