Certificate:
    Data:
        Version: 3 (0x2)
        Serial Number: 101 (0x65)
        Signature Algorithm: sha256WithRSAEncryption
        Issuer: C = US, ST = Washington, L = Seattle, O = wolfSSL Inc., OU = Engineering, CN = chainB-ICA1-pathlen0, emailAddress = info@wolfssl.com
        Validity
            Not Before: Feb 15 12:50:26 2022 GMT
            Not After : Nov 11 12:50:26 2024 GMT
        Subject: C = US, ST = Washington, L = Seattle, O = wolfSSL Inc., OU = Engineering, CN = chainB-entity, emailAddress = info@wolfssl.com
        Subject Public Key Info:
            Public Key Algorithm: rsaEncryption
                RSA Public-Key: (2048 bit)
                Modulus:
                    00:d7:5f:d9:3d:d7:5b:11:aa:3e:53:31:d0:32:78:
                    87:fb:c0:8e:80:6d:fc:68:73:1f:9c:77:66:16:35:
                    fc:2f:d7:e4:ca:ba:2a:73:5f:14:94:12:f0:48:31:
                    a2:40:ad:b4:e3:07:0c:02:47:b4:0a:07:69:d5:d2:
                    85:bf:c8:bc:14:8c:c7:87:ba:5f:87:c5:07:f4:df:
                    a4:46:1e:b7:13:0f:9d:7e:f6:1a:7b:29:09:55:4c:
                    17:ee:c8:b0:9d:39:0c:89:6e:18:9c:06:7f:5d:95:
                    d2:4c:71:b3:1f:ea:5d:d2:f6:2c:69:a8:16:15:59:
                    e5:7d:03:d7:bd:1a:34:e3:f1:27:e3:b9:7d:68:e0:
                    39:3f:35:62:2f:20:20:fa:19:62:37:1a:30:47:6c:
                    a3:f9:8e:9c:f3:67:2e:bb:38:4c:2e:0a:21:9b:70:
                    b6:97:a2:1b:b3:98:0d:5b:74:97:33:f0:b8:6c:4e:
                    ad:b4:1f:48:62:c9:9a:af:2d:a6:a1:06:ae:98:30:
                    54:5e:cb:dd:23:77:d5:ee:5c:fb:81:f0:2b:ad:6f:
                    fa:e3:b1:0e:98:bd:3e:0b:f4:7c:c5:e3:50:bf:08:
                    9b:bf:be:f8:6a:d9:db:78:36:84:f2:7e:7b:7d:5e:
                    a7:8f:42:81:5f:41:f4:77:5c:30:51:f5:3f:2d:25:
                    95:4d
                Exponent: 65537 (0x10001)
        X509v3 extensions:
            X509v3 Subject Key Identifier: 
                7F:17:7E:8E:A8:2C:AD:9C:C7:22:7E:A6:C6:90:9E:63:C4:5F:33:9E
            X509v3 Authority Key Identifier: 
                keyid:D7:90:E4:86:59:24:F9:2B:B8:06:8E:B1:8F:33:E5:2C:63:F1:03:16
                DirName:/C=US/ST=Washington/L=Seattle/O=wolfSSL Inc./OU=Engineering/CN=chainB-ICA2-pathlen1/emailAddress=info@wolfssl.com
                serial:64

            X509v3 Basic Constraints: 
                CA:FALSE
    Signature Algorithm: sha256WithRSAEncryption
         95:ad:f8:b9:8f:40:51:af:82:e8:ce:39:a0:d2:09:30:a0:b3:
         56:25:a8:81:da:5d:54:27:ab:ef:d6:e3:28:3b:57:f4:1a:c3:
         2f:2e:54:80:10:58:08:38:55:8e:60:ab:cf:88:7f:e2:29:13:
         b2:c9:7a:c1:94:60:a0:44:e1:67:a5:87:80:fd:fe:7f:cf:12:
         35:59:33:13:d7:5e:39:4d:1d:37:1e:51:60:41:00:54:66:2e:
         a0:d4:e9:0f:47:71:82:8d:b9:20:bf:cd:5c:17:4f:f8:bd:f4:
         41:cf:21:b8:86:62:b4:3f:37:a6:b7:ec:18:a4:7a:58:ed:c1:
         a5:11:49:23:12:41:af:fb:52:fb:cc:0a:11:5a:ec:b1:a5:2e:
         27:81:0a:58:66:1b:96:07:8e:1a:5d:57:e9:58:35:63:67:4b:
         cd:e0:bd:79:00:92:58:ac:68:f0:ac:5c:78:ca:13:05:00:9f:
         c2:20:27:ed:87:53:10:26:55:52:c8:bb:3e:f2:a8:c7:7b:3d:
         3e:cc:62:b0:ed:09:17:3f:7f:1d:3d:f5:42:c8:6b:21:41:0f:
         c8:47:4a:7c:6b:44:6d:c5:e3:b2:8f:2d:c0:08:d2:c1:de:c9:
         d5:0b:ad:f9:0f:08:d0:90:7b:da:12:d6:3e:5a:f4:18:14:60:
         4b:84:d8:93
-----BEGIN CERTIFICATE-----
MIIEtzCCA5+gAwIBAgIBZTANBgkqhkiG9w0BAQsFADCBoTELMAkGA1UEBhMCVVMx
EzARBgNVBAgMCldhc2hpbmd0b24xEDAOBgNVBAcMB1NlYXR0bGUxFTATBgNVBAoM
DHdvbGZTU0wgSW5jLjEUMBIGA1UECwwLRW5naW5lZXJpbmcxHTAbBgNVBAMMFGNo
YWluQi1JQ0ExLXBhdGhsZW4wMR8wHQYJKoZIhvcNAQkBFhBpbmZvQHdvbGZzc2wu
Y29tMB4XDTIyMDIxNTEyNTAyNloXDTI0MTExMTEyNTAyNlowgZoxCzAJBgNVBAYT
AlVTMRMwEQYDVQQIDApXYXNoaW5ndG9uMRAwDgYDVQQHDAdTZWF0dGxlMRUwEwYD
VQQKDAx3b2xmU1NMIEluYy4xFDASBgNVBAsMC0VuZ2luZWVyaW5nMRYwFAYDVQQD
DA1jaGFpbkItZW50aXR5MR8wHQYJKoZIhvcNAQkBFhBpbmZvQHdvbGZzc2wuY29t
MIIBIjANBgkqhkiG9w0BAQEFAAOCAQ8AMIIBCgKCAQEA11/ZPddbEao+UzHQMniH
+8COgG38aHMfnHdmFjX8L9fkyroqc18UlBLwSDGiQK204wcMAke0Cgdp1dKFv8i8
FIzHh7pfh8UH9N+kRh63Ew+dfvYaeykJVUwX7siwnTkMiW4YnAZ/XZXSTHGzH+pd
0vYsaagWFVnlfQPXvRo04/En47l9aOA5PzViLyAg+hliNxowR2yj+Y6c82cuuzhM
Lgohm3C2l6Ibs5gNW3SXM/C4bE6ttB9IYsmary2moQaumDBUXsvdI3fV7lz7gfAr
rW/647EOmL0+C/R8xeNQvwibv774atnbeDaE8n57fV6nj0KBX0H0d1wwUfU/LSWV
TQIDAQABo4H+MIH7MB0GA1UdDgQWBBR/F36OqCytnMcifqbGkJ5jxF8znjCBzgYD
VR0jBIHGMIHDgBTXkOSGWST5K7gGjrGPM+UsY/EDFqGBp6SBpDCBoTELMAkGA1UE
BhMCVVMxEzARBgNVBAgMCldhc2hpbmd0b24xEDAOBgNVBAcMB1NlYXR0bGUxFTAT
BgNVBAoMDHdvbGZTU0wgSW5jLjEUMBIGA1UECwwLRW5naW5lZXJpbmcxHTAbBgNV
BAMMFGNoYWluQi1JQ0EyLXBhdGhsZW4xMR8wHQYJKoZIhvcNAQkBFhBpbmZvQHdv
bGZzc2wuY29tggFkMAkGA1UdEwQCMAAwDQYJKoZIhvcNAQELBQADggEBAJWt+LmP
QFGvgujOOaDSCTCgs1YlqIHaXVQnq+/W4yg7V/Qawy8uVIAQWAg4VY5gq8+If+Ip
E7LJesGUYKBE4Welh4D9/n/PEjVZMxPXXjlNHTceUWBBAFRmLqDU6Q9HcYKNuSC/
zVwXT/i99EHPIbiGYrQ/N6a37BikeljtwaURSSMSQa/7UvvMChFa7LGlLieBClhm
G5YHjhpdV+lYNWNnS83gvXkAklisaPCsXHjKEwUAn8IgJ+2HUxAmVVLIuz7yqMd7
PT7MYrDtCRc/fx099ULIayFBD8hHSnxrRG3F47KPLcAI0sHeydULrfkPCNCQe9oS
1j5a9BgUYEuE2JM=
-----END CERTIFICATE-----
