Certificate:
    Data:
        Version: 3 (0x2)
        Serial Number: 100 (0x64)
        Signature Algorithm: sha256WithRSAEncryption
        Issuer: C=US, ST=Washington, L=Seattle, O=wolfSSL Inc., OU=Engineering, CN=chainJ-ICA3-no_pathlen, emailAddress=info@wolfssl.com
        Validity
            Not Before: Nov 13 20:41:49 2025 GMT
            Not After : Aug  9 20:41:49 2028 GMT
        Subject: C=US, ST=Washington, L=Seattle, O=wolfSSL Inc., OU=Engineering, CN=chainJ-ICA2-no_pathlen, emailAddress=info@wolfssl.com
        Subject Public Key Info:
            Public Key Algorithm: rsaEncryption
                Public-Key: (2048 bit)
                Modulus:
                    00:bb:29:fd:89:aa:82:e0:1d:04:78:69:ec:61:58:
                    51:52:84:7e:6b:55:69:2c:f4:23:d6:1f:d8:ed:ab:
                    19:96:38:7b:c6:88:d7:7d:85:93:00:35:40:0b:c0:
                    a9:ff:66:0f:9e:a1:1d:88:6e:a9:8a:f1:ad:47:b4:
                    71:c9:15:50:c6:0f:35:9e:95:4a:66:d3:bd:1b:38:
                    7b:dc:67:85:97:1b:b3:63:c9:72:d6:43:5a:f1:5e:
                    35:f6:05:96:c7:40:bc:23:ab:94:34:82:59:02:b2:
                    33:d0:e6:7f:19:57:65:68:3c:04:61:50:ef:22:95:
                    4f:ef:18:bf:15:b1:4d:8e:cd:a7:a0:98:22:f5:1c:
                    05:01:6b:4b:35:bf:88:c3:47:c3:24:29:b4:45:cb:
                    95:a1:ac:16:1d:dd:b8:68:ac:51:39:24:27:6a:be:
                    31:f1:ec:06:10:55:be:44:02:4f:e8:12:7b:d6:fe:
                    32:c9:48:37:6b:20:68:cb:53:f5:49:3a:ae:4a:c7:
                    43:c1:af:e6:53:11:d9:f8:71:1a:a2:d6:37:c7:2b:
                    45:50:49:51:4f:55:6c:3f:1e:69:7b:58:12:3a:7e:
                    59:a0:57:9d:28:9c:8a:6d:82:e7:13:15:3b:04:8f:
                    e2:82:0f:2f:cf:d9:25:d9:65:a3:3c:03:c0:cd:b6:
                    51:d5
                Exponent: 65537 (0x10001)
        X509v3 extensions:
            X509v3 Subject Key Identifier: 
                A3:F5:71:8A:60:80:3C:93:64:17:D9:2E:B5:C0:CE:A9:C1:14:17:C4
            X509v3 Authority Key Identifier: 
                keyid:CD:97:49:78:F7:31:61:ED:2F:71:1A:68:E9:45:2C:40:78:51:93:5B
                DirName:/C=US/ST=Washington/L=Seattle/O=wolfSSL Inc./OU=Engineering/CN=chainJ-ICA4-pathlen2/emailAddress=info@wolfssl.com
                serial:64
            X509v3 Basic Constraints: 
                CA:TRUE
            X509v3 Key Usage: 
                Certificate Sign, CRL Sign
    Signature Algorithm: sha256WithRSAEncryption
    Signature Value:
        d7:71:4e:6b:36:18:d3:05:86:f3:16:e0:50:98:a8:56:9f:14:
        31:9f:ba:7b:9f:34:0f:2e:17:9f:45:40:06:97:d7:49:71:ff:
        b5:d7:74:5c:63:ba:20:9e:e0:f3:fa:1f:9d:22:ee:c5:63:e0:
        d7:ba:4e:bb:2e:1a:e0:80:d1:b9:c6:2f:d6:bf:73:0f:bd:c4:
        9d:74:df:f4:f0:9a:ef:e7:3c:94:6d:ce:da:c3:ea:14:7d:30:
        23:74:9f:58:70:cd:97:42:54:30:0a:62:a8:29:7f:08:b5:62:
        2e:49:cc:6d:ef:a7:84:09:c0:53:3a:b3:98:56:76:6a:e1:46:
        0e:2f:af:12:70:08:5c:c5:f7:5a:95:01:b0:53:82:38:2f:da:
        a9:45:d0:16:7c:83:af:3d:1d:a8:65:28:e7:44:29:1e:17:f4:
        83:31:dd:f0:b8:09:52:c8:29:d5:4c:a6:2f:a6:05:b3:0e:a2:
        05:a0:3b:a2:da:fb:89:b6:32:09:43:f0:49:f8:4f:fe:0a:c0:
        3a:ca:42:a0:e4:38:df:5b:0b:65:30:76:e2:d4:59:ef:67:90:
        f8:d7:73:96:dd:4e:bb:4b:37:82:34:91:13:83:1e:ad:14:00:
        9e:9c:66:3b:9e:fb:f1:62:e1:84:94:6b:1b:4f:e6:81:73:d8:
        c9:a5:aa:a0
-----BEGIN CERTIFICATE-----
MIIE1DCCA7ygAwIBAgIBZDANBgkqhkiG9w0BAQsFADCBozELMAkGA1UEBhMCVVMx
EzARBgNVBAgMCldhc2hpbmd0b24xEDAOBgNVBAcMB1NlYXR0bGUxFTATBgNVBAoM
DHdvbGZTU0wgSW5jLjEUMBIGA1UECwwLRW5naW5lZXJpbmcxHzAdBgNVBAMMFmNo
YWluSi1JQ0EzLW5vX3BhdGhsZW4xHzAdBgkqhkiG9w0BCQEWEGluZm9Ad29sZnNz
bC5jb20wHhcNMjUxMTEzMjA0MTQ5WhcNMjgwODA5MjA0MTQ5WjCBozELMAkGA1UE
BhMCVVMxEzARBgNVBAgMCldhc2hpbmd0b24xEDAOBgNVBAcMB1NlYXR0bGUxFTAT
BgNVBAoMDHdvbGZTU0wgSW5jLjEUMBIGA1UECwwLRW5naW5lZXJpbmcxHzAdBgNV
BAMMFmNoYWluSi1JQ0EyLW5vX3BhdGhsZW4xHzAdBgkqhkiG9w0BCQEWEGluZm9A
d29sZnNzbC5jb20wggEiMA0GCSqGSIb3DQEBAQUAA4IBDwAwggEKAoIBAQC7Kf2J
qoLgHQR4aexhWFFShH5rVWks9CPWH9jtqxmWOHvGiNd9hZMANUALwKn/Zg+eoR2I
bqmK8a1HtHHJFVDGDzWelUpm070bOHvcZ4WXG7NjyXLWQ1rxXjX2BZbHQLwjq5Q0
glkCsjPQ5n8ZV2VoPARhUO8ilU/vGL8VsU2OzaegmCL1HAUBa0s1v4jDR8MkKbRF
y5WhrBYd3bhorFE5JCdqvjHx7AYQVb5EAk/oEnvW/jLJSDdrIGjLU/VJOq5Kx0PB
r+ZTEdn4cRqi1jfHK0VQSVFPVWw/Hml7WBI6flmgV50onIptgucTFTsEj+KCDy/P
2SXZZaM8A8DNtlHVAgMBAAGjggEPMIIBCzAdBgNVHQ4EFgQUo/VximCAPJNkF9ku
tcDOqcEUF8Qwgc4GA1UdIwSBxjCBw4AUzZdJePcxYe0vcRpo6UUsQHhRk1uhgaek
gaQwgaExCzAJBgNVBAYTAlVTMRMwEQYDVQQIDApXYXNoaW5ndG9uMRAwDgYDVQQH
DAdTZWF0dGxlMRUwEwYDVQQKDAx3b2xmU1NMIEluYy4xFDASBgNVBAsMC0VuZ2lu
ZWVyaW5nMR0wGwYDVQQDDBRjaGFpbkotSUNBNC1wYXRobGVuMjEfMB0GCSqGSIb3
DQEJARYQaW5mb0B3b2xmc3NsLmNvbYIBZDAMBgNVHRMEBTADAQH/MAsGA1UdDwQE
AwIBBjANBgkqhkiG9w0BAQsFAAOCAQEA13FOazYY0wWG8xbgUJioVp8UMZ+6e580
Dy4Xn0VABpfXSXH/tdd0XGO6IJ7g8/ofnSLuxWPg17pOuy4a4IDRucYv1r9zD73E
nXTf9PCa7+c8lG3O2sPqFH0wI3SfWHDNl0JUMApiqCl/CLViLknMbe+nhAnAUzqz
mFZ2auFGDi+vEnAIXMX3WpUBsFOCOC/aqUXQFnyDrz0dqGUo50QpHhf0gzHd8LgJ
Usgp1UymL6YFsw6iBaA7otr7ibYyCUPwSfhP/grAOspCoOQ431sLZTB24tRZ72eQ
+Ndzlt1Ou0s3gjSRE4MerRQAnpxmO5778WLhhJRrG0/mgXPYyaWqoA==
-----END CERTIFICATE-----
