Certificate:
    Data:
        Version: 3 (0x2)
        Serial Number: 100 (0x64)
        Signature Algorithm: sha256WithRSAEncryption
        Issuer: C=US, ST=Washington, L=Seattle, O=wolfSSL Inc., OU=Engineering, CN=chainH-ICA3-pathlen2, emailAddress=facts@wolfssl.com
        Validity
            Not Before: Jun 11 21:44:40 2026 GMT
            Not After : Mar  7 21:44:40 2029 GMT
        Subject: C=US, ST=Washington, L=Seattle, O=wolfSSL Inc., OU=Engineering, CN=chainH-ICA2-pathlen2, emailAddress=facts@wolfssl.com
        Subject Public Key Info:
            Public Key Algorithm: rsaEncryption
                Public-Key: (2048 bit)
                Modulus:
                    00:d9:b5:af:4b:ba:83:03:23:df:50:28:a8:c2:0c:
                    2c:f0:04:cb:2d:04:9b:1e:f5:f4:68:bc:d4:8e:b4:
                    cd:46:04:a2:f5:14:9e:3e:33:d6:76:2d:54:f9:d5:
                    41:b5:7a:47:93:1a:54:80:a4:3d:8b:9d:80:ea:1c:
                    3a:3a:bb:d1:d4:b6:f1:f2:a3:bd:9e:5d:b8:85:01:
                    d7:c8:a0:27:f6:67:41:94:c5:95:91:11:cb:96:fc:
                    95:a9:bc:b5:be:58:77:5c:2b:9b:e9:24:7e:8b:6e:
                    10:a7:d5:3a:fa:05:21:27:14:d8:d2:5f:a2:58:12:
                    b4:d9:bd:88:1a:f1:e7:4c:9d:60:31:0b:1f:3f:8b:
                    af:3a:d9:ca:cf:d4:73:1b:b8:b0:3d:d5:96:5d:4e:
                    a3:62:8f:56:eb:3d:4c:f0:21:4f:f4:8c:c7:55:dd:
                    a6:dc:d9:15:a1:12:db:73:4d:bf:18:89:42:92:0e:
                    83:be:4f:aa:ee:8f:a8:ef:a1:27:01:73:16:29:c0:
                    e8:8c:23:c8:ff:95:68:cd:53:67:49:e5:73:b1:ec:
                    62:60:51:20:e8:a6:49:28:f5:2b:16:30:e8:8b:a6:
                    2f:f4:b7:37:99:8c:32:30:97:5d:16:bf:6b:5e:ba:
                    34:1f:d6:1b:2e:fc:79:f0:00:61:aa:a0:7a:2f:7b:
                    d2:83
                Exponent: 65537 (0x10001)
        X509v3 extensions:
            X509v3 Subject Key Identifier: 
                80:49:61:8C:1D:13:08:56:B5:42:68:D5:B2:EA:89:2C:B4:8B:05:87
            X509v3 Authority Key Identifier: 
                keyid:56:54:36:BE:23:2F:20:89:6D:A6:BA:9A:45:A4:88:0E:40:35:FD:F5
                DirName:/C=US/ST=Washington/L=Seattle/O=wolfSSL Inc./OU=Engineering/CN=chainH-ICA4-pathlen2/emailAddress=facts@wolfssl.com
                serial:64
            X509v3 Basic Constraints: 
                CA:TRUE, pathlen:2
            X509v3 Key Usage: 
                Certificate Sign, CRL Sign
    Signature Algorithm: sha256WithRSAEncryption
    Signature Value:
        71:12:f8:d0:6b:51:ce:25:ff:e8:3a:6a:6a:65:25:af:fc:36:
        5c:f4:07:6d:4a:49:30:c4:16:a8:bc:17:ca:60:c2:6d:31:96:
        ea:17:83:6f:1a:f4:b2:85:d6:d8:b1:52:e2:4f:1f:c4:7a:29:
        4c:07:23:04:a5:77:cc:2c:5a:8e:0a:74:df:28:ce:15:60:5a:
        a6:2f:d0:f8:98:5e:f8:62:1c:03:b0:c5:08:f9:df:a5:92:43:
        98:8d:ec:5b:cf:99:8e:85:8f:ee:b5:8b:b0:1a:02:80:a5:e2:
        70:35:56:4d:34:49:1d:2f:84:58:64:9c:01:9a:2d:0c:87:b4:
        90:29:c3:44:16:b9:ad:18:6d:fb:90:14:53:c1:7a:83:2a:5d:
        aa:e6:47:f6:cf:52:b2:10:1f:fc:c3:8d:92:3d:b8:c0:d6:a5:
        d3:e7:2a:06:42:88:e7:32:bf:65:78:89:fd:02:02:ed:b3:9c:
        6a:86:33:5a:78:d7:d3:df:1e:a4:72:08:45:1a:0a:a0:70:98:
        c6:28:70:7f:f7:9d:e1:8f:f1:15:5e:1e:7f:c9:b0:bb:fa:dc:
        bf:d2:81:ea:c7:9b:4e:28:3e:23:b8:6d:b0:d8:c1:12:0c:e8:
        da:02:4c:ec:80:41:93:15:8a:f4:fe:b5:da:fb:70:e4:14:6d:
        bd:02:94:b4
-----BEGIN CERTIFICATE-----
MIIE1jCCA76gAwIBAgIBZDANBgkqhkiG9w0BAQsFADCBojELMAkGA1UEBhMCVVMx
EzARBgNVBAgMCldhc2hpbmd0b24xEDAOBgNVBAcMB1NlYXR0bGUxFTATBgNVBAoM
DHdvbGZTU0wgSW5jLjEUMBIGA1UECwwLRW5naW5lZXJpbmcxHTAbBgNVBAMMFGNo
YWluSC1JQ0EzLXBhdGhsZW4yMSAwHgYJKoZIhvcNAQkBFhFmYWN0c0B3b2xmc3Ns
LmNvbTAeFw0yNjA2MTEyMTQ0NDBaFw0yOTAzMDcyMTQ0NDBaMIGiMQswCQYDVQQG
EwJVUzETMBEGA1UECAwKV2FzaGluZ3RvbjEQMA4GA1UEBwwHU2VhdHRsZTEVMBMG
A1UECgwMd29sZlNTTCBJbmMuMRQwEgYDVQQLDAtFbmdpbmVlcmluZzEdMBsGA1UE
AwwUY2hhaW5ILUlDQTItcGF0aGxlbjIxIDAeBgkqhkiG9w0BCQEWEWZhY3RzQHdv
bGZzc2wuY29tMIIBIjANBgkqhkiG9w0BAQEFAAOCAQ8AMIIBCgKCAQEA2bWvS7qD
AyPfUCiowgws8ATLLQSbHvX0aLzUjrTNRgSi9RSePjPWdi1U+dVBtXpHkxpUgKQ9
i52A6hw6OrvR1Lbx8qO9nl24hQHXyKAn9mdBlMWVkRHLlvyVqby1vlh3XCub6SR+
i24Qp9U6+gUhJxTY0l+iWBK02b2IGvHnTJ1gMQsfP4uvOtnKz9RzG7iwPdWWXU6j
Yo9W6z1M8CFP9IzHVd2m3NkVoRLbc02/GIlCkg6Dvk+q7o+o76EnAXMWKcDojCPI
/5VozVNnSeVzsexiYFEg6KZJKPUrFjDoi6Yv9Lc3mYwyMJddFr9rXro0H9YbLvx5
8ABhqqB6L3vSgwIDAQABo4IBEzCCAQ8wHQYDVR0OBBYEFIBJYYwdEwhWtUJo1bLq
iSy0iwWHMIHPBgNVHSMEgccwgcSAFFZUNr4jLyCJbaa6mkWkiA5ANf31oYGopIGl
MIGiMQswCQYDVQQGEwJVUzETMBEGA1UECAwKV2FzaGluZ3RvbjEQMA4GA1UEBwwH
U2VhdHRsZTEVMBMGA1UECgwMd29sZlNTTCBJbmMuMRQwEgYDVQQLDAtFbmdpbmVl
cmluZzEdMBsGA1UEAwwUY2hhaW5ILUlDQTQtcGF0aGxlbjIxIDAeBgkqhkiG9w0B
CQEWEWZhY3RzQHdvbGZzc2wuY29tggFkMA8GA1UdEwQIMAYBAf8CAQIwCwYDVR0P
BAQDAgEGMA0GCSqGSIb3DQEBCwUAA4IBAQBxEvjQa1HOJf/oOmpqZSWv/DZc9Adt
SkkwxBaovBfKYMJtMZbqF4NvGvSyhdbYsVLiTx/EeilMByMEpXfMLFqOCnTfKM4V
YFqmL9D4mF74YhwDsMUI+d+lkkOYjexbz5mOhY/utYuwGgKApeJwNVZNNEkdL4RY
ZJwBmi0Mh7SQKcNEFrmtGG37kBRTwXqDKl2q5kf2z1KyEB/8w42SPbjA1qXT5yoG
QojnMr9leIn9AgLts5xqhjNaeNfT3x6kcghFGgqgcJjGKHB/953hj/EVXh5/ybC7
+ty/0oHqx5tOKD4juG2w2MESDOjaAkzsgEGTFYr0/rXa+3DkFG29ApS0
-----END CERTIFICATE-----
