Certificate:
    Data:
        Version: 3 (0x2)
        Serial Number: 100 (0x64)
        Signature Algorithm: sha256WithRSAEncryption
        Issuer: C = US, ST = Washington, L = Seattle, O = wolfSSL Inc., OU = Engineering, CN = chainF-ICA2-pathlen0, emailAddress = info@wolfssl.com
        Validity
            Not Before: Dec 13 22:19:32 2023 GMT
            Not After : Sep  8 22:19:32 2026 GMT
        Subject: C = US, ST = Washington, L = Seattle, O = wolfSSL Inc., OU = Engineering, CN = chainF-ICA1-pathlen1, emailAddress = info@wolfssl.com
        Subject Public Key Info:
            Public Key Algorithm: rsaEncryption
                RSA Public-Key: (2048 bit)
                Modulus:
                    00:e0:13:c9:b0:8e:9d:3f:88:d4:30:4a:b4:e8:11:
                    21:93:5c:20:45:08:f8:7a:91:b9:2c:ad:ff:60:aa:
                    16:9f:1c:bb:88:b8:3d:0a:39:c1:89:a9:76:ca:8e:
                    6c:72:72:7e:6e:74:a6:36:2c:69:df:33:d6:e9:66:
                    70:65:7f:ba:2a:44:17:62:9f:33:46:12:e6:03:a5:
                    a6:e2:5c:09:07:cf:bc:8d:76:fe:a0:fd:d7:72:4a:
                    94:c8:ca:2f:95:91:9c:0a:77:7f:82:23:be:72:27:
                    29:45:cd:41:cf:ec:e1:84:cf:67:d0:18:98:b9:31:
                    be:c9:fe:98:5d:3f:aa:d2:83:76:45:85:ab:08:86:
                    63:58:5b:b3:e5:4a:43:3d:a1:99:e2:80:d1:2b:b2:
                    06:e3:f0:10:85:f9:a6:36:b8:52:2b:9d:73:3b:34:
                    23:51:3d:fe:56:2f:e9:39:b2:68:07:3e:6f:52:7b:
                    f4:40:d4:72:fa:69:19:ca:ff:22:c8:45:95:05:5e:
                    91:08:3f:27:2d:41:d1:74:a5:06:9c:f3:40:bd:bb:
                    fc:65:63:86:ed:80:22:50:c1:f6:4f:dc:8f:43:4c:
                    5e:fb:bf:d9:6d:1f:b4:84:0f:1e:e8:c6:5d:c5:53:
                    d5:2c:c9:7f:6b:98:93:a7:5d:35:9a:17:62:91:2e:
                    20:c1
                Exponent: 65537 (0x10001)
        X509v3 extensions:
            X509v3 Subject Key Identifier: 
                75:32:21:05:2B:60:FE:44:17:AF:18:65:86:85:19:82:3F:F9:64:83
            X509v3 Authority Key Identifier: 
                keyid:4A:53:4A:B7:30:78:35:91:B4:CB:DD:C8:22:74:89:AF:80:0F:7F:68
                DirName:/C=US/ST=Montana/L=Bozeman/O=Sawtooth/OU=Consulting/CN=www.wolfssl.com/emailAddress=info@wolfssl.com
                serial:64

            X509v3 Basic Constraints: 
                CA:TRUE, pathlen:1
            X509v3 Key Usage: 
                Certificate Sign, CRL Sign
    Signature Algorithm: sha256WithRSAEncryption
         b3:d8:4b:f8:59:d5:7a:95:55:af:eb:07:0c:ac:db:b5:cc:b8:
         aa:0d:81:1b:31:d4:0f:8a:ef:da:28:0e:52:f1:8b:25:54:47:
         11:d8:62:a2:5b:5e:d5:fb:6d:b5:57:b4:a3:b6:d2:e0:e1:50:
         8b:e1:7e:cd:3b:48:54:4b:55:48:18:12:fe:55:3b:1e:e2:b8:
         34:b2:77:f7:21:05:9f:32:43:34:db:e4:d4:e3:d2:74:98:3e:
         1f:39:97:ef:e3:89:d9:e2:c0:77:f9:d4:74:a5:13:c0:ce:9e:
         3e:42:bc:0d:44:73:c5:76:47:81:dc:40:f4:06:bf:29:66:51:
         7b:41:c5:35:73:fe:5c:7a:9c:bf:4c:19:c5:2b:7b:02:1f:45:
         66:0c:64:01:29:77:a8:a2:ef:ba:61:19:27:a1:56:41:a6:73:
         5d:9f:39:86:38:e9:0a:31:23:55:f1:02:54:ce:96:18:32:ae:
         22:03:1d:fb:cb:90:45:54:8f:d2:29:17:9d:44:65:68:8c:d2:
         25:df:a8:c2:29:1e:66:2c:c4:57:a1:ab:93:c7:34:a2:e3:94:
         bd:dc:8f:51:d2:08:a6:3c:63:c9:c1:ee:90:de:39:92:fc:5e:
         85:d4:f9:f0:b8:6e:09:30:0c:25:ce:c8:86:c1:75:5d:e8:e8:
         90:90:ad:0d
-----BEGIN CERTIFICATE-----
MIIExjCCA66gAwIBAgIBZDANBgkqhkiG9w0BAQsFADCBoTELMAkGA1UEBhMCVVMx
EzARBgNVBAgMCldhc2hpbmd0b24xEDAOBgNVBAcMB1NlYXR0bGUxFTATBgNVBAoM
DHdvbGZTU0wgSW5jLjEUMBIGA1UECwwLRW5naW5lZXJpbmcxHTAbBgNVBAMMFGNo
YWluRi1JQ0EyLXBhdGhsZW4wMR8wHQYJKoZIhvcNAQkBFhBpbmZvQHdvbGZzc2wu
Y29tMB4XDTIzMTIxMzIyMTkzMloXDTI2MDkwODIyMTkzMlowgaExCzAJBgNVBAYT
AlVTMRMwEQYDVQQIDApXYXNoaW5ndG9uMRAwDgYDVQQHDAdTZWF0dGxlMRUwEwYD
VQQKDAx3b2xmU1NMIEluYy4xFDASBgNVBAsMC0VuZ2luZWVyaW5nMR0wGwYDVQQD
DBRjaGFpbkYtSUNBMS1wYXRobGVuMTEfMB0GCSqGSIb3DQEJARYQaW5mb0B3b2xm
c3NsLmNvbTCCASIwDQYJKoZIhvcNAQEBBQADggEPADCCAQoCggEBAOATybCOnT+I
1DBKtOgRIZNcIEUI+HqRuSyt/2CqFp8cu4i4PQo5wYmpdsqObHJyfm50pjYsad8z
1ulmcGV/uipEF2KfM0YS5gOlpuJcCQfPvI12/qD913JKlMjKL5WRnAp3f4IjvnIn
KUXNQc/s4YTPZ9AYmLkxvsn+mF0/qtKDdkWFqwiGY1hbs+VKQz2hmeKA0SuyBuPw
EIX5pja4Uiudczs0I1E9/lYv6TmyaAc+b1J79EDUcvppGcr/IshFlQVekQg/Jy1B
0XSlBpzzQL27/GVjhu2AIlDB9k/cj0NMXvu/2W0ftIQPHujGXcVT1SzJf2uYk6dd
NZoXYpEuIMECAwEAAaOCAQUwggEBMB0GA1UdDgQWBBR1MiEFK2D+RBevGGWGhRmC
P/lkgzCBwQYDVR0jBIG5MIG2gBRKU0q3MHg1kbTL3cgidImvgA9/aKGBmqSBlzCB
lDELMAkGA1UEBhMCVVMxEDAOBgNVBAgMB01vbnRhbmExEDAOBgNVBAcMB0JvemVt
YW4xETAPBgNVBAoMCFNhd3Rvb3RoMRMwEQYDVQQLDApDb25zdWx0aW5nMRgwFgYD
VQQDDA93d3cud29sZnNzbC5jb20xHzAdBgkqhkiG9w0BCQEWEGluZm9Ad29sZnNz
bC5jb22CAWQwDwYDVR0TBAgwBgEB/wIBATALBgNVHQ8EBAMCAQYwDQYJKoZIhvcN
AQELBQADggEBALPYS/hZ1XqVVa/rBwys27XMuKoNgRsx1A+K79ooDlLxiyVURxHY
YqJbXtX7bbVXtKO20uDhUIvhfs07SFRLVUgYEv5VOx7iuDSyd/chBZ8yQzTb5NTj
0nSYPh85l+/jidniwHf51HSlE8DOnj5CvA1Ec8V2R4HcQPQGvylmUXtBxTVz/lx6
nL9MGcUrewIfRWYMZAEpd6ii77phGSehVkGmc12fOYY46QoxI1XxAlTOlhgyriID
HfvLkEVUj9IpF51EZWiM0iXfqMIpHmYsxFehq5PHNKLjlL3cj1HSCKY8Y8nB7pDe
OZL8XoXU+fC4bgkwDCXOyIbBdV3o6JCQrQ0=
-----END CERTIFICATE-----
