Certificate:
    Data:
        Version: 3 (0x2)
        Serial Number: 101 (0x65)
    Signature Algorithm: sha256WithRSAEncryption
        Issuer: C=US, ST=Washington, L=Seattle, O=wolfSSL Inc., OU=Engineering, CN=chainE-ICA1-pathlen128/emailAddress=info@wolfssl.com
        Validity
            Not Before: Feb 10 19:49:54 2021 GMT
            Not After : Nov  7 19:49:54 2023 GMT
        Subject: C=US, ST=Washington, L=Seattle, O=wolfSSL Inc., OU=Engineering, CN=chainE-entity/emailAddress=info@wolfssl.com
        Subject Public Key Info:
            Public Key Algorithm: rsaEncryption
                Public-Key: (2048 bit)
                Modulus:
                    00:d8:6f:49:bb:56:ea:34:4c:25:a6:8c:44:f6:c9:
                    75:8f:6b:83:b8:8b:ec:c6:f6:d3:c7:40:e2:d1:b2:
                    d8:77:92:e9:97:c4:b6:57:ad:10:c8:cb:e7:0a:40:
                    ef:3c:a8:38:dc:94:22:08:e7:53:2a:c8:7a:26:90:
                    41:43:6f:7b:8f:4e:58:74:69:20:92:9f:12:aa:6a:
                    c5:cf:7f:24:d1:d0:89:2f:6c:5e:62:31:0a:20:23:
                    6b:07:c2:a0:7d:4d:ed:05:6d:2c:b1:9a:85:e6:41:
                    61:12:6c:85:d3:d4:be:7e:cf:23:d9:79:b1:46:23:
                    d7:1a:f7:d6:f4:97:43:a5:08:03:7a:51:0d:b0:e7:
                    56:62:86:37:07:81:e8:21:f1:10:63:41:b6:82:6d:
                    f2:cd:d9:7f:80:6f:a7:4b:77:10:15:54:02:9c:7a:
                    d0:6e:b8:29:98:72:34:08:7b:ce:d7:24:91:48:a6:
                    c3:f2:9d:77:fc:aa:73:13:70:60:f9:8f:37:4c:d7:
                    34:5c:fa:51:b1:c0:d5:25:e1:75:b2:e2:cd:23:97:
                    c9:a6:bf:d3:5e:21:4b:12:f5:b2:d0:df:92:7f:4c:
                    a8:b2:21:43:2c:f9:3e:fb:14:99:1f:ed:76:2c:87:
                    5a:df:72:d3:85:a3:a8:92:1a:ad:66:19:50:44:8a:
                    05:e1
                Exponent: 65537 (0x10001)
        X509v3 extensions:
            X509v3 Subject Key Identifier: 
                26:FC:70:E0:8F:A1:3D:52:82:76:6B:CB:C7:0F:89:9D:2B:86:69:F5
            X509v3 Authority Key Identifier: 
                keyid:44:7B:00:7C:9C:1C:97:9F:97:AA:6B:F2:5E:E6:81:7C:0E:AE:E6:2B
                DirName:/C=US/ST=Montana/L=Bozeman/O=Sawtooth/OU=Consulting/CN=www.wolfssl.com/emailAddress=info@wolfssl.com
                serial:64

            X509v3 Basic Constraints: 
                CA:FALSE
    Signature Algorithm: sha256WithRSAEncryption
         2d:35:05:3b:41:51:cb:b0:57:33:0a:09:f2:46:12:13:cc:9b:
         e8:31:70:5c:86:0d:ea:63:be:9d:db:9b:fb:d5:f1:a2:fe:d1:
         8c:3f:04:28:69:25:bd:c2:a4:19:16:f4:aa:0f:43:dc:b0:51:
         8c:4e:5e:a0:a9:6e:56:67:be:4d:eb:18:de:37:99:51:fc:20:
         e4:38:cc:c6:c3:cb:1e:fa:97:8c:96:e3:62:85:e7:77:48:4f:
         1d:3f:ba:c0:ba:4c:40:6f:d1:2c:3f:0d:ce:03:f7:12:64:07:
         1f:51:b9:d6:88:5b:bc:b0:59:16:94:54:cb:cb:c2:33:98:15:
         c8:80:00:27:25:d3:f8:aa:97:c1:0e:6c:8c:4c:86:0e:5f:66:
         73:a6:1d:83:db:66:87:55:f5:3f:66:c0:66:bb:de:3e:f2:64:
         98:ab:ea:be:56:9b:b3:64:bb:10:60:75:05:9b:34:62:02:45:
         f3:eb:2b:76:2f:4a:fc:c3:bc:b0:fe:2e:40:9b:ed:44:35:07:
         31:da:fa:7c:48:85:a3:8c:83:e2:d6:9a:54:95:a1:19:51:1e:
         ce:4d:a7:fc:1b:56:c0:3b:a3:36:d0:83:2d:f4:fb:4c:d1:3e:
         59:fa:47:44:a0:16:93:02:b1:0a:38:b0:8b:12:3d:87:ab:34:
         1f:2e:5d:ea
-----BEGIN CERTIFICATE-----
MIIErDCCA5SgAwIBAgIBZTANBgkqhkiG9w0BAQsFADCBozELMAkGA1UEBhMCVVMx
EzARBgNVBAgMCldhc2hpbmd0b24xEDAOBgNVBAcMB1NlYXR0bGUxFTATBgNVBAoM
DHdvbGZTU0wgSW5jLjEUMBIGA1UECwwLRW5naW5lZXJpbmcxHzAdBgNVBAMMFmNo
YWluRS1JQ0ExLXBhdGhsZW4xMjgxHzAdBgkqhkiG9w0BCQEWEGluZm9Ad29sZnNz
bC5jb20wHhcNMjEwMjEwMTk0OTU0WhcNMjMxMTA3MTk0OTU0WjCBmjELMAkGA1UE
BhMCVVMxEzARBgNVBAgMCldhc2hpbmd0b24xEDAOBgNVBAcMB1NlYXR0bGUxFTAT
BgNVBAoMDHdvbGZTU0wgSW5jLjEUMBIGA1UECwwLRW5naW5lZXJpbmcxFjAUBgNV
BAMMDWNoYWluRS1lbnRpdHkxHzAdBgkqhkiG9w0BCQEWEGluZm9Ad29sZnNzbC5j
b20wggEiMA0GCSqGSIb3DQEBAQUAA4IBDwAwggEKAoIBAQDYb0m7Vuo0TCWmjET2
yXWPa4O4i+zG9tPHQOLRsth3kumXxLZXrRDIy+cKQO88qDjclCII51MqyHomkEFD
b3uPTlh0aSCSnxKqasXPfyTR0IkvbF5iMQogI2sHwqB9Te0FbSyxmoXmQWESbIXT
1L5+zyPZebFGI9ca99b0l0OlCAN6UQ2w51ZihjcHgegh8RBjQbaCbfLN2X+Ab6dL
dxAVVAKcetBuuCmYcjQIe87XJJFIpsPynXf8qnMTcGD5jzdM1zRc+lGxwNUl4XWy
4s0jl8mmv9NeIUsS9bLQ35J/TKiyIUMs+T77FJkf7XYsh1rfctOFo6iSGq1mGVBE
igXhAgMBAAGjgfEwge4wHQYDVR0OBBYEFCb8cOCPoT1SgnZry8cPiZ0rhmn1MIHB
BgNVHSMEgbkwgbaAFER7AHycHJefl6pr8l7mgXwOruYroYGapIGXMIGUMQswCQYD
VQQGEwJVUzEQMA4GA1UECAwHTW9udGFuYTEQMA4GA1UEBwwHQm96ZW1hbjERMA8G
A1UECgwIU2F3dG9vdGgxEzARBgNVBAsMCkNvbnN1bHRpbmcxGDAWBgNVBAMMD3d3
dy53b2xmc3NsLmNvbTEfMB0GCSqGSIb3DQEJARYQaW5mb0B3b2xmc3NsLmNvbYIB
ZDAJBgNVHRMEAjAAMA0GCSqGSIb3DQEBCwUAA4IBAQAtNQU7QVHLsFczCgnyRhIT
zJvoMXBchg3qY76d25v71fGi/tGMPwQoaSW9wqQZFvSqD0PcsFGMTl6gqW5WZ75N
6xjeN5lR/CDkOMzGw8se+peMluNihed3SE8dP7rAukxAb9EsPw3OA/cSZAcfUbnW
iFu8sFkWlFTLy8IzmBXIgAAnJdP4qpfBDmyMTIYOX2Zzph2D22aHVfU/ZsBmu94+
8mSYq+q+VpuzZLsQYHUFmzRiAkXz6yt2L0r8w7yw/i5Am+1ENQcx2vp8SIWjjIPi
1ppUlaEZUR7OTaf8G1bAO6M20IMt9PtM0T5Z+kdEoBaTArEKOLCLEj2HqzQfLl3q
-----END CERTIFICATE-----
