Certificate:
    Data:
        Version: 3 (0x2)
        Serial Number: 100 (0x64)
        Signature Algorithm: sha256WithRSAEncryption
        Issuer: C=US, ST=Washington, L=Seattle, O=wolfSSL Inc., OU=Engineering, CN=chainB-ICA2-pathlen1, emailAddress=facts@wolfssl.com
        Validity
            Not Before: Jun 11 21:44:38 2026 GMT
            Not After : Mar  7 21:44:38 2029 GMT
        Subject: C=US, ST=Washington, L=Seattle, O=wolfSSL Inc., OU=Engineering, CN=chainB-ICA1-pathlen0, emailAddress=facts@wolfssl.com
        Subject Public Key Info:
            Public Key Algorithm: rsaEncryption
                Public-Key: (2048 bit)
                Modulus:
                    00:b2:f7:aa:ae:91:d1:24:41:52:a1:22:e0:d3:97:
                    9b:e0:0c:94:9c:4a:e4:b3:85:ae:a9:43:9f:ec:7a:
                    05:dd:88:5c:e5:19:52:53:39:86:8a:b2:e2:86:27:
                    ab:03:9a:be:c4:54:67:af:b9:ac:65:e2:61:97:78:
                    66:60:29:90:62:08:62:91:a0:96:2b:0f:30:6c:da:
                    3d:70:35:52:a8:a7:d5:85:49:25:6a:56:59:bc:6b:
                    45:91:c3:37:fc:06:0d:a2:a9:46:e2:29:82:1b:77:
                    a6:49:35:fb:57:5f:33:02:92:e5:6b:67:c2:61:e2:
                    37:9c:12:5c:b5:2c:9b:2a:a5:85:97:22:73:3d:36:
                    50:55:1a:6a:59:d9:da:ac:2d:3f:e6:6a:b1:1d:60:
                    52:03:05:40:5f:cf:06:68:f0:32:86:5a:6f:b5:02:
                    63:e6:2e:1e:9f:09:82:8c:03:18:19:e4:79:d5:35:
                    6e:d9:17:9f:3c:c1:d9:3b:95:f9:6f:f3:19:d1:d3:
                    b8:5d:7c:93:37:c3:7c:3b:a0:58:c7:fb:e5:2d:f5:
                    58:d3:9b:72:f3:43:7a:29:ec:6b:f4:86:81:c8:e6:
                    60:8b:2b:c5:ad:59:e5:a4:a0:05:97:09:02:00:a7:
                    55:dc:5b:ef:e4:8b:83:1a:ee:c8:1c:b5:b6:e6:61:
                    6b:d1
                Exponent: 65537 (0x10001)
        X509v3 extensions:
            X509v3 Subject Key Identifier: 
                D7:90:E4:86:59:24:F9:2B:B8:06:8E:B1:8F:33:E5:2C:63:F1:03:16
            X509v3 Authority Key Identifier: 
                keyid:EE:59:9D:56:0B:7C:0A:45:44:E3:15:57:E2:B2:F3:1D:64:6F:AF:7A
                DirName:/C=US/ST=Montana/L=Bozeman/O=Sawtooth/OU=Consulting/CN=www.wolfssl.com/emailAddress=facts@wolfssl.com
                serial:64
            X509v3 Basic Constraints: 
                CA:TRUE, pathlen:0
            X509v3 Key Usage: 
                Certificate Sign, CRL Sign
    Signature Algorithm: sha256WithRSAEncryption
    Signature Value:
        66:be:38:32:e6:8a:47:16:3e:e9:4b:1e:c2:8c:ce:49:b3:d8:
        8d:3a:37:88:eb:86:1c:58:c3:10:e6:95:8e:93:2e:34:a6:06:
        39:5f:d3:af:f5:50:a4:a2:1e:9a:9c:54:c8:4c:96:fe:a4:90:
        7b:db:22:ae:b3:84:c0:52:fc:53:d1:f1:2e:52:05:6a:8c:df:
        53:eb:27:82:51:5d:36:4b:3c:75:ba:2b:42:52:ff:e9:fd:43:
        3c:0c:84:da:35:a3:5e:ba:28:2a:bb:be:2e:46:25:e3:d7:5c:
        76:bd:3f:2a:12:7d:32:1b:f4:90:19:b9:48:6a:7f:ab:33:cb:
        c5:e4:85:e9:84:9b:ed:a3:cd:33:aa:f0:53:7b:4f:db:39:9d:
        22:69:fc:3c:2e:28:b1:3c:75:e7:3c:a7:05:d5:ab:0a:bc:50:
        5e:78:b6:30:03:79:59:40:cf:a7:33:9f:a1:6d:82:35:5b:0a:
        19:08:90:28:3b:43:66:c9:66:47:99:b9:ca:bc:04:f1:bd:ae:
        96:16:0d:e1:c9:14:1e:2e:8f:0c:ae:d1:17:73:43:3b:15:69:
        ee:f8:c8:82:c1:50:09:a6:b5:33:a3:a1:81:13:c7:b8:e1:23:
        5c:04:1d:3e:94:22:32:c6:5a:54:ca:75:58:03:bf:46:cd:e4:
        7a:69:3f:09
-----BEGIN CERTIFICATE-----
MIIEyTCCA7GgAwIBAgIBZDANBgkqhkiG9w0BAQsFADCBojELMAkGA1UEBhMCVVMx
EzARBgNVBAgMCldhc2hpbmd0b24xEDAOBgNVBAcMB1NlYXR0bGUxFTATBgNVBAoM
DHdvbGZTU0wgSW5jLjEUMBIGA1UECwwLRW5naW5lZXJpbmcxHTAbBgNVBAMMFGNo
YWluQi1JQ0EyLXBhdGhsZW4xMSAwHgYJKoZIhvcNAQkBFhFmYWN0c0B3b2xmc3Ns
LmNvbTAeFw0yNjA2MTEyMTQ0MzhaFw0yOTAzMDcyMTQ0MzhaMIGiMQswCQYDVQQG
EwJVUzETMBEGA1UECAwKV2FzaGluZ3RvbjEQMA4GA1UEBwwHU2VhdHRsZTEVMBMG
A1UECgwMd29sZlNTTCBJbmMuMRQwEgYDVQQLDAtFbmdpbmVlcmluZzEdMBsGA1UE
AwwUY2hhaW5CLUlDQTEtcGF0aGxlbjAxIDAeBgkqhkiG9w0BCQEWEWZhY3RzQHdv
bGZzc2wuY29tMIIBIjANBgkqhkiG9w0BAQEFAAOCAQ8AMIIBCgKCAQEAsveqrpHR
JEFSoSLg05eb4AyUnErks4WuqUOf7HoF3Yhc5RlSUzmGirLihierA5q+xFRnr7ms
ZeJhl3hmYCmQYghikaCWKw8wbNo9cDVSqKfVhUklalZZvGtFkcM3/AYNoqlG4imC
G3emSTX7V18zApLla2fCYeI3nBJctSybKqWFlyJzPTZQVRpqWdnarC0/5mqxHWBS
AwVAX88GaPAyhlpvtQJj5i4enwmCjAMYGeR51TVu2RefPMHZO5X5b/MZ0dO4XXyT
N8N8O6BYx/vlLfVY05ty80N6Kexr9IaByOZgiyvFrVnlpKAFlwkCAKdV3Fvv5IuD
Gu7IHLW25mFr0QIDAQABo4IBBjCCAQIwHQYDVR0OBBYEFNeQ5IZZJPkruAaOsY8z
5Sxj8QMWMIHCBgNVHSMEgbowgbeAFO5ZnVYLfApFROMVV+Ky8x1kb696oYGbpIGY
MIGVMQswCQYDVQQGEwJVUzEQMA4GA1UECAwHTW9udGFuYTEQMA4GA1UEBwwHQm96
ZW1hbjERMA8GA1UECgwIU2F3dG9vdGgxEzARBgNVBAsMCkNvbnN1bHRpbmcxGDAW
BgNVBAMMD3d3dy53b2xmc3NsLmNvbTEgMB4GCSqGSIb3DQEJARYRZmFjdHNAd29s
ZnNzbC5jb22CAWQwDwYDVR0TBAgwBgEB/wIBADALBgNVHQ8EBAMCAQYwDQYJKoZI
hvcNAQELBQADggEBAGa+ODLmikcWPulLHsKMzkmz2I06N4jrhhxYwxDmlY6TLjSm
Bjlf06/1UKSiHpqcVMhMlv6kkHvbIq6zhMBS/FPR8S5SBWqM31PrJ4JRXTZLPHW6
K0JS/+n9QzwMhNo1o166KCq7vi5GJePXXHa9PyoSfTIb9JAZuUhqf6szy8XkhemE
m+2jzTOq8FN7T9s5nSJp/DwuKLE8dec8pwXVqwq8UF54tjADeVlAz6czn6FtgjVb
ChkIkCg7Q2bJZkeZucq8BPG9rpYWDeHJFB4ujwyu0RdzQzsVae74yILBUAmmtTOj
oYETx7jhI1wEHT6UIjLGWlTKdVgDv0bN5HppPwk=
-----END CERTIFICATE-----
