Certificate:
    Data:
        Version: 3 (0x2)
        Serial Number: 101 (0x65)
        Signature Algorithm: sha256WithRSAEncryption
        Issuer: C = US, ST = Washington, L = Seattle, O = wolfSSL Inc., OU = Engineering, CN = chainJ-ICA1-no_pathlen, emailAddress = info@wolfssl.com
        Validity
            Not Before: Sep 26 17:22:46 2023 GMT
            Not After : Jun 22 17:22:46 2026 GMT
        Subject: C = US, ST = Washington, L = Seattle, O = wolfSSL Inc., OU = Engineering, CN = chainJ-entity, emailAddress = info@wolfssl.com
        Subject Public Key Info:
            Public Key Algorithm: rsaEncryption
                Public-Key: (2048 bit)
                Modulus:
                    00:b3:fb:51:a0:ac:69:8b:35:06:bf:7a:ee:b4:a1:
                    8a:7e:ae:31:75:ad:e7:45:7b:e6:d9:bb:7c:e9:73:
                    0e:de:cf:05:74:df:37:a4:37:33:a6:6f:59:06:c8:
                    9f:19:35:c3:94:f7:05:ba:52:eb:3e:92:29:61:48:
                    88:fa:6d:42:b4:30:de:ce:df:94:ed:92:88:60:c8:
                    55:36:50:ee:36:b5:ed:35:6f:95:01:f4:88:4b:7b:
                    3e:fe:b5:9c:64:c0:72:be:8c:74:6a:8c:f5:e4:65:
                    66:87:52:9d:7b:b0:20:f6:d8:c3:de:76:b9:70:7c:
                    01:82:6e:fc:fa:1b:e7:c4:c1:5f:38:ce:50:dc:3a:
                    22:87:bc:19:9a:45:d5:8a:7a:93:f9:78:59:c7:0a:
                    f9:8f:eb:c3:79:eb:b5:ee:36:f0:5e:5d:2f:8f:46:
                    e8:63:c2:31:82:fc:fb:5d:8c:ca:01:b1:bb:72:2b:
                    e7:2f:82:3c:a6:24:a6:3f:58:7e:69:5b:4a:00:b4:
                    25:b3:b3:c3:b3:b0:c2:3f:a3:d7:ee:04:12:1d:ab:
                    0b:bb:02:b0:6c:0b:36:64:56:a9:5d:37:e5:0a:28:
                    44:5e:15:e4:f5:ab:73:98:0a:b3:28:90:1d:30:f2:
                    8c:e7:db:13:6a:0f:b4:cb:8d:06:15:86:ce:35:12:
                    e3:a9
                Exponent: 65537 (0x10001)
        X509v3 extensions:
            X509v3 Subject Key Identifier: 
                13:92:E0:30:5E:36:4F:BF:D5:E3:0D:5D:40:0B:64:95:EC:8E:77:4E
            X509v3 Authority Key Identifier: 
                keyid:9C:7B:3A:10:B3:08:99:05:00:AF:3E:E0:A4:5D:D9:AF:82:BC:4D:C0
                DirName:/C=US/ST=Washington/L=Seattle/O=wolfSSL Inc./OU=Engineering/CN=chainJ-ICA2-no_pathlen/emailAddress=info@wolfssl.com
                serial:64
            X509v3 Basic Constraints: 
                CA:FALSE
    Signature Algorithm: sha256WithRSAEncryption
    Signature Value:
        88:d1:09:99:3e:1f:4b:fc:ad:63:57:f9:83:5f:4b:cf:87:2e:
        6b:0c:3f:17:21:83:fd:79:55:55:6b:62:fe:bd:36:f3:8e:d3:
        3f:88:bc:fa:bb:6e:3d:06:6f:ea:17:e9:de:47:e6:8b:52:d7:
        52:01:97:4f:f3:60:45:62:43:8c:35:f1:8e:18:43:c4:71:ae:
        19:f9:c1:98:d0:94:42:21:27:a3:ec:28:c3:bd:e0:dc:b9:62:
        57:6c:fd:60:0b:35:a2:31:d4:46:40:1f:30:f6:1e:b8:7c:97:
        f0:c7:8a:2a:3d:72:cd:bc:4f:ec:24:56:ff:b1:8f:09:78:5f:
        22:1c:75:bc:fd:1d:33:8b:ab:8b:4a:3d:21:2d:5e:28:44:c7:
        e1:f4:18:51:dd:8d:c4:24:f9:7c:43:06:b3:79:ed:35:19:db:
        53:8f:e8:56:c6:87:ba:c4:70:62:73:55:87:8f:13:80:a4:fd:
        f9:aa:ef:7a:19:73:4f:24:21:80:6b:03:8b:76:84:5b:de:43:
        0d:22:e7:61:c5:af:a9:8a:f8:5f:6d:a9:f9:f9:86:78:75:59:
        67:5b:f3:92:55:c0:df:25:52:fb:27:df:c6:be:e0:c6:be:28:
        51:84:68:4d:66:e2:b7:2a:e1:b8:02:6f:aa:d3:1d:ed:4c:f5:
        4e:82:31:1c
-----BEGIN CERTIFICATE-----
MIIEvDCCA6SgAwIBAgIBZTANBgkqhkiG9w0BAQsFADCBozELMAkGA1UEBhMCVVMx
EzARBgNVBAgMCldhc2hpbmd0b24xEDAOBgNVBAcMB1NlYXR0bGUxFTATBgNVBAoM
DHdvbGZTU0wgSW5jLjEUMBIGA1UECwwLRW5naW5lZXJpbmcxHzAdBgNVBAMMFmNo
YWluSi1JQ0ExLW5vX3BhdGhsZW4xHzAdBgkqhkiG9w0BCQEWEGluZm9Ad29sZnNz
bC5jb20wHhcNMjMwOTI2MTcyMjQ2WhcNMjYwNjIyMTcyMjQ2WjCBmjELMAkGA1UE
BhMCVVMxEzARBgNVBAgMCldhc2hpbmd0b24xEDAOBgNVBAcMB1NlYXR0bGUxFTAT
BgNVBAoMDHdvbGZTU0wgSW5jLjEUMBIGA1UECwwLRW5naW5lZXJpbmcxFjAUBgNV
BAMMDWNoYWluSi1lbnRpdHkxHzAdBgkqhkiG9w0BCQEWEGluZm9Ad29sZnNzbC5j
b20wggEiMA0GCSqGSIb3DQEBAQUAA4IBDwAwggEKAoIBAQCz+1GgrGmLNQa/eu60
oYp+rjF1redFe+bZu3zpcw7ezwV03zekNzOmb1kGyJ8ZNcOU9wW6Uus+kilhSIj6
bUK0MN7O35TtkohgyFU2UO42te01b5UB9IhLez7+tZxkwHK+jHRqjPXkZWaHUp17
sCD22MPedrlwfAGCbvz6G+fEwV84zlDcOiKHvBmaRdWKepP5eFnHCvmP68N567Xu
NvBeXS+PRuhjwjGC/PtdjMoBsbtyK+cvgjymJKY/WH5pW0oAtCWzs8OzsMI/o9fu
BBIdqwu7ArBsCzZkVqldN+UKKEReFeT1q3OYCrMokB0w8ozn2xNqD7TLjQYVhs41
EuOpAgMBAAGjggEAMIH9MB0GA1UdDgQWBBQTkuAwXjZPv9XjDV1AC2SV7I53TjCB
0AYDVR0jBIHIMIHFgBScezoQswiZBQCvPuCkXdmvgrxNwKGBqaSBpjCBozELMAkG
A1UEBhMCVVMxEzARBgNVBAgMCldhc2hpbmd0b24xEDAOBgNVBAcMB1NlYXR0bGUx
FTATBgNVBAoMDHdvbGZTU0wgSW5jLjEUMBIGA1UECwwLRW5naW5lZXJpbmcxHzAd
BgNVBAMMFmNoYWluSi1JQ0EyLW5vX3BhdGhsZW4xHzAdBgkqhkiG9w0BCQEWEGlu
Zm9Ad29sZnNzbC5jb22CAWQwCQYDVR0TBAIwADANBgkqhkiG9w0BAQsFAAOCAQEA
iNEJmT4fS/ytY1f5g19Lz4cuaww/FyGD/XlVVWti/r02847TP4i8+rtuPQZv6hfp
3kfmi1LXUgGXT/NgRWJDjDXxjhhDxHGuGfnBmNCUQiEno+wow73g3LliV2z9YAs1
ojHURkAfMPYeuHyX8MeKKj1yzbxP7CRW/7GPCXhfIhx1vP0dM4uri0o9IS1eKETH
4fQYUd2NxCT5fEMGs3ntNRnbU4/oVsaHusRwYnNVh48TgKT9+arvehlzTyQhgGsD
i3aEW95DDSLnYcWvqYr4X22p+fmGeHVZZ1vzklXA3yVS+yffxr7gxr4oUYRoTWbi
tyrhuAJvqtMd7Uz1ToIxHA==
-----END CERTIFICATE-----
Certificate:
    Data:
        Version: 3 (0x2)
        Serial Number: 100 (0x64)
        Signature Algorithm: sha256WithRSAEncryption
        Issuer: C = US, ST = Washington, L = Seattle, O = wolfSSL Inc., OU = Engineering, CN = chainJ-ICA2-no_pathlen, emailAddress = info@wolfssl.com
        Validity
            Not Before: Sep 26 17:22:46 2023 GMT
            Not After : Jun 22 17:22:46 2026 GMT
        Subject: C = US, ST = Washington, L = Seattle, O = wolfSSL Inc., OU = Engineering, CN = chainJ-ICA1-no_pathlen, emailAddress = info@wolfssl.com
        Subject Public Key Info:
            Public Key Algorithm: rsaEncryption
                Public-Key: (2048 bit)
                Modulus:
                    00:a7:6f:44:c2:11:cc:2c:f4:2a:a5:a8:08:53:4b:
                    0e:cd:96:23:bb:15:4a:2a:dd:f9:a7:19:2b:91:28:
                    e8:73:a3:57:b4:49:3a:37:82:8f:15:38:5a:aa:af:
                    ad:72:26:2e:84:c2:0d:de:fc:f0:be:3b:a2:11:a9:
                    12:20:d4:3d:de:62:85:85:91:08:60:db:c0:4a:bb:
                    89:b6:f4:91:1e:51:a3:b2:f7:08:99:df:48:4a:59:
                    84:d1:aa:09:36:0d:cd:68:a5:ae:41:c8:d7:1a:d8:
                    ea:49:87:20:22:27:f9:45:54:3e:c7:c8:00:44:7e:
                    34:72:aa:8d:2d:4d:6a:3e:75:89:e2:d4:17:57:f9:
                    cd:2b:d0:b7:14:6a:54:1b:61:af:9b:68:22:b1:16:
                    73:eb:05:6c:41:ea:ed:10:4e:bc:83:04:68:c8:3a:
                    e1:03:12:ad:28:5c:24:4c:19:a1:7e:d8:ef:1b:80:
                    e4:0e:49:0c:69:86:f6:1e:e7:01:fb:2a:6f:56:1b:
                    6d:0a:ad:e9:29:3f:31:bb:48:28:40:79:2b:b5:f3:
                    aa:ec:e9:09:4c:82:fc:97:28:19:a3:3a:c0:d2:5e:
                    a3:8a:98:c8:8a:b7:d2:c4:90:bc:ff:cc:47:13:90:
                    ad:00:ab:8a:ec:f7:94:35:09:60:10:35:9f:32:c5:
                    00:1b
                Exponent: 65537 (0x10001)
        X509v3 extensions:
            X509v3 Subject Key Identifier: 
                9C:7B:3A:10:B3:08:99:05:00:AF:3E:E0:A4:5D:D9:AF:82:BC:4D:C0
            X509v3 Authority Key Identifier: 
                keyid:A3:F5:71:8A:60:80:3C:93:64:17:D9:2E:B5:C0:CE:A9:C1:14:17:C4
                DirName:/C=US/ST=Washington/L=Seattle/O=wolfSSL Inc./OU=Engineering/CN=chainJ-ICA3-no_pathlen/emailAddress=info@wolfssl.com
                serial:64
            X509v3 Basic Constraints: 
                CA:TRUE
            X509v3 Key Usage: 
                Certificate Sign, CRL Sign
    Signature Algorithm: sha256WithRSAEncryption
    Signature Value:
        8f:d3:da:6d:af:2c:95:09:cb:a4:68:69:9c:2e:fa:4f:77:ab:
        12:ca:88:68:a0:82:41:bc:68:c0:26:d6:5f:c0:0e:86:6e:13:
        2a:ac:a1:d1:d3:c3:9a:99:91:f7:03:c1:0d:92:08:1a:27:72:
        0e:72:e4:3a:77:60:f4:6c:71:4d:d4:ec:ea:1f:c4:18:2a:80:
        53:bf:fc:8a:85:bb:38:40:8f:96:ab:3f:76:af:d9:c2:e0:09:
        04:14:64:e0:10:a3:8f:b5:4f:f2:76:72:33:5d:a4:33:1c:7e:
        b6:93:3c:04:74:06:00:13:26:d7:fe:e4:58:51:82:68:67:97:
        18:f2:4d:f6:11:69:47:49:00:15:e1:29:fa:6a:02:a7:60:0a:
        da:19:62:0a:2b:ca:6d:df:75:16:dd:e9:8c:24:9a:27:4b:0f:
        66:23:38:95:3d:df:9b:d7:05:48:81:ce:6d:d3:cf:bc:42:74:
        8a:41:64:06:74:c4:80:52:e1:d0:de:0b:24:5c:f9:f4:55:e4:
        ad:36:c0:b5:da:49:b5:18:e1:98:d2:57:87:57:ca:ab:3e:0f:
        f3:1f:4e:fa:8d:c7:18:03:c1:87:3f:64:93:0a:9a:ba:99:7b:
        4b:cb:e8:8d:6f:89:d6:7e:01:e4:2b:9b:18:c7:a2:9f:54:6e:
        2c:f7:81:8c
-----BEGIN CERTIFICATE-----
MIIE1jCCA76gAwIBAgIBZDANBgkqhkiG9w0BAQsFADCBozELMAkGA1UEBhMCVVMx
EzARBgNVBAgMCldhc2hpbmd0b24xEDAOBgNVBAcMB1NlYXR0bGUxFTATBgNVBAoM
DHdvbGZTU0wgSW5jLjEUMBIGA1UECwwLRW5naW5lZXJpbmcxHzAdBgNVBAMMFmNo
YWluSi1JQ0EyLW5vX3BhdGhsZW4xHzAdBgkqhkiG9w0BCQEWEGluZm9Ad29sZnNz
bC5jb20wHhcNMjMwOTI2MTcyMjQ2WhcNMjYwNjIyMTcyMjQ2WjCBozELMAkGA1UE
BhMCVVMxEzARBgNVBAgMCldhc2hpbmd0b24xEDAOBgNVBAcMB1NlYXR0bGUxFTAT
BgNVBAoMDHdvbGZTU0wgSW5jLjEUMBIGA1UECwwLRW5naW5lZXJpbmcxHzAdBgNV
BAMMFmNoYWluSi1JQ0ExLW5vX3BhdGhsZW4xHzAdBgkqhkiG9w0BCQEWEGluZm9A
d29sZnNzbC5jb20wggEiMA0GCSqGSIb3DQEBAQUAA4IBDwAwggEKAoIBAQCnb0TC
Ecws9CqlqAhTSw7NliO7FUoq3fmnGSuRKOhzo1e0STo3go8VOFqqr61yJi6Ewg3e
/PC+O6IRqRIg1D3eYoWFkQhg28BKu4m29JEeUaOy9wiZ30hKWYTRqgk2Dc1opa5B
yNca2OpJhyAiJ/lFVD7HyABEfjRyqo0tTWo+dYni1BdX+c0r0LcUalQbYa+baCKx
FnPrBWxB6u0QTryDBGjIOuEDEq0oXCRMGaF+2O8bgOQOSQxphvYe5wH7Km9WG20K
rekpPzG7SChAeSu186rs6QlMgvyXKBmjOsDSXqOKmMiKt9LEkLz/zEcTkK0Aq4rs
95Q1CWAQNZ8yxQAbAgMBAAGjggERMIIBDTAdBgNVHQ4EFgQUnHs6ELMImQUArz7g
pF3Zr4K8TcAwgdAGA1UdIwSByDCBxYAUo/VximCAPJNkF9kutcDOqcEUF8Shgamk
gaYwgaMxCzAJBgNVBAYTAlVTMRMwEQYDVQQIDApXYXNoaW5ndG9uMRAwDgYDVQQH
DAdTZWF0dGxlMRUwEwYDVQQKDAx3b2xmU1NMIEluYy4xFDASBgNVBAsMC0VuZ2lu
ZWVyaW5nMR8wHQYDVQQDDBZjaGFpbkotSUNBMy1ub19wYXRobGVuMR8wHQYJKoZI
hvcNAQkBFhBpbmZvQHdvbGZzc2wuY29tggFkMAwGA1UdEwQFMAMBAf8wCwYDVR0P
BAQDAgEGMA0GCSqGSIb3DQEBCwUAA4IBAQCP09ptryyVCcukaGmcLvpPd6sSyoho
oIJBvGjAJtZfwA6GbhMqrKHR08OamZH3A8ENkggaJ3IOcuQ6d2D0bHFN1OzqH8QY
KoBTv/yKhbs4QI+Wqz92r9nC4AkEFGTgEKOPtU/ydnIzXaQzHH62kzwEdAYAEybX
/uRYUYJoZ5cY8k32EWlHSQAV4Sn6agKnYAraGWIKK8pt33UW3emMJJonSw9mIziV
Pd+b1wVIgc5t08+8QnSKQWQGdMSAUuHQ3gskXPn0VeStNsC12km1GOGY0leHV8qr
Pg/zH076jccYA8GHP2STCpq6mXtLy+iNb4nWfgHkK5sYx6KfVG4s94GM
-----END CERTIFICATE-----
Certificate:
    Data:
        Version: 3 (0x2)
        Serial Number: 100 (0x64)
        Signature Algorithm: sha256WithRSAEncryption
        Issuer: C = US, ST = Washington, L = Seattle, O = wolfSSL Inc., OU = Engineering, CN = chainJ-ICA3-no_pathlen, emailAddress = info@wolfssl.com
        Validity
            Not Before: Sep 26 17:22:46 2023 GMT
            Not After : Jun 22 17:22:46 2026 GMT
        Subject: C = US, ST = Washington, L = Seattle, O = wolfSSL Inc., OU = Engineering, CN = chainJ-ICA2-no_pathlen, emailAddress = info@wolfssl.com
        Subject Public Key Info:
            Public Key Algorithm: rsaEncryption
                Public-Key: (2048 bit)
                Modulus:
                    00:bb:29:fd:89:aa:82:e0:1d:04:78:69:ec:61:58:
                    51:52:84:7e:6b:55:69:2c:f4:23:d6:1f:d8:ed:ab:
                    19:96:38:7b:c6:88:d7:7d:85:93:00:35:40:0b:c0:
                    a9:ff:66:0f:9e:a1:1d:88:6e:a9:8a:f1:ad:47:b4:
                    71:c9:15:50:c6:0f:35:9e:95:4a:66:d3:bd:1b:38:
                    7b:dc:67:85:97:1b:b3:63:c9:72:d6:43:5a:f1:5e:
                    35:f6:05:96:c7:40:bc:23:ab:94:34:82:59:02:b2:
                    33:d0:e6:7f:19:57:65:68:3c:04:61:50:ef:22:95:
                    4f:ef:18:bf:15:b1:4d:8e:cd:a7:a0:98:22:f5:1c:
                    05:01:6b:4b:35:bf:88:c3:47:c3:24:29:b4:45:cb:
                    95:a1:ac:16:1d:dd:b8:68:ac:51:39:24:27:6a:be:
                    31:f1:ec:06:10:55:be:44:02:4f:e8:12:7b:d6:fe:
                    32:c9:48:37:6b:20:68:cb:53:f5:49:3a:ae:4a:c7:
                    43:c1:af:e6:53:11:d9:f8:71:1a:a2:d6:37:c7:2b:
                    45:50:49:51:4f:55:6c:3f:1e:69:7b:58:12:3a:7e:
                    59:a0:57:9d:28:9c:8a:6d:82:e7:13:15:3b:04:8f:
                    e2:82:0f:2f:cf:d9:25:d9:65:a3:3c:03:c0:cd:b6:
                    51:d5
                Exponent: 65537 (0x10001)
        X509v3 extensions:
            X509v3 Subject Key Identifier: 
                A3:F5:71:8A:60:80:3C:93:64:17:D9:2E:B5:C0:CE:A9:C1:14:17:C4
            X509v3 Authority Key Identifier: 
                keyid:CD:97:49:78:F7:31:61:ED:2F:71:1A:68:E9:45:2C:40:78:51:93:5B
                DirName:/C=US/ST=Washington/L=Seattle/O=wolfSSL Inc./OU=Engineering/CN=chainJ-ICA4-pathlen2/emailAddress=info@wolfssl.com
                serial:64
            X509v3 Basic Constraints: 
                CA:TRUE
            X509v3 Key Usage: 
                Certificate Sign, CRL Sign
    Signature Algorithm: sha256WithRSAEncryption
    Signature Value:
        16:a2:39:b4:dc:95:a4:62:96:67:84:7b:00:e5:1e:91:f4:e4:
        4e:03:c2:41:4a:7d:4d:9e:02:d7:84:13:71:96:0f:17:f7:d4:
        7b:89:26:d5:0b:88:55:ad:70:46:34:21:73:39:34:64:72:b7:
        d7:28:8c:95:46:b7:6e:d3:ad:fd:11:e8:ed:ce:4e:38:fa:02:
        52:72:90:ec:81:f3:ca:80:5a:d1:c3:96:05:26:45:ae:06:7a:
        eb:01:45:7e:d7:6c:64:2d:36:16:d1:31:3e:db:4a:8f:7e:24:
        5e:f7:e3:a5:7d:3b:e4:bd:ea:60:25:87:04:27:6d:0c:53:0c:
        15:da:c4:34:8d:3a:4e:b6:6d:22:f7:14:0e:24:a7:bb:e9:eb:
        c3:cc:6a:a9:ae:f0:ae:1c:86:8f:15:fa:a2:ba:d9:d8:03:6b:
        85:40:e9:84:08:df:cd:45:c1:f9:a3:c2:3b:65:f2:60:64:35:
        65:2c:9c:23:fb:13:13:a8:70:59:c5:d8:ee:5a:65:6d:3f:e3:
        a2:0d:05:77:1f:1c:75:47:11:d6:cf:72:0c:88:b1:23:cd:c9:
        c5:aa:f6:8b:01:32:58:90:8e:bf:4e:b6:c4:75:24:27:13:7b:
        f1:eb:d6:0a:20:f5:4c:01:ac:b1:18:82:80:32:88:82:7a:87:
        c8:ee:f7:51
-----BEGIN CERTIFICATE-----
MIIE1DCCA7ygAwIBAgIBZDANBgkqhkiG9w0BAQsFADCBozELMAkGA1UEBhMCVVMx
EzARBgNVBAgMCldhc2hpbmd0b24xEDAOBgNVBAcMB1NlYXR0bGUxFTATBgNVBAoM
DHdvbGZTU0wgSW5jLjEUMBIGA1UECwwLRW5naW5lZXJpbmcxHzAdBgNVBAMMFmNo
YWluSi1JQ0EzLW5vX3BhdGhsZW4xHzAdBgkqhkiG9w0BCQEWEGluZm9Ad29sZnNz
bC5jb20wHhcNMjMwOTI2MTcyMjQ2WhcNMjYwNjIyMTcyMjQ2WjCBozELMAkGA1UE
BhMCVVMxEzARBgNVBAgMCldhc2hpbmd0b24xEDAOBgNVBAcMB1NlYXR0bGUxFTAT
BgNVBAoMDHdvbGZTU0wgSW5jLjEUMBIGA1UECwwLRW5naW5lZXJpbmcxHzAdBgNV
BAMMFmNoYWluSi1JQ0EyLW5vX3BhdGhsZW4xHzAdBgkqhkiG9w0BCQEWEGluZm9A
d29sZnNzbC5jb20wggEiMA0GCSqGSIb3DQEBAQUAA4IBDwAwggEKAoIBAQC7Kf2J
qoLgHQR4aexhWFFShH5rVWks9CPWH9jtqxmWOHvGiNd9hZMANUALwKn/Zg+eoR2I
bqmK8a1HtHHJFVDGDzWelUpm070bOHvcZ4WXG7NjyXLWQ1rxXjX2BZbHQLwjq5Q0
glkCsjPQ5n8ZV2VoPARhUO8ilU/vGL8VsU2OzaegmCL1HAUBa0s1v4jDR8MkKbRF
y5WhrBYd3bhorFE5JCdqvjHx7AYQVb5EAk/oEnvW/jLJSDdrIGjLU/VJOq5Kx0PB
r+ZTEdn4cRqi1jfHK0VQSVFPVWw/Hml7WBI6flmgV50onIptgucTFTsEj+KCDy/P
2SXZZaM8A8DNtlHVAgMBAAGjggEPMIIBCzAdBgNVHQ4EFgQUo/VximCAPJNkF9ku
tcDOqcEUF8Qwgc4GA1UdIwSBxjCBw4AUzZdJePcxYe0vcRpo6UUsQHhRk1uhgaek
gaQwgaExCzAJBgNVBAYTAlVTMRMwEQYDVQQIDApXYXNoaW5ndG9uMRAwDgYDVQQH
DAdTZWF0dGxlMRUwEwYDVQQKDAx3b2xmU1NMIEluYy4xFDASBgNVBAsMC0VuZ2lu
ZWVyaW5nMR0wGwYDVQQDDBRjaGFpbkotSUNBNC1wYXRobGVuMjEfMB0GCSqGSIb3
DQEJARYQaW5mb0B3b2xmc3NsLmNvbYIBZDAMBgNVHRMEBTADAQH/MAsGA1UdDwQE
AwIBBjANBgkqhkiG9w0BAQsFAAOCAQEAFqI5tNyVpGKWZ4R7AOUekfTkTgPCQUp9
TZ4C14QTcZYPF/fUe4km1QuIVa1wRjQhczk0ZHK31yiMlUa3btOt/RHo7c5OOPoC
UnKQ7IHzyoBa0cOWBSZFrgZ66wFFftdsZC02FtExPttKj34kXvfjpX075L3qYCWH
BCdtDFMMFdrENI06TrZtIvcUDiSnu+nrw8xqqa7wrhyGjxX6orrZ2ANrhUDphAjf
zUXB+aPCO2XyYGQ1ZSycI/sTE6hwWcXY7lplbT/jog0Fdx8cdUcR1s9yDIixI83J
xar2iwEyWJCOv062xHUkJxN78evWCiD1TAGssRiCgDKIgnqHyO73UQ==
-----END CERTIFICATE-----
Certificate:
    Data:
        Version: 3 (0x2)
        Serial Number: 100 (0x64)
        Signature Algorithm: sha256WithRSAEncryption
        Issuer: C = US, ST = Washington, L = Seattle, O = wolfSSL Inc., OU = Engineering, CN = chainJ-ICA4-pathlen2, emailAddress = info@wolfssl.com
        Validity
            Not Before: Sep 26 17:22:46 2023 GMT
            Not After : Jun 22 17:22:46 2026 GMT
        Subject: C = US, ST = Washington, L = Seattle, O = wolfSSL Inc., OU = Engineering, CN = chainJ-ICA3-no_pathlen, emailAddress = info@wolfssl.com
        Subject Public Key Info:
            Public Key Algorithm: rsaEncryption
                Public-Key: (2048 bit)
                Modulus:
                    00:d8:aa:f6:05:95:70:5a:53:c7:66:10:aa:90:79:
                    3b:cb:78:2a:ef:5f:43:22:71:7c:6d:47:99:a7:8b:
                    39:e1:e7:4e:48:29:48:25:e1:b5:f5:25:df:64:7b:
                    ea:ed:aa:1f:8b:0d:e7:eb:f5:2f:ae:2a:5a:3d:50:
                    c7:fb:ef:0b:8b:44:0b:63:94:be:c6:d7:63:45:2e:
                    85:96:00:5c:be:7e:10:09:b3:d0:aa:7c:de:20:f8:
                    75:39:23:85:ee:84:13:88:54:2a:96:f5:16:27:9f:
                    8b:b0:a6:2a:f4:9d:13:8c:71:1c:0c:a6:59:53:ec:
                    f9:0b:2b:c9:45:13:d6:12:ef:39:d1:8e:9c:9e:ae:
                    3c:bb:b6:d8:10:ac:b7:59:49:5b:73:00:be:af:92:
                    21:14:54:a3:fa:b6:17:ae:b6:dc:b1:f1:61:f0:75:
                    07:43:5e:48:fa:e7:80:56:cf:df:ad:46:52:85:42:
                    fb:a7:70:53:14:c6:b7:51:fa:23:f0:f5:4b:d1:bb:
                    3f:9b:fc:35:ca:d2:85:f1:a0:77:02:06:7c:79:99:
                    13:b5:68:b4:16:47:42:88:f7:bc:eb:78:b2:e8:11:
                    2f:62:f6:da:f9:ef:1b:e0:9f:b5:d5:32:65:b5:4e:
                    e4:be:36:6b:65:65:1a:96:a2:47:b5:3e:9f:b0:0d:
                    63:41
                Exponent: 65537 (0x10001)
        X509v3 extensions:
            X509v3 Subject Key Identifier: 
                CD:97:49:78:F7:31:61:ED:2F:71:1A:68:E9:45:2C:40:78:51:93:5B
            X509v3 Authority Key Identifier: 
                keyid:FC:18:13:52:BB:33:4A:DB:1C:5B:D1:80:98:3E:40:86:95:58:72:F9
                DirName:/C=US/ST=Montana/L=Bozeman/O=Sawtooth/OU=Consulting/CN=www.wolfssl.com/emailAddress=info@wolfssl.com
                serial:64
            X509v3 Basic Constraints: 
                CA:TRUE
            X509v3 Key Usage: 
                Certificate Sign, CRL Sign
    Signature Algorithm: sha256WithRSAEncryption
    Signature Value:
        19:27:2b:93:51:98:b6:98:4d:07:9c:42:c0:9e:8f:9e:be:3e:
        81:9e:f8:23:d2:b4:b2:30:7d:b8:bd:f2:54:43:13:41:22:c4:
        5f:e9:08:d7:33:37:66:2d:73:8c:e7:a5:2e:9e:f7:72:3e:8f:
        0a:dd:fb:87:26:4d:7e:1b:44:75:51:f7:0b:5a:93:69:c6:ad:
        3c:3f:58:9e:6c:28:22:57:ba:7c:20:20:2d:9c:98:f6:62:50:
        86:2b:64:a3:6c:26:1e:04:fe:15:ec:54:74:c5:57:83:fc:17:
        75:16:ae:63:6b:3a:c4:78:aa:b0:4e:d2:38:23:07:37:a5:ec:
        fa:4a:d7:d9:ba:56:c6:3c:6f:8f:11:3c:8a:9a:ab:3d:2e:7d:
        57:c3:4b:fa:13:7a:2a:0d:a2:ac:8f:5c:45:84:91:46:58:ca:
        bf:ca:70:97:b2:36:fc:0f:8a:5f:ad:af:49:c8:05:88:f8:46:
        d4:0a:d4:8f:6f:23:2f:2d:ee:1b:ac:b9:48:4e:49:81:e9:8d:
        91:d3:b5:68:d3:71:c4:73:34:9b:f4:29:6a:05:ea:86:87:24:
        40:12:d8:ea:f6:ac:e0:a5:bd:17:89:d2:89:63:25:55:e6:db:
        9b:3b:e5:77:71:3e:0b:2d:f6:de:29:bf:c3:ee:3e:fe:12:48:
        25:b9:48:63
-----BEGIN CERTIFICATE-----
MIIExDCCA6ygAwIBAgIBZDANBgkqhkiG9w0BAQsFADCBoTELMAkGA1UEBhMCVVMx
EzARBgNVBAgMCldhc2hpbmd0b24xEDAOBgNVBAcMB1NlYXR0bGUxFTATBgNVBAoM
DHdvbGZTU0wgSW5jLjEUMBIGA1UECwwLRW5naW5lZXJpbmcxHTAbBgNVBAMMFGNo
YWluSi1JQ0E0LXBhdGhsZW4yMR8wHQYJKoZIhvcNAQkBFhBpbmZvQHdvbGZzc2wu
Y29tMB4XDTIzMDkyNjE3MjI0NloXDTI2MDYyMjE3MjI0NlowgaMxCzAJBgNVBAYT
AlVTMRMwEQYDVQQIDApXYXNoaW5ndG9uMRAwDgYDVQQHDAdTZWF0dGxlMRUwEwYD
VQQKDAx3b2xmU1NMIEluYy4xFDASBgNVBAsMC0VuZ2luZWVyaW5nMR8wHQYDVQQD
DBZjaGFpbkotSUNBMy1ub19wYXRobGVuMR8wHQYJKoZIhvcNAQkBFhBpbmZvQHdv
bGZzc2wuY29tMIIBIjANBgkqhkiG9w0BAQEFAAOCAQ8AMIIBCgKCAQEA2Kr2BZVw
WlPHZhCqkHk7y3gq719DInF8bUeZp4s54edOSClIJeG19SXfZHvq7aofiw3n6/Uv
ripaPVDH++8Li0QLY5S+xtdjRS6FlgBcvn4QCbPQqnzeIPh1OSOF7oQTiFQqlvUW
J5+LsKYq9J0TjHEcDKZZU+z5CyvJRRPWEu850Y6cnq48u7bYEKy3WUlbcwC+r5Ih
FFSj+rYXrrbcsfFh8HUHQ15I+ueAVs/frUZShUL7p3BTFMa3Ufoj8PVL0bs/m/w1
ytKF8aB3AgZ8eZkTtWi0FkdCiPe863iy6BEvYvba+e8b4J+11TJltU7kvjZrZWUa
lqJHtT6fsA1jQQIDAQABo4IBATCB/jAdBgNVHQ4EFgQUzZdJePcxYe0vcRpo6UUs
QHhRk1swgcEGA1UdIwSBuTCBtoAU/BgTUrszStscW9GAmD5AhpVYcvmhgZqkgZcw
gZQxCzAJBgNVBAYTAlVTMRAwDgYDVQQIDAdNb250YW5hMRAwDgYDVQQHDAdCb3pl
bWFuMREwDwYDVQQKDAhTYXd0b290aDETMBEGA1UECwwKQ29uc3VsdGluZzEYMBYG
A1UEAwwPd3d3LndvbGZzc2wuY29tMR8wHQYJKoZIhvcNAQkBFhBpbmZvQHdvbGZz
c2wuY29tggFkMAwGA1UdEwQFMAMBAf8wCwYDVR0PBAQDAgEGMA0GCSqGSIb3DQEB
CwUAA4IBAQAZJyuTUZi2mE0HnELAno+evj6Bnvgj0rSyMH24vfJUQxNBIsRf6QjX
MzdmLXOM56UunvdyPo8K3fuHJk1+G0R1UfcLWpNpxq08P1iebCgiV7p8ICAtnJj2
YlCGK2SjbCYeBP4V7FR0xVeD/Bd1Fq5jazrEeKqwTtI4Iwc3pez6StfZulbGPG+P
ETyKmqs9Ln1Xw0v6E3oqDaKsj1xFhJFGWMq/ynCXsjb8D4pfra9JyAWI+EbUCtSP
byMvLe4brLlITkmB6Y2R07Vo03HEczSb9ClqBeqGhyRAEtjq9qzgpb0XidKJYyVV
5tubO+V3cT4LLfbeKb/D7j7+EkgluUhj
-----END CERTIFICATE-----
Certificate:
    Data:
        Version: 3 (0x2)
        Serial Number: 100 (0x64)
        Signature Algorithm: sha256WithRSAEncryption
        Issuer: C = US, ST = Montana, L = Bozeman, O = Sawtooth, OU = Consulting, CN = www.wolfssl.com, emailAddress = info@wolfssl.com
        Validity
            Not Before: Sep 26 17:22:46 2023 GMT
            Not After : Jun 22 17:22:46 2026 GMT
        Subject: C = US, ST = Washington, L = Seattle, O = wolfSSL Inc., OU = Engineering, CN = chainJ-ICA4-pathlen2, emailAddress = info@wolfssl.com
        Subject Public Key Info:
            Public Key Algorithm: rsaEncryption
                Public-Key: (2048 bit)
                Modulus:
                    00:9d:4a:ee:6b:ff:b6:ec:88:21:23:84:03:b6:88:
                    bb:3e:5a:1b:95:03:2f:24:53:2d:57:3f:11:38:5d:
                    12:1d:40:6b:10:db:c2:d3:e4:dd:80:77:74:7b:88:
                    44:65:e0:cf:52:c5:8a:42:e5:6e:b7:6a:ab:50:a0:
                    2e:29:c2:fe:ba:d5:c7:da:6b:91:26:8f:fc:1e:06:
                    17:f0:de:58:87:ef:1e:a6:91:12:39:68:a5:05:f3:
                    8c:67:c9:e5:99:18:a4:fc:90:3f:bd:a6:ca:f2:a6:
                    dd:b5:e6:93:cb:14:89:83:3c:88:5a:31:ab:e3:66:
                    2a:1b:87:c5:85:03:45:b0:ce:e1:0f:c1:0f:92:70:
                    d7:ac:65:ea:a8:09:c1:fe:1d:db:b7:e7:dd:98:d3:
                    c6:b1:16:b4:54:58:c1:aa:ba:a1:cf:19:14:a7:e4:
                    55:a6:da:bb:1f:9e:d1:85:00:e0:8d:4a:c4:d2:86:
                    08:75:fd:d8:1e:85:21:6c:27:8f:18:d5:44:73:58:
                    ab:94:75:4a:36:3d:8d:4d:c6:7a:86:9d:00:db:c5:
                    ba:be:70:02:83:bf:6e:d8:31:89:b3:f2:16:98:be:
                    27:f6:14:5a:e9:d4:72:67:8d:a9:df:76:27:bf:19:
                    ac:20:59:28:5b:1b:42:d9:d5:5b:6d:fb:6e:a2:5e:
                    d3:e9
                Exponent: 65537 (0x10001)
        X509v3 extensions:
            X509v3 Subject Key Identifier: 
                FC:18:13:52:BB:33:4A:DB:1C:5B:D1:80:98:3E:40:86:95:58:72:F9
            X509v3 Authority Key Identifier: 
                keyid:27:8E:67:11:74:C3:26:1D:3F:ED:33:63:B3:A4:D8:1D:30:E5:E8:D5
                DirName:/C=US/ST=Montana/L=Bozeman/O=Sawtooth/OU=Consulting/CN=www.wolfssl.com/emailAddress=info@wolfssl.com
                serial:4F:1D:F3:64:BA:21:A8:E6:CB:74:3A:4E:44:A5:E6:79:19:E8:5B:81
            X509v3 Basic Constraints: 
                CA:TRUE, pathlen:2
            X509v3 Key Usage: 
                Certificate Sign, CRL Sign
    Signature Algorithm: sha256WithRSAEncryption
    Signature Value:
        97:3b:3c:22:d0:57:15:17:b0:e8:39:a3:b8:9f:d2:bc:e2:9f:
        ec:65:9b:2e:0b:9d:6f:d4:0f:93:0a:a6:c8:21:46:22:19:04:
        51:df:27:25:e0:52:ec:c8:31:ba:5d:f8:ec:62:3a:6f:1c:f5:
        dc:44:9e:a7:fc:70:ed:51:3f:42:e0:fb:d9:33:31:87:6a:fe:
        ae:4d:69:9e:83:03:8f:3e:da:b3:38:55:91:3b:86:34:a4:cf:
        72:8a:ed:67:26:e9:5b:f7:06:8a:c9:9a:a8:95:68:f7:9e:49:
        c7:b7:65:f9:2b:83:29:7c:ee:cb:17:55:6b:dd:31:06:03:69:
        42:81:8f:f9:d1:8c:b5:b3:17:3c:c2:5b:6f:dd:3a:93:58:3d:
        c0:e7:44:16:30:0f:4c:f3:83:ee:16:61:a1:50:c4:d9:c8:ee:
        25:c3:d9:11:24:e4:b9:4b:37:c0:4d:4a:65:2b:49:59:f9:00:
        5c:3e:ff:4d:e9:b9:3b:e6:74:6e:f1:1b:d9:a8:a2:a2:0a:9a:
        c6:12:d9:97:e9:91:71:21:e9:8c:bb:d5:75:51:05:7b:70:a4:
        a7:d0:43:1b:c3:e6:02:9c:45:c6:f3:14:35:97:a5:64:8d:1f:
        06:26:84:21:da:47:fc:d3:6e:9c:9e:11:d7:63:f2:30:4d:b9:
        16:78:86:bc
-----BEGIN CERTIFICATE-----
MIIEzDCCA7SgAwIBAgIBZDANBgkqhkiG9w0BAQsFADCBlDELMAkGA1UEBhMCVVMx
EDAOBgNVBAgMB01vbnRhbmExEDAOBgNVBAcMB0JvemVtYW4xETAPBgNVBAoMCFNh
d3Rvb3RoMRMwEQYDVQQLDApDb25zdWx0aW5nMRgwFgYDVQQDDA93d3cud29sZnNz
bC5jb20xHzAdBgkqhkiG9w0BCQEWEGluZm9Ad29sZnNzbC5jb20wHhcNMjMwOTI2
MTcyMjQ2WhcNMjYwNjIyMTcyMjQ2WjCBoTELMAkGA1UEBhMCVVMxEzARBgNVBAgM
Cldhc2hpbmd0b24xEDAOBgNVBAcMB1NlYXR0bGUxFTATBgNVBAoMDHdvbGZTU0wg
SW5jLjEUMBIGA1UECwwLRW5naW5lZXJpbmcxHTAbBgNVBAMMFGNoYWluSi1JQ0E0
LXBhdGhsZW4yMR8wHQYJKoZIhvcNAQkBFhBpbmZvQHdvbGZzc2wuY29tMIIBIjAN
BgkqhkiG9w0BAQEFAAOCAQ8AMIIBCgKCAQEAnUrua/+27IghI4QDtoi7PloblQMv
JFMtVz8ROF0SHUBrENvC0+TdgHd0e4hEZeDPUsWKQuVut2qrUKAuKcL+utXH2muR
Jo/8HgYX8N5Yh+8eppESOWilBfOMZ8nlmRik/JA/vabK8qbdteaTyxSJgzyIWjGr
42YqG4fFhQNFsM7hD8EPknDXrGXqqAnB/h3bt+fdmNPGsRa0VFjBqrqhzxkUp+RV
ptq7H57RhQDgjUrE0oYIdf3YHoUhbCePGNVEc1irlHVKNj2NTcZ6hp0A28W6vnAC
g79u2DGJs/IWmL4n9hRa6dRyZ42p33YnvxmsIFkoWxtC2dVbbftuol7T6QIDAQAB
o4IBGDCCARQwHQYDVR0OBBYEFPwYE1K7M0rbHFvRgJg+QIaVWHL5MIHUBgNVHSME
gcwwgcmAFCeOZxF0wyYdP+0zY7Ok2B0w5ejVoYGapIGXMIGUMQswCQYDVQQGEwJV
UzEQMA4GA1UECAwHTW9udGFuYTEQMA4GA1UEBwwHQm96ZW1hbjERMA8GA1UECgwI
U2F3dG9vdGgxEzARBgNVBAsMCkNvbnN1bHRpbmcxGDAWBgNVBAMMD3d3dy53b2xm
c3NsLmNvbTEfMB0GCSqGSIb3DQEJARYQaW5mb0B3b2xmc3NsLmNvbYIUTx3zZLoh
qObLdDpORKXmeRnoW4EwDwYDVR0TBAgwBgEB/wIBAjALBgNVHQ8EBAMCAQYwDQYJ
KoZIhvcNAQELBQADggEBAJc7PCLQVxUXsOg5o7if0rzin+xlmy4LnW/UD5MKpsgh
RiIZBFHfJyXgUuzIMbpd+OxiOm8c9dxEnqf8cO1RP0Lg+9kzMYdq/q5NaZ6DA48+
2rM4VZE7hjSkz3KK7Wcm6Vv3BorJmqiVaPeeSce3Zfkrgyl87ssXVWvdMQYDaUKB
j/nRjLWzFzzCW2/dOpNYPcDnRBYwD0zzg+4WYaFQxNnI7iXD2REk5LlLN8BNSmUr
SVn5AFw+/03puTvmdG7xG9mooqIKmsYS2ZfpkXEh6Yy71XVRBXtwpKfQQxvD5gKc
RcbzFDWXpWSNHwYmhCHaR/zTbpyeEddj8jBNuRZ4hrw=
-----END CERTIFICATE-----
