Certificate:
    Data:
        Version: 3 (0x2)
        Serial Number: 101 (0x65)
        Signature Algorithm: sha256WithRSAEncryption
        Issuer: C = US, ST = Washington, L = Seattle, O = wolfSSL Inc., OU = Engineering, CN = chainH-ICA1-pathlen0, emailAddress = info@wolfssl.com
        Validity
            Not Before: Sep 26 17:22:46 2023 GMT
            Not After : Jun 22 17:22:46 2026 GMT
        Subject: C = US, ST = Washington, L = Seattle, O = wolfSSL Inc., OU = Engineering, CN = chainH-entity, emailAddress = info@wolfssl.com
        Subject Public Key Info:
            Public Key Algorithm: rsaEncryption
                Public-Key: (2048 bit)
                Modulus:
                    00:ba:ed:ab:c0:0d:92:6c:10:e4:50:9f:7c:98:cc:
                    87:fd:28:34:77:c0:58:28:52:2c:28:97:80:ec:78:
                    02:4f:f4:ca:60:f8:1d:e7:6a:04:52:2e:75:85:42:
                    74:76:00:e4:70:84:b8:51:8e:29:2e:7f:b6:ad:df:
                    6d:09:b4:4f:11:54:1e:88:16:e2:0e:af:30:f0:3d:
                    a7:da:9f:4e:0d:94:5b:05:51:9c:cc:05:65:8d:6b:
                    1e:3c:79:5b:26:7e:cb:ae:e9:9a:71:69:92:41:9b:
                    1a:cd:b4:53:0b:fb:2e:40:c4:e3:b1:5e:b8:8b:f8:
                    cf:0a:ec:5f:07:10:18:54:f8:8a:7d:35:97:7a:7a:
                    98:ea:93:2d:1b:e6:44:16:3f:cc:a7:4c:b9:cf:b5:
                    0b:09:47:b3:b8:8e:02:1a:56:69:37:b7:49:a4:59:
                    90:a3:20:88:f3:87:77:e8:39:0d:39:36:a5:56:b3:
                    ec:4b:f3:5e:8b:c2:cd:47:0c:d9:56:ce:32:f7:71:
                    33:db:7f:7d:c6:1e:7e:71:c1:01:06:98:9e:52:98:
                    9d:d7:9d:4a:32:94:3c:5a:42:66:00:ca:e2:a3:35:
                    db:b7:f3:27:0b:9c:fa:1b:99:4b:51:fa:6c:25:90:
                    f5:76:8c:d9:0d:80:8c:ac:61:eb:4d:92:12:6d:5f:
                    12:e5
                Exponent: 65537 (0x10001)
        X509v3 extensions:
            X509v3 Subject Key Identifier: 
                ED:62:FB:8F:91:CB:DE:B0:C8:89:CE:BA:B5:80:A8:47:F1:72:16:05
            X509v3 Authority Key Identifier: 
                keyid:48:80:87:28:EF:E6:28:0F:03:9B:DF:33:48:10:A0:E5:20:B3:69:50
                DirName:/C=US/ST=Washington/L=Seattle/O=wolfSSL Inc./OU=Engineering/CN=chainH-ICA2-pathlen2/emailAddress=info@wolfssl.com
                serial:64
            X509v3 Basic Constraints: 
                CA:FALSE
    Signature Algorithm: sha256WithRSAEncryption
    Signature Value:
        7a:ec:dc:4e:4b:aa:b8:97:fe:44:7b:44:c5:c4:a5:a8:f8:1a:
        5c:27:c6:6a:2e:29:68:7b:72:66:7b:52:31:b4:fb:ee:9a:79:
        0e:ad:0b:53:bd:d8:34:c4:e0:80:8c:fc:fd:5e:b0:a9:37:44:
        25:45:df:48:07:8d:db:da:46:fb:fa:f7:b3:52:e2:e7:27:e2:
        07:ba:b7:cb:d2:74:5f:33:89:05:76:f5:ba:52:85:17:ce:9a:
        dd:43:93:1f:c7:79:17:e8:04:34:c5:81:05:10:7d:a5:45:62:
        8a:c4:8f:6f:de:9e:12:b0:d6:4e:90:25:f6:48:27:65:8c:2f:
        26:50:da:93:84:44:f0:60:02:63:ff:c1:cb:8b:96:87:8c:f5:
        6e:47:a3:dd:01:dd:3c:45:69:4e:e7:8c:ca:59:e8:88:f3:5a:
        82:7b:fb:21:33:ea:24:b6:7e:83:e1:38:bc:71:bc:03:ae:5b:
        02:4b:45:22:ff:d3:24:2e:4c:fc:81:26:04:39:d4:30:73:42:
        23:7d:e1:6e:a5:7b:19:9d:bc:04:4f:f3:8f:24:7d:37:ad:f3:
        0b:98:78:05:9d:b6:51:6d:38:94:6b:93:21:eb:0e:48:83:2d:
        4a:98:47:e5:88:37:16:9f:37:87:3c:51:76:6e:22:fe:7f:a6:
        76:38:2e:6e
-----BEGIN CERTIFICATE-----
MIIEtzCCA5+gAwIBAgIBZTANBgkqhkiG9w0BAQsFADCBoTELMAkGA1UEBhMCVVMx
EzARBgNVBAgMCldhc2hpbmd0b24xEDAOBgNVBAcMB1NlYXR0bGUxFTATBgNVBAoM
DHdvbGZTU0wgSW5jLjEUMBIGA1UECwwLRW5naW5lZXJpbmcxHTAbBgNVBAMMFGNo
YWluSC1JQ0ExLXBhdGhsZW4wMR8wHQYJKoZIhvcNAQkBFhBpbmZvQHdvbGZzc2wu
Y29tMB4XDTIzMDkyNjE3MjI0NloXDTI2MDYyMjE3MjI0NlowgZoxCzAJBgNVBAYT
AlVTMRMwEQYDVQQIDApXYXNoaW5ndG9uMRAwDgYDVQQHDAdTZWF0dGxlMRUwEwYD
VQQKDAx3b2xmU1NMIEluYy4xFDASBgNVBAsMC0VuZ2luZWVyaW5nMRYwFAYDVQQD
DA1jaGFpbkgtZW50aXR5MR8wHQYJKoZIhvcNAQkBFhBpbmZvQHdvbGZzc2wuY29t
MIIBIjANBgkqhkiG9w0BAQEFAAOCAQ8AMIIBCgKCAQEAuu2rwA2SbBDkUJ98mMyH
/Sg0d8BYKFIsKJeA7HgCT/TKYPgd52oEUi51hUJ0dgDkcIS4UY4pLn+2rd9tCbRP
EVQeiBbiDq8w8D2n2p9ODZRbBVGczAVljWsePHlbJn7LrumacWmSQZsazbRTC/su
QMTjsV64i/jPCuxfBxAYVPiKfTWXenqY6pMtG+ZEFj/Mp0y5z7ULCUezuI4CGlZp
N7dJpFmQoyCI84d36DkNOTalVrPsS/Nei8LNRwzZVs4y93Ez2399xh5+ccEBBpie
Upid151KMpQ8WkJmAMriozXbt/MnC5z6G5lLUfpsJZD1dozZDYCMrGHrTZISbV8S
5QIDAQABo4H+MIH7MB0GA1UdDgQWBBTtYvuPkcvesMiJzrq1gKhH8XIWBTCBzgYD
VR0jBIHGMIHDgBRIgIco7+YoDwOb3zNIEKDlILNpUKGBp6SBpDCBoTELMAkGA1UE
BhMCVVMxEzARBgNVBAgMCldhc2hpbmd0b24xEDAOBgNVBAcMB1NlYXR0bGUxFTAT
BgNVBAoMDHdvbGZTU0wgSW5jLjEUMBIGA1UECwwLRW5naW5lZXJpbmcxHTAbBgNV
BAMMFGNoYWluSC1JQ0EyLXBhdGhsZW4yMR8wHQYJKoZIhvcNAQkBFhBpbmZvQHdv
bGZzc2wuY29tggFkMAkGA1UdEwQCMAAwDQYJKoZIhvcNAQELBQADggEBAHrs3E5L
qriX/kR7RMXEpaj4GlwnxmouKWh7cmZ7UjG0++6aeQ6tC1O92DTE4ICM/P1esKk3
RCVF30gHjdvaRvv697NS4ucn4ge6t8vSdF8ziQV29bpShRfOmt1Dkx/HeRfoBDTF
gQUQfaVFYorEj2/enhKw1k6QJfZIJ2WMLyZQ2pOERPBgAmP/wcuLloeM9W5Ho90B
3TxFaU7njMpZ6IjzWoJ7+yEz6iS2foPhOLxxvAOuWwJLRSL/0yQuTPyBJgQ51DBz
QiN94W6lexmdvARP848kfTet8wuYeAWdtlFtOJRrkyHrDkiDLUqYR+WINxafN4c8
UXZuIv5/pnY4Lm4=
-----END CERTIFICATE-----
Certificate:
    Data:
        Version: 3 (0x2)
        Serial Number: 100 (0x64)
        Signature Algorithm: sha256WithRSAEncryption
        Issuer: C = US, ST = Washington, L = Seattle, O = wolfSSL Inc., OU = Engineering, CN = chainH-ICA2-pathlen2, emailAddress = info@wolfssl.com
        Validity
            Not Before: Sep 26 17:22:46 2023 GMT
            Not After : Jun 22 17:22:46 2026 GMT
        Subject: C = US, ST = Washington, L = Seattle, O = wolfSSL Inc., OU = Engineering, CN = chainH-ICA1-pathlen0, emailAddress = info@wolfssl.com
        Subject Public Key Info:
            Public Key Algorithm: rsaEncryption
                Public-Key: (2048 bit)
                Modulus:
                    00:c7:f4:a6:7e:f2:cb:4f:6e:04:18:d3:53:d5:cf:
                    bf:7e:97:d1:74:94:fe:db:ad:61:3f:12:20:67:f3:
                    10:83:7b:51:43:a3:0c:20:b7:35:63:f1:0a:ee:59:
                    74:82:72:fb:d1:d4:12:71:ec:0e:8f:69:c9:fb:af:
                    a7:2f:c4:3b:2c:66:34:ab:ac:80:c2:6d:4a:0e:54:
                    fe:f6:3e:3a:00:25:84:a7:cb:42:d5:e8:47:04:94:
                    e4:68:c3:f5:32:ad:21:89:d8:5e:f9:88:ee:7d:ce:
                    91:a3:16:fc:87:76:1f:2f:1d:4c:b1:2f:3d:4d:f4:
                    0a:6c:04:fd:49:cf:51:88:49:c4:03:65:63:1e:c8:
                    f1:34:1d:44:34:58:af:f5:ec:90:2a:8c:a9:38:7b:
                    dc:fa:5f:ed:00:ed:08:53:4d:f7:36:10:ed:71:41:
                    aa:e3:bf:e8:5d:ee:4e:36:39:57:7e:f4:fd:c3:f7:
                    8a:52:0f:f1:37:72:2b:ae:90:77:00:d6:7c:ec:ec:
                    ee:8d:f8:4b:fb:39:0a:45:49:81:31:41:3f:a9:bb:
                    7b:1c:8a:cf:31:09:c7:94:a7:70:4a:d4:bb:ea:61:
                    3d:9a:a1:8e:1b:8b:02:3b:1f:1f:c4:85:e9:7f:63:
                    0c:ea:e5:91:83:a8:5b:25:34:7c:a8:68:eb:97:6f:
                    74:99
                Exponent: 65537 (0x10001)
        X509v3 extensions:
            X509v3 Subject Key Identifier: 
                48:80:87:28:EF:E6:28:0F:03:9B:DF:33:48:10:A0:E5:20:B3:69:50
            X509v3 Authority Key Identifier: 
                keyid:80:49:61:8C:1D:13:08:56:B5:42:68:D5:B2:EA:89:2C:B4:8B:05:87
                DirName:/C=US/ST=Washington/L=Seattle/O=wolfSSL Inc./OU=Engineering/CN=chainH-ICA3-pathlen2/emailAddress=info@wolfssl.com
                serial:64
            X509v3 Basic Constraints: 
                CA:TRUE, pathlen:0
            X509v3 Key Usage: 
                Certificate Sign, CRL Sign
    Signature Algorithm: sha256WithRSAEncryption
    Signature Value:
        60:df:ad:14:59:3f:31:e5:a5:7b:e7:a4:9a:9c:0a:57:04:c6:
        9e:ac:b0:34:1d:1e:c8:91:5f:ef:90:f2:d0:e2:72:01:1d:4e:
        d0:a9:b4:1e:95:a6:65:9b:c9:07:5a:53:3b:f0:bb:85:bf:17:
        bf:ff:60:a4:4c:90:2b:da:61:a7:17:91:bd:b1:13:c8:ba:51:
        37:79:7b:09:ac:77:19:c7:3c:48:7b:4e:96:7e:d7:27:43:9b:
        2e:68:1d:23:01:6c:f1:f1:33:60:4d:f7:49:e2:26:f6:61:00:
        f9:fe:32:72:25:d0:9a:4d:cc:42:2f:a9:8e:63:ae:bd:18:06:
        a7:17:ac:4c:18:75:96:a3:48:09:dc:e6:86:a3:36:31:34:c6:
        ae:51:41:2b:55:6f:ab:bd:71:58:b4:5a:a4:15:6e:31:ea:7c:
        a3:78:e3:de:25:40:52:e0:02:f0:9b:93:89:51:3f:a9:49:f1:
        56:87:de:8e:0e:82:b6:6a:3f:c3:39:bc:80:c6:b8:a8:dd:6d:
        9f:1e:33:61:ab:05:73:b8:b9:a9:3e:33:80:d6:28:25:07:f4:
        39:66:91:46:05:20:8b:1d:e3:d9:17:75:fb:e1:51:4f:ba:e0:
        f5:11:c0:96:dc:22:c0:a3:08:25:33:8f:ba:b7:dc:b3:1b:1a:
        b6:4d:6d:c6
-----BEGIN CERTIFICATE-----
MIIE0zCCA7ugAwIBAgIBZDANBgkqhkiG9w0BAQsFADCBoTELMAkGA1UEBhMCVVMx
EzARBgNVBAgMCldhc2hpbmd0b24xEDAOBgNVBAcMB1NlYXR0bGUxFTATBgNVBAoM
DHdvbGZTU0wgSW5jLjEUMBIGA1UECwwLRW5naW5lZXJpbmcxHTAbBgNVBAMMFGNo
YWluSC1JQ0EyLXBhdGhsZW4yMR8wHQYJKoZIhvcNAQkBFhBpbmZvQHdvbGZzc2wu
Y29tMB4XDTIzMDkyNjE3MjI0NloXDTI2MDYyMjE3MjI0NlowgaExCzAJBgNVBAYT
AlVTMRMwEQYDVQQIDApXYXNoaW5ndG9uMRAwDgYDVQQHDAdTZWF0dGxlMRUwEwYD
VQQKDAx3b2xmU1NMIEluYy4xFDASBgNVBAsMC0VuZ2luZWVyaW5nMR0wGwYDVQQD
DBRjaGFpbkgtSUNBMS1wYXRobGVuMDEfMB0GCSqGSIb3DQEJARYQaW5mb0B3b2xm
c3NsLmNvbTCCASIwDQYJKoZIhvcNAQEBBQADggEPADCCAQoCggEBAMf0pn7yy09u
BBjTU9XPv36X0XSU/tutYT8SIGfzEIN7UUOjDCC3NWPxCu5ZdIJy+9HUEnHsDo9p
yfuvpy/EOyxmNKusgMJtSg5U/vY+OgAlhKfLQtXoRwSU5GjD9TKtIYnYXvmI7n3O
kaMW/Id2Hy8dTLEvPU30CmwE/UnPUYhJxANlYx7I8TQdRDRYr/XskCqMqTh73Ppf
7QDtCFNN9zYQ7XFBquO/6F3uTjY5V370/cP3ilIP8TdyK66QdwDWfOzs7o34S/s5
CkVJgTFBP6m7exyKzzEJx5SncErUu+phPZqhjhuLAjsfH8SF6X9jDOrlkYOoWyU0
fKho65dvdJkCAwEAAaOCARIwggEOMB0GA1UdDgQWBBRIgIco7+YoDwOb3zNIEKDl
ILNpUDCBzgYDVR0jBIHGMIHDgBSASWGMHRMIVrVCaNWy6okstIsFh6GBp6SBpDCB
oTELMAkGA1UEBhMCVVMxEzARBgNVBAgMCldhc2hpbmd0b24xEDAOBgNVBAcMB1Nl
YXR0bGUxFTATBgNVBAoMDHdvbGZTU0wgSW5jLjEUMBIGA1UECwwLRW5naW5lZXJp
bmcxHTAbBgNVBAMMFGNoYWluSC1JQ0EzLXBhdGhsZW4yMR8wHQYJKoZIhvcNAQkB
FhBpbmZvQHdvbGZzc2wuY29tggFkMA8GA1UdEwQIMAYBAf8CAQAwCwYDVR0PBAQD
AgEGMA0GCSqGSIb3DQEBCwUAA4IBAQBg360UWT8x5aV756SanApXBMaerLA0HR7I
kV/vkPLQ4nIBHU7QqbQelaZlm8kHWlM78LuFvxe//2CkTJAr2mGnF5G9sRPIulE3
eXsJrHcZxzxIe06WftcnQ5suaB0jAWzx8TNgTfdJ4ib2YQD5/jJyJdCaTcxCL6mO
Y669GAanF6xMGHWWo0gJ3OaGozYxNMauUUErVW+rvXFYtFqkFW4x6nyjeOPeJUBS
4ALwm5OJUT+pSfFWh96ODoK2aj/DObyAxrio3W2fHjNhqwVzuLmpPjOA1iglB/Q5
ZpFGBSCLHePZF3X74VFPuuD1EcCW3CLAowglM4+6t9yzGxq2TW3G
-----END CERTIFICATE-----
Certificate:
    Data:
        Version: 3 (0x2)
        Serial Number: 100 (0x64)
        Signature Algorithm: sha256WithRSAEncryption
        Issuer: C = US, ST = Washington, L = Seattle, O = wolfSSL Inc., OU = Engineering, CN = chainH-ICA3-pathlen2, emailAddress = info@wolfssl.com
        Validity
            Not Before: Sep 26 17:22:46 2023 GMT
            Not After : Jun 22 17:22:46 2026 GMT
        Subject: C = US, ST = Washington, L = Seattle, O = wolfSSL Inc., OU = Engineering, CN = chainH-ICA2-pathlen2, emailAddress = info@wolfssl.com
        Subject Public Key Info:
            Public Key Algorithm: rsaEncryption
                Public-Key: (2048 bit)
                Modulus:
                    00:d9:b5:af:4b:ba:83:03:23:df:50:28:a8:c2:0c:
                    2c:f0:04:cb:2d:04:9b:1e:f5:f4:68:bc:d4:8e:b4:
                    cd:46:04:a2:f5:14:9e:3e:33:d6:76:2d:54:f9:d5:
                    41:b5:7a:47:93:1a:54:80:a4:3d:8b:9d:80:ea:1c:
                    3a:3a:bb:d1:d4:b6:f1:f2:a3:bd:9e:5d:b8:85:01:
                    d7:c8:a0:27:f6:67:41:94:c5:95:91:11:cb:96:fc:
                    95:a9:bc:b5:be:58:77:5c:2b:9b:e9:24:7e:8b:6e:
                    10:a7:d5:3a:fa:05:21:27:14:d8:d2:5f:a2:58:12:
                    b4:d9:bd:88:1a:f1:e7:4c:9d:60:31:0b:1f:3f:8b:
                    af:3a:d9:ca:cf:d4:73:1b:b8:b0:3d:d5:96:5d:4e:
                    a3:62:8f:56:eb:3d:4c:f0:21:4f:f4:8c:c7:55:dd:
                    a6:dc:d9:15:a1:12:db:73:4d:bf:18:89:42:92:0e:
                    83:be:4f:aa:ee:8f:a8:ef:a1:27:01:73:16:29:c0:
                    e8:8c:23:c8:ff:95:68:cd:53:67:49:e5:73:b1:ec:
                    62:60:51:20:e8:a6:49:28:f5:2b:16:30:e8:8b:a6:
                    2f:f4:b7:37:99:8c:32:30:97:5d:16:bf:6b:5e:ba:
                    34:1f:d6:1b:2e:fc:79:f0:00:61:aa:a0:7a:2f:7b:
                    d2:83
                Exponent: 65537 (0x10001)
        X509v3 extensions:
            X509v3 Subject Key Identifier: 
                80:49:61:8C:1D:13:08:56:B5:42:68:D5:B2:EA:89:2C:B4:8B:05:87
            X509v3 Authority Key Identifier: 
                keyid:56:54:36:BE:23:2F:20:89:6D:A6:BA:9A:45:A4:88:0E:40:35:FD:F5
                DirName:/C=US/ST=Washington/L=Seattle/O=wolfSSL Inc./OU=Engineering/CN=chainH-ICA4-pathlen2/emailAddress=info@wolfssl.com
                serial:64
            X509v3 Basic Constraints: 
                CA:TRUE, pathlen:2
            X509v3 Key Usage: 
                Certificate Sign, CRL Sign
    Signature Algorithm: sha256WithRSAEncryption
    Signature Value:
        70:ff:31:61:3e:c2:19:7b:80:60:ac:95:63:55:4e:66:27:38:
        ab:7f:86:19:81:be:bf:e2:93:18:c3:95:24:46:bf:a1:13:57:
        ec:75:6f:ba:8a:df:cc:40:fe:e5:ca:28:27:d2:a5:e6:fc:89:
        99:74:d1:3a:cf:5b:a0:b0:61:d0:5b:cc:c8:49:3a:90:eb:92:
        61:73:04:a4:33:01:21:6c:b7:b0:46:13:59:5a:e8:f0:b8:b0:
        5f:9d:9b:f8:8b:72:25:7c:eb:75:88:5a:f7:15:8e:a1:5d:57:
        eb:ac:7e:50:1c:1c:31:b7:04:ed:f0:f4:c7:5d:59:3a:4c:71:
        3f:7f:b1:90:aa:d3:4b:41:db:1e:a6:8d:9a:8e:69:f6:9a:c9:
        c5:75:89:d9:f6:b4:c4:a6:9e:c3:a3:76:07:b3:63:13:f6:6c:
        0d:48:c7:d8:d3:53:ee:f5:28:29:17:97:a6:a7:c1:be:4e:28:
        c7:0b:6a:85:0f:bc:47:84:71:72:15:58:a3:c7:6f:6a:ee:e4:
        ea:67:70:2c:c8:9a:4e:46:24:ab:0c:a1:de:14:74:9b:12:d7:
        91:df:72:7a:cd:d3:00:40:58:3f:b7:d5:31:39:e4:3e:1d:4e:
        90:0f:7f:0a:ba:a9:7e:c0:f7:8e:ff:0d:9f:96:33:ef:db:fb:
        33:0b:62:f7
-----BEGIN CERTIFICATE-----
MIIE0zCCA7ugAwIBAgIBZDANBgkqhkiG9w0BAQsFADCBoTELMAkGA1UEBhMCVVMx
EzARBgNVBAgMCldhc2hpbmd0b24xEDAOBgNVBAcMB1NlYXR0bGUxFTATBgNVBAoM
DHdvbGZTU0wgSW5jLjEUMBIGA1UECwwLRW5naW5lZXJpbmcxHTAbBgNVBAMMFGNo
YWluSC1JQ0EzLXBhdGhsZW4yMR8wHQYJKoZIhvcNAQkBFhBpbmZvQHdvbGZzc2wu
Y29tMB4XDTIzMDkyNjE3MjI0NloXDTI2MDYyMjE3MjI0NlowgaExCzAJBgNVBAYT
AlVTMRMwEQYDVQQIDApXYXNoaW5ndG9uMRAwDgYDVQQHDAdTZWF0dGxlMRUwEwYD
VQQKDAx3b2xmU1NMIEluYy4xFDASBgNVBAsMC0VuZ2luZWVyaW5nMR0wGwYDVQQD
DBRjaGFpbkgtSUNBMi1wYXRobGVuMjEfMB0GCSqGSIb3DQEJARYQaW5mb0B3b2xm
c3NsLmNvbTCCASIwDQYJKoZIhvcNAQEBBQADggEPADCCAQoCggEBANm1r0u6gwMj
31AoqMIMLPAEyy0Emx719Gi81I60zUYEovUUnj4z1nYtVPnVQbV6R5MaVICkPYud
gOocOjq70dS28fKjvZ5duIUB18igJ/ZnQZTFlZERy5b8lam8tb5Yd1wrm+kkfotu
EKfVOvoFIScU2NJfolgStNm9iBrx50ydYDELHz+LrzrZys/Ucxu4sD3Vll1Oo2KP
Vus9TPAhT/SMx1XdptzZFaES23NNvxiJQpIOg75Pqu6PqO+hJwFzFinA6IwjyP+V
aM1TZ0nlc7HsYmBRIOimSSj1KxYw6IumL/S3N5mMMjCXXRa/a166NB/WGy78efAA
Yaqgei970oMCAwEAAaOCARIwggEOMB0GA1UdDgQWBBSASWGMHRMIVrVCaNWy6oks
tIsFhzCBzgYDVR0jBIHGMIHDgBRWVDa+Iy8giW2muppFpIgOQDX99aGBp6SBpDCB
oTELMAkGA1UEBhMCVVMxEzARBgNVBAgMCldhc2hpbmd0b24xEDAOBgNVBAcMB1Nl
YXR0bGUxFTATBgNVBAoMDHdvbGZTU0wgSW5jLjEUMBIGA1UECwwLRW5naW5lZXJp
bmcxHTAbBgNVBAMMFGNoYWluSC1JQ0E0LXBhdGhsZW4yMR8wHQYJKoZIhvcNAQkB
FhBpbmZvQHdvbGZzc2wuY29tggFkMA8GA1UdEwQIMAYBAf8CAQIwCwYDVR0PBAQD
AgEGMA0GCSqGSIb3DQEBCwUAA4IBAQBw/zFhPsIZe4BgrJVjVU5mJzirf4YZgb6/
4pMYw5UkRr+hE1fsdW+6it/MQP7lyign0qXm/ImZdNE6z1ugsGHQW8zISTqQ65Jh
cwSkMwEhbLewRhNZWujwuLBfnZv4i3IlfOt1iFr3FY6hXVfrrH5QHBwxtwTt8PTH
XVk6THE/f7GQqtNLQdsepo2ajmn2msnFdYnZ9rTEpp7Do3YHs2MT9mwNSMfY01Pu
9SgpF5emp8G+TijHC2qFD7xHhHFyFVijx29q7uTqZ3AsyJpORiSrDKHeFHSbEteR
33J6zdMAQFg/t9UxOeQ+HU6QD38Kuql+wPeO/w2fljPv2/szC2L3
-----END CERTIFICATE-----
Certificate:
    Data:
        Version: 3 (0x2)
        Serial Number: 100 (0x64)
        Signature Algorithm: sha256WithRSAEncryption
        Issuer: C = US, ST = Washington, L = Seattle, O = wolfSSL Inc., OU = Engineering, CN = chainH-ICA4-pathlen2, emailAddress = info@wolfssl.com
        Validity
            Not Before: Sep 26 17:22:46 2023 GMT
            Not After : Jun 22 17:22:46 2026 GMT
        Subject: C = US, ST = Washington, L = Seattle, O = wolfSSL Inc., OU = Engineering, CN = chainH-ICA3-pathlen2, emailAddress = info@wolfssl.com
        Subject Public Key Info:
            Public Key Algorithm: rsaEncryption
                Public-Key: (2048 bit)
                Modulus:
                    00:b7:b3:1a:1b:4a:80:1b:a2:e5:95:14:bc:55:e4:
                    77:dc:f3:7b:8a:9f:34:7c:93:db:c9:c9:d0:8b:b8:
                    87:45:65:d3:a1:7d:46:f3:70:92:a9:d7:66:ef:3b:
                    b4:a8:16:b0:f0:be:67:70:aa:45:7b:09:bc:ca:77:
                    db:57:a4:24:54:0b:1a:da:5f:ad:64:a3:f1:49:83:
                    bc:9f:5d:c4:b4:da:43:04:aa:cc:c3:b0:4d:c2:f1:
                    73:c9:38:0d:4c:c9:ab:db:df:09:b3:5c:15:0b:66:
                    79:ad:6c:63:d1:38:cc:a6:2d:46:83:ce:19:1d:c1:
                    0b:6e:fc:38:b7:d8:8c:a2:6f:29:87:9b:21:cd:b0:
                    6b:e0:f8:1f:03:db:82:1d:8d:98:63:16:b6:74:47:
                    43:20:f2:a1:4b:16:8b:67:fd:bc:73:78:9b:f9:dd:
                    ba:49:d9:60:a9:b7:85:66:7f:a4:2a:05:c8:2d:93:
                    a0:9b:aa:bf:a6:31:e1:f2:c8:d3:1b:7b:79:d1:b6:
                    6c:ae:3b:6b:00:2e:6e:ae:10:dc:6c:88:dc:1b:93:
                    e8:56:99:8d:46:7e:49:3a:87:a0:b3:00:cc:2e:3b:
                    83:e1:6b:39:16:71:47:47:30:6d:6b:6c:9c:9f:e6:
                    ce:ec:20:2f:8f:c1:5d:ef:d3:84:32:6c:a5:cc:78:
                    fe:a1
                Exponent: 65537 (0x10001)
        X509v3 extensions:
            X509v3 Subject Key Identifier: 
                56:54:36:BE:23:2F:20:89:6D:A6:BA:9A:45:A4:88:0E:40:35:FD:F5
            X509v3 Authority Key Identifier: 
                keyid:18:6D:44:83:EE:1F:EC:B4:22:F0:9C:EB:54:1E:4A:15:58:01:AA:13
                DirName:/C=US/ST=Montana/L=Bozeman/O=Sawtooth/OU=Consulting/CN=www.wolfssl.com/emailAddress=info@wolfssl.com
                serial:64
            X509v3 Basic Constraints: 
                CA:TRUE, pathlen:2
            X509v3 Key Usage: 
                Certificate Sign, CRL Sign
    Signature Algorithm: sha256WithRSAEncryption
    Signature Value:
        70:f4:6e:df:3b:8c:15:63:b5:d6:3f:69:27:01:e1:59:2b:74:
        5e:53:8e:8a:85:ed:7e:56:c6:30:6d:d2:e9:00:1c:ab:d4:ed:
        82:de:95:6e:16:7a:90:13:93:94:52:f1:45:b7:09:4b:0f:9e:
        ba:ee:f1:39:e2:dd:5e:17:b8:b1:7e:56:d1:9d:24:a6:af:c6:
        fb:26:f6:12:d8:34:70:c9:3c:32:d3:c3:c9:05:e5:b7:c5:2e:
        81:85:74:f7:b7:d8:5d:1e:37:46:e6:00:97:44:28:a5:bb:4c:
        5b:93:db:86:b4:a5:8d:b0:0d:3c:1a:37:8e:40:45:2a:02:fb:
        eb:50:98:e8:ec:46:7d:be:e4:37:cd:e8:02:23:0d:56:64:fa:
        06:b1:a6:f7:be:da:d5:ba:5b:35:1b:f3:c3:c2:c7:38:8b:c0:
        45:57:2c:82:22:26:1f:ea:fd:32:ba:e3:e9:fa:84:e1:a8:f7:
        e4:20:e1:1e:c2:bb:86:b0:bb:72:20:cd:40:04:98:39:43:2b:
        53:d4:c5:3e:69:c2:9c:70:9d:41:b2:3b:e6:4e:fb:01:48:57:
        dd:ff:05:09:e0:1f:af:1a:e2:a7:8e:6f:ee:f1:57:af:d1:17:
        b4:89:0a:7a:a7:5c:97:3d:6c:41:23:cc:d5:fd:3e:4a:0d:88:
        a2:86:50:da
-----BEGIN CERTIFICATE-----
MIIExjCCA66gAwIBAgIBZDANBgkqhkiG9w0BAQsFADCBoTELMAkGA1UEBhMCVVMx
EzARBgNVBAgMCldhc2hpbmd0b24xEDAOBgNVBAcMB1NlYXR0bGUxFTATBgNVBAoM
DHdvbGZTU0wgSW5jLjEUMBIGA1UECwwLRW5naW5lZXJpbmcxHTAbBgNVBAMMFGNo
YWluSC1JQ0E0LXBhdGhsZW4yMR8wHQYJKoZIhvcNAQkBFhBpbmZvQHdvbGZzc2wu
Y29tMB4XDTIzMDkyNjE3MjI0NloXDTI2MDYyMjE3MjI0NlowgaExCzAJBgNVBAYT
AlVTMRMwEQYDVQQIDApXYXNoaW5ndG9uMRAwDgYDVQQHDAdTZWF0dGxlMRUwEwYD
VQQKDAx3b2xmU1NMIEluYy4xFDASBgNVBAsMC0VuZ2luZWVyaW5nMR0wGwYDVQQD
DBRjaGFpbkgtSUNBMy1wYXRobGVuMjEfMB0GCSqGSIb3DQEJARYQaW5mb0B3b2xm
c3NsLmNvbTCCASIwDQYJKoZIhvcNAQEBBQADggEPADCCAQoCggEBALezGhtKgBui
5ZUUvFXkd9zze4qfNHyT28nJ0Iu4h0Vl06F9RvNwkqnXZu87tKgWsPC+Z3CqRXsJ
vMp321ekJFQLGtpfrWSj8UmDvJ9dxLTaQwSqzMOwTcLxc8k4DUzJq9vfCbNcFQtm
ea1sY9E4zKYtRoPOGR3BC278OLfYjKJvKYebIc2wa+D4HwPbgh2NmGMWtnRHQyDy
oUsWi2f9vHN4m/nduknZYKm3hWZ/pCoFyC2ToJuqv6Yx4fLI0xt7edG2bK47awAu
bq4Q3GyI3BuT6FaZjUZ+STqHoLMAzC47g+FrORZxR0cwbWtsnJ/mzuwgL4/BXe/T
hDJspcx4/qECAwEAAaOCAQUwggEBMB0GA1UdDgQWBBRWVDa+Iy8giW2muppFpIgO
QDX99TCBwQYDVR0jBIG5MIG2gBQYbUSD7h/stCLwnOtUHkoVWAGqE6GBmqSBlzCB
lDELMAkGA1UEBhMCVVMxEDAOBgNVBAgMB01vbnRhbmExEDAOBgNVBAcMB0JvemVt
YW4xETAPBgNVBAoMCFNhd3Rvb3RoMRMwEQYDVQQLDApDb25zdWx0aW5nMRgwFgYD
VQQDDA93d3cud29sZnNzbC5jb20xHzAdBgkqhkiG9w0BCQEWEGluZm9Ad29sZnNz
bC5jb22CAWQwDwYDVR0TBAgwBgEB/wIBAjALBgNVHQ8EBAMCAQYwDQYJKoZIhvcN
AQELBQADggEBAHD0bt87jBVjtdY/aScB4VkrdF5TjoqF7X5WxjBt0ukAHKvU7YLe
lW4WepATk5RS8UW3CUsPnrru8Tni3V4XuLF+VtGdJKavxvsm9hLYNHDJPDLTw8kF
5bfFLoGFdPe32F0eN0bmAJdEKKW7TFuT24a0pY2wDTwaN45ARSoC++tQmOjsRn2+
5DfN6AIjDVZk+gaxpve+2tW6WzUb88PCxziLwEVXLIIiJh/q/TK64+n6hOGo9+Qg
4R7Cu4awu3IgzUAEmDlDK1PUxT5pwpxwnUGyO+ZO+wFIV93/BQngH68a4qeOb+7x
V6/RF7SJCnqnXJc9bEEjzNX9PkoNiKKGUNo=
-----END CERTIFICATE-----
Certificate:
    Data:
        Version: 3 (0x2)
        Serial Number: 100 (0x64)
        Signature Algorithm: sha256WithRSAEncryption
        Issuer: C = US, ST = Montana, L = Bozeman, O = Sawtooth, OU = Consulting, CN = www.wolfssl.com, emailAddress = info@wolfssl.com
        Validity
            Not Before: Sep 26 17:22:46 2023 GMT
            Not After : Jun 22 17:22:46 2026 GMT
        Subject: C = US, ST = Washington, L = Seattle, O = wolfSSL Inc., OU = Engineering, CN = chainH-ICA4-pathlen2, emailAddress = info@wolfssl.com
        Subject Public Key Info:
            Public Key Algorithm: rsaEncryption
                Public-Key: (2048 bit)
                Modulus:
                    00:bb:f3:2f:8a:cd:9e:87:f1:01:f3:a4:c0:2d:66:
                    36:d7:11:2e:64:08:e8:f1:99:fa:a6:9c:f4:bd:3b:
                    47:72:d2:0e:58:9d:3e:52:e7:da:a3:43:78:c3:c3:
                    93:e6:04:d3:ab:51:8a:1a:24:0e:7a:62:59:aa:c6:
                    42:9e:66:c1:61:5e:31:b1:4d:dc:37:a9:18:76:8d:
                    fe:cb:09:54:3f:4f:bb:5f:ab:ba:70:e9:b4:a1:5e:
                    a0:69:7e:45:3f:c0:cc:78:e9:f2:74:64:79:c2:6a:
                    16:d0:98:30:82:44:4a:b3:99:2c:66:30:ac:99:82:
                    04:2a:bf:0f:60:89:04:36:fa:29:d3:08:56:61:6a:
                    a8:33:40:9a:53:7d:20:a8:51:6f:9b:a0:d9:3e:dc:
                    9a:8b:1d:37:9e:ad:c9:fd:53:a7:04:dc:1f:36:3e:
                    d3:65:52:84:24:61:d0:4e:e2:41:60:bf:fb:fd:b2:
                    04:b3:3f:eb:14:99:5e:bc:e8:7d:e9:65:d1:3f:fe:
                    04:49:e5:bb:a3:2d:e3:db:96:df:d9:81:a0:32:d7:
                    01:b9:b8:02:8e:b9:a2:1f:0a:d4:24:17:3a:19:0f:
                    6d:3a:10:5f:5c:7d:b8:56:82:c7:7f:40:f0:2d:87:
                    63:c1:b1:d8:64:c7:3c:27:13:4a:63:82:21:b1:f2:
                    39:e9
                Exponent: 65537 (0x10001)
        X509v3 extensions:
            X509v3 Subject Key Identifier: 
                18:6D:44:83:EE:1F:EC:B4:22:F0:9C:EB:54:1E:4A:15:58:01:AA:13
            X509v3 Authority Key Identifier: 
                keyid:27:8E:67:11:74:C3:26:1D:3F:ED:33:63:B3:A4:D8:1D:30:E5:E8:D5
                DirName:/C=US/ST=Montana/L=Bozeman/O=Sawtooth/OU=Consulting/CN=www.wolfssl.com/emailAddress=info@wolfssl.com
                serial:4F:1D:F3:64:BA:21:A8:E6:CB:74:3A:4E:44:A5:E6:79:19:E8:5B:81
            X509v3 Basic Constraints: 
                CA:TRUE, pathlen:2
            X509v3 Key Usage: 
                Certificate Sign, CRL Sign
    Signature Algorithm: sha256WithRSAEncryption
    Signature Value:
        45:e8:44:ff:f2:20:fb:62:9e:5e:37:9d:f1:60:d8:21:df:9a:
        55:5d:92:8a:14:7d:92:14:42:59:3a:79:94:1b:46:f7:03:b6:
        b5:5c:5a:ee:3e:0c:af:7d:3a:6a:eb:a6:0b:ec:c3:68:30:76:
        e8:7b:6d:f3:bb:c3:1e:97:af:e6:86:f0:41:c1:29:a2:3f:79:
        2e:8a:03:0c:fb:5e:a1:19:e6:73:af:c3:b3:cb:7a:34:22:ba:
        a2:6f:51:99:0f:51:ce:2e:53:ec:ff:61:1f:01:be:06:ae:1f:
        3d:6e:a6:6c:b4:72:af:12:52:a7:c6:ba:95:6a:76:44:a4:7c:
        19:26:23:b3:03:1f:c8:0f:f2:0c:b4:35:3b:77:76:c8:19:fc:
        6d:88:2e:d0:4d:2b:74:d4:67:34:fb:17:0c:ae:01:e0:99:fd:
        7e:72:95:75:4a:1d:18:c2:dd:f8:45:f7:6d:9a:57:c4:47:ef:
        98:77:a0:e8:56:93:e7:1e:7c:4a:4a:6f:a3:de:27:20:1b:92:
        0b:b3:bf:9b:b0:d9:ca:a5:4a:9a:c7:63:31:89:94:58:88:98:
        ad:93:cc:57:69:46:36:31:01:3a:db:85:ac:8e:78:a3:a0:08:
        2d:0b:dc:cd:7e:bf:f2:c2:48:8e:bd:33:ab:4b:b5:3f:66:de:
        9f:b1:6b:e6
-----BEGIN CERTIFICATE-----
MIIEzDCCA7SgAwIBAgIBZDANBgkqhkiG9w0BAQsFADCBlDELMAkGA1UEBhMCVVMx
EDAOBgNVBAgMB01vbnRhbmExEDAOBgNVBAcMB0JvemVtYW4xETAPBgNVBAoMCFNh
d3Rvb3RoMRMwEQYDVQQLDApDb25zdWx0aW5nMRgwFgYDVQQDDA93d3cud29sZnNz
bC5jb20xHzAdBgkqhkiG9w0BCQEWEGluZm9Ad29sZnNzbC5jb20wHhcNMjMwOTI2
MTcyMjQ2WhcNMjYwNjIyMTcyMjQ2WjCBoTELMAkGA1UEBhMCVVMxEzARBgNVBAgM
Cldhc2hpbmd0b24xEDAOBgNVBAcMB1NlYXR0bGUxFTATBgNVBAoMDHdvbGZTU0wg
SW5jLjEUMBIGA1UECwwLRW5naW5lZXJpbmcxHTAbBgNVBAMMFGNoYWluSC1JQ0E0
LXBhdGhsZW4yMR8wHQYJKoZIhvcNAQkBFhBpbmZvQHdvbGZzc2wuY29tMIIBIjAN
BgkqhkiG9w0BAQEFAAOCAQ8AMIIBCgKCAQEAu/Mvis2eh/EB86TALWY21xEuZAjo
8Zn6ppz0vTtHctIOWJ0+Uufao0N4w8OT5gTTq1GKGiQOemJZqsZCnmbBYV4xsU3c
N6kYdo3+ywlUP0+7X6u6cOm0oV6gaX5FP8DMeOnydGR5wmoW0JgwgkRKs5ksZjCs
mYIEKr8PYIkENvop0whWYWqoM0CaU30gqFFvm6DZPtyaix03nq3J/VOnBNwfNj7T
ZVKEJGHQTuJBYL/7/bIEsz/rFJlevOh96WXRP/4ESeW7oy3j25bf2YGgMtcBubgC
jrmiHwrUJBc6GQ9tOhBfXH24VoLHf0DwLYdjwbHYZMc8JxNKY4IhsfI56QIDAQAB
o4IBGDCCARQwHQYDVR0OBBYEFBhtRIPuH+y0IvCc61QeShVYAaoTMIHUBgNVHSME
gcwwgcmAFCeOZxF0wyYdP+0zY7Ok2B0w5ejVoYGapIGXMIGUMQswCQYDVQQGEwJV
UzEQMA4GA1UECAwHTW9udGFuYTEQMA4GA1UEBwwHQm96ZW1hbjERMA8GA1UECgwI
U2F3dG9vdGgxEzARBgNVBAsMCkNvbnN1bHRpbmcxGDAWBgNVBAMMD3d3dy53b2xm
c3NsLmNvbTEfMB0GCSqGSIb3DQEJARYQaW5mb0B3b2xmc3NsLmNvbYIUTx3zZLoh
qObLdDpORKXmeRnoW4EwDwYDVR0TBAgwBgEB/wIBAjALBgNVHQ8EBAMCAQYwDQYJ
KoZIhvcNAQELBQADggEBAEXoRP/yIPtinl43nfFg2CHfmlVdkooUfZIUQlk6eZQb
RvcDtrVcWu4+DK99Omrrpgvsw2gwduh7bfO7wx6Xr+aG8EHBKaI/eS6KAwz7XqEZ
5nOvw7PLejQiuqJvUZkPUc4uU+z/YR8BvgauHz1upmy0cq8SUqfGupVqdkSkfBkm
I7MDH8gP8gy0NTt3dsgZ/G2ILtBNK3TUZzT7FwyuAeCZ/X5ylXVKHRjC3fhF922a
V8RH75h3oOhWk+cefEpKb6PeJyAbkguzv5uw2cqlSprHYzGJlFiImK2TzFdpRjYx
ATrbhayOeKOgCC0L3M1+v/LCSI69M6tLtT9m3p+xa+Y=
-----END CERTIFICATE-----
