Certificate:
    Data:
        Version: 3 (0x2)
        Serial Number: 100 (0x64)
        Signature Algorithm: sha256WithRSAEncryption
        Issuer: C=US, ST=Washington, L=Seattle, O=wolfSSL Inc., OU=Engineering, CN=chainG-ICA4-pathlen5, emailAddress=info@wolfssl.com
        Validity
            Not Before: Nov 13 20:41:45 2025 GMT
            Not After : Aug  9 20:41:45 2028 GMT
        Subject: C=US, ST=Washington, L=Seattle, O=wolfSSL Inc., OU=Engineering, CN=chainG-ICA3-pathlen99, emailAddress=info@wolfssl.com
        Subject Public Key Info:
            Public Key Algorithm: rsaEncryption
                Public-Key: (2048 bit)
                Modulus:
                    00:ac:f1:39:65:f7:9c:9d:f6:f0:d2:b7:18:16:24:
                    81:32:b7:a5:29:d6:f7:4e:31:38:a7:54:d6:eb:07:
                    97:27:a1:92:e0:c1:3a:b5:93:06:17:ef:a7:74:f8:
                    9b:42:97:0c:d6:d3:d4:36:c9:61:ef:92:4c:3e:c4:
                    74:08:d6:19:2a:cd:9b:f1:6f:e8:c8:67:9f:28:54:
                    99:ce:63:1a:87:56:99:36:31:65:05:c5:d6:97:cf:
                    51:e4:2d:3d:74:14:31:d3:c3:05:fc:0e:7c:93:57:
                    cd:f7:c4:97:d7:5c:65:75:e7:35:85:81:27:eb:9a:
                    9f:d7:a2:bc:28:41:a8:ce:92:3a:10:b9:35:28:83:
                    dc:b0:27:cc:6e:20:03:60:13:23:22:b4:3c:25:58:
                    ae:a1:b2:24:d1:21:8b:b9:f0:28:84:ae:e6:00:cc:
                    cb:9b:78:8c:fa:4b:ed:73:7a:91:05:f9:fb:6e:34:
                    3b:7e:af:f9:45:9e:a0:d5:62:bb:d8:cd:95:9e:a2:
                    90:72:27:e0:3e:b9:b0:5e:0a:b2:e4:55:95:03:0c:
                    a6:66:44:65:db:0a:9f:90:5a:d3:81:c7:e2:3e:f2:
                    b0:9a:e0:05:1c:de:64:04:c2:7e:ca:7e:df:a1:f6:
                    18:e5:94:d3:74:fb:a5:1f:2d:77:cd:6e:5e:55:a3:
                    80:cb
                Exponent: 65537 (0x10001)
        X509v3 extensions:
            X509v3 Subject Key Identifier: 
                C1:CD:1F:81:13:82:24:3B:CF:64:51:7A:4C:E3:65:2E:75:1E:01:23
            X509v3 Authority Key Identifier: 
                keyid:D4:92:AE:BD:3B:1C:66:4B:17:88:18:15:F8:27:AB:38:CC:07:5A:65
                DirName:/C=US/ST=Washington/L=Seattle/O=wolfSSL Inc./OU=Engineering/CN=chainG-ICA5-pathlen20/emailAddress=info@wolfssl.com
                serial:64
            X509v3 Basic Constraints: 
                CA:TRUE, pathlen:99
            X509v3 Key Usage: 
                Certificate Sign, CRL Sign
    Signature Algorithm: sha256WithRSAEncryption
    Signature Value:
        9a:85:17:61:66:92:a4:9b:be:85:58:1b:41:f7:89:c6:1e:1b:
        79:10:ea:52:a5:52:d0:03:70:bc:7f:dc:77:f8:42:97:0f:37:
        71:7f:fd:35:cf:35:6a:48:fe:2a:34:2c:dc:0a:2e:88:ac:f3:
        b8:e4:7e:c0:6c:ab:28:ed:8f:6f:0b:b1:52:3d:e7:bc:62:2a:
        fa:05:52:35:83:98:2f:dd:5f:5f:e3:34:3b:09:18:66:ef:2a:
        89:db:c4:c5:eb:03:25:b7:55:55:09:11:e1:40:55:cb:54:c1:
        43:2c:c9:94:a9:bf:bc:c8:c4:4f:14:38:19:72:8b:49:5c:22:
        57:d8:92:3e:03:fc:cd:19:76:ab:96:60:e9:7d:02:8f:63:e2:
        fb:93:c0:84:17:87:9d:77:e0:1e:68:68:92:05:52:56:c4:1e:
        45:ac:5c:d1:43:ea:b5:d1:ee:c8:78:cd:37:2b:8d:c6:85:90:
        54:d8:09:62:fa:59:cd:48:dd:77:8d:ca:ca:d5:0a:34:0b:4c:
        64:95:51:8e:4f:b7:f8:e3:82:c6:ef:b9:6d:3f:fe:36:62:72:
        4e:98:34:7f:a1:8b:33:38:2b:2c:49:63:53:ae:b6:a9:71:06:
        bd:23:b8:ad:a4:fc:bf:27:69:88:43:6d:42:2f:b4:fc:c1:53:
        d9:87:c8:2e
-----BEGIN CERTIFICATE-----
MIIE1TCCA72gAwIBAgIBZDANBgkqhkiG9w0BAQsFADCBoTELMAkGA1UEBhMCVVMx
EzARBgNVBAgMCldhc2hpbmd0b24xEDAOBgNVBAcMB1NlYXR0bGUxFTATBgNVBAoM
DHdvbGZTU0wgSW5jLjEUMBIGA1UECwwLRW5naW5lZXJpbmcxHTAbBgNVBAMMFGNo
YWluRy1JQ0E0LXBhdGhsZW41MR8wHQYJKoZIhvcNAQkBFhBpbmZvQHdvbGZzc2wu
Y29tMB4XDTI1MTExMzIwNDE0NVoXDTI4MDgwOTIwNDE0NVowgaIxCzAJBgNVBAYT
AlVTMRMwEQYDVQQIDApXYXNoaW5ndG9uMRAwDgYDVQQHDAdTZWF0dGxlMRUwEwYD
VQQKDAx3b2xmU1NMIEluYy4xFDASBgNVBAsMC0VuZ2luZWVyaW5nMR4wHAYDVQQD
DBVjaGFpbkctSUNBMy1wYXRobGVuOTkxHzAdBgkqhkiG9w0BCQEWEGluZm9Ad29s
ZnNzbC5jb20wggEiMA0GCSqGSIb3DQEBAQUAA4IBDwAwggEKAoIBAQCs8Tll95yd
9vDStxgWJIEyt6Up1vdOMTinVNbrB5cnoZLgwTq1kwYX76d0+JtClwzW09Q2yWHv
kkw+xHQI1hkqzZvxb+jIZ58oVJnOYxqHVpk2MWUFxdaXz1HkLT10FDHTwwX8DnyT
V833xJfXXGV15zWFgSfrmp/XorwoQajOkjoQuTUog9ywJ8xuIANgEyMitDwlWK6h
siTRIYu58CiEruYAzMubeIz6S+1zepEF+ftuNDt+r/lFnqDVYrvYzZWeopByJ+A+
ubBeCrLkVZUDDKZmRGXbCp+QWtOBx+I+8rCa4AUc3mQEwn7Kft+h9hjllNN0+6Uf
LXfNbl5Vo4DLAgMBAAGjggETMIIBDzAdBgNVHQ4EFgQUwc0fgROCJDvPZFF6TONl
LnUeASMwgc8GA1UdIwSBxzCBxIAU1JKuvTscZksXiBgV+CerOMwHWmWhgaikgaUw
gaIxCzAJBgNVBAYTAlVTMRMwEQYDVQQIDApXYXNoaW5ndG9uMRAwDgYDVQQHDAdT
ZWF0dGxlMRUwEwYDVQQKDAx3b2xmU1NMIEluYy4xFDASBgNVBAsMC0VuZ2luZWVy
aW5nMR4wHAYDVQQDDBVjaGFpbkctSUNBNS1wYXRobGVuMjAxHzAdBgkqhkiG9w0B
CQEWEGluZm9Ad29sZnNzbC5jb22CAWQwDwYDVR0TBAgwBgEB/wIBYzALBgNVHQ8E
BAMCAQYwDQYJKoZIhvcNAQELBQADggEBAJqFF2FmkqSbvoVYG0H3icYeG3kQ6lKl
UtADcLx/3Hf4QpcPN3F//TXPNWpI/io0LNwKLois87jkfsBsqyjtj28LsVI957xi
KvoFUjWDmC/dX1/jNDsJGGbvKonbxMXrAyW3VVUJEeFAVctUwUMsyZSpv7zIxE8U
OBlyi0lcIlfYkj4D/M0ZdquWYOl9Ao9j4vuTwIQXh5134B5oaJIFUlbEHkWsXNFD
6rXR7sh4zTcrjcaFkFTYCWL6Wc1I3XeNysrVCjQLTGSVUY5Pt/jjgsbvuW0//jZi
ck6YNH+hizM4KyxJY1OutqlxBr0juK2k/L8naYhDbUIvtPzBU9mHyC4=
-----END CERTIFICATE-----
