Certificate:
    Data:
        Version: 3 (0x2)
        Serial Number: 100 (0x64)
        Signature Algorithm: sha256WithRSAEncryption
        Issuer: C = US, ST = Montana, L = Bozeman, O = Sawtooth, OU = Consulting, CN = www.wolfssl.com, emailAddress = info@wolfssl.com
        Validity
            Not Before: Dec 18 21:25:33 2024 GMT
            Not After : Sep 14 21:25:33 2027 GMT
        Subject: C = US, ST = Washington, L = Seattle, O = wolfSSL Inc., OU = Engineering, CN = chainC-ICA1-pathlen1, emailAddress = info@wolfssl.com
        Subject Public Key Info:
            Public Key Algorithm: rsaEncryption
                Public-Key: (2048 bit)
                Modulus:
                    00:bb:1a:6c:c1:bd:bb:9b:29:ca:35:3d:63:a3:29:
                    cd:a6:65:c4:9e:a3:c5:50:99:ad:51:90:0a:9a:9b:
                    83:ce:be:06:bb:66:4f:ef:1e:31:25:34:6f:5f:98:
                    ae:01:49:c3:63:17:84:b9:7a:6d:c0:d8:fd:0c:ff:
                    9a:02:4c:41:37:49:f0:18:63:1b:4f:fc:37:26:4e:
                    54:79:d7:17:39:50:79:6e:a3:29:99:07:ad:9d:5c:
                    d8:e1:02:e7:33:7e:e4:da:a4:05:bc:62:03:d3:9f:
                    6a:91:92:66:dd:29:d0:95:fb:2f:3f:f0:59:b8:70:
                    5b:25:54:7b:a0:0a:9f:33:09:64:ed:fb:d4:1c:2d:
                    96:54:45:e3:50:98:ff:b1:7f:9a:c6:cf:09:a3:da:
                    e9:57:ad:1d:05:8f:1e:75:75:e7:d2:07:33:de:da:
                    7d:42:d8:0e:94:fe:ae:c7:9b:c3:b5:9e:f3:6b:21:
                    9f:74:c4:b3:32:7c:28:4e:0f:bc:15:33:ba:9c:09:
                    3c:c1:40:06:78:bb:b1:20:3f:61:15:f6:1e:49:73:
                    51:89:95:2d:95:bf:34:d6:c2:a9:d1:34:1d:8d:21:
                    6d:4f:a3:6e:ef:fc:23:a2:76:fc:d0:25:53:0e:43:
                    76:3b:ed:82:ec:d8:23:cb:33:ef:3c:9d:a1:de:e6:
                    7a:ad
                Exponent: 65537 (0x10001)
        X509v3 extensions:
            X509v3 Subject Key Identifier: 
                94:1D:2E:07:37:C6:2F:52:C1:EC:79:6B:13:CE:09:90:5F:F4:C4:51
            X509v3 Authority Key Identifier: 
                keyid:27:8E:67:11:74:C3:26:1D:3F:ED:33:63:B3:A4:D8:1D:30:E5:E8:D5
                DirName:/C=US/ST=Montana/L=Bozeman/O=Sawtooth/OU=Consulting/CN=www.wolfssl.com/emailAddress=info@wolfssl.com
                serial:6B:9B:70:C6:F1:A3:94:65:19:A1:08:58:EF:A7:8D:2B:7A:83:C1:DA
            X509v3 Basic Constraints: 
                CA:TRUE, pathlen:1
            X509v3 Key Usage: 
                Certificate Sign, CRL Sign
    Signature Algorithm: sha256WithRSAEncryption
    Signature Value:
        6d:59:5b:3f:de:5d:19:6a:78:bd:c6:8e:07:7b:74:8b:0c:06:
        4c:0d:4a:b1:38:76:fd:98:f0:36:34:92:43:49:5e:e7:6c:ab:
        d2:db:2c:89:03:2f:4b:d1:b7:26:9b:ec:e4:26:b6:02:ec:8c:
        0d:81:d4:ce:e7:c8:31:29:f2:bd:20:17:48:49:f1:4a:dd:4a:
        38:d5:4a:59:d4:14:25:ab:3f:7d:36:f0:56:86:1f:49:06:de:
        28:18:fc:f8:2a:6f:79:f2:d1:c8:10:48:67:5e:ab:38:6a:7c:
        23:d4:e9:e7:c5:e8:3a:81:c1:95:c1:bd:78:e8:df:bc:b9:cb:
        52:e8:65:77:df:65:6c:85:b6:84:71:03:59:15:95:7c:ce:63:
        2c:a8:1f:5d:58:88:5d:51:b3:95:be:91:e8:c5:52:c5:f7:9c:
        82:16:47:1b:68:05:ed:2e:bf:76:16:e7:f7:2c:d8:df:f8:23:
        a4:90:38:e6:39:27:0e:7e:0a:68:3d:2c:65:f6:42:06:ca:55:
        9f:66:fb:4a:44:7c:1b:e6:75:2b:ba:fd:fe:19:05:96:f9:0b:
        22:f7:9a:82:c2:e1:10:67:c4:3a:26:f9:cb:c2:a5:b8:5c:e3:
        6a:34:84:4a:7a:84:ab:ef:8e:be:e1:e4:40:66:fd:9b:b7:af:
        40:ee:60:09
-----BEGIN CERTIFICATE-----
MIIEzDCCA7SgAwIBAgIBZDANBgkqhkiG9w0BAQsFADCBlDELMAkGA1UEBhMCVVMx
EDAOBgNVBAgMB01vbnRhbmExEDAOBgNVBAcMB0JvemVtYW4xETAPBgNVBAoMCFNh
d3Rvb3RoMRMwEQYDVQQLDApDb25zdWx0aW5nMRgwFgYDVQQDDA93d3cud29sZnNz
bC5jb20xHzAdBgkqhkiG9w0BCQEWEGluZm9Ad29sZnNzbC5jb20wHhcNMjQxMjE4
MjEyNTMzWhcNMjcwOTE0MjEyNTMzWjCBoTELMAkGA1UEBhMCVVMxEzARBgNVBAgM
Cldhc2hpbmd0b24xEDAOBgNVBAcMB1NlYXR0bGUxFTATBgNVBAoMDHdvbGZTU0wg
SW5jLjEUMBIGA1UECwwLRW5naW5lZXJpbmcxHTAbBgNVBAMMFGNoYWluQy1JQ0Ex
LXBhdGhsZW4xMR8wHQYJKoZIhvcNAQkBFhBpbmZvQHdvbGZzc2wuY29tMIIBIjAN
BgkqhkiG9w0BAQEFAAOCAQ8AMIIBCgKCAQEAuxpswb27mynKNT1joynNpmXEnqPF
UJmtUZAKmpuDzr4Gu2ZP7x4xJTRvX5iuAUnDYxeEuXptwNj9DP+aAkxBN0nwGGMb
T/w3Jk5UedcXOVB5bqMpmQetnVzY4QLnM37k2qQFvGID059qkZJm3SnQlfsvP/BZ
uHBbJVR7oAqfMwlk7fvUHC2WVEXjUJj/sX+axs8Jo9rpV60dBY8edXXn0gcz3tp9
QtgOlP6ux5vDtZ7zayGfdMSzMnwoTg+8FTO6nAk8wUAGeLuxID9hFfYeSXNRiZUt
lb801sKp0TQdjSFtT6Nu7/wjonb80CVTDkN2O+2C7NgjyzPvPJ2h3uZ6rQIDAQAB
o4IBGDCCARQwHQYDVR0OBBYEFJQdLgc3xi9Swex5axPOCZBf9MRRMIHUBgNVHSME
gcwwgcmAFCeOZxF0wyYdP+0zY7Ok2B0w5ejVoYGapIGXMIGUMQswCQYDVQQGEwJV
UzEQMA4GA1UECAwHTW9udGFuYTEQMA4GA1UEBwwHQm96ZW1hbjERMA8GA1UECgwI
U2F3dG9vdGgxEzARBgNVBAsMCkNvbnN1bHRpbmcxGDAWBgNVBAMMD3d3dy53b2xm
c3NsLmNvbTEfMB0GCSqGSIb3DQEJARYQaW5mb0B3b2xmc3NsLmNvbYIUa5twxvGj
lGUZoQhY76eNK3qDwdowDwYDVR0TBAgwBgEB/wIBATALBgNVHQ8EBAMCAQYwDQYJ
KoZIhvcNAQELBQADggEBAG1ZWz/eXRlqeL3Gjgd7dIsMBkwNSrE4dv2Y8DY0kkNJ
Xudsq9LbLIkDL0vRtyab7OQmtgLsjA2B1M7nyDEp8r0gF0hJ8UrdSjjVSlnUFCWr
P3028FaGH0kG3igY/Pgqb3ny0cgQSGdeqzhqfCPU6efF6DqBwZXBvXjo37y5y1Lo
ZXffZWyFtoRxA1kVlXzOYyyoH11YiF1Rs5W+kejFUsX3nIIWRxtoBe0uv3YW5/cs
2N/4I6SQOOY5Jw5+Cmg9LGX2QgbKVZ9m+0pEfBvmdSu6/f4ZBZb5CyL3moLC4RBn
xDom+cvCpbhc42o0hEp6hKvvjr7h5EBm/Zu3r0DuYAk=
-----END CERTIFICATE-----
