Certificate:
    Data:
        Version: 3 (0x2)
        Serial Number: 100 (0x64)
        Signature Algorithm: sha256WithRSAEncryption
        Issuer: C=US, ST=Washington, L=Seattle, O=wolfSSL Inc., OU=Engineering, CN=chainI-ICA2-no_pathlen, emailAddress=facts@wolfssl.com
        Validity
            Not Before: Jun 11 21:44:40 2026 GMT
            Not After : Mar  7 21:44:40 2029 GMT
        Subject: C=US, ST=Washington, L=Seattle, O=wolfSSL Inc., OU=Engineering, CN=chainI-ICA1-no_pathlen, emailAddress=facts@wolfssl.com
        Subject Public Key Info:
            Public Key Algorithm: rsaEncryption
                Public-Key: (2048 bit)
                Modulus:
                    00:bb:ba:06:ad:13:cf:da:fb:d1:cb:65:fe:26:58:
                    49:6a:01:14:a6:78:b2:2c:1d:ba:ba:d0:bd:27:38:
                    66:7c:a0:1b:28:08:3c:6a:fd:f8:87:be:49:a2:ed:
                    38:f2:4c:b0:8b:93:ff:d2:c5:3f:cd:03:c5:14:79:
                    e8:76:63:7a:aa:a7:54:1e:0e:27:bd:1b:be:e8:3f:
                    2b:55:40:f0:59:23:d8:3f:e8:05:1a:0b:71:f0:fd:
                    24:d9:f9:0b:99:25:da:af:96:34:ee:e1:91:cb:fc:
                    8f:a0:41:8f:9c:e1:4f:57:5f:b6:d6:55:69:6f:c3:
                    64:c3:11:a9:69:40:85:df:f3:9a:59:b5:ee:90:c0:
                    22:ee:72:28:2e:d3:da:65:27:3b:ba:42:c0:9e:73:
                    ba:a2:f2:45:13:7a:c5:1d:30:a5:b7:db:75:5d:6f:
                    cc:08:77:80:67:8d:18:2a:ca:02:8d:8e:d3:9c:2a:
                    fa:b7:8f:1b:7d:ef:62:77:a4:fa:b6:d8:5a:3e:66:
                    9c:3e:13:45:a8:cf:61:fb:ff:41:45:14:21:e2:63:
                    ac:81:4d:65:89:e3:d5:71:20:01:19:76:ec:a4:16:
                    a6:ef:3c:bc:f2:a2:56:2b:07:31:67:0d:e5:97:88:
                    e8:db:cb:4d:98:cb:99:e6:e0:bd:62:48:2b:b1:04:
                    12:07
                Exponent: 65537 (0x10001)
        X509v3 extensions:
            X509v3 Subject Key Identifier: 
                9E:54:B6:95:EA:89:07:A6:C9:E4:82:E8:D0:34:64:5D:08:CD:56:A0
            X509v3 Authority Key Identifier: 
                keyid:D1:BA:FB:FF:1D:29:41:8A:6A:5F:B2:F3:A7:41:05:47:09:1F:48:42
                DirName:/C=US/ST=Washington/L=Seattle/O=wolfSSL Inc./OU=Engineering/CN=chainI-ICA3-pathlen2/emailAddress=facts@wolfssl.com
                serial:64
            X509v3 Basic Constraints: 
                CA:TRUE
            X509v3 Key Usage: 
                Certificate Sign, CRL Sign
    Signature Algorithm: sha256WithRSAEncryption
    Signature Value:
        06:c7:3c:72:e1:94:e4:ef:bf:eb:54:91:5e:22:00:a1:46:30:
        bb:c4:9c:64:39:73:f3:9c:71:82:df:78:47:7e:64:80:bd:fb:
        91:06:cc:9e:63:5a:1b:cc:86:90:a3:34:94:34:e5:99:d4:b3:
        1e:7a:9a:b8:a8:77:9a:5f:cc:6e:94:87:79:b6:dc:5e:25:ec:
        81:59:ca:23:84:fc:06:26:4d:ca:1e:22:ef:39:dc:a6:23:77:
        5d:ba:de:1c:de:19:02:8a:1a:f5:fe:0d:5e:7b:b0:2f:57:b6:
        a9:c3:ef:46:7d:ad:f0:19:9c:b9:5c:71:52:0f:69:22:a0:b5:
        45:c9:97:88:95:fd:32:90:fc:7e:52:1a:b9:1f:d5:95:83:91:
        a2:e6:0c:5e:d1:86:0a:8e:0b:b2:10:2c:84:0a:ed:2c:4f:4c:
        53:35:56:10:7a:c4:81:97:6f:7d:5f:e1:1e:00:ed:c8:7b:31:
        bd:91:3b:e3:eb:29:c1:2e:34:e2:a8:66:b2:55:bd:69:b1:cf:
        c6:c0:18:f1:e9:f9:b7:6f:2f:f5:d8:6b:69:7e:a6:c1:51:19:
        10:bc:e4:67:94:44:4f:cd:ed:7e:e9:f7:b2:ce:67:3d:aa:5e:
        c2:f3:d5:6a:7e:20:aa:18:a0:5f:67:f9:7c:6e:12:c7:11:91:
        22:4e:7e:64
-----BEGIN CERTIFICATE-----
MIIE1zCCA7+gAwIBAgIBZDANBgkqhkiG9w0BAQsFADCBpDELMAkGA1UEBhMCVVMx
EzARBgNVBAgMCldhc2hpbmd0b24xEDAOBgNVBAcMB1NlYXR0bGUxFTATBgNVBAoM
DHdvbGZTU0wgSW5jLjEUMBIGA1UECwwLRW5naW5lZXJpbmcxHzAdBgNVBAMMFmNo
YWluSS1JQ0EyLW5vX3BhdGhsZW4xIDAeBgkqhkiG9w0BCQEWEWZhY3RzQHdvbGZz
c2wuY29tMB4XDTI2MDYxMTIxNDQ0MFoXDTI5MDMwNzIxNDQ0MFowgaQxCzAJBgNV
BAYTAlVTMRMwEQYDVQQIDApXYXNoaW5ndG9uMRAwDgYDVQQHDAdTZWF0dGxlMRUw
EwYDVQQKDAx3b2xmU1NMIEluYy4xFDASBgNVBAsMC0VuZ2luZWVyaW5nMR8wHQYD
VQQDDBZjaGFpbkktSUNBMS1ub19wYXRobGVuMSAwHgYJKoZIhvcNAQkBFhFmYWN0
c0B3b2xmc3NsLmNvbTCCASIwDQYJKoZIhvcNAQEBBQADggEPADCCAQoCggEBALu6
Bq0Tz9r70ctl/iZYSWoBFKZ4siwdurrQvSc4ZnygGygIPGr9+Ie+SaLtOPJMsIuT
/9LFP80DxRR56HZjeqqnVB4OJ70bvug/K1VA8Fkj2D/oBRoLcfD9JNn5C5kl2q+W
NO7hkcv8j6BBj5zhT1dfttZVaW/DZMMRqWlAhd/zmlm17pDAIu5yKC7T2mUnO7pC
wJ5zuqLyRRN6xR0wpbfbdV1vzAh3gGeNGCrKAo2O05wq+rePG33vYnek+rbYWj5m
nD4TRajPYfv/QUUUIeJjrIFNZYnj1XEgARl27KQWpu88vPKiVisHMWcN5ZeI6NvL
TZjLmebgvWJIK7EEEgcCAwEAAaOCARAwggEMMB0GA1UdDgQWBBSeVLaV6okHpsnk
gujQNGRdCM1WoDCBzwYDVR0jBIHHMIHEgBTRuvv/HSlBimpfsvOnQQVHCR9IQqGB
qKSBpTCBojELMAkGA1UEBhMCVVMxEzARBgNVBAgMCldhc2hpbmd0b24xEDAOBgNV
BAcMB1NlYXR0bGUxFTATBgNVBAoMDHdvbGZTU0wgSW5jLjEUMBIGA1UECwwLRW5n
aW5lZXJpbmcxHTAbBgNVBAMMFGNoYWluSS1JQ0EzLXBhdGhsZW4yMSAwHgYJKoZI
hvcNAQkBFhFmYWN0c0B3b2xmc3NsLmNvbYIBZDAMBgNVHRMEBTADAQH/MAsGA1Ud
DwQEAwIBBjANBgkqhkiG9w0BAQsFAAOCAQEABsc8cuGU5O+/61SRXiIAoUYwu8Sc
ZDlz85xxgt94R35kgL37kQbMnmNaG8yGkKM0lDTlmdSzHnqauKh3ml/MbpSHebbc
XiXsgVnKI4T8BiZNyh4i7zncpiN3XbreHN4ZAooa9f4NXnuwL1e2qcPvRn2t8Bmc
uVxxUg9pIqC1RcmXiJX9MpD8flIauR/VlYORouYMXtGGCo4LshAshArtLE9MUzVW
EHrEgZdvfV/hHgDtyHsxvZE74+spwS404qhmslW9abHPxsAY8en5t28v9dhraX6m
wVEZELzkZ5RET83tfun3ss5nPapewvPVan4gqhigX2f5fG4SxxGRIk5+ZA==
-----END CERTIFICATE-----
