Certificate:
    Data:
        Version: 3 (0x2)
        Serial Number: 100 (0x64)
        Signature Algorithm: sha256WithRSAEncryption
        Issuer: C=US, ST=Washington, L=Seattle, O=wolfSSL Inc., OU=Engineering, CN=chainG-ICA2-pathlen1, emailAddress=facts@wolfssl.com
        Validity
            Not Before: Jun 11 21:44:39 2026 GMT
            Not After : Mar  7 21:44:39 2029 GMT
        Subject: C=US, ST=Washington, L=Seattle, O=wolfSSL Inc., OU=Engineering, CN=chainG-ICA1-pathlen0, emailAddress=facts@wolfssl.com
        Subject Public Key Info:
            Public Key Algorithm: rsaEncryption
                Public-Key: (2048 bit)
                Modulus:
                    00:d2:26:be:51:98:42:e0:1f:ae:fc:c2:cb:ba:d5:
                    0f:44:3b:0b:60:d8:49:ec:03:43:6b:06:ce:f2:28:
                    19:fb:48:9c:0b:5c:7f:00:a3:22:9f:bc:e9:2a:5b:
                    e4:e1:16:d8:9c:b9:c3:0b:30:e3:1c:83:7d:c0:b9:
                    a4:3f:da:38:ec:8b:38:be:45:c4:a7:1d:c1:68:18:
                    28:19:b0:f2:93:06:3a:bd:23:67:aa:05:89:31:3b:
                    c2:b4:5e:b3:12:cb:3b:f3:9c:d6:df:4c:ed:cb:42:
                    1b:25:80:2d:ab:c4:67:8f:a5:ff:da:6c:f1:18:fd:
                    a1:98:8c:d8:1f:67:6c:28:c7:cb:4e:bb:b0:27:ea:
                    25:b1:5d:73:d0:2a:e9:44:50:b9:f5:65:64:e6:cf:
                    3d:92:d8:c0:6d:ed:96:8e:e2:d3:84:70:d0:db:fe:
                    70:63:44:fa:f8:db:35:d1:95:ad:18:95:21:64:ce:
                    e2:23:7e:5e:6c:2f:ef:a7:63:fe:82:4a:cb:cc:23:
                    cf:9d:26:a5:66:ed:9c:06:7e:70:76:03:72:99:db:
                    fa:be:a5:c3:38:8b:40:24:c1:6b:d7:9c:bb:27:86:
                    22:a9:62:e0:b2:bd:e7:b5:e4:81:ea:64:db:18:16:
                    24:62:81:6c:a8:f2:83:3f:af:3b:b5:fd:b0:d8:84:
                    b2:21
                Exponent: 65537 (0x10001)
        X509v3 extensions:
            X509v3 Subject Key Identifier: 
                47:C0:19:4B:ED:C4:DA:97:B1:60:EA:5A:0A:42:6D:A5:D3:D8:25:31
            X509v3 Authority Key Identifier: 
                keyid:E1:E6:9B:28:CF:FD:AB:45:C1:B7:A7:C4:C9:58:FC:41:E3:1A:5C:74
                DirName:/C=US/ST=Washington/L=Seattle/O=wolfSSL Inc./OU=Engineering/CN=chainG-ICA3-pathlen99/emailAddress=facts@wolfssl.com
                serial:64
            X509v3 Basic Constraints: 
                CA:TRUE, pathlen:0
            X509v3 Key Usage: 
                Certificate Sign, CRL Sign
    Signature Algorithm: sha256WithRSAEncryption
    Signature Value:
        62:6b:20:20:ac:39:aa:04:94:ea:42:c5:ea:8d:3f:e0:96:f4:
        29:e4:77:76:05:f0:be:43:42:e1:04:a0:15:d2:3f:cd:2d:55:
        6e:89:83:bd:25:b7:5f:03:77:44:0e:72:1b:c3:91:12:4f:dc:
        66:f9:99:83:d5:f8:aa:2d:e1:78:a9:c5:e7:2a:3e:58:af:18:
        90:76:33:ee:29:0c:7a:a9:00:c5:05:0d:5a:b3:97:49:9f:2b:
        81:8a:c9:16:9c:6a:78:1d:3f:67:82:c9:ac:c0:f6:5f:18:d7:
        f7:a1:ce:49:9a:65:38:ac:31:b7:b6:e4:c4:40:d0:1a:dd:45:
        87:79:ac:c1:4f:f3:46:b7:0e:6b:b5:49:0c:91:b9:8a:55:89:
        4a:11:95:4e:14:0a:2e:40:e4:76:a1:b8:79:1c:cd:c9:5c:2a:
        93:ec:7f:86:c5:a4:41:55:26:6c:26:11:f8:70:95:26:cb:20:
        4f:ca:cd:c4:8d:bc:0f:f7:0b:8b:9a:be:2a:c3:a5:b2:a9:76:
        0a:d4:65:73:1c:55:bd:76:05:ea:de:04:e2:9e:09:ea:dc:87:
        cb:07:44:e6:f8:74:db:50:39:2b:b4:ac:a6:fe:1c:90:3f:9e:
        48:1f:c6:62:2e:5f:35:c4:fa:ee:c9:ef:91:91:55:44:4b:61:
        fc:da:2b:f1
-----BEGIN CERTIFICATE-----
MIIE1zCCA7+gAwIBAgIBZDANBgkqhkiG9w0BAQsFADCBojELMAkGA1UEBhMCVVMx
EzARBgNVBAgMCldhc2hpbmd0b24xEDAOBgNVBAcMB1NlYXR0bGUxFTATBgNVBAoM
DHdvbGZTU0wgSW5jLjEUMBIGA1UECwwLRW5naW5lZXJpbmcxHTAbBgNVBAMMFGNo
YWluRy1JQ0EyLXBhdGhsZW4xMSAwHgYJKoZIhvcNAQkBFhFmYWN0c0B3b2xmc3Ns
LmNvbTAeFw0yNjA2MTEyMTQ0MzlaFw0yOTAzMDcyMTQ0MzlaMIGiMQswCQYDVQQG
EwJVUzETMBEGA1UECAwKV2FzaGluZ3RvbjEQMA4GA1UEBwwHU2VhdHRsZTEVMBMG
A1UECgwMd29sZlNTTCBJbmMuMRQwEgYDVQQLDAtFbmdpbmVlcmluZzEdMBsGA1UE
AwwUY2hhaW5HLUlDQTEtcGF0aGxlbjAxIDAeBgkqhkiG9w0BCQEWEWZhY3RzQHdv
bGZzc2wuY29tMIIBIjANBgkqhkiG9w0BAQEFAAOCAQ8AMIIBCgKCAQEA0ia+UZhC
4B+u/MLLutUPRDsLYNhJ7ANDawbO8igZ+0icC1x/AKMin7zpKlvk4RbYnLnDCzDj
HIN9wLmkP9o47Is4vkXEpx3BaBgoGbDykwY6vSNnqgWJMTvCtF6zEss785zW30zt
y0IbJYAtq8Rnj6X/2mzxGP2hmIzYH2dsKMfLTruwJ+olsV1z0CrpRFC59WVk5s89
ktjAbe2WjuLThHDQ2/5wY0T6+Ns10ZWtGJUhZM7iI35ebC/vp2P+gkrLzCPPnSal
Zu2cBn5wdgNymdv6vqXDOItAJMFr15y7J4YiqWLgsr3nteSB6mTbGBYkYoFsqPKD
P687tf2w2ISyIQIDAQABo4IBFDCCARAwHQYDVR0OBBYEFEfAGUvtxNqXsWDqWgpC
baXT2CUxMIHQBgNVHSMEgcgwgcWAFOHmmyjP/atFwbenxMlY/EHjGlx0oYGppIGm
MIGjMQswCQYDVQQGEwJVUzETMBEGA1UECAwKV2FzaGluZ3RvbjEQMA4GA1UEBwwH
U2VhdHRsZTEVMBMGA1UECgwMd29sZlNTTCBJbmMuMRQwEgYDVQQLDAtFbmdpbmVl
cmluZzEeMBwGA1UEAwwVY2hhaW5HLUlDQTMtcGF0aGxlbjk5MSAwHgYJKoZIhvcN
AQkBFhFmYWN0c0B3b2xmc3NsLmNvbYIBZDAPBgNVHRMECDAGAQH/AgEAMAsGA1Ud
DwQEAwIBBjANBgkqhkiG9w0BAQsFAAOCAQEAYmsgIKw5qgSU6kLF6o0/4Jb0KeR3
dgXwvkNC4QSgFdI/zS1VbomDvSW3XwN3RA5yG8OREk/cZvmZg9X4qi3heKnF5yo+
WK8YkHYz7ikMeqkAxQUNWrOXSZ8rgYrJFpxqeB0/Z4LJrMD2XxjX96HOSZplOKwx
t7bkxEDQGt1Fh3mswU/zRrcOa7VJDJG5ilWJShGVThQKLkDkdqG4eRzNyVwqk+x/
hsWkQVUmbCYR+HCVJssgT8rNxI28D/cLi5q+KsOlsql2CtRlcxxVvXYF6t4E4p4J
6tyHywdE5vh021A5K7Sspv4ckD+eSB/GYi5fNcT67snvkZFVREth/Nor8Q==
-----END CERTIFICATE-----
