Certificate:
    Data:
        Version: 3 (0x2)
        Serial Number: 100 (0x64)
        Signature Algorithm: sha256WithRSAEncryption
        Issuer: C=US, ST=Washington, L=Seattle, O=wolfSSL Inc., OU=Engineering, CN=chainF-ICA2-pathlen0, emailAddress=info@wolfssl.com
        Validity
            Not Before: Nov 13 20:41:43 2025 GMT
            Not After : Aug  9 20:41:43 2028 GMT
        Subject: C=US, ST=Washington, L=Seattle, O=wolfSSL Inc., OU=Engineering, CN=chainF-ICA1-pathlen1, emailAddress=info@wolfssl.com
        Subject Public Key Info:
            Public Key Algorithm: rsaEncryption
                Public-Key: (2048 bit)
                Modulus:
                    00:e0:13:c9:b0:8e:9d:3f:88:d4:30:4a:b4:e8:11:
                    21:93:5c:20:45:08:f8:7a:91:b9:2c:ad:ff:60:aa:
                    16:9f:1c:bb:88:b8:3d:0a:39:c1:89:a9:76:ca:8e:
                    6c:72:72:7e:6e:74:a6:36:2c:69:df:33:d6:e9:66:
                    70:65:7f:ba:2a:44:17:62:9f:33:46:12:e6:03:a5:
                    a6:e2:5c:09:07:cf:bc:8d:76:fe:a0:fd:d7:72:4a:
                    94:c8:ca:2f:95:91:9c:0a:77:7f:82:23:be:72:27:
                    29:45:cd:41:cf:ec:e1:84:cf:67:d0:18:98:b9:31:
                    be:c9:fe:98:5d:3f:aa:d2:83:76:45:85:ab:08:86:
                    63:58:5b:b3:e5:4a:43:3d:a1:99:e2:80:d1:2b:b2:
                    06:e3:f0:10:85:f9:a6:36:b8:52:2b:9d:73:3b:34:
                    23:51:3d:fe:56:2f:e9:39:b2:68:07:3e:6f:52:7b:
                    f4:40:d4:72:fa:69:19:ca:ff:22:c8:45:95:05:5e:
                    91:08:3f:27:2d:41:d1:74:a5:06:9c:f3:40:bd:bb:
                    fc:65:63:86:ed:80:22:50:c1:f6:4f:dc:8f:43:4c:
                    5e:fb:bf:d9:6d:1f:b4:84:0f:1e:e8:c6:5d:c5:53:
                    d5:2c:c9:7f:6b:98:93:a7:5d:35:9a:17:62:91:2e:
                    20:c1
                Exponent: 65537 (0x10001)
        X509v3 extensions:
            X509v3 Subject Key Identifier: 
                75:32:21:05:2B:60:FE:44:17:AF:18:65:86:85:19:82:3F:F9:64:83
            X509v3 Authority Key Identifier: 
                keyid:4A:53:4A:B7:30:78:35:91:B4:CB:DD:C8:22:74:89:AF:80:0F:7F:68
                DirName:/C=US/ST=Montana/L=Bozeman/O=Sawtooth/OU=Consulting/CN=www.wolfssl.com/emailAddress=info@wolfssl.com
                serial:64
            X509v3 Basic Constraints: 
                CA:TRUE, pathlen:1
            X509v3 Key Usage: 
                Certificate Sign, CRL Sign
    Signature Algorithm: sha256WithRSAEncryption
    Signature Value:
        1c:c5:4b:ac:d2:56:47:91:98:6c:73:71:ae:42:2e:3a:b5:90:
        52:bb:75:75:93:02:21:24:f5:11:fb:a0:90:68:38:27:49:33:
        20:a5:b1:8a:a8:e9:42:82:1e:57:27:5f:b8:69:3d:aa:59:f1:
        71:3d:09:e0:54:e5:03:2a:94:5d:e3:9d:0e:5b:e2:70:6d:84:
        e9:b3:35:fc:21:22:04:a5:c5:a0:b2:2c:cc:0b:6e:98:3b:e3:
        76:0f:7b:cd:fd:44:7a:b1:63:7c:69:52:95:dd:47:38:cd:d0:
        85:9b:14:bb:10:4c:72:15:8c:b6:e1:59:c6:bc:a7:eb:cd:7b:
        90:3f:e5:76:12:89:1e:e7:f0:ef:a6:b5:51:2b:56:06:e1:72:
        a2:a9:4c:f2:8e:1c:76:d0:a9:0e:c2:d5:ca:f9:d4:a4:0a:8b:
        e7:52:9c:98:e2:9c:ec:35:74:f0:12:88:2e:0c:95:7f:4a:a4:
        56:98:b3:75:70:18:75:cf:57:23:b5:26:8b:21:2e:b0:57:12:
        05:f0:a0:b0:35:3a:72:85:f4:1f:bf:5b:c4:be:2e:d3:d9:f3:
        e4:a3:7a:fd:3d:cd:ed:69:c7:8c:2d:f8:b8:38:68:48:eb:52:
        ad:82:bc:45:dd:8e:d1:ef:0c:f4:bb:3e:3a:3d:99:16:90:75:
        dc:7b:02:04
-----BEGIN CERTIFICATE-----
MIIExjCCA66gAwIBAgIBZDANBgkqhkiG9w0BAQsFADCBoTELMAkGA1UEBhMCVVMx
EzARBgNVBAgMCldhc2hpbmd0b24xEDAOBgNVBAcMB1NlYXR0bGUxFTATBgNVBAoM
DHdvbGZTU0wgSW5jLjEUMBIGA1UECwwLRW5naW5lZXJpbmcxHTAbBgNVBAMMFGNo
YWluRi1JQ0EyLXBhdGhsZW4wMR8wHQYJKoZIhvcNAQkBFhBpbmZvQHdvbGZzc2wu
Y29tMB4XDTI1MTExMzIwNDE0M1oXDTI4MDgwOTIwNDE0M1owgaExCzAJBgNVBAYT
AlVTMRMwEQYDVQQIDApXYXNoaW5ndG9uMRAwDgYDVQQHDAdTZWF0dGxlMRUwEwYD
VQQKDAx3b2xmU1NMIEluYy4xFDASBgNVBAsMC0VuZ2luZWVyaW5nMR0wGwYDVQQD
DBRjaGFpbkYtSUNBMS1wYXRobGVuMTEfMB0GCSqGSIb3DQEJARYQaW5mb0B3b2xm
c3NsLmNvbTCCASIwDQYJKoZIhvcNAQEBBQADggEPADCCAQoCggEBAOATybCOnT+I
1DBKtOgRIZNcIEUI+HqRuSyt/2CqFp8cu4i4PQo5wYmpdsqObHJyfm50pjYsad8z
1ulmcGV/uipEF2KfM0YS5gOlpuJcCQfPvI12/qD913JKlMjKL5WRnAp3f4IjvnIn
KUXNQc/s4YTPZ9AYmLkxvsn+mF0/qtKDdkWFqwiGY1hbs+VKQz2hmeKA0SuyBuPw
EIX5pja4Uiudczs0I1E9/lYv6TmyaAc+b1J79EDUcvppGcr/IshFlQVekQg/Jy1B
0XSlBpzzQL27/GVjhu2AIlDB9k/cj0NMXvu/2W0ftIQPHujGXcVT1SzJf2uYk6dd
NZoXYpEuIMECAwEAAaOCAQUwggEBMB0GA1UdDgQWBBR1MiEFK2D+RBevGGWGhRmC
P/lkgzCBwQYDVR0jBIG5MIG2gBRKU0q3MHg1kbTL3cgidImvgA9/aKGBmqSBlzCB
lDELMAkGA1UEBhMCVVMxEDAOBgNVBAgMB01vbnRhbmExEDAOBgNVBAcMB0JvemVt
YW4xETAPBgNVBAoMCFNhd3Rvb3RoMRMwEQYDVQQLDApDb25zdWx0aW5nMRgwFgYD
VQQDDA93d3cud29sZnNzbC5jb20xHzAdBgkqhkiG9w0BCQEWEGluZm9Ad29sZnNz
bC5jb22CAWQwDwYDVR0TBAgwBgEB/wIBATALBgNVHQ8EBAMCAQYwDQYJKoZIhvcN
AQELBQADggEBABzFS6zSVkeRmGxzca5CLjq1kFK7dXWTAiEk9RH7oJBoOCdJMyCl
sYqo6UKCHlcnX7hpPapZ8XE9CeBU5QMqlF3jnQ5b4nBthOmzNfwhIgSlxaCyLMwL
bpg743YPe839RHqxY3xpUpXdRzjN0IWbFLsQTHIVjLbhWca8p+vNe5A/5XYSiR7n
8O+mtVErVgbhcqKpTPKOHHbQqQ7C1cr51KQKi+dSnJjinOw1dPASiC4MlX9KpFaY
s3VwGHXPVyO1JoshLrBXEgXwoLA1OnKF9B+/W8S+LtPZ8+Sjev09ze1px4wt+Lg4
aEjrUq2CvEXdjtHvDPS7Pjo9mRaQddx7AgQ=
-----END CERTIFICATE-----
