Certificate:
    Data:
        Version: 3 (0x2)
        Serial Number: 100 (0x64)
        Signature Algorithm: sha256WithRSAEncryption
        Issuer: C=US, ST=Montana, L=Bozeman, O=Sawtooth, OU=Consulting, CN=www.wolfssl.com, emailAddress=info@wolfssl.com
        Validity
            Not Before: Nov 13 20:41:44 2025 GMT
            Not After : Aug  9 20:41:44 2028 GMT
        Subject: C=US, ST=Washington, L=Seattle, O=wolfSSL Inc., OU=Engineering, CN=chainG-ICA7-pathlen100, emailAddress=info@wolfssl.com
        Subject Public Key Info:
            Public Key Algorithm: rsaEncryption
                Public-Key: (2048 bit)
                Modulus:
                    00:d6:8c:d6:c4:29:20:60:9d:15:3d:0c:2a:fb:24:
                    2f:38:89:ed:37:c4:fc:57:67:2a:50:d8:eb:e2:6a:
                    1c:59:06:f2:6d:3e:b9:4f:fe:49:c5:21:c0:16:f8:
                    29:6f:51:0c:ea:78:d7:0e:15:41:da:5a:cb:0b:e0:
                    54:d6:83:fd:0f:e8:4e:30:ff:e4:44:c3:b2:02:f3:
                    7d:3a:c6:5c:4e:86:86:2c:74:d4:21:85:c1:fe:4e:
                    8b:07:3c:54:1b:54:9e:ec:5a:a5:95:ed:5a:35:e0:
                    08:c6:84:7c:e6:ae:71:12:d2:fd:c1:fd:16:0a:3a:
                    b8:c7:23:4b:af:e0:cd:12:5e:9f:4f:62:13:f0:c8:
                    e4:e2:a8:01:d3:37:b0:08:21:d3:0f:6c:e4:d8:c1:
                    04:51:e9:4c:c5:b1:6d:cc:63:23:97:30:ee:f0:1e:
                    ab:6d:ea:93:ca:ad:56:6f:1e:ed:1a:ae:8c:1b:91:
                    04:ea:ab:9d:1b:3b:56:a7:c1:cc:2f:39:2f:b3:ba:
                    8c:16:fd:5e:10:10:9e:24:ea:40:97:74:b6:b4:e5:
                    1c:c0:d3:5f:79:2c:04:43:3a:8e:f4:b1:56:bd:c7:
                    25:63:5c:34:50:4d:bd:2d:f1:08:bd:8c:3e:d2:6f:
                    fa:e4:04:a1:51:eb:d0:d0:90:91:97:7b:46:c6:10:
                    92:af
                Exponent: 65537 (0x10001)
        X509v3 extensions:
            X509v3 Subject Key Identifier: 
                12:E4:A4:19:85:AE:85:B7:D6:EB:63:04:D5:B9:B0:7E:57:5F:0C:16
            X509v3 Authority Key Identifier: 
                keyid:27:8E:67:11:74:C3:26:1D:3F:ED:33:63:B3:A4:D8:1D:30:E5:E8:D5
                DirName:/C=US/ST=Montana/L=Bozeman/O=Sawtooth/OU=Consulting/CN=www.wolfssl.com/emailAddress=info@wolfssl.com
                serial:3F:29:11:20:57:71:E7:8E:F9:18:0D:CA:70:4D:5B:15:2A:43:D6:24
            X509v3 Basic Constraints: 
                CA:TRUE, pathlen:100
            X509v3 Key Usage: 
                Certificate Sign, CRL Sign
    Signature Algorithm: sha256WithRSAEncryption
    Signature Value:
        28:15:64:1f:13:ae:55:1f:20:92:f0:4a:e1:46:34:20:d7:3b:
        a0:a6:65:72:03:ac:fe:15:27:c0:4d:0c:a3:af:75:dc:33:38:
        2b:a6:d7:c6:eb:8b:03:dd:4f:5f:6c:11:59:73:9d:41:ea:1d:
        a8:99:28:ea:cc:24:77:41:8a:4f:f9:65:26:58:6d:5b:fc:17:
        6b:04:14:e0:db:0d:15:79:66:bd:d0:f0:da:4a:15:bb:0c:e1:
        36:61:d3:52:45:14:44:2f:32:0e:c2:a3:e0:44:f8:bc:33:b8:
        e0:c8:92:d3:88:71:72:68:0d:b6:bd:2c:cc:07:27:1a:37:fb:
        28:02:f8:64:46:1a:30:e2:66:f0:e4:4e:0b:f6:86:38:0b:b5:
        4a:de:d1:6b:3b:1a:c7:35:04:c2:c7:cb:59:e6:da:a3:7e:df:
        55:5d:6f:de:7a:2e:31:2b:64:d0:69:96:c7:b2:64:8f:26:b0:
        93:a4:3b:28:dc:4a:1e:08:5e:bf:f6:f7:8c:bd:5d:cc:53:6b:
        80:2c:48:2b:8a:88:09:00:09:42:e8:35:84:ea:3d:f8:17:95:
        95:cb:59:1a:30:42:f0:bb:38:cc:d2:79:10:d4:ab:fe:a7:67:
        04:ef:61:aa:cd:11:ce:04:18:d0:9c:c1:e3:11:c9:6a:bb:41:
        f1:53:ed:9d
-----BEGIN CERTIFICATE-----
MIIEzjCCA7agAwIBAgIBZDANBgkqhkiG9w0BAQsFADCBlDELMAkGA1UEBhMCVVMx
EDAOBgNVBAgMB01vbnRhbmExEDAOBgNVBAcMB0JvemVtYW4xETAPBgNVBAoMCFNh
d3Rvb3RoMRMwEQYDVQQLDApDb25zdWx0aW5nMRgwFgYDVQQDDA93d3cud29sZnNz
bC5jb20xHzAdBgkqhkiG9w0BCQEWEGluZm9Ad29sZnNzbC5jb20wHhcNMjUxMTEz
MjA0MTQ0WhcNMjgwODA5MjA0MTQ0WjCBozELMAkGA1UEBhMCVVMxEzARBgNVBAgM
Cldhc2hpbmd0b24xEDAOBgNVBAcMB1NlYXR0bGUxFTATBgNVBAoMDHdvbGZTU0wg
SW5jLjEUMBIGA1UECwwLRW5naW5lZXJpbmcxHzAdBgNVBAMMFmNoYWluRy1JQ0E3
LXBhdGhsZW4xMDAxHzAdBgkqhkiG9w0BCQEWEGluZm9Ad29sZnNzbC5jb20wggEi
MA0GCSqGSIb3DQEBAQUAA4IBDwAwggEKAoIBAQDWjNbEKSBgnRU9DCr7JC84ie03
xPxXZypQ2OviahxZBvJtPrlP/knFIcAW+ClvUQzqeNcOFUHaWssL4FTWg/0P6E4w
/+REw7IC8306xlxOhoYsdNQhhcH+TosHPFQbVJ7sWqWV7Vo14AjGhHzmrnES0v3B
/RYKOrjHI0uv4M0SXp9PYhPwyOTiqAHTN7AIIdMPbOTYwQRR6UzFsW3MYyOXMO7w
Hqtt6pPKrVZvHu0arowbkQTqq50bO1anwcwvOS+zuowW/V4QEJ4k6kCXdLa05RzA
0195LARDOo70sVa9xyVjXDRQTb0t8Qi9jD7Sb/rkBKFR69DQkJGXe0bGEJKvAgMB
AAGjggEYMIIBFDAdBgNVHQ4EFgQUEuSkGYWuhbfW62ME1bmwfldfDBYwgdQGA1Ud
IwSBzDCByYAUJ45nEXTDJh0/7TNjs6TYHTDl6NWhgZqkgZcwgZQxCzAJBgNVBAYT
AlVTMRAwDgYDVQQIDAdNb250YW5hMRAwDgYDVQQHDAdCb3plbWFuMREwDwYDVQQK
DAhTYXd0b290aDETMBEGA1UECwwKQ29uc3VsdGluZzEYMBYGA1UEAwwPd3d3Lndv
bGZzc2wuY29tMR8wHQYJKoZIhvcNAQkBFhBpbmZvQHdvbGZzc2wuY29tghQ/KREg
V3HnjvkYDcpwTVsVKkPWJDAPBgNVHRMECDAGAQH/AgFkMAsGA1UdDwQEAwIBBjAN
BgkqhkiG9w0BAQsFAAOCAQEAKBVkHxOuVR8gkvBK4UY0INc7oKZlcgOs/hUnwE0M
o6913DM4K6bXxuuLA91PX2wRWXOdQeodqJko6swkd0GKT/llJlhtW/wXawQU4NsN
FXlmvdDw2koVuwzhNmHTUkUURC8yDsKj4ET4vDO44MiS04hxcmgNtr0szAcnGjf7
KAL4ZEYaMOJm8OROC/aGOAu1St7RazsaxzUEwsfLWebao37fVV1v3nouMStk0GmW
x7Jkjyawk6Q7KNxKHghev/b3jL1dzFNrgCxIK4qICQAJQug1hOo9+BeVlctZGjBC
8Ls4zNJ5ENSr/qdnBO9hqs0RzgQY0JzB4xHJartB8VPtnQ==
-----END CERTIFICATE-----
