Certificate:
    Data:
        Version: 3 (0x2)
        Serial Number: 100 (0x64)
        Signature Algorithm: sha256WithRSAEncryption
        Issuer: C = US, ST = Washington, L = Seattle, O = wolfSSL Inc., OU = Engineering, CN = chainI-ICA2-no_pathlen, emailAddress = info@wolfssl.com
        Validity
            Not Before: Feb 15 12:50:26 2022 GMT
            Not After : Nov 11 12:50:26 2024 GMT
        Subject: C = US, ST = Washington, L = Seattle, O = wolfSSL Inc., OU = Engineering, CN = chainI-ICA1-no_pathlen, emailAddress = info@wolfssl.com
        Subject Public Key Info:
            Public Key Algorithm: rsaEncryption
                RSA Public-Key: (2048 bit)
                Modulus:
                    00:bb:ba:06:ad:13:cf:da:fb:d1:cb:65:fe:26:58:
                    49:6a:01:14:a6:78:b2:2c:1d:ba:ba:d0:bd:27:38:
                    66:7c:a0:1b:28:08:3c:6a:fd:f8:87:be:49:a2:ed:
                    38:f2:4c:b0:8b:93:ff:d2:c5:3f:cd:03:c5:14:79:
                    e8:76:63:7a:aa:a7:54:1e:0e:27:bd:1b:be:e8:3f:
                    2b:55:40:f0:59:23:d8:3f:e8:05:1a:0b:71:f0:fd:
                    24:d9:f9:0b:99:25:da:af:96:34:ee:e1:91:cb:fc:
                    8f:a0:41:8f:9c:e1:4f:57:5f:b6:d6:55:69:6f:c3:
                    64:c3:11:a9:69:40:85:df:f3:9a:59:b5:ee:90:c0:
                    22:ee:72:28:2e:d3:da:65:27:3b:ba:42:c0:9e:73:
                    ba:a2:f2:45:13:7a:c5:1d:30:a5:b7:db:75:5d:6f:
                    cc:08:77:80:67:8d:18:2a:ca:02:8d:8e:d3:9c:2a:
                    fa:b7:8f:1b:7d:ef:62:77:a4:fa:b6:d8:5a:3e:66:
                    9c:3e:13:45:a8:cf:61:fb:ff:41:45:14:21:e2:63:
                    ac:81:4d:65:89:e3:d5:71:20:01:19:76:ec:a4:16:
                    a6:ef:3c:bc:f2:a2:56:2b:07:31:67:0d:e5:97:88:
                    e8:db:cb:4d:98:cb:99:e6:e0:bd:62:48:2b:b1:04:
                    12:07
                Exponent: 65537 (0x10001)
        X509v3 extensions:
            X509v3 Subject Key Identifier: 
                9E:54:B6:95:EA:89:07:A6:C9:E4:82:E8:D0:34:64:5D:08:CD:56:A0
            X509v3 Authority Key Identifier: 
                keyid:D1:BA:FB:FF:1D:29:41:8A:6A:5F:B2:F3:A7:41:05:47:09:1F:48:42
                DirName:/C=US/ST=Washington/L=Seattle/O=wolfSSL Inc./OU=Engineering/CN=chainI-ICA3-pathlen2/emailAddress=info@wolfssl.com
                serial:64

            X509v3 Basic Constraints: 
                CA:TRUE
            X509v3 Key Usage: 
                Certificate Sign, CRL Sign
    Signature Algorithm: sha256WithRSAEncryption
         91:41:68:b4:35:9a:1d:0d:ad:64:ab:dc:03:7b:22:ed:59:f0:
         1f:85:12:e3:e6:c9:d7:df:e3:02:7b:eb:44:11:a7:db:6c:45:
         46:c1:fd:34:4c:18:1d:47:38:59:88:0e:8d:77:c2:10:32:9b:
         5b:b1:28:c8:4c:04:92:98:26:be:36:6b:4b:c2:77:70:a2:01:
         f7:16:8c:0f:db:8b:ff:4b:87:1f:ee:f8:69:10:9a:b1:d7:9d:
         bf:81:81:9d:d4:24:26:7a:81:fc:6e:02:6a:d8:eb:c3:14:34:
         05:ea:87:d9:9b:cd:44:49:58:f6:66:d7:ac:38:bd:2d:5d:7d:
         22:8a:a8:35:e3:c0:15:d6:0c:57:82:94:a7:98:49:0d:a1:a4:
         8b:c5:ec:4e:dd:5e:f1:72:03:96:86:97:42:a2:17:c9:13:84:
         f6:39:b8:d4:0f:23:75:54:15:ca:f3:16:2c:7e:a1:bb:04:92:
         e8:31:8a:2b:44:5d:a7:7e:7d:75:40:ce:ae:84:3f:41:63:93:
         d2:9c:cf:38:b0:f8:cd:b8:21:fe:6f:8e:93:c0:18:1a:01:ed:
         6e:29:9a:6a:88:4c:99:c1:50:e2:4c:24:50:2e:76:5b:76:ad:
         7c:c6:82:24:1d:0b:33:c1:b7:ff:46:b5:d4:a8:8b:b8:a5:0b:
         f5:d1:fe:fe
-----BEGIN CERTIFICATE-----
MIIE1DCCA7ygAwIBAgIBZDANBgkqhkiG9w0BAQsFADCBozELMAkGA1UEBhMCVVMx
EzARBgNVBAgMCldhc2hpbmd0b24xEDAOBgNVBAcMB1NlYXR0bGUxFTATBgNVBAoM
DHdvbGZTU0wgSW5jLjEUMBIGA1UECwwLRW5naW5lZXJpbmcxHzAdBgNVBAMMFmNo
YWluSS1JQ0EyLW5vX3BhdGhsZW4xHzAdBgkqhkiG9w0BCQEWEGluZm9Ad29sZnNz
bC5jb20wHhcNMjIwMjE1MTI1MDI2WhcNMjQxMTExMTI1MDI2WjCBozELMAkGA1UE
BhMCVVMxEzARBgNVBAgMCldhc2hpbmd0b24xEDAOBgNVBAcMB1NlYXR0bGUxFTAT
BgNVBAoMDHdvbGZTU0wgSW5jLjEUMBIGA1UECwwLRW5naW5lZXJpbmcxHzAdBgNV
BAMMFmNoYWluSS1JQ0ExLW5vX3BhdGhsZW4xHzAdBgkqhkiG9w0BCQEWEGluZm9A
d29sZnNzbC5jb20wggEiMA0GCSqGSIb3DQEBAQUAA4IBDwAwggEKAoIBAQC7ugat
E8/a+9HLZf4mWElqARSmeLIsHbq60L0nOGZ8oBsoCDxq/fiHvkmi7TjyTLCLk//S
xT/NA8UUeeh2Y3qqp1QeDie9G77oPytVQPBZI9g/6AUaC3Hw/STZ+QuZJdqvljTu
4ZHL/I+gQY+c4U9XX7bWVWlvw2TDEalpQIXf85pZte6QwCLucigu09plJzu6QsCe
c7qi8kUTesUdMKW323Vdb8wId4BnjRgqygKNjtOcKvq3jxt972J3pPq22Fo+Zpw+
E0Woz2H7/0FFFCHiY6yBTWWJ49VxIAEZduykFqbvPLzyolYrBzFnDeWXiOjby02Y
y5nm4L1iSCuxBBIHAgMBAAGjggEPMIIBCzAdBgNVHQ4EFgQUnlS2leqJB6bJ5ILo
0DRkXQjNVqAwgc4GA1UdIwSBxjCBw4AU0br7/x0pQYpqX7Lzp0EFRwkfSEKhgaek
gaQwgaExCzAJBgNVBAYTAlVTMRMwEQYDVQQIDApXYXNoaW5ndG9uMRAwDgYDVQQH
DAdTZWF0dGxlMRUwEwYDVQQKDAx3b2xmU1NMIEluYy4xFDASBgNVBAsMC0VuZ2lu
ZWVyaW5nMR0wGwYDVQQDDBRjaGFpbkktSUNBMy1wYXRobGVuMjEfMB0GCSqGSIb3
DQEJARYQaW5mb0B3b2xmc3NsLmNvbYIBZDAMBgNVHRMEBTADAQH/MAsGA1UdDwQE
AwIBBjANBgkqhkiG9w0BAQsFAAOCAQEAkUFotDWaHQ2tZKvcA3si7VnwH4US4+bJ
19/jAnvrRBGn22xFRsH9NEwYHUc4WYgOjXfCEDKbW7EoyEwEkpgmvjZrS8J3cKIB
9xaMD9uL/0uHH+74aRCasdedv4GBndQkJnqB/G4CatjrwxQ0BeqH2ZvNRElY9mbX
rDi9LV19IoqoNePAFdYMV4KUp5hJDaGki8XsTt1e8XIDloaXQqIXyROE9jm41A8j
dVQVyvMWLH6huwSS6DGKK0Rdp359dUDOroQ/QWOT0pzPOLD4zbgh/m+Ok8AYGgHt
bimaaohMmcFQ4kwkUC52W3atfMaCJB0LM8G3/0a11KiLuKUL9dH+/g==
-----END CERTIFICATE-----
