Certificate:
    Data:
        Version: 3 (0x2)
        Serial Number: 101 (0x65)
        Signature Algorithm: sha256WithRSAEncryption
        Issuer: C=US, ST=Washington, L=Seattle, O=wolfSSL Inc., OU=Engineering, CN=chainG-ICA1-pathlen0, emailAddress=facts@wolfssl.com
        Validity
            Not Before: Jun 11 21:44:39 2026 GMT
            Not After : Mar  7 21:44:39 2029 GMT
        Subject: C=US, ST=Washington, L=Seattle, O=wolfSSL Inc., OU=Engineering, CN=chainG-entity, emailAddress=facts@wolfssl.com
        Subject Public Key Info:
            Public Key Algorithm: rsaEncryption
                Public-Key: (2048 bit)
                Modulus:
                    00:bb:7b:82:23:a2:34:e7:cb:89:4e:64:cc:f2:98:
                    c8:65:8f:e2:69:55:54:4b:3c:8b:c0:1f:67:37:7f:
                    09:cb:9e:df:5e:75:f6:99:83:12:ac:15:23:cf:64:
                    a4:10:16:a5:10:af:28:86:00:20:4e:f3:4d:fd:08:
                    fb:a1:a7:18:4c:13:1e:4d:90:2e:e6:9a:e3:28:03:
                    b4:f4:83:ce:fd:a2:a9:86:56:02:62:33:9f:6e:98:
                    7e:0f:cc:06:71:31:8a:93:d2:d9:a3:1d:08:7a:92:
                    f8:7e:bf:90:5f:a1:e6:2b:64:58:bb:a6:9a:c9:19:
                    97:fd:c9:a9:f7:08:27:8a:f3:be:e2:db:88:25:84:
                    91:13:06:e2:63:bc:e1:37:82:7e:6f:5a:da:f0:e2:
                    eb:a1:2a:8f:5d:52:11:af:e2:f5:89:42:79:83:b8:
                    c0:a5:95:dc:42:c6:1c:90:51:1e:33:f3:f1:c2:e4:
                    d2:7b:87:c3:64:90:b7:5f:9b:38:ef:d2:d0:4f:d5:
                    51:aa:e0:3a:d1:c3:01:03:e7:32:b1:27:c6:48:5a:
                    c0:ac:26:8d:94:61:76:f8:98:ff:30:6d:aa:55:c3:
                    63:fd:a4:a4:1b:3c:6b:e8:05:75:41:17:5d:ad:c9:
                    17:9b:c3:4d:6e:9f:7d:7d:36:fe:c0:a3:99:d6:e5:
                    92:ad
                Exponent: 65537 (0x10001)
        X509v3 extensions:
            X509v3 Subject Key Identifier: 
                21:3A:72:3B:95:38:DF:99:DE:62:25:21:D0:14:81:6E:CA:AA:FB:A1
            X509v3 Authority Key Identifier: 
                keyid:47:C0:19:4B:ED:C4:DA:97:B1:60:EA:5A:0A:42:6D:A5:D3:D8:25:31
                DirName:/C=US/ST=Washington/L=Seattle/O=wolfSSL Inc./OU=Engineering/CN=chainG-ICA2-pathlen1/emailAddress=facts@wolfssl.com
                serial:64
            X509v3 Basic Constraints: 
                CA:FALSE
    Signature Algorithm: sha256WithRSAEncryption
    Signature Value:
        94:a1:fc:85:1a:f3:6c:6f:08:35:7e:14:81:db:94:0f:1d:d6:
        6b:44:44:c6:97:24:46:ee:8c:20:88:f1:b2:e3:f3:95:f7:87:
        00:7f:42:21:ce:28:e5:ac:03:43:20:c0:b4:dc:53:5e:5d:b4:
        45:15:85:1f:7f:7c:d1:0f:24:1d:1a:9d:93:31:b3:1f:47:0b:
        b5:ce:a7:9b:4a:a0:92:f0:d4:1b:9c:29:f1:a2:35:d3:a7:3d:
        bf:d4:f8:b2:92:5d:fa:fb:27:a1:ad:5c:a7:1d:c7:82:be:92:
        5a:84:fd:91:23:b7:cb:41:73:43:73:ad:ed:13:ac:06:e8:b8:
        a9:9e:9c:73:c4:80:ef:89:08:12:0d:6b:12:91:34:d6:84:d2:
        f4:05:f7:be:5e:5f:5b:3e:82:07:81:a9:d4:d3:72:32:0b:cf:
        4c:90:da:ed:87:aa:f3:61:3b:d0:74:25:3e:c8:36:6e:fe:0c:
        bc:9d:17:f0:e9:d6:25:f4:ad:f6:c3:61:89:c0:80:9a:21:6d:
        48:7c:84:c4:c2:31:41:1f:a1:aa:0a:bd:10:3e:fb:80:83:0a:
        89:85:d7:33:b0:c5:01:ca:a3:ba:92:d0:3a:f1:e1:81:22:9d:
        00:d4:d0:c2:4d:34:cf:4d:40:0f:85:d7:0a:0b:ce:50:e0:8e:
        73:ff:c6:ce
-----BEGIN CERTIFICATE-----
MIIEujCCA6KgAwIBAgIBZTANBgkqhkiG9w0BAQsFADCBojELMAkGA1UEBhMCVVMx
EzARBgNVBAgMCldhc2hpbmd0b24xEDAOBgNVBAcMB1NlYXR0bGUxFTATBgNVBAoM
DHdvbGZTU0wgSW5jLjEUMBIGA1UECwwLRW5naW5lZXJpbmcxHTAbBgNVBAMMFGNo
YWluRy1JQ0ExLXBhdGhsZW4wMSAwHgYJKoZIhvcNAQkBFhFmYWN0c0B3b2xmc3Ns
LmNvbTAeFw0yNjA2MTEyMTQ0MzlaFw0yOTAzMDcyMTQ0MzlaMIGbMQswCQYDVQQG
EwJVUzETMBEGA1UECAwKV2FzaGluZ3RvbjEQMA4GA1UEBwwHU2VhdHRsZTEVMBMG
A1UECgwMd29sZlNTTCBJbmMuMRQwEgYDVQQLDAtFbmdpbmVlcmluZzEWMBQGA1UE
AwwNY2hhaW5HLWVudGl0eTEgMB4GCSqGSIb3DQEJARYRZmFjdHNAd29sZnNzbC5j
b20wggEiMA0GCSqGSIb3DQEBAQUAA4IBDwAwggEKAoIBAQC7e4IjojTny4lOZMzy
mMhlj+JpVVRLPIvAH2c3fwnLnt9edfaZgxKsFSPPZKQQFqUQryiGACBO8039CPuh
pxhMEx5NkC7mmuMoA7T0g879oqmGVgJiM59umH4PzAZxMYqT0tmjHQh6kvh+v5Bf
oeYrZFi7pprJGZf9yan3CCeK877i24glhJETBuJjvOE3gn5vWtrw4uuhKo9dUhGv
4vWJQnmDuMClldxCxhyQUR4z8/HC5NJ7h8NkkLdfmzjv0tBP1VGq4DrRwwED5zKx
J8ZIWsCsJo2UYXb4mP8wbapVw2P9pKQbPGvoBXVBF12tyRebw01un319Nv7Ao5nW
5ZKtAgMBAAGjgf8wgfwwHQYDVR0OBBYEFCE6cjuVON+Z3mIlIdAUgW7KqvuhMIHP
BgNVHSMEgccwgcSAFEfAGUvtxNqXsWDqWgpCbaXT2CUxoYGopIGlMIGiMQswCQYD
VQQGEwJVUzETMBEGA1UECAwKV2FzaGluZ3RvbjEQMA4GA1UEBwwHU2VhdHRsZTEV
MBMGA1UECgwMd29sZlNTTCBJbmMuMRQwEgYDVQQLDAtFbmdpbmVlcmluZzEdMBsG
A1UEAwwUY2hhaW5HLUlDQTItcGF0aGxlbjExIDAeBgkqhkiG9w0BCQEWEWZhY3Rz
QHdvbGZzc2wuY29tggFkMAkGA1UdEwQCMAAwDQYJKoZIhvcNAQELBQADggEBAJSh
/IUa82xvCDV+FIHblA8d1mtERMaXJEbujCCI8bLj85X3hwB/QiHOKOWsA0MgwLTc
U15dtEUVhR9/fNEPJB0anZMxsx9HC7XOp5tKoJLw1BucKfGiNdOnPb/U+LKSXfr7
J6GtXKcdx4K+klqE/ZEjt8tBc0Nzre0TrAbouKmenHPEgO+JCBINaxKRNNaE0vQF
975eX1s+ggeBqdTTcjILz0yQ2u2HqvNhO9B0JT7INm7+DLydF/Dp1iX0rfbDYYnA
gJohbUh8hMTCMUEfoaoKvRA++4CDComF1zOwxQHKo7qS0Drx4YEinQDU0MJNNM9N
QA+F1woLzlDgjnP/xs4=
-----END CERTIFICATE-----
