Certificate:
    Data:
        Version: 3 (0x2)
        Serial Number: 100 (0x64)
        Signature Algorithm: sha256WithRSAEncryption
        Issuer: C = US, ST = Washington, L = Seattle, O = wolfSSL Inc., OU = Engineering, CN = chainG-ICA4-pathlen5, emailAddress = info@wolfssl.com
        Validity
            Not Before: Jun 19 13:23:42 2020 GMT
            Not After : Mar 16 13:23:42 2023 GMT
        Subject: C = US, ST = Washington, L = Seattle, O = wolfSSL Inc., OU = Engineering, CN = chainG-ICA3-pathlen99, emailAddress = info@wolfssl.com
        Subject Public Key Info:
            Public Key Algorithm: rsaEncryption
                RSA Public-Key: (2048 bit)
                Modulus:
                    00:ac:f1:39:65:f7:9c:9d:f6:f0:d2:b7:18:16:24:
                    81:32:b7:a5:29:d6:f7:4e:31:38:a7:54:d6:eb:07:
                    97:27:a1:92:e0:c1:3a:b5:93:06:17:ef:a7:74:f8:
                    9b:42:97:0c:d6:d3:d4:36:c9:61:ef:92:4c:3e:c4:
                    74:08:d6:19:2a:cd:9b:f1:6f:e8:c8:67:9f:28:54:
                    99:ce:63:1a:87:56:99:36:31:65:05:c5:d6:97:cf:
                    51:e4:2d:3d:74:14:31:d3:c3:05:fc:0e:7c:93:57:
                    cd:f7:c4:97:d7:5c:65:75:e7:35:85:81:27:eb:9a:
                    9f:d7:a2:bc:28:41:a8:ce:92:3a:10:b9:35:28:83:
                    dc:b0:27:cc:6e:20:03:60:13:23:22:b4:3c:25:58:
                    ae:a1:b2:24:d1:21:8b:b9:f0:28:84:ae:e6:00:cc:
                    cb:9b:78:8c:fa:4b:ed:73:7a:91:05:f9:fb:6e:34:
                    3b:7e:af:f9:45:9e:a0:d5:62:bb:d8:cd:95:9e:a2:
                    90:72:27:e0:3e:b9:b0:5e:0a:b2:e4:55:95:03:0c:
                    a6:66:44:65:db:0a:9f:90:5a:d3:81:c7:e2:3e:f2:
                    b0:9a:e0:05:1c:de:64:04:c2:7e:ca:7e:df:a1:f6:
                    18:e5:94:d3:74:fb:a5:1f:2d:77:cd:6e:5e:55:a3:
                    80:cb
                Exponent: 65537 (0x10001)
        X509v3 extensions:
            X509v3 Subject Key Identifier: 
                C1:CD:1F:81:13:82:24:3B:CF:64:51:7A:4C:E3:65:2E:75:1E:01:23
            X509v3 Authority Key Identifier: 
                keyid:D4:92:AE:BD:3B:1C:66:4B:17:88:18:15:F8:27:AB:38:CC:07:5A:65
                DirName:/C=US/ST=Washington/L=Seattle/O=wolfSSL Inc./OU=Engineering/CN=chainG-ICA5-pathlen20/emailAddress=info@wolfssl.com
                serial:64

            X509v3 Basic Constraints: 
                CA:TRUE, pathlen:99
            X509v3 Key Usage: 
                Certificate Sign, CRL Sign
    Signature Algorithm: sha256WithRSAEncryption
         a8:a2:96:14:d8:23:49:d7:53:b7:36:ab:a8:37:9f:ad:ed:72:
         c8:78:db:60:3d:e1:1c:ea:f9:2e:40:34:7b:ee:39:ed:99:b0:
         21:c5:c5:14:e3:29:25:e1:34:25:87:96:ee:cd:af:4d:3b:cd:
         19:22:f5:d4:71:31:93:14:6f:e6:22:6b:e8:8f:29:93:92:9e:
         21:d0:51:df:50:65:64:09:31:58:59:ec:27:b3:66:f7:55:e2:
         5f:2a:67:5f:e7:7f:1f:ed:5a:e5:65:a1:97:0b:04:d4:d8:50:
         66:f4:e2:cc:6e:44:e6:35:76:d1:a2:b1:b8:f2:34:cd:17:9a:
         01:0d:d2:34:19:bc:fc:22:f7:83:9b:be:20:1d:cd:b0:ef:10:
         1b:7c:70:8e:1d:57:c4:e3:4b:68:36:8d:a4:34:f0:51:b6:a7:
         6b:a9:54:e9:63:09:07:2f:cd:f2:b2:9d:80:44:32:b4:45:f6:
         6b:1f:40:8d:0a:d9:07:46:de:4f:99:f5:fd:19:f2:5a:d4:e9:
         b1:f5:dd:14:50:2c:fd:fe:f4:43:c1:e2:5a:4c:fb:2f:29:da:
         f1:4d:8f:07:0a:67:df:0d:e6:40:11:2c:e4:24:5b:35:9a:7d:
         9c:5b:55:46:99:0c:fd:11:76:3f:f2:a2:b9:80:92:1c:2c:c4:
         fb:43:b1:aa
-----BEGIN CERTIFICATE-----
MIIE1TCCA72gAwIBAgIBZDANBgkqhkiG9w0BAQsFADCBoTELMAkGA1UEBhMCVVMx
EzARBgNVBAgMCldhc2hpbmd0b24xEDAOBgNVBAcMB1NlYXR0bGUxFTATBgNVBAoM
DHdvbGZTU0wgSW5jLjEUMBIGA1UECwwLRW5naW5lZXJpbmcxHTAbBgNVBAMMFGNo
YWluRy1JQ0E0LXBhdGhsZW41MR8wHQYJKoZIhvcNAQkBFhBpbmZvQHdvbGZzc2wu
Y29tMB4XDTIwMDYxOTEzMjM0MloXDTIzMDMxNjEzMjM0MlowgaIxCzAJBgNVBAYT
AlVTMRMwEQYDVQQIDApXYXNoaW5ndG9uMRAwDgYDVQQHDAdTZWF0dGxlMRUwEwYD
VQQKDAx3b2xmU1NMIEluYy4xFDASBgNVBAsMC0VuZ2luZWVyaW5nMR4wHAYDVQQD
DBVjaGFpbkctSUNBMy1wYXRobGVuOTkxHzAdBgkqhkiG9w0BCQEWEGluZm9Ad29s
ZnNzbC5jb20wggEiMA0GCSqGSIb3DQEBAQUAA4IBDwAwggEKAoIBAQCs8Tll95yd
9vDStxgWJIEyt6Up1vdOMTinVNbrB5cnoZLgwTq1kwYX76d0+JtClwzW09Q2yWHv
kkw+xHQI1hkqzZvxb+jIZ58oVJnOYxqHVpk2MWUFxdaXz1HkLT10FDHTwwX8DnyT
V833xJfXXGV15zWFgSfrmp/XorwoQajOkjoQuTUog9ywJ8xuIANgEyMitDwlWK6h
siTRIYu58CiEruYAzMubeIz6S+1zepEF+ftuNDt+r/lFnqDVYrvYzZWeopByJ+A+
ubBeCrLkVZUDDKZmRGXbCp+QWtOBx+I+8rCa4AUc3mQEwn7Kft+h9hjllNN0+6Uf
LXfNbl5Vo4DLAgMBAAGjggETMIIBDzAdBgNVHQ4EFgQUwc0fgROCJDvPZFF6TONl
LnUeASMwgc8GA1UdIwSBxzCBxIAU1JKuvTscZksXiBgV+CerOMwHWmWhgaikgaUw
gaIxCzAJBgNVBAYTAlVTMRMwEQYDVQQIDApXYXNoaW5ndG9uMRAwDgYDVQQHDAdT
ZWF0dGxlMRUwEwYDVQQKDAx3b2xmU1NMIEluYy4xFDASBgNVBAsMC0VuZ2luZWVy
aW5nMR4wHAYDVQQDDBVjaGFpbkctSUNBNS1wYXRobGVuMjAxHzAdBgkqhkiG9w0B
CQEWEGluZm9Ad29sZnNzbC5jb22CAWQwDwYDVR0TBAgwBgEB/wIBYzALBgNVHQ8E
BAMCAQYwDQYJKoZIhvcNAQELBQADggEBAKiilhTYI0nXU7c2q6g3n63tcsh422A9
4Rzq+S5ANHvuOe2ZsCHFxRTjKSXhNCWHlu7Nr007zRki9dRxMZMUb+Yia+iPKZOS
niHQUd9QZWQJMVhZ7CezZvdV4l8qZ1/nfx/tWuVloZcLBNTYUGb04sxuROY1dtGi
sbjyNM0XmgEN0jQZvPwi94ObviAdzbDvEBt8cI4dV8TjS2g2jaQ08FG2p2upVOlj
CQcvzfKynYBEMrRF9msfQI0K2QdG3k+Z9f0Z8lrU6bH13RRQLP3+9EPB4lpM+y8p
2vFNjwcKZ98N5kARLOQkWzWafZxbVUaZDP0Rdj/yormAkhwsxPtDsao=
-----END CERTIFICATE-----
