Certificate:
    Data:
        Version: 3 (0x2)
        Serial Number: 100 (0x64)
    Signature Algorithm: sha256WithRSAEncryption
        Issuer: C=US, ST=Washington, L=Seattle, O=wolfSSL Inc., OU=Engineering, CN=chainG-ICA5-pathlen20/emailAddress=info@wolfssl.com
        Validity
            Not Before: Feb 10 19:49:54 2021 GMT
            Not After : Nov  7 19:49:54 2023 GMT
        Subject: C=US, ST=Washington, L=Seattle, O=wolfSSL Inc., OU=Engineering, CN=chainG-ICA4-pathlen5/emailAddress=info@wolfssl.com
        Subject Public Key Info:
            Public Key Algorithm: rsaEncryption
                Public-Key: (2048 bit)
                Modulus:
                    00:c9:4b:a0:77:b8:42:43:96:e1:f4:8d:1d:a6:2c:
                    d8:12:a2:40:49:11:eb:5f:fb:6c:1d:15:3e:af:dd:
                    3b:c7:fd:c9:61:43:99:8e:c7:bc:63:bc:5b:93:24:
                    f3:e5:66:c8:3e:3a:9c:7d:0e:1b:c1:6c:84:8c:90:
                    b0:11:aa:23:2d:78:99:17:3e:e9:6b:a0:8c:64:fd:
                    10:7b:66:ed:b4:3e:b0:96:ef:36:1f:2d:6d:c4:96:
                    3c:5a:dc:83:c2:e9:cd:64:d3:5f:c7:ea:db:84:2e:
                    24:0c:77:d1:fd:8c:cf:d7:78:af:5b:98:e9:c4:fd:
                    66:fa:76:1d:7a:c3:c3:64:32:ad:b9:8b:5a:4c:82:
                    ed:3a:fe:07:44:20:13:88:df:02:2c:d9:97:21:a4:
                    39:a6:f3:7e:8b:e2:c0:cc:86:6b:5a:25:30:d7:f9:
                    ba:29:ef:1b:2e:f6:3f:c1:7d:b1:0c:95:8e:c0:ce:
                    73:41:47:1c:ec:33:44:60:46:9d:b0:75:07:50:c8:
                    19:bf:1e:82:c8:c3:3d:d8:e2:19:1e:0b:36:9d:34:
                    95:87:ea:a0:1f:e8:80:60:a5:b1:94:42:1e:57:c8:
                    a0:e6:ad:f8:73:c8:82:e4:38:84:d3:97:fc:85:c4:
                    de:d2:c0:c5:6d:c7:1e:eb:1d:c1:f1:de:97:27:ca:
                    be:4b
                Exponent: 65537 (0x10001)
        X509v3 extensions:
            X509v3 Subject Key Identifier: 
                D4:92:AE:BD:3B:1C:66:4B:17:88:18:15:F8:27:AB:38:CC:07:5A:65
            X509v3 Authority Key Identifier: 
                keyid:1D:51:80:B6:9A:A7:AC:DD:80:7B:4B:A2:0B:62:BE:E4:87:30:C7:CA
                DirName:/C=US/ST=Washington/L=Seattle/O=wolfSSL Inc./OU=Engineering/CN=chainG-ICA6-pathlen10/emailAddress=info@wolfssl.com
                serial:64

            X509v3 Basic Constraints: 
                CA:TRUE, pathlen:5
            X509v3 Key Usage: 
                Certificate Sign, CRL Sign
    Signature Algorithm: sha256WithRSAEncryption
         b0:8e:1a:de:7d:55:b1:c3:4e:4e:df:a0:bb:0a:a7:41:78:11:
         47:17:0a:c1:85:2f:7a:0c:2a:f5:79:e5:b9:c7:a3:cf:a4:03:
         8a:ec:db:4b:ac:31:e0:b1:b2:d2:74:09:a6:70:90:30:01:68:
         c7:07:a0:28:b0:0b:b7:0e:9c:d6:de:4c:f0:62:69:a4:82:f1:
         80:79:e6:65:15:09:88:26:ae:4d:7e:fd:7b:9f:7a:e8:3b:d6:
         11:fe:7c:9d:c4:de:90:14:1a:1a:29:7c:a4:80:e9:55:1d:17:
         18:d3:45:84:ec:5f:42:35:ea:09:b2:67:f0:5f:71:b9:12:d5:
         88:2a:20:e3:7f:e5:c3:ac:d7:6e:4c:97:3c:aa:ca:f2:ba:d7:
         37:6b:ba:b8:e7:1a:f5:60:2b:41:7a:f4:68:50:91:ff:00:ab:
         73:05:ad:0f:b3:48:c5:73:dd:44:3f:16:1f:11:3b:ab:78:8c:
         e3:20:2a:24:31:ad:8d:3f:74:2b:2c:c1:08:75:9a:c8:6c:6b:
         43:62:cb:e1:6d:70:ce:f5:64:7c:31:60:c1:6c:fc:37:2f:1b:
         59:bc:28:97:11:de:df:50:5b:38:5d:a6:dd:b6:1c:f0:f3:dd:
         07:c4:4b:fa:f9:3a:fd:06:b1:64:64:fa:46:2f:93:52:3f:19:
         eb:e0:2b:7a
-----BEGIN CERTIFICATE-----
MIIE1TCCA72gAwIBAgIBZDANBgkqhkiG9w0BAQsFADCBojELMAkGA1UEBhMCVVMx
EzARBgNVBAgMCldhc2hpbmd0b24xEDAOBgNVBAcMB1NlYXR0bGUxFTATBgNVBAoM
DHdvbGZTU0wgSW5jLjEUMBIGA1UECwwLRW5naW5lZXJpbmcxHjAcBgNVBAMMFWNo
YWluRy1JQ0E1LXBhdGhsZW4yMDEfMB0GCSqGSIb3DQEJARYQaW5mb0B3b2xmc3Ns
LmNvbTAeFw0yMTAyMTAxOTQ5NTRaFw0yMzExMDcxOTQ5NTRaMIGhMQswCQYDVQQG
EwJVUzETMBEGA1UECAwKV2FzaGluZ3RvbjEQMA4GA1UEBwwHU2VhdHRsZTEVMBMG
A1UECgwMd29sZlNTTCBJbmMuMRQwEgYDVQQLDAtFbmdpbmVlcmluZzEdMBsGA1UE
AwwUY2hhaW5HLUlDQTQtcGF0aGxlbjUxHzAdBgkqhkiG9w0BCQEWEGluZm9Ad29s
ZnNzbC5jb20wggEiMA0GCSqGSIb3DQEBAQUAA4IBDwAwggEKAoIBAQDJS6B3uEJD
luH0jR2mLNgSokBJEetf+2wdFT6v3TvH/clhQ5mOx7xjvFuTJPPlZsg+Opx9DhvB
bISMkLARqiMteJkXPulroIxk/RB7Zu20PrCW7zYfLW3Eljxa3IPC6c1k01/H6tuE
LiQMd9H9jM/XeK9bmOnE/Wb6dh16w8NkMq25i1pMgu06/gdEIBOI3wIs2ZchpDmm
836L4sDMhmtaJTDX+bop7xsu9j/BfbEMlY7AznNBRxzsM0RgRp2wdQdQyBm/HoLI
wz3Y4hkeCzadNJWH6qAf6IBgpbGUQh5XyKDmrfhzyILkOITTl/yFxN7SwMVtxx7r
HcHx3pcnyr5LAgMBAAGjggETMIIBDzAdBgNVHQ4EFgQU1JKuvTscZksXiBgV+Cer
OMwHWmUwgc8GA1UdIwSBxzCBxIAUHVGAtpqnrN2Ae0uiC2K+5Icwx8qhgaikgaUw
gaIxCzAJBgNVBAYTAlVTMRMwEQYDVQQIDApXYXNoaW5ndG9uMRAwDgYDVQQHDAdT
ZWF0dGxlMRUwEwYDVQQKDAx3b2xmU1NMIEluYy4xFDASBgNVBAsMC0VuZ2luZWVy
aW5nMR4wHAYDVQQDDBVjaGFpbkctSUNBNi1wYXRobGVuMTAxHzAdBgkqhkiG9w0B
CQEWEGluZm9Ad29sZnNzbC5jb22CAWQwDwYDVR0TBAgwBgEB/wIBBTALBgNVHQ8E
BAMCAQYwDQYJKoZIhvcNAQELBQADggEBALCOGt59VbHDTk7foLsKp0F4EUcXCsGF
L3oMKvV55bnHo8+kA4rs20usMeCxstJ0CaZwkDABaMcHoCiwC7cOnNbeTPBiaaSC
8YB55mUVCYgmrk1+/Xufeug71hH+fJ3E3pAUGhopfKSA6VUdFxjTRYTsX0I16gmy
Z/BfcbkS1YgqION/5cOs125MlzyqyvK61zdrurjnGvVgK0F69GhQkf8Aq3MFrQ+z
SMVz3UQ/Fh8RO6t4jOMgKiQxrY0/dCsswQh1mshsa0Niy+FtcM71ZHwxYMFs/Dcv
G1m8KJcR3t9QWzhdpt22HPDz3QfES/r5Ov0GsWRk+kYvk1I/GevgK3o=
-----END CERTIFICATE-----
