Certificate:
    Data:
        Version: 3 (0x2)
        Serial Number: 100 (0x64)
        Signature Algorithm: sha256WithRSAEncryption
        Issuer: C=US, ST=Montana, L=Bozeman, O=Sawtooth, OU=Consulting, CN=www.wolfssl.com, emailAddress=facts@wolfssl.com
        Validity
            Not Before: Jun 11 21:44:40 2026 GMT
            Not After : Mar  7 21:44:40 2029 GMT
        Subject: C=US, ST=Washington, L=Seattle, O=wolfSSL Inc., OU=Engineering, CN=chainJ-ICA4-pathlen2, emailAddress=facts@wolfssl.com
        Subject Public Key Info:
            Public Key Algorithm: rsaEncryption
                Public-Key: (2048 bit)
                Modulus:
                    00:9d:4a:ee:6b:ff:b6:ec:88:21:23:84:03:b6:88:
                    bb:3e:5a:1b:95:03:2f:24:53:2d:57:3f:11:38:5d:
                    12:1d:40:6b:10:db:c2:d3:e4:dd:80:77:74:7b:88:
                    44:65:e0:cf:52:c5:8a:42:e5:6e:b7:6a:ab:50:a0:
                    2e:29:c2:fe:ba:d5:c7:da:6b:91:26:8f:fc:1e:06:
                    17:f0:de:58:87:ef:1e:a6:91:12:39:68:a5:05:f3:
                    8c:67:c9:e5:99:18:a4:fc:90:3f:bd:a6:ca:f2:a6:
                    dd:b5:e6:93:cb:14:89:83:3c:88:5a:31:ab:e3:66:
                    2a:1b:87:c5:85:03:45:b0:ce:e1:0f:c1:0f:92:70:
                    d7:ac:65:ea:a8:09:c1:fe:1d:db:b7:e7:dd:98:d3:
                    c6:b1:16:b4:54:58:c1:aa:ba:a1:cf:19:14:a7:e4:
                    55:a6:da:bb:1f:9e:d1:85:00:e0:8d:4a:c4:d2:86:
                    08:75:fd:d8:1e:85:21:6c:27:8f:18:d5:44:73:58:
                    ab:94:75:4a:36:3d:8d:4d:c6:7a:86:9d:00:db:c5:
                    ba:be:70:02:83:bf:6e:d8:31:89:b3:f2:16:98:be:
                    27:f6:14:5a:e9:d4:72:67:8d:a9:df:76:27:bf:19:
                    ac:20:59:28:5b:1b:42:d9:d5:5b:6d:fb:6e:a2:5e:
                    d3:e9
                Exponent: 65537 (0x10001)
        X509v3 extensions:
            X509v3 Subject Key Identifier: 
                FC:18:13:52:BB:33:4A:DB:1C:5B:D1:80:98:3E:40:86:95:58:72:F9
            X509v3 Authority Key Identifier: 
                keyid:27:8E:67:11:74:C3:26:1D:3F:ED:33:63:B3:A4:D8:1D:30:E5:E8:D5
                DirName:/C=US/ST=Montana/L=Bozeman/O=Sawtooth/OU=Consulting/CN=www.wolfssl.com/emailAddress=facts@wolfssl.com
                serial:67:19:D2:A8:7F:E3:2D:FA:75:7A:4F:E7:B2:02:D9:AD:C4:77:5E:F8
            X509v3 Basic Constraints: 
                CA:TRUE, pathlen:2
            X509v3 Key Usage: 
                Certificate Sign, CRL Sign
    Signature Algorithm: sha256WithRSAEncryption
    Signature Value:
        73:8f:2f:29:66:1e:47:36:fe:4c:21:d5:77:fa:d0:01:28:f2:
        b3:c2:3d:56:5a:ae:da:6f:ad:da:d8:a9:df:3e:4b:63:16:66:
        f1:b4:30:ad:db:9a:9d:00:8f:71:43:33:68:30:3a:2d:6d:dc:
        9f:09:0d:20:eb:a2:c4:52:b9:90:a0:73:94:a1:47:54:f7:24:
        02:2a:fe:7f:f9:7e:37:73:b2:e1:b5:04:b5:e1:01:a5:11:50:
        00:b5:e8:d9:44:bf:b9:a4:19:c5:56:99:cc:06:cf:41:d6:f3:
        5e:e8:2c:4f:af:10:dd:0e:33:b7:d8:a4:14:d8:74:a5:dc:68:
        a8:29:88:5b:62:0e:ba:0d:f6:29:d5:57:94:53:a5:22:2c:be:
        08:da:2e:79:56:f0:c4:b1:79:f0:3b:5a:31:cb:40:43:cf:30:
        b9:20:1c:16:0d:d4:47:1b:7c:ee:90:c3:a7:21:3a:85:23:7d:
        15:2e:b6:1b:9a:32:ab:18:2a:ea:4b:26:f2:a7:06:62:0a:77:
        cf:16:0c:99:bf:68:7d:02:fc:1e:8b:f3:6b:34:64:ce:f4:90:
        59:c6:a4:71:f6:2b:0c:9d:dd:8f:c1:c4:41:98:77:bc:c2:59:
        8d:76:9c:f7:c2:7d:ee:33:ee:6e:08:09:45:64:33:c6:4e:b2:
        4a:ba:16:b6
-----BEGIN CERTIFICATE-----
MIIEzzCCA7egAwIBAgIBZDANBgkqhkiG9w0BAQsFADCBlTELMAkGA1UEBhMCVVMx
EDAOBgNVBAgMB01vbnRhbmExEDAOBgNVBAcMB0JvemVtYW4xETAPBgNVBAoMCFNh
d3Rvb3RoMRMwEQYDVQQLDApDb25zdWx0aW5nMRgwFgYDVQQDDA93d3cud29sZnNz
bC5jb20xIDAeBgkqhkiG9w0BCQEWEWZhY3RzQHdvbGZzc2wuY29tMB4XDTI2MDYx
MTIxNDQ0MFoXDTI5MDMwNzIxNDQ0MFowgaIxCzAJBgNVBAYTAlVTMRMwEQYDVQQI
DApXYXNoaW5ndG9uMRAwDgYDVQQHDAdTZWF0dGxlMRUwEwYDVQQKDAx3b2xmU1NM
IEluYy4xFDASBgNVBAsMC0VuZ2luZWVyaW5nMR0wGwYDVQQDDBRjaGFpbkotSUNB
NC1wYXRobGVuMjEgMB4GCSqGSIb3DQEJARYRZmFjdHNAd29sZnNzbC5jb20wggEi
MA0GCSqGSIb3DQEBAQUAA4IBDwAwggEKAoIBAQCdSu5r/7bsiCEjhAO2iLs+WhuV
Ay8kUy1XPxE4XRIdQGsQ28LT5N2Ad3R7iERl4M9SxYpC5W63aqtQoC4pwv661cfa
a5Emj/weBhfw3liH7x6mkRI5aKUF84xnyeWZGKT8kD+9psrypt215pPLFImDPIha
MavjZiobh8WFA0WwzuEPwQ+ScNesZeqoCcH+Hdu3592Y08axFrRUWMGquqHPGRSn
5FWm2rsfntGFAOCNSsTShgh1/dgehSFsJ48Y1URzWKuUdUo2PY1NxnqGnQDbxbq+
cAKDv27YMYmz8haYvif2FFrp1HJnjanfdie/GawgWShbG0LZ1Vtt+26iXtPpAgMB
AAGjggEZMIIBFTAdBgNVHQ4EFgQU/BgTUrszStscW9GAmD5AhpVYcvkwgdUGA1Ud
IwSBzTCByoAUJ45nEXTDJh0/7TNjs6TYHTDl6NWhgZukgZgwgZUxCzAJBgNVBAYT
AlVTMRAwDgYDVQQIDAdNb250YW5hMRAwDgYDVQQHDAdCb3plbWFuMREwDwYDVQQK
DAhTYXd0b290aDETMBEGA1UECwwKQ29uc3VsdGluZzEYMBYGA1UEAwwPd3d3Lndv
bGZzc2wuY29tMSAwHgYJKoZIhvcNAQkBFhFmYWN0c0B3b2xmc3NsLmNvbYIUZxnS
qH/jLfp1ek/nsgLZrcR3XvgwDwYDVR0TBAgwBgEB/wIBAjALBgNVHQ8EBAMCAQYw
DQYJKoZIhvcNAQELBQADggEBAHOPLylmHkc2/kwh1Xf60AEo8rPCPVZartpvrdrY
qd8+S2MWZvG0MK3bmp0Aj3FDM2gwOi1t3J8JDSDrosRSuZCgc5ShR1T3JAIq/n/5
fjdzsuG1BLXhAaURUAC16NlEv7mkGcVWmcwGz0HW817oLE+vEN0OM7fYpBTYdKXc
aKgpiFtiDroN9inVV5RTpSIsvgjaLnlW8MSxefA7WjHLQEPPMLkgHBYN1EcbfO6Q
w6chOoUjfRUuthuaMqsYKupLJvKnBmIKd88WDJm/aH0C/B6L82s0ZM70kFnGpHH2
Kwyd3Y/BxEGYd7zCWY12nPfCfe4z7m4ICUVkM8ZOskq6FrY=
-----END CERTIFICATE-----
