Certificate:
    Data:
        Version: 3 (0x2)
        Serial Number: 100 (0x64)
        Signature Algorithm: sha256WithRSAEncryption
        Issuer: C = US, ST = Washington, L = Seattle, O = wolfSSL Inc., OU = Engineering, CN = chainF-ICA2-pathlen0, emailAddress = info@wolfssl.com
        Validity
            Not Before: Jun 19 13:23:42 2020 GMT
            Not After : Mar 16 13:23:42 2023 GMT
        Subject: C = US, ST = Washington, L = Seattle, O = wolfSSL Inc., OU = Engineering, CN = chainF-ICA1-pathlen1, emailAddress = info@wolfssl.com
        Subject Public Key Info:
            Public Key Algorithm: rsaEncryption
                RSA Public-Key: (2048 bit)
                Modulus:
                    00:e0:13:c9:b0:8e:9d:3f:88:d4:30:4a:b4:e8:11:
                    21:93:5c:20:45:08:f8:7a:91:b9:2c:ad:ff:60:aa:
                    16:9f:1c:bb:88:b8:3d:0a:39:c1:89:a9:76:ca:8e:
                    6c:72:72:7e:6e:74:a6:36:2c:69:df:33:d6:e9:66:
                    70:65:7f:ba:2a:44:17:62:9f:33:46:12:e6:03:a5:
                    a6:e2:5c:09:07:cf:bc:8d:76:fe:a0:fd:d7:72:4a:
                    94:c8:ca:2f:95:91:9c:0a:77:7f:82:23:be:72:27:
                    29:45:cd:41:cf:ec:e1:84:cf:67:d0:18:98:b9:31:
                    be:c9:fe:98:5d:3f:aa:d2:83:76:45:85:ab:08:86:
                    63:58:5b:b3:e5:4a:43:3d:a1:99:e2:80:d1:2b:b2:
                    06:e3:f0:10:85:f9:a6:36:b8:52:2b:9d:73:3b:34:
                    23:51:3d:fe:56:2f:e9:39:b2:68:07:3e:6f:52:7b:
                    f4:40:d4:72:fa:69:19:ca:ff:22:c8:45:95:05:5e:
                    91:08:3f:27:2d:41:d1:74:a5:06:9c:f3:40:bd:bb:
                    fc:65:63:86:ed:80:22:50:c1:f6:4f:dc:8f:43:4c:
                    5e:fb:bf:d9:6d:1f:b4:84:0f:1e:e8:c6:5d:c5:53:
                    d5:2c:c9:7f:6b:98:93:a7:5d:35:9a:17:62:91:2e:
                    20:c1
                Exponent: 65537 (0x10001)
        X509v3 extensions:
            X509v3 Subject Key Identifier: 
                75:32:21:05:2B:60:FE:44:17:AF:18:65:86:85:19:82:3F:F9:64:83
            X509v3 Authority Key Identifier: 
                keyid:4A:53:4A:B7:30:78:35:91:B4:CB:DD:C8:22:74:89:AF:80:0F:7F:68
                DirName:/C=US/ST=Montana/L=Bozeman/O=Sawtooth/OU=Consulting/CN=www.wolfssl.com/emailAddress=info@wolfssl.com
                serial:64

            X509v3 Basic Constraints: 
                CA:TRUE, pathlen:1
            X509v3 Key Usage: 
                Certificate Sign, CRL Sign
    Signature Algorithm: sha256WithRSAEncryption
         0d:37:9b:7e:f3:f8:99:ca:8d:0f:e1:04:0f:50:6f:1f:c1:2c:
         99:e9:b7:aa:93:16:a8:14:6b:31:31:e9:9e:73:11:07:9b:52:
         49:26:06:0d:06:11:36:27:10:0a:a7:9c:ff:4a:b5:91:0d:a5:
         55:14:a6:41:04:b6:6f:89:38:ca:3e:87:c3:b9:a5:0a:71:0f:
         a8:d1:a3:45:6e:0e:bb:7e:29:c0:20:a5:e1:f9:e4:d0:3a:cd:
         e1:85:26:89:16:90:d0:46:b8:2e:44:b2:49:ee:70:9e:54:d2:
         d9:55:bd:1c:bc:f3:b5:43:4c:13:ce:a8:5c:d0:4f:c8:0a:0c:
         87:9f:c7:4e:4e:99:5a:85:81:5f:9f:a8:04:fa:a8:f0:dd:ab:
         36:2a:b3:f5:14:bc:54:9a:12:e8:12:6e:c1:88:cc:ee:17:84:
         bc:2c:9b:f3:77:31:b8:fd:4c:ef:c3:27:8c:e7:fa:94:c0:eb:
         7a:fb:e2:c7:58:b1:1b:f6:7b:3d:df:9f:30:5f:60:ab:7a:46:
         c8:05:01:82:12:83:07:db:1e:3d:8a:d4:62:c6:ac:9f:28:18:
         4f:ba:06:74:a9:53:54:9a:04:30:39:bb:52:54:08:2b:6f:fa:
         bf:1d:04:1c:87:2a:c4:5f:a4:7b:ca:b9:d0:d0:a4:db:44:22:
         f1:cf:b0:86
-----BEGIN CERTIFICATE-----
MIIExjCCA66gAwIBAgIBZDANBgkqhkiG9w0BAQsFADCBoTELMAkGA1UEBhMCVVMx
EzARBgNVBAgMCldhc2hpbmd0b24xEDAOBgNVBAcMB1NlYXR0bGUxFTATBgNVBAoM
DHdvbGZTU0wgSW5jLjEUMBIGA1UECwwLRW5naW5lZXJpbmcxHTAbBgNVBAMMFGNo
YWluRi1JQ0EyLXBhdGhsZW4wMR8wHQYJKoZIhvcNAQkBFhBpbmZvQHdvbGZzc2wu
Y29tMB4XDTIwMDYxOTEzMjM0MloXDTIzMDMxNjEzMjM0MlowgaExCzAJBgNVBAYT
AlVTMRMwEQYDVQQIDApXYXNoaW5ndG9uMRAwDgYDVQQHDAdTZWF0dGxlMRUwEwYD
VQQKDAx3b2xmU1NMIEluYy4xFDASBgNVBAsMC0VuZ2luZWVyaW5nMR0wGwYDVQQD
DBRjaGFpbkYtSUNBMS1wYXRobGVuMTEfMB0GCSqGSIb3DQEJARYQaW5mb0B3b2xm
c3NsLmNvbTCCASIwDQYJKoZIhvcNAQEBBQADggEPADCCAQoCggEBAOATybCOnT+I
1DBKtOgRIZNcIEUI+HqRuSyt/2CqFp8cu4i4PQo5wYmpdsqObHJyfm50pjYsad8z
1ulmcGV/uipEF2KfM0YS5gOlpuJcCQfPvI12/qD913JKlMjKL5WRnAp3f4IjvnIn
KUXNQc/s4YTPZ9AYmLkxvsn+mF0/qtKDdkWFqwiGY1hbs+VKQz2hmeKA0SuyBuPw
EIX5pja4Uiudczs0I1E9/lYv6TmyaAc+b1J79EDUcvppGcr/IshFlQVekQg/Jy1B
0XSlBpzzQL27/GVjhu2AIlDB9k/cj0NMXvu/2W0ftIQPHujGXcVT1SzJf2uYk6dd
NZoXYpEuIMECAwEAAaOCAQUwggEBMB0GA1UdDgQWBBR1MiEFK2D+RBevGGWGhRmC
P/lkgzCBwQYDVR0jBIG5MIG2gBRKU0q3MHg1kbTL3cgidImvgA9/aKGBmqSBlzCB
lDELMAkGA1UEBhMCVVMxEDAOBgNVBAgMB01vbnRhbmExEDAOBgNVBAcMB0JvemVt
YW4xETAPBgNVBAoMCFNhd3Rvb3RoMRMwEQYDVQQLDApDb25zdWx0aW5nMRgwFgYD
VQQDDA93d3cud29sZnNzbC5jb20xHzAdBgkqhkiG9w0BCQEWEGluZm9Ad29sZnNz
bC5jb22CAWQwDwYDVR0TBAgwBgEB/wIBATALBgNVHQ8EBAMCAQYwDQYJKoZIhvcN
AQELBQADggEBAA03m37z+JnKjQ/hBA9Qbx/BLJnpt6qTFqgUazEx6Z5zEQebUkkm
Bg0GETYnEAqnnP9KtZENpVUUpkEEtm+JOMo+h8O5pQpxD6jRo0VuDrt+KcAgpeH5
5NA6zeGFJokWkNBGuC5EsknucJ5U0tlVvRy887VDTBPOqFzQT8gKDIefx05OmVqF
gV+fqAT6qPDdqzYqs/UUvFSaEugSbsGIzO4XhLwsm/N3Mbj9TO/DJ4zn+pTA63r7
4sdYsRv2ez3fnzBfYKt6RsgFAYISgwfbHj2K1GLGrJ8oGE+6BnSpU1SaBDA5u1JU
CCtv+r8dBByHKsRfpHvKudDQpNtEIvHPsIY=
-----END CERTIFICATE-----
