Certificate:
    Data:
        Version: 3 (0x2)
        Serial Number: 100 (0x64)
        Signature Algorithm: sha256WithRSAEncryption
        Issuer: C = US, ST = Montana, L = Bozeman, O = Sawtooth, OU = Consulting, CN = www.wolfssl.com, emailAddress = info@wolfssl.com
        Validity
            Not Before: Dec 13 22:19:32 2023 GMT
            Not After : Sep  8 22:19:32 2026 GMT
        Subject: C = US, ST = Washington, L = Seattle, O = wolfSSL Inc., OU = Engineering, CN = chainE-ICA1-pathlen128, emailAddress = info@wolfssl.com
        Subject Public Key Info:
            Public Key Algorithm: rsaEncryption
                RSA Public-Key: (2048 bit)
                Modulus:
                    00:d6:f3:6f:b8:db:10:df:89:df:3b:d9:2e:7a:c1:
                    34:1a:56:97:6c:73:04:fc:15:50:04:93:66:cb:17:
                    ba:fb:f9:28:b9:d6:ce:7e:f5:78:bb:b1:4f:aa:4b:
                    f8:80:35:d9:ae:fe:99:75:f7:cd:79:0b:cf:ca:da:
                    cb:58:9a:6e:9b:91:21:f4:17:fd:56:b8:3a:cf:cf:
                    ed:f7:90:6a:73:6c:06:99:ef:0e:8f:65:dc:d0:e8:
                    db:7b:c1:e8:4d:6d:61:9e:cc:5a:20:de:86:3a:58:
                    81:fa:b1:d4:5f:3c:74:43:45:61:36:2c:fe:a4:35:
                    ae:e2:39:c7:fd:dd:b3:83:d6:17:dc:f5:99:3f:67:
                    0e:c1:60:d1:69:8d:3c:f9:62:e9:83:ae:66:10:aa:
                    40:91:63:0b:2a:e5:c1:a8:1f:8e:8a:9b:11:9f:bf:
                    a6:45:fb:16:70:ed:6c:1b:14:98:80:69:04:c3:bd:
                    13:22:e7:d9:33:48:9d:8a:6c:0f:9c:39:08:29:92:
                    83:7b:73:a3:da:86:d6:4a:00:0f:a7:c2:7b:bf:ac:
                    0f:2a:62:96:5b:3b:ef:9f:e1:08:bb:44:ba:c4:99:
                    4f:a0:b9:5e:4d:cb:73:73:fe:ee:82:69:4f:af:c7:
                    59:5a:36:81:44:c6:e3:50:3b:bf:8d:14:ef:7e:96:
                    ef:c1
                Exponent: 65537 (0x10001)
        X509v3 extensions:
            X509v3 Subject Key Identifier: 
                44:7B:00:7C:9C:1C:97:9F:97:AA:6B:F2:5E:E6:81:7C:0E:AE:E6:2B
            X509v3 Authority Key Identifier: 
                keyid:27:8E:67:11:74:C3:26:1D:3F:ED:33:63:B3:A4:D8:1D:30:E5:E8:D5
                DirName:/C=US/ST=Montana/L=Bozeman/O=Sawtooth/OU=Consulting/CN=www.wolfssl.com/emailAddress=info@wolfssl.com
                serial:33:44:1A:A8:6C:01:EC:F6:60:F2:70:51:0A:4C:D1:14:FA:BC:E9:44

            X509v3 Basic Constraints: 
                CA:TRUE, pathlen:128
            X509v3 Key Usage: 
                Certificate Sign, CRL Sign
    Signature Algorithm: sha256WithRSAEncryption
         95:df:c8:9f:0d:1a:2a:2b:8a:79:0c:c4:a9:05:4f:fc:a4:04:
         d3:79:37:84:77:8d:17:db:d7:14:6b:1c:f5:f7:e8:04:6a:02:
         ce:b3:63:39:f3:6e:9c:9d:0b:96:d1:dc:46:d0:3c:57:a1:19:
         f9:aa:74:b0:16:15:18:91:c1:e9:9e:d6:52:b1:f0:d5:ac:0e:
         cb:ca:06:e5:88:b1:4c:ad:af:a4:29:db:ce:ae:ce:d3:30:db:
         99:f3:2a:77:e7:64:cc:07:2a:f0:e5:a9:27:97:ea:d6:a6:59:
         a5:0c:42:4f:02:a4:31:42:fc:9b:92:de:8b:52:d3:92:8c:fd:
         04:c2:d5:7b:80:bb:7a:90:ba:be:33:10:fd:07:d6:53:7f:b9:
         86:93:9f:1b:4c:66:75:d4:d1:0b:cd:10:76:23:0e:37:a2:d6:
         c1:5f:91:2b:d0:14:c3:2f:e7:46:e4:e9:6d:2d:f0:05:e5:78:
         25:3c:7d:1d:1c:23:9a:cb:ba:30:c2:52:98:4e:16:ad:f4:30:
         22:4a:41:e5:1c:c7:da:b1:79:ed:cd:b2:c3:83:42:a6:26:6e:
         ee:4f:9f:14:f7:6e:f2:e9:70:07:0b:c9:59:5a:8f:50:10:cf:
         09:77:a3:e1:96:47:e8:85:86:cd:8a:11:30:a0:72:05:11:50:
         7e:ee:0b:e6
-----BEGIN CERTIFICATE-----
MIIEzzCCA7egAwIBAgIBZDANBgkqhkiG9w0BAQsFADCBlDELMAkGA1UEBhMCVVMx
EDAOBgNVBAgMB01vbnRhbmExEDAOBgNVBAcMB0JvemVtYW4xETAPBgNVBAoMCFNh
d3Rvb3RoMRMwEQYDVQQLDApDb25zdWx0aW5nMRgwFgYDVQQDDA93d3cud29sZnNz
bC5jb20xHzAdBgkqhkiG9w0BCQEWEGluZm9Ad29sZnNzbC5jb20wHhcNMjMxMjEz
MjIxOTMyWhcNMjYwOTA4MjIxOTMyWjCBozELMAkGA1UEBhMCVVMxEzARBgNVBAgM
Cldhc2hpbmd0b24xEDAOBgNVBAcMB1NlYXR0bGUxFTATBgNVBAoMDHdvbGZTU0wg
SW5jLjEUMBIGA1UECwwLRW5naW5lZXJpbmcxHzAdBgNVBAMMFmNoYWluRS1JQ0Ex
LXBhdGhsZW4xMjgxHzAdBgkqhkiG9w0BCQEWEGluZm9Ad29sZnNzbC5jb20wggEi
MA0GCSqGSIb3DQEBAQUAA4IBDwAwggEKAoIBAQDW82+42xDfid872S56wTQaVpds
cwT8FVAEk2bLF7r7+Si51s5+9Xi7sU+qS/iANdmu/pl19815C8/K2stYmm6bkSH0
F/1WuDrPz+33kGpzbAaZ7w6PZdzQ6Nt7wehNbWGezFog3oY6WIH6sdRfPHRDRWE2
LP6kNa7iOcf93bOD1hfc9Zk/Zw7BYNFpjTz5YumDrmYQqkCRYwsq5cGoH46KmxGf
v6ZF+xZw7WwbFJiAaQTDvRMi59kzSJ2KbA+cOQgpkoN7c6PahtZKAA+nwnu/rA8q
YpZbO++f4Qi7RLrEmU+guV5Ny3Nz/u6CaU+vx1laNoFExuNQO7+NFO9+lu/BAgMB
AAGjggEZMIIBFTAdBgNVHQ4EFgQURHsAfJwcl5+XqmvyXuaBfA6u5iswgdQGA1Ud
IwSBzDCByYAUJ45nEXTDJh0/7TNjs6TYHTDl6NWhgZqkgZcwgZQxCzAJBgNVBAYT
AlVTMRAwDgYDVQQIDAdNb250YW5hMRAwDgYDVQQHDAdCb3plbWFuMREwDwYDVQQK
DAhTYXd0b290aDETMBEGA1UECwwKQ29uc3VsdGluZzEYMBYGA1UEAwwPd3d3Lndv
bGZzc2wuY29tMR8wHQYJKoZIhvcNAQkBFhBpbmZvQHdvbGZzc2wuY29tghQzRBqo
bAHs9mDycFEKTNEU+rzpRDAQBgNVHRMECTAHAQH/AgIAgDALBgNVHQ8EBAMCAQYw
DQYJKoZIhvcNAQELBQADggEBAJXfyJ8NGiorinkMxKkFT/ykBNN5N4R3jRfb1xRr
HPX36ARqAs6zYznzbpydC5bR3EbQPFehGfmqdLAWFRiRweme1lKx8NWsDsvKBuWI
sUytr6Qp286uztMw25nzKnfnZMwHKvDlqSeX6tamWaUMQk8CpDFC/JuS3otS05KM
/QTC1XuAu3qQur4zEP0H1lN/uYaTnxtMZnXU0QvNEHYjDjei1sFfkSvQFMMv50bk
6W0t8AXleCU8fR0cI5rLujDCUphOFq30MCJKQeUcx9qxee3NssODQqYmbu5PnxT3
bvLpcAcLyVlaj1AQzwl3o+GWR+iFhs2KETCgcgURUH7uC+Y=
-----END CERTIFICATE-----
