Certificate:
    Data:
        Version: 3 (0x2)
        Serial Number: 100 (0x64)
    Signature Algorithm: sha256WithRSAEncryption
        Issuer: C=US, ST=Montana, L=Bozeman, O=Sawtooth, OU=Consulting, CN=www.wolfssl.com/emailAddress=info@wolfssl.com
        Validity
            Not Before: Feb 10 19:49:54 2021 GMT
            Not After : Nov  7 19:49:54 2023 GMT
        Subject: C=US, ST=Washington, L=Seattle, O=wolfSSL Inc., OU=Engineering, CN=chainE-ICA1-pathlen128/emailAddress=info@wolfssl.com
        Subject Public Key Info:
            Public Key Algorithm: rsaEncryption
                Public-Key: (2048 bit)
                Modulus:
                    00:d6:f3:6f:b8:db:10:df:89:df:3b:d9:2e:7a:c1:
                    34:1a:56:97:6c:73:04:fc:15:50:04:93:66:cb:17:
                    ba:fb:f9:28:b9:d6:ce:7e:f5:78:bb:b1:4f:aa:4b:
                    f8:80:35:d9:ae:fe:99:75:f7:cd:79:0b:cf:ca:da:
                    cb:58:9a:6e:9b:91:21:f4:17:fd:56:b8:3a:cf:cf:
                    ed:f7:90:6a:73:6c:06:99:ef:0e:8f:65:dc:d0:e8:
                    db:7b:c1:e8:4d:6d:61:9e:cc:5a:20:de:86:3a:58:
                    81:fa:b1:d4:5f:3c:74:43:45:61:36:2c:fe:a4:35:
                    ae:e2:39:c7:fd:dd:b3:83:d6:17:dc:f5:99:3f:67:
                    0e:c1:60:d1:69:8d:3c:f9:62:e9:83:ae:66:10:aa:
                    40:91:63:0b:2a:e5:c1:a8:1f:8e:8a:9b:11:9f:bf:
                    a6:45:fb:16:70:ed:6c:1b:14:98:80:69:04:c3:bd:
                    13:22:e7:d9:33:48:9d:8a:6c:0f:9c:39:08:29:92:
                    83:7b:73:a3:da:86:d6:4a:00:0f:a7:c2:7b:bf:ac:
                    0f:2a:62:96:5b:3b:ef:9f:e1:08:bb:44:ba:c4:99:
                    4f:a0:b9:5e:4d:cb:73:73:fe:ee:82:69:4f:af:c7:
                    59:5a:36:81:44:c6:e3:50:3b:bf:8d:14:ef:7e:96:
                    ef:c1
                Exponent: 65537 (0x10001)
        X509v3 extensions:
            X509v3 Subject Key Identifier: 
                44:7B:00:7C:9C:1C:97:9F:97:AA:6B:F2:5E:E6:81:7C:0E:AE:E6:2B
            X509v3 Authority Key Identifier: 
                keyid:27:8E:67:11:74:C3:26:1D:3F:ED:33:63:B3:A4:D8:1D:30:E5:E8:D5
                DirName:/C=US/ST=Montana/L=Bozeman/O=Sawtooth/OU=Consulting/CN=www.wolfssl.com/emailAddress=info@wolfssl.com
                serial:AA:D3:3F:AC:18:0A:37:4D

            X509v3 Basic Constraints: 
                CA:TRUE, pathlen:128
            X509v3 Key Usage: 
                Certificate Sign, CRL Sign
    Signature Algorithm: sha256WithRSAEncryption
         b7:fd:94:b5:b8:71:1f:16:21:7c:b0:82:d3:9f:b4:e3:00:97:
         42:df:2a:fd:80:ea:2b:9c:30:7c:4c:fd:91:25:4a:e5:0e:fc:
         4a:c9:dd:65:0e:8e:9c:bb:6c:c1:1d:78:9f:0d:af:8a:80:79:
         29:64:3a:d8:76:a1:f2:6d:8a:ed:e8:d7:50:ab:6b:26:da:e1:
         62:6f:67:17:85:70:0f:d0:16:57:19:71:90:8f:49:de:43:af:
         aa:60:61:b5:46:62:0d:92:bb:56:d6:38:b9:1a:77:fc:02:73:
         2f:75:2c:70:40:f0:82:ca:5b:80:aa:b5:72:c8:24:45:91:a2:
         2d:50:f2:b2:2a:33:8d:8b:28:d7:f7:ad:cc:19:d8:e6:0d:81:
         d6:ce:6e:74:70:49:6e:d6:b9:d8:86:c1:dc:d8:15:68:9c:7d:
         6b:06:71:3f:64:da:34:9e:88:30:fb:ab:88:32:92:57:4c:17:
         3c:07:46:f0:b3:a7:3f:d1:77:49:5a:6e:49:a9:39:93:c5:a8:
         1e:5b:5c:99:24:96:fe:79:ac:46:f1:c0:60:eb:61:30:df:04:
         a2:0e:7e:8d:39:15:20:b2:05:e5:3d:17:ab:65:dc:be:3c:68:
         ef:a6:3b:c5:23:03:8a:12:2b:11:4d:03:28:87:f5:49:fe:72:
         2d:41:bc:c3
-----BEGIN CERTIFICATE-----
MIIExDCCA6ygAwIBAgIBZDANBgkqhkiG9w0BAQsFADCBlDELMAkGA1UEBhMCVVMx
EDAOBgNVBAgMB01vbnRhbmExEDAOBgNVBAcMB0JvemVtYW4xETAPBgNVBAoMCFNh
d3Rvb3RoMRMwEQYDVQQLDApDb25zdWx0aW5nMRgwFgYDVQQDDA93d3cud29sZnNz
bC5jb20xHzAdBgkqhkiG9w0BCQEWEGluZm9Ad29sZnNzbC5jb20wHhcNMjEwMjEw
MTk0OTU0WhcNMjMxMTA3MTk0OTU0WjCBozELMAkGA1UEBhMCVVMxEzARBgNVBAgM
Cldhc2hpbmd0b24xEDAOBgNVBAcMB1NlYXR0bGUxFTATBgNVBAoMDHdvbGZTU0wg
SW5jLjEUMBIGA1UECwwLRW5naW5lZXJpbmcxHzAdBgNVBAMMFmNoYWluRS1JQ0Ex
LXBhdGhsZW4xMjgxHzAdBgkqhkiG9w0BCQEWEGluZm9Ad29sZnNzbC5jb20wggEi
MA0GCSqGSIb3DQEBAQUAA4IBDwAwggEKAoIBAQDW82+42xDfid872S56wTQaVpds
cwT8FVAEk2bLF7r7+Si51s5+9Xi7sU+qS/iANdmu/pl19815C8/K2stYmm6bkSH0
F/1WuDrPz+33kGpzbAaZ7w6PZdzQ6Nt7wehNbWGezFog3oY6WIH6sdRfPHRDRWE2
LP6kNa7iOcf93bOD1hfc9Zk/Zw7BYNFpjTz5YumDrmYQqkCRYwsq5cGoH46KmxGf
v6ZF+xZw7WwbFJiAaQTDvRMi59kzSJ2KbA+cOQgpkoN7c6PahtZKAA+nwnu/rA8q
YpZbO++f4Qi7RLrEmU+guV5Ny3Nz/u6CaU+vx1laNoFExuNQO7+NFO9+lu/BAgMB
AAGjggEOMIIBCjAdBgNVHQ4EFgQURHsAfJwcl5+XqmvyXuaBfA6u5iswgckGA1Ud
IwSBwTCBvoAUJ45nEXTDJh0/7TNjs6TYHTDl6NWhgZqkgZcwgZQxCzAJBgNVBAYT
AlVTMRAwDgYDVQQIDAdNb250YW5hMRAwDgYDVQQHDAdCb3plbWFuMREwDwYDVQQK
DAhTYXd0b290aDETMBEGA1UECwwKQ29uc3VsdGluZzEYMBYGA1UEAwwPd3d3Lndv
bGZzc2wuY29tMR8wHQYJKoZIhvcNAQkBFhBpbmZvQHdvbGZzc2wuY29tggkAqtM/
rBgKN00wEAYDVR0TBAkwBwEB/wICAIAwCwYDVR0PBAQDAgEGMA0GCSqGSIb3DQEB
CwUAA4IBAQC3/ZS1uHEfFiF8sILTn7TjAJdC3yr9gOornDB8TP2RJUrlDvxKyd1l
Do6cu2zBHXifDa+KgHkpZDrYdqHybYrt6NdQq2sm2uFib2cXhXAP0BZXGXGQj0ne
Q6+qYGG1RmINkrtW1ji5Gnf8AnMvdSxwQPCCyluAqrVyyCRFkaItUPKyKjONiyjX
963MGdjmDYHWzm50cElu1rnYhsHc2BVonH1rBnE/ZNo0nogw+6uIMpJXTBc8B0bw
s6c/0XdJWm5JqTmTxageW1yZJJb+eaxG8cBg62Ew3wSiDn6NORUgsgXlPRerZdy+
PGjvpjvFIwOKEisRTQMoh/VJ/nItQbzD
-----END CERTIFICATE-----
