Certificate:
    Data:
        Version: 3 (0x2)
        Serial Number: 100 (0x64)
        Signature Algorithm: sha256WithRSAEncryption
        Issuer: C=US, ST=Washington, L=Seattle, O=wolfSSL Inc., OU=Engineering, CN=chainG-ICA6-pathlen10, emailAddress=info@wolfssl.com
        Validity
            Not Before: Nov 13 20:41:44 2025 GMT
            Not After : Aug  9 20:41:44 2028 GMT
        Subject: C=US, ST=Washington, L=Seattle, O=wolfSSL Inc., OU=Engineering, CN=chainG-ICA5-pathlen20, emailAddress=info@wolfssl.com
        Subject Public Key Info:
            Public Key Algorithm: rsaEncryption
                Public-Key: (2048 bit)
                Modulus:
                    00:be:9d:98:a2:41:ca:64:1f:a2:34:dc:51:7d:49:
                    2b:f7:f8:7a:fc:1a:22:8d:3a:17:8e:00:9c:74:06:
                    18:0f:26:d1:e8:1d:55:4b:3e:bb:6e:98:6d:65:cb:
                    6f:be:c5:98:40:65:1d:e1:1d:af:ad:bc:7c:b0:fa:
                    b6:2a:cb:af:df:d5:52:98:e6:01:01:31:01:3f:c7:
                    16:06:44:92:55:43:6f:dd:49:be:aa:52:d2:80:ca:
                    3a:d0:72:f3:0a:7e:59:cb:2c:74:7c:5b:19:3d:75:
                    9d:3e:da:35:45:49:8b:0d:36:84:80:41:b7:ce:70:
                    fc:a8:d0:4d:0b:d4:f3:4e:73:87:db:2e:18:20:45:
                    70:f3:5a:d1:cf:4f:f8:78:ad:7c:4b:97:3c:f1:0f:
                    8a:f6:6c:8f:7a:3a:c9:79:82:2d:bf:ae:80:f8:8b:
                    1d:79:17:9b:76:34:97:b1:79:5d:79:fa:30:73:78:
                    fc:9c:ee:eb:62:20:95:f1:a8:af:1e:4a:91:cc:1e:
                    34:90:c7:89:21:41:41:90:09:10:52:dd:21:75:15:
                    11:aa:cf:d8:e4:6c:7d:96:c8:d6:cd:90:eb:fa:df:
                    86:e7:3d:36:73:18:f3:86:c5:99:0e:0e:f7:e4:09:
                    8f:8c:29:f1:ad:15:e9:82:c9:6c:87:fc:00:7b:4b:
                    2e:f1
                Exponent: 65537 (0x10001)
        X509v3 extensions:
            X509v3 Subject Key Identifier: 
                1D:51:80:B6:9A:A7:AC:DD:80:7B:4B:A2:0B:62:BE:E4:87:30:C7:CA
            X509v3 Authority Key Identifier: 
                keyid:14:07:E8:A7:3A:A2:9C:DD:4C:30:B0:4D:F0:00:C4:88:C4:39:DF:73
                DirName:/C=US/ST=Washington/L=Seattle/O=wolfSSL Inc./OU=Engineering/CN=chainG-ICA7-pathlen100/emailAddress=info@wolfssl.com
                serial:64
            X509v3 Basic Constraints: 
                CA:TRUE, pathlen:20
            X509v3 Key Usage: 
                Certificate Sign, CRL Sign
    Signature Algorithm: sha256WithRSAEncryption
    Signature Value:
        82:65:1e:c1:b9:42:31:01:03:f8:db:72:04:45:a2:e1:14:f0:
        0e:fa:c4:d8:74:4c:11:24:24:30:a2:e8:bd:83:4c:67:b1:66:
        d4:3f:e4:d8:a8:ff:5f:71:c5:6a:2e:e6:95:da:57:23:4f:c8:
        46:6f:aa:61:3f:13:00:4d:4e:db:98:41:fb:b9:a5:05:ab:ea:
        d5:b0:49:45:08:4f:ab:5d:3d:7e:04:18:84:f3:0a:66:84:bd:
        34:28:6e:ac:1e:03:75:5b:9c:70:92:11:7f:80:58:32:58:8a:
        13:61:3f:4e:aa:03:bb:6a:cb:06:b2:f4:8c:d4:76:fc:21:74:
        2a:31:7b:40:ce:39:f7:cb:b8:dc:d1:68:d3:8a:b4:f9:42:51:
        6a:9d:19:63:ba:77:31:b8:1e:30:0b:e0:72:d5:dc:84:d4:13:
        60:10:b5:df:f1:ef:7c:12:25:ba:1b:f3:ce:78:6e:f7:ad:68:
        a1:9d:55:3a:2b:71:4f:21:7b:11:d0:48:b8:67:85:74:35:5c:
        22:e1:ed:f8:93:aa:92:a6:e7:14:3c:1d:57:5e:57:39:82:3a:
        fc:b8:f9:40:3a:06:67:64:5e:45:28:43:8a:8c:30:1d:ee:60:
        6d:1d:57:5c:81:46:16:4e:52:c1:9e:ca:d8:d0:7a:22:f2:98:
        d2:9e:ea:c9
-----BEGIN CERTIFICATE-----
MIIE1zCCA7+gAwIBAgIBZDANBgkqhkiG9w0BAQsFADCBojELMAkGA1UEBhMCVVMx
EzARBgNVBAgMCldhc2hpbmd0b24xEDAOBgNVBAcMB1NlYXR0bGUxFTATBgNVBAoM
DHdvbGZTU0wgSW5jLjEUMBIGA1UECwwLRW5naW5lZXJpbmcxHjAcBgNVBAMMFWNo
YWluRy1JQ0E2LXBhdGhsZW4xMDEfMB0GCSqGSIb3DQEJARYQaW5mb0B3b2xmc3Ns
LmNvbTAeFw0yNTExMTMyMDQxNDRaFw0yODA4MDkyMDQxNDRaMIGiMQswCQYDVQQG
EwJVUzETMBEGA1UECAwKV2FzaGluZ3RvbjEQMA4GA1UEBwwHU2VhdHRsZTEVMBMG
A1UECgwMd29sZlNTTCBJbmMuMRQwEgYDVQQLDAtFbmdpbmVlcmluZzEeMBwGA1UE
AwwVY2hhaW5HLUlDQTUtcGF0aGxlbjIwMR8wHQYJKoZIhvcNAQkBFhBpbmZvQHdv
bGZzc2wuY29tMIIBIjANBgkqhkiG9w0BAQEFAAOCAQ8AMIIBCgKCAQEAvp2YokHK
ZB+iNNxRfUkr9/h6/BoijToXjgCcdAYYDybR6B1VSz67bphtZctvvsWYQGUd4R2v
rbx8sPq2Ksuv39VSmOYBATEBP8cWBkSSVUNv3Um+qlLSgMo60HLzCn5Zyyx0fFsZ
PXWdPto1RUmLDTaEgEG3znD8qNBNC9TzTnOH2y4YIEVw81rRz0/4eK18S5c88Q+K
9myPejrJeYItv66A+IsdeRebdjSXsXldefowc3j8nO7rYiCV8aivHkqRzB40kMeJ
IUFBkAkQUt0hdRURqs/Y5Gx9lsjWzZDr+t+G5z02cxjzhsWZDg735AmPjCnxrRXp
gslsh/wAe0su8QIDAQABo4IBFDCCARAwHQYDVR0OBBYEFB1RgLaap6zdgHtLogti
vuSHMMfKMIHQBgNVHSMEgcgwgcWAFBQH6Kc6opzdTDCwTfAAxIjEOd9zoYGppIGm
MIGjMQswCQYDVQQGEwJVUzETMBEGA1UECAwKV2FzaGluZ3RvbjEQMA4GA1UEBwwH
U2VhdHRsZTEVMBMGA1UECgwMd29sZlNTTCBJbmMuMRQwEgYDVQQLDAtFbmdpbmVl
cmluZzEfMB0GA1UEAwwWY2hhaW5HLUlDQTctcGF0aGxlbjEwMDEfMB0GCSqGSIb3
DQEJARYQaW5mb0B3b2xmc3NsLmNvbYIBZDAPBgNVHRMECDAGAQH/AgEUMAsGA1Ud
DwQEAwIBBjANBgkqhkiG9w0BAQsFAAOCAQEAgmUewblCMQED+NtyBEWi4RTwDvrE
2HRMESQkMKLovYNMZ7Fm1D/k2Kj/X3HFai7mldpXI0/IRm+qYT8TAE1O25hB+7ml
Bavq1bBJRQhPq109fgQYhPMKZoS9NChurB4DdVuccJIRf4BYMliKE2E/TqoDu2rL
BrL0jNR2/CF0KjF7QM4598u43NFo04q0+UJRap0ZY7p3MbgeMAvgctXchNQTYBC1
3/HvfBIluhvzznhu961ooZ1VOitxTyF7EdBIuGeFdDVcIuHt+JOqkqbnFDwdV15X
OYI6/Lj5QDoGZ2ReRShDiowwHe5gbR1XXIFGFk5SwZ7K2NB6IvKY0p7qyQ==
-----END CERTIFICATE-----
