Certificate:
    Data:
        Version: 3 (0x2)
        Serial Number: 100 (0x64)
        Signature Algorithm: sha256WithRSAEncryption
        Issuer: C = US, ST = Washington, L = Seattle, O = wolfSSL Inc., OU = Engineering, CN = chainH-ICA3-pathlen2, emailAddress = info@wolfssl.com
        Validity
            Not Before: May  7 07:39:05 2020 GMT
            Not After : Feb  1 07:39:05 2023 GMT
        Subject: C = US, ST = Washington, L = Seattle, O = wolfSSL Inc., OU = Engineering, CN = chainH-ICA2-pathlen2, emailAddress = info@wolfssl.com
        Subject Public Key Info:
            Public Key Algorithm: rsaEncryption
                RSA Public-Key: (2048 bit)
                Modulus:
                    00:d9:b5:af:4b:ba:83:03:23:df:50:28:a8:c2:0c:
                    2c:f0:04:cb:2d:04:9b:1e:f5:f4:68:bc:d4:8e:b4:
                    cd:46:04:a2:f5:14:9e:3e:33:d6:76:2d:54:f9:d5:
                    41:b5:7a:47:93:1a:54:80:a4:3d:8b:9d:80:ea:1c:
                    3a:3a:bb:d1:d4:b6:f1:f2:a3:bd:9e:5d:b8:85:01:
                    d7:c8:a0:27:f6:67:41:94:c5:95:91:11:cb:96:fc:
                    95:a9:bc:b5:be:58:77:5c:2b:9b:e9:24:7e:8b:6e:
                    10:a7:d5:3a:fa:05:21:27:14:d8:d2:5f:a2:58:12:
                    b4:d9:bd:88:1a:f1:e7:4c:9d:60:31:0b:1f:3f:8b:
                    af:3a:d9:ca:cf:d4:73:1b:b8:b0:3d:d5:96:5d:4e:
                    a3:62:8f:56:eb:3d:4c:f0:21:4f:f4:8c:c7:55:dd:
                    a6:dc:d9:15:a1:12:db:73:4d:bf:18:89:42:92:0e:
                    83:be:4f:aa:ee:8f:a8:ef:a1:27:01:73:16:29:c0:
                    e8:8c:23:c8:ff:95:68:cd:53:67:49:e5:73:b1:ec:
                    62:60:51:20:e8:a6:49:28:f5:2b:16:30:e8:8b:a6:
                    2f:f4:b7:37:99:8c:32:30:97:5d:16:bf:6b:5e:ba:
                    34:1f:d6:1b:2e:fc:79:f0:00:61:aa:a0:7a:2f:7b:
                    d2:83
                Exponent: 65537 (0x10001)
        X509v3 extensions:
            X509v3 Subject Key Identifier: 
                80:49:61:8C:1D:13:08:56:B5:42:68:D5:B2:EA:89:2C:B4:8B:05:87
            X509v3 Authority Key Identifier: 
                keyid:56:54:36:BE:23:2F:20:89:6D:A6:BA:9A:45:A4:88:0E:40:35:FD:F5
                DirName:/C=US/ST=Washington/L=Seattle/O=wolfSSL Inc./OU=Engineering/CN=chainH-ICA4-pathlen2/emailAddress=info@wolfssl.com
                serial:64

            X509v3 Basic Constraints: 
                CA:TRUE, pathlen:2
            X509v3 Key Usage: 
                Certificate Sign, CRL Sign
    Signature Algorithm: sha256WithRSAEncryption
         18:c5:91:36:f9:99:81:ef:04:b9:3d:9b:9a:a7:d6:e5:2c:68:
         ab:db:44:c4:ac:77:bd:2d:de:5c:f1:d9:fa:6b:41:ff:51:62:
         2a:e3:f3:04:0e:f8:b5:98:28:ee:0c:28:b3:aa:32:39:c0:64:
         09:a2:98:1d:49:be:b3:9a:15:e3:4b:69:e3:50:b8:25:3f:af:
         69:c3:83:08:00:a1:15:5f:e7:4b:ee:15:4f:72:5c:d8:8a:a1:
         e5:15:26:e1:f7:4c:82:0c:6a:5f:71:bb:11:ee:49:b4:08:16:
         bd:20:0a:d9:ed:25:69:3e:66:cf:d8:92:dd:55:bb:78:34:52:
         47:d7:49:cd:6f:bd:43:e3:f5:39:74:2c:76:97:ed:8d:3f:b1:
         c9:a0:21:90:44:8e:38:ba:f5:17:9e:5a:2b:05:b8:61:b3:6b:
         3a:0e:98:f8:fc:b7:05:a6:61:36:0e:ba:d5:9f:8c:ae:73:73:
         29:4a:df:c4:da:78:ce:4d:99:fd:70:56:de:bb:fc:9c:a8:96:
         9d:93:7f:fc:9e:88:0b:de:58:73:65:c3:c3:4c:3e:97:5a:29:
         7c:4c:29:87:55:02:b4:56:88:84:94:17:45:dc:c6:96:13:9a:
         e5:7e:18:fb:45:e2:e4:c7:47:34:72:3d:1f:d0:d6:e6:12:1d:
         b1:f7:17:61
-----BEGIN CERTIFICATE-----
MIIE0zCCA7ugAwIBAgIBZDANBgkqhkiG9w0BAQsFADCBoTELMAkGA1UEBhMCVVMx
EzARBgNVBAgMCldhc2hpbmd0b24xEDAOBgNVBAcMB1NlYXR0bGUxFTATBgNVBAoM
DHdvbGZTU0wgSW5jLjEUMBIGA1UECwwLRW5naW5lZXJpbmcxHTAbBgNVBAMMFGNo
YWluSC1JQ0EzLXBhdGhsZW4yMR8wHQYJKoZIhvcNAQkBFhBpbmZvQHdvbGZzc2wu
Y29tMB4XDTIwMDUwNzA3MzkwNVoXDTIzMDIwMTA3MzkwNVowgaExCzAJBgNVBAYT
AlVTMRMwEQYDVQQIDApXYXNoaW5ndG9uMRAwDgYDVQQHDAdTZWF0dGxlMRUwEwYD
VQQKDAx3b2xmU1NMIEluYy4xFDASBgNVBAsMC0VuZ2luZWVyaW5nMR0wGwYDVQQD
DBRjaGFpbkgtSUNBMi1wYXRobGVuMjEfMB0GCSqGSIb3DQEJARYQaW5mb0B3b2xm
c3NsLmNvbTCCASIwDQYJKoZIhvcNAQEBBQADggEPADCCAQoCggEBANm1r0u6gwMj
31AoqMIMLPAEyy0Emx719Gi81I60zUYEovUUnj4z1nYtVPnVQbV6R5MaVICkPYud
gOocOjq70dS28fKjvZ5duIUB18igJ/ZnQZTFlZERy5b8lam8tb5Yd1wrm+kkfotu
EKfVOvoFIScU2NJfolgStNm9iBrx50ydYDELHz+LrzrZys/Ucxu4sD3Vll1Oo2KP
Vus9TPAhT/SMx1XdptzZFaES23NNvxiJQpIOg75Pqu6PqO+hJwFzFinA6IwjyP+V
aM1TZ0nlc7HsYmBRIOimSSj1KxYw6IumL/S3N5mMMjCXXRa/a166NB/WGy78efAA
Yaqgei970oMCAwEAAaOCARIwggEOMB0GA1UdDgQWBBSASWGMHRMIVrVCaNWy6oks
tIsFhzCBzgYDVR0jBIHGMIHDgBRWVDa+Iy8giW2muppFpIgOQDX99aGBp6SBpDCB
oTELMAkGA1UEBhMCVVMxEzARBgNVBAgMCldhc2hpbmd0b24xEDAOBgNVBAcMB1Nl
YXR0bGUxFTATBgNVBAoMDHdvbGZTU0wgSW5jLjEUMBIGA1UECwwLRW5naW5lZXJp
bmcxHTAbBgNVBAMMFGNoYWluSC1JQ0E0LXBhdGhsZW4yMR8wHQYJKoZIhvcNAQkB
FhBpbmZvQHdvbGZzc2wuY29tggFkMA8GA1UdEwQIMAYBAf8CAQIwCwYDVR0PBAQD
AgEGMA0GCSqGSIb3DQEBCwUAA4IBAQAYxZE2+ZmB7wS5PZuap9blLGir20TErHe9
Ld5c8dn6a0H/UWIq4/MEDvi1mCjuDCizqjI5wGQJopgdSb6zmhXjS2njULglP69p
w4MIAKEVX+dL7hVPclzYiqHlFSbh90yCDGpfcbsR7km0CBa9IArZ7SVpPmbP2JLd
Vbt4NFJH10nNb71D4/U5dCx2l+2NP7HJoCGQRI44uvUXnlorBbhhs2s6Dpj4/LcF
pmE2DrrVn4yuc3MpSt/E2njOTZn9cFbeu/ycqJadk3/8nogL3lhzZcPDTD6XWil8
TCmHVQK0VoiElBdF3MaWE5rlfhj7ReLkx0c0cj0f0NbmEh2x9xdh
-----END CERTIFICATE-----
