Certificate:
    Data:
        Version: 3 (0x2)
        Serial Number: 100 (0x64)
        Signature Algorithm: sha256WithRSAEncryption
        Issuer: C = US, ST = Washington, L = Seattle, O = wolfSSL Inc., OU = Engineering, CN = chainG-ICA5-pathlen20, emailAddress = info@wolfssl.com
        Validity
            Not Before: Dec 18 21:25:34 2024 GMT
            Not After : Sep 14 21:25:34 2027 GMT
        Subject: C = US, ST = Washington, L = Seattle, O = wolfSSL Inc., OU = Engineering, CN = chainG-ICA4-pathlen5, emailAddress = info@wolfssl.com
        Subject Public Key Info:
            Public Key Algorithm: rsaEncryption
                Public-Key: (2048 bit)
                Modulus:
                    00:c9:4b:a0:77:b8:42:43:96:e1:f4:8d:1d:a6:2c:
                    d8:12:a2:40:49:11:eb:5f:fb:6c:1d:15:3e:af:dd:
                    3b:c7:fd:c9:61:43:99:8e:c7:bc:63:bc:5b:93:24:
                    f3:e5:66:c8:3e:3a:9c:7d:0e:1b:c1:6c:84:8c:90:
                    b0:11:aa:23:2d:78:99:17:3e:e9:6b:a0:8c:64:fd:
                    10:7b:66:ed:b4:3e:b0:96:ef:36:1f:2d:6d:c4:96:
                    3c:5a:dc:83:c2:e9:cd:64:d3:5f:c7:ea:db:84:2e:
                    24:0c:77:d1:fd:8c:cf:d7:78:af:5b:98:e9:c4:fd:
                    66:fa:76:1d:7a:c3:c3:64:32:ad:b9:8b:5a:4c:82:
                    ed:3a:fe:07:44:20:13:88:df:02:2c:d9:97:21:a4:
                    39:a6:f3:7e:8b:e2:c0:cc:86:6b:5a:25:30:d7:f9:
                    ba:29:ef:1b:2e:f6:3f:c1:7d:b1:0c:95:8e:c0:ce:
                    73:41:47:1c:ec:33:44:60:46:9d:b0:75:07:50:c8:
                    19:bf:1e:82:c8:c3:3d:d8:e2:19:1e:0b:36:9d:34:
                    95:87:ea:a0:1f:e8:80:60:a5:b1:94:42:1e:57:c8:
                    a0:e6:ad:f8:73:c8:82:e4:38:84:d3:97:fc:85:c4:
                    de:d2:c0:c5:6d:c7:1e:eb:1d:c1:f1:de:97:27:ca:
                    be:4b
                Exponent: 65537 (0x10001)
        X509v3 extensions:
            X509v3 Subject Key Identifier: 
                D4:92:AE:BD:3B:1C:66:4B:17:88:18:15:F8:27:AB:38:CC:07:5A:65
            X509v3 Authority Key Identifier: 
                keyid:1D:51:80:B6:9A:A7:AC:DD:80:7B:4B:A2:0B:62:BE:E4:87:30:C7:CA
                DirName:/C=US/ST=Washington/L=Seattle/O=wolfSSL Inc./OU=Engineering/CN=chainG-ICA6-pathlen10/emailAddress=info@wolfssl.com
                serial:64
            X509v3 Basic Constraints: 
                CA:TRUE, pathlen:5
            X509v3 Key Usage: 
                Certificate Sign, CRL Sign
    Signature Algorithm: sha256WithRSAEncryption
    Signature Value:
        29:f0:28:23:e3:5b:7c:79:38:4f:54:fc:55:b5:0b:2a:32:2d:
        a3:0f:21:95:80:74:dc:20:d1:21:97:ac:da:31:8c:e0:5f:c5:
        a0:78:b9:3c:a9:33:5d:9b:28:5d:2a:fa:7f:99:30:3c:d4:74:
        dd:64:b0:69:24:6e:5f:0d:df:29:93:e0:ca:b2:24:fd:fc:a8:
        0f:21:ae:a7:f7:32:5d:bc:c0:88:d0:0c:37:6d:58:3b:2f:25:
        cc:eb:d6:38:9d:4b:88:32:db:55:b3:18:a3:ad:e3:d6:cd:58:
        40:6e:63:52:b6:bb:fd:55:99:5f:29:83:75:a0:33:25:bc:4a:
        3f:8c:89:12:3e:3e:37:b5:56:27:3a:34:a1:61:b5:b0:4a:6c:
        da:fd:ac:a1:c7:8c:88:fb:3a:4e:2e:ec:4c:0c:6b:3e:e9:11:
        52:00:d4:77:ab:5a:1b:69:1b:cc:d8:85:57:d6:87:34:5b:8f:
        db:fb:d6:1c:6a:47:61:64:4c:ef:f9:11:12:35:53:0a:64:52:
        ac:0b:71:19:64:2d:56:85:ee:fa:11:42:49:c2:10:5c:06:20:
        5b:66:9a:ef:5c:6b:1d:a9:12:86:7c:f9:44:6b:31:91:a0:5c:
        ce:2f:ee:8f:7e:9b:ef:3c:dd:80:af:70:df:16:6d:91:73:0a:
        42:31:af:82
-----BEGIN CERTIFICATE-----
MIIE1TCCA72gAwIBAgIBZDANBgkqhkiG9w0BAQsFADCBojELMAkGA1UEBhMCVVMx
EzARBgNVBAgMCldhc2hpbmd0b24xEDAOBgNVBAcMB1NlYXR0bGUxFTATBgNVBAoM
DHdvbGZTU0wgSW5jLjEUMBIGA1UECwwLRW5naW5lZXJpbmcxHjAcBgNVBAMMFWNo
YWluRy1JQ0E1LXBhdGhsZW4yMDEfMB0GCSqGSIb3DQEJARYQaW5mb0B3b2xmc3Ns
LmNvbTAeFw0yNDEyMTgyMTI1MzRaFw0yNzA5MTQyMTI1MzRaMIGhMQswCQYDVQQG
EwJVUzETMBEGA1UECAwKV2FzaGluZ3RvbjEQMA4GA1UEBwwHU2VhdHRsZTEVMBMG
A1UECgwMd29sZlNTTCBJbmMuMRQwEgYDVQQLDAtFbmdpbmVlcmluZzEdMBsGA1UE
AwwUY2hhaW5HLUlDQTQtcGF0aGxlbjUxHzAdBgkqhkiG9w0BCQEWEGluZm9Ad29s
ZnNzbC5jb20wggEiMA0GCSqGSIb3DQEBAQUAA4IBDwAwggEKAoIBAQDJS6B3uEJD
luH0jR2mLNgSokBJEetf+2wdFT6v3TvH/clhQ5mOx7xjvFuTJPPlZsg+Opx9DhvB
bISMkLARqiMteJkXPulroIxk/RB7Zu20PrCW7zYfLW3Eljxa3IPC6c1k01/H6tuE
LiQMd9H9jM/XeK9bmOnE/Wb6dh16w8NkMq25i1pMgu06/gdEIBOI3wIs2ZchpDmm
836L4sDMhmtaJTDX+bop7xsu9j/BfbEMlY7AznNBRxzsM0RgRp2wdQdQyBm/HoLI
wz3Y4hkeCzadNJWH6qAf6IBgpbGUQh5XyKDmrfhzyILkOITTl/yFxN7SwMVtxx7r
HcHx3pcnyr5LAgMBAAGjggETMIIBDzAdBgNVHQ4EFgQU1JKuvTscZksXiBgV+Cer
OMwHWmUwgc8GA1UdIwSBxzCBxIAUHVGAtpqnrN2Ae0uiC2K+5Icwx8qhgaikgaUw
gaIxCzAJBgNVBAYTAlVTMRMwEQYDVQQIDApXYXNoaW5ndG9uMRAwDgYDVQQHDAdT
ZWF0dGxlMRUwEwYDVQQKDAx3b2xmU1NMIEluYy4xFDASBgNVBAsMC0VuZ2luZWVy
aW5nMR4wHAYDVQQDDBVjaGFpbkctSUNBNi1wYXRobGVuMTAxHzAdBgkqhkiG9w0B
CQEWEGluZm9Ad29sZnNzbC5jb22CAWQwDwYDVR0TBAgwBgEB/wIBBTALBgNVHQ8E
BAMCAQYwDQYJKoZIhvcNAQELBQADggEBACnwKCPjW3x5OE9U/FW1CyoyLaMPIZWA
dNwg0SGXrNoxjOBfxaB4uTypM12bKF0q+n+ZMDzUdN1ksGkkbl8N3ymT4MqyJP38
qA8hrqf3Ml28wIjQDDdtWDsvJczr1jidS4gy21WzGKOt49bNWEBuY1K2u/1VmV8p
g3WgMyW8Sj+MiRI+Pje1Vic6NKFhtbBKbNr9rKHHjIj7Ok4u7EwMaz7pEVIA1Her
WhtpG8zYhVfWhzRbj9v71hxqR2FkTO/5ERI1UwpkUqwLcRlkLVaF7voRQknCEFwG
IFtmmu9cax2pEoZ8+URrMZGgXM4v7o9+m+883YCvcN8WbZFzCkIxr4I=
-----END CERTIFICATE-----
