Certificate:
    Data:
        Version: 3 (0x2)
        Serial Number: 100 (0x64)
        Signature Algorithm: sha256WithRSAEncryption
        Issuer: C = US, ST = Montana, L = Bozeman, O = Sawtooth, OU = Consulting, CN = www.wolfssl.com, emailAddress = info@wolfssl.com
        Validity
            Not Before: Dec 20 23:07:25 2021 GMT
            Not After : Sep 15 23:07:25 2024 GMT
        Subject: C = US, ST = Washington, L = Seattle, O = wolfSSL Inc., OU = Engineering, CN = chainG-ICA7-pathlen100, emailAddress = info@wolfssl.com
        Subject Public Key Info:
            Public Key Algorithm: rsaEncryption
                RSA Public-Key: (2048 bit)
                Modulus:
                    00:d6:8c:d6:c4:29:20:60:9d:15:3d:0c:2a:fb:24:
                    2f:38:89:ed:37:c4:fc:57:67:2a:50:d8:eb:e2:6a:
                    1c:59:06:f2:6d:3e:b9:4f:fe:49:c5:21:c0:16:f8:
                    29:6f:51:0c:ea:78:d7:0e:15:41:da:5a:cb:0b:e0:
                    54:d6:83:fd:0f:e8:4e:30:ff:e4:44:c3:b2:02:f3:
                    7d:3a:c6:5c:4e:86:86:2c:74:d4:21:85:c1:fe:4e:
                    8b:07:3c:54:1b:54:9e:ec:5a:a5:95:ed:5a:35:e0:
                    08:c6:84:7c:e6:ae:71:12:d2:fd:c1:fd:16:0a:3a:
                    b8:c7:23:4b:af:e0:cd:12:5e:9f:4f:62:13:f0:c8:
                    e4:e2:a8:01:d3:37:b0:08:21:d3:0f:6c:e4:d8:c1:
                    04:51:e9:4c:c5:b1:6d:cc:63:23:97:30:ee:f0:1e:
                    ab:6d:ea:93:ca:ad:56:6f:1e:ed:1a:ae:8c:1b:91:
                    04:ea:ab:9d:1b:3b:56:a7:c1:cc:2f:39:2f:b3:ba:
                    8c:16:fd:5e:10:10:9e:24:ea:40:97:74:b6:b4:e5:
                    1c:c0:d3:5f:79:2c:04:43:3a:8e:f4:b1:56:bd:c7:
                    25:63:5c:34:50:4d:bd:2d:f1:08:bd:8c:3e:d2:6f:
                    fa:e4:04:a1:51:eb:d0:d0:90:91:97:7b:46:c6:10:
                    92:af
                Exponent: 65537 (0x10001)
        X509v3 extensions:
            X509v3 Subject Key Identifier: 
                12:E4:A4:19:85:AE:85:B7:D6:EB:63:04:D5:B9:B0:7E:57:5F:0C:16
            X509v3 Authority Key Identifier: 
                keyid:27:8E:67:11:74:C3:26:1D:3F:ED:33:63:B3:A4:D8:1D:30:E5:E8:D5
                DirName:/C=US/ST=Montana/L=Bozeman/O=Sawtooth/OU=Consulting/CN=www.wolfssl.com/emailAddress=info@wolfssl.com
                serial:7D:94:70:88:BA:07:42:8D:AA:AF:4F:BE:C2:1A:48:F0:D1:40:E6:42

            X509v3 Basic Constraints: 
                CA:TRUE, pathlen:100
            X509v3 Key Usage: 
                Certificate Sign, CRL Sign
    Signature Algorithm: sha256WithRSAEncryption
         4f:97:12:76:60:f0:fd:24:ca:f2:c4:89:6a:90:28:86:fe:1b:
         19:f8:fc:f8:b9:89:8e:8c:06:56:d5:89:a8:73:6a:11:b2:6f:
         ce:f1:35:e4:3e:3c:8f:d5:a4:95:b9:24:16:41:2b:0b:04:29:
         df:03:52:3f:82:2b:be:fb:74:29:b6:36:6e:dd:28:56:e8:e3:
         85:c4:94:5b:9c:4e:09:0f:c0:bd:79:2a:08:a6:b6:54:0c:24:
         d6:00:d8:29:d8:ff:d8:44:57:30:25:b3:28:24:f8:25:36:b6:
         e6:44:6c:72:0a:7a:fc:0d:b4:9e:77:b8:80:36:49:e6:47:7a:
         dd:c9:e5:27:57:11:52:f1:44:96:a0:9c:6f:f4:3f:35:bd:81:
         4d:a6:61:ed:ef:43:95:13:a3:57:19:1a:70:34:5e:7c:a9:b9:
         c6:c6:a0:7c:35:d5:5f:98:9f:9b:33:f3:d2:fd:57:08:db:80:
         bd:fa:2a:0b:44:f8:3b:97:75:9f:e6:83:50:92:6c:82:02:7f:
         32:ed:7b:52:4d:2d:c1:cf:0c:c1:09:6f:3f:63:49:9b:e1:25:
         7c:c5:33:49:f6:68:e4:7e:67:33:67:54:1c:49:99:8c:bf:3a:
         aa:1c:ee:0d:d1:7b:29:6a:70:b4:47:cb:b4:d9:95:57:cf:59:
         44:85:19:54
-----BEGIN CERTIFICATE-----
MIIEzjCCA7agAwIBAgIBZDANBgkqhkiG9w0BAQsFADCBlDELMAkGA1UEBhMCVVMx
EDAOBgNVBAgMB01vbnRhbmExEDAOBgNVBAcMB0JvemVtYW4xETAPBgNVBAoMCFNh
d3Rvb3RoMRMwEQYDVQQLDApDb25zdWx0aW5nMRgwFgYDVQQDDA93d3cud29sZnNz
bC5jb20xHzAdBgkqhkiG9w0BCQEWEGluZm9Ad29sZnNzbC5jb20wHhcNMjExMjIw
MjMwNzI1WhcNMjQwOTE1MjMwNzI1WjCBozELMAkGA1UEBhMCVVMxEzARBgNVBAgM
Cldhc2hpbmd0b24xEDAOBgNVBAcMB1NlYXR0bGUxFTATBgNVBAoMDHdvbGZTU0wg
SW5jLjEUMBIGA1UECwwLRW5naW5lZXJpbmcxHzAdBgNVBAMMFmNoYWluRy1JQ0E3
LXBhdGhsZW4xMDAxHzAdBgkqhkiG9w0BCQEWEGluZm9Ad29sZnNzbC5jb20wggEi
MA0GCSqGSIb3DQEBAQUAA4IBDwAwggEKAoIBAQDWjNbEKSBgnRU9DCr7JC84ie03
xPxXZypQ2OviahxZBvJtPrlP/knFIcAW+ClvUQzqeNcOFUHaWssL4FTWg/0P6E4w
/+REw7IC8306xlxOhoYsdNQhhcH+TosHPFQbVJ7sWqWV7Vo14AjGhHzmrnES0v3B
/RYKOrjHI0uv4M0SXp9PYhPwyOTiqAHTN7AIIdMPbOTYwQRR6UzFsW3MYyOXMO7w
Hqtt6pPKrVZvHu0arowbkQTqq50bO1anwcwvOS+zuowW/V4QEJ4k6kCXdLa05RzA
0195LARDOo70sVa9xyVjXDRQTb0t8Qi9jD7Sb/rkBKFR69DQkJGXe0bGEJKvAgMB
AAGjggEYMIIBFDAdBgNVHQ4EFgQUEuSkGYWuhbfW62ME1bmwfldfDBYwgdQGA1Ud
IwSBzDCByYAUJ45nEXTDJh0/7TNjs6TYHTDl6NWhgZqkgZcwgZQxCzAJBgNVBAYT
AlVTMRAwDgYDVQQIDAdNb250YW5hMRAwDgYDVQQHDAdCb3plbWFuMREwDwYDVQQK
DAhTYXd0b290aDETMBEGA1UECwwKQ29uc3VsdGluZzEYMBYGA1UEAwwPd3d3Lndv
bGZzc2wuY29tMR8wHQYJKoZIhvcNAQkBFhBpbmZvQHdvbGZzc2wuY29tghR9lHCI
ugdCjaqvT77CGkjw0UDmQjAPBgNVHRMECDAGAQH/AgFkMAsGA1UdDwQEAwIBBjAN
BgkqhkiG9w0BAQsFAAOCAQEAT5cSdmDw/STK8sSJapAohv4bGfj8+LmJjowGVtWJ
qHNqEbJvzvE15D48j9WklbkkFkErCwQp3wNSP4Irvvt0KbY2bt0oVujjhcSUW5xO
CQ/AvXkqCKa2VAwk1gDYKdj/2ERXMCWzKCT4JTa25kRscgp6/A20nne4gDZJ5kd6
3cnlJ1cRUvFElqCcb/Q/Nb2BTaZh7e9DlROjVxkacDRefKm5xsagfDXVX5ifmzPz
0v1XCNuAvfoqC0T4O5d1n+aDUJJsggJ/Mu17Uk0twc8MwQlvP2NJm+ElfMUzSfZo
5H5nM2dUHEmZjL86qhzuDdF7KWpwtEfLtNmVV89ZRIUZVA==
-----END CERTIFICATE-----
