Certificate:
    Data:
        Version: 3 (0x2)
        Serial Number: 101 (0x65)
    Signature Algorithm: sha256WithRSAEncryption
        Issuer: C=US, ST=Washington, L=Seattle, O=wolfSSL Inc., OU=Engineering, CN=chainC-ICA1-pathlen1/emailAddress=info@wolfssl.com
        Validity
            Not Before: Feb 10 19:49:54 2021 GMT
            Not After : Nov  7 19:49:54 2023 GMT
        Subject: C=US, ST=Washington, L=Seattle, O=wolfSSL Inc., OU=Engineering, CN=chainC-entity/emailAddress=info@wolfssl.com
        Subject Public Key Info:
            Public Key Algorithm: rsaEncryption
                Public-Key: (2048 bit)
                Modulus:
                    00:bf:34:e1:1c:2c:2d:a4:93:b5:c4:fc:65:40:fa:
                    94:68:74:24:ff:52:a4:df:3e:f1:7c:92:14:f0:f0:
                    91:ed:9c:7e:a0:7e:b1:07:20:38:b2:c4:a2:b8:09:
                    d1:06:ee:fa:c6:7e:4d:79:be:dd:83:18:cf:e8:a7:
                    78:88:cd:44:ce:3a:40:05:7a:6e:c5:c9:e4:84:64:
                    e0:01:7d:4f:f9:87:d2:94:91:e9:c8:21:bc:71:2e:
                    ef:f6:61:23:46:6b:da:5f:32:23:a1:86:9c:c6:9a:
                    b4:98:35:6d:36:b8:34:14:fd:9d:63:2f:75:7e:58:
                    f2:08:f9:e3:32:2a:a6:d2:b1:49:05:d3:8c:d4:48:
                    5c:c2:57:07:62:4e:7a:05:23:c2:4f:ca:d5:a8:38:
                    32:92:c2:21:3b:74:3e:2d:b1:6b:57:96:81:a3:2d:
                    ce:6e:9c:d9:ce:1f:e9:42:f8:2c:bb:fe:07:57:c6:
                    c8:93:6e:89:d3:fc:d2:83:4b:c1:2c:ea:5e:41:c9:
                    7c:be:6c:23:01:89:75:1b:1f:57:ac:83:dc:da:e1:
                    63:55:d8:94:fc:2d:a6:99:15:d1:71:88:a5:1b:f5:
                    6f:39:0a:bd:ec:09:02:09:77:a7:5d:da:78:f8:8f:
                    b1:5d:a7:83:12:10:5f:89:ae:72:c2:88:bf:3e:80:
                    98:c3
                Exponent: 65537 (0x10001)
        X509v3 extensions:
            X509v3 Subject Key Identifier: 
                91:79:7C:91:A7:A0:BC:E1:7B:77:9E:51:6E:5C:A7:7A:D9:3F:18:A0
            X509v3 Authority Key Identifier: 
                keyid:94:1D:2E:07:37:C6:2F:52:C1:EC:79:6B:13:CE:09:90:5F:F4:C4:51
                DirName:/C=US/ST=Montana/L=Bozeman/O=Sawtooth/OU=Consulting/CN=www.wolfssl.com/emailAddress=info@wolfssl.com
                serial:64

            X509v3 Basic Constraints: 
                CA:FALSE
    Signature Algorithm: sha256WithRSAEncryption
         3d:59:ea:2a:2e:ce:c6:6d:eb:52:08:01:5c:bc:cb:0f:e1:6a:
         26:22:25:ad:8c:0f:34:c0:65:23:e0:6b:34:3d:6d:8d:1b:df:
         e1:57:84:92:5d:f6:cd:27:18:49:9c:58:9a:d8:ac:96:fd:44:
         fa:b9:d9:77:d2:7a:22:f7:6d:9e:3d:86:97:95:af:0c:c8:0e:
         df:78:df:3c:2f:7d:3f:85:e0:e4:03:b2:b6:32:ed:7d:53:7a:
         3f:1f:84:6c:3b:28:61:80:7e:5b:50:c8:59:a8:0f:b3:12:26:
         6a:fd:12:8f:fa:d5:12:02:43:85:c2:f4:cc:02:0d:4f:ff:cc:
         56:0f:a7:f2:7f:64:e8:77:8d:fb:21:42:6c:20:2a:99:da:a5:
         72:0c:1a:0d:ea:e0:91:3d:5a:bc:4e:96:b7:7d:50:0e:ce:1c:
         f9:7d:1f:9a:39:25:33:28:e5:45:8f:27:02:68:97:8d:f5:f0:
         3f:21:83:ff:b7:29:09:4f:46:9c:8d:ab:49:43:45:8f:4a:3b:
         1b:ae:b1:d3:9a:d8:47:1c:9b:67:3a:e4:5a:18:29:55:8d:ee:
         fd:ed:88:e7:f4:38:6c:f1:36:12:d9:d0:ee:4b:4b:17:df:74:
         18:ea:96:64:1d:84:3a:ed:38:7a:9f:95:3b:c2:5b:93:80:41:
         e1:c5:4e:19
-----BEGIN CERTIFICATE-----
MIIEqjCCA5KgAwIBAgIBZTANBgkqhkiG9w0BAQsFADCBoTELMAkGA1UEBhMCVVMx
EzARBgNVBAgMCldhc2hpbmd0b24xEDAOBgNVBAcMB1NlYXR0bGUxFTATBgNVBAoM
DHdvbGZTU0wgSW5jLjEUMBIGA1UECwwLRW5naW5lZXJpbmcxHTAbBgNVBAMMFGNo
YWluQy1JQ0ExLXBhdGhsZW4xMR8wHQYJKoZIhvcNAQkBFhBpbmZvQHdvbGZzc2wu
Y29tMB4XDTIxMDIxMDE5NDk1NFoXDTIzMTEwNzE5NDk1NFowgZoxCzAJBgNVBAYT
AlVTMRMwEQYDVQQIDApXYXNoaW5ndG9uMRAwDgYDVQQHDAdTZWF0dGxlMRUwEwYD
VQQKDAx3b2xmU1NMIEluYy4xFDASBgNVBAsMC0VuZ2luZWVyaW5nMRYwFAYDVQQD
DA1jaGFpbkMtZW50aXR5MR8wHQYJKoZIhvcNAQkBFhBpbmZvQHdvbGZzc2wuY29t
MIIBIjANBgkqhkiG9w0BAQEFAAOCAQ8AMIIBCgKCAQEAvzThHCwtpJO1xPxlQPqU
aHQk/1Kk3z7xfJIU8PCR7Zx+oH6xByA4ssSiuAnRBu76xn5Neb7dgxjP6Kd4iM1E
zjpABXpuxcnkhGTgAX1P+YfSlJHpyCG8cS7v9mEjRmvaXzIjoYacxpq0mDVtNrg0
FP2dYy91fljyCPnjMiqm0rFJBdOM1EhcwlcHYk56BSPCT8rVqDgyksIhO3Q+LbFr
V5aBoy3ObpzZzh/pQvgsu/4HV8bIk26J0/zSg0vBLOpeQcl8vmwjAYl1Gx9XrIPc
2uFjVdiU/C2mmRXRcYilG/VvOQq97AkCCXenXdp4+I+xXaeDEhBfia5ywoi/PoCY
wwIDAQABo4HxMIHuMB0GA1UdDgQWBBSReXyRp6C84Xt3nlFuXKd62T8YoDCBwQYD
VR0jBIG5MIG2gBSUHS4HN8YvUsHseWsTzgmQX/TEUaGBmqSBlzCBlDELMAkGA1UE
BhMCVVMxEDAOBgNVBAgMB01vbnRhbmExEDAOBgNVBAcMB0JvemVtYW4xETAPBgNV
BAoMCFNhd3Rvb3RoMRMwEQYDVQQLDApDb25zdWx0aW5nMRgwFgYDVQQDDA93d3cu
d29sZnNzbC5jb20xHzAdBgkqhkiG9w0BCQEWEGluZm9Ad29sZnNzbC5jb22CAWQw
CQYDVR0TBAIwADANBgkqhkiG9w0BAQsFAAOCAQEAPVnqKi7Oxm3rUggBXLzLD+Fq
JiIlrYwPNMBlI+BrND1tjRvf4VeEkl32zScYSZxYmtislv1E+rnZd9J6Ivdtnj2G
l5WvDMgO33jfPC99P4Xg5AOytjLtfVN6Px+EbDsoYYB+W1DIWagPsxImav0Sj/rV
EgJDhcL0zAINT//MVg+n8n9k6HeN+yFCbCAqmdqlcgwaDergkT1avE6Wt31QDs4c
+X0fmjklMyjlRY8nAmiXjfXwPyGD/7cpCU9GnI2rSUNFj0o7G66x05rYRxybZzrk
WhgpVY3u/e2I5/Q4bPE2EtnQ7ktLF990GOqWZB2EOu04ep+VO8Jbk4BB4cVOGQ==
-----END CERTIFICATE-----
Certificate:
    Data:
        Version: 3 (0x2)
        Serial Number: 100 (0x64)
    Signature Algorithm: sha256WithRSAEncryption
        Issuer: C=US, ST=Montana, L=Bozeman, O=Sawtooth, OU=Consulting, CN=www.wolfssl.com/emailAddress=info@wolfssl.com
        Validity
            Not Before: Feb 10 19:49:54 2021 GMT
            Not After : Nov  7 19:49:54 2023 GMT
        Subject: C=US, ST=Washington, L=Seattle, O=wolfSSL Inc., OU=Engineering, CN=chainC-ICA1-pathlen1/emailAddress=info@wolfssl.com
        Subject Public Key Info:
            Public Key Algorithm: rsaEncryption
                Public-Key: (2048 bit)
                Modulus:
                    00:bb:1a:6c:c1:bd:bb:9b:29:ca:35:3d:63:a3:29:
                    cd:a6:65:c4:9e:a3:c5:50:99:ad:51:90:0a:9a:9b:
                    83:ce:be:06:bb:66:4f:ef:1e:31:25:34:6f:5f:98:
                    ae:01:49:c3:63:17:84:b9:7a:6d:c0:d8:fd:0c:ff:
                    9a:02:4c:41:37:49:f0:18:63:1b:4f:fc:37:26:4e:
                    54:79:d7:17:39:50:79:6e:a3:29:99:07:ad:9d:5c:
                    d8:e1:02:e7:33:7e:e4:da:a4:05:bc:62:03:d3:9f:
                    6a:91:92:66:dd:29:d0:95:fb:2f:3f:f0:59:b8:70:
                    5b:25:54:7b:a0:0a:9f:33:09:64:ed:fb:d4:1c:2d:
                    96:54:45:e3:50:98:ff:b1:7f:9a:c6:cf:09:a3:da:
                    e9:57:ad:1d:05:8f:1e:75:75:e7:d2:07:33:de:da:
                    7d:42:d8:0e:94:fe:ae:c7:9b:c3:b5:9e:f3:6b:21:
                    9f:74:c4:b3:32:7c:28:4e:0f:bc:15:33:ba:9c:09:
                    3c:c1:40:06:78:bb:b1:20:3f:61:15:f6:1e:49:73:
                    51:89:95:2d:95:bf:34:d6:c2:a9:d1:34:1d:8d:21:
                    6d:4f:a3:6e:ef:fc:23:a2:76:fc:d0:25:53:0e:43:
                    76:3b:ed:82:ec:d8:23:cb:33:ef:3c:9d:a1:de:e6:
                    7a:ad
                Exponent: 65537 (0x10001)
        X509v3 extensions:
            X509v3 Subject Key Identifier: 
                94:1D:2E:07:37:C6:2F:52:C1:EC:79:6B:13:CE:09:90:5F:F4:C4:51
            X509v3 Authority Key Identifier: 
                keyid:27:8E:67:11:74:C3:26:1D:3F:ED:33:63:B3:A4:D8:1D:30:E5:E8:D5
                DirName:/C=US/ST=Montana/L=Bozeman/O=Sawtooth/OU=Consulting/CN=www.wolfssl.com/emailAddress=info@wolfssl.com
                serial:AA:D3:3F:AC:18:0A:37:4D

            X509v3 Basic Constraints: 
                CA:TRUE, pathlen:1
            X509v3 Key Usage: 
                Certificate Sign, CRL Sign
    Signature Algorithm: sha256WithRSAEncryption
         b2:28:df:aa:26:d1:ba:a6:18:a9:c3:36:29:c1:11:4f:40:e0:
         dc:5b:cd:18:3d:f4:b8:b2:79:c7:03:93:71:91:fb:0b:cd:d9:
         07:21:76:f2:48:29:28:c8:18:88:df:79:26:04:69:5e:ba:e8:
         d6:b9:4e:38:b2:9b:e9:bf:50:91:f6:cb:6f:e0:a6:36:dc:2a:
         27:6b:ca:62:3f:03:e7:cf:24:98:97:a9:c3:7a:b1:79:b3:db:
         2d:4e:38:3e:6d:d9:1d:66:cc:8e:d1:c9:9e:3e:92:8a:76:6d:
         60:53:e6:c3:27:29:dd:f0:7b:17:a5:eb:66:83:40:6c:2f:8d:
         95:d8:91:b6:08:27:1a:ef:96:10:0d:75:76:86:fa:4a:17:e4:
         10:46:16:38:42:65:8c:5e:2c:4c:c0:3f:c7:9d:29:63:53:0b:
         2e:86:44:4c:79:da:c7:2b:af:1a:92:69:43:cb:85:af:79:98:
         fc:01:88:b0:5a:f9:3a:de:f0:bb:7e:fa:37:95:9b:04:5b:eb:
         40:9d:ee:2d:cd:50:48:17:19:28:12:66:c7:d7:77:fa:ba:4c:
         c7:d1:f0:d9:2e:f4:63:40:14:87:48:03:32:99:13:ea:d7:7b:
         4b:c9:ef:16:ca:14:14:79:ed:fe:d7:f5:6f:4c:db:4c:95:a6:
         36:3d:02:0f
-----BEGIN CERTIFICATE-----
MIIEwTCCA6mgAwIBAgIBZDANBgkqhkiG9w0BAQsFADCBlDELMAkGA1UEBhMCVVMx
EDAOBgNVBAgMB01vbnRhbmExEDAOBgNVBAcMB0JvemVtYW4xETAPBgNVBAoMCFNh
d3Rvb3RoMRMwEQYDVQQLDApDb25zdWx0aW5nMRgwFgYDVQQDDA93d3cud29sZnNz
bC5jb20xHzAdBgkqhkiG9w0BCQEWEGluZm9Ad29sZnNzbC5jb20wHhcNMjEwMjEw
MTk0OTU0WhcNMjMxMTA3MTk0OTU0WjCBoTELMAkGA1UEBhMCVVMxEzARBgNVBAgM
Cldhc2hpbmd0b24xEDAOBgNVBAcMB1NlYXR0bGUxFTATBgNVBAoMDHdvbGZTU0wg
SW5jLjEUMBIGA1UECwwLRW5naW5lZXJpbmcxHTAbBgNVBAMMFGNoYWluQy1JQ0Ex
LXBhdGhsZW4xMR8wHQYJKoZIhvcNAQkBFhBpbmZvQHdvbGZzc2wuY29tMIIBIjAN
BgkqhkiG9w0BAQEFAAOCAQ8AMIIBCgKCAQEAuxpswb27mynKNT1joynNpmXEnqPF
UJmtUZAKmpuDzr4Gu2ZP7x4xJTRvX5iuAUnDYxeEuXptwNj9DP+aAkxBN0nwGGMb
T/w3Jk5UedcXOVB5bqMpmQetnVzY4QLnM37k2qQFvGID059qkZJm3SnQlfsvP/BZ
uHBbJVR7oAqfMwlk7fvUHC2WVEXjUJj/sX+axs8Jo9rpV60dBY8edXXn0gcz3tp9
QtgOlP6ux5vDtZ7zayGfdMSzMnwoTg+8FTO6nAk8wUAGeLuxID9hFfYeSXNRiZUt
lb801sKp0TQdjSFtT6Nu7/wjonb80CVTDkN2O+2C7NgjyzPvPJ2h3uZ6rQIDAQAB
o4IBDTCCAQkwHQYDVR0OBBYEFJQdLgc3xi9Swex5axPOCZBf9MRRMIHJBgNVHSME
gcEwgb6AFCeOZxF0wyYdP+0zY7Ok2B0w5ejVoYGapIGXMIGUMQswCQYDVQQGEwJV
UzEQMA4GA1UECAwHTW9udGFuYTEQMA4GA1UEBwwHQm96ZW1hbjERMA8GA1UECgwI
U2F3dG9vdGgxEzARBgNVBAsMCkNvbnN1bHRpbmcxGDAWBgNVBAMMD3d3dy53b2xm
c3NsLmNvbTEfMB0GCSqGSIb3DQEJARYQaW5mb0B3b2xmc3NsLmNvbYIJAKrTP6wY
CjdNMA8GA1UdEwQIMAYBAf8CAQEwCwYDVR0PBAQDAgEGMA0GCSqGSIb3DQEBCwUA
A4IBAQCyKN+qJtG6phipwzYpwRFPQODcW80YPfS4snnHA5NxkfsLzdkHIXbySCko
yBiI33kmBGleuujWuU44spvpv1CR9stv4KY23Cona8piPwPnzySYl6nDerF5s9st
Tjg+bdkdZsyO0cmePpKKdm1gU+bDJynd8HsXpetmg0BsL42V2JG2CCca75YQDXV2
hvpKF+QQRhY4QmWMXixMwD/HnSljUwsuhkRMedrHK68akmlDy4WveZj8AYiwWvk6
3vC7fvo3lZsEW+tAne4tzVBIFxkoEmbH13f6ukzH0fDZLvRjQBSHSAMymRPq13tL
ye8WyhQUee3+1/VvTNtMlaY2PQIP
-----END CERTIFICATE-----
