Certificate:
    Data:
        Version: 3 (0x2)
        Serial Number: 101 (0x65)
        Signature Algorithm: sha256WithRSAEncryption
        Issuer: C=US, ST=Washington, L=Seattle, O=wolfSSL Inc., OU=Engineering, CN=chainC-ICA1-pathlen1, emailAddress=facts@wolfssl.com
        Validity
            Not Before: Jun 11 21:44:38 2026 GMT
            Not After : Mar  7 21:44:38 2029 GMT
        Subject: C=US, ST=Washington, L=Seattle, O=wolfSSL Inc., OU=Engineering, CN=chainC-entity, emailAddress=facts@wolfssl.com
        Subject Public Key Info:
            Public Key Algorithm: rsaEncryption
                Public-Key: (2048 bit)
                Modulus:
                    00:bf:34:e1:1c:2c:2d:a4:93:b5:c4:fc:65:40:fa:
                    94:68:74:24:ff:52:a4:df:3e:f1:7c:92:14:f0:f0:
                    91:ed:9c:7e:a0:7e:b1:07:20:38:b2:c4:a2:b8:09:
                    d1:06:ee:fa:c6:7e:4d:79:be:dd:83:18:cf:e8:a7:
                    78:88:cd:44:ce:3a:40:05:7a:6e:c5:c9:e4:84:64:
                    e0:01:7d:4f:f9:87:d2:94:91:e9:c8:21:bc:71:2e:
                    ef:f6:61:23:46:6b:da:5f:32:23:a1:86:9c:c6:9a:
                    b4:98:35:6d:36:b8:34:14:fd:9d:63:2f:75:7e:58:
                    f2:08:f9:e3:32:2a:a6:d2:b1:49:05:d3:8c:d4:48:
                    5c:c2:57:07:62:4e:7a:05:23:c2:4f:ca:d5:a8:38:
                    32:92:c2:21:3b:74:3e:2d:b1:6b:57:96:81:a3:2d:
                    ce:6e:9c:d9:ce:1f:e9:42:f8:2c:bb:fe:07:57:c6:
                    c8:93:6e:89:d3:fc:d2:83:4b:c1:2c:ea:5e:41:c9:
                    7c:be:6c:23:01:89:75:1b:1f:57:ac:83:dc:da:e1:
                    63:55:d8:94:fc:2d:a6:99:15:d1:71:88:a5:1b:f5:
                    6f:39:0a:bd:ec:09:02:09:77:a7:5d:da:78:f8:8f:
                    b1:5d:a7:83:12:10:5f:89:ae:72:c2:88:bf:3e:80:
                    98:c3
                Exponent: 65537 (0x10001)
        X509v3 extensions:
            X509v3 Subject Key Identifier: 
                91:79:7C:91:A7:A0:BC:E1:7B:77:9E:51:6E:5C:A7:7A:D9:3F:18:A0
            X509v3 Authority Key Identifier: 
                keyid:94:1D:2E:07:37:C6:2F:52:C1:EC:79:6B:13:CE:09:90:5F:F4:C4:51
                DirName:/C=US/ST=Montana/L=Bozeman/O=Sawtooth/OU=Consulting/CN=www.wolfssl.com/emailAddress=facts@wolfssl.com
                serial:64
            X509v3 Basic Constraints: 
                CA:FALSE
    Signature Algorithm: sha256WithRSAEncryption
    Signature Value:
        49:13:c0:7d:2f:9b:3b:98:a6:54:a2:06:48:f7:2d:0a:68:f6:
        aa:08:1e:c0:29:40:ca:30:37:fc:27:e9:55:6d:aa:71:94:70:
        10:90:97:a5:2c:c2:5f:c2:bb:bf:8d:df:c1:b6:9f:e2:c7:e1:
        1f:93:12:bb:da:97:bf:b6:55:23:40:0c:d9:25:11:22:70:6c:
        c8:b6:6c:e2:6d:20:eb:b8:27:13:db:21:bc:ef:eb:b2:4f:a6:
        3f:ba:17:65:d3:ca:08:80:d2:c1:08:87:2c:21:87:85:bd:96:
        03:10:fe:4f:38:5a:11:1b:b7:36:7e:b3:0d:08:cf:f6:31:ca:
        c2:27:54:59:80:e1:b3:27:bb:65:41:30:13:c0:1d:cd:d8:39:
        73:74:01:6a:62:45:50:da:e7:33:ed:79:35:76:49:9a:d9:d7:
        a3:de:20:f6:1e:31:ca:f4:3e:fa:93:1a:56:35:25:38:92:35:
        a0:9d:d9:5a:ab:03:42:a5:24:67:12:a9:61:b4:5e:27:e7:8c:
        36:b5:74:60:41:a6:2e:ab:5a:f9:a4:c8:ad:3b:2c:59:f7:8b:
        dc:f3:52:9b:6d:cb:ec:5a:59:ec:b1:89:c9:64:d5:03:07:09:
        e1:45:0e:8b:7c:3a:c0:74:d0:8b:50:28:80:43:ef:92:39:a4:
        68:d1:ea:c0
-----BEGIN CERTIFICATE-----
MIIErTCCA5WgAwIBAgIBZTANBgkqhkiG9w0BAQsFADCBojELMAkGA1UEBhMCVVMx
EzARBgNVBAgMCldhc2hpbmd0b24xEDAOBgNVBAcMB1NlYXR0bGUxFTATBgNVBAoM
DHdvbGZTU0wgSW5jLjEUMBIGA1UECwwLRW5naW5lZXJpbmcxHTAbBgNVBAMMFGNo
YWluQy1JQ0ExLXBhdGhsZW4xMSAwHgYJKoZIhvcNAQkBFhFmYWN0c0B3b2xmc3Ns
LmNvbTAeFw0yNjA2MTEyMTQ0MzhaFw0yOTAzMDcyMTQ0MzhaMIGbMQswCQYDVQQG
EwJVUzETMBEGA1UECAwKV2FzaGluZ3RvbjEQMA4GA1UEBwwHU2VhdHRsZTEVMBMG
A1UECgwMd29sZlNTTCBJbmMuMRQwEgYDVQQLDAtFbmdpbmVlcmluZzEWMBQGA1UE
AwwNY2hhaW5DLWVudGl0eTEgMB4GCSqGSIb3DQEJARYRZmFjdHNAd29sZnNzbC5j
b20wggEiMA0GCSqGSIb3DQEBAQUAA4IBDwAwggEKAoIBAQC/NOEcLC2kk7XE/GVA
+pRodCT/UqTfPvF8khTw8JHtnH6gfrEHIDiyxKK4CdEG7vrGfk15vt2DGM/op3iI
zUTOOkAFem7FyeSEZOABfU/5h9KUkenIIbxxLu/2YSNGa9pfMiOhhpzGmrSYNW02
uDQU/Z1jL3V+WPII+eMyKqbSsUkF04zUSFzCVwdiTnoFI8JPytWoODKSwiE7dD4t
sWtXloGjLc5unNnOH+lC+Cy7/gdXxsiTbonT/NKDS8Es6l5ByXy+bCMBiXUbH1es
g9za4WNV2JT8LaaZFdFxiKUb9W85Cr3sCQIJd6dd2nj4j7Fdp4MSEF+JrnLCiL8+
gJjDAgMBAAGjgfIwge8wHQYDVR0OBBYEFJF5fJGnoLzhe3eeUW5cp3rZPxigMIHC
BgNVHSMEgbowgbeAFJQdLgc3xi9Swex5axPOCZBf9MRRoYGbpIGYMIGVMQswCQYD
VQQGEwJVUzEQMA4GA1UECAwHTW9udGFuYTEQMA4GA1UEBwwHQm96ZW1hbjERMA8G
A1UECgwIU2F3dG9vdGgxEzARBgNVBAsMCkNvbnN1bHRpbmcxGDAWBgNVBAMMD3d3
dy53b2xmc3NsLmNvbTEgMB4GCSqGSIb3DQEJARYRZmFjdHNAd29sZnNzbC5jb22C
AWQwCQYDVR0TBAIwADANBgkqhkiG9w0BAQsFAAOCAQEASRPAfS+bO5imVKIGSPct
Cmj2qggewClAyjA3/CfpVW2qcZRwEJCXpSzCX8K7v43fwbaf4sfhH5MSu9qXv7ZV
I0AM2SURInBsyLZs4m0g67gnE9shvO/rsk+mP7oXZdPKCIDSwQiHLCGHhb2WAxD+
TzhaERu3Nn6zDQjP9jHKwidUWYDhsye7ZUEwE8Adzdg5c3QBamJFUNrnM+15NXZJ
mtnXo94g9h4xyvQ++pMaVjUlOJI1oJ3ZWqsDQqUkZxKpYbReJ+eMNrV0YEGmLqta
+aTIrTssWfeL3PNSm23L7FpZ7LGJyWTVAwcJ4UUOi3w6wHTQi1AogEPvkjmkaNHq
wA==
-----END CERTIFICATE-----
