Certificate:
    Data:
        Version: 3 (0x2)
        Serial Number: 100 (0x64)
        Signature Algorithm: sha256WithRSAEncryption
        Issuer: C = US, ST = Montana, L = Bozeman, O = Sawtooth, OU = Consulting, CN = www.wolfssl.com, emailAddress = info@wolfssl.com
        Validity
            Not Before: Dec 13 22:19:33 2023 GMT
            Not After : Sep  8 22:19:33 2026 GMT
        Subject: C = US, ST = Washington, L = Seattle, O = wolfSSL Inc., OU = Engineering, CN = chainI-ICA3-pathlen2, emailAddress = info@wolfssl.com
        Subject Public Key Info:
            Public Key Algorithm: rsaEncryption
                RSA Public-Key: (2048 bit)
                Modulus:
                    00:b8:36:0c:66:a9:06:ce:ac:e0:7c:86:a1:69:9d:
                    be:28:cf:a3:81:f3:b4:dc:5f:c8:92:9d:f2:07:c0:
                    5e:04:d3:e5:74:19:fc:cf:85:7f:f7:91:8c:d5:58:
                    7c:02:4c:88:f1:4d:43:e3:07:bd:2a:4e:df:51:87:
                    29:74:c5:24:67:1d:f1:6f:8b:07:75:39:89:70:2a:
                    9c:00:e0:2e:6c:7c:74:27:18:34:fd:29:98:43:83:
                    d6:e1:51:b3:13:41:1c:bc:29:dc:8b:2f:93:08:95:
                    8b:90:22:4b:e4:98:f5:d6:70:2a:9b:8b:64:e6:49:
                    06:62:a4:23:08:60:68:97:89:a9:b2:c0:94:8e:4f:
                    39:1c:25:3b:0f:e4:c5:1d:7d:89:89:5e:c6:02:69:
                    68:fc:13:55:b5:80:6b:77:f7:59:57:0b:1c:7e:c6:
                    ed:46:c6:70:fb:34:a1:28:1c:82:b1:c2:ab:a6:c1:
                    f0:13:1b:7d:0b:bc:1a:39:23:3c:e7:1d:ee:c8:ee:
                    2f:69:5f:a1:31:3f:1a:2f:98:5d:53:d7:42:93:db:
                    49:ac:d6:7a:12:2e:9d:0d:c9:b0:ef:40:d1:a4:02:
                    5e:52:e8:fb:d4:92:07:98:b1:76:d9:16:0f:e4:8b:
                    de:dc:88:65:e0:fd:52:1d:8b:e2:e3:ed:08:37:d0:
                    11:f7
                Exponent: 65537 (0x10001)
        X509v3 extensions:
            X509v3 Subject Key Identifier: 
                EE:37:A6:F2:40:D0:EF:FD:22:C7:A3:B4:6C:57:47:40:B9:99:F9:8D
            X509v3 Authority Key Identifier: 
                keyid:27:8E:67:11:74:C3:26:1D:3F:ED:33:63:B3:A4:D8:1D:30:E5:E8:D5
                DirName:/C=US/ST=Montana/L=Bozeman/O=Sawtooth/OU=Consulting/CN=www.wolfssl.com/emailAddress=info@wolfssl.com
                serial:33:44:1A:A8:6C:01:EC:F6:60:F2:70:51:0A:4C:D1:14:FA:BC:E9:44

            X509v3 Basic Constraints: 
                CA:TRUE, pathlen:2
            X509v3 Key Usage: 
                Certificate Sign, CRL Sign
    Signature Algorithm: sha256WithRSAEncryption
         0b:91:da:f2:ae:94:93:70:85:33:26:3d:4b:23:65:52:a3:be:
         0a:ed:7c:04:16:fa:f1:5f:3b:e2:06:f7:8e:03:41:46:bc:e9:
         79:41:ff:09:a0:77:6c:58:a6:c7:0c:1d:8b:c0:f7:6c:82:93:
         74:96:18:8a:ce:a0:00:19:46:0a:0c:d1:7a:40:66:46:ad:14:
         9b:7f:bb:2f:88:c2:94:39:49:05:36:e7:f2:b0:04:44:49:e8:
         99:07:6e:50:f0:61:18:a3:4a:e0:35:06:6a:7d:af:ac:f1:93:
         fd:43:92:12:41:66:fc:60:8f:37:12:43:45:c6:38:9e:8a:e8:
         4c:1d:48:7a:62:d2:e1:f4:99:12:5b:98:5a:2e:59:07:86:64:
         af:4d:33:2e:e7:26:f2:68:7b:1e:4e:1b:60:bd:5d:19:d3:7c:
         04:32:26:ea:23:33:6f:8d:30:27:84:4a:3d:8a:63:4f:02:81:
         5a:ab:ea:ae:58:0a:ce:7e:74:a1:75:6a:c4:64:ae:a7:0a:31:
         2f:41:ed:c5:12:7c:4a:34:e8:6d:22:f4:9f:3d:f2:4a:8c:ee:
         7c:e7:81:50:e0:e5:f0:52:7d:28:79:3a:5a:c4:85:fb:7b:e6:
         26:1f:71:47:c6:97:8b:4d:39:eb:4b:46:4c:d7:d7:d3:15:b6:
         82:78:83:17
-----BEGIN CERTIFICATE-----
MIIEzDCCA7SgAwIBAgIBZDANBgkqhkiG9w0BAQsFADCBlDELMAkGA1UEBhMCVVMx
EDAOBgNVBAgMB01vbnRhbmExEDAOBgNVBAcMB0JvemVtYW4xETAPBgNVBAoMCFNh
d3Rvb3RoMRMwEQYDVQQLDApDb25zdWx0aW5nMRgwFgYDVQQDDA93d3cud29sZnNz
bC5jb20xHzAdBgkqhkiG9w0BCQEWEGluZm9Ad29sZnNzbC5jb20wHhcNMjMxMjEz
MjIxOTMzWhcNMjYwOTA4MjIxOTMzWjCBoTELMAkGA1UEBhMCVVMxEzARBgNVBAgM
Cldhc2hpbmd0b24xEDAOBgNVBAcMB1NlYXR0bGUxFTATBgNVBAoMDHdvbGZTU0wg
SW5jLjEUMBIGA1UECwwLRW5naW5lZXJpbmcxHTAbBgNVBAMMFGNoYWluSS1JQ0Ez
LXBhdGhsZW4yMR8wHQYJKoZIhvcNAQkBFhBpbmZvQHdvbGZzc2wuY29tMIIBIjAN
BgkqhkiG9w0BAQEFAAOCAQ8AMIIBCgKCAQEAuDYMZqkGzqzgfIahaZ2+KM+jgfO0
3F/Ikp3yB8BeBNPldBn8z4V/95GM1Vh8AkyI8U1D4we9Kk7fUYcpdMUkZx3xb4sH
dTmJcCqcAOAubHx0Jxg0/SmYQ4PW4VGzE0EcvCnciy+TCJWLkCJL5Jj11nAqm4tk
5kkGYqQjCGBol4mpssCUjk85HCU7D+TFHX2JiV7GAmlo/BNVtYBrd/dZVwscfsbt
RsZw+zShKByCscKrpsHwExt9C7waOSM85x3uyO4vaV+hMT8aL5hdU9dCk9tJrNZ6
Ei6dDcmw70DRpAJeUuj71JIHmLF22RYP5Ive3Ihl4P1SHYvi4+0IN9AR9wIDAQAB
o4IBGDCCARQwHQYDVR0OBBYEFO43pvJA0O/9IsejtGxXR0C5mfmNMIHUBgNVHSME
gcwwgcmAFCeOZxF0wyYdP+0zY7Ok2B0w5ejVoYGapIGXMIGUMQswCQYDVQQGEwJV
UzEQMA4GA1UECAwHTW9udGFuYTEQMA4GA1UEBwwHQm96ZW1hbjERMA8GA1UECgwI
U2F3dG9vdGgxEzARBgNVBAsMCkNvbnN1bHRpbmcxGDAWBgNVBAMMD3d3dy53b2xm
c3NsLmNvbTEfMB0GCSqGSIb3DQEJARYQaW5mb0B3b2xmc3NsLmNvbYIUM0QaqGwB
7PZg8nBRCkzRFPq86UQwDwYDVR0TBAgwBgEB/wIBAjALBgNVHQ8EBAMCAQYwDQYJ
KoZIhvcNAQELBQADggEBAAuR2vKulJNwhTMmPUsjZVKjvgrtfAQW+vFfO+IG944D
QUa86XlB/wmgd2xYpscMHYvA92yCk3SWGIrOoAAZRgoM0XpAZkatFJt/uy+IwpQ5
SQU25/KwBERJ6JkHblDwYRijSuA1Bmp9r6zxk/1DkhJBZvxgjzcSQ0XGOJ6K6Ewd
SHpi0uH0mRJbmFouWQeGZK9NMy7nJvJoex5OG2C9XRnTfAQyJuojM2+NMCeESj2K
Y08CgVqr6q5YCs5+dKF1asRkrqcKMS9B7cUSfEo06G0i9J898kqM7nzngVDg5fBS
fSh5OlrEhft75iYfcUfGl4tNOetLRkzX19MVtoJ4gxc=
-----END CERTIFICATE-----
