Certificate:
    Data:
        Version: 3 (0x2)
        Serial Number: 100 (0x64)
        Signature Algorithm: sha256WithRSAEncryption
        Issuer: C=US, ST=Washington, L=Seattle, O=wolfSSL Inc., OU=Engineering, CN=chainG-ICA7-pathlen100, emailAddress=facts@wolfssl.com
        Validity
            Not Before: Jun 11 21:44:39 2026 GMT
            Not After : Mar  7 21:44:39 2029 GMT
        Subject: C=US, ST=Washington, L=Seattle, O=wolfSSL Inc., OU=Engineering, CN=chainG-ICA6-pathlen10, emailAddress=facts@wolfssl.com
        Subject Public Key Info:
            Public Key Algorithm: rsaEncryption
                Public-Key: (2048 bit)
                Modulus:
                    00:e1:4f:c9:e7:30:ea:06:ff:65:cb:2b:6c:f1:a8:
                    ac:f6:cf:10:6b:80:7a:af:5e:42:0a:0d:61:be:6f:
                    14:3c:9f:64:6e:96:46:77:e2:64:a0:0e:d7:56:41:
                    fc:5b:e6:fe:49:86:1f:8f:20:cc:4b:ec:3a:f1:46:
                    74:1a:7e:33:d9:aa:d5:e2:78:09:dd:0c:39:20:7e:
                    32:12:96:cd:96:db:10:01:e8:b7:aa:e3:e1:27:5d:
                    0a:8f:99:6e:ef:2d:d8:c8:c8:76:aa:d9:00:9d:48:
                    d9:cf:12:08:97:31:59:c0:4f:a3:e0:ee:5c:a1:35:
                    ef:94:7c:c6:04:aa:3e:34:a6:43:e0:c8:ed:3d:91:
                    53:53:9e:19:03:8e:bf:30:fd:d9:b5:4b:f3:51:0b:
                    60:ed:27:e2:b1:dd:15:3c:b0:5f:25:0f:29:9b:5f:
                    aa:31:64:5e:3d:83:2e:b8:20:66:b9:da:a7:b5:22:
                    40:19:3d:24:5d:c3:e7:dd:b6:6b:16:c3:67:23:5d:
                    31:65:3b:cb:72:d1:a7:c8:b0:e0:b9:a2:cb:90:86:
                    30:d6:ce:7f:9c:b3:b1:c3:34:62:63:c6:b9:66:33:
                    6b:5b:a6:00:bb:45:ee:03:07:96:a5:d7:2f:1e:f1:
                    d2:f2:5e:c2:d2:a1:36:25:f0:7a:70:cb:3d:1d:a4:
                    6f:61
                Exponent: 65537 (0x10001)
        X509v3 extensions:
            X509v3 Subject Key Identifier: 
                14:07:E8:A7:3A:A2:9C:DD:4C:30:B0:4D:F0:00:C4:88:C4:39:DF:73
            X509v3 Authority Key Identifier: 
                keyid:12:E4:A4:19:85:AE:85:B7:D6:EB:63:04:D5:B9:B0:7E:57:5F:0C:16
                DirName:/C=US/ST=Montana/L=Bozeman/O=Sawtooth/OU=Consulting/CN=www.wolfssl.com/emailAddress=facts@wolfssl.com
                serial:64
            X509v3 Basic Constraints: 
                CA:TRUE, pathlen:10
            X509v3 Key Usage: 
                Certificate Sign, CRL Sign
    Signature Algorithm: sha256WithRSAEncryption
    Signature Value:
        cb:10:75:89:18:6c:12:f3:0c:0c:8c:ac:47:70:a4:00:3b:ae:
        c7:9e:eb:14:9f:7d:e1:e4:4c:06:ed:c3:b5:c3:1d:74:b5:f8:
        36:1e:89:bb:f5:98:af:d8:ee:63:91:43:9a:05:6e:1f:54:95:
        4b:f3:70:ab:06:9e:2c:b1:b4:aa:7d:3c:58:93:71:1b:cd:fe:
        b6:7c:8b:05:d5:d6:07:20:b1:5b:d5:1a:29:70:24:6c:0c:cf:
        c9:c6:4b:7f:9a:bf:4d:63:cb:8c:7c:8a:08:78:33:e0:ab:4c:
        07:07:8a:9f:8c:96:36:71:ea:f8:ff:c6:fe:36:38:5a:f2:27:
        e4:d4:d4:17:69:e2:c6:1a:1b:85:18:b9:c0:eb:0d:ec:6b:a3:
        ba:1f:58:77:56:fe:6e:6f:eb:80:f0:51:08:ab:9f:23:81:b4:
        9b:b1:99:ca:65:87:a7:1c:92:34:ed:e1:d1:fb:95:3c:85:32:
        91:e2:3f:2e:aa:85:90:5c:c7:81:1f:12:b3:93:e6:1c:1e:66:
        f8:5b:1a:33:63:59:ec:87:aa:8f:4f:66:07:47:60:29:2f:6c:
        ee:66:e8:bb:86:55:2b:1a:75:2f:04:3c:94:35:3f:00:96:65:
        2e:42:de:2c:65:58:cd:e5:3f:fa:a2:68:da:52:95:48:4b:ae:
        ab:de:46:d1
-----BEGIN CERTIFICATE-----
MIIEzDCCA7SgAwIBAgIBZDANBgkqhkiG9w0BAQsFADCBpDELMAkGA1UEBhMCVVMx
EzARBgNVBAgMCldhc2hpbmd0b24xEDAOBgNVBAcMB1NlYXR0bGUxFTATBgNVBAoM
DHdvbGZTU0wgSW5jLjEUMBIGA1UECwwLRW5naW5lZXJpbmcxHzAdBgNVBAMMFmNo
YWluRy1JQ0E3LXBhdGhsZW4xMDAxIDAeBgkqhkiG9w0BCQEWEWZhY3RzQHdvbGZz
c2wuY29tMB4XDTI2MDYxMTIxNDQzOVoXDTI5MDMwNzIxNDQzOVowgaMxCzAJBgNV
BAYTAlVTMRMwEQYDVQQIDApXYXNoaW5ndG9uMRAwDgYDVQQHDAdTZWF0dGxlMRUw
EwYDVQQKDAx3b2xmU1NMIEluYy4xFDASBgNVBAsMC0VuZ2luZWVyaW5nMR4wHAYD
VQQDDBVjaGFpbkctSUNBNi1wYXRobGVuMTAxIDAeBgkqhkiG9w0BCQEWEWZhY3Rz
QHdvbGZzc2wuY29tMIIBIjANBgkqhkiG9w0BAQEFAAOCAQ8AMIIBCgKCAQEA4U/J
5zDqBv9lyyts8ais9s8Qa4B6r15CCg1hvm8UPJ9kbpZGd+JkoA7XVkH8W+b+SYYf
jyDMS+w68UZ0Gn4z2arV4ngJ3Qw5IH4yEpbNltsQAei3quPhJ10Kj5lu7y3YyMh2
qtkAnUjZzxIIlzFZwE+j4O5coTXvlHzGBKo+NKZD4MjtPZFTU54ZA46/MP3ZtUvz
UQtg7Sfisd0VPLBfJQ8pm1+qMWRePYMuuCBmudqntSJAGT0kXcPn3bZrFsNnI10x
ZTvLctGnyLDguaLLkIYw1s5/nLOxwzRiY8a5ZjNrW6YAu0XuAweWpdcvHvHS8l7C
0qE2JfB6cMs9HaRvYQIDAQABo4IBBjCCAQIwHQYDVR0OBBYEFBQH6Kc6opzdTDCw
TfAAxIjEOd9zMIHCBgNVHSMEgbowgbeAFBLkpBmFroW31utjBNW5sH5XXwwWoYGb
pIGYMIGVMQswCQYDVQQGEwJVUzEQMA4GA1UECAwHTW9udGFuYTEQMA4GA1UEBwwH
Qm96ZW1hbjERMA8GA1UECgwIU2F3dG9vdGgxEzARBgNVBAsMCkNvbnN1bHRpbmcx
GDAWBgNVBAMMD3d3dy53b2xmc3NsLmNvbTEgMB4GCSqGSIb3DQEJARYRZmFjdHNA
d29sZnNzbC5jb22CAWQwDwYDVR0TBAgwBgEB/wIBCjALBgNVHQ8EBAMCAQYwDQYJ
KoZIhvcNAQELBQADggEBAMsQdYkYbBLzDAyMrEdwpAA7rsee6xSffeHkTAbtw7XD
HXS1+DYeibv1mK/Y7mORQ5oFbh9UlUvzcKsGniyxtKp9PFiTcRvN/rZ8iwXV1gcg
sVvVGilwJGwMz8nGS3+av01jy4x8igh4M+CrTAcHip+MljZx6vj/xv42OFryJ+TU
1Bdp4sYaG4UYucDrDexro7ofWHdW/m5v64DwUQirnyOBtJuxmcplh6cckjTt4dH7
lTyFMpHiPy6qhZBcx4EfErOT5hweZvhbGjNjWeyHqo9PZgdHYCkvbO5m6LuGVSsa
dS8EPJQ1PwCWZS5C3ixlWM3lP/qiaNpSlUhLrqveRtE=
-----END CERTIFICATE-----
