Certificate:
    Data:
        Version: 3 (0x2)
        Serial Number: 100 (0x64)
        Signature Algorithm: sha256WithRSAEncryption
        Issuer: C=US, ST=Montana, L=Bozeman, O=Sawtooth, OU=Consulting, CN=www.wolfssl.com, emailAddress=info@wolfssl.com
        Validity
            Not Before: Nov 13 20:41:41 2025 GMT
            Not After : Aug  9 20:41:41 2028 GMT
        Subject: C=US, ST=Washington, L=Seattle, O=wolfSSL Inc., OU=Engineering, CN=chainC-ICA1-pathlen1, emailAddress=info@wolfssl.com
        Subject Public Key Info:
            Public Key Algorithm: rsaEncryption
                Public-Key: (2048 bit)
                Modulus:
                    00:bb:1a:6c:c1:bd:bb:9b:29:ca:35:3d:63:a3:29:
                    cd:a6:65:c4:9e:a3:c5:50:99:ad:51:90:0a:9a:9b:
                    83:ce:be:06:bb:66:4f:ef:1e:31:25:34:6f:5f:98:
                    ae:01:49:c3:63:17:84:b9:7a:6d:c0:d8:fd:0c:ff:
                    9a:02:4c:41:37:49:f0:18:63:1b:4f:fc:37:26:4e:
                    54:79:d7:17:39:50:79:6e:a3:29:99:07:ad:9d:5c:
                    d8:e1:02:e7:33:7e:e4:da:a4:05:bc:62:03:d3:9f:
                    6a:91:92:66:dd:29:d0:95:fb:2f:3f:f0:59:b8:70:
                    5b:25:54:7b:a0:0a:9f:33:09:64:ed:fb:d4:1c:2d:
                    96:54:45:e3:50:98:ff:b1:7f:9a:c6:cf:09:a3:da:
                    e9:57:ad:1d:05:8f:1e:75:75:e7:d2:07:33:de:da:
                    7d:42:d8:0e:94:fe:ae:c7:9b:c3:b5:9e:f3:6b:21:
                    9f:74:c4:b3:32:7c:28:4e:0f:bc:15:33:ba:9c:09:
                    3c:c1:40:06:78:bb:b1:20:3f:61:15:f6:1e:49:73:
                    51:89:95:2d:95:bf:34:d6:c2:a9:d1:34:1d:8d:21:
                    6d:4f:a3:6e:ef:fc:23:a2:76:fc:d0:25:53:0e:43:
                    76:3b:ed:82:ec:d8:23:cb:33:ef:3c:9d:a1:de:e6:
                    7a:ad
                Exponent: 65537 (0x10001)
        X509v3 extensions:
            X509v3 Subject Key Identifier: 
                94:1D:2E:07:37:C6:2F:52:C1:EC:79:6B:13:CE:09:90:5F:F4:C4:51
            X509v3 Authority Key Identifier: 
                keyid:27:8E:67:11:74:C3:26:1D:3F:ED:33:63:B3:A4:D8:1D:30:E5:E8:D5
                DirName:/C=US/ST=Montana/L=Bozeman/O=Sawtooth/OU=Consulting/CN=www.wolfssl.com/emailAddress=info@wolfssl.com
                serial:3F:29:11:20:57:71:E7:8E:F9:18:0D:CA:70:4D:5B:15:2A:43:D6:24
            X509v3 Basic Constraints: 
                CA:TRUE, pathlen:1
            X509v3 Key Usage: 
                Certificate Sign, CRL Sign
    Signature Algorithm: sha256WithRSAEncryption
    Signature Value:
        37:cb:f3:b6:1f:2b:7f:63:a3:6c:15:96:b6:a8:0b:1c:64:39:
        e1:b1:16:9c:13:a8:d0:63:07:a4:ac:ef:cd:e2:e3:74:74:c8:
        01:19:cc:57:ee:22:01:ea:da:39:85:70:91:d5:02:fe:c7:85:
        06:d8:40:ce:7f:4c:8a:c4:9e:ab:29:3e:85:f4:90:d4:b0:40:
        8e:75:5b:1b:8f:a5:88:86:e1:39:d4:e7:a8:60:da:1f:b5:01:
        22:da:0a:af:c1:b9:99:29:77:e2:a3:88:89:72:e3:e7:0d:ac:
        70:a0:2a:74:e0:39:4a:c1:1b:7a:64:bc:78:46:21:22:66:f0:
        78:14:42:97:72:a3:b7:81:5a:97:a4:4d:ef:89:70:f0:de:50:
        29:20:d9:da:6b:37:63:50:b1:92:0a:7b:d5:67:e7:5b:28:1c:
        4f:d0:10:5d:49:90:dc:25:19:5b:8a:43:fb:15:0a:13:22:5f:
        03:9f:1f:85:3d:4a:ef:da:be:18:27:34:c7:33:6b:9e:9a:64:
        ca:e8:62:0f:de:2e:5d:cd:4e:ba:1f:36:f2:9d:d6:74:5d:69:
        fe:88:ae:74:86:39:42:81:bd:eb:99:4f:1c:b3:24:a4:65:c3:
        50:a9:be:d7:55:47:d6:9c:49:74:24:41:1a:21:25:c3:e2:38:
        d1:e2:43:41
-----BEGIN CERTIFICATE-----
MIIEzDCCA7SgAwIBAgIBZDANBgkqhkiG9w0BAQsFADCBlDELMAkGA1UEBhMCVVMx
EDAOBgNVBAgMB01vbnRhbmExEDAOBgNVBAcMB0JvemVtYW4xETAPBgNVBAoMCFNh
d3Rvb3RoMRMwEQYDVQQLDApDb25zdWx0aW5nMRgwFgYDVQQDDA93d3cud29sZnNz
bC5jb20xHzAdBgkqhkiG9w0BCQEWEGluZm9Ad29sZnNzbC5jb20wHhcNMjUxMTEz
MjA0MTQxWhcNMjgwODA5MjA0MTQxWjCBoTELMAkGA1UEBhMCVVMxEzARBgNVBAgM
Cldhc2hpbmd0b24xEDAOBgNVBAcMB1NlYXR0bGUxFTATBgNVBAoMDHdvbGZTU0wg
SW5jLjEUMBIGA1UECwwLRW5naW5lZXJpbmcxHTAbBgNVBAMMFGNoYWluQy1JQ0Ex
LXBhdGhsZW4xMR8wHQYJKoZIhvcNAQkBFhBpbmZvQHdvbGZzc2wuY29tMIIBIjAN
BgkqhkiG9w0BAQEFAAOCAQ8AMIIBCgKCAQEAuxpswb27mynKNT1joynNpmXEnqPF
UJmtUZAKmpuDzr4Gu2ZP7x4xJTRvX5iuAUnDYxeEuXptwNj9DP+aAkxBN0nwGGMb
T/w3Jk5UedcXOVB5bqMpmQetnVzY4QLnM37k2qQFvGID059qkZJm3SnQlfsvP/BZ
uHBbJVR7oAqfMwlk7fvUHC2WVEXjUJj/sX+axs8Jo9rpV60dBY8edXXn0gcz3tp9
QtgOlP6ux5vDtZ7zayGfdMSzMnwoTg+8FTO6nAk8wUAGeLuxID9hFfYeSXNRiZUt
lb801sKp0TQdjSFtT6Nu7/wjonb80CVTDkN2O+2C7NgjyzPvPJ2h3uZ6rQIDAQAB
o4IBGDCCARQwHQYDVR0OBBYEFJQdLgc3xi9Swex5axPOCZBf9MRRMIHUBgNVHSME
gcwwgcmAFCeOZxF0wyYdP+0zY7Ok2B0w5ejVoYGapIGXMIGUMQswCQYDVQQGEwJV
UzEQMA4GA1UECAwHTW9udGFuYTEQMA4GA1UEBwwHQm96ZW1hbjERMA8GA1UECgwI
U2F3dG9vdGgxEzARBgNVBAsMCkNvbnN1bHRpbmcxGDAWBgNVBAMMD3d3dy53b2xm
c3NsLmNvbTEfMB0GCSqGSIb3DQEJARYQaW5mb0B3b2xmc3NsLmNvbYIUPykRIFdx
5475GA3KcE1bFSpD1iQwDwYDVR0TBAgwBgEB/wIBATALBgNVHQ8EBAMCAQYwDQYJ
KoZIhvcNAQELBQADggEBADfL87YfK39jo2wVlraoCxxkOeGxFpwTqNBjB6Ss783i
43R0yAEZzFfuIgHq2jmFcJHVAv7HhQbYQM5/TIrEnqspPoX0kNSwQI51WxuPpYiG
4TnU56hg2h+1ASLaCq/BuZkpd+KjiIly4+cNrHCgKnTgOUrBG3pkvHhGISJm8HgU
Qpdyo7eBWpekTe+JcPDeUCkg2dprN2NQsZIKe9Vn51soHE/QEF1JkNwlGVuKQ/sV
ChMiXwOfH4U9Su/avhgnNMcza56aZMroYg/eLl3NTrofNvKd1nRdaf6IrnSGOUKB
veuZTxyzJKRlw1CpvtdVR9acSXQkQRohJcPiONHiQ0E=
-----END CERTIFICATE-----
