Certificate:
    Data:
        Version: 3 (0x2)
        Serial Number: 100 (0x64)
        Signature Algorithm: sha256WithRSAEncryption
        Issuer: C=US, ST=Washington, L=Seattle, O=wolfSSL Inc., OU=Engineering, CN=chainF-ICA2-pathlen0, emailAddress=facts@wolfssl.com
        Validity
            Not Before: Jun 11 21:44:39 2026 GMT
            Not After : Mar  7 21:44:39 2029 GMT
        Subject: C=US, ST=Washington, L=Seattle, O=wolfSSL Inc., OU=Engineering, CN=chainF-ICA1-pathlen1, emailAddress=facts@wolfssl.com
        Subject Public Key Info:
            Public Key Algorithm: rsaEncryption
                Public-Key: (2048 bit)
                Modulus:
                    00:e0:13:c9:b0:8e:9d:3f:88:d4:30:4a:b4:e8:11:
                    21:93:5c:20:45:08:f8:7a:91:b9:2c:ad:ff:60:aa:
                    16:9f:1c:bb:88:b8:3d:0a:39:c1:89:a9:76:ca:8e:
                    6c:72:72:7e:6e:74:a6:36:2c:69:df:33:d6:e9:66:
                    70:65:7f:ba:2a:44:17:62:9f:33:46:12:e6:03:a5:
                    a6:e2:5c:09:07:cf:bc:8d:76:fe:a0:fd:d7:72:4a:
                    94:c8:ca:2f:95:91:9c:0a:77:7f:82:23:be:72:27:
                    29:45:cd:41:cf:ec:e1:84:cf:67:d0:18:98:b9:31:
                    be:c9:fe:98:5d:3f:aa:d2:83:76:45:85:ab:08:86:
                    63:58:5b:b3:e5:4a:43:3d:a1:99:e2:80:d1:2b:b2:
                    06:e3:f0:10:85:f9:a6:36:b8:52:2b:9d:73:3b:34:
                    23:51:3d:fe:56:2f:e9:39:b2:68:07:3e:6f:52:7b:
                    f4:40:d4:72:fa:69:19:ca:ff:22:c8:45:95:05:5e:
                    91:08:3f:27:2d:41:d1:74:a5:06:9c:f3:40:bd:bb:
                    fc:65:63:86:ed:80:22:50:c1:f6:4f:dc:8f:43:4c:
                    5e:fb:bf:d9:6d:1f:b4:84:0f:1e:e8:c6:5d:c5:53:
                    d5:2c:c9:7f:6b:98:93:a7:5d:35:9a:17:62:91:2e:
                    20:c1
                Exponent: 65537 (0x10001)
        X509v3 extensions:
            X509v3 Subject Key Identifier: 
                75:32:21:05:2B:60:FE:44:17:AF:18:65:86:85:19:82:3F:F9:64:83
            X509v3 Authority Key Identifier: 
                keyid:4A:53:4A:B7:30:78:35:91:B4:CB:DD:C8:22:74:89:AF:80:0F:7F:68
                DirName:/C=US/ST=Montana/L=Bozeman/O=Sawtooth/OU=Consulting/CN=www.wolfssl.com/emailAddress=facts@wolfssl.com
                serial:64
            X509v3 Basic Constraints: 
                CA:TRUE, pathlen:1
            X509v3 Key Usage: 
                Certificate Sign, CRL Sign
    Signature Algorithm: sha256WithRSAEncryption
    Signature Value:
        7d:16:c2:14:45:2b:6b:7a:98:0e:b9:f0:bb:3e:88:d3:21:a7:
        bf:fc:3b:a5:0e:02:54:0a:07:d0:fe:93:01:b9:6c:4e:2f:1a:
        01:6f:b6:0c:72:7e:a4:70:ae:39:5b:e9:84:92:09:12:98:82:
        b0:a9:e9:30:2e:4e:34:36:45:73:9f:4a:ed:c7:4f:5b:c2:27:
        53:88:cf:da:88:e1:fe:40:85:d8:2d:fa:d1:1f:9a:0c:46:7a:
        d4:32:0d:2b:04:1f:85:4d:06:b9:21:8f:e3:0e:21:cf:fd:66:
        6a:c5:d9:41:84:f5:54:dc:73:85:1b:3e:05:f7:c3:60:81:90:
        22:57:91:08:de:d8:d2:b7:15:2a:ba:cc:6d:7c:57:9b:54:37:
        e2:9f:3a:d2:7b:ce:e2:b7:eb:0d:c0:7f:09:08:42:f3:f8:18:
        d4:38:ac:18:94:06:6f:06:e4:2f:1a:30:f1:09:25:de:5c:b7:
        93:f5:b6:c4:55:f1:d7:b0:b9:5e:56:dd:15:51:3b:fb:d1:5c:
        c0:fd:ff:25:58:73:c3:04:52:6b:ec:85:f9:24:f3:0f:8e:a1:
        b3:ed:d8:be:e7:fa:ba:17:40:79:3c:a3:93:f9:19:b7:44:0a:
        a0:db:0b:02:42:37:db:1a:f2:af:2d:9a:e9:43:72:b9:e5:80:
        2c:6c:94:91
-----BEGIN CERTIFICATE-----
MIIEyTCCA7GgAwIBAgIBZDANBgkqhkiG9w0BAQsFADCBojELMAkGA1UEBhMCVVMx
EzARBgNVBAgMCldhc2hpbmd0b24xEDAOBgNVBAcMB1NlYXR0bGUxFTATBgNVBAoM
DHdvbGZTU0wgSW5jLjEUMBIGA1UECwwLRW5naW5lZXJpbmcxHTAbBgNVBAMMFGNo
YWluRi1JQ0EyLXBhdGhsZW4wMSAwHgYJKoZIhvcNAQkBFhFmYWN0c0B3b2xmc3Ns
LmNvbTAeFw0yNjA2MTEyMTQ0MzlaFw0yOTAzMDcyMTQ0MzlaMIGiMQswCQYDVQQG
EwJVUzETMBEGA1UECAwKV2FzaGluZ3RvbjEQMA4GA1UEBwwHU2VhdHRsZTEVMBMG
A1UECgwMd29sZlNTTCBJbmMuMRQwEgYDVQQLDAtFbmdpbmVlcmluZzEdMBsGA1UE
AwwUY2hhaW5GLUlDQTEtcGF0aGxlbjExIDAeBgkqhkiG9w0BCQEWEWZhY3RzQHdv
bGZzc2wuY29tMIIBIjANBgkqhkiG9w0BAQEFAAOCAQ8AMIIBCgKCAQEA4BPJsI6d
P4jUMEq06BEhk1wgRQj4epG5LK3/YKoWnxy7iLg9CjnBial2yo5scnJ+bnSmNixp
3zPW6WZwZX+6KkQXYp8zRhLmA6Wm4lwJB8+8jXb+oP3XckqUyMovlZGcCnd/giO+
cicpRc1Bz+zhhM9n0BiYuTG+yf6YXT+q0oN2RYWrCIZjWFuz5UpDPaGZ4oDRK7IG
4/AQhfmmNrhSK51zOzQjUT3+Vi/pObJoBz5vUnv0QNRy+mkZyv8iyEWVBV6RCD8n
LUHRdKUGnPNAvbv8ZWOG7YAiUMH2T9yPQ0xe+7/ZbR+0hA8e6MZdxVPVLMl/a5iT
p101mhdikS4gwQIDAQABo4IBBjCCAQIwHQYDVR0OBBYEFHUyIQUrYP5EF68YZYaF
GYI/+WSDMIHCBgNVHSMEgbowgbeAFEpTSrcweDWRtMvdyCJ0ia+AD39ooYGbpIGY
MIGVMQswCQYDVQQGEwJVUzEQMA4GA1UECAwHTW9udGFuYTEQMA4GA1UEBwwHQm96
ZW1hbjERMA8GA1UECgwIU2F3dG9vdGgxEzARBgNVBAsMCkNvbnN1bHRpbmcxGDAW
BgNVBAMMD3d3dy53b2xmc3NsLmNvbTEgMB4GCSqGSIb3DQEJARYRZmFjdHNAd29s
ZnNzbC5jb22CAWQwDwYDVR0TBAgwBgEB/wIBATALBgNVHQ8EBAMCAQYwDQYJKoZI
hvcNAQELBQADggEBAH0WwhRFK2t6mA658Ls+iNMhp7/8O6UOAlQKB9D+kwG5bE4v
GgFvtgxyfqRwrjlb6YSSCRKYgrCp6TAuTjQ2RXOfSu3HT1vCJ1OIz9qI4f5Ahdgt
+tEfmgxGetQyDSsEH4VNBrkhj+MOIc/9ZmrF2UGE9VTcc4UbPgX3w2CBkCJXkQje
2NK3FSq6zG18V5tUN+KfOtJ7zuK36w3AfwkIQvP4GNQ4rBiUBm8G5C8aMPEJJd5c
t5P1tsRV8dewuV5W3RVRO/vRXMD9/yVYc8MEUmvshfkk8w+OobPt2L7n+roXQHk8
o5P5GbdECqDbCwJCN9sa8q8tmulDcrnlgCxslJE=
-----END CERTIFICATE-----
