Certificate:
    Data:
        Version: 3 (0x2)
        Serial Number: 100 (0x64)
        Signature Algorithm: sha256WithRSAEncryption
        Issuer: C = US, ST = Washington, L = Seattle, O = wolfSSL Inc., OU = Engineering, CN = chainG-ICA4-pathlen5, emailAddress = info@wolfssl.com
        Validity
            Not Before: Feb 15 12:50:26 2022 GMT
            Not After : Nov 11 12:50:26 2024 GMT
        Subject: C = US, ST = Washington, L = Seattle, O = wolfSSL Inc., OU = Engineering, CN = chainG-ICA3-pathlen99, emailAddress = info@wolfssl.com
        Subject Public Key Info:
            Public Key Algorithm: rsaEncryption
                RSA Public-Key: (2048 bit)
                Modulus:
                    00:ac:f1:39:65:f7:9c:9d:f6:f0:d2:b7:18:16:24:
                    81:32:b7:a5:29:d6:f7:4e:31:38:a7:54:d6:eb:07:
                    97:27:a1:92:e0:c1:3a:b5:93:06:17:ef:a7:74:f8:
                    9b:42:97:0c:d6:d3:d4:36:c9:61:ef:92:4c:3e:c4:
                    74:08:d6:19:2a:cd:9b:f1:6f:e8:c8:67:9f:28:54:
                    99:ce:63:1a:87:56:99:36:31:65:05:c5:d6:97:cf:
                    51:e4:2d:3d:74:14:31:d3:c3:05:fc:0e:7c:93:57:
                    cd:f7:c4:97:d7:5c:65:75:e7:35:85:81:27:eb:9a:
                    9f:d7:a2:bc:28:41:a8:ce:92:3a:10:b9:35:28:83:
                    dc:b0:27:cc:6e:20:03:60:13:23:22:b4:3c:25:58:
                    ae:a1:b2:24:d1:21:8b:b9:f0:28:84:ae:e6:00:cc:
                    cb:9b:78:8c:fa:4b:ed:73:7a:91:05:f9:fb:6e:34:
                    3b:7e:af:f9:45:9e:a0:d5:62:bb:d8:cd:95:9e:a2:
                    90:72:27:e0:3e:b9:b0:5e:0a:b2:e4:55:95:03:0c:
                    a6:66:44:65:db:0a:9f:90:5a:d3:81:c7:e2:3e:f2:
                    b0:9a:e0:05:1c:de:64:04:c2:7e:ca:7e:df:a1:f6:
                    18:e5:94:d3:74:fb:a5:1f:2d:77:cd:6e:5e:55:a3:
                    80:cb
                Exponent: 65537 (0x10001)
        X509v3 extensions:
            X509v3 Subject Key Identifier: 
                C1:CD:1F:81:13:82:24:3B:CF:64:51:7A:4C:E3:65:2E:75:1E:01:23
            X509v3 Authority Key Identifier: 
                keyid:D4:92:AE:BD:3B:1C:66:4B:17:88:18:15:F8:27:AB:38:CC:07:5A:65
                DirName:/C=US/ST=Washington/L=Seattle/O=wolfSSL Inc./OU=Engineering/CN=chainG-ICA5-pathlen20/emailAddress=info@wolfssl.com
                serial:64

            X509v3 Basic Constraints: 
                CA:TRUE, pathlen:99
            X509v3 Key Usage: 
                Certificate Sign, CRL Sign
    Signature Algorithm: sha256WithRSAEncryption
         99:83:82:65:f3:22:1d:d7:19:8a:10:27:2c:4c:33:d1:ef:92:
         e3:f8:73:fc:b0:f1:2f:8a:ed:3a:18:86:aa:cf:a2:69:2b:a5:
         70:e2:19:ae:89:fa:9d:79:98:1a:b8:72:9e:27:d3:8e:98:8d:
         db:f2:1f:c5:67:73:b5:79:f5:79:ba:82:7e:6f:f6:62:ac:8d:
         c0:b5:c1:11:a6:5c:c7:02:eb:24:b5:d9:b2:30:9a:75:1e:0a:
         29:dd:0a:6c:7c:ef:d0:64:73:cc:1f:0d:a3:a3:0b:57:c8:29:
         6b:1c:17:2c:8b:cf:e7:d3:5c:9d:fa:05:ee:e6:61:10:6a:11:
         93:a9:b7:dc:67:d2:76:08:e6:1e:20:45:d3:9d:11:9a:1b:5c:
         1e:89:a1:37:cb:56:9e:5a:9d:46:7e:1d:67:e3:45:33:9b:84:
         a3:3c:90:19:f9:d7:7c:6a:5e:35:c5:4c:eb:29:1f:9f:31:d3:
         97:f0:af:a5:2a:ad:8f:2e:b4:b2:b0:1d:41:80:fa:47:d7:16:
         f2:54:0e:c2:19:44:a5:0c:0c:d1:44:93:49:b9:3d:2c:9a:4a:
         50:d8:0d:76:68:06:66:53:73:da:58:a5:05:00:89:0d:56:5b:
         01:09:9f:93:38:cb:1c:ce:c2:a9:1d:74:67:00:85:13:02:7d:
         56:26:a8:86
-----BEGIN CERTIFICATE-----
MIIE1TCCA72gAwIBAgIBZDANBgkqhkiG9w0BAQsFADCBoTELMAkGA1UEBhMCVVMx
EzARBgNVBAgMCldhc2hpbmd0b24xEDAOBgNVBAcMB1NlYXR0bGUxFTATBgNVBAoM
DHdvbGZTU0wgSW5jLjEUMBIGA1UECwwLRW5naW5lZXJpbmcxHTAbBgNVBAMMFGNo
YWluRy1JQ0E0LXBhdGhsZW41MR8wHQYJKoZIhvcNAQkBFhBpbmZvQHdvbGZzc2wu
Y29tMB4XDTIyMDIxNTEyNTAyNloXDTI0MTExMTEyNTAyNlowgaIxCzAJBgNVBAYT
AlVTMRMwEQYDVQQIDApXYXNoaW5ndG9uMRAwDgYDVQQHDAdTZWF0dGxlMRUwEwYD
VQQKDAx3b2xmU1NMIEluYy4xFDASBgNVBAsMC0VuZ2luZWVyaW5nMR4wHAYDVQQD
DBVjaGFpbkctSUNBMy1wYXRobGVuOTkxHzAdBgkqhkiG9w0BCQEWEGluZm9Ad29s
ZnNzbC5jb20wggEiMA0GCSqGSIb3DQEBAQUAA4IBDwAwggEKAoIBAQCs8Tll95yd
9vDStxgWJIEyt6Up1vdOMTinVNbrB5cnoZLgwTq1kwYX76d0+JtClwzW09Q2yWHv
kkw+xHQI1hkqzZvxb+jIZ58oVJnOYxqHVpk2MWUFxdaXz1HkLT10FDHTwwX8DnyT
V833xJfXXGV15zWFgSfrmp/XorwoQajOkjoQuTUog9ywJ8xuIANgEyMitDwlWK6h
siTRIYu58CiEruYAzMubeIz6S+1zepEF+ftuNDt+r/lFnqDVYrvYzZWeopByJ+A+
ubBeCrLkVZUDDKZmRGXbCp+QWtOBx+I+8rCa4AUc3mQEwn7Kft+h9hjllNN0+6Uf
LXfNbl5Vo4DLAgMBAAGjggETMIIBDzAdBgNVHQ4EFgQUwc0fgROCJDvPZFF6TONl
LnUeASMwgc8GA1UdIwSBxzCBxIAU1JKuvTscZksXiBgV+CerOMwHWmWhgaikgaUw
gaIxCzAJBgNVBAYTAlVTMRMwEQYDVQQIDApXYXNoaW5ndG9uMRAwDgYDVQQHDAdT
ZWF0dGxlMRUwEwYDVQQKDAx3b2xmU1NMIEluYy4xFDASBgNVBAsMC0VuZ2luZWVy
aW5nMR4wHAYDVQQDDBVjaGFpbkctSUNBNS1wYXRobGVuMjAxHzAdBgkqhkiG9w0B
CQEWEGluZm9Ad29sZnNzbC5jb22CAWQwDwYDVR0TBAgwBgEB/wIBYzALBgNVHQ8E
BAMCAQYwDQYJKoZIhvcNAQELBQADggEBAJmDgmXzIh3XGYoQJyxMM9HvkuP4c/yw
8S+K7ToYhqrPomkrpXDiGa6J+p15mBq4cp4n046YjdvyH8Vnc7V59Xm6gn5v9mKs
jcC1wRGmXMcC6yS12bIwmnUeCindCmx879Bkc8wfDaOjC1fIKWscFyyLz+fTXJ36
Be7mYRBqEZOpt9xn0nYI5h4gRdOdEZobXB6JoTfLVp5anUZ+HWfjRTObhKM8kBn5
13xqXjXFTOspH58x05fwr6UqrY8utLKwHUGA+kfXFvJUDsIZRKUMDNFEk0m5PSya
SlDYDXZoBmZTc9pYpQUAiQ1WWwEJn5M4yxzOwqkddGcAhRMCfVYmqIY=
-----END CERTIFICATE-----
