Certificate:
    Data:
        Version: 3 (0x2)
        Serial Number: 101 (0x65)
        Signature Algorithm: sha256WithRSAEncryption
        Issuer: C = US, ST = Washington, L = Seattle, O = wolfSSL Inc., OU = Engineering, CN = chainG-ICA1-pathlen0, emailAddress = info@wolfssl.com
        Validity
            Not Before: May  7 07:39:05 2020 GMT
            Not After : Feb  1 07:39:05 2023 GMT
        Subject: C = US, ST = Washington, L = Seattle, O = wolfSSL Inc., OU = Engineering, CN = chainG-entity, emailAddress = info@wolfssl.com
        Subject Public Key Info:
            Public Key Algorithm: rsaEncryption
                RSA Public-Key: (2048 bit)
                Modulus:
                    00:bb:7b:82:23:a2:34:e7:cb:89:4e:64:cc:f2:98:
                    c8:65:8f:e2:69:55:54:4b:3c:8b:c0:1f:67:37:7f:
                    09:cb:9e:df:5e:75:f6:99:83:12:ac:15:23:cf:64:
                    a4:10:16:a5:10:af:28:86:00:20:4e:f3:4d:fd:08:
                    fb:a1:a7:18:4c:13:1e:4d:90:2e:e6:9a:e3:28:03:
                    b4:f4:83:ce:fd:a2:a9:86:56:02:62:33:9f:6e:98:
                    7e:0f:cc:06:71:31:8a:93:d2:d9:a3:1d:08:7a:92:
                    f8:7e:bf:90:5f:a1:e6:2b:64:58:bb:a6:9a:c9:19:
                    97:fd:c9:a9:f7:08:27:8a:f3:be:e2:db:88:25:84:
                    91:13:06:e2:63:bc:e1:37:82:7e:6f:5a:da:f0:e2:
                    eb:a1:2a:8f:5d:52:11:af:e2:f5:89:42:79:83:b8:
                    c0:a5:95:dc:42:c6:1c:90:51:1e:33:f3:f1:c2:e4:
                    d2:7b:87:c3:64:90:b7:5f:9b:38:ef:d2:d0:4f:d5:
                    51:aa:e0:3a:d1:c3:01:03:e7:32:b1:27:c6:48:5a:
                    c0:ac:26:8d:94:61:76:f8:98:ff:30:6d:aa:55:c3:
                    63:fd:a4:a4:1b:3c:6b:e8:05:75:41:17:5d:ad:c9:
                    17:9b:c3:4d:6e:9f:7d:7d:36:fe:c0:a3:99:d6:e5:
                    92:ad
                Exponent: 65537 (0x10001)
        X509v3 extensions:
            X509v3 Subject Key Identifier: 
                21:3A:72:3B:95:38:DF:99:DE:62:25:21:D0:14:81:6E:CA:AA:FB:A1
            X509v3 Authority Key Identifier: 
                keyid:47:C0:19:4B:ED:C4:DA:97:B1:60:EA:5A:0A:42:6D:A5:D3:D8:25:31
                DirName:/C=US/ST=Washington/L=Seattle/O=wolfSSL Inc./OU=Engineering/CN=chainG-ICA2-pathlen1/emailAddress=info@wolfssl.com
                serial:64

            X509v3 Basic Constraints: 
                CA:FALSE
    Signature Algorithm: sha256WithRSAEncryption
         b1:66:36:26:0a:3c:98:7f:bc:40:7b:e6:4b:18:ea:9f:3d:11:
         03:84:fd:b1:45:db:6b:e2:e2:4b:7f:d5:ae:be:9e:49:44:e2:
         e5:65:b0:12:ed:f4:13:ce:b9:50:7d:c0:39:2f:f4:b8:76:ce:
         1d:7d:00:63:cd:2d:6a:2d:52:89:c7:2a:d0:ec:75:a7:ca:2c:
         af:3a:22:07:c9:4b:44:4a:8e:29:46:2c:14:59:0c:d4:c2:2b:
         3f:92:ec:82:f8:65:62:fa:08:69:f7:f9:04:5d:80:f8:64:cb:
         df:0d:90:8f:bc:39:fd:3d:f5:20:7d:85:90:2f:c2:e7:91:8a:
         11:c8:6e:c5:ce:06:3d:d1:5f:c8:5d:c7:cb:07:24:d8:8c:bd:
         52:e6:f4:10:03:70:a8:ae:29:80:e3:d5:30:74:52:60:67:6a:
         19:14:2b:65:82:2a:9b:a4:94:20:14:d5:21:18:e4:8f:92:a8:
         43:00:16:f1:19:ee:a4:83:48:66:cf:a4:49:dc:62:1b:3f:0b:
         5e:cd:71:68:8e:29:cf:50:2e:02:57:9e:ea:df:97:4e:72:d5:
         b9:ea:e2:66:18:44:0b:27:c6:68:b5:98:ab:52:56:d5:26:46:
         88:6a:ff:fc:eb:37:e9:36:04:28:77:89:06:7e:b8:25:07:83:
         cd:f6:b5:5d
-----BEGIN CERTIFICATE-----
MIIEtzCCA5+gAwIBAgIBZTANBgkqhkiG9w0BAQsFADCBoTELMAkGA1UEBhMCVVMx
EzARBgNVBAgMCldhc2hpbmd0b24xEDAOBgNVBAcMB1NlYXR0bGUxFTATBgNVBAoM
DHdvbGZTU0wgSW5jLjEUMBIGA1UECwwLRW5naW5lZXJpbmcxHTAbBgNVBAMMFGNo
YWluRy1JQ0ExLXBhdGhsZW4wMR8wHQYJKoZIhvcNAQkBFhBpbmZvQHdvbGZzc2wu
Y29tMB4XDTIwMDUwNzA3MzkwNVoXDTIzMDIwMTA3MzkwNVowgZoxCzAJBgNVBAYT
AlVTMRMwEQYDVQQIDApXYXNoaW5ndG9uMRAwDgYDVQQHDAdTZWF0dGxlMRUwEwYD
VQQKDAx3b2xmU1NMIEluYy4xFDASBgNVBAsMC0VuZ2luZWVyaW5nMRYwFAYDVQQD
DA1jaGFpbkctZW50aXR5MR8wHQYJKoZIhvcNAQkBFhBpbmZvQHdvbGZzc2wuY29t
MIIBIjANBgkqhkiG9w0BAQEFAAOCAQ8AMIIBCgKCAQEAu3uCI6I058uJTmTM8pjI
ZY/iaVVUSzyLwB9nN38Jy57fXnX2mYMSrBUjz2SkEBalEK8ohgAgTvNN/Qj7oacY
TBMeTZAu5prjKAO09IPO/aKphlYCYjOfbph+D8wGcTGKk9LZox0IepL4fr+QX6Hm
K2RYu6aayRmX/cmp9wgnivO+4tuIJYSREwbiY7zhN4J+b1ra8OLroSqPXVIRr+L1
iUJ5g7jApZXcQsYckFEeM/PxwuTSe4fDZJC3X5s479LQT9VRquA60cMBA+cysSfG
SFrArCaNlGF2+Jj/MG2qVcNj/aSkGzxr6AV1QRddrckXm8NNbp99fTb+wKOZ1uWS
rQIDAQABo4H+MIH7MB0GA1UdDgQWBBQhOnI7lTjfmd5iJSHQFIFuyqr7oTCBzgYD
VR0jBIHGMIHDgBRHwBlL7cTal7Fg6loKQm2l09glMaGBp6SBpDCBoTELMAkGA1UE
BhMCVVMxEzARBgNVBAgMCldhc2hpbmd0b24xEDAOBgNVBAcMB1NlYXR0bGUxFTAT
BgNVBAoMDHdvbGZTU0wgSW5jLjEUMBIGA1UECwwLRW5naW5lZXJpbmcxHTAbBgNV
BAMMFGNoYWluRy1JQ0EyLXBhdGhsZW4xMR8wHQYJKoZIhvcNAQkBFhBpbmZvQHdv
bGZzc2wuY29tggFkMAkGA1UdEwQCMAAwDQYJKoZIhvcNAQELBQADggEBALFmNiYK
PJh/vEB75ksY6p89EQOE/bFF22vi4kt/1a6+nklE4uVlsBLt9BPOuVB9wDkv9Lh2
zh19AGPNLWotUonHKtDsdafKLK86IgfJS0RKjilGLBRZDNTCKz+S7IL4ZWL6CGn3
+QRdgPhky98NkI+8Of099SB9hZAvwueRihHIbsXOBj3RX8hdx8sHJNiMvVLm9BAD
cKiuKYDj1TB0UmBnahkUK2WCKpuklCAU1SEY5I+SqEMAFvEZ7qSDSGbPpEncYhs/
C17NcWiOKc9QLgJXnurfl05y1bnq4mYYRAsnxmi1mKtSVtUmRohq//zrN+k2BCh3
iQZ+uCUHg832tV0=
-----END CERTIFICATE-----
