Certificate:
    Data:
        Version: 3 (0x2)
        Serial Number: 101 (0x65)
        Signature Algorithm: sha1WithRSAEncryption
        Issuer: C = US, ST = Washington, L = Seattle, O = wolfSSL Inc., OU = Engineering, CN = chainG-ICA1-pathlen0, emailAddress = info@wolfssl.com
        Validity
            Not Before: Oct 10 21:32:43 2019 GMT
            Not After : Jul  6 21:32:43 2022 GMT
        Subject: C = US, ST = Washington, L = Seattle, O = wolfSSL Inc., OU = Engineering, CN = chainG-entity, emailAddress = info@wolfssl.com
        Subject Public Key Info:
            Public Key Algorithm: rsaEncryption
                RSA Public-Key: (2048 bit)
                Modulus:
                    00:bb:7b:82:23:a2:34:e7:cb:89:4e:64:cc:f2:98:
                    c8:65:8f:e2:69:55:54:4b:3c:8b:c0:1f:67:37:7f:
                    09:cb:9e:df:5e:75:f6:99:83:12:ac:15:23:cf:64:
                    a4:10:16:a5:10:af:28:86:00:20:4e:f3:4d:fd:08:
                    fb:a1:a7:18:4c:13:1e:4d:90:2e:e6:9a:e3:28:03:
                    b4:f4:83:ce:fd:a2:a9:86:56:02:62:33:9f:6e:98:
                    7e:0f:cc:06:71:31:8a:93:d2:d9:a3:1d:08:7a:92:
                    f8:7e:bf:90:5f:a1:e6:2b:64:58:bb:a6:9a:c9:19:
                    97:fd:c9:a9:f7:08:27:8a:f3:be:e2:db:88:25:84:
                    91:13:06:e2:63:bc:e1:37:82:7e:6f:5a:da:f0:e2:
                    eb:a1:2a:8f:5d:52:11:af:e2:f5:89:42:79:83:b8:
                    c0:a5:95:dc:42:c6:1c:90:51:1e:33:f3:f1:c2:e4:
                    d2:7b:87:c3:64:90:b7:5f:9b:38:ef:d2:d0:4f:d5:
                    51:aa:e0:3a:d1:c3:01:03:e7:32:b1:27:c6:48:5a:
                    c0:ac:26:8d:94:61:76:f8:98:ff:30:6d:aa:55:c3:
                    63:fd:a4:a4:1b:3c:6b:e8:05:75:41:17:5d:ad:c9:
                    17:9b:c3:4d:6e:9f:7d:7d:36:fe:c0:a3:99:d6:e5:
                    92:ad
                Exponent: 65537 (0x10001)
        X509v3 extensions:
            X509v3 Subject Key Identifier: 
                21:3A:72:3B:95:38:DF:99:DE:62:25:21:D0:14:81:6E:CA:AA:FB:A1
            X509v3 Authority Key Identifier: 
                keyid:47:C0:19:4B:ED:C4:DA:97:B1:60:EA:5A:0A:42:6D:A5:D3:D8:25:31
                DirName:/C=US/ST=Washington/L=Seattle/O=wolfSSL Inc./OU=Engineering/CN=chainG-ICA2-pathlen1/emailAddress=info@wolfssl.com
                serial:64

            X509v3 Basic Constraints: 
                CA:FALSE
    Signature Algorithm: sha1WithRSAEncryption
         bc:c9:54:09:60:0c:7b:8b:2d:f2:9b:92:20:a6:09:11:37:b8:
         9b:42:dc:ae:c8:b5:aa:07:d9:65:bf:c5:41:58:68:95:fd:b1:
         43:08:df:60:39:84:2a:0d:fe:f3:19:2f:78:39:15:57:f1:b7:
         15:dc:bd:b1:72:68:6a:2e:93:95:74:9d:5a:ec:c7:48:f0:11:
         cb:df:d3:d4:ec:31:90:48:b4:d6:19:f5:11:5c:34:18:31:cd:
         ec:56:27:f3:0a:42:97:85:c4:9b:87:05:6d:09:19:e2:ef:82:
         9f:38:79:ec:0d:ed:14:68:fd:87:e0:2f:16:51:19:86:5b:1f:
         80:4b:c6:8b:0f:05:4d:05:55:71:89:d7:f3:6b:03:d7:da:ba:
         e5:07:a5:82:48:ca:bc:f9:e9:51:db:ac:cd:8c:51:a9:70:79:
         15:ff:42:15:46:ea:a7:59:ab:13:c1:7e:26:18:f5:fe:06:c1:
         ce:3a:d1:25:28:ff:bd:5b:a8:ca:d3:e6:4c:d8:23:81:11:3f:
         ed:4d:b1:1a:e3:be:92:11:25:38:ca:b2:6c:22:b5:7b:75:07:
         2a:9c:4d:a9:9b:bc:4a:fb:b2:cf:a4:fb:e9:5a:9f:04:02:00:
         9f:ac:f5:db:bc:14:4b:9f:36:cd:2e:39:b2:1a:38:b1:2f:b7:
         49:95:7e:49
-----BEGIN CERTIFICATE-----
MIIEtzCCA5+gAwIBAgIBZTANBgkqhkiG9w0BAQUFADCBoTELMAkGA1UEBhMCVVMx
EzARBgNVBAgMCldhc2hpbmd0b24xEDAOBgNVBAcMB1NlYXR0bGUxFTATBgNVBAoM
DHdvbGZTU0wgSW5jLjEUMBIGA1UECwwLRW5naW5lZXJpbmcxHTAbBgNVBAMMFGNo
YWluRy1JQ0ExLXBhdGhsZW4wMR8wHQYJKoZIhvcNAQkBFhBpbmZvQHdvbGZzc2wu
Y29tMB4XDTE5MTAxMDIxMzI0M1oXDTIyMDcwNjIxMzI0M1owgZoxCzAJBgNVBAYT
AlVTMRMwEQYDVQQIDApXYXNoaW5ndG9uMRAwDgYDVQQHDAdTZWF0dGxlMRUwEwYD
VQQKDAx3b2xmU1NMIEluYy4xFDASBgNVBAsMC0VuZ2luZWVyaW5nMRYwFAYDVQQD
DA1jaGFpbkctZW50aXR5MR8wHQYJKoZIhvcNAQkBFhBpbmZvQHdvbGZzc2wuY29t
MIIBIjANBgkqhkiG9w0BAQEFAAOCAQ8AMIIBCgKCAQEAu3uCI6I058uJTmTM8pjI
ZY/iaVVUSzyLwB9nN38Jy57fXnX2mYMSrBUjz2SkEBalEK8ohgAgTvNN/Qj7oacY
TBMeTZAu5prjKAO09IPO/aKphlYCYjOfbph+D8wGcTGKk9LZox0IepL4fr+QX6Hm
K2RYu6aayRmX/cmp9wgnivO+4tuIJYSREwbiY7zhN4J+b1ra8OLroSqPXVIRr+L1
iUJ5g7jApZXcQsYckFEeM/PxwuTSe4fDZJC3X5s479LQT9VRquA60cMBA+cysSfG
SFrArCaNlGF2+Jj/MG2qVcNj/aSkGzxr6AV1QRddrckXm8NNbp99fTb+wKOZ1uWS
rQIDAQABo4H+MIH7MB0GA1UdDgQWBBQhOnI7lTjfmd5iJSHQFIFuyqr7oTCBzgYD
VR0jBIHGMIHDgBRHwBlL7cTal7Fg6loKQm2l09glMaGBp6SBpDCBoTELMAkGA1UE
BhMCVVMxEzARBgNVBAgMCldhc2hpbmd0b24xEDAOBgNVBAcMB1NlYXR0bGUxFTAT
BgNVBAoMDHdvbGZTU0wgSW5jLjEUMBIGA1UECwwLRW5naW5lZXJpbmcxHTAbBgNV
BAMMFGNoYWluRy1JQ0EyLXBhdGhsZW4xMR8wHQYJKoZIhvcNAQkBFhBpbmZvQHdv
bGZzc2wuY29tggFkMAkGA1UdEwQCMAAwDQYJKoZIhvcNAQEFBQADggEBALzJVAlg
DHuLLfKbkiCmCRE3uJtC3K7ItaoH2WW/xUFYaJX9sUMI32A5hCoN/vMZL3g5FVfx
txXcvbFyaGouk5V0nVrsx0jwEcvf09TsMZBItNYZ9RFcNBgxzexWJ/MKQpeFxJuH
BW0JGeLvgp84eewN7RRo/YfgLxZRGYZbH4BLxosPBU0FVXGJ1/NrA9fauuUHpYJI
yrz56VHbrM2MUalweRX/QhVG6qdZqxPBfiYY9f4Gwc460SUo/71bqMrT5kzYI4ER
P+1NsRrjvpIRJTjKsmwitXt1ByqcTambvEr7ss+k++lanwQCAJ+s9du8FEufNs0u
ObIaOLEvt0mVfkk=
-----END CERTIFICATE-----
