Certificate:
    Data:
        Version: 3 (0x2)
        Serial Number: 100 (0x64)
        Signature Algorithm: sha256WithRSAEncryption
        Issuer: C=US, ST=Washington, L=Seattle, O=wolfSSL Inc., OU=Engineering, CN=chainG-ICA3-pathlen99, emailAddress=info@wolfssl.com
        Validity
            Not Before: Nov 13 20:41:45 2025 GMT
            Not After : Aug  9 20:41:45 2028 GMT
        Subject: C=US, ST=Washington, L=Seattle, O=wolfSSL Inc., OU=Engineering, CN=chainG-ICA2-pathlen1, emailAddress=info@wolfssl.com
        Subject Public Key Info:
            Public Key Algorithm: rsaEncryption
                Public-Key: (2048 bit)
                Modulus:
                    00:d7:3e:de:b9:f9:a9:d7:8e:7a:4b:f2:f1:8c:f9:
                    3b:1c:ce:59:31:4c:57:0c:2e:8a:0f:90:f0:dc:27:
                    55:0b:10:c3:a2:e8:b9:39:75:17:d1:9d:99:43:94:
                    b2:f1:56:76:6b:b9:46:a6:b8:35:95:a1:d2:d0:ec:
                    8e:be:95:dc:78:17:0a:41:a1:23:df:cb:b2:87:cb:
                    2e:1d:02:7d:c4:fe:7a:f6:7a:d8:a5:8d:b5:11:1a:
                    e4:6b:d2:66:01:01:03:a7:3b:95:49:92:5d:c1:c7:
                    49:f0:1a:ef:00:71:37:99:5a:87:0a:40:de:55:0e:
                    68:89:dc:e7:a1:14:bf:9d:72:93:7e:48:29:e4:ea:
                    a6:4f:0a:7a:a5:a1:39:6c:21:84:3a:8f:ca:7a:35:
                    0b:0a:cd:12:67:3c:56:06:f5:9d:24:c9:8e:4a:82:
                    23:c8:38:7f:ac:98:b6:b2:57:dc:82:62:84:00:13:
                    7b:ea:73:80:26:4a:9b:c1:b4:0a:f1:fc:ff:46:58:
                    96:a0:21:a1:c9:8f:d9:99:74:41:0b:d0:6d:31:a7:
                    ab:87:92:76:51:42:ef:88:95:cc:2c:f2:9b:cc:d5:
                    29:a0:f7:aa:6b:e1:ab:32:16:cd:55:c4:15:80:69:
                    80:91:d8:78:2c:07:15:fd:c2:02:a4:f4:13:75:50:
                    b8:2b
                Exponent: 65537 (0x10001)
        X509v3 extensions:
            X509v3 Subject Key Identifier: 
                E1:E6:9B:28:CF:FD:AB:45:C1:B7:A7:C4:C9:58:FC:41:E3:1A:5C:74
            X509v3 Authority Key Identifier: 
                keyid:C1:CD:1F:81:13:82:24:3B:CF:64:51:7A:4C:E3:65:2E:75:1E:01:23
                DirName:/C=US/ST=Washington/L=Seattle/O=wolfSSL Inc./OU=Engineering/CN=chainG-ICA4-pathlen5/emailAddress=info@wolfssl.com
                serial:64
            X509v3 Basic Constraints: 
                CA:TRUE, pathlen:1
            X509v3 Key Usage: 
                Certificate Sign, CRL Sign
    Signature Algorithm: sha256WithRSAEncryption
    Signature Value:
        0d:43:b7:2a:1a:47:42:55:9e:44:a6:fd:02:de:75:fe:25:af:
        74:01:3c:a5:ff:3e:00:98:78:eb:14:0b:52:c0:e8:19:76:65:
        d8:d3:26:96:24:2a:0a:70:b5:b9:c2:70:2a:70:09:32:19:71:
        77:23:4b:80:e9:a0:89:10:e4:7a:d1:91:83:ce:e1:44:5e:82:
        b8:05:f7:9f:44:74:e1:92:a3:30:86:50:fa:78:5d:1e:89:41:
        b7:75:50:d5:1e:ce:88:14:a2:18:83:6f:cb:f4:74:ac:8e:09:
        bf:ec:3d:7a:17:59:9a:2d:b7:0e:89:6e:c9:52:3f:2e:f6:39:
        27:f1:49:8a:fb:60:c0:b4:78:6c:f5:a6:e2:fa:e4:1b:64:8c:
        c9:56:f8:c7:c1:38:4b:d7:00:dd:16:86:5f:81:66:ac:63:09:
        71:a0:42:b0:be:1e:f6:7f:6e:9e:5a:bc:bf:92:93:c3:89:86:
        d5:4d:ce:bf:e7:d5:94:20:29:0b:d2:f0:4e:f0:d8:97:e3:49:
        1e:54:34:4e:b3:6d:bf:34:e1:8d:cb:4a:04:cc:df:43:0a:9c:
        50:44:03:e2:2f:dc:ce:c6:eb:f1:10:46:ba:d5:ec:7c:9b:77:
        5a:0f:63:e0:dd:5f:38:12:73:cc:20:1c:0b:93:75:86:ec:b9:
        21:52:01:fa
-----BEGIN CERTIFICATE-----
MIIE1DCCA7ygAwIBAgIBZDANBgkqhkiG9w0BAQsFADCBojELMAkGA1UEBhMCVVMx
EzARBgNVBAgMCldhc2hpbmd0b24xEDAOBgNVBAcMB1NlYXR0bGUxFTATBgNVBAoM
DHdvbGZTU0wgSW5jLjEUMBIGA1UECwwLRW5naW5lZXJpbmcxHjAcBgNVBAMMFWNo
YWluRy1JQ0EzLXBhdGhsZW45OTEfMB0GCSqGSIb3DQEJARYQaW5mb0B3b2xmc3Ns
LmNvbTAeFw0yNTExMTMyMDQxNDVaFw0yODA4MDkyMDQxNDVaMIGhMQswCQYDVQQG
EwJVUzETMBEGA1UECAwKV2FzaGluZ3RvbjEQMA4GA1UEBwwHU2VhdHRsZTEVMBMG
A1UECgwMd29sZlNTTCBJbmMuMRQwEgYDVQQLDAtFbmdpbmVlcmluZzEdMBsGA1UE
AwwUY2hhaW5HLUlDQTItcGF0aGxlbjExHzAdBgkqhkiG9w0BCQEWEGluZm9Ad29s
ZnNzbC5jb20wggEiMA0GCSqGSIb3DQEBAQUAA4IBDwAwggEKAoIBAQDXPt65+anX
jnpL8vGM+TsczlkxTFcMLooPkPDcJ1ULEMOi6Lk5dRfRnZlDlLLxVnZruUamuDWV
odLQ7I6+ldx4FwpBoSPfy7KHyy4dAn3E/nr2etiljbURGuRr0mYBAQOnO5VJkl3B
x0nwGu8AcTeZWocKQN5VDmiJ3OehFL+dcpN+SCnk6qZPCnqloTlsIYQ6j8p6NQsK
zRJnPFYG9Z0kyY5KgiPIOH+smLayV9yCYoQAE3vqc4AmSpvBtArx/P9GWJagIaHJ
j9mZdEEL0G0xp6uHknZRQu+Ilcws8pvM1Smg96pr4asyFs1VxBWAaYCR2HgsBxX9
wgKk9BN1ULgrAgMBAAGjggESMIIBDjAdBgNVHQ4EFgQU4eabKM/9q0XBt6fEyVj8
QeMaXHQwgc4GA1UdIwSBxjCBw4AUwc0fgROCJDvPZFF6TONlLnUeASOhgaekgaQw
gaExCzAJBgNVBAYTAlVTMRMwEQYDVQQIDApXYXNoaW5ndG9uMRAwDgYDVQQHDAdT
ZWF0dGxlMRUwEwYDVQQKDAx3b2xmU1NMIEluYy4xFDASBgNVBAsMC0VuZ2luZWVy
aW5nMR0wGwYDVQQDDBRjaGFpbkctSUNBNC1wYXRobGVuNTEfMB0GCSqGSIb3DQEJ
ARYQaW5mb0B3b2xmc3NsLmNvbYIBZDAPBgNVHRMECDAGAQH/AgEBMAsGA1UdDwQE
AwIBBjANBgkqhkiG9w0BAQsFAAOCAQEADUO3KhpHQlWeRKb9At51/iWvdAE8pf8+
AJh46xQLUsDoGXZl2NMmliQqCnC1ucJwKnAJMhlxdyNLgOmgiRDketGRg87hRF6C
uAX3n0R04ZKjMIZQ+nhdHolBt3VQ1R7OiBSiGINvy/R0rI4Jv+w9ehdZmi23Dolu
yVI/LvY5J/FJivtgwLR4bPWm4vrkG2SMyVb4x8E4S9cA3RaGX4FmrGMJcaBCsL4e
9n9unlq8v5KTw4mG1U3Ov+fVlCApC9LwTvDYl+NJHlQ0TrNtvzThjctKBMzfQwqc
UEQD4i/czsbr8RBGutXsfJt3Wg9j4N1fOBJzzCAcC5N1huy5IVIB+g==
-----END CERTIFICATE-----
