Certificate:
    Data:
        Version: 3 (0x2)
        Serial Number: 100 (0x64)
        Signature Algorithm: sha256WithRSAEncryption
        Issuer: C=US, ST=Washington, L=Seattle, O=wolfSSL Inc., OU=Engineering, CN=chainI-ICA3-pathlen2, emailAddress=info@wolfssl.com
        Validity
            Not Before: Nov 13 20:41:47 2025 GMT
            Not After : Aug  9 20:41:47 2028 GMT
        Subject: C=US, ST=Washington, L=Seattle, O=wolfSSL Inc., OU=Engineering, CN=chainI-ICA2-no_pathlen, emailAddress=info@wolfssl.com
        Subject Public Key Info:
            Public Key Algorithm: rsaEncryption
                Public-Key: (2048 bit)
                Modulus:
                    00:de:1e:08:66:12:fe:20:07:10:1b:a1:27:0d:f9:
                    22:30:81:9b:ce:62:b1:a6:6d:49:d4:ed:b8:2d:4b:
                    97:77:1e:94:51:3d:73:2b:16:e9:05:e9:4c:1b:82:
                    ad:47:9d:33:30:53:b5:9b:d2:2d:e9:7b:d6:63:f3:
                    61:20:1b:23:6e:47:09:8b:c0:d5:09:85:a6:e2:e4:
                    3a:4d:b3:f9:dd:c6:7c:9a:42:07:22:d5:7b:67:18:
                    38:c4:fc:ea:8d:09:80:a0:b0:44:33:fd:c1:aa:8b:
                    9c:98:e3:95:c3:74:71:3b:71:b8:b3:80:bf:30:63:
                    85:09:27:8b:12:b5:86:b0:0b:99:ff:97:42:52:a0:
                    ac:b2:38:38:8d:13:96:d9:d6:fa:8f:c4:89:14:06:
                    9c:1f:0a:a3:3a:a2:f7:1f:83:d8:ae:41:44:9e:21:
                    b2:5b:b7:a2:19:e9:46:58:de:e5:a2:ab:07:7a:9a:
                    9a:60:bc:14:ed:cf:4d:42:fc:5c:28:ea:42:d1:ae:
                    cc:71:7e:52:5d:84:88:de:b6:7d:72:6e:ab:73:4b:
                    0d:ab:92:9f:11:b4:51:da:14:54:9a:0e:ec:ac:42:
                    fc:71:87:5b:54:38:09:2c:f0:5d:86:0c:34:b7:92:
                    33:5c:3e:19:b1:4d:a0:62:9b:b4:68:36:36:38:ec:
                    29:b3
                Exponent: 65537 (0x10001)
        X509v3 extensions:
            X509v3 Subject Key Identifier: 
                D1:BA:FB:FF:1D:29:41:8A:6A:5F:B2:F3:A7:41:05:47:09:1F:48:42
            X509v3 Authority Key Identifier: 
                keyid:EE:37:A6:F2:40:D0:EF:FD:22:C7:A3:B4:6C:57:47:40:B9:99:F9:8D
                DirName:/C=US/ST=Montana/L=Bozeman/O=Sawtooth/OU=Consulting/CN=www.wolfssl.com/emailAddress=info@wolfssl.com
                serial:64
            X509v3 Basic Constraints: 
                CA:TRUE
            X509v3 Key Usage: 
                Certificate Sign, CRL Sign
    Signature Algorithm: sha256WithRSAEncryption
    Signature Value:
        89:0a:f5:53:14:52:a5:54:0e:95:ac:99:08:7c:db:38:04:f8:
        74:d9:50:80:48:a2:47:9d:4e:af:f7:f9:a7:87:5f:dd:8a:9b:
        10:df:e0:d5:c0:a1:dd:78:e9:b8:f5:80:36:12:5a:f4:72:a9:
        86:03:6c:03:ad:e6:93:15:bf:9e:57:0e:e3:6f:39:0b:7d:d5:
        43:9f:68:d5:8a:c9:72:c2:58:9c:66:5d:b6:49:3c:cd:a6:59:
        e8:96:bb:9b:20:42:19:27:74:9b:c6:72:f8:a6:21:b9:a1:e7:
        92:d2:03:d8:f3:76:dd:09:60:c7:74:18:64:e0:6a:55:c7:6a:
        42:b3:59:3f:e8:ba:dd:4e:2d:dd:da:ae:35:ca:ed:3f:bf:c2:
        da:64:b3:9e:a2:5b:03:cc:67:9d:f1:10:65:b9:ce:6a:39:2a:
        ab:ea:80:06:df:a3:03:5a:cd:b8:8c:52:f9:69:19:db:26:fe:
        60:87:98:c1:f7:be:b1:5e:c9:db:3d:fd:57:6b:f0:19:4d:2f:
        08:33:b0:5f:6d:40:f7:57:4b:c1:59:22:be:18:73:ed:a6:28:
        52:fe:72:69:b4:3a:4f:54:9e:19:0a:d8:cd:66:ca:ba:05:d4:
        21:dc:b6:db:90:8d:d6:86:3f:07:de:0b:91:6c:38:3a:07:a3:
        49:0d:0d:15
-----BEGIN CERTIFICATE-----
MIIExDCCA6ygAwIBAgIBZDANBgkqhkiG9w0BAQsFADCBoTELMAkGA1UEBhMCVVMx
EzARBgNVBAgMCldhc2hpbmd0b24xEDAOBgNVBAcMB1NlYXR0bGUxFTATBgNVBAoM
DHdvbGZTU0wgSW5jLjEUMBIGA1UECwwLRW5naW5lZXJpbmcxHTAbBgNVBAMMFGNo
YWluSS1JQ0EzLXBhdGhsZW4yMR8wHQYJKoZIhvcNAQkBFhBpbmZvQHdvbGZzc2wu
Y29tMB4XDTI1MTExMzIwNDE0N1oXDTI4MDgwOTIwNDE0N1owgaMxCzAJBgNVBAYT
AlVTMRMwEQYDVQQIDApXYXNoaW5ndG9uMRAwDgYDVQQHDAdTZWF0dGxlMRUwEwYD
VQQKDAx3b2xmU1NMIEluYy4xFDASBgNVBAsMC0VuZ2luZWVyaW5nMR8wHQYDVQQD
DBZjaGFpbkktSUNBMi1ub19wYXRobGVuMR8wHQYJKoZIhvcNAQkBFhBpbmZvQHdv
bGZzc2wuY29tMIIBIjANBgkqhkiG9w0BAQEFAAOCAQ8AMIIBCgKCAQEA3h4IZhL+
IAcQG6EnDfkiMIGbzmKxpm1J1O24LUuXdx6UUT1zKxbpBelMG4KtR50zMFO1m9It
6XvWY/NhIBsjbkcJi8DVCYWm4uQ6TbP53cZ8mkIHItV7Zxg4xPzqjQmAoLBEM/3B
qoucmOOVw3RxO3G4s4C/MGOFCSeLErWGsAuZ/5dCUqCssjg4jROW2db6j8SJFAac
HwqjOqL3H4PYrkFEniGyW7eiGelGWN7loqsHepqaYLwU7c9NQvxcKOpC0a7McX5S
XYSI3rZ9cm6rc0sNq5KfEbRR2hRUmg7srEL8cYdbVDgJLPBdhgw0t5IzXD4ZsU2g
Ypu0aDY2OOwpswIDAQABo4IBATCB/jAdBgNVHQ4EFgQU0br7/x0pQYpqX7Lzp0EF
RwkfSEIwgcEGA1UdIwSBuTCBtoAU7jem8kDQ7/0ix6O0bFdHQLmZ+Y2hgZqkgZcw
gZQxCzAJBgNVBAYTAlVTMRAwDgYDVQQIDAdNb250YW5hMRAwDgYDVQQHDAdCb3pl
bWFuMREwDwYDVQQKDAhTYXd0b290aDETMBEGA1UECwwKQ29uc3VsdGluZzEYMBYG
A1UEAwwPd3d3LndvbGZzc2wuY29tMR8wHQYJKoZIhvcNAQkBFhBpbmZvQHdvbGZz
c2wuY29tggFkMAwGA1UdEwQFMAMBAf8wCwYDVR0PBAQDAgEGMA0GCSqGSIb3DQEB
CwUAA4IBAQCJCvVTFFKlVA6VrJkIfNs4BPh02VCASKJHnU6v9/mnh1/dipsQ3+DV
wKHdeOm49YA2Elr0cqmGA2wDreaTFb+eVw7jbzkLfdVDn2jVislywlicZl22STzN
plnolrubIEIZJ3SbxnL4piG5oeeS0gPY83bdCWDHdBhk4GpVx2pCs1k/6LrdTi3d
2q41yu0/v8LaZLOeolsDzGed8RBluc5qOSqr6oAG36MDWs24jFL5aRnbJv5gh5jB
976xXsnbPf1Xa/AZTS8IM7BfbUD3V0vBWSK+GHPtpihS/nJptDpPVJ4ZCtjNZsq6
BdQh3LbbkI3Whj8H3guRbDg6B6NJDQ0V
-----END CERTIFICATE-----
