Certificate:
    Data:
        Version: 3 (0x2)
        Serial Number: 101 (0x65)
        Signature Algorithm: sha256WithRSAEncryption
        Issuer: C=US, ST=Washington, L=Seattle, O=wolfSSL Inc., OU=Engineering, CN=chainF-ICA1-pathlen1, emailAddress=info@wolfssl.com
        Validity
            Not Before: Nov 13 20:41:43 2025 GMT
            Not After : Aug  9 20:41:43 2028 GMT
        Subject: C=US, ST=Washington, L=Seattle, O=wolfSSL Inc., OU=Engineering, CN=chainF-entity, emailAddress=info@wolfssl.com
        Subject Public Key Info:
            Public Key Algorithm: rsaEncryption
                Public-Key: (2048 bit)
                Modulus:
                    00:c9:f8:2c:ad:25:a9:65:3b:72:13:5d:aa:7f:5b:
                    71:f5:e0:43:c4:3a:b3:36:0d:34:61:35:86:77:a0:
                    2a:81:de:2c:7c:7d:01:fb:f4:c3:00:b0:17:b9:49:
                    93:1d:c2:1b:6f:40:ee:86:e0:a7:f3:5e:ad:23:43:
                    99:5f:34:38:c8:58:02:9b:cc:9e:59:da:81:5b:b1:
                    40:74:ca:c1:b8:67:14:ba:3f:71:16:d9:ba:a9:cd:
                    f1:96:1b:52:e2:d2:07:6d:6a:d6:cf:e7:a8:c8:e0:
                    4f:eb:35:64:bc:aa:1a:17:af:98:de:d0:9b:08:73:
                    72:d8:fe:e2:e5:4e:7e:97:37:37:58:9e:5c:65:91:
                    b9:5d:38:da:ba:db:00:c0:f6:4a:6f:9c:86:23:ad:
                    b0:c4:ff:b7:dd:d6:9a:b0:de:8d:15:87:e2:4b:04:
                    85:6d:5d:cc:5f:65:6f:e1:ae:22:44:80:18:ba:c2:
                    95:a4:a3:28:c5:3f:7b:4c:85:6c:0f:11:14:56:d2:
                    d5:a7:f7:03:e9:f7:ce:ef:d9:18:02:f0:f2:6e:81:
                    ef:ac:50:87:0e:b0:46:9f:ae:c0:77:8f:03:28:8a:
                    9d:6e:87:50:8f:37:46:b3:29:57:a4:c2:ef:25:cd:
                    23:1a:ef:1a:03:c9:59:69:cd:45:5f:39:3f:76:d4:
                    79:53
                Exponent: 65537 (0x10001)
        X509v3 extensions:
            X509v3 Subject Key Identifier: 
                E9:27:36:DA:64:81:70:89:C9:C1:F9:E3:92:7A:67:11:07:01:4A:49
            X509v3 Authority Key Identifier: 
                keyid:75:32:21:05:2B:60:FE:44:17:AF:18:65:86:85:19:82:3F:F9:64:83
                DirName:/C=US/ST=Washington/L=Seattle/O=wolfSSL Inc./OU=Engineering/CN=chainF-ICA2-pathlen0/emailAddress=info@wolfssl.com
                serial:64
            X509v3 Basic Constraints: 
                CA:FALSE
    Signature Algorithm: sha256WithRSAEncryption
    Signature Value:
        05:01:e7:a1:8f:15:b0:7a:09:51:14:db:10:e0:cf:96:fd:ce:
        40:11:07:8a:0c:0c:6e:f6:c0:d4:ed:67:55:97:c3:e9:a7:4c:
        d7:2b:f1:91:da:e4:38:b4:b2:86:2d:0d:40:f5:f8:94:c4:b0:
        32:b0:74:5b:80:6d:11:75:71:dc:cc:ce:f5:8f:2d:b0:e7:5a:
        f5:a3:41:2e:4f:f8:3b:bc:d7:b6:4f:84:74:14:d7:2d:74:a9:
        28:e0:e3:2a:69:0e:a7:aa:e8:28:3f:87:e9:4e:68:23:d1:f3:
        b7:97:7e:39:eb:45:7c:bc:67:9e:c9:44:58:a9:17:c8:bc:39:
        89:0e:24:a3:6b:52:21:13:2e:93:d8:1a:cf:1e:88:b7:c6:96:
        14:02:21:1e:dc:78:42:9e:24:c1:90:91:f4:71:47:dd:19:5a:
        98:c0:73:7e:50:ff:ac:f9:b2:0d:c4:98:09:b2:f8:be:61:50:
        33:45:a1:04:bd:07:8f:16:39:a8:e0:f2:0c:25:67:fe:18:46:
        87:bc:aa:c3:59:23:50:e0:28:57:53:9d:17:b9:28:ca:c8:fa:
        18:81:35:7a:85:f1:35:28:b7:9c:d0:86:39:ae:b5:66:80:14:
        41:b2:34:46:9a:b2:6d:b0:8a:44:68:8a:df:e6:d6:68:e0:42:
        cb:0c:0e:6a
-----BEGIN CERTIFICATE-----
MIIEtzCCA5+gAwIBAgIBZTANBgkqhkiG9w0BAQsFADCBoTELMAkGA1UEBhMCVVMx
EzARBgNVBAgMCldhc2hpbmd0b24xEDAOBgNVBAcMB1NlYXR0bGUxFTATBgNVBAoM
DHdvbGZTU0wgSW5jLjEUMBIGA1UECwwLRW5naW5lZXJpbmcxHTAbBgNVBAMMFGNo
YWluRi1JQ0ExLXBhdGhsZW4xMR8wHQYJKoZIhvcNAQkBFhBpbmZvQHdvbGZzc2wu
Y29tMB4XDTI1MTExMzIwNDE0M1oXDTI4MDgwOTIwNDE0M1owgZoxCzAJBgNVBAYT
AlVTMRMwEQYDVQQIDApXYXNoaW5ndG9uMRAwDgYDVQQHDAdTZWF0dGxlMRUwEwYD
VQQKDAx3b2xmU1NMIEluYy4xFDASBgNVBAsMC0VuZ2luZWVyaW5nMRYwFAYDVQQD
DA1jaGFpbkYtZW50aXR5MR8wHQYJKoZIhvcNAQkBFhBpbmZvQHdvbGZzc2wuY29t
MIIBIjANBgkqhkiG9w0BAQEFAAOCAQ8AMIIBCgKCAQEAyfgsrSWpZTtyE12qf1tx
9eBDxDqzNg00YTWGd6Aqgd4sfH0B+/TDALAXuUmTHcIbb0DuhuCn816tI0OZXzQ4
yFgCm8yeWdqBW7FAdMrBuGcUuj9xFtm6qc3xlhtS4tIHbWrWz+eoyOBP6zVkvKoa
F6+Y3tCbCHNy2P7i5U5+lzc3WJ5cZZG5XTjautsAwPZKb5yGI62wxP+33daasN6N
FYfiSwSFbV3MX2Vv4a4iRIAYusKVpKMoxT97TIVsDxEUVtLVp/cD6ffO79kYAvDy
boHvrFCHDrBGn67Ad48DKIqdbodQjzdGsylXpMLvJc0jGu8aA8lZac1FXzk/dtR5
UwIDAQABo4H+MIH7MB0GA1UdDgQWBBTpJzbaZIFwicnB+eOSemcRBwFKSTCBzgYD
VR0jBIHGMIHDgBR1MiEFK2D+RBevGGWGhRmCP/lkg6GBp6SBpDCBoTELMAkGA1UE
BhMCVVMxEzARBgNVBAgMCldhc2hpbmd0b24xEDAOBgNVBAcMB1NlYXR0bGUxFTAT
BgNVBAoMDHdvbGZTU0wgSW5jLjEUMBIGA1UECwwLRW5naW5lZXJpbmcxHTAbBgNV
BAMMFGNoYWluRi1JQ0EyLXBhdGhsZW4wMR8wHQYJKoZIhvcNAQkBFhBpbmZvQHdv
bGZzc2wuY29tggFkMAkGA1UdEwQCMAAwDQYJKoZIhvcNAQELBQADggEBAAUB56GP
FbB6CVEU2xDgz5b9zkARB4oMDG72wNTtZ1WXw+mnTNcr8ZHa5Di0soYtDUD1+JTE
sDKwdFuAbRF1cdzMzvWPLbDnWvWjQS5P+Du817ZPhHQU1y10qSjg4yppDqeq6Cg/
h+lOaCPR87eXfjnrRXy8Z57JRFipF8i8OYkOJKNrUiETLpPYGs8eiLfGlhQCIR7c
eEKeJMGQkfRxR90ZWpjAc35Q/6z5sg3EmAmy+L5hUDNFoQS9B48WOajg8gwlZ/4Y
Roe8qsNZI1DgKFdTnRe5KMrI+hiBNXqF8TUot5zQhjmutWaAFEGyNEaasm2wikRo
it/m1mjgQssMDmo=
-----END CERTIFICATE-----
