Certificate:
    Data:
        Version: 3 (0x2)
        Serial Number: 101 (0x65)
        Signature Algorithm: sha256WithRSAEncryption
        Issuer: C = US, ST = Washington, L = Seattle, O = wolfSSL Inc., OU = Engineering, CN = chainB-ICA1-pathlen0, emailAddress = info@wolfssl.com
        Validity
            Not Before: Dec 13 22:19:32 2023 GMT
            Not After : Sep  8 22:19:32 2026 GMT
        Subject: C = US, ST = Washington, L = Seattle, O = wolfSSL Inc., OU = Engineering, CN = chainB-entity, emailAddress = info@wolfssl.com
        Subject Public Key Info:
            Public Key Algorithm: rsaEncryption
                RSA Public-Key: (2048 bit)
                Modulus:
                    00:d7:5f:d9:3d:d7:5b:11:aa:3e:53:31:d0:32:78:
                    87:fb:c0:8e:80:6d:fc:68:73:1f:9c:77:66:16:35:
                    fc:2f:d7:e4:ca:ba:2a:73:5f:14:94:12:f0:48:31:
                    a2:40:ad:b4:e3:07:0c:02:47:b4:0a:07:69:d5:d2:
                    85:bf:c8:bc:14:8c:c7:87:ba:5f:87:c5:07:f4:df:
                    a4:46:1e:b7:13:0f:9d:7e:f6:1a:7b:29:09:55:4c:
                    17:ee:c8:b0:9d:39:0c:89:6e:18:9c:06:7f:5d:95:
                    d2:4c:71:b3:1f:ea:5d:d2:f6:2c:69:a8:16:15:59:
                    e5:7d:03:d7:bd:1a:34:e3:f1:27:e3:b9:7d:68:e0:
                    39:3f:35:62:2f:20:20:fa:19:62:37:1a:30:47:6c:
                    a3:f9:8e:9c:f3:67:2e:bb:38:4c:2e:0a:21:9b:70:
                    b6:97:a2:1b:b3:98:0d:5b:74:97:33:f0:b8:6c:4e:
                    ad:b4:1f:48:62:c9:9a:af:2d:a6:a1:06:ae:98:30:
                    54:5e:cb:dd:23:77:d5:ee:5c:fb:81:f0:2b:ad:6f:
                    fa:e3:b1:0e:98:bd:3e:0b:f4:7c:c5:e3:50:bf:08:
                    9b:bf:be:f8:6a:d9:db:78:36:84:f2:7e:7b:7d:5e:
                    a7:8f:42:81:5f:41:f4:77:5c:30:51:f5:3f:2d:25:
                    95:4d
                Exponent: 65537 (0x10001)
        X509v3 extensions:
            X509v3 Subject Key Identifier: 
                7F:17:7E:8E:A8:2C:AD:9C:C7:22:7E:A6:C6:90:9E:63:C4:5F:33:9E
            X509v3 Authority Key Identifier: 
                keyid:D7:90:E4:86:59:24:F9:2B:B8:06:8E:B1:8F:33:E5:2C:63:F1:03:16
                DirName:/C=US/ST=Washington/L=Seattle/O=wolfSSL Inc./OU=Engineering/CN=chainB-ICA2-pathlen1/emailAddress=info@wolfssl.com
                serial:64

            X509v3 Basic Constraints: 
                CA:FALSE
    Signature Algorithm: sha256WithRSAEncryption
         58:2b:2e:33:ed:42:7d:ce:8a:9f:2e:25:2f:7a:66:6f:d0:8a:
         32:ee:70:b6:a0:ee:6f:ec:0c:52:af:d8:8c:2a:11:9f:f0:f3:
         6a:41:bd:da:43:ad:82:5d:52:95:e2:6b:95:42:d1:24:09:ba:
         7d:b5:6b:73:a2:96:3d:72:ba:65:cd:9c:c6:65:52:fb:68:65:
         cb:55:5d:f5:44:fa:66:72:8c:1c:33:92:a6:37:77:44:16:86:
         ed:f2:d3:a9:49:ff:aa:05:96:c8:e0:1c:b7:0a:60:e7:46:5e:
         94:9d:c8:7a:31:41:98:96:38:17:a0:79:e3:1d:a3:13:06:17:
         2d:b8:fd:6f:34:ed:e3:6d:36:e7:d4:5d:cf:00:4a:ce:a6:ff:
         1c:87:d8:48:1b:65:b0:d0:72:70:48:15:bd:f1:3c:a9:06:f9:
         7e:11:c1:43:6c:0b:60:d9:d9:5c:d3:3b:c2:18:eb:3f:82:eb:
         fd:a5:1a:b2:a2:23:10:c3:30:af:4a:e9:d9:05:f1:e2:4e:e9:
         41:bd:d7:dd:98:db:91:f2:15:54:4c:82:3d:22:aa:18:e5:e6:
         df:9b:85:21:63:74:3d:08:a9:2e:35:e2:5e:61:32:78:04:49:
         91:0d:8c:05:12:90:ec:f5:c5:d2:71:8a:2a:65:5c:b1:d4:14:
         53:de:9b:98
-----BEGIN CERTIFICATE-----
MIIEtzCCA5+gAwIBAgIBZTANBgkqhkiG9w0BAQsFADCBoTELMAkGA1UEBhMCVVMx
EzARBgNVBAgMCldhc2hpbmd0b24xEDAOBgNVBAcMB1NlYXR0bGUxFTATBgNVBAoM
DHdvbGZTU0wgSW5jLjEUMBIGA1UECwwLRW5naW5lZXJpbmcxHTAbBgNVBAMMFGNo
YWluQi1JQ0ExLXBhdGhsZW4wMR8wHQYJKoZIhvcNAQkBFhBpbmZvQHdvbGZzc2wu
Y29tMB4XDTIzMTIxMzIyMTkzMloXDTI2MDkwODIyMTkzMlowgZoxCzAJBgNVBAYT
AlVTMRMwEQYDVQQIDApXYXNoaW5ndG9uMRAwDgYDVQQHDAdTZWF0dGxlMRUwEwYD
VQQKDAx3b2xmU1NMIEluYy4xFDASBgNVBAsMC0VuZ2luZWVyaW5nMRYwFAYDVQQD
DA1jaGFpbkItZW50aXR5MR8wHQYJKoZIhvcNAQkBFhBpbmZvQHdvbGZzc2wuY29t
MIIBIjANBgkqhkiG9w0BAQEFAAOCAQ8AMIIBCgKCAQEA11/ZPddbEao+UzHQMniH
+8COgG38aHMfnHdmFjX8L9fkyroqc18UlBLwSDGiQK204wcMAke0Cgdp1dKFv8i8
FIzHh7pfh8UH9N+kRh63Ew+dfvYaeykJVUwX7siwnTkMiW4YnAZ/XZXSTHGzH+pd
0vYsaagWFVnlfQPXvRo04/En47l9aOA5PzViLyAg+hliNxowR2yj+Y6c82cuuzhM
Lgohm3C2l6Ibs5gNW3SXM/C4bE6ttB9IYsmary2moQaumDBUXsvdI3fV7lz7gfAr
rW/647EOmL0+C/R8xeNQvwibv774atnbeDaE8n57fV6nj0KBX0H0d1wwUfU/LSWV
TQIDAQABo4H+MIH7MB0GA1UdDgQWBBR/F36OqCytnMcifqbGkJ5jxF8znjCBzgYD
VR0jBIHGMIHDgBTXkOSGWST5K7gGjrGPM+UsY/EDFqGBp6SBpDCBoTELMAkGA1UE
BhMCVVMxEzARBgNVBAgMCldhc2hpbmd0b24xEDAOBgNVBAcMB1NlYXR0bGUxFTAT
BgNVBAoMDHdvbGZTU0wgSW5jLjEUMBIGA1UECwwLRW5naW5lZXJpbmcxHTAbBgNV
BAMMFGNoYWluQi1JQ0EyLXBhdGhsZW4xMR8wHQYJKoZIhvcNAQkBFhBpbmZvQHdv
bGZzc2wuY29tggFkMAkGA1UdEwQCMAAwDQYJKoZIhvcNAQELBQADggEBAFgrLjPt
Qn3Oip8uJS96Zm/QijLucLag7m/sDFKv2IwqEZ/w82pBvdpDrYJdUpXia5VC0SQJ
un21a3Oilj1yumXNnMZlUvtoZctVXfVE+mZyjBwzkqY3d0QWhu3y06lJ/6oFlsjg
HLcKYOdGXpSdyHoxQZiWOBegeeMdoxMGFy24/W807eNtNufUXc8ASs6m/xyH2Egb
ZbDQcnBIFb3xPKkG+X4RwUNsC2DZ2VzTO8IY6z+C6/2lGrKiIxDDMK9K6dkF8eJO
6UG9192Y25HyFVRMgj0iqhjl5t+bhSFjdD0IqS414l5hMngESZENjAUSkOz1xdJx
iiplXLHUFFPem5g=
-----END CERTIFICATE-----
