Certificate:
    Data:
        Version: 3 (0x2)
        Serial Number: 100 (0x64)
        Signature Algorithm: sha256WithRSAEncryption
        Issuer: C=US, ST=Washington, L=Seattle, O=wolfSSL Inc., OU=Engineering, CN=chainG-ICA5-pathlen20, emailAddress=facts@wolfssl.com
        Validity
            Not Before: Jun 11 21:44:39 2026 GMT
            Not After : Mar  7 21:44:39 2029 GMT
        Subject: C=US, ST=Washington, L=Seattle, O=wolfSSL Inc., OU=Engineering, CN=chainG-ICA4-pathlen5, emailAddress=facts@wolfssl.com
        Subject Public Key Info:
            Public Key Algorithm: rsaEncryption
                Public-Key: (2048 bit)
                Modulus:
                    00:c9:4b:a0:77:b8:42:43:96:e1:f4:8d:1d:a6:2c:
                    d8:12:a2:40:49:11:eb:5f:fb:6c:1d:15:3e:af:dd:
                    3b:c7:fd:c9:61:43:99:8e:c7:bc:63:bc:5b:93:24:
                    f3:e5:66:c8:3e:3a:9c:7d:0e:1b:c1:6c:84:8c:90:
                    b0:11:aa:23:2d:78:99:17:3e:e9:6b:a0:8c:64:fd:
                    10:7b:66:ed:b4:3e:b0:96:ef:36:1f:2d:6d:c4:96:
                    3c:5a:dc:83:c2:e9:cd:64:d3:5f:c7:ea:db:84:2e:
                    24:0c:77:d1:fd:8c:cf:d7:78:af:5b:98:e9:c4:fd:
                    66:fa:76:1d:7a:c3:c3:64:32:ad:b9:8b:5a:4c:82:
                    ed:3a:fe:07:44:20:13:88:df:02:2c:d9:97:21:a4:
                    39:a6:f3:7e:8b:e2:c0:cc:86:6b:5a:25:30:d7:f9:
                    ba:29:ef:1b:2e:f6:3f:c1:7d:b1:0c:95:8e:c0:ce:
                    73:41:47:1c:ec:33:44:60:46:9d:b0:75:07:50:c8:
                    19:bf:1e:82:c8:c3:3d:d8:e2:19:1e:0b:36:9d:34:
                    95:87:ea:a0:1f:e8:80:60:a5:b1:94:42:1e:57:c8:
                    a0:e6:ad:f8:73:c8:82:e4:38:84:d3:97:fc:85:c4:
                    de:d2:c0:c5:6d:c7:1e:eb:1d:c1:f1:de:97:27:ca:
                    be:4b
                Exponent: 65537 (0x10001)
        X509v3 extensions:
            X509v3 Subject Key Identifier: 
                D4:92:AE:BD:3B:1C:66:4B:17:88:18:15:F8:27:AB:38:CC:07:5A:65
            X509v3 Authority Key Identifier: 
                keyid:1D:51:80:B6:9A:A7:AC:DD:80:7B:4B:A2:0B:62:BE:E4:87:30:C7:CA
                DirName:/C=US/ST=Washington/L=Seattle/O=wolfSSL Inc./OU=Engineering/CN=chainG-ICA6-pathlen10/emailAddress=facts@wolfssl.com
                serial:64
            X509v3 Basic Constraints: 
                CA:TRUE, pathlen:5
            X509v3 Key Usage: 
                Certificate Sign, CRL Sign
    Signature Algorithm: sha256WithRSAEncryption
    Signature Value:
        ab:aa:24:f9:8e:c6:fd:32:9a:33:0b:b2:c4:e3:ba:ce:28:97:
        0d:2d:3a:a6:85:73:dc:6e:07:10:fa:7b:0a:26:75:95:76:af:
        64:0d:c9:90:98:95:9e:10:eb:f0:6c:c5:a5:e7:c4:6a:e5:0f:
        fc:04:b9:36:23:13:d0:a4:e7:70:e2:8f:7c:69:30:1d:08:60:
        1c:07:41:d6:5a:76:3a:ae:2b:27:76:ca:eb:59:d1:f5:52:cd:
        3d:7f:92:f2:b6:66:c9:69:dc:8c:be:39:bf:66:40:ac:d8:da:
        cd:f2:b2:e4:85:20:84:43:f9:58:25:89:2e:a5:23:9f:8b:b6:
        49:bf:0a:87:9b:34:a3:db:0c:4e:94:4b:68:b2:f5:19:2a:89:
        fe:53:26:21:55:c8:36:a4:5d:6f:17:65:6c:86:2d:31:c2:2d:
        59:5f:cd:3b:5d:2e:89:0a:0e:61:74:bb:87:98:a0:a2:36:bd:
        d6:c5:27:95:cc:b0:40:f6:f1:fe:da:10:5c:8a:51:75:76:21:
        eb:9a:88:af:b6:fb:25:4f:95:b0:fd:75:4c:ab:1a:2e:f1:2e:
        12:7a:e1:a6:84:e9:6c:25:e7:9b:6d:2d:08:0c:6d:6e:82:a5:
        20:bf:66:b2:95:10:c0:23:70:a8:85:b6:3d:e9:d4:2a:d7:ea:
        cc:23:d7:0a
-----BEGIN CERTIFICATE-----
MIIE2DCCA8CgAwIBAgIBZDANBgkqhkiG9w0BAQsFADCBozELMAkGA1UEBhMCVVMx
EzARBgNVBAgMCldhc2hpbmd0b24xEDAOBgNVBAcMB1NlYXR0bGUxFTATBgNVBAoM
DHdvbGZTU0wgSW5jLjEUMBIGA1UECwwLRW5naW5lZXJpbmcxHjAcBgNVBAMMFWNo
YWluRy1JQ0E1LXBhdGhsZW4yMDEgMB4GCSqGSIb3DQEJARYRZmFjdHNAd29sZnNz
bC5jb20wHhcNMjYwNjExMjE0NDM5WhcNMjkwMzA3MjE0NDM5WjCBojELMAkGA1UE
BhMCVVMxEzARBgNVBAgMCldhc2hpbmd0b24xEDAOBgNVBAcMB1NlYXR0bGUxFTAT
BgNVBAoMDHdvbGZTU0wgSW5jLjEUMBIGA1UECwwLRW5naW5lZXJpbmcxHTAbBgNV
BAMMFGNoYWluRy1JQ0E0LXBhdGhsZW41MSAwHgYJKoZIhvcNAQkBFhFmYWN0c0B3
b2xmc3NsLmNvbTCCASIwDQYJKoZIhvcNAQEBBQADggEPADCCAQoCggEBAMlLoHe4
QkOW4fSNHaYs2BKiQEkR61/7bB0VPq/dO8f9yWFDmY7HvGO8W5Mk8+VmyD46nH0O
G8FshIyQsBGqIy14mRc+6WugjGT9EHtm7bQ+sJbvNh8tbcSWPFrcg8LpzWTTX8fq
24QuJAx30f2Mz9d4r1uY6cT9Zvp2HXrDw2QyrbmLWkyC7Tr+B0QgE4jfAizZlyGk
OabzfoviwMyGa1olMNf5uinvGy72P8F9sQyVjsDOc0FHHOwzRGBGnbB1B1DIGb8e
gsjDPdjiGR4LNp00lYfqoB/ogGClsZRCHlfIoOat+HPIguQ4hNOX/IXE3tLAxW3H
HusdwfHelyfKvksCAwEAAaOCARQwggEQMB0GA1UdDgQWBBTUkq69OxxmSxeIGBX4
J6s4zAdaZTCB0AYDVR0jBIHIMIHFgBQdUYC2mqes3YB7S6ILYr7khzDHyqGBqaSB
pjCBozELMAkGA1UEBhMCVVMxEzARBgNVBAgMCldhc2hpbmd0b24xEDAOBgNVBAcM
B1NlYXR0bGUxFTATBgNVBAoMDHdvbGZTU0wgSW5jLjEUMBIGA1UECwwLRW5naW5l
ZXJpbmcxHjAcBgNVBAMMFWNoYWluRy1JQ0E2LXBhdGhsZW4xMDEgMB4GCSqGSIb3
DQEJARYRZmFjdHNAd29sZnNzbC5jb22CAWQwDwYDVR0TBAgwBgEB/wIBBTALBgNV
HQ8EBAMCAQYwDQYJKoZIhvcNAQELBQADggEBAKuqJPmOxv0ymjMLssTjus4olw0t
OqaFc9xuBxD6ewomdZV2r2QNyZCYlZ4Q6/BsxaXnxGrlD/wEuTYjE9Ck53Dij3xp
MB0IYBwHQdZadjquKyd2yutZ0fVSzT1/kvK2Zslp3Iy+Ob9mQKzY2s3ysuSFIIRD
+VgliS6lI5+Ltkm/CoebNKPbDE6US2iy9Rkqif5TJiFVyDakXW8XZWyGLTHCLVlf
zTtdLokKDmF0u4eYoKI2vdbFJ5XMsED28f7aEFyKUXV2IeuaiK+2+yVPlbD9dUyr
Gi7xLhJ64aaE6Wwl55ttLQgMbW6CpSC/ZrKVEMAjcKiFtj3p1CrX6swj1wo=
-----END CERTIFICATE-----
