Certificate:
    Data:
        Version: 3 (0x2)
        Serial Number: 101 (0x65)
        Signature Algorithm: sha256WithRSAEncryption
        Issuer: C=US, ST=Washington, L=Seattle, O=wolfSSL Inc., OU=Engineering, CN=chainJ-ICA1-no_pathlen, emailAddress=facts@wolfssl.com
        Validity
            Not Before: Jun 11 21:44:40 2026 GMT
            Not After : Mar  7 21:44:40 2029 GMT
        Subject: C=US, ST=Washington, L=Seattle, O=wolfSSL Inc., OU=Engineering, CN=chainJ-entity, emailAddress=facts@wolfssl.com
        Subject Public Key Info:
            Public Key Algorithm: rsaEncryption
                Public-Key: (2048 bit)
                Modulus:
                    00:b3:fb:51:a0:ac:69:8b:35:06:bf:7a:ee:b4:a1:
                    8a:7e:ae:31:75:ad:e7:45:7b:e6:d9:bb:7c:e9:73:
                    0e:de:cf:05:74:df:37:a4:37:33:a6:6f:59:06:c8:
                    9f:19:35:c3:94:f7:05:ba:52:eb:3e:92:29:61:48:
                    88:fa:6d:42:b4:30:de:ce:df:94:ed:92:88:60:c8:
                    55:36:50:ee:36:b5:ed:35:6f:95:01:f4:88:4b:7b:
                    3e:fe:b5:9c:64:c0:72:be:8c:74:6a:8c:f5:e4:65:
                    66:87:52:9d:7b:b0:20:f6:d8:c3:de:76:b9:70:7c:
                    01:82:6e:fc:fa:1b:e7:c4:c1:5f:38:ce:50:dc:3a:
                    22:87:bc:19:9a:45:d5:8a:7a:93:f9:78:59:c7:0a:
                    f9:8f:eb:c3:79:eb:b5:ee:36:f0:5e:5d:2f:8f:46:
                    e8:63:c2:31:82:fc:fb:5d:8c:ca:01:b1:bb:72:2b:
                    e7:2f:82:3c:a6:24:a6:3f:58:7e:69:5b:4a:00:b4:
                    25:b3:b3:c3:b3:b0:c2:3f:a3:d7:ee:04:12:1d:ab:
                    0b:bb:02:b0:6c:0b:36:64:56:a9:5d:37:e5:0a:28:
                    44:5e:15:e4:f5:ab:73:98:0a:b3:28:90:1d:30:f2:
                    8c:e7:db:13:6a:0f:b4:cb:8d:06:15:86:ce:35:12:
                    e3:a9
                Exponent: 65537 (0x10001)
        X509v3 extensions:
            X509v3 Subject Key Identifier: 
                13:92:E0:30:5E:36:4F:BF:D5:E3:0D:5D:40:0B:64:95:EC:8E:77:4E
            X509v3 Authority Key Identifier: 
                keyid:9C:7B:3A:10:B3:08:99:05:00:AF:3E:E0:A4:5D:D9:AF:82:BC:4D:C0
                DirName:/C=US/ST=Washington/L=Seattle/O=wolfSSL Inc./OU=Engineering/CN=chainJ-ICA2-no_pathlen/emailAddress=facts@wolfssl.com
                serial:64
            X509v3 Basic Constraints: 
                CA:FALSE
    Signature Algorithm: sha256WithRSAEncryption
    Signature Value:
        00:18:42:52:69:1b:e6:45:d0:14:5b:c8:6c:45:95:a0:2c:d3:
        0f:66:88:1d:49:67:81:d2:5c:5b:a6:03:9d:cc:30:8b:57:c4:
        1a:82:db:93:23:b3:b0:4a:5d:37:70:22:11:ea:bc:8b:61:a2:
        55:2c:09:5f:8f:d9:50:16:b8:04:bc:0e:ab:ce:69:43:c1:b6:
        0b:83:a9:c9:e5:32:bc:93:bb:59:b5:4e:b1:5a:91:79:65:07:
        13:92:8d:bc:10:10:9c:4f:8a:1a:de:28:6b:18:0a:31:3b:91:
        1b:09:48:d1:59:83:4e:66:05:b4:a3:c7:f6:f1:01:8a:bf:90:
        13:08:7f:69:e9:fe:ca:88:7a:a9:b5:fd:be:74:0b:76:ff:84:
        50:90:4b:da:61:61:fa:0f:c0:25:73:d2:ca:2a:b3:9c:c5:5e:
        c2:7a:59:e0:e8:c6:47:54:a8:43:01:02:a9:1c:e5:6c:a4:ae:
        78:f2:9a:ae:cf:87:63:5f:45:5f:83:71:94:75:21:74:4f:c3:
        f3:5b:39:4c:a7:21:43:0a:c5:cf:8e:e8:2c:5b:aa:1a:33:93:
        47:7c:ad:e6:e1:d2:3c:4e:c7:48:c1:e0:d8:56:94:49:6f:b5:
        5f:72:9c:d4:ee:1b:b9:31:51:f2:63:b0:f6:17:ca:b9:ce:4a:
        29:0b:12:74
-----BEGIN CERTIFICATE-----
MIIEvzCCA6egAwIBAgIBZTANBgkqhkiG9w0BAQsFADCBpDELMAkGA1UEBhMCVVMx
EzARBgNVBAgMCldhc2hpbmd0b24xEDAOBgNVBAcMB1NlYXR0bGUxFTATBgNVBAoM
DHdvbGZTU0wgSW5jLjEUMBIGA1UECwwLRW5naW5lZXJpbmcxHzAdBgNVBAMMFmNo
YWluSi1JQ0ExLW5vX3BhdGhsZW4xIDAeBgkqhkiG9w0BCQEWEWZhY3RzQHdvbGZz
c2wuY29tMB4XDTI2MDYxMTIxNDQ0MFoXDTI5MDMwNzIxNDQ0MFowgZsxCzAJBgNV
BAYTAlVTMRMwEQYDVQQIDApXYXNoaW5ndG9uMRAwDgYDVQQHDAdTZWF0dGxlMRUw
EwYDVQQKDAx3b2xmU1NMIEluYy4xFDASBgNVBAsMC0VuZ2luZWVyaW5nMRYwFAYD
VQQDDA1jaGFpbkotZW50aXR5MSAwHgYJKoZIhvcNAQkBFhFmYWN0c0B3b2xmc3Ns
LmNvbTCCASIwDQYJKoZIhvcNAQEBBQADggEPADCCAQoCggEBALP7UaCsaYs1Br96
7rShin6uMXWt50V75tm7fOlzDt7PBXTfN6Q3M6ZvWQbInxk1w5T3BbpS6z6SKWFI
iPptQrQw3s7flO2SiGDIVTZQ7ja17TVvlQH0iEt7Pv61nGTAcr6MdGqM9eRlZodS
nXuwIPbYw952uXB8AYJu/Pob58TBXzjOUNw6Ioe8GZpF1Yp6k/l4WccK+Y/rw3nr
te428F5dL49G6GPCMYL8+12MygGxu3Ir5y+CPKYkpj9YfmlbSgC0JbOzw7Owwj+j
1+4EEh2rC7sCsGwLNmRWqV035QooRF4V5PWrc5gKsyiQHTDyjOfbE2oPtMuNBhWG
zjUS46kCAwEAAaOCAQEwgf4wHQYDVR0OBBYEFBOS4DBeNk+/1eMNXUALZJXsjndO
MIHRBgNVHSMEgckwgcaAFJx7OhCzCJkFAK8+4KRd2a+CvE3AoYGqpIGnMIGkMQsw
CQYDVQQGEwJVUzETMBEGA1UECAwKV2FzaGluZ3RvbjEQMA4GA1UEBwwHU2VhdHRs
ZTEVMBMGA1UECgwMd29sZlNTTCBJbmMuMRQwEgYDVQQLDAtFbmdpbmVlcmluZzEf
MB0GA1UEAwwWY2hhaW5KLUlDQTItbm9fcGF0aGxlbjEgMB4GCSqGSIb3DQEJARYR
ZmFjdHNAd29sZnNzbC5jb22CAWQwCQYDVR0TBAIwADANBgkqhkiG9w0BAQsFAAOC
AQEAABhCUmkb5kXQFFvIbEWVoCzTD2aIHUlngdJcW6YDncwwi1fEGoLbkyOzsEpd
N3AiEeq8i2GiVSwJX4/ZUBa4BLwOq85pQ8G2C4OpyeUyvJO7WbVOsVqReWUHE5KN
vBAQnE+KGt4oaxgKMTuRGwlI0VmDTmYFtKPH9vEBir+QEwh/aen+yoh6qbX9vnQL
dv+EUJBL2mFh+g/AJXPSyiqznMVewnpZ4OjGR1SoQwECqRzlbKSuePKars+HY19F
X4NxlHUhdE/D81s5TKchQwrFz47oLFuqGjOTR3yt5uHSPE7HSMHg2FaUSW+1X3Kc
1O4buTFR8mOw9hfKuc5KKQsSdA==
-----END CERTIFICATE-----
