Certificate:
    Data:
        Version: 3 (0x2)
        Serial Number: 101 (0x65)
        Signature Algorithm: sha256WithRSAEncryption
        Issuer: C=US, ST=Washington, L=Seattle, O=wolfSSL Inc., OU=Engineering, CN=chainA-ICA1-pathlen0, emailAddress=facts@wolfssl.com
        Validity
            Not Before: Jun 11 21:44:38 2026 GMT
            Not After : Mar  7 21:44:38 2029 GMT
        Subject: C=US, ST=Washington, L=Seattle, O=wolfSSL Inc., OU=Engineering, CN=chainA-entity, emailAddress=facts@wolfssl.com
        Subject Public Key Info:
            Public Key Algorithm: rsaEncryption
                Public-Key: (2048 bit)
                Modulus:
                    00:d0:7a:d8:c8:6c:4f:a5:cd:72:25:87:ff:12:a3:
                    65:0e:1d:1f:78:b2:d7:1a:65:a1:e7:4e:bd:05:b5:
                    05:3e:39:3e:85:ad:90:c7:5b:a5:81:42:b5:01:00:
                    57:87:29:a3:45:ce:f4:02:fa:80:8f:3b:8e:99:40:
                    2c:fc:c8:b0:8b:2b:19:c3:20:c6:af:db:a0:d9:d5:
                    70:32:6d:66:c3:ca:c4:ea:63:fb:08:0e:35:bc:50:
                    7f:85:c7:62:f4:e2:85:e4:89:59:52:71:f2:e3:d1:
                    63:3e:1d:08:6d:ff:86:cb:e5:eb:bc:1f:de:13:f0:
                    b2:f8:92:ee:23:9d:64:e7:b0:49:6f:26:a2:64:bc:
                    9c:18:8a:f3:c6:db:83:a4:6c:b0:56:23:16:40:57:
                    b0:95:5e:1b:3d:c5:3f:10:7a:84:e0:3e:bb:78:e8:
                    7d:c1:63:f3:fe:ee:af:16:db:ce:28:02:21:df:8b:
                    ca:f3:c3:1e:d1:47:c0:59:5f:1c:48:ec:50:6a:e3:
                    cc:fb:b6:16:45:40:c8:50:cf:dc:3e:2d:2d:cb:cd:
                    19:2a:17:74:41:7f:bc:26:4d:cd:97:b2:2b:67:57:
                    8e:6e:75:b5:d8:ec:6b:69:ab:09:3d:95:85:2c:0f:
                    d7:8d:29:75:1f:9b:88:56:bc:e8:11:a3:c8:65:e5:
                    2b:23
                Exponent: 65537 (0x10001)
        X509v3 extensions:
            X509v3 Subject Key Identifier: 
                D6:56:A1:9C:F1:66:E4:05:17:36:32:74:BA:72:97:50:13:58:B3:3D
            X509v3 Authority Key Identifier: 
                keyid:A8:10:EA:C8:EF:4F:00:CD:E3:79:C3:EB:DF:F6:C8:86:9D:44:6C:26
                DirName:/C=US/ST=Montana/L=Bozeman/O=Sawtooth/OU=Consulting/CN=www.wolfssl.com/emailAddress=facts@wolfssl.com
                serial:64
            X509v3 Basic Constraints: 
                CA:FALSE
    Signature Algorithm: sha256WithRSAEncryption
    Signature Value:
        87:82:d1:60:58:70:4f:bd:15:6b:db:0d:47:ac:7c:35:f9:8d:
        95:e6:f3:5a:29:a3:32:57:fd:50:46:7d:73:3a:d2:c9:22:24:
        bd:56:34:9a:c4:9c:f3:c9:a9:f5:fc:e0:bc:06:5e:79:2c:08:
        97:1f:69:7f:3f:87:1a:56:3a:8d:e7:c0:13:d4:fa:6c:b2:02:
        ed:4a:92:31:cc:80:9c:96:c1:52:a4:99:76:37:85:b3:a4:96:
        3b:75:14:28:a7:c1:da:30:2e:3f:b0:5d:0e:7a:7c:58:7a:e6:
        9f:d0:e6:2e:25:5f:62:e4:fb:e3:fd:8c:04:4a:ba:f2:44:c0:
        e6:0d:8b:b4:c7:9f:62:0a:73:78:f7:ff:78:b9:26:f3:08:98:
        3d:d0:ef:9f:c6:e3:d8:f8:f5:4d:c3:fa:8d:e8:05:90:b7:a5:
        33:7f:d4:61:b1:45:46:59:6e:e7:58:68:4b:3a:da:18:6e:75:
        c9:d3:9e:a4:d7:01:e8:ec:f0:f9:60:43:dd:14:46:2a:4a:be:
        98:c3:c0:61:34:89:1d:e3:1d:06:50:83:f0:5c:c3:79:37:3c:
        9a:9e:fa:c2:1b:88:75:16:3c:44:1c:cd:28:1f:15:14:f9:62:
        fb:49:68:22:39:23:fd:1a:f6:c2:e3:ee:91:9a:01:23:87:e1:
        13:db:bc:05
-----BEGIN CERTIFICATE-----
MIIErTCCA5WgAwIBAgIBZTANBgkqhkiG9w0BAQsFADCBojELMAkGA1UEBhMCVVMx
EzARBgNVBAgMCldhc2hpbmd0b24xEDAOBgNVBAcMB1NlYXR0bGUxFTATBgNVBAoM
DHdvbGZTU0wgSW5jLjEUMBIGA1UECwwLRW5naW5lZXJpbmcxHTAbBgNVBAMMFGNo
YWluQS1JQ0ExLXBhdGhsZW4wMSAwHgYJKoZIhvcNAQkBFhFmYWN0c0B3b2xmc3Ns
LmNvbTAeFw0yNjA2MTEyMTQ0MzhaFw0yOTAzMDcyMTQ0MzhaMIGbMQswCQYDVQQG
EwJVUzETMBEGA1UECAwKV2FzaGluZ3RvbjEQMA4GA1UEBwwHU2VhdHRsZTEVMBMG
A1UECgwMd29sZlNTTCBJbmMuMRQwEgYDVQQLDAtFbmdpbmVlcmluZzEWMBQGA1UE
AwwNY2hhaW5BLWVudGl0eTEgMB4GCSqGSIb3DQEJARYRZmFjdHNAd29sZnNzbC5j
b20wggEiMA0GCSqGSIb3DQEBAQUAA4IBDwAwggEKAoIBAQDQetjIbE+lzXIlh/8S
o2UOHR94stcaZaHnTr0FtQU+OT6FrZDHW6WBQrUBAFeHKaNFzvQC+oCPO46ZQCz8
yLCLKxnDIMav26DZ1XAybWbDysTqY/sIDjW8UH+Fx2L04oXkiVlScfLj0WM+HQht
/4bL5eu8H94T8LL4ku4jnWTnsElvJqJkvJwYivPG24OkbLBWIxZAV7CVXhs9xT8Q
eoTgPrt46H3BY/P+7q8W284oAiHfi8rzwx7RR8BZXxxI7FBq48z7thZFQMhQz9w+
LS3LzRkqF3RBf7wmTc2XsitnV45udbXY7Gtpqwk9lYUsD9eNKXUfm4hWvOgRo8hl
5SsjAgMBAAGjgfIwge8wHQYDVR0OBBYEFNZWoZzxZuQFFzYydLpyl1ATWLM9MIHC
BgNVHSMEgbowgbeAFKgQ6sjvTwDN43nD69/2yIadRGwmoYGbpIGYMIGVMQswCQYD
VQQGEwJVUzEQMA4GA1UECAwHTW9udGFuYTEQMA4GA1UEBwwHQm96ZW1hbjERMA8G
A1UECgwIU2F3dG9vdGgxEzARBgNVBAsMCkNvbnN1bHRpbmcxGDAWBgNVBAMMD3d3
dy53b2xmc3NsLmNvbTEgMB4GCSqGSIb3DQEJARYRZmFjdHNAd29sZnNzbC5jb22C
AWQwCQYDVR0TBAIwADANBgkqhkiG9w0BAQsFAAOCAQEAh4LRYFhwT70Va9sNR6x8
NfmNlebzWimjMlf9UEZ9czrSySIkvVY0msSc88mp9fzgvAZeeSwIlx9pfz+HGlY6
jefAE9T6bLIC7UqSMcyAnJbBUqSZdjeFs6SWO3UUKKfB2jAuP7BdDnp8WHrmn9Dm
LiVfYuT74/2MBEq68kTA5g2LtMefYgpzePf/eLkm8wiYPdDvn8bj2Pj1TcP6jegF
kLelM3/UYbFFRllu51hoSzraGG51ydOepNcB6Ozw+WBD3RRGKkq+mMPAYTSJHeMd
BlCD8FzDeTc8mp76whuIdRY8RBzNKB8VFPli+0loIjkj/Rr2wuPukZoBI4fhE9u8
BQ==
-----END CERTIFICATE-----
