Certificate:
    Data:
        Version: 3 (0x2)
        Serial Number: 101 (0x65)
        Signature Algorithm: sha256WithRSAEncryption
        Issuer: C = US, ST = Washington, L = Seattle, O = wolfSSL Inc., OU = Engineering, CN = chainA-ICA1-pathlen0, emailAddress = info@wolfssl.com
        Validity
            Not Before: Dec 20 23:07:25 2021 GMT
            Not After : Sep 15 23:07:25 2024 GMT
        Subject: C = US, ST = Washington, L = Seattle, O = wolfSSL Inc., OU = Engineering, CN = chainA-entity, emailAddress = info@wolfssl.com
        Subject Public Key Info:
            Public Key Algorithm: rsaEncryption
                RSA Public-Key: (2048 bit)
                Modulus:
                    00:d0:7a:d8:c8:6c:4f:a5:cd:72:25:87:ff:12:a3:
                    65:0e:1d:1f:78:b2:d7:1a:65:a1:e7:4e:bd:05:b5:
                    05:3e:39:3e:85:ad:90:c7:5b:a5:81:42:b5:01:00:
                    57:87:29:a3:45:ce:f4:02:fa:80:8f:3b:8e:99:40:
                    2c:fc:c8:b0:8b:2b:19:c3:20:c6:af:db:a0:d9:d5:
                    70:32:6d:66:c3:ca:c4:ea:63:fb:08:0e:35:bc:50:
                    7f:85:c7:62:f4:e2:85:e4:89:59:52:71:f2:e3:d1:
                    63:3e:1d:08:6d:ff:86:cb:e5:eb:bc:1f:de:13:f0:
                    b2:f8:92:ee:23:9d:64:e7:b0:49:6f:26:a2:64:bc:
                    9c:18:8a:f3:c6:db:83:a4:6c:b0:56:23:16:40:57:
                    b0:95:5e:1b:3d:c5:3f:10:7a:84:e0:3e:bb:78:e8:
                    7d:c1:63:f3:fe:ee:af:16:db:ce:28:02:21:df:8b:
                    ca:f3:c3:1e:d1:47:c0:59:5f:1c:48:ec:50:6a:e3:
                    cc:fb:b6:16:45:40:c8:50:cf:dc:3e:2d:2d:cb:cd:
                    19:2a:17:74:41:7f:bc:26:4d:cd:97:b2:2b:67:57:
                    8e:6e:75:b5:d8:ec:6b:69:ab:09:3d:95:85:2c:0f:
                    d7:8d:29:75:1f:9b:88:56:bc:e8:11:a3:c8:65:e5:
                    2b:23
                Exponent: 65537 (0x10001)
        X509v3 extensions:
            X509v3 Subject Key Identifier: 
                D6:56:A1:9C:F1:66:E4:05:17:36:32:74:BA:72:97:50:13:58:B3:3D
            X509v3 Authority Key Identifier: 
                keyid:A8:10:EA:C8:EF:4F:00:CD:E3:79:C3:EB:DF:F6:C8:86:9D:44:6C:26
                DirName:/C=US/ST=Montana/L=Bozeman/O=Sawtooth/OU=Consulting/CN=www.wolfssl.com/emailAddress=info@wolfssl.com
                serial:64

            X509v3 Basic Constraints: 
                CA:FALSE
    Signature Algorithm: sha256WithRSAEncryption
         5e:c1:52:23:b1:8c:4b:a1:27:8f:a1:61:35:2d:62:20:5d:35:
         4d:da:bf:77:94:cc:38:f3:8a:c7:a0:cf:d1:4c:3c:3c:a7:fd:
         98:66:e2:b0:9e:4a:af:59:1f:13:af:d4:3a:04:9c:1d:7b:b5:
         5a:81:62:29:a8:1e:dd:7f:d8:4d:b4:14:8d:e7:15:03:95:12:
         34:46:68:35:57:b1:75:f8:30:99:5e:3b:b8:88:46:7f:0c:1e:
         9f:05:2e:85:d9:f3:ea:bd:3f:16:ef:50:0e:78:07:ae:e7:64:
         04:5e:b8:e8:2e:cf:bc:be:3c:33:2f:e5:c6:81:79:8d:ed:fc:
         ea:50:d9:98:75:3a:28:be:64:c6:df:8a:09:35:bc:31:aa:da:
         d6:ff:5c:01:80:ad:1d:da:4d:30:4f:4f:04:de:08:8d:dc:e9:
         9e:cf:2a:4c:cd:47:db:76:3f:9a:72:5f:2c:14:2e:9a:b3:59:
         7f:2d:5f:61:97:19:c2:a7:93:b4:98:9f:51:f6:95:f3:e5:fb:
         23:6e:2c:99:c9:69:86:13:35:5f:3d:7b:f3:de:3b:ed:3f:6b:
         48:83:17:03:08:a3:9d:08:bf:5e:7e:f4:31:e2:74:ae:f3:35:
         6a:f3:3d:ab:c8:de:0a:58:62:2e:35:bf:19:19:a7:46:de:a2:
         d9:61:ae:5b
-----BEGIN CERTIFICATE-----
MIIEqjCCA5KgAwIBAgIBZTANBgkqhkiG9w0BAQsFADCBoTELMAkGA1UEBhMCVVMx
EzARBgNVBAgMCldhc2hpbmd0b24xEDAOBgNVBAcMB1NlYXR0bGUxFTATBgNVBAoM
DHdvbGZTU0wgSW5jLjEUMBIGA1UECwwLRW5naW5lZXJpbmcxHTAbBgNVBAMMFGNo
YWluQS1JQ0ExLXBhdGhsZW4wMR8wHQYJKoZIhvcNAQkBFhBpbmZvQHdvbGZzc2wu
Y29tMB4XDTIxMTIyMDIzMDcyNVoXDTI0MDkxNTIzMDcyNVowgZoxCzAJBgNVBAYT
AlVTMRMwEQYDVQQIDApXYXNoaW5ndG9uMRAwDgYDVQQHDAdTZWF0dGxlMRUwEwYD
VQQKDAx3b2xmU1NMIEluYy4xFDASBgNVBAsMC0VuZ2luZWVyaW5nMRYwFAYDVQQD
DA1jaGFpbkEtZW50aXR5MR8wHQYJKoZIhvcNAQkBFhBpbmZvQHdvbGZzc2wuY29t
MIIBIjANBgkqhkiG9w0BAQEFAAOCAQ8AMIIBCgKCAQEA0HrYyGxPpc1yJYf/EqNl
Dh0feLLXGmWh5069BbUFPjk+ha2Qx1ulgUK1AQBXhymjRc70AvqAjzuOmUAs/Miw
iysZwyDGr9ug2dVwMm1mw8rE6mP7CA41vFB/hcdi9OKF5IlZUnHy49FjPh0Ibf+G
y+XrvB/eE/Cy+JLuI51k57BJbyaiZLycGIrzxtuDpGywViMWQFewlV4bPcU/EHqE
4D67eOh9wWPz/u6vFtvOKAIh34vK88Me0UfAWV8cSOxQauPM+7YWRUDIUM/cPi0t
y80ZKhd0QX+8Jk3Nl7IrZ1eObnW12OxraasJPZWFLA/XjSl1H5uIVrzoEaPIZeUr
IwIDAQABo4HxMIHuMB0GA1UdDgQWBBTWVqGc8WbkBRc2MnS6cpdQE1izPTCBwQYD
VR0jBIG5MIG2gBSoEOrI708AzeN5w+vf9siGnURsJqGBmqSBlzCBlDELMAkGA1UE
BhMCVVMxEDAOBgNVBAgMB01vbnRhbmExEDAOBgNVBAcMB0JvemVtYW4xETAPBgNV
BAoMCFNhd3Rvb3RoMRMwEQYDVQQLDApDb25zdWx0aW5nMRgwFgYDVQQDDA93d3cu
d29sZnNzbC5jb20xHzAdBgkqhkiG9w0BCQEWEGluZm9Ad29sZnNzbC5jb22CAWQw
CQYDVR0TBAIwADANBgkqhkiG9w0BAQsFAAOCAQEAXsFSI7GMS6Enj6FhNS1iIF01
Tdq/d5TMOPOKx6DP0Uw8PKf9mGbisJ5Kr1kfE6/UOgScHXu1WoFiKage3X/YTbQU
jecVA5USNEZoNVexdfgwmV47uIhGfwwenwUuhdnz6r0/Fu9QDngHrudkBF646C7P
vL48My/lxoF5je386lDZmHU6KL5kxt+KCTW8Mara1v9cAYCtHdpNME9PBN4Ijdzp
ns8qTM1H23Y/mnJfLBQumrNZfy1fYZcZwqeTtJifUfaV8+X7I24smclphhM1Xz17
89477T9rSIMXAwijnQi/Xn70MeJ0rvM1avM9q8jeClhiLjW/GRmnRt6i2WGuWw==
-----END CERTIFICATE-----
