Certificate:
    Data:
        Version: 3 (0x2)
        Serial Number: 101 (0x65)
        Signature Algorithm: sha256WithRSAEncryption
        Issuer: C=US, ST=Washington, L=Seattle, O=wolfSSL Inc., OU=Engineering, CN=chainJ-ICA1-no_pathlen, emailAddress=facts@wolfssl.com
        Validity
            Not Before: Jun 11 21:44:40 2026 GMT
            Not After : Mar  7 21:44:40 2029 GMT
        Subject: C=US, ST=Washington, L=Seattle, O=wolfSSL Inc., OU=Engineering, CN=chainJ-entity, emailAddress=facts@wolfssl.com
        Subject Public Key Info:
            Public Key Algorithm: rsaEncryption
                Public-Key: (2048 bit)
                Modulus:
                    00:b3:fb:51:a0:ac:69:8b:35:06:bf:7a:ee:b4:a1:
                    8a:7e:ae:31:75:ad:e7:45:7b:e6:d9:bb:7c:e9:73:
                    0e:de:cf:05:74:df:37:a4:37:33:a6:6f:59:06:c8:
                    9f:19:35:c3:94:f7:05:ba:52:eb:3e:92:29:61:48:
                    88:fa:6d:42:b4:30:de:ce:df:94:ed:92:88:60:c8:
                    55:36:50:ee:36:b5:ed:35:6f:95:01:f4:88:4b:7b:
                    3e:fe:b5:9c:64:c0:72:be:8c:74:6a:8c:f5:e4:65:
                    66:87:52:9d:7b:b0:20:f6:d8:c3:de:76:b9:70:7c:
                    01:82:6e:fc:fa:1b:e7:c4:c1:5f:38:ce:50:dc:3a:
                    22:87:bc:19:9a:45:d5:8a:7a:93:f9:78:59:c7:0a:
                    f9:8f:eb:c3:79:eb:b5:ee:36:f0:5e:5d:2f:8f:46:
                    e8:63:c2:31:82:fc:fb:5d:8c:ca:01:b1:bb:72:2b:
                    e7:2f:82:3c:a6:24:a6:3f:58:7e:69:5b:4a:00:b4:
                    25:b3:b3:c3:b3:b0:c2:3f:a3:d7:ee:04:12:1d:ab:
                    0b:bb:02:b0:6c:0b:36:64:56:a9:5d:37:e5:0a:28:
                    44:5e:15:e4:f5:ab:73:98:0a:b3:28:90:1d:30:f2:
                    8c:e7:db:13:6a:0f:b4:cb:8d:06:15:86:ce:35:12:
                    e3:a9
                Exponent: 65537 (0x10001)
        X509v3 extensions:
            X509v3 Subject Key Identifier: 
                13:92:E0:30:5E:36:4F:BF:D5:E3:0D:5D:40:0B:64:95:EC:8E:77:4E
            X509v3 Authority Key Identifier: 
                keyid:9C:7B:3A:10:B3:08:99:05:00:AF:3E:E0:A4:5D:D9:AF:82:BC:4D:C0
                DirName:/C=US/ST=Washington/L=Seattle/O=wolfSSL Inc./OU=Engineering/CN=chainJ-ICA2-no_pathlen/emailAddress=facts@wolfssl.com
                serial:64
            X509v3 Basic Constraints: 
                CA:FALSE
    Signature Algorithm: sha256WithRSAEncryption
    Signature Value:
        00:18:42:52:69:1b:e6:45:d0:14:5b:c8:6c:45:95:a0:2c:d3:
        0f:66:88:1d:49:67:81:d2:5c:5b:a6:03:9d:cc:30:8b:57:c4:
        1a:82:db:93:23:b3:b0:4a:5d:37:70:22:11:ea:bc:8b:61:a2:
        55:2c:09:5f:8f:d9:50:16:b8:04:bc:0e:ab:ce:69:43:c1:b6:
        0b:83:a9:c9:e5:32:bc:93:bb:59:b5:4e:b1:5a:91:79:65:07:
        13:92:8d:bc:10:10:9c:4f:8a:1a:de:28:6b:18:0a:31:3b:91:
        1b:09:48:d1:59:83:4e:66:05:b4:a3:c7:f6:f1:01:8a:bf:90:
        13:08:7f:69:e9:fe:ca:88:7a:a9:b5:fd:be:74:0b:76:ff:84:
        50:90:4b:da:61:61:fa:0f:c0:25:73:d2:ca:2a:b3:9c:c5:5e:
        c2:7a:59:e0:e8:c6:47:54:a8:43:01:02:a9:1c:e5:6c:a4:ae:
        78:f2:9a:ae:cf:87:63:5f:45:5f:83:71:94:75:21:74:4f:c3:
        f3:5b:39:4c:a7:21:43:0a:c5:cf:8e:e8:2c:5b:aa:1a:33:93:
        47:7c:ad:e6:e1:d2:3c:4e:c7:48:c1:e0:d8:56:94:49:6f:b5:
        5f:72:9c:d4:ee:1b:b9:31:51:f2:63:b0:f6:17:ca:b9:ce:4a:
        29:0b:12:74
-----BEGIN CERTIFICATE-----
MIIEvzCCA6egAwIBAgIBZTANBgkqhkiG9w0BAQsFADCBpDELMAkGA1UEBhMCVVMx
EzARBgNVBAgMCldhc2hpbmd0b24xEDAOBgNVBAcMB1NlYXR0bGUxFTATBgNVBAoM
DHdvbGZTU0wgSW5jLjEUMBIGA1UECwwLRW5naW5lZXJpbmcxHzAdBgNVBAMMFmNo
YWluSi1JQ0ExLW5vX3BhdGhsZW4xIDAeBgkqhkiG9w0BCQEWEWZhY3RzQHdvbGZz
c2wuY29tMB4XDTI2MDYxMTIxNDQ0MFoXDTI5MDMwNzIxNDQ0MFowgZsxCzAJBgNV
BAYTAlVTMRMwEQYDVQQIDApXYXNoaW5ndG9uMRAwDgYDVQQHDAdTZWF0dGxlMRUw
EwYDVQQKDAx3b2xmU1NMIEluYy4xFDASBgNVBAsMC0VuZ2luZWVyaW5nMRYwFAYD
VQQDDA1jaGFpbkotZW50aXR5MSAwHgYJKoZIhvcNAQkBFhFmYWN0c0B3b2xmc3Ns
LmNvbTCCASIwDQYJKoZIhvcNAQEBBQADggEPADCCAQoCggEBALP7UaCsaYs1Br96
7rShin6uMXWt50V75tm7fOlzDt7PBXTfN6Q3M6ZvWQbInxk1w5T3BbpS6z6SKWFI
iPptQrQw3s7flO2SiGDIVTZQ7ja17TVvlQH0iEt7Pv61nGTAcr6MdGqM9eRlZodS
nXuwIPbYw952uXB8AYJu/Pob58TBXzjOUNw6Ioe8GZpF1Yp6k/l4WccK+Y/rw3nr
te428F5dL49G6GPCMYL8+12MygGxu3Ir5y+CPKYkpj9YfmlbSgC0JbOzw7Owwj+j
1+4EEh2rC7sCsGwLNmRWqV035QooRF4V5PWrc5gKsyiQHTDyjOfbE2oPtMuNBhWG
zjUS46kCAwEAAaOCAQEwgf4wHQYDVR0OBBYEFBOS4DBeNk+/1eMNXUALZJXsjndO
MIHRBgNVHSMEgckwgcaAFJx7OhCzCJkFAK8+4KRd2a+CvE3AoYGqpIGnMIGkMQsw
CQYDVQQGEwJVUzETMBEGA1UECAwKV2FzaGluZ3RvbjEQMA4GA1UEBwwHU2VhdHRs
ZTEVMBMGA1UECgwMd29sZlNTTCBJbmMuMRQwEgYDVQQLDAtFbmdpbmVlcmluZzEf
MB0GA1UEAwwWY2hhaW5KLUlDQTItbm9fcGF0aGxlbjEgMB4GCSqGSIb3DQEJARYR
ZmFjdHNAd29sZnNzbC5jb22CAWQwCQYDVR0TBAIwADANBgkqhkiG9w0BAQsFAAOC
AQEAABhCUmkb5kXQFFvIbEWVoCzTD2aIHUlngdJcW6YDncwwi1fEGoLbkyOzsEpd
N3AiEeq8i2GiVSwJX4/ZUBa4BLwOq85pQ8G2C4OpyeUyvJO7WbVOsVqReWUHE5KN
vBAQnE+KGt4oaxgKMTuRGwlI0VmDTmYFtKPH9vEBir+QEwh/aen+yoh6qbX9vnQL
dv+EUJBL2mFh+g/AJXPSyiqznMVewnpZ4OjGR1SoQwECqRzlbKSuePKars+HY19F
X4NxlHUhdE/D81s5TKchQwrFz47oLFuqGjOTR3yt5uHSPE7HSMHg2FaUSW+1X3Kc
1O4buTFR8mOw9hfKuc5KKQsSdA==
-----END CERTIFICATE-----
Certificate:
    Data:
        Version: 3 (0x2)
        Serial Number: 100 (0x64)
        Signature Algorithm: sha256WithRSAEncryption
        Issuer: C=US, ST=Washington, L=Seattle, O=wolfSSL Inc., OU=Engineering, CN=chainJ-ICA2-no_pathlen, emailAddress=facts@wolfssl.com
        Validity
            Not Before: Jun 11 21:44:40 2026 GMT
            Not After : Mar  7 21:44:40 2029 GMT
        Subject: C=US, ST=Washington, L=Seattle, O=wolfSSL Inc., OU=Engineering, CN=chainJ-ICA1-no_pathlen, emailAddress=facts@wolfssl.com
        Subject Public Key Info:
            Public Key Algorithm: rsaEncryption
                Public-Key: (2048 bit)
                Modulus:
                    00:a7:6f:44:c2:11:cc:2c:f4:2a:a5:a8:08:53:4b:
                    0e:cd:96:23:bb:15:4a:2a:dd:f9:a7:19:2b:91:28:
                    e8:73:a3:57:b4:49:3a:37:82:8f:15:38:5a:aa:af:
                    ad:72:26:2e:84:c2:0d:de:fc:f0:be:3b:a2:11:a9:
                    12:20:d4:3d:de:62:85:85:91:08:60:db:c0:4a:bb:
                    89:b6:f4:91:1e:51:a3:b2:f7:08:99:df:48:4a:59:
                    84:d1:aa:09:36:0d:cd:68:a5:ae:41:c8:d7:1a:d8:
                    ea:49:87:20:22:27:f9:45:54:3e:c7:c8:00:44:7e:
                    34:72:aa:8d:2d:4d:6a:3e:75:89:e2:d4:17:57:f9:
                    cd:2b:d0:b7:14:6a:54:1b:61:af:9b:68:22:b1:16:
                    73:eb:05:6c:41:ea:ed:10:4e:bc:83:04:68:c8:3a:
                    e1:03:12:ad:28:5c:24:4c:19:a1:7e:d8:ef:1b:80:
                    e4:0e:49:0c:69:86:f6:1e:e7:01:fb:2a:6f:56:1b:
                    6d:0a:ad:e9:29:3f:31:bb:48:28:40:79:2b:b5:f3:
                    aa:ec:e9:09:4c:82:fc:97:28:19:a3:3a:c0:d2:5e:
                    a3:8a:98:c8:8a:b7:d2:c4:90:bc:ff:cc:47:13:90:
                    ad:00:ab:8a:ec:f7:94:35:09:60:10:35:9f:32:c5:
                    00:1b
                Exponent: 65537 (0x10001)
        X509v3 extensions:
            X509v3 Subject Key Identifier: 
                9C:7B:3A:10:B3:08:99:05:00:AF:3E:E0:A4:5D:D9:AF:82:BC:4D:C0
            X509v3 Authority Key Identifier: 
                keyid:A3:F5:71:8A:60:80:3C:93:64:17:D9:2E:B5:C0:CE:A9:C1:14:17:C4
                DirName:/C=US/ST=Washington/L=Seattle/O=wolfSSL Inc./OU=Engineering/CN=chainJ-ICA3-no_pathlen/emailAddress=facts@wolfssl.com
                serial:64
            X509v3 Basic Constraints: 
                CA:TRUE
            X509v3 Key Usage: 
                Certificate Sign, CRL Sign
    Signature Algorithm: sha256WithRSAEncryption
    Signature Value:
        31:94:dc:bb:78:4d:49:95:c2:ec:91:c0:76:db:6d:2b:0c:74:
        59:9f:8e:37:b3:a1:22:8f:3f:f8:03:5b:34:ca:76:84:db:6e:
        78:f8:0d:46:1d:86:c1:37:23:9a:4d:e3:96:44:2e:68:3e:be:
        b4:59:6a:5c:03:f1:5a:7a:b5:a2:ee:7d:c1:7a:dc:bf:ca:e3:
        69:8a:a7:36:ec:0a:1f:a3:f6:69:7e:bb:d8:04:a8:6f:77:d5:
        70:69:7b:4a:c1:a2:12:00:eb:c1:4c:60:70:cd:70:4e:e6:05:
        27:49:69:a2:26:72:6b:19:dd:d0:d8:74:88:df:ae:a9:22:e8:
        07:88:ad:3f:9b:46:48:4e:c8:e1:26:db:f7:fc:8b:8c:c3:1d:
        13:6c:46:0c:6e:b1:ab:56:b0:9e:1f:e9:b3:f8:38:10:11:b4:
        c2:27:25:7f:77:a5:14:dc:bf:fc:d4:e1:37:b7:b5:fa:3f:80:
        c0:a7:ea:03:0e:68:ef:e2:fc:89:41:c4:5c:97:f6:16:73:c4:
        17:90:54:a4:4e:cd:d9:d9:c8:db:74:ec:43:2c:a4:d0:a4:b5:
        81:7f:f1:9b:5d:3d:1b:8d:e4:c6:8f:8c:fc:c3:5f:b2:c7:d5:
        92:3e:68:d6:ec:88:a3:1d:30:f7:96:0b:c0:94:ab:5c:ed:7f:
        26:5e:05:dc
-----BEGIN CERTIFICATE-----
MIIE2TCCA8GgAwIBAgIBZDANBgkqhkiG9w0BAQsFADCBpDELMAkGA1UEBhMCVVMx
EzARBgNVBAgMCldhc2hpbmd0b24xEDAOBgNVBAcMB1NlYXR0bGUxFTATBgNVBAoM
DHdvbGZTU0wgSW5jLjEUMBIGA1UECwwLRW5naW5lZXJpbmcxHzAdBgNVBAMMFmNo
YWluSi1JQ0EyLW5vX3BhdGhsZW4xIDAeBgkqhkiG9w0BCQEWEWZhY3RzQHdvbGZz
c2wuY29tMB4XDTI2MDYxMTIxNDQ0MFoXDTI5MDMwNzIxNDQ0MFowgaQxCzAJBgNV
BAYTAlVTMRMwEQYDVQQIDApXYXNoaW5ndG9uMRAwDgYDVQQHDAdTZWF0dGxlMRUw
EwYDVQQKDAx3b2xmU1NMIEluYy4xFDASBgNVBAsMC0VuZ2luZWVyaW5nMR8wHQYD
VQQDDBZjaGFpbkotSUNBMS1ub19wYXRobGVuMSAwHgYJKoZIhvcNAQkBFhFmYWN0
c0B3b2xmc3NsLmNvbTCCASIwDQYJKoZIhvcNAQEBBQADggEPADCCAQoCggEBAKdv
RMIRzCz0KqWoCFNLDs2WI7sVSird+acZK5Eo6HOjV7RJOjeCjxU4WqqvrXImLoTC
Dd788L47ohGpEiDUPd5ihYWRCGDbwEq7ibb0kR5Ro7L3CJnfSEpZhNGqCTYNzWil
rkHI1xrY6kmHICIn+UVUPsfIAER+NHKqjS1Naj51ieLUF1f5zSvQtxRqVBthr5to
IrEWc+sFbEHq7RBOvIMEaMg64QMSrShcJEwZoX7Y7xuA5A5JDGmG9h7nAfsqb1Yb
bQqt6Sk/MbtIKEB5K7XzquzpCUyC/JcoGaM6wNJeo4qYyIq30sSQvP/MRxOQrQCr
iuz3lDUJYBA1nzLFABsCAwEAAaOCARIwggEOMB0GA1UdDgQWBBScezoQswiZBQCv
PuCkXdmvgrxNwDCB0QYDVR0jBIHJMIHGgBSj9XGKYIA8k2QX2S61wM6pwRQXxKGB
qqSBpzCBpDELMAkGA1UEBhMCVVMxEzARBgNVBAgMCldhc2hpbmd0b24xEDAOBgNV
BAcMB1NlYXR0bGUxFTATBgNVBAoMDHdvbGZTU0wgSW5jLjEUMBIGA1UECwwLRW5n
aW5lZXJpbmcxHzAdBgNVBAMMFmNoYWluSi1JQ0EzLW5vX3BhdGhsZW4xIDAeBgkq
hkiG9w0BCQEWEWZhY3RzQHdvbGZzc2wuY29tggFkMAwGA1UdEwQFMAMBAf8wCwYD
VR0PBAQDAgEGMA0GCSqGSIb3DQEBCwUAA4IBAQAxlNy7eE1JlcLskcB2220rDHRZ
n443s6Eijz/4A1s0ynaE2254+A1GHYbBNyOaTeOWRC5oPr60WWpcA/FaerWi7n3B
ety/yuNpiqc27Aofo/ZpfrvYBKhvd9VwaXtKwaISAOvBTGBwzXBO5gUnSWmiJnJr
Gd3Q2HSI366pIugHiK0/m0ZITsjhJtv3/IuMwx0TbEYMbrGrVrCeH+mz+DgQEbTC
JyV/d6UU3L/81OE3t7X6P4DAp+oDDmjv4vyJQcRcl/YWc8QXkFSkTs3Z2cjbdOxD
LKTQpLWBf/GbXT0bjeTGj4z8w1+yx9WSPmjW7IijHTD3lgvAlKtc7X8mXgXc
-----END CERTIFICATE-----
Certificate:
    Data:
        Version: 3 (0x2)
        Serial Number: 100 (0x64)
        Signature Algorithm: sha256WithRSAEncryption
        Issuer: C=US, ST=Washington, L=Seattle, O=wolfSSL Inc., OU=Engineering, CN=chainJ-ICA3-no_pathlen, emailAddress=facts@wolfssl.com
        Validity
            Not Before: Jun 11 21:44:40 2026 GMT
            Not After : Mar  7 21:44:40 2029 GMT
        Subject: C=US, ST=Washington, L=Seattle, O=wolfSSL Inc., OU=Engineering, CN=chainJ-ICA2-no_pathlen, emailAddress=facts@wolfssl.com
        Subject Public Key Info:
            Public Key Algorithm: rsaEncryption
                Public-Key: (2048 bit)
                Modulus:
                    00:bb:29:fd:89:aa:82:e0:1d:04:78:69:ec:61:58:
                    51:52:84:7e:6b:55:69:2c:f4:23:d6:1f:d8:ed:ab:
                    19:96:38:7b:c6:88:d7:7d:85:93:00:35:40:0b:c0:
                    a9:ff:66:0f:9e:a1:1d:88:6e:a9:8a:f1:ad:47:b4:
                    71:c9:15:50:c6:0f:35:9e:95:4a:66:d3:bd:1b:38:
                    7b:dc:67:85:97:1b:b3:63:c9:72:d6:43:5a:f1:5e:
                    35:f6:05:96:c7:40:bc:23:ab:94:34:82:59:02:b2:
                    33:d0:e6:7f:19:57:65:68:3c:04:61:50:ef:22:95:
                    4f:ef:18:bf:15:b1:4d:8e:cd:a7:a0:98:22:f5:1c:
                    05:01:6b:4b:35:bf:88:c3:47:c3:24:29:b4:45:cb:
                    95:a1:ac:16:1d:dd:b8:68:ac:51:39:24:27:6a:be:
                    31:f1:ec:06:10:55:be:44:02:4f:e8:12:7b:d6:fe:
                    32:c9:48:37:6b:20:68:cb:53:f5:49:3a:ae:4a:c7:
                    43:c1:af:e6:53:11:d9:f8:71:1a:a2:d6:37:c7:2b:
                    45:50:49:51:4f:55:6c:3f:1e:69:7b:58:12:3a:7e:
                    59:a0:57:9d:28:9c:8a:6d:82:e7:13:15:3b:04:8f:
                    e2:82:0f:2f:cf:d9:25:d9:65:a3:3c:03:c0:cd:b6:
                    51:d5
                Exponent: 65537 (0x10001)
        X509v3 extensions:
            X509v3 Subject Key Identifier: 
                A3:F5:71:8A:60:80:3C:93:64:17:D9:2E:B5:C0:CE:A9:C1:14:17:C4
            X509v3 Authority Key Identifier: 
                keyid:CD:97:49:78:F7:31:61:ED:2F:71:1A:68:E9:45:2C:40:78:51:93:5B
                DirName:/C=US/ST=Washington/L=Seattle/O=wolfSSL Inc./OU=Engineering/CN=chainJ-ICA4-pathlen2/emailAddress=facts@wolfssl.com
                serial:64
            X509v3 Basic Constraints: 
                CA:TRUE
            X509v3 Key Usage: 
                Certificate Sign, CRL Sign
    Signature Algorithm: sha256WithRSAEncryption
    Signature Value:
        7e:03:78:03:fe:fd:88:d2:2e:fb:3f:e0:50:a8:61:81:24:db:
        cb:bd:46:2e:ed:f9:47:e9:5a:fc:41:e0:58:b7:50:95:c9:51:
        50:96:19:dd:70:cb:5b:52:6d:de:74:c8:aa:a0:bd:2b:3b:70:
        b2:20:2f:84:3e:c2:37:7d:85:68:6b:bb:3c:36:13:d8:7b:8e:
        0b:a3:28:06:a9:b7:22:04:c9:d5:d6:24:71:a8:45:1e:f1:cf:
        67:4f:45:b1:75:71:6c:40:d1:ce:c8:92:f9:a7:3e:2c:a9:7c:
        1a:89:d2:80:e3:0a:fb:72:75:e6:04:16:91:17:1c:d6:90:9a:
        8a:10:83:a7:88:39:2c:29:ea:d4:88:42:37:b6:d1:43:52:bc:
        42:1b:e1:40:81:e7:0b:37:9b:29:95:51:bb:df:d1:53:1a:3b:
        53:c0:ac:35:24:3d:26:33:ab:ae:f4:15:c1:72:bb:c9:a5:fc:
        d5:10:d0:49:70:00:2f:5e:45:94:c4:ad:15:d7:9c:14:c2:25:
        31:a1:16:f4:14:8a:10:57:17:44:9d:a8:bc:d4:e6:44:49:e1:
        54:f4:d9:4b:2d:91:dd:05:09:98:70:e2:9e:b2:a8:4c:e3:8c:
        0d:f9:bf:09:ca:94:02:bc:cd:3b:a8:c0:dc:5c:35:d3:6a:a6:
        e4:f4:f1:2b
-----BEGIN CERTIFICATE-----
MIIE1zCCA7+gAwIBAgIBZDANBgkqhkiG9w0BAQsFADCBpDELMAkGA1UEBhMCVVMx
EzARBgNVBAgMCldhc2hpbmd0b24xEDAOBgNVBAcMB1NlYXR0bGUxFTATBgNVBAoM
DHdvbGZTU0wgSW5jLjEUMBIGA1UECwwLRW5naW5lZXJpbmcxHzAdBgNVBAMMFmNo
YWluSi1JQ0EzLW5vX3BhdGhsZW4xIDAeBgkqhkiG9w0BCQEWEWZhY3RzQHdvbGZz
c2wuY29tMB4XDTI2MDYxMTIxNDQ0MFoXDTI5MDMwNzIxNDQ0MFowgaQxCzAJBgNV
BAYTAlVTMRMwEQYDVQQIDApXYXNoaW5ndG9uMRAwDgYDVQQHDAdTZWF0dGxlMRUw
EwYDVQQKDAx3b2xmU1NMIEluYy4xFDASBgNVBAsMC0VuZ2luZWVyaW5nMR8wHQYD
VQQDDBZjaGFpbkotSUNBMi1ub19wYXRobGVuMSAwHgYJKoZIhvcNAQkBFhFmYWN0
c0B3b2xmc3NsLmNvbTCCASIwDQYJKoZIhvcNAQEBBQADggEPADCCAQoCggEBALsp
/YmqguAdBHhp7GFYUVKEfmtVaSz0I9Yf2O2rGZY4e8aI132FkwA1QAvAqf9mD56h
HYhuqYrxrUe0cckVUMYPNZ6VSmbTvRs4e9xnhZcbs2PJctZDWvFeNfYFlsdAvCOr
lDSCWQKyM9DmfxlXZWg8BGFQ7yKVT+8YvxWxTY7Np6CYIvUcBQFrSzW/iMNHwyQp
tEXLlaGsFh3duGisUTkkJ2q+MfHsBhBVvkQCT+gSe9b+MslIN2sgaMtT9Uk6rkrH
Q8Gv5lMR2fhxGqLWN8crRVBJUU9VbD8eaXtYEjp+WaBXnSicim2C5xMVOwSP4oIP
L8/ZJdllozwDwM22UdUCAwEAAaOCARAwggEMMB0GA1UdDgQWBBSj9XGKYIA8k2QX
2S61wM6pwRQXxDCBzwYDVR0jBIHHMIHEgBTNl0l49zFh7S9xGmjpRSxAeFGTW6GB
qKSBpTCBojELMAkGA1UEBhMCVVMxEzARBgNVBAgMCldhc2hpbmd0b24xEDAOBgNV
BAcMB1NlYXR0bGUxFTATBgNVBAoMDHdvbGZTU0wgSW5jLjEUMBIGA1UECwwLRW5n
aW5lZXJpbmcxHTAbBgNVBAMMFGNoYWluSi1JQ0E0LXBhdGhsZW4yMSAwHgYJKoZI
hvcNAQkBFhFmYWN0c0B3b2xmc3NsLmNvbYIBZDAMBgNVHRMEBTADAQH/MAsGA1Ud
DwQEAwIBBjANBgkqhkiG9w0BAQsFAAOCAQEAfgN4A/79iNIu+z/gUKhhgSTby71G
Lu35R+la/EHgWLdQlclRUJYZ3XDLW1Jt3nTIqqC9KztwsiAvhD7CN32FaGu7PDYT
2HuOC6MoBqm3IgTJ1dYkcahFHvHPZ09FsXVxbEDRzsiS+ac+LKl8GonSgOMK+3J1
5gQWkRcc1pCaihCDp4g5LCnq1IhCN7bRQ1K8QhvhQIHnCzebKZVRu9/RUxo7U8Cs
NSQ9JjOrrvQVwXK7yaX81RDQSXAAL15FlMStFdecFMIlMaEW9BSKEFcXRJ2ovNTm
REnhVPTZSy2R3QUJmHDinrKoTOOMDfm/CcqUArzNO6jA3Fw102qm5PTxKw==
-----END CERTIFICATE-----
Certificate:
    Data:
        Version: 3 (0x2)
        Serial Number: 100 (0x64)
        Signature Algorithm: sha256WithRSAEncryption
        Issuer: C=US, ST=Washington, L=Seattle, O=wolfSSL Inc., OU=Engineering, CN=chainJ-ICA4-pathlen2, emailAddress=facts@wolfssl.com
        Validity
            Not Before: Jun 11 21:44:40 2026 GMT
            Not After : Mar  7 21:44:40 2029 GMT
        Subject: C=US, ST=Washington, L=Seattle, O=wolfSSL Inc., OU=Engineering, CN=chainJ-ICA3-no_pathlen, emailAddress=facts@wolfssl.com
        Subject Public Key Info:
            Public Key Algorithm: rsaEncryption
                Public-Key: (2048 bit)
                Modulus:
                    00:d8:aa:f6:05:95:70:5a:53:c7:66:10:aa:90:79:
                    3b:cb:78:2a:ef:5f:43:22:71:7c:6d:47:99:a7:8b:
                    39:e1:e7:4e:48:29:48:25:e1:b5:f5:25:df:64:7b:
                    ea:ed:aa:1f:8b:0d:e7:eb:f5:2f:ae:2a:5a:3d:50:
                    c7:fb:ef:0b:8b:44:0b:63:94:be:c6:d7:63:45:2e:
                    85:96:00:5c:be:7e:10:09:b3:d0:aa:7c:de:20:f8:
                    75:39:23:85:ee:84:13:88:54:2a:96:f5:16:27:9f:
                    8b:b0:a6:2a:f4:9d:13:8c:71:1c:0c:a6:59:53:ec:
                    f9:0b:2b:c9:45:13:d6:12:ef:39:d1:8e:9c:9e:ae:
                    3c:bb:b6:d8:10:ac:b7:59:49:5b:73:00:be:af:92:
                    21:14:54:a3:fa:b6:17:ae:b6:dc:b1:f1:61:f0:75:
                    07:43:5e:48:fa:e7:80:56:cf:df:ad:46:52:85:42:
                    fb:a7:70:53:14:c6:b7:51:fa:23:f0:f5:4b:d1:bb:
                    3f:9b:fc:35:ca:d2:85:f1:a0:77:02:06:7c:79:99:
                    13:b5:68:b4:16:47:42:88:f7:bc:eb:78:b2:e8:11:
                    2f:62:f6:da:f9:ef:1b:e0:9f:b5:d5:32:65:b5:4e:
                    e4:be:36:6b:65:65:1a:96:a2:47:b5:3e:9f:b0:0d:
                    63:41
                Exponent: 65537 (0x10001)
        X509v3 extensions:
            X509v3 Subject Key Identifier: 
                CD:97:49:78:F7:31:61:ED:2F:71:1A:68:E9:45:2C:40:78:51:93:5B
            X509v3 Authority Key Identifier: 
                keyid:FC:18:13:52:BB:33:4A:DB:1C:5B:D1:80:98:3E:40:86:95:58:72:F9
                DirName:/C=US/ST=Montana/L=Bozeman/O=Sawtooth/OU=Consulting/CN=www.wolfssl.com/emailAddress=facts@wolfssl.com
                serial:64
            X509v3 Basic Constraints: 
                CA:TRUE
            X509v3 Key Usage: 
                Certificate Sign, CRL Sign
    Signature Algorithm: sha256WithRSAEncryption
    Signature Value:
        12:8a:b4:2b:c1:f7:07:ce:d0:6d:13:20:f9:26:f5:cf:b9:a7:
        a2:87:91:61:36:12:65:a4:09:8a:3c:83:97:78:0f:4b:2a:1b:
        9e:8d:95:c2:86:17:d3:41:ec:8c:51:5c:9d:16:85:0d:34:0b:
        73:50:bf:0d:ca:97:c9:b8:c6:dc:4f:db:6b:ca:2f:6b:3c:2d:
        44:37:b7:54:d5:ee:8c:3f:6c:b5:82:3d:f7:1b:68:c0:46:5f:
        89:82:38:00:88:c4:80:08:01:3b:ca:69:bf:fd:26:6a:12:c5:
        33:8c:f9:89:70:a0:c1:5f:39:56:d5:2a:f2:b7:ed:30:4d:f0:
        b7:55:d7:17:35:55:15:4e:0f:75:6e:4a:9e:18:d1:8e:c2:6e:
        e8:f3:fd:f6:8a:e0:26:c1:85:b8:05:eb:f9:29:82:81:2d:af:
        15:50:f1:7b:63:ac:f6:85:9f:1c:2a:d2:f0:38:29:2a:5d:f5:
        97:d7:78:52:be:f9:b4:ac:1f:44:2c:38:3c:ba:d5:52:86:d7:
        fc:7b:0c:67:64:87:12:58:1e:4b:bc:59:5e:bc:69:db:ea:95:
        cd:10:4f:62:66:8c:ba:87:cd:f3:4a:10:46:aa:84:72:4b:dc:
        b5:2f:44:1f:08:63:de:9e:32:d7:25:68:45:0a:8d:83:6e:58:
        1c:a8:e9:50
-----BEGIN CERTIFICATE-----
MIIExzCCA6+gAwIBAgIBZDANBgkqhkiG9w0BAQsFADCBojELMAkGA1UEBhMCVVMx
EzARBgNVBAgMCldhc2hpbmd0b24xEDAOBgNVBAcMB1NlYXR0bGUxFTATBgNVBAoM
DHdvbGZTU0wgSW5jLjEUMBIGA1UECwwLRW5naW5lZXJpbmcxHTAbBgNVBAMMFGNo
YWluSi1JQ0E0LXBhdGhsZW4yMSAwHgYJKoZIhvcNAQkBFhFmYWN0c0B3b2xmc3Ns
LmNvbTAeFw0yNjA2MTEyMTQ0NDBaFw0yOTAzMDcyMTQ0NDBaMIGkMQswCQYDVQQG
EwJVUzETMBEGA1UECAwKV2FzaGluZ3RvbjEQMA4GA1UEBwwHU2VhdHRsZTEVMBMG
A1UECgwMd29sZlNTTCBJbmMuMRQwEgYDVQQLDAtFbmdpbmVlcmluZzEfMB0GA1UE
AwwWY2hhaW5KLUlDQTMtbm9fcGF0aGxlbjEgMB4GCSqGSIb3DQEJARYRZmFjdHNA
d29sZnNzbC5jb20wggEiMA0GCSqGSIb3DQEBAQUAA4IBDwAwggEKAoIBAQDYqvYF
lXBaU8dmEKqQeTvLeCrvX0MicXxtR5mniznh505IKUgl4bX1Jd9ke+rtqh+LDefr
9S+uKlo9UMf77wuLRAtjlL7G12NFLoWWAFy+fhAJs9CqfN4g+HU5I4XuhBOIVCqW
9RYnn4uwpir0nROMcRwMpllT7PkLK8lFE9YS7znRjpyerjy7ttgQrLdZSVtzAL6v
kiEUVKP6theuttyx8WHwdQdDXkj654BWz9+tRlKFQvuncFMUxrdR+iPw9UvRuz+b
/DXK0oXxoHcCBnx5mRO1aLQWR0KI97zreLLoES9i9tr57xvgn7XVMmW1TuS+Nmtl
ZRqWoke1Pp+wDWNBAgMBAAGjggECMIH/MB0GA1UdDgQWBBTNl0l49zFh7S9xGmjp
RSxAeFGTWzCBwgYDVR0jBIG6MIG3gBT8GBNSuzNK2xxb0YCYPkCGlVhy+aGBm6SB
mDCBlTELMAkGA1UEBhMCVVMxEDAOBgNVBAgMB01vbnRhbmExEDAOBgNVBAcMB0Jv
emVtYW4xETAPBgNVBAoMCFNhd3Rvb3RoMRMwEQYDVQQLDApDb25zdWx0aW5nMRgw
FgYDVQQDDA93d3cud29sZnNzbC5jb20xIDAeBgkqhkiG9w0BCQEWEWZhY3RzQHdv
bGZzc2wuY29tggFkMAwGA1UdEwQFMAMBAf8wCwYDVR0PBAQDAgEGMA0GCSqGSIb3
DQEBCwUAA4IBAQASirQrwfcHztBtEyD5JvXPuaeih5FhNhJlpAmKPIOXeA9LKhue
jZXChhfTQeyMUVydFoUNNAtzUL8NypfJuMbcT9tryi9rPC1EN7dU1e6MP2y1gj33
G2jARl+JgjgAiMSACAE7ymm//SZqEsUzjPmJcKDBXzlW1Sryt+0wTfC3VdcXNVUV
Tg91bkqeGNGOwm7o8/32iuAmwYW4Bev5KYKBLa8VUPF7Y6z2hZ8cKtLwOCkqXfWX
13hSvvm0rB9ELDg8utVShtf8ewxnZIcSWB5LvFlevGnb6pXNEE9iZoy6h83zShBG
qoRyS9y1L0QfCGPenjLXJWhFCo2DblgcqOlQ
-----END CERTIFICATE-----
Certificate:
    Data:
        Version: 3 (0x2)
        Serial Number: 100 (0x64)
        Signature Algorithm: sha256WithRSAEncryption
        Issuer: C=US, ST=Montana, L=Bozeman, O=Sawtooth, OU=Consulting, CN=www.wolfssl.com, emailAddress=facts@wolfssl.com
        Validity
            Not Before: Jun 11 21:44:40 2026 GMT
            Not After : Mar  7 21:44:40 2029 GMT
        Subject: C=US, ST=Washington, L=Seattle, O=wolfSSL Inc., OU=Engineering, CN=chainJ-ICA4-pathlen2, emailAddress=facts@wolfssl.com
        Subject Public Key Info:
            Public Key Algorithm: rsaEncryption
                Public-Key: (2048 bit)
                Modulus:
                    00:9d:4a:ee:6b:ff:b6:ec:88:21:23:84:03:b6:88:
                    bb:3e:5a:1b:95:03:2f:24:53:2d:57:3f:11:38:5d:
                    12:1d:40:6b:10:db:c2:d3:e4:dd:80:77:74:7b:88:
                    44:65:e0:cf:52:c5:8a:42:e5:6e:b7:6a:ab:50:a0:
                    2e:29:c2:fe:ba:d5:c7:da:6b:91:26:8f:fc:1e:06:
                    17:f0:de:58:87:ef:1e:a6:91:12:39:68:a5:05:f3:
                    8c:67:c9:e5:99:18:a4:fc:90:3f:bd:a6:ca:f2:a6:
                    dd:b5:e6:93:cb:14:89:83:3c:88:5a:31:ab:e3:66:
                    2a:1b:87:c5:85:03:45:b0:ce:e1:0f:c1:0f:92:70:
                    d7:ac:65:ea:a8:09:c1:fe:1d:db:b7:e7:dd:98:d3:
                    c6:b1:16:b4:54:58:c1:aa:ba:a1:cf:19:14:a7:e4:
                    55:a6:da:bb:1f:9e:d1:85:00:e0:8d:4a:c4:d2:86:
                    08:75:fd:d8:1e:85:21:6c:27:8f:18:d5:44:73:58:
                    ab:94:75:4a:36:3d:8d:4d:c6:7a:86:9d:00:db:c5:
                    ba:be:70:02:83:bf:6e:d8:31:89:b3:f2:16:98:be:
                    27:f6:14:5a:e9:d4:72:67:8d:a9:df:76:27:bf:19:
                    ac:20:59:28:5b:1b:42:d9:d5:5b:6d:fb:6e:a2:5e:
                    d3:e9
                Exponent: 65537 (0x10001)
        X509v3 extensions:
            X509v3 Subject Key Identifier: 
                FC:18:13:52:BB:33:4A:DB:1C:5B:D1:80:98:3E:40:86:95:58:72:F9
            X509v3 Authority Key Identifier: 
                keyid:27:8E:67:11:74:C3:26:1D:3F:ED:33:63:B3:A4:D8:1D:30:E5:E8:D5
                DirName:/C=US/ST=Montana/L=Bozeman/O=Sawtooth/OU=Consulting/CN=www.wolfssl.com/emailAddress=facts@wolfssl.com
                serial:67:19:D2:A8:7F:E3:2D:FA:75:7A:4F:E7:B2:02:D9:AD:C4:77:5E:F8
            X509v3 Basic Constraints: 
                CA:TRUE, pathlen:2
            X509v3 Key Usage: 
                Certificate Sign, CRL Sign
    Signature Algorithm: sha256WithRSAEncryption
    Signature Value:
        73:8f:2f:29:66:1e:47:36:fe:4c:21:d5:77:fa:d0:01:28:f2:
        b3:c2:3d:56:5a:ae:da:6f:ad:da:d8:a9:df:3e:4b:63:16:66:
        f1:b4:30:ad:db:9a:9d:00:8f:71:43:33:68:30:3a:2d:6d:dc:
        9f:09:0d:20:eb:a2:c4:52:b9:90:a0:73:94:a1:47:54:f7:24:
        02:2a:fe:7f:f9:7e:37:73:b2:e1:b5:04:b5:e1:01:a5:11:50:
        00:b5:e8:d9:44:bf:b9:a4:19:c5:56:99:cc:06:cf:41:d6:f3:
        5e:e8:2c:4f:af:10:dd:0e:33:b7:d8:a4:14:d8:74:a5:dc:68:
        a8:29:88:5b:62:0e:ba:0d:f6:29:d5:57:94:53:a5:22:2c:be:
        08:da:2e:79:56:f0:c4:b1:79:f0:3b:5a:31:cb:40:43:cf:30:
        b9:20:1c:16:0d:d4:47:1b:7c:ee:90:c3:a7:21:3a:85:23:7d:
        15:2e:b6:1b:9a:32:ab:18:2a:ea:4b:26:f2:a7:06:62:0a:77:
        cf:16:0c:99:bf:68:7d:02:fc:1e:8b:f3:6b:34:64:ce:f4:90:
        59:c6:a4:71:f6:2b:0c:9d:dd:8f:c1:c4:41:98:77:bc:c2:59:
        8d:76:9c:f7:c2:7d:ee:33:ee:6e:08:09:45:64:33:c6:4e:b2:
        4a:ba:16:b6
-----BEGIN CERTIFICATE-----
MIIEzzCCA7egAwIBAgIBZDANBgkqhkiG9w0BAQsFADCBlTELMAkGA1UEBhMCVVMx
EDAOBgNVBAgMB01vbnRhbmExEDAOBgNVBAcMB0JvemVtYW4xETAPBgNVBAoMCFNh
d3Rvb3RoMRMwEQYDVQQLDApDb25zdWx0aW5nMRgwFgYDVQQDDA93d3cud29sZnNz
bC5jb20xIDAeBgkqhkiG9w0BCQEWEWZhY3RzQHdvbGZzc2wuY29tMB4XDTI2MDYx
MTIxNDQ0MFoXDTI5MDMwNzIxNDQ0MFowgaIxCzAJBgNVBAYTAlVTMRMwEQYDVQQI
DApXYXNoaW5ndG9uMRAwDgYDVQQHDAdTZWF0dGxlMRUwEwYDVQQKDAx3b2xmU1NM
IEluYy4xFDASBgNVBAsMC0VuZ2luZWVyaW5nMR0wGwYDVQQDDBRjaGFpbkotSUNB
NC1wYXRobGVuMjEgMB4GCSqGSIb3DQEJARYRZmFjdHNAd29sZnNzbC5jb20wggEi
MA0GCSqGSIb3DQEBAQUAA4IBDwAwggEKAoIBAQCdSu5r/7bsiCEjhAO2iLs+WhuV
Ay8kUy1XPxE4XRIdQGsQ28LT5N2Ad3R7iERl4M9SxYpC5W63aqtQoC4pwv661cfa
a5Emj/weBhfw3liH7x6mkRI5aKUF84xnyeWZGKT8kD+9psrypt215pPLFImDPIha
MavjZiobh8WFA0WwzuEPwQ+ScNesZeqoCcH+Hdu3592Y08axFrRUWMGquqHPGRSn
5FWm2rsfntGFAOCNSsTShgh1/dgehSFsJ48Y1URzWKuUdUo2PY1NxnqGnQDbxbq+
cAKDv27YMYmz8haYvif2FFrp1HJnjanfdie/GawgWShbG0LZ1Vtt+26iXtPpAgMB
AAGjggEZMIIBFTAdBgNVHQ4EFgQU/BgTUrszStscW9GAmD5AhpVYcvkwgdUGA1Ud
IwSBzTCByoAUJ45nEXTDJh0/7TNjs6TYHTDl6NWhgZukgZgwgZUxCzAJBgNVBAYT
AlVTMRAwDgYDVQQIDAdNb250YW5hMRAwDgYDVQQHDAdCb3plbWFuMREwDwYDVQQK
DAhTYXd0b290aDETMBEGA1UECwwKQ29uc3VsdGluZzEYMBYGA1UEAwwPd3d3Lndv
bGZzc2wuY29tMSAwHgYJKoZIhvcNAQkBFhFmYWN0c0B3b2xmc3NsLmNvbYIUZxnS
qH/jLfp1ek/nsgLZrcR3XvgwDwYDVR0TBAgwBgEB/wIBAjALBgNVHQ8EBAMCAQYw
DQYJKoZIhvcNAQELBQADggEBAHOPLylmHkc2/kwh1Xf60AEo8rPCPVZartpvrdrY
qd8+S2MWZvG0MK3bmp0Aj3FDM2gwOi1t3J8JDSDrosRSuZCgc5ShR1T3JAIq/n/5
fjdzsuG1BLXhAaURUAC16NlEv7mkGcVWmcwGz0HW817oLE+vEN0OM7fYpBTYdKXc
aKgpiFtiDroN9inVV5RTpSIsvgjaLnlW8MSxefA7WjHLQEPPMLkgHBYN1EcbfO6Q
w6chOoUjfRUuthuaMqsYKupLJvKnBmIKd88WDJm/aH0C/B6L82s0ZM70kFnGpHH2
Kwyd3Y/BxEGYd7zCWY12nPfCfe4z7m4ICUVkM8ZOskq6FrY=
-----END CERTIFICATE-----
