Certificate:
    Data:
        Version: 3 (0x2)
        Serial Number: 100 (0x64)
        Signature Algorithm: sha256WithRSAEncryption
        Issuer: C = US, ST = Washington, L = Seattle, O = wolfSSL Inc., OU = Engineering, CN = chainI-ICA2-no_pathlen, emailAddress = info@wolfssl.com
        Validity
            Not Before: Sep 26 17:22:46 2023 GMT
            Not After : Jun 22 17:22:46 2026 GMT
        Subject: C = US, ST = Washington, L = Seattle, O = wolfSSL Inc., OU = Engineering, CN = chainI-ICA1-no_pathlen, emailAddress = info@wolfssl.com
        Subject Public Key Info:
            Public Key Algorithm: rsaEncryption
                Public-Key: (2048 bit)
                Modulus:
                    00:bb:ba:06:ad:13:cf:da:fb:d1:cb:65:fe:26:58:
                    49:6a:01:14:a6:78:b2:2c:1d:ba:ba:d0:bd:27:38:
                    66:7c:a0:1b:28:08:3c:6a:fd:f8:87:be:49:a2:ed:
                    38:f2:4c:b0:8b:93:ff:d2:c5:3f:cd:03:c5:14:79:
                    e8:76:63:7a:aa:a7:54:1e:0e:27:bd:1b:be:e8:3f:
                    2b:55:40:f0:59:23:d8:3f:e8:05:1a:0b:71:f0:fd:
                    24:d9:f9:0b:99:25:da:af:96:34:ee:e1:91:cb:fc:
                    8f:a0:41:8f:9c:e1:4f:57:5f:b6:d6:55:69:6f:c3:
                    64:c3:11:a9:69:40:85:df:f3:9a:59:b5:ee:90:c0:
                    22:ee:72:28:2e:d3:da:65:27:3b:ba:42:c0:9e:73:
                    ba:a2:f2:45:13:7a:c5:1d:30:a5:b7:db:75:5d:6f:
                    cc:08:77:80:67:8d:18:2a:ca:02:8d:8e:d3:9c:2a:
                    fa:b7:8f:1b:7d:ef:62:77:a4:fa:b6:d8:5a:3e:66:
                    9c:3e:13:45:a8:cf:61:fb:ff:41:45:14:21:e2:63:
                    ac:81:4d:65:89:e3:d5:71:20:01:19:76:ec:a4:16:
                    a6:ef:3c:bc:f2:a2:56:2b:07:31:67:0d:e5:97:88:
                    e8:db:cb:4d:98:cb:99:e6:e0:bd:62:48:2b:b1:04:
                    12:07
                Exponent: 65537 (0x10001)
        X509v3 extensions:
            X509v3 Subject Key Identifier: 
                9E:54:B6:95:EA:89:07:A6:C9:E4:82:E8:D0:34:64:5D:08:CD:56:A0
            X509v3 Authority Key Identifier: 
                keyid:D1:BA:FB:FF:1D:29:41:8A:6A:5F:B2:F3:A7:41:05:47:09:1F:48:42
                DirName:/C=US/ST=Washington/L=Seattle/O=wolfSSL Inc./OU=Engineering/CN=chainI-ICA3-pathlen2/emailAddress=info@wolfssl.com
                serial:64
            X509v3 Basic Constraints: 
                CA:TRUE
            X509v3 Key Usage: 
                Certificate Sign, CRL Sign
    Signature Algorithm: sha256WithRSAEncryption
    Signature Value:
        20:f4:23:2b:f4:51:a0:b3:b2:d0:b7:b6:82:76:6a:31:e7:3f:
        ba:88:68:f2:8b:a7:86:b2:b2:f9:6e:79:56:27:74:a7:aa:62:
        40:88:37:1a:55:90:33:48:9b:26:3d:cc:db:17:3b:9b:66:36:
        10:84:63:ad:a4:17:c1:47:72:df:d6:8a:49:1f:85:d7:71:0b:
        5e:c6:70:02:26:95:47:cc:22:3c:4d:9c:57:0c:2f:c7:2a:4c:
        4b:43:3b:69:cf:2a:18:cd:f4:61:d6:ad:34:33:fa:e7:d2:c4:
        dd:69:57:68:47:9b:09:35:7a:39:e7:83:09:ce:5b:c6:b7:9b:
        45:86:b3:b6:60:8e:30:13:bd:3f:b0:b3:fd:3e:93:7c:a8:e9:
        15:be:81:22:5d:99:07:57:95:de:58:c6:6f:eb:3c:6b:c9:88:
        03:d4:2f:27:1c:78:01:8f:bc:e1:29:98:6a:9e:fd:1b:b6:80:
        65:84:ca:c4:e3:2f:03:da:84:4e:95:05:a4:e3:eb:50:7d:92:
        86:d7:01:6c:1e:55:16:77:99:16:c8:ef:34:0a:5e:3e:cd:10:
        e2:ba:e0:53:56:a4:2a:c1:7e:3c:ac:9b:ff:97:8b:d6:4c:3c:
        59:50:c5:85:6c:af:67:d3:7b:b1:c6:6c:88:e8:7c:ca:d6:30:
        c1:89:2c:bb
-----BEGIN CERTIFICATE-----
MIIE1DCCA7ygAwIBAgIBZDANBgkqhkiG9w0BAQsFADCBozELMAkGA1UEBhMCVVMx
EzARBgNVBAgMCldhc2hpbmd0b24xEDAOBgNVBAcMB1NlYXR0bGUxFTATBgNVBAoM
DHdvbGZTU0wgSW5jLjEUMBIGA1UECwwLRW5naW5lZXJpbmcxHzAdBgNVBAMMFmNo
YWluSS1JQ0EyLW5vX3BhdGhsZW4xHzAdBgkqhkiG9w0BCQEWEGluZm9Ad29sZnNz
bC5jb20wHhcNMjMwOTI2MTcyMjQ2WhcNMjYwNjIyMTcyMjQ2WjCBozELMAkGA1UE
BhMCVVMxEzARBgNVBAgMCldhc2hpbmd0b24xEDAOBgNVBAcMB1NlYXR0bGUxFTAT
BgNVBAoMDHdvbGZTU0wgSW5jLjEUMBIGA1UECwwLRW5naW5lZXJpbmcxHzAdBgNV
BAMMFmNoYWluSS1JQ0ExLW5vX3BhdGhsZW4xHzAdBgkqhkiG9w0BCQEWEGluZm9A
d29sZnNzbC5jb20wggEiMA0GCSqGSIb3DQEBAQUAA4IBDwAwggEKAoIBAQC7ugat
E8/a+9HLZf4mWElqARSmeLIsHbq60L0nOGZ8oBsoCDxq/fiHvkmi7TjyTLCLk//S
xT/NA8UUeeh2Y3qqp1QeDie9G77oPytVQPBZI9g/6AUaC3Hw/STZ+QuZJdqvljTu
4ZHL/I+gQY+c4U9XX7bWVWlvw2TDEalpQIXf85pZte6QwCLucigu09plJzu6QsCe
c7qi8kUTesUdMKW323Vdb8wId4BnjRgqygKNjtOcKvq3jxt972J3pPq22Fo+Zpw+
E0Woz2H7/0FFFCHiY6yBTWWJ49VxIAEZduykFqbvPLzyolYrBzFnDeWXiOjby02Y
y5nm4L1iSCuxBBIHAgMBAAGjggEPMIIBCzAdBgNVHQ4EFgQUnlS2leqJB6bJ5ILo
0DRkXQjNVqAwgc4GA1UdIwSBxjCBw4AU0br7/x0pQYpqX7Lzp0EFRwkfSEKhgaek
gaQwgaExCzAJBgNVBAYTAlVTMRMwEQYDVQQIDApXYXNoaW5ndG9uMRAwDgYDVQQH
DAdTZWF0dGxlMRUwEwYDVQQKDAx3b2xmU1NMIEluYy4xFDASBgNVBAsMC0VuZ2lu
ZWVyaW5nMR0wGwYDVQQDDBRjaGFpbkktSUNBMy1wYXRobGVuMjEfMB0GCSqGSIb3
DQEJARYQaW5mb0B3b2xmc3NsLmNvbYIBZDAMBgNVHRMEBTADAQH/MAsGA1UdDwQE
AwIBBjANBgkqhkiG9w0BAQsFAAOCAQEAIPQjK/RRoLOy0Le2gnZqMec/uoho8oun
hrKy+W55Vid0p6piQIg3GlWQM0ibJj3M2xc7m2Y2EIRjraQXwUdy39aKSR+F13EL
XsZwAiaVR8wiPE2cVwwvxypMS0M7ac8qGM30YdatNDP659LE3WlXaEebCTV6OeeD
Cc5bxrebRYaztmCOMBO9P7Cz/T6TfKjpFb6BIl2ZB1eV3ljGb+s8a8mIA9QvJxx4
AY+84SmYap79G7aAZYTKxOMvA9qETpUFpOPrUH2ShtcBbB5VFneZFsjvNApePs0Q
4rrgU1akKsF+PKyb/5eL1kw8WVDFhWyvZ9N7scZsiOh8ytYwwYksuw==
-----END CERTIFICATE-----
