Certificate:
    Data:
        Version: 3 (0x2)
        Serial Number: 101 (0x65)
        Signature Algorithm: sha256WithRSAEncryption
        Issuer: C = US, ST = Washington, L = Seattle, O = wolfSSL Inc., OU = Engineering, CN = chainE-ICA1-pathlen128, emailAddress = info@wolfssl.com
        Validity
            Not Before: Dec 18 21:25:33 2024 GMT
            Not After : Sep 14 21:25:33 2027 GMT
        Subject: C = US, ST = Washington, L = Seattle, O = wolfSSL Inc., OU = Engineering, CN = chainE-entity, emailAddress = info@wolfssl.com
        Subject Public Key Info:
            Public Key Algorithm: rsaEncryption
                Public-Key: (2048 bit)
                Modulus:
                    00:d8:6f:49:bb:56:ea:34:4c:25:a6:8c:44:f6:c9:
                    75:8f:6b:83:b8:8b:ec:c6:f6:d3:c7:40:e2:d1:b2:
                    d8:77:92:e9:97:c4:b6:57:ad:10:c8:cb:e7:0a:40:
                    ef:3c:a8:38:dc:94:22:08:e7:53:2a:c8:7a:26:90:
                    41:43:6f:7b:8f:4e:58:74:69:20:92:9f:12:aa:6a:
                    c5:cf:7f:24:d1:d0:89:2f:6c:5e:62:31:0a:20:23:
                    6b:07:c2:a0:7d:4d:ed:05:6d:2c:b1:9a:85:e6:41:
                    61:12:6c:85:d3:d4:be:7e:cf:23:d9:79:b1:46:23:
                    d7:1a:f7:d6:f4:97:43:a5:08:03:7a:51:0d:b0:e7:
                    56:62:86:37:07:81:e8:21:f1:10:63:41:b6:82:6d:
                    f2:cd:d9:7f:80:6f:a7:4b:77:10:15:54:02:9c:7a:
                    d0:6e:b8:29:98:72:34:08:7b:ce:d7:24:91:48:a6:
                    c3:f2:9d:77:fc:aa:73:13:70:60:f9:8f:37:4c:d7:
                    34:5c:fa:51:b1:c0:d5:25:e1:75:b2:e2:cd:23:97:
                    c9:a6:bf:d3:5e:21:4b:12:f5:b2:d0:df:92:7f:4c:
                    a8:b2:21:43:2c:f9:3e:fb:14:99:1f:ed:76:2c:87:
                    5a:df:72:d3:85:a3:a8:92:1a:ad:66:19:50:44:8a:
                    05:e1
                Exponent: 65537 (0x10001)
        X509v3 extensions:
            X509v3 Subject Key Identifier: 
                26:FC:70:E0:8F:A1:3D:52:82:76:6B:CB:C7:0F:89:9D:2B:86:69:F5
            X509v3 Authority Key Identifier: 
                keyid:44:7B:00:7C:9C:1C:97:9F:97:AA:6B:F2:5E:E6:81:7C:0E:AE:E6:2B
                DirName:/C=US/ST=Montana/L=Bozeman/O=Sawtooth/OU=Consulting/CN=www.wolfssl.com/emailAddress=info@wolfssl.com
                serial:64
            X509v3 Basic Constraints: 
                CA:FALSE
    Signature Algorithm: sha256WithRSAEncryption
    Signature Value:
        af:d9:4f:48:01:07:74:ac:5a:19:b3:b8:d4:8d:a9:ff:f8:23:
        57:c3:3b:e6:f5:ac:41:ab:0a:b5:71:32:a3:4f:4a:14:90:c4:
        eb:ef:65:38:88:97:92:79:2d:7e:64:29:be:2a:5a:48:9b:b9:
        b1:d7:4f:1c:3a:46:fc:2e:e9:72:4f:97:f7:c7:f5:f0:a2:d6:
        01:7d:49:99:c8:ac:a2:b7:f9:4c:d5:57:8d:b0:69:b6:fa:59:
        7e:77:9a:bc:61:bc:74:1c:24:75:d3:2e:1e:ea:79:9f:8c:c2:
        75:e7:a5:54:b7:d9:3c:40:b5:45:d5:e9:e3:24:00:76:67:a2:
        64:31:24:a7:2a:30:be:4f:c2:56:dd:89:0e:0d:09:1e:84:14:
        a2:c8:32:6f:59:2d:df:7e:8c:75:a0:83:19:cc:a5:49:99:e1:
        70:09:f0:70:83:32:3d:2b:07:f3:76:0a:ee:fc:91:d4:b3:b9:
        0f:b7:73:f4:9b:f3:58:c7:4e:80:27:48:aa:72:f9:01:42:41:
        e6:b7:5c:c1:93:47:48:e5:b9:54:d3:c2:de:02:8e:05:35:49:
        36:82:62:5d:a7:08:9a:d0:d3:eb:a4:48:2c:a1:5a:39:06:01:
        4f:9b:c4:19:c4:a2:36:b8:72:4c:50:cb:3e:77:e9:85:92:7b:
        d5:91:4c:56
-----BEGIN CERTIFICATE-----
MIIErDCCA5SgAwIBAgIBZTANBgkqhkiG9w0BAQsFADCBozELMAkGA1UEBhMCVVMx
EzARBgNVBAgMCldhc2hpbmd0b24xEDAOBgNVBAcMB1NlYXR0bGUxFTATBgNVBAoM
DHdvbGZTU0wgSW5jLjEUMBIGA1UECwwLRW5naW5lZXJpbmcxHzAdBgNVBAMMFmNo
YWluRS1JQ0ExLXBhdGhsZW4xMjgxHzAdBgkqhkiG9w0BCQEWEGluZm9Ad29sZnNz
bC5jb20wHhcNMjQxMjE4MjEyNTMzWhcNMjcwOTE0MjEyNTMzWjCBmjELMAkGA1UE
BhMCVVMxEzARBgNVBAgMCldhc2hpbmd0b24xEDAOBgNVBAcMB1NlYXR0bGUxFTAT
BgNVBAoMDHdvbGZTU0wgSW5jLjEUMBIGA1UECwwLRW5naW5lZXJpbmcxFjAUBgNV
BAMMDWNoYWluRS1lbnRpdHkxHzAdBgkqhkiG9w0BCQEWEGluZm9Ad29sZnNzbC5j
b20wggEiMA0GCSqGSIb3DQEBAQUAA4IBDwAwggEKAoIBAQDYb0m7Vuo0TCWmjET2
yXWPa4O4i+zG9tPHQOLRsth3kumXxLZXrRDIy+cKQO88qDjclCII51MqyHomkEFD
b3uPTlh0aSCSnxKqasXPfyTR0IkvbF5iMQogI2sHwqB9Te0FbSyxmoXmQWESbIXT
1L5+zyPZebFGI9ca99b0l0OlCAN6UQ2w51ZihjcHgegh8RBjQbaCbfLN2X+Ab6dL
dxAVVAKcetBuuCmYcjQIe87XJJFIpsPynXf8qnMTcGD5jzdM1zRc+lGxwNUl4XWy
4s0jl8mmv9NeIUsS9bLQ35J/TKiyIUMs+T77FJkf7XYsh1rfctOFo6iSGq1mGVBE
igXhAgMBAAGjgfEwge4wHQYDVR0OBBYEFCb8cOCPoT1SgnZry8cPiZ0rhmn1MIHB
BgNVHSMEgbkwgbaAFER7AHycHJefl6pr8l7mgXwOruYroYGapIGXMIGUMQswCQYD
VQQGEwJVUzEQMA4GA1UECAwHTW9udGFuYTEQMA4GA1UEBwwHQm96ZW1hbjERMA8G
A1UECgwIU2F3dG9vdGgxEzARBgNVBAsMCkNvbnN1bHRpbmcxGDAWBgNVBAMMD3d3
dy53b2xmc3NsLmNvbTEfMB0GCSqGSIb3DQEJARYQaW5mb0B3b2xmc3NsLmNvbYIB
ZDAJBgNVHRMEAjAAMA0GCSqGSIb3DQEBCwUAA4IBAQCv2U9IAQd0rFoZs7jUjan/
+CNXwzvm9axBqwq1cTKjT0oUkMTr72U4iJeSeS1+ZCm+KlpIm7mx108cOkb8Luly
T5f3x/XwotYBfUmZyKyit/lM1VeNsGm2+ll+d5q8Ybx0HCR10y4e6nmfjMJ156VU
t9k8QLVF1enjJAB2Z6JkMSSnKjC+T8JW3YkODQkehBSiyDJvWS3ffox1oIMZzKVJ
meFwCfBwgzI9Kwfzdgru/JHUs7kPt3P0m/NYx06AJ0iqcvkBQkHmt1zBk0dI5blU
08LeAo4FNUk2gmJdpwia0NPrpEgsoVo5BgFPm8QZxKI2uHJMUMs+d+mFknvVkUxW
-----END CERTIFICATE-----
Certificate:
    Data:
        Version: 3 (0x2)
        Serial Number: 100 (0x64)
        Signature Algorithm: sha256WithRSAEncryption
        Issuer: C = US, ST = Montana, L = Bozeman, O = Sawtooth, OU = Consulting, CN = www.wolfssl.com, emailAddress = info@wolfssl.com
        Validity
            Not Before: Dec 18 21:25:33 2024 GMT
            Not After : Sep 14 21:25:33 2027 GMT
        Subject: C = US, ST = Washington, L = Seattle, O = wolfSSL Inc., OU = Engineering, CN = chainE-ICA1-pathlen128, emailAddress = info@wolfssl.com
        Subject Public Key Info:
            Public Key Algorithm: rsaEncryption
                Public-Key: (2048 bit)
                Modulus:
                    00:d6:f3:6f:b8:db:10:df:89:df:3b:d9:2e:7a:c1:
                    34:1a:56:97:6c:73:04:fc:15:50:04:93:66:cb:17:
                    ba:fb:f9:28:b9:d6:ce:7e:f5:78:bb:b1:4f:aa:4b:
                    f8:80:35:d9:ae:fe:99:75:f7:cd:79:0b:cf:ca:da:
                    cb:58:9a:6e:9b:91:21:f4:17:fd:56:b8:3a:cf:cf:
                    ed:f7:90:6a:73:6c:06:99:ef:0e:8f:65:dc:d0:e8:
                    db:7b:c1:e8:4d:6d:61:9e:cc:5a:20:de:86:3a:58:
                    81:fa:b1:d4:5f:3c:74:43:45:61:36:2c:fe:a4:35:
                    ae:e2:39:c7:fd:dd:b3:83:d6:17:dc:f5:99:3f:67:
                    0e:c1:60:d1:69:8d:3c:f9:62:e9:83:ae:66:10:aa:
                    40:91:63:0b:2a:e5:c1:a8:1f:8e:8a:9b:11:9f:bf:
                    a6:45:fb:16:70:ed:6c:1b:14:98:80:69:04:c3:bd:
                    13:22:e7:d9:33:48:9d:8a:6c:0f:9c:39:08:29:92:
                    83:7b:73:a3:da:86:d6:4a:00:0f:a7:c2:7b:bf:ac:
                    0f:2a:62:96:5b:3b:ef:9f:e1:08:bb:44:ba:c4:99:
                    4f:a0:b9:5e:4d:cb:73:73:fe:ee:82:69:4f:af:c7:
                    59:5a:36:81:44:c6:e3:50:3b:bf:8d:14:ef:7e:96:
                    ef:c1
                Exponent: 65537 (0x10001)
        X509v3 extensions:
            X509v3 Subject Key Identifier: 
                44:7B:00:7C:9C:1C:97:9F:97:AA:6B:F2:5E:E6:81:7C:0E:AE:E6:2B
            X509v3 Authority Key Identifier: 
                keyid:27:8E:67:11:74:C3:26:1D:3F:ED:33:63:B3:A4:D8:1D:30:E5:E8:D5
                DirName:/C=US/ST=Montana/L=Bozeman/O=Sawtooth/OU=Consulting/CN=www.wolfssl.com/emailAddress=info@wolfssl.com
                serial:6B:9B:70:C6:F1:A3:94:65:19:A1:08:58:EF:A7:8D:2B:7A:83:C1:DA
            X509v3 Basic Constraints: 
                CA:TRUE, pathlen:128
            X509v3 Key Usage: 
                Certificate Sign, CRL Sign
    Signature Algorithm: sha256WithRSAEncryption
    Signature Value:
        1f:0a:51:ca:7f:ed:b8:62:ae:d4:7b:ad:d2:dc:82:16:68:de:
        bd:0b:ff:7b:07:e9:ee:32:50:44:9c:f1:e7:a3:a5:3f:f2:c1:
        4a:fa:2f:83:1a:b4:0a:8d:a2:40:4b:56:3b:66:62:c7:6e:ed:
        13:76:0a:8a:ba:12:0c:81:57:9f:13:c5:08:ad:93:42:28:1c:
        e5:fc:73:c2:21:4a:7f:4a:f8:b5:88:9f:65:55:d6:68:5b:7b:
        94:b7:1b:9e:ab:12:f8:d9:05:c1:20:3f:75:5e:c9:88:83:9c:
        fe:8e:68:5f:45:d7:df:c6:ee:8f:24:8c:b6:f3:7f:7b:77:8a:
        5e:d8:0b:d8:3e:15:96:cf:49:45:f9:8b:54:75:83:d0:c6:45:
        97:0b:31:11:89:47:68:03:e4:65:1f:a4:a4:17:40:0a:54:c4:
        83:da:97:b8:0d:b4:ce:42:32:c6:ec:0e:90:c7:b5:33:18:a4:
        98:27:8d:f5:4d:d6:23:38:ab:56:95:e2:c7:1f:2c:68:c5:5f:
        88:57:60:ff:f6:18:3f:2f:30:fe:5e:22:6b:79:d3:b1:26:dc:
        2a:17:4d:69:71:37:63:45:08:b5:22:18:80:41:e0:73:16:2d:
        05:97:22:3a:18:d8:c9:94:e4:04:73:34:7b:b6:a1:4d:1f:90:
        7c:4b:07:bf
-----BEGIN CERTIFICATE-----
MIIEzzCCA7egAwIBAgIBZDANBgkqhkiG9w0BAQsFADCBlDELMAkGA1UEBhMCVVMx
EDAOBgNVBAgMB01vbnRhbmExEDAOBgNVBAcMB0JvemVtYW4xETAPBgNVBAoMCFNh
d3Rvb3RoMRMwEQYDVQQLDApDb25zdWx0aW5nMRgwFgYDVQQDDA93d3cud29sZnNz
bC5jb20xHzAdBgkqhkiG9w0BCQEWEGluZm9Ad29sZnNzbC5jb20wHhcNMjQxMjE4
MjEyNTMzWhcNMjcwOTE0MjEyNTMzWjCBozELMAkGA1UEBhMCVVMxEzARBgNVBAgM
Cldhc2hpbmd0b24xEDAOBgNVBAcMB1NlYXR0bGUxFTATBgNVBAoMDHdvbGZTU0wg
SW5jLjEUMBIGA1UECwwLRW5naW5lZXJpbmcxHzAdBgNVBAMMFmNoYWluRS1JQ0Ex
LXBhdGhsZW4xMjgxHzAdBgkqhkiG9w0BCQEWEGluZm9Ad29sZnNzbC5jb20wggEi
MA0GCSqGSIb3DQEBAQUAA4IBDwAwggEKAoIBAQDW82+42xDfid872S56wTQaVpds
cwT8FVAEk2bLF7r7+Si51s5+9Xi7sU+qS/iANdmu/pl19815C8/K2stYmm6bkSH0
F/1WuDrPz+33kGpzbAaZ7w6PZdzQ6Nt7wehNbWGezFog3oY6WIH6sdRfPHRDRWE2
LP6kNa7iOcf93bOD1hfc9Zk/Zw7BYNFpjTz5YumDrmYQqkCRYwsq5cGoH46KmxGf
v6ZF+xZw7WwbFJiAaQTDvRMi59kzSJ2KbA+cOQgpkoN7c6PahtZKAA+nwnu/rA8q
YpZbO++f4Qi7RLrEmU+guV5Ny3Nz/u6CaU+vx1laNoFExuNQO7+NFO9+lu/BAgMB
AAGjggEZMIIBFTAdBgNVHQ4EFgQURHsAfJwcl5+XqmvyXuaBfA6u5iswgdQGA1Ud
IwSBzDCByYAUJ45nEXTDJh0/7TNjs6TYHTDl6NWhgZqkgZcwgZQxCzAJBgNVBAYT
AlVTMRAwDgYDVQQIDAdNb250YW5hMRAwDgYDVQQHDAdCb3plbWFuMREwDwYDVQQK
DAhTYXd0b290aDETMBEGA1UECwwKQ29uc3VsdGluZzEYMBYGA1UEAwwPd3d3Lndv
bGZzc2wuY29tMR8wHQYJKoZIhvcNAQkBFhBpbmZvQHdvbGZzc2wuY29tghRrm3DG
8aOUZRmhCFjvp40reoPB2jAQBgNVHRMECTAHAQH/AgIAgDALBgNVHQ8EBAMCAQYw
DQYJKoZIhvcNAQELBQADggEBAB8KUcp/7bhirtR7rdLcghZo3r0L/3sH6e4yUESc
8eejpT/ywUr6L4MatAqNokBLVjtmYsdu7RN2Coq6EgyBV58TxQitk0IoHOX8c8Ih
Sn9K+LWIn2VV1mhbe5S3G56rEvjZBcEgP3VeyYiDnP6OaF9F19/G7o8kjLbzf3t3
il7YC9g+FZbPSUX5i1R1g9DGRZcLMRGJR2gD5GUfpKQXQApUxIPal7gNtM5CMsbs
DpDHtTMYpJgnjfVN1iM4q1aV4scfLGjFX4hXYP/2GD8vMP5eImt507Em3CoXTWlx
N2NFCLUiGIBB4HMWLQWXIjoY2MmU5ARzNHu2oU0fkHxLB78=
-----END CERTIFICATE-----
