Certificate:
    Data:
        Version: 3 (0x2)
        Serial Number: 101 (0x65)
        Signature Algorithm: sha256WithRSAEncryption
        Issuer: C = US, ST = Washington, L = Seattle, O = wolfSSL Inc., OU = Engineering, CN = chainI-ICA1-no_pathlen, emailAddress = info@wolfssl.com
        Validity
            Not Before: Jun 19 13:23:42 2020 GMT
            Not After : Mar 16 13:23:42 2023 GMT
        Subject: C = US, ST = Washington, L = Seattle, O = wolfSSL Inc., OU = Engineering, CN = chainI-entity, emailAddress = info@wolfssl.com
        Subject Public Key Info:
            Public Key Algorithm: rsaEncryption
                RSA Public-Key: (2048 bit)
                Modulus:
                    00:f3:ac:32:8f:52:af:a9:cf:9e:23:a4:96:8e:e9:
                    e8:0a:3a:b7:6a:7b:ba:70:85:68:e2:52:f3:38:39:
                    cf:c8:f1:8a:f6:55:1e:59:fa:97:fe:e7:9b:07:2a:
                    b6:80:2a:92:d9:39:95:9e:0c:1f:d7:ad:1f:74:4d:
                    8e:61:6f:64:24:4c:d4:95:03:8f:d3:f2:3d:6e:d8:
                    d8:d5:aa:64:7d:82:ee:74:07:16:68:fa:95:17:9b:
                    35:8f:c3:6c:47:88:3e:40:de:93:36:ed:62:f4:cc:
                    67:45:ee:ea:45:9f:fc:f1:63:6d:b7:fa:f8:c3:e0:
                    6f:c7:4a:3e:04:49:04:37:8b:3a:99:e8:64:0a:86:
                    43:ab:5b:34:1e:6c:33:a2:a4:26:7c:c7:6c:48:99:
                    7d:85:f5:1f:c1:9c:a9:c7:8f:51:6b:8a:86:8d:1c:
                    b0:d2:82:ba:a4:a7:09:29:8b:0a:20:d1:7c:b1:67:
                    0c:61:cd:88:33:5e:38:ab:08:78:0b:80:0b:ce:63:
                    03:b9:40:7b:67:3e:a8:ac:4e:44:92:09:4c:3f:e0:
                    3d:55:cb:aa:5a:bc:17:9c:4e:9e:40:5c:82:fc:3b:
                    3a:54:40:90:f9:22:3c:f4:00:5f:95:13:72:49:29:
                    ae:5f:31:22:30:04:05:6a:7b:b5:0a:0a:a6:5e:72:
                    4d:5f
                Exponent: 65537 (0x10001)
        X509v3 extensions:
            X509v3 Subject Key Identifier: 
                EB:B5:A2:7B:24:95:03:11:6B:56:CB:13:3E:A8:B2:8F:B1:CF:5D:C4
            X509v3 Authority Key Identifier: 
                keyid:9E:54:B6:95:EA:89:07:A6:C9:E4:82:E8:D0:34:64:5D:08:CD:56:A0
                DirName:/C=US/ST=Washington/L=Seattle/O=wolfSSL Inc./OU=Engineering/CN=chainI-ICA2-no_pathlen/emailAddress=info@wolfssl.com
                serial:64

            X509v3 Basic Constraints: 
                CA:FALSE
    Signature Algorithm: sha256WithRSAEncryption
         31:42:86:ed:6c:a0:4c:dd:d2:14:55:34:b6:d8:8c:8e:dd:19:
         c5:a1:2b:48:28:df:3e:4d:5f:e8:85:66:75:65:2f:84:29:c5:
         03:db:cb:75:93:fb:28:19:38:02:46:27:8c:54:28:56:02:7a:
         d4:6c:06:f0:e3:d3:04:38:a1:84:11:c7:6f:49:cd:a8:6b:7b:
         db:17:7d:db:ee:e2:4e:1f:57:aa:ef:2b:a1:fd:b0:63:67:0e:
         cf:5b:94:07:06:bc:cf:c9:4a:ec:74:99:d1:0e:f5:6a:14:c6:
         0f:75:0f:0d:c6:06:18:a2:a6:5a:bb:59:7d:d1:d5:ef:03:78:
         fb:3e:70:6c:ac:8f:ad:ed:6f:39:61:c7:71:a7:7f:ff:19:bb:
         91:89:b6:f3:b7:90:d2:26:7b:78:47:3e:01:ee:e3:47:a8:01:
         40:cd:d8:94:81:8a:17:90:ac:8a:4c:53:4f:fd:77:d8:c1:0c:
         2b:d0:7f:3a:ed:d7:ab:df:e8:83:0d:02:9c:c9:0b:57:3e:bc:
         07:ef:d9:d4:8a:4c:fb:b9:da:be:6d:ba:3f:18:0d:c8:d4:58:
         9a:f3:a9:de:33:78:3a:b5:b6:bc:55:c9:18:8c:9b:b8:3f:b7:
         27:72:de:d5:3e:be:2e:58:39:c9:79:f1:d4:ee:a1:f1:bd:6e:
         9d:48:af:3e
-----BEGIN CERTIFICATE-----
MIIEvDCCA6SgAwIBAgIBZTANBgkqhkiG9w0BAQsFADCBozELMAkGA1UEBhMCVVMx
EzARBgNVBAgMCldhc2hpbmd0b24xEDAOBgNVBAcMB1NlYXR0bGUxFTATBgNVBAoM
DHdvbGZTU0wgSW5jLjEUMBIGA1UECwwLRW5naW5lZXJpbmcxHzAdBgNVBAMMFmNo
YWluSS1JQ0ExLW5vX3BhdGhsZW4xHzAdBgkqhkiG9w0BCQEWEGluZm9Ad29sZnNz
bC5jb20wHhcNMjAwNjE5MTMyMzQyWhcNMjMwMzE2MTMyMzQyWjCBmjELMAkGA1UE
BhMCVVMxEzARBgNVBAgMCldhc2hpbmd0b24xEDAOBgNVBAcMB1NlYXR0bGUxFTAT
BgNVBAoMDHdvbGZTU0wgSW5jLjEUMBIGA1UECwwLRW5naW5lZXJpbmcxFjAUBgNV
BAMMDWNoYWluSS1lbnRpdHkxHzAdBgkqhkiG9w0BCQEWEGluZm9Ad29sZnNzbC5j
b20wggEiMA0GCSqGSIb3DQEBAQUAA4IBDwAwggEKAoIBAQDzrDKPUq+pz54jpJaO
6egKOrdqe7pwhWjiUvM4Oc/I8Yr2VR5Z+pf+55sHKraAKpLZOZWeDB/XrR90TY5h
b2QkTNSVA4/T8j1u2NjVqmR9gu50BxZo+pUXmzWPw2xHiD5A3pM27WL0zGdF7upF
n/zxY223+vjD4G/HSj4ESQQ3izqZ6GQKhkOrWzQebDOipCZ8x2xImX2F9R/BnKnH
j1FrioaNHLDSgrqkpwkpiwog0XyxZwxhzYgzXjirCHgLgAvOYwO5QHtnPqisTkSS
CUw/4D1Vy6pavBecTp5AXIL8OzpUQJD5Ijz0AF+VE3JJKa5fMSIwBAVqe7UKCqZe
ck1fAgMBAAGjggEAMIH9MB0GA1UdDgQWBBTrtaJ7JJUDEWtWyxM+qLKPsc9dxDCB
0AYDVR0jBIHIMIHFgBSeVLaV6okHpsnkgujQNGRdCM1WoKGBqaSBpjCBozELMAkG
A1UEBhMCVVMxEzARBgNVBAgMCldhc2hpbmd0b24xEDAOBgNVBAcMB1NlYXR0bGUx
FTATBgNVBAoMDHdvbGZTU0wgSW5jLjEUMBIGA1UECwwLRW5naW5lZXJpbmcxHzAd
BgNVBAMMFmNoYWluSS1JQ0EyLW5vX3BhdGhsZW4xHzAdBgkqhkiG9w0BCQEWEGlu
Zm9Ad29sZnNzbC5jb22CAWQwCQYDVR0TBAIwADANBgkqhkiG9w0BAQsFAAOCAQEA
MUKG7WygTN3SFFU0ttiMjt0ZxaErSCjfPk1f6IVmdWUvhCnFA9vLdZP7KBk4AkYn
jFQoVgJ61GwG8OPTBDihhBHHb0nNqGt72xd92+7iTh9Xqu8rof2wY2cOz1uUBwa8
z8lK7HSZ0Q71ahTGD3UPDcYGGKKmWrtZfdHV7wN4+z5wbKyPre1vOWHHcad//xm7
kYm287eQ0iZ7eEc+Ae7jR6gBQM3YlIGKF5CsikxTT/132MEMK9B/Ou3Xq9/ogw0C
nMkLVz68B+/Z1IpM+7navm26PxgNyNRYmvOp3jN4OrW2vFXJGIybuD+3J3Le1T6+
Llg5yXnx1O6h8b1unUivPg==
-----END CERTIFICATE-----
