Certificate:
    Data:
        Version: 3 (0x2)
        Serial Number: 101 (0x65)
        Signature Algorithm: sha256WithRSAEncryption
        Issuer: C = US, ST = Washington, L = Seattle, O = wolfSSL Inc., OU = Engineering, CN = chainJ-ICA1-no_pathlen, emailAddress = info@wolfssl.com
        Validity
            Not Before: Dec 18 21:25:34 2024 GMT
            Not After : Sep 14 21:25:34 2027 GMT
        Subject: C = US, ST = Washington, L = Seattle, O = wolfSSL Inc., OU = Engineering, CN = chainJ-entity, emailAddress = info@wolfssl.com
        Subject Public Key Info:
            Public Key Algorithm: rsaEncryption
                Public-Key: (2048 bit)
                Modulus:
                    00:b3:fb:51:a0:ac:69:8b:35:06:bf:7a:ee:b4:a1:
                    8a:7e:ae:31:75:ad:e7:45:7b:e6:d9:bb:7c:e9:73:
                    0e:de:cf:05:74:df:37:a4:37:33:a6:6f:59:06:c8:
                    9f:19:35:c3:94:f7:05:ba:52:eb:3e:92:29:61:48:
                    88:fa:6d:42:b4:30:de:ce:df:94:ed:92:88:60:c8:
                    55:36:50:ee:36:b5:ed:35:6f:95:01:f4:88:4b:7b:
                    3e:fe:b5:9c:64:c0:72:be:8c:74:6a:8c:f5:e4:65:
                    66:87:52:9d:7b:b0:20:f6:d8:c3:de:76:b9:70:7c:
                    01:82:6e:fc:fa:1b:e7:c4:c1:5f:38:ce:50:dc:3a:
                    22:87:bc:19:9a:45:d5:8a:7a:93:f9:78:59:c7:0a:
                    f9:8f:eb:c3:79:eb:b5:ee:36:f0:5e:5d:2f:8f:46:
                    e8:63:c2:31:82:fc:fb:5d:8c:ca:01:b1:bb:72:2b:
                    e7:2f:82:3c:a6:24:a6:3f:58:7e:69:5b:4a:00:b4:
                    25:b3:b3:c3:b3:b0:c2:3f:a3:d7:ee:04:12:1d:ab:
                    0b:bb:02:b0:6c:0b:36:64:56:a9:5d:37:e5:0a:28:
                    44:5e:15:e4:f5:ab:73:98:0a:b3:28:90:1d:30:f2:
                    8c:e7:db:13:6a:0f:b4:cb:8d:06:15:86:ce:35:12:
                    e3:a9
                Exponent: 65537 (0x10001)
        X509v3 extensions:
            X509v3 Subject Key Identifier: 
                13:92:E0:30:5E:36:4F:BF:D5:E3:0D:5D:40:0B:64:95:EC:8E:77:4E
            X509v3 Authority Key Identifier: 
                keyid:9C:7B:3A:10:B3:08:99:05:00:AF:3E:E0:A4:5D:D9:AF:82:BC:4D:C0
                DirName:/C=US/ST=Washington/L=Seattle/O=wolfSSL Inc./OU=Engineering/CN=chainJ-ICA2-no_pathlen/emailAddress=info@wolfssl.com
                serial:64
            X509v3 Basic Constraints: 
                CA:FALSE
    Signature Algorithm: sha256WithRSAEncryption
    Signature Value:
        3d:38:93:d4:04:f4:c3:d7:8c:db:4d:e3:3b:44:2d:62:76:65:
        c9:ad:66:7f:29:f9:80:1f:87:70:c5:f7:0a:d9:63:ee:8c:cb:
        22:74:88:a4:5c:07:21:fe:2e:d7:10:4d:0b:c9:6e:2d:ff:ab:
        ab:c3:05:d1:b7:46:18:cb:84:89:3a:70:1b:d7:25:85:b1:fe:
        4e:9f:cd:72:3b:2e:a0:cd:5f:97:b5:7d:ae:93:c9:b7:be:2e:
        82:36:1f:00:0c:90:b3:3c:77:2c:e4:dc:3e:d1:83:f2:2e:7f:
        a0:a3:71:11:b7:77:ce:54:81:82:12:c3:30:55:8d:2d:21:57:
        a4:87:43:36:32:aa:8c:6d:fc:ec:89:61:99:e6:c5:19:09:a1:
        10:13:87:50:05:ac:87:af:c1:5e:a8:76:68:44:94:d6:ad:d9:
        67:50:45:0f:d5:a5:e5:be:77:1e:85:6a:f4:74:8a:28:60:75:
        7c:ce:e2:d4:1f:e0:ba:b3:4e:d4:06:a9:8b:60:83:e4:b1:a7:
        6b:4e:ae:fd:43:c8:12:d9:b2:cf:50:ba:e4:ee:39:c9:0b:59:
        15:5f:c1:77:7c:93:60:31:ce:9a:a9:b7:15:68:e2:b4:cb:c3:
        7e:31:69:84:55:82:c4:59:03:e9:78:b1:a9:7f:eb:0d:09:b4:
        ba:5c:4e:f3
-----BEGIN CERTIFICATE-----
MIIEvDCCA6SgAwIBAgIBZTANBgkqhkiG9w0BAQsFADCBozELMAkGA1UEBhMCVVMx
EzARBgNVBAgMCldhc2hpbmd0b24xEDAOBgNVBAcMB1NlYXR0bGUxFTATBgNVBAoM
DHdvbGZTU0wgSW5jLjEUMBIGA1UECwwLRW5naW5lZXJpbmcxHzAdBgNVBAMMFmNo
YWluSi1JQ0ExLW5vX3BhdGhsZW4xHzAdBgkqhkiG9w0BCQEWEGluZm9Ad29sZnNz
bC5jb20wHhcNMjQxMjE4MjEyNTM0WhcNMjcwOTE0MjEyNTM0WjCBmjELMAkGA1UE
BhMCVVMxEzARBgNVBAgMCldhc2hpbmd0b24xEDAOBgNVBAcMB1NlYXR0bGUxFTAT
BgNVBAoMDHdvbGZTU0wgSW5jLjEUMBIGA1UECwwLRW5naW5lZXJpbmcxFjAUBgNV
BAMMDWNoYWluSi1lbnRpdHkxHzAdBgkqhkiG9w0BCQEWEGluZm9Ad29sZnNzbC5j
b20wggEiMA0GCSqGSIb3DQEBAQUAA4IBDwAwggEKAoIBAQCz+1GgrGmLNQa/eu60
oYp+rjF1redFe+bZu3zpcw7ezwV03zekNzOmb1kGyJ8ZNcOU9wW6Uus+kilhSIj6
bUK0MN7O35TtkohgyFU2UO42te01b5UB9IhLez7+tZxkwHK+jHRqjPXkZWaHUp17
sCD22MPedrlwfAGCbvz6G+fEwV84zlDcOiKHvBmaRdWKepP5eFnHCvmP68N567Xu
NvBeXS+PRuhjwjGC/PtdjMoBsbtyK+cvgjymJKY/WH5pW0oAtCWzs8OzsMI/o9fu
BBIdqwu7ArBsCzZkVqldN+UKKEReFeT1q3OYCrMokB0w8ozn2xNqD7TLjQYVhs41
EuOpAgMBAAGjggEAMIH9MB0GA1UdDgQWBBQTkuAwXjZPv9XjDV1AC2SV7I53TjCB
0AYDVR0jBIHIMIHFgBScezoQswiZBQCvPuCkXdmvgrxNwKGBqaSBpjCBozELMAkG
A1UEBhMCVVMxEzARBgNVBAgMCldhc2hpbmd0b24xEDAOBgNVBAcMB1NlYXR0bGUx
FTATBgNVBAoMDHdvbGZTU0wgSW5jLjEUMBIGA1UECwwLRW5naW5lZXJpbmcxHzAd
BgNVBAMMFmNoYWluSi1JQ0EyLW5vX3BhdGhsZW4xHzAdBgkqhkiG9w0BCQEWEGlu
Zm9Ad29sZnNzbC5jb22CAWQwCQYDVR0TBAIwADANBgkqhkiG9w0BAQsFAAOCAQEA
PTiT1AT0w9eM203jO0QtYnZlya1mfyn5gB+HcMX3Ctlj7ozLInSIpFwHIf4u1xBN
C8luLf+rq8MF0bdGGMuEiTpwG9clhbH+Tp/NcjsuoM1fl7V9rpPJt74ugjYfAAyQ
szx3LOTcPtGD8i5/oKNxEbd3zlSBghLDMFWNLSFXpIdDNjKqjG387IlhmebFGQmh
EBOHUAWsh6/BXqh2aESU1q3ZZ1BFD9Wl5b53HoVq9HSKKGB1fM7i1B/gurNO1Aap
i2CD5LGna06u/UPIEtmyz1C65O45yQtZFV/Bd3yTYDHOmqm3FWjitMvDfjFphFWC
xFkD6XixqX/rDQm0ulxO8w==
-----END CERTIFICATE-----
