Certificate:
    Data:
        Version: 3 (0x2)
        Serial Number: 100 (0x64)
        Signature Algorithm: sha256WithRSAEncryption
        Issuer: C=US, ST=Washington, L=Seattle, O=wolfSSL Inc., OU=Engineering, CN=chainG-ICA5-pathlen20, emailAddress=info@wolfssl.com
        Validity
            Not Before: Nov 13 20:41:44 2025 GMT
            Not After : Aug  9 20:41:44 2028 GMT
        Subject: C=US, ST=Washington, L=Seattle, O=wolfSSL Inc., OU=Engineering, CN=chainG-ICA4-pathlen5, emailAddress=info@wolfssl.com
        Subject Public Key Info:
            Public Key Algorithm: rsaEncryption
                Public-Key: (2048 bit)
                Modulus:
                    00:c9:4b:a0:77:b8:42:43:96:e1:f4:8d:1d:a6:2c:
                    d8:12:a2:40:49:11:eb:5f:fb:6c:1d:15:3e:af:dd:
                    3b:c7:fd:c9:61:43:99:8e:c7:bc:63:bc:5b:93:24:
                    f3:e5:66:c8:3e:3a:9c:7d:0e:1b:c1:6c:84:8c:90:
                    b0:11:aa:23:2d:78:99:17:3e:e9:6b:a0:8c:64:fd:
                    10:7b:66:ed:b4:3e:b0:96:ef:36:1f:2d:6d:c4:96:
                    3c:5a:dc:83:c2:e9:cd:64:d3:5f:c7:ea:db:84:2e:
                    24:0c:77:d1:fd:8c:cf:d7:78:af:5b:98:e9:c4:fd:
                    66:fa:76:1d:7a:c3:c3:64:32:ad:b9:8b:5a:4c:82:
                    ed:3a:fe:07:44:20:13:88:df:02:2c:d9:97:21:a4:
                    39:a6:f3:7e:8b:e2:c0:cc:86:6b:5a:25:30:d7:f9:
                    ba:29:ef:1b:2e:f6:3f:c1:7d:b1:0c:95:8e:c0:ce:
                    73:41:47:1c:ec:33:44:60:46:9d:b0:75:07:50:c8:
                    19:bf:1e:82:c8:c3:3d:d8:e2:19:1e:0b:36:9d:34:
                    95:87:ea:a0:1f:e8:80:60:a5:b1:94:42:1e:57:c8:
                    a0:e6:ad:f8:73:c8:82:e4:38:84:d3:97:fc:85:c4:
                    de:d2:c0:c5:6d:c7:1e:eb:1d:c1:f1:de:97:27:ca:
                    be:4b
                Exponent: 65537 (0x10001)
        X509v3 extensions:
            X509v3 Subject Key Identifier: 
                D4:92:AE:BD:3B:1C:66:4B:17:88:18:15:F8:27:AB:38:CC:07:5A:65
            X509v3 Authority Key Identifier: 
                keyid:1D:51:80:B6:9A:A7:AC:DD:80:7B:4B:A2:0B:62:BE:E4:87:30:C7:CA
                DirName:/C=US/ST=Washington/L=Seattle/O=wolfSSL Inc./OU=Engineering/CN=chainG-ICA6-pathlen10/emailAddress=info@wolfssl.com
                serial:64
            X509v3 Basic Constraints: 
                CA:TRUE, pathlen:5
            X509v3 Key Usage: 
                Certificate Sign, CRL Sign
    Signature Algorithm: sha256WithRSAEncryption
    Signature Value:
        8d:19:d9:e0:01:0d:d5:66:19:45:17:1c:c7:0c:15:3c:3f:64:
        8b:e4:41:82:bd:a5:08:ea:2c:31:ea:6d:a5:15:1c:68:47:4c:
        3e:e3:2c:92:06:9a:fc:fe:4e:26:9b:1d:a2:66:b6:94:fd:ed:
        35:00:67:0b:43:b8:2a:83:7d:35:e0:a4:28:df:ad:31:f1:8c:
        de:3c:81:cd:f6:52:2b:ac:5d:b2:69:82:4c:7c:dd:26:f3:dd:
        71:17:4c:2c:97:17:ed:b0:79:f8:c7:89:3b:14:d1:c7:3c:f1:
        5e:96:41:ad:0b:63:2b:35:eb:d0:ec:6f:96:ef:db:21:90:12:
        ac:e3:db:d7:9d:19:ce:7f:c8:62:3d:30:89:27:ca:7c:f2:41:
        62:88:e3:c4:2a:08:1e:28:c7:62:f1:1d:88:4a:2f:d1:a3:f2:
        07:b3:23:e7:1d:61:7d:e2:c0:48:06:07:f7:08:a3:df:50:48:
        90:9d:3b:e9:4b:ff:ef:e1:db:85:45:6c:eb:fe:eb:6c:08:09:
        84:d6:9d:be:c4:58:f5:9d:97:80:95:92:42:ec:5d:ad:eb:21:
        57:67:da:10:88:f3:21:5c:5a:02:d6:87:45:69:22:87:9d:20:
        cf:a7:02:17:44:66:51:af:d3:c1:aa:e4:04:ee:c7:97:0a:27:
        24:60:c4:64
-----BEGIN CERTIFICATE-----
MIIE1TCCA72gAwIBAgIBZDANBgkqhkiG9w0BAQsFADCBojELMAkGA1UEBhMCVVMx
EzARBgNVBAgMCldhc2hpbmd0b24xEDAOBgNVBAcMB1NlYXR0bGUxFTATBgNVBAoM
DHdvbGZTU0wgSW5jLjEUMBIGA1UECwwLRW5naW5lZXJpbmcxHjAcBgNVBAMMFWNo
YWluRy1JQ0E1LXBhdGhsZW4yMDEfMB0GCSqGSIb3DQEJARYQaW5mb0B3b2xmc3Ns
LmNvbTAeFw0yNTExMTMyMDQxNDRaFw0yODA4MDkyMDQxNDRaMIGhMQswCQYDVQQG
EwJVUzETMBEGA1UECAwKV2FzaGluZ3RvbjEQMA4GA1UEBwwHU2VhdHRsZTEVMBMG
A1UECgwMd29sZlNTTCBJbmMuMRQwEgYDVQQLDAtFbmdpbmVlcmluZzEdMBsGA1UE
AwwUY2hhaW5HLUlDQTQtcGF0aGxlbjUxHzAdBgkqhkiG9w0BCQEWEGluZm9Ad29s
ZnNzbC5jb20wggEiMA0GCSqGSIb3DQEBAQUAA4IBDwAwggEKAoIBAQDJS6B3uEJD
luH0jR2mLNgSokBJEetf+2wdFT6v3TvH/clhQ5mOx7xjvFuTJPPlZsg+Opx9DhvB
bISMkLARqiMteJkXPulroIxk/RB7Zu20PrCW7zYfLW3Eljxa3IPC6c1k01/H6tuE
LiQMd9H9jM/XeK9bmOnE/Wb6dh16w8NkMq25i1pMgu06/gdEIBOI3wIs2ZchpDmm
836L4sDMhmtaJTDX+bop7xsu9j/BfbEMlY7AznNBRxzsM0RgRp2wdQdQyBm/HoLI
wz3Y4hkeCzadNJWH6qAf6IBgpbGUQh5XyKDmrfhzyILkOITTl/yFxN7SwMVtxx7r
HcHx3pcnyr5LAgMBAAGjggETMIIBDzAdBgNVHQ4EFgQU1JKuvTscZksXiBgV+Cer
OMwHWmUwgc8GA1UdIwSBxzCBxIAUHVGAtpqnrN2Ae0uiC2K+5Icwx8qhgaikgaUw
gaIxCzAJBgNVBAYTAlVTMRMwEQYDVQQIDApXYXNoaW5ndG9uMRAwDgYDVQQHDAdT
ZWF0dGxlMRUwEwYDVQQKDAx3b2xmU1NMIEluYy4xFDASBgNVBAsMC0VuZ2luZWVy
aW5nMR4wHAYDVQQDDBVjaGFpbkctSUNBNi1wYXRobGVuMTAxHzAdBgkqhkiG9w0B
CQEWEGluZm9Ad29sZnNzbC5jb22CAWQwDwYDVR0TBAgwBgEB/wIBBTALBgNVHQ8E
BAMCAQYwDQYJKoZIhvcNAQELBQADggEBAI0Z2eABDdVmGUUXHMcMFTw/ZIvkQYK9
pQjqLDHqbaUVHGhHTD7jLJIGmvz+TiabHaJmtpT97TUAZwtDuCqDfTXgpCjfrTHx
jN48gc32UiusXbJpgkx83Sbz3XEXTCyXF+2wefjHiTsU0cc88V6WQa0LYys169Ds
b5bv2yGQEqzj29edGc5/yGI9MIknynzyQWKI48QqCB4ox2LxHYhKL9Gj8gezI+cd
YX3iwEgGB/cIo99QSJCdO+lL/+/h24VFbOv+62wICYTWnb7EWPWdl4CVkkLsXa3r
IVdn2hCI8yFcWgLWh0VpIoedIM+nAhdEZlGv08Gq5ATux5cKJyRgxGQ=
-----END CERTIFICATE-----
