Certificate:
    Data:
        Version: 3 (0x2)
        Serial Number: 100 (0x64)
        Signature Algorithm: sha256WithRSAEncryption
        Issuer: C = US, ST = Washington, L = Seattle, O = wolfSSL Inc., OU = Engineering, CN = chainJ-ICA2-no_pathlen, emailAddress = info@wolfssl.com
        Validity
            Not Before: Dec 20 23:07:25 2021 GMT
            Not After : Sep 15 23:07:25 2024 GMT
        Subject: C = US, ST = Washington, L = Seattle, O = wolfSSL Inc., OU = Engineering, CN = chainJ-ICA1-no_pathlen, emailAddress = info@wolfssl.com
        Subject Public Key Info:
            Public Key Algorithm: rsaEncryption
                RSA Public-Key: (2048 bit)
                Modulus:
                    00:a7:6f:44:c2:11:cc:2c:f4:2a:a5:a8:08:53:4b:
                    0e:cd:96:23:bb:15:4a:2a:dd:f9:a7:19:2b:91:28:
                    e8:73:a3:57:b4:49:3a:37:82:8f:15:38:5a:aa:af:
                    ad:72:26:2e:84:c2:0d:de:fc:f0:be:3b:a2:11:a9:
                    12:20:d4:3d:de:62:85:85:91:08:60:db:c0:4a:bb:
                    89:b6:f4:91:1e:51:a3:b2:f7:08:99:df:48:4a:59:
                    84:d1:aa:09:36:0d:cd:68:a5:ae:41:c8:d7:1a:d8:
                    ea:49:87:20:22:27:f9:45:54:3e:c7:c8:00:44:7e:
                    34:72:aa:8d:2d:4d:6a:3e:75:89:e2:d4:17:57:f9:
                    cd:2b:d0:b7:14:6a:54:1b:61:af:9b:68:22:b1:16:
                    73:eb:05:6c:41:ea:ed:10:4e:bc:83:04:68:c8:3a:
                    e1:03:12:ad:28:5c:24:4c:19:a1:7e:d8:ef:1b:80:
                    e4:0e:49:0c:69:86:f6:1e:e7:01:fb:2a:6f:56:1b:
                    6d:0a:ad:e9:29:3f:31:bb:48:28:40:79:2b:b5:f3:
                    aa:ec:e9:09:4c:82:fc:97:28:19:a3:3a:c0:d2:5e:
                    a3:8a:98:c8:8a:b7:d2:c4:90:bc:ff:cc:47:13:90:
                    ad:00:ab:8a:ec:f7:94:35:09:60:10:35:9f:32:c5:
                    00:1b
                Exponent: 65537 (0x10001)
        X509v3 extensions:
            X509v3 Subject Key Identifier: 
                9C:7B:3A:10:B3:08:99:05:00:AF:3E:E0:A4:5D:D9:AF:82:BC:4D:C0
            X509v3 Authority Key Identifier: 
                keyid:A3:F5:71:8A:60:80:3C:93:64:17:D9:2E:B5:C0:CE:A9:C1:14:17:C4
                DirName:/C=US/ST=Washington/L=Seattle/O=wolfSSL Inc./OU=Engineering/CN=chainJ-ICA3-no_pathlen/emailAddress=info@wolfssl.com
                serial:64

            X509v3 Basic Constraints: 
                CA:TRUE
            X509v3 Key Usage: 
                Certificate Sign, CRL Sign
    Signature Algorithm: sha256WithRSAEncryption
         34:2e:4c:ef:fb:6f:f2:6d:64:aa:c8:fb:93:23:af:12:d4:6d:
         ad:26:34:48:f7:bb:db:51:c0:d5:20:5c:cf:86:3c:7a:7a:9f:
         f7:16:c0:10:42:07:bb:d2:e5:ee:f8:9c:50:b3:fa:56:41:0f:
         48:b8:d1:91:54:4b:bf:b5:cb:35:66:b6:94:a8:8e:ff:f1:d1:
         3a:07:d4:df:19:e8:5c:10:ff:93:ed:3e:9b:f5:d2:dd:20:32:
         35:5f:79:7c:9e:55:7b:1f:9a:b5:3c:90:3e:06:9f:7a:7b:f0:
         08:9f:ec:61:3c:88:07:9d:b8:36:6e:23:0a:d9:16:15:60:d6:
         0c:de:e0:11:8d:92:3c:37:6f:bb:cf:5e:86:d7:61:26:cb:a0:
         6a:bf:18:2d:08:dc:e9:8b:0f:02:a8:8e:a1:fd:89:cd:5c:ce:
         df:8b:74:0e:b6:d4:8f:62:1a:e4:b2:e4:ca:40:4f:20:ed:50:
         b2:c5:bf:e5:08:d3:d0:c4:f3:a2:87:f7:80:a2:fa:2a:4d:41:
         1f:b4:a0:f9:10:8c:22:c6:5f:83:eb:51:9d:44:4a:83:fd:b5:
         fd:93:42:ab:f7:49:c8:98:4e:34:14:d2:82:63:60:6d:53:d6:
         7b:e2:00:8d:15:e2:e5:0d:53:94:76:d2:35:e7:57:2e:d0:a5:
         d2:22:1b:f8
-----BEGIN CERTIFICATE-----
MIIE1jCCA76gAwIBAgIBZDANBgkqhkiG9w0BAQsFADCBozELMAkGA1UEBhMCVVMx
EzARBgNVBAgMCldhc2hpbmd0b24xEDAOBgNVBAcMB1NlYXR0bGUxFTATBgNVBAoM
DHdvbGZTU0wgSW5jLjEUMBIGA1UECwwLRW5naW5lZXJpbmcxHzAdBgNVBAMMFmNo
YWluSi1JQ0EyLW5vX3BhdGhsZW4xHzAdBgkqhkiG9w0BCQEWEGluZm9Ad29sZnNz
bC5jb20wHhcNMjExMjIwMjMwNzI1WhcNMjQwOTE1MjMwNzI1WjCBozELMAkGA1UE
BhMCVVMxEzARBgNVBAgMCldhc2hpbmd0b24xEDAOBgNVBAcMB1NlYXR0bGUxFTAT
BgNVBAoMDHdvbGZTU0wgSW5jLjEUMBIGA1UECwwLRW5naW5lZXJpbmcxHzAdBgNV
BAMMFmNoYWluSi1JQ0ExLW5vX3BhdGhsZW4xHzAdBgkqhkiG9w0BCQEWEGluZm9A
d29sZnNzbC5jb20wggEiMA0GCSqGSIb3DQEBAQUAA4IBDwAwggEKAoIBAQCnb0TC
Ecws9CqlqAhTSw7NliO7FUoq3fmnGSuRKOhzo1e0STo3go8VOFqqr61yJi6Ewg3e
/PC+O6IRqRIg1D3eYoWFkQhg28BKu4m29JEeUaOy9wiZ30hKWYTRqgk2Dc1opa5B
yNca2OpJhyAiJ/lFVD7HyABEfjRyqo0tTWo+dYni1BdX+c0r0LcUalQbYa+baCKx
FnPrBWxB6u0QTryDBGjIOuEDEq0oXCRMGaF+2O8bgOQOSQxphvYe5wH7Km9WG20K
rekpPzG7SChAeSu186rs6QlMgvyXKBmjOsDSXqOKmMiKt9LEkLz/zEcTkK0Aq4rs
95Q1CWAQNZ8yxQAbAgMBAAGjggERMIIBDTAdBgNVHQ4EFgQUnHs6ELMImQUArz7g
pF3Zr4K8TcAwgdAGA1UdIwSByDCBxYAUo/VximCAPJNkF9kutcDOqcEUF8Shgamk
gaYwgaMxCzAJBgNVBAYTAlVTMRMwEQYDVQQIDApXYXNoaW5ndG9uMRAwDgYDVQQH
DAdTZWF0dGxlMRUwEwYDVQQKDAx3b2xmU1NMIEluYy4xFDASBgNVBAsMC0VuZ2lu
ZWVyaW5nMR8wHQYDVQQDDBZjaGFpbkotSUNBMy1ub19wYXRobGVuMR8wHQYJKoZI
hvcNAQkBFhBpbmZvQHdvbGZzc2wuY29tggFkMAwGA1UdEwQFMAMBAf8wCwYDVR0P
BAQDAgEGMA0GCSqGSIb3DQEBCwUAA4IBAQA0Lkzv+2/ybWSqyPuTI68S1G2tJjRI
97vbUcDVIFzPhjx6ep/3FsAQQge70uXu+JxQs/pWQQ9IuNGRVEu/tcs1ZraUqI7/
8dE6B9TfGehcEP+T7T6b9dLdIDI1X3l8nlV7H5q1PJA+Bp96e/AIn+xhPIgHnbg2
biMK2RYVYNYM3uARjZI8N2+7z16G12Emy6BqvxgtCNzpiw8CqI6h/YnNXM7fi3QO
ttSPYhrksuTKQE8g7VCyxb/lCNPQxPOih/eAovoqTUEftKD5EIwixl+D61GdREqD
/bX9k0Kr90nImE40FNKCY2BtU9Z74gCNFeLlDVOUdtI151cu0KXSIhv4
-----END CERTIFICATE-----
