Certificate:
    Data:
        Version: 3 (0x2)
        Serial Number: 100 (0x64)
        Signature Algorithm: sha256WithRSAEncryption
        Issuer: C=US, ST=Montana, L=Bozeman, O=Sawtooth, OU=Consulting, CN=www.wolfssl.com, emailAddress=facts@wolfssl.com
        Validity
            Not Before: Jun 11 21:44:38 2026 GMT
            Not After : Mar  7 21:44:38 2029 GMT
        Subject: C=US, ST=Washington, L=Seattle, O=wolfSSL Inc., OU=Engineering, CN=chainB-ICA2-pathlen1, emailAddress=facts@wolfssl.com
        Subject Public Key Info:
            Public Key Algorithm: rsaEncryption
                Public-Key: (2048 bit)
                Modulus:
                    00:d0:7f:82:05:9d:5b:c4:49:e0:3e:1f:87:6e:17:
                    05:eb:e2:0a:d1:d1:a5:f5:cc:be:1d:46:d8:cd:a8:
                    6e:22:ce:3d:5c:39:71:a4:0d:03:fa:78:7e:bb:6c:
                    e8:51:e5:98:ef:a6:5e:62:d2:30:fa:3b:8f:21:5f:
                    b7:5f:98:b7:9f:a8:56:7a:39:ca:c2:df:a1:56:fe:
                    95:97:56:5e:5b:fe:74:d9:f2:2e:ca:7e:db:50:77:
                    5a:d1:90:dc:22:d6:fe:4b:c0:57:a1:c6:3b:4a:ba:
                    ad:05:14:c9:24:68:76:b5:e2:26:d5:cb:50:fd:d0:
                    77:0e:8c:0c:b9:5e:f7:a4:9a:45:35:6c:62:ca:e9:
                    38:d4:10:9a:5c:30:a5:4f:26:47:03:03:73:56:85:
                    8c:be:f5:d0:c0:09:06:3e:0e:e8:e5:7d:d0:19:54:
                    ed:57:ec:51:cf:bc:95:15:91:cf:d0:9a:84:dd:8a:
                    50:7c:33:c2:1a:61:70:31:9a:19:17:28:b3:8c:da:
                    5f:b8:d2:06:6b:82:3f:b6:6a:28:29:86:b4:20:cb:
                    a5:af:73:66:e4:37:36:81:f0:3f:ad:bf:05:b8:db:
                    2e:c4:22:e2:eb:46:87:f4:60:d1:a6:7f:ee:9c:41:
                    a7:f3:aa:e9:37:dd:da:d6:f0:cd:48:ac:51:d1:77:
                    8d:a1
                Exponent: 65537 (0x10001)
        X509v3 extensions:
            X509v3 Subject Key Identifier: 
                EE:59:9D:56:0B:7C:0A:45:44:E3:15:57:E2:B2:F3:1D:64:6F:AF:7A
            X509v3 Authority Key Identifier: 
                keyid:27:8E:67:11:74:C3:26:1D:3F:ED:33:63:B3:A4:D8:1D:30:E5:E8:D5
                DirName:/C=US/ST=Montana/L=Bozeman/O=Sawtooth/OU=Consulting/CN=www.wolfssl.com/emailAddress=facts@wolfssl.com
                serial:67:19:D2:A8:7F:E3:2D:FA:75:7A:4F:E7:B2:02:D9:AD:C4:77:5E:F8
            X509v3 Basic Constraints: 
                CA:TRUE, pathlen:1
            X509v3 Key Usage: 
                Certificate Sign, CRL Sign
    Signature Algorithm: sha256WithRSAEncryption
    Signature Value:
        17:e9:fc:65:e2:a9:ea:dc:2b:01:9a:d8:56:c0:e0:01:ee:36:
        2e:85:f9:ae:3d:96:a0:31:3a:e9:95:fa:31:ae:04:ea:57:bf:
        63:52:79:5e:6c:65:e5:ac:21:f0:00:2d:f0:76:26:68:0d:f8:
        ae:2c:36:6c:85:8d:32:f2:fd:bc:09:b9:96:19:db:44:df:7a:
        10:d6:ca:13:3d:0a:31:c7:5d:1d:6e:7d:ea:42:7a:32:04:32:
        97:be:59:2e:a0:f2:1e:44:9b:db:c8:37:9c:f4:3f:b8:81:a5:
        36:77:bf:db:ca:30:85:5b:c6:d2:a4:e8:16:80:66:99:75:8d:
        95:ad:45:b2:97:17:76:c4:93:c3:3c:de:cd:be:43:9a:9f:68:
        66:02:30:28:6f:38:6e:07:78:f2:26:84:5f:b7:9b:2f:f5:61:
        2b:1c:d0:c4:c2:c0:d5:9c:52:1a:b8:c1:ac:94:a6:cf:96:0e:
        2b:75:bb:6f:b9:d2:f0:9a:10:b8:e3:2e:aa:bc:75:d8:ed:42:
        7b:1f:f9:6b:47:21:60:3c:73:be:0f:19:2f:84:56:be:bf:a5:
        c2:5c:8b:64:f7:4d:09:70:4d:90:86:c3:02:9b:1f:35:be:0f:
        9f:63:8b:94:25:76:18:68:33:f1:66:67:f6:80:8f:b6:a7:40:
        26:8e:0a:e9
-----BEGIN CERTIFICATE-----
MIIEzzCCA7egAwIBAgIBZDANBgkqhkiG9w0BAQsFADCBlTELMAkGA1UEBhMCVVMx
EDAOBgNVBAgMB01vbnRhbmExEDAOBgNVBAcMB0JvemVtYW4xETAPBgNVBAoMCFNh
d3Rvb3RoMRMwEQYDVQQLDApDb25zdWx0aW5nMRgwFgYDVQQDDA93d3cud29sZnNz
bC5jb20xIDAeBgkqhkiG9w0BCQEWEWZhY3RzQHdvbGZzc2wuY29tMB4XDTI2MDYx
MTIxNDQzOFoXDTI5MDMwNzIxNDQzOFowgaIxCzAJBgNVBAYTAlVTMRMwEQYDVQQI
DApXYXNoaW5ndG9uMRAwDgYDVQQHDAdTZWF0dGxlMRUwEwYDVQQKDAx3b2xmU1NM
IEluYy4xFDASBgNVBAsMC0VuZ2luZWVyaW5nMR0wGwYDVQQDDBRjaGFpbkItSUNB
Mi1wYXRobGVuMTEgMB4GCSqGSIb3DQEJARYRZmFjdHNAd29sZnNzbC5jb20wggEi
MA0GCSqGSIb3DQEBAQUAA4IBDwAwggEKAoIBAQDQf4IFnVvESeA+H4duFwXr4grR
0aX1zL4dRtjNqG4izj1cOXGkDQP6eH67bOhR5Zjvpl5i0jD6O48hX7dfmLefqFZ6
OcrC36FW/pWXVl5b/nTZ8i7KfttQd1rRkNwi1v5LwFehxjtKuq0FFMkkaHa14ibV
y1D90HcOjAy5XvekmkU1bGLK6TjUEJpcMKVPJkcDA3NWhYy+9dDACQY+DujlfdAZ
VO1X7FHPvJUVkc/QmoTdilB8M8IaYXAxmhkXKLOM2l+40gZrgj+2aigphrQgy6Wv
c2bkNzaB8D+tvwW42y7EIuLrRof0YNGmf+6cQafzquk33drW8M1IrFHRd42hAgMB
AAGjggEZMIIBFTAdBgNVHQ4EFgQU7lmdVgt8CkVE4xVX4rLzHWRvr3owgdUGA1Ud
IwSBzTCByoAUJ45nEXTDJh0/7TNjs6TYHTDl6NWhgZukgZgwgZUxCzAJBgNVBAYT
AlVTMRAwDgYDVQQIDAdNb250YW5hMRAwDgYDVQQHDAdCb3plbWFuMREwDwYDVQQK
DAhTYXd0b290aDETMBEGA1UECwwKQ29uc3VsdGluZzEYMBYGA1UEAwwPd3d3Lndv
bGZzc2wuY29tMSAwHgYJKoZIhvcNAQkBFhFmYWN0c0B3b2xmc3NsLmNvbYIUZxnS
qH/jLfp1ek/nsgLZrcR3XvgwDwYDVR0TBAgwBgEB/wIBATALBgNVHQ8EBAMCAQYw
DQYJKoZIhvcNAQELBQADggEBABfp/GXiqercKwGa2FbA4AHuNi6F+a49lqAxOumV
+jGuBOpXv2NSeV5sZeWsIfAALfB2JmgN+K4sNmyFjTLy/bwJuZYZ20TfehDWyhM9
CjHHXR1ufepCejIEMpe+WS6g8h5Em9vIN5z0P7iBpTZ3v9vKMIVbxtKk6BaAZpl1
jZWtRbKXF3bEk8M83s2+Q5qfaGYCMChvOG4HePImhF+3my/1YSsc0MTCwNWcUhq4
wayUps+WDit1u2+50vCaELjjLqq8ddjtQnsf+WtHIWA8c74PGS+EVr6/pcJci2T3
TQlwTZCGwwKbHzW+D59ji5QldhhoM/FmZ/aAj7anQCaOCuk=
-----END CERTIFICATE-----
