Certificate:
    Data:
        Version: 3 (0x2)
        Serial Number: 100 (0x64)
        Signature Algorithm: sha256WithRSAEncryption
        Issuer: C = US, ST = Washington, L = Seattle, O = wolfSSL Inc., OU = Engineering, CN = chainH-ICA2-pathlen2, emailAddress = info@wolfssl.com
        Validity
            Not Before: May  7 07:39:05 2020 GMT
            Not After : Feb  1 07:39:05 2023 GMT
        Subject: C = US, ST = Washington, L = Seattle, O = wolfSSL Inc., OU = Engineering, CN = chainH-ICA1-pathlen0, emailAddress = info@wolfssl.com
        Subject Public Key Info:
            Public Key Algorithm: rsaEncryption
                RSA Public-Key: (2048 bit)
                Modulus:
                    00:c7:f4:a6:7e:f2:cb:4f:6e:04:18:d3:53:d5:cf:
                    bf:7e:97:d1:74:94:fe:db:ad:61:3f:12:20:67:f3:
                    10:83:7b:51:43:a3:0c:20:b7:35:63:f1:0a:ee:59:
                    74:82:72:fb:d1:d4:12:71:ec:0e:8f:69:c9:fb:af:
                    a7:2f:c4:3b:2c:66:34:ab:ac:80:c2:6d:4a:0e:54:
                    fe:f6:3e:3a:00:25:84:a7:cb:42:d5:e8:47:04:94:
                    e4:68:c3:f5:32:ad:21:89:d8:5e:f9:88:ee:7d:ce:
                    91:a3:16:fc:87:76:1f:2f:1d:4c:b1:2f:3d:4d:f4:
                    0a:6c:04:fd:49:cf:51:88:49:c4:03:65:63:1e:c8:
                    f1:34:1d:44:34:58:af:f5:ec:90:2a:8c:a9:38:7b:
                    dc:fa:5f:ed:00:ed:08:53:4d:f7:36:10:ed:71:41:
                    aa:e3:bf:e8:5d:ee:4e:36:39:57:7e:f4:fd:c3:f7:
                    8a:52:0f:f1:37:72:2b:ae:90:77:00:d6:7c:ec:ec:
                    ee:8d:f8:4b:fb:39:0a:45:49:81:31:41:3f:a9:bb:
                    7b:1c:8a:cf:31:09:c7:94:a7:70:4a:d4:bb:ea:61:
                    3d:9a:a1:8e:1b:8b:02:3b:1f:1f:c4:85:e9:7f:63:
                    0c:ea:e5:91:83:a8:5b:25:34:7c:a8:68:eb:97:6f:
                    74:99
                Exponent: 65537 (0x10001)
        X509v3 extensions:
            X509v3 Subject Key Identifier: 
                48:80:87:28:EF:E6:28:0F:03:9B:DF:33:48:10:A0:E5:20:B3:69:50
            X509v3 Authority Key Identifier: 
                keyid:80:49:61:8C:1D:13:08:56:B5:42:68:D5:B2:EA:89:2C:B4:8B:05:87
                DirName:/C=US/ST=Washington/L=Seattle/O=wolfSSL Inc./OU=Engineering/CN=chainH-ICA3-pathlen2/emailAddress=info@wolfssl.com
                serial:64

            X509v3 Basic Constraints: 
                CA:TRUE, pathlen:0
            X509v3 Key Usage: 
                Certificate Sign, CRL Sign
    Signature Algorithm: sha256WithRSAEncryption
         9b:f5:9e:a9:32:af:ac:0b:be:d2:bf:96:3e:37:ee:b4:cf:ad:
         be:21:dc:17:c6:a3:5a:4c:7d:9b:ca:a8:26:81:f2:3c:01:e6:
         c0:ab:04:16:e6:75:47:c4:7e:31:2c:06:2c:31:c2:81:7d:9a:
         c7:e9:f9:13:9b:c6:ac:ed:e7:05:63:d4:6b:50:b3:2f:39:3d:
         84:1f:86:e8:11:bd:de:35:71:d2:1a:9e:13:9c:d7:c2:fb:a2:
         01:bd:55:c8:39:6c:96:f0:1f:db:11:7e:fc:c9:e9:24:09:ce:
         32:d4:9a:99:58:a6:80:63:95:96:4c:73:1e:8b:15:e3:d2:e3:
         e6:d2:6a:81:8f:ac:81:b2:23:ef:a1:a2:66:a2:5d:49:03:97:
         e2:2e:90:65:e0:2f:55:5e:15:d6:e1:10:6f:d2:a9:07:c1:a1:
         a7:16:d6:5a:62:9d:44:22:46:22:e6:a7:0c:11:3a:89:c4:86:
         12:19:7f:90:7b:27:99:c5:d4:6e:05:3e:96:c0:f7:21:ba:5c:
         2a:b2:ca:1c:45:44:53:8a:6e:2a:ee:35:60:e7:37:4d:18:a0:
         18:7e:93:19:c8:98:e4:dc:e2:b6:2a:de:84:e3:80:42:fe:48:
         87:0a:5e:e4:44:c1:9c:75:04:c8:9b:4f:d8:7b:cb:75:1b:ae:
         41:4c:b4:46
-----BEGIN CERTIFICATE-----
MIIE0zCCA7ugAwIBAgIBZDANBgkqhkiG9w0BAQsFADCBoTELMAkGA1UEBhMCVVMx
EzARBgNVBAgMCldhc2hpbmd0b24xEDAOBgNVBAcMB1NlYXR0bGUxFTATBgNVBAoM
DHdvbGZTU0wgSW5jLjEUMBIGA1UECwwLRW5naW5lZXJpbmcxHTAbBgNVBAMMFGNo
YWluSC1JQ0EyLXBhdGhsZW4yMR8wHQYJKoZIhvcNAQkBFhBpbmZvQHdvbGZzc2wu
Y29tMB4XDTIwMDUwNzA3MzkwNVoXDTIzMDIwMTA3MzkwNVowgaExCzAJBgNVBAYT
AlVTMRMwEQYDVQQIDApXYXNoaW5ndG9uMRAwDgYDVQQHDAdTZWF0dGxlMRUwEwYD
VQQKDAx3b2xmU1NMIEluYy4xFDASBgNVBAsMC0VuZ2luZWVyaW5nMR0wGwYDVQQD
DBRjaGFpbkgtSUNBMS1wYXRobGVuMDEfMB0GCSqGSIb3DQEJARYQaW5mb0B3b2xm
c3NsLmNvbTCCASIwDQYJKoZIhvcNAQEBBQADggEPADCCAQoCggEBAMf0pn7yy09u
BBjTU9XPv36X0XSU/tutYT8SIGfzEIN7UUOjDCC3NWPxCu5ZdIJy+9HUEnHsDo9p
yfuvpy/EOyxmNKusgMJtSg5U/vY+OgAlhKfLQtXoRwSU5GjD9TKtIYnYXvmI7n3O
kaMW/Id2Hy8dTLEvPU30CmwE/UnPUYhJxANlYx7I8TQdRDRYr/XskCqMqTh73Ppf
7QDtCFNN9zYQ7XFBquO/6F3uTjY5V370/cP3ilIP8TdyK66QdwDWfOzs7o34S/s5
CkVJgTFBP6m7exyKzzEJx5SncErUu+phPZqhjhuLAjsfH8SF6X9jDOrlkYOoWyU0
fKho65dvdJkCAwEAAaOCARIwggEOMB0GA1UdDgQWBBRIgIco7+YoDwOb3zNIEKDl
ILNpUDCBzgYDVR0jBIHGMIHDgBSASWGMHRMIVrVCaNWy6okstIsFh6GBp6SBpDCB
oTELMAkGA1UEBhMCVVMxEzARBgNVBAgMCldhc2hpbmd0b24xEDAOBgNVBAcMB1Nl
YXR0bGUxFTATBgNVBAoMDHdvbGZTU0wgSW5jLjEUMBIGA1UECwwLRW5naW5lZXJp
bmcxHTAbBgNVBAMMFGNoYWluSC1JQ0EzLXBhdGhsZW4yMR8wHQYJKoZIhvcNAQkB
FhBpbmZvQHdvbGZzc2wuY29tggFkMA8GA1UdEwQIMAYBAf8CAQAwCwYDVR0PBAQD
AgEGMA0GCSqGSIb3DQEBCwUAA4IBAQCb9Z6pMq+sC77Sv5Y+N+60z62+IdwXxqNa
TH2byqgmgfI8AebAqwQW5nVHxH4xLAYsMcKBfZrH6fkTm8as7ecFY9RrULMvOT2E
H4boEb3eNXHSGp4TnNfC+6IBvVXIOWyW8B/bEX78yekkCc4y1JqZWKaAY5WWTHMe
ixXj0uPm0mqBj6yBsiPvoaJmol1JA5fiLpBl4C9VXhXW4RBv0qkHwaGnFtZaYp1E
IkYi5qcMETqJxIYSGX+QeyeZxdRuBT6WwPchulwqssocRURTim4q7jVg5zdNGKAY
fpMZyJjk3OK2Kt6E44BC/kiHCl7kRMGcdQTIm0/Ye8t1G65BTLRG
-----END CERTIFICATE-----
