Certificate:
    Data:
        Version: 3 (0x2)
        Serial Number: 100 (0x64)
        Signature Algorithm: sha256WithRSAEncryption
        Issuer: C = US, ST = Montana, L = Bozeman, O = Sawtooth, OU = Consulting, CN = www.wolfssl.com, emailAddress = info@wolfssl.com
        Validity
            Not Before: Feb 15 12:50:26 2022 GMT
            Not After : Nov 11 12:50:26 2024 GMT
        Subject: C = US, ST = Washington, L = Seattle, O = wolfSSL Inc., OU = Engineering, CN = chainG-ICA7-pathlen100, emailAddress = info@wolfssl.com
        Subject Public Key Info:
            Public Key Algorithm: rsaEncryption
                RSA Public-Key: (2048 bit)
                Modulus:
                    00:d6:8c:d6:c4:29:20:60:9d:15:3d:0c:2a:fb:24:
                    2f:38:89:ed:37:c4:fc:57:67:2a:50:d8:eb:e2:6a:
                    1c:59:06:f2:6d:3e:b9:4f:fe:49:c5:21:c0:16:f8:
                    29:6f:51:0c:ea:78:d7:0e:15:41:da:5a:cb:0b:e0:
                    54:d6:83:fd:0f:e8:4e:30:ff:e4:44:c3:b2:02:f3:
                    7d:3a:c6:5c:4e:86:86:2c:74:d4:21:85:c1:fe:4e:
                    8b:07:3c:54:1b:54:9e:ec:5a:a5:95:ed:5a:35:e0:
                    08:c6:84:7c:e6:ae:71:12:d2:fd:c1:fd:16:0a:3a:
                    b8:c7:23:4b:af:e0:cd:12:5e:9f:4f:62:13:f0:c8:
                    e4:e2:a8:01:d3:37:b0:08:21:d3:0f:6c:e4:d8:c1:
                    04:51:e9:4c:c5:b1:6d:cc:63:23:97:30:ee:f0:1e:
                    ab:6d:ea:93:ca:ad:56:6f:1e:ed:1a:ae:8c:1b:91:
                    04:ea:ab:9d:1b:3b:56:a7:c1:cc:2f:39:2f:b3:ba:
                    8c:16:fd:5e:10:10:9e:24:ea:40:97:74:b6:b4:e5:
                    1c:c0:d3:5f:79:2c:04:43:3a:8e:f4:b1:56:bd:c7:
                    25:63:5c:34:50:4d:bd:2d:f1:08:bd:8c:3e:d2:6f:
                    fa:e4:04:a1:51:eb:d0:d0:90:91:97:7b:46:c6:10:
                    92:af
                Exponent: 65537 (0x10001)
        X509v3 extensions:
            X509v3 Subject Key Identifier: 
                12:E4:A4:19:85:AE:85:B7:D6:EB:63:04:D5:B9:B0:7E:57:5F:0C:16
            X509v3 Authority Key Identifier: 
                keyid:27:8E:67:11:74:C3:26:1D:3F:ED:33:63:B3:A4:D8:1D:30:E5:E8:D5
                DirName:/C=US/ST=Montana/L=Bozeman/O=Sawtooth/OU=Consulting/CN=www.wolfssl.com/emailAddress=info@wolfssl.com
                serial:26:8C:93:F9:F9:F4:1E:B3:01:72:94:55:67:6D:E2:F8:3D:DA:E9:F4

            X509v3 Basic Constraints: 
                CA:TRUE, pathlen:100
            X509v3 Key Usage: 
                Certificate Sign, CRL Sign
    Signature Algorithm: sha256WithRSAEncryption
         83:ea:13:e8:78:65:31:a6:37:2d:b4:91:db:d1:be:ac:72:8e:
         4a:cb:ee:5b:ac:07:f2:68:52:f4:1b:fb:54:f2:d8:49:16:85:
         93:6b:47:f8:fe:81:17:78:a0:f9:d3:eb:32:d3:38:9e:9b:5b:
         cd:24:ad:36:d9:97:90:78:7e:3d:9c:50:50:53:42:6c:49:a7:
         b3:6d:cd:6d:c5:09:63:94:99:c5:55:ba:58:a9:d5:a0:17:64:
         01:a3:dc:fe:54:48:98:1a:84:0e:b7:55:04:b5:58:8f:91:67:
         e7:09:b8:30:15:d0:50:60:51:02:13:44:2b:00:e5:4b:5d:e5:
         16:db:41:f8:3c:de:ba:7a:8f:d8:20:ad:d2:44:92:7c:8e:ac:
         67:42:c7:34:76:83:99:12:c8:ac:af:13:2b:7a:df:05:63:d5:
         a9:90:df:db:8c:1b:ed:00:5c:78:e8:16:b1:3d:82:60:8a:00:
         c6:d8:5e:c1:2e:a2:e6:43:ac:e5:8c:f3:23:eb:01:6c:2c:1b:
         76:d6:a8:54:ac:2e:0c:00:7f:5e:87:51:06:46:e7:73:68:cc:
         eb:61:a8:8c:5c:78:46:e4:3f:e9:30:c0:19:39:27:a7:70:8c:
         39:bc:fb:fb:44:a0:6e:12:27:5a:a8:c9:2b:8e:54:f6:79:1c:
         0c:14:e2:ce
-----BEGIN CERTIFICATE-----
MIIEzjCCA7agAwIBAgIBZDANBgkqhkiG9w0BAQsFADCBlDELMAkGA1UEBhMCVVMx
EDAOBgNVBAgMB01vbnRhbmExEDAOBgNVBAcMB0JvemVtYW4xETAPBgNVBAoMCFNh
d3Rvb3RoMRMwEQYDVQQLDApDb25zdWx0aW5nMRgwFgYDVQQDDA93d3cud29sZnNz
bC5jb20xHzAdBgkqhkiG9w0BCQEWEGluZm9Ad29sZnNzbC5jb20wHhcNMjIwMjE1
MTI1MDI2WhcNMjQxMTExMTI1MDI2WjCBozELMAkGA1UEBhMCVVMxEzARBgNVBAgM
Cldhc2hpbmd0b24xEDAOBgNVBAcMB1NlYXR0bGUxFTATBgNVBAoMDHdvbGZTU0wg
SW5jLjEUMBIGA1UECwwLRW5naW5lZXJpbmcxHzAdBgNVBAMMFmNoYWluRy1JQ0E3
LXBhdGhsZW4xMDAxHzAdBgkqhkiG9w0BCQEWEGluZm9Ad29sZnNzbC5jb20wggEi
MA0GCSqGSIb3DQEBAQUAA4IBDwAwggEKAoIBAQDWjNbEKSBgnRU9DCr7JC84ie03
xPxXZypQ2OviahxZBvJtPrlP/knFIcAW+ClvUQzqeNcOFUHaWssL4FTWg/0P6E4w
/+REw7IC8306xlxOhoYsdNQhhcH+TosHPFQbVJ7sWqWV7Vo14AjGhHzmrnES0v3B
/RYKOrjHI0uv4M0SXp9PYhPwyOTiqAHTN7AIIdMPbOTYwQRR6UzFsW3MYyOXMO7w
Hqtt6pPKrVZvHu0arowbkQTqq50bO1anwcwvOS+zuowW/V4QEJ4k6kCXdLa05RzA
0195LARDOo70sVa9xyVjXDRQTb0t8Qi9jD7Sb/rkBKFR69DQkJGXe0bGEJKvAgMB
AAGjggEYMIIBFDAdBgNVHQ4EFgQUEuSkGYWuhbfW62ME1bmwfldfDBYwgdQGA1Ud
IwSBzDCByYAUJ45nEXTDJh0/7TNjs6TYHTDl6NWhgZqkgZcwgZQxCzAJBgNVBAYT
AlVTMRAwDgYDVQQIDAdNb250YW5hMRAwDgYDVQQHDAdCb3plbWFuMREwDwYDVQQK
DAhTYXd0b290aDETMBEGA1UECwwKQ29uc3VsdGluZzEYMBYGA1UEAwwPd3d3Lndv
bGZzc2wuY29tMR8wHQYJKoZIhvcNAQkBFhBpbmZvQHdvbGZzc2wuY29tghQmjJP5
+fQeswFylFVnbeL4Pdrp9DAPBgNVHRMECDAGAQH/AgFkMAsGA1UdDwQEAwIBBjAN
BgkqhkiG9w0BAQsFAAOCAQEAg+oT6HhlMaY3LbSR29G+rHKOSsvuW6wH8mhS9Bv7
VPLYSRaFk2tH+P6BF3ig+dPrMtM4nptbzSStNtmXkHh+PZxQUFNCbEmns23NbcUJ
Y5SZxVW6WKnVoBdkAaPc/lRImBqEDrdVBLVYj5Fn5wm4MBXQUGBRAhNEKwDlS13l
FttB+DzeunqP2CCt0kSSfI6sZ0LHNHaDmRLIrK8TK3rfBWPVqZDf24wb7QBceOgW
sT2CYIoAxthewS6i5kOs5YzzI+sBbCwbdtaoVKwuDAB/XodRBkbnc2jM62GojFx4
RuQ/6TDAGTknp3CMObz7+0SgbhInWqjJK45U9nkcDBTizg==
-----END CERTIFICATE-----
