Certificate:
    Data:
        Version: 3 (0x2)
        Serial Number: 100 (0x64)
        Signature Algorithm: sha256WithRSAEncryption
        Issuer: C=US, ST=Washington, L=Seattle, O=wolfSSL Inc., OU=Engineering, CN=chainJ-ICA3-no_pathlen, emailAddress=facts@wolfssl.com
        Validity
            Not Before: Jun 11 21:44:40 2026 GMT
            Not After : Mar  7 21:44:40 2029 GMT
        Subject: C=US, ST=Washington, L=Seattle, O=wolfSSL Inc., OU=Engineering, CN=chainJ-ICA2-no_pathlen, emailAddress=facts@wolfssl.com
        Subject Public Key Info:
            Public Key Algorithm: rsaEncryption
                Public-Key: (2048 bit)
                Modulus:
                    00:bb:29:fd:89:aa:82:e0:1d:04:78:69:ec:61:58:
                    51:52:84:7e:6b:55:69:2c:f4:23:d6:1f:d8:ed:ab:
                    19:96:38:7b:c6:88:d7:7d:85:93:00:35:40:0b:c0:
                    a9:ff:66:0f:9e:a1:1d:88:6e:a9:8a:f1:ad:47:b4:
                    71:c9:15:50:c6:0f:35:9e:95:4a:66:d3:bd:1b:38:
                    7b:dc:67:85:97:1b:b3:63:c9:72:d6:43:5a:f1:5e:
                    35:f6:05:96:c7:40:bc:23:ab:94:34:82:59:02:b2:
                    33:d0:e6:7f:19:57:65:68:3c:04:61:50:ef:22:95:
                    4f:ef:18:bf:15:b1:4d:8e:cd:a7:a0:98:22:f5:1c:
                    05:01:6b:4b:35:bf:88:c3:47:c3:24:29:b4:45:cb:
                    95:a1:ac:16:1d:dd:b8:68:ac:51:39:24:27:6a:be:
                    31:f1:ec:06:10:55:be:44:02:4f:e8:12:7b:d6:fe:
                    32:c9:48:37:6b:20:68:cb:53:f5:49:3a:ae:4a:c7:
                    43:c1:af:e6:53:11:d9:f8:71:1a:a2:d6:37:c7:2b:
                    45:50:49:51:4f:55:6c:3f:1e:69:7b:58:12:3a:7e:
                    59:a0:57:9d:28:9c:8a:6d:82:e7:13:15:3b:04:8f:
                    e2:82:0f:2f:cf:d9:25:d9:65:a3:3c:03:c0:cd:b6:
                    51:d5
                Exponent: 65537 (0x10001)
        X509v3 extensions:
            X509v3 Subject Key Identifier: 
                A3:F5:71:8A:60:80:3C:93:64:17:D9:2E:B5:C0:CE:A9:C1:14:17:C4
            X509v3 Authority Key Identifier: 
                keyid:CD:97:49:78:F7:31:61:ED:2F:71:1A:68:E9:45:2C:40:78:51:93:5B
                DirName:/C=US/ST=Washington/L=Seattle/O=wolfSSL Inc./OU=Engineering/CN=chainJ-ICA4-pathlen2/emailAddress=facts@wolfssl.com
                serial:64
            X509v3 Basic Constraints: 
                CA:TRUE
            X509v3 Key Usage: 
                Certificate Sign, CRL Sign
    Signature Algorithm: sha256WithRSAEncryption
    Signature Value:
        7e:03:78:03:fe:fd:88:d2:2e:fb:3f:e0:50:a8:61:81:24:db:
        cb:bd:46:2e:ed:f9:47:e9:5a:fc:41:e0:58:b7:50:95:c9:51:
        50:96:19:dd:70:cb:5b:52:6d:de:74:c8:aa:a0:bd:2b:3b:70:
        b2:20:2f:84:3e:c2:37:7d:85:68:6b:bb:3c:36:13:d8:7b:8e:
        0b:a3:28:06:a9:b7:22:04:c9:d5:d6:24:71:a8:45:1e:f1:cf:
        67:4f:45:b1:75:71:6c:40:d1:ce:c8:92:f9:a7:3e:2c:a9:7c:
        1a:89:d2:80:e3:0a:fb:72:75:e6:04:16:91:17:1c:d6:90:9a:
        8a:10:83:a7:88:39:2c:29:ea:d4:88:42:37:b6:d1:43:52:bc:
        42:1b:e1:40:81:e7:0b:37:9b:29:95:51:bb:df:d1:53:1a:3b:
        53:c0:ac:35:24:3d:26:33:ab:ae:f4:15:c1:72:bb:c9:a5:fc:
        d5:10:d0:49:70:00:2f:5e:45:94:c4:ad:15:d7:9c:14:c2:25:
        31:a1:16:f4:14:8a:10:57:17:44:9d:a8:bc:d4:e6:44:49:e1:
        54:f4:d9:4b:2d:91:dd:05:09:98:70:e2:9e:b2:a8:4c:e3:8c:
        0d:f9:bf:09:ca:94:02:bc:cd:3b:a8:c0:dc:5c:35:d3:6a:a6:
        e4:f4:f1:2b
-----BEGIN CERTIFICATE-----
MIIE1zCCA7+gAwIBAgIBZDANBgkqhkiG9w0BAQsFADCBpDELMAkGA1UEBhMCVVMx
EzARBgNVBAgMCldhc2hpbmd0b24xEDAOBgNVBAcMB1NlYXR0bGUxFTATBgNVBAoM
DHdvbGZTU0wgSW5jLjEUMBIGA1UECwwLRW5naW5lZXJpbmcxHzAdBgNVBAMMFmNo
YWluSi1JQ0EzLW5vX3BhdGhsZW4xIDAeBgkqhkiG9w0BCQEWEWZhY3RzQHdvbGZz
c2wuY29tMB4XDTI2MDYxMTIxNDQ0MFoXDTI5MDMwNzIxNDQ0MFowgaQxCzAJBgNV
BAYTAlVTMRMwEQYDVQQIDApXYXNoaW5ndG9uMRAwDgYDVQQHDAdTZWF0dGxlMRUw
EwYDVQQKDAx3b2xmU1NMIEluYy4xFDASBgNVBAsMC0VuZ2luZWVyaW5nMR8wHQYD
VQQDDBZjaGFpbkotSUNBMi1ub19wYXRobGVuMSAwHgYJKoZIhvcNAQkBFhFmYWN0
c0B3b2xmc3NsLmNvbTCCASIwDQYJKoZIhvcNAQEBBQADggEPADCCAQoCggEBALsp
/YmqguAdBHhp7GFYUVKEfmtVaSz0I9Yf2O2rGZY4e8aI132FkwA1QAvAqf9mD56h
HYhuqYrxrUe0cckVUMYPNZ6VSmbTvRs4e9xnhZcbs2PJctZDWvFeNfYFlsdAvCOr
lDSCWQKyM9DmfxlXZWg8BGFQ7yKVT+8YvxWxTY7Np6CYIvUcBQFrSzW/iMNHwyQp
tEXLlaGsFh3duGisUTkkJ2q+MfHsBhBVvkQCT+gSe9b+MslIN2sgaMtT9Uk6rkrH
Q8Gv5lMR2fhxGqLWN8crRVBJUU9VbD8eaXtYEjp+WaBXnSicim2C5xMVOwSP4oIP
L8/ZJdllozwDwM22UdUCAwEAAaOCARAwggEMMB0GA1UdDgQWBBSj9XGKYIA8k2QX
2S61wM6pwRQXxDCBzwYDVR0jBIHHMIHEgBTNl0l49zFh7S9xGmjpRSxAeFGTW6GB
qKSBpTCBojELMAkGA1UEBhMCVVMxEzARBgNVBAgMCldhc2hpbmd0b24xEDAOBgNV
BAcMB1NlYXR0bGUxFTATBgNVBAoMDHdvbGZTU0wgSW5jLjEUMBIGA1UECwwLRW5n
aW5lZXJpbmcxHTAbBgNVBAMMFGNoYWluSi1JQ0E0LXBhdGhsZW4yMSAwHgYJKoZI
hvcNAQkBFhFmYWN0c0B3b2xmc3NsLmNvbYIBZDAMBgNVHRMEBTADAQH/MAsGA1Ud
DwQEAwIBBjANBgkqhkiG9w0BAQsFAAOCAQEAfgN4A/79iNIu+z/gUKhhgSTby71G
Lu35R+la/EHgWLdQlclRUJYZ3XDLW1Jt3nTIqqC9KztwsiAvhD7CN32FaGu7PDYT
2HuOC6MoBqm3IgTJ1dYkcahFHvHPZ09FsXVxbEDRzsiS+ac+LKl8GonSgOMK+3J1
5gQWkRcc1pCaihCDp4g5LCnq1IhCN7bRQ1K8QhvhQIHnCzebKZVRu9/RUxo7U8Cs
NSQ9JjOrrvQVwXK7yaX81RDQSXAAL15FlMStFdecFMIlMaEW9BSKEFcXRJ2ovNTm
REnhVPTZSy2R3QUJmHDinrKoTOOMDfm/CcqUArzNO6jA3Fw102qm5PTxKw==
-----END CERTIFICATE-----
