Certificate:
    Data:
        Version: 3 (0x2)
        Serial Number: 100 (0x64)
        Signature Algorithm: sha256WithRSAEncryption
        Issuer: C=US, ST=Montana, L=Bozeman, O=Sawtooth, OU=Consulting, CN=www.wolfssl.com, emailAddress=info@wolfssl.com
        Validity
            Not Before: Nov 13 20:41:43 2025 GMT
            Not After : Aug  9 20:41:43 2028 GMT
        Subject: C=US, ST=Washington, L=Seattle, O=wolfSSL Inc., OU=Engineering, CN=chainF-ICA2-pathlen0, emailAddress=info@wolfssl.com
        Subject Public Key Info:
            Public Key Algorithm: rsaEncryption
                Public-Key: (2048 bit)
                Modulus:
                    00:da:3a:22:65:f8:6d:1c:b7:1c:87:dd:27:f4:d7:
                    75:aa:7c:1c:37:31:b4:d6:a5:34:4b:36:40:ea:55:
                    08:72:a0:ff:58:e2:5d:26:11:f5:b8:6e:de:d7:c3:
                    bb:26:51:c8:d0:36:14:00:76:42:4d:03:73:ef:88:
                    b9:37:f4:e8:9d:61:45:96:e1:8e:6c:78:58:e1:f6:
                    cf:46:8a:d6:a5:79:4d:47:88:ca:6c:69:4e:28:d4:
                    8d:84:a8:e1:6c:1d:d3:36:7e:23:e3:64:d5:0a:a3:
                    fc:36:89:90:0a:ff:7e:8b:fa:2e:66:fb:c7:33:44:
                    92:df:0f:43:b2:eb:24:7e:2b:ae:b0:43:a9:ad:53:
                    82:f8:de:17:19:26:5f:ca:8c:ac:0c:1f:24:bd:15:
                    ed:4f:5d:82:ea:10:eb:05:70:4f:03:60:d9:23:6d:
                    21:07:4d:12:9c:f3:64:ee:76:fb:9d:f9:c3:d8:1a:
                    3b:6e:a9:82:7b:2d:2e:b0:74:b7:13:d6:65:8a:06:
                    f2:25:74:c2:26:e9:71:66:54:61:fe:2a:34:27:07:
                    c9:8d:ef:a0:a2:86:93:41:47:73:08:01:07:cc:4d:
                    ec:fe:80:88:93:fb:ae:b4:91:16:fa:83:96:84:66:
                    53:cd:f3:52:da:d4:25:e1:09:15:20:e2:10:ea:dd:
                    39:ef
                Exponent: 65537 (0x10001)
        X509v3 extensions:
            X509v3 Subject Key Identifier: 
                4A:53:4A:B7:30:78:35:91:B4:CB:DD:C8:22:74:89:AF:80:0F:7F:68
            X509v3 Authority Key Identifier: 
                keyid:27:8E:67:11:74:C3:26:1D:3F:ED:33:63:B3:A4:D8:1D:30:E5:E8:D5
                DirName:/C=US/ST=Montana/L=Bozeman/O=Sawtooth/OU=Consulting/CN=www.wolfssl.com/emailAddress=info@wolfssl.com
                serial:3F:29:11:20:57:71:E7:8E:F9:18:0D:CA:70:4D:5B:15:2A:43:D6:24
            X509v3 Basic Constraints: 
                CA:TRUE, pathlen:0
            X509v3 Key Usage: 
                Certificate Sign, CRL Sign
    Signature Algorithm: sha256WithRSAEncryption
    Signature Value:
        8b:2f:2f:86:cd:aa:22:8a:02:aa:c1:36:46:93:a8:b3:bd:91:
        78:80:bd:1e:20:7a:45:03:55:e3:2e:45:5f:ae:a6:bf:a9:22:
        66:3c:55:a6:9d:43:15:c0:02:16:30:a9:55:c7:f3:11:45:07:
        9f:b3:c6:a3:81:05:8c:d3:bc:c7:d7:60:05:9a:d6:36:9d:49:
        ce:30:a7:b9:ef:ba:c5:85:1f:db:90:1d:58:c0:4b:51:10:08:
        2f:62:ff:a0:49:dd:07:56:d0:3b:81:4d:2a:c1:e4:68:ac:d8:
        2b:6a:b7:67:b2:52:ed:e7:eb:dd:1e:83:3f:7a:d1:42:10:fe:
        a4:1e:e4:c5:a1:34:6b:c2:0e:99:64:d6:88:c2:eb:1e:c1:51:
        df:44:4c:2e:c9:78:a8:30:14:d4:5c:cb:10:e4:71:5e:4c:2d:
        ce:b5:ea:51:15:7c:48:cc:11:18:5c:66:f7:d6:b2:ed:5f:82:
        6c:23:09:69:48:6e:84:3a:c2:25:5e:f5:ad:7a:00:4d:2b:a0:
        9f:68:36:5e:b1:a8:4a:c6:d4:c3:0f:53:a6:2d:6d:b9:4d:d1:
        69:b1:a0:89:94:34:c5:0a:8e:20:c0:17:dc:f3:5b:b1:7e:90:
        ec:11:2c:ab:8e:0f:a2:c7:77:84:09:92:f8:43:0c:24:26:b2:
        e8:5e:de:86
-----BEGIN CERTIFICATE-----
MIIEzDCCA7SgAwIBAgIBZDANBgkqhkiG9w0BAQsFADCBlDELMAkGA1UEBhMCVVMx
EDAOBgNVBAgMB01vbnRhbmExEDAOBgNVBAcMB0JvemVtYW4xETAPBgNVBAoMCFNh
d3Rvb3RoMRMwEQYDVQQLDApDb25zdWx0aW5nMRgwFgYDVQQDDA93d3cud29sZnNz
bC5jb20xHzAdBgkqhkiG9w0BCQEWEGluZm9Ad29sZnNzbC5jb20wHhcNMjUxMTEz
MjA0MTQzWhcNMjgwODA5MjA0MTQzWjCBoTELMAkGA1UEBhMCVVMxEzARBgNVBAgM
Cldhc2hpbmd0b24xEDAOBgNVBAcMB1NlYXR0bGUxFTATBgNVBAoMDHdvbGZTU0wg
SW5jLjEUMBIGA1UECwwLRW5naW5lZXJpbmcxHTAbBgNVBAMMFGNoYWluRi1JQ0Ey
LXBhdGhsZW4wMR8wHQYJKoZIhvcNAQkBFhBpbmZvQHdvbGZzc2wuY29tMIIBIjAN
BgkqhkiG9w0BAQEFAAOCAQ8AMIIBCgKCAQEA2joiZfhtHLcch90n9Nd1qnwcNzG0
1qU0SzZA6lUIcqD/WOJdJhH1uG7e18O7JlHI0DYUAHZCTQNz74i5N/TonWFFluGO
bHhY4fbPRorWpXlNR4jKbGlOKNSNhKjhbB3TNn4j42TVCqP8NomQCv9+i/ouZvvH
M0SS3w9DsuskfiuusEOprVOC+N4XGSZfyoysDB8kvRXtT12C6hDrBXBPA2DZI20h
B00SnPNk7nb7nfnD2Bo7bqmCey0usHS3E9ZligbyJXTCJulxZlRh/io0JwfJje+g
ooaTQUdzCAEHzE3s/oCIk/uutJEW+oOWhGZTzfNS2tQl4QkVIOIQ6t057wIDAQAB
o4IBGDCCARQwHQYDVR0OBBYEFEpTSrcweDWRtMvdyCJ0ia+AD39oMIHUBgNVHSME
gcwwgcmAFCeOZxF0wyYdP+0zY7Ok2B0w5ejVoYGapIGXMIGUMQswCQYDVQQGEwJV
UzEQMA4GA1UECAwHTW9udGFuYTEQMA4GA1UEBwwHQm96ZW1hbjERMA8GA1UECgwI
U2F3dG9vdGgxEzARBgNVBAsMCkNvbnN1bHRpbmcxGDAWBgNVBAMMD3d3dy53b2xm
c3NsLmNvbTEfMB0GCSqGSIb3DQEJARYQaW5mb0B3b2xmc3NsLmNvbYIUPykRIFdx
5475GA3KcE1bFSpD1iQwDwYDVR0TBAgwBgEB/wIBADALBgNVHQ8EBAMCAQYwDQYJ
KoZIhvcNAQELBQADggEBAIsvL4bNqiKKAqrBNkaTqLO9kXiAvR4gekUDVeMuRV+u
pr+pImY8VaadQxXAAhYwqVXH8xFFB5+zxqOBBYzTvMfXYAWa1jadSc4wp7nvusWF
H9uQHVjAS1EQCC9i/6BJ3QdW0DuBTSrB5Gis2Ctqt2eyUu3n690egz960UIQ/qQe
5MWhNGvCDplk1ojC6x7BUd9ETC7JeKgwFNRcyxDkcV5MLc616lEVfEjMERhcZvfW
su1fgmwjCWlIboQ6wiVe9a16AE0roJ9oNl6xqErG1MMPU6YtbblN0WmxoImUNMUK
jiDAF9zzW7F+kOwRLKuOD6LHd4QJkvhDDCQmsuhe3oY=
-----END CERTIFICATE-----
