Certificate:
    Data:
        Version: 3 (0x2)
        Serial Number: 100 (0x64)
        Signature Algorithm: sha256WithRSAEncryption
        Issuer: C = US, ST = Washington, L = Seattle, O = wolfSSL Inc., OU = Engineering, CN = chainG-ICA6-pathlen10, emailAddress = info@wolfssl.com
        Validity
            Not Before: Dec 20 23:07:25 2021 GMT
            Not After : Sep 15 23:07:25 2024 GMT
        Subject: C = US, ST = Washington, L = Seattle, O = wolfSSL Inc., OU = Engineering, CN = chainG-ICA5-pathlen20, emailAddress = info@wolfssl.com
        Subject Public Key Info:
            Public Key Algorithm: rsaEncryption
                RSA Public-Key: (2048 bit)
                Modulus:
                    00:be:9d:98:a2:41:ca:64:1f:a2:34:dc:51:7d:49:
                    2b:f7:f8:7a:fc:1a:22:8d:3a:17:8e:00:9c:74:06:
                    18:0f:26:d1:e8:1d:55:4b:3e:bb:6e:98:6d:65:cb:
                    6f:be:c5:98:40:65:1d:e1:1d:af:ad:bc:7c:b0:fa:
                    b6:2a:cb:af:df:d5:52:98:e6:01:01:31:01:3f:c7:
                    16:06:44:92:55:43:6f:dd:49:be:aa:52:d2:80:ca:
                    3a:d0:72:f3:0a:7e:59:cb:2c:74:7c:5b:19:3d:75:
                    9d:3e:da:35:45:49:8b:0d:36:84:80:41:b7:ce:70:
                    fc:a8:d0:4d:0b:d4:f3:4e:73:87:db:2e:18:20:45:
                    70:f3:5a:d1:cf:4f:f8:78:ad:7c:4b:97:3c:f1:0f:
                    8a:f6:6c:8f:7a:3a:c9:79:82:2d:bf:ae:80:f8:8b:
                    1d:79:17:9b:76:34:97:b1:79:5d:79:fa:30:73:78:
                    fc:9c:ee:eb:62:20:95:f1:a8:af:1e:4a:91:cc:1e:
                    34:90:c7:89:21:41:41:90:09:10:52:dd:21:75:15:
                    11:aa:cf:d8:e4:6c:7d:96:c8:d6:cd:90:eb:fa:df:
                    86:e7:3d:36:73:18:f3:86:c5:99:0e:0e:f7:e4:09:
                    8f:8c:29:f1:ad:15:e9:82:c9:6c:87:fc:00:7b:4b:
                    2e:f1
                Exponent: 65537 (0x10001)
        X509v3 extensions:
            X509v3 Subject Key Identifier: 
                1D:51:80:B6:9A:A7:AC:DD:80:7B:4B:A2:0B:62:BE:E4:87:30:C7:CA
            X509v3 Authority Key Identifier: 
                keyid:14:07:E8:A7:3A:A2:9C:DD:4C:30:B0:4D:F0:00:C4:88:C4:39:DF:73
                DirName:/C=US/ST=Washington/L=Seattle/O=wolfSSL Inc./OU=Engineering/CN=chainG-ICA7-pathlen100/emailAddress=info@wolfssl.com
                serial:64

            X509v3 Basic Constraints: 
                CA:TRUE, pathlen:20
            X509v3 Key Usage: 
                Certificate Sign, CRL Sign
    Signature Algorithm: sha256WithRSAEncryption
         29:ff:da:ab:a9:62:4b:ef:6b:0b:d4:a9:a1:96:83:21:2d:df:
         20:7b:76:4d:be:4a:63:12:a7:54:af:c1:e4:38:75:6b:7a:47:
         de:85:a0:c3:c4:a1:17:78:de:cc:15:d2:78:81:f4:ed:b7:f1:
         42:88:be:b6:95:f6:7f:1d:dc:93:74:9a:8c:9b:0d:77:b4:3b:
         86:f8:ef:ed:27:8a:d0:db:f0:08:b9:29:23:2c:25:27:80:81:
         14:c3:7a:50:d6:88:77:64:a7:25:55:85:16:10:9f:3d:fb:83:
         0f:75:8a:1d:6e:c6:23:6e:41:87:1e:98:f0:a9:1c:b7:6d:ab:
         79:08:8d:42:63:3a:42:1f:a3:9e:97:93:04:2b:de:c6:fb:bc:
         cb:03:af:77:17:61:a0:03:96:d0:1b:38:37:c3:d3:ba:90:7d:
         2d:05:24:a0:af:62:8c:a9:7e:c2:88:59:ce:e6:c0:2f:1c:33:
         92:cd:e9:ce:41:7a:a6:9d:e4:ba:bc:07:1f:9d:84:79:ca:e0:
         63:cb:ed:34:c7:3c:a8:13:df:57:ce:8e:9a:13:5f:2d:31:72:
         6e:81:65:53:62:a9:39:11:94:de:2c:c8:c5:94:66:d1:0e:4b:
         84:ca:32:46:82:f8:c0:98:94:3b:bd:d4:be:f8:c2:f7:af:13:
         e4:db:57:fa
-----BEGIN CERTIFICATE-----
MIIE1zCCA7+gAwIBAgIBZDANBgkqhkiG9w0BAQsFADCBojELMAkGA1UEBhMCVVMx
EzARBgNVBAgMCldhc2hpbmd0b24xEDAOBgNVBAcMB1NlYXR0bGUxFTATBgNVBAoM
DHdvbGZTU0wgSW5jLjEUMBIGA1UECwwLRW5naW5lZXJpbmcxHjAcBgNVBAMMFWNo
YWluRy1JQ0E2LXBhdGhsZW4xMDEfMB0GCSqGSIb3DQEJARYQaW5mb0B3b2xmc3Ns
LmNvbTAeFw0yMTEyMjAyMzA3MjVaFw0yNDA5MTUyMzA3MjVaMIGiMQswCQYDVQQG
EwJVUzETMBEGA1UECAwKV2FzaGluZ3RvbjEQMA4GA1UEBwwHU2VhdHRsZTEVMBMG
A1UECgwMd29sZlNTTCBJbmMuMRQwEgYDVQQLDAtFbmdpbmVlcmluZzEeMBwGA1UE
AwwVY2hhaW5HLUlDQTUtcGF0aGxlbjIwMR8wHQYJKoZIhvcNAQkBFhBpbmZvQHdv
bGZzc2wuY29tMIIBIjANBgkqhkiG9w0BAQEFAAOCAQ8AMIIBCgKCAQEAvp2YokHK
ZB+iNNxRfUkr9/h6/BoijToXjgCcdAYYDybR6B1VSz67bphtZctvvsWYQGUd4R2v
rbx8sPq2Ksuv39VSmOYBATEBP8cWBkSSVUNv3Um+qlLSgMo60HLzCn5Zyyx0fFsZ
PXWdPto1RUmLDTaEgEG3znD8qNBNC9TzTnOH2y4YIEVw81rRz0/4eK18S5c88Q+K
9myPejrJeYItv66A+IsdeRebdjSXsXldefowc3j8nO7rYiCV8aivHkqRzB40kMeJ
IUFBkAkQUt0hdRURqs/Y5Gx9lsjWzZDr+t+G5z02cxjzhsWZDg735AmPjCnxrRXp
gslsh/wAe0su8QIDAQABo4IBFDCCARAwHQYDVR0OBBYEFB1RgLaap6zdgHtLogti
vuSHMMfKMIHQBgNVHSMEgcgwgcWAFBQH6Kc6opzdTDCwTfAAxIjEOd9zoYGppIGm
MIGjMQswCQYDVQQGEwJVUzETMBEGA1UECAwKV2FzaGluZ3RvbjEQMA4GA1UEBwwH
U2VhdHRsZTEVMBMGA1UECgwMd29sZlNTTCBJbmMuMRQwEgYDVQQLDAtFbmdpbmVl
cmluZzEfMB0GA1UEAwwWY2hhaW5HLUlDQTctcGF0aGxlbjEwMDEfMB0GCSqGSIb3
DQEJARYQaW5mb0B3b2xmc3NsLmNvbYIBZDAPBgNVHRMECDAGAQH/AgEUMAsGA1Ud
DwQEAwIBBjANBgkqhkiG9w0BAQsFAAOCAQEAKf/aq6liS+9rC9SpoZaDIS3fIHt2
Tb5KYxKnVK/B5Dh1a3pH3oWgw8ShF3jezBXSeIH07bfxQoi+tpX2fx3ck3SajJsN
d7Q7hvjv7SeK0NvwCLkpIywlJ4CBFMN6UNaId2SnJVWFFhCfPfuDD3WKHW7GI25B
hx6Y8Kkct22reQiNQmM6Qh+jnpeTBCvexvu8ywOvdxdhoAOW0Bs4N8PTupB9LQUk
oK9ijKl+wohZzubALxwzks3pzkF6pp3kurwHH52EecrgY8vtNMc8qBPfV86OmhNf
LTFyboFlU2KpORGU3izIxZRm0Q5LhMoyRoL4wJiUO73UvvjC968T5NtX+g==
-----END CERTIFICATE-----
