Certificate:
    Data:
        Version: 3 (0x2)
        Serial Number: 101 (0x65)
        Signature Algorithm: sha256WithRSAEncryption
        Issuer: C=US, ST=Washington, L=Seattle, O=wolfSSL Inc., OU=Engineering, CN=chainE-ICA1-pathlen128, emailAddress=facts@wolfssl.com
        Validity
            Not Before: Jun 11 21:44:39 2026 GMT
            Not After : Mar  7 21:44:39 2029 GMT
        Subject: C=US, ST=Washington, L=Seattle, O=wolfSSL Inc., OU=Engineering, CN=chainE-entity, emailAddress=facts@wolfssl.com
        Subject Public Key Info:
            Public Key Algorithm: rsaEncryption
                Public-Key: (2048 bit)
                Modulus:
                    00:d8:6f:49:bb:56:ea:34:4c:25:a6:8c:44:f6:c9:
                    75:8f:6b:83:b8:8b:ec:c6:f6:d3:c7:40:e2:d1:b2:
                    d8:77:92:e9:97:c4:b6:57:ad:10:c8:cb:e7:0a:40:
                    ef:3c:a8:38:dc:94:22:08:e7:53:2a:c8:7a:26:90:
                    41:43:6f:7b:8f:4e:58:74:69:20:92:9f:12:aa:6a:
                    c5:cf:7f:24:d1:d0:89:2f:6c:5e:62:31:0a:20:23:
                    6b:07:c2:a0:7d:4d:ed:05:6d:2c:b1:9a:85:e6:41:
                    61:12:6c:85:d3:d4:be:7e:cf:23:d9:79:b1:46:23:
                    d7:1a:f7:d6:f4:97:43:a5:08:03:7a:51:0d:b0:e7:
                    56:62:86:37:07:81:e8:21:f1:10:63:41:b6:82:6d:
                    f2:cd:d9:7f:80:6f:a7:4b:77:10:15:54:02:9c:7a:
                    d0:6e:b8:29:98:72:34:08:7b:ce:d7:24:91:48:a6:
                    c3:f2:9d:77:fc:aa:73:13:70:60:f9:8f:37:4c:d7:
                    34:5c:fa:51:b1:c0:d5:25:e1:75:b2:e2:cd:23:97:
                    c9:a6:bf:d3:5e:21:4b:12:f5:b2:d0:df:92:7f:4c:
                    a8:b2:21:43:2c:f9:3e:fb:14:99:1f:ed:76:2c:87:
                    5a:df:72:d3:85:a3:a8:92:1a:ad:66:19:50:44:8a:
                    05:e1
                Exponent: 65537 (0x10001)
        X509v3 extensions:
            X509v3 Subject Key Identifier: 
                26:FC:70:E0:8F:A1:3D:52:82:76:6B:CB:C7:0F:89:9D:2B:86:69:F5
            X509v3 Authority Key Identifier: 
                keyid:44:7B:00:7C:9C:1C:97:9F:97:AA:6B:F2:5E:E6:81:7C:0E:AE:E6:2B
                DirName:/C=US/ST=Montana/L=Bozeman/O=Sawtooth/OU=Consulting/CN=www.wolfssl.com/emailAddress=facts@wolfssl.com
                serial:64
            X509v3 Basic Constraints: 
                CA:FALSE
    Signature Algorithm: sha256WithRSAEncryption
    Signature Value:
        2e:03:54:30:2b:ff:39:cd:66:06:bf:31:ff:c7:e2:fb:e1:9c:
        76:24:5e:69:d2:c8:75:e1:6e:00:4d:f7:ce:e6:64:91:01:19:
        27:d1:28:63:67:7d:a1:a5:fb:cc:51:bf:fd:56:b6:e1:6d:43:
        05:9d:ed:a9:35:88:84:e2:2e:70:5a:f3:ff:5f:62:2e:6b:17:
        0f:0a:ec:2f:46:af:42:49:11:7d:55:4a:c2:55:2e:c4:7b:02:
        60:ed:e7:26:ea:57:b2:ff:ff:b8:27:57:db:7b:68:02:7f:a6:
        7a:7f:93:9e:dd:84:e0:74:0b:bf:28:9e:27:20:f4:4a:b8:63:
        bd:06:9b:e8:fb:30:09:82:30:f9:38:09:62:f6:3d:87:46:05:
        ee:6e:1f:f4:ed:3f:13:17:a2:c7:c7:49:d7:52:c6:ce:83:69:
        13:df:2b:fc:b2:66:db:dc:b1:aa:61:77:d7:79:2b:29:94:ef:
        9d:bf:c6:86:b9:46:a4:da:53:54:a7:98:63:27:38:0a:57:0d:
        b8:e0:5e:45:1f:14:e4:9b:28:c8:06:59:cb:c9:da:98:66:73:
        6b:fa:6a:28:a1:63:1b:6e:c3:72:e9:fd:96:e9:3c:f5:a7:2c:
        27:96:ac:2b:df:df:d3:07:56:23:1c:f1:ad:c8:b9:c9:9b:f8:
        3a:2a:3d:ba
-----BEGIN CERTIFICATE-----
MIIErzCCA5egAwIBAgIBZTANBgkqhkiG9w0BAQsFADCBpDELMAkGA1UEBhMCVVMx
EzARBgNVBAgMCldhc2hpbmd0b24xEDAOBgNVBAcMB1NlYXR0bGUxFTATBgNVBAoM
DHdvbGZTU0wgSW5jLjEUMBIGA1UECwwLRW5naW5lZXJpbmcxHzAdBgNVBAMMFmNo
YWluRS1JQ0ExLXBhdGhsZW4xMjgxIDAeBgkqhkiG9w0BCQEWEWZhY3RzQHdvbGZz
c2wuY29tMB4XDTI2MDYxMTIxNDQzOVoXDTI5MDMwNzIxNDQzOVowgZsxCzAJBgNV
BAYTAlVTMRMwEQYDVQQIDApXYXNoaW5ndG9uMRAwDgYDVQQHDAdTZWF0dGxlMRUw
EwYDVQQKDAx3b2xmU1NMIEluYy4xFDASBgNVBAsMC0VuZ2luZWVyaW5nMRYwFAYD
VQQDDA1jaGFpbkUtZW50aXR5MSAwHgYJKoZIhvcNAQkBFhFmYWN0c0B3b2xmc3Ns
LmNvbTCCASIwDQYJKoZIhvcNAQEBBQADggEPADCCAQoCggEBANhvSbtW6jRMJaaM
RPbJdY9rg7iL7Mb208dA4tGy2HeS6ZfEtletEMjL5wpA7zyoONyUIgjnUyrIeiaQ
QUNve49OWHRpIJKfEqpqxc9/JNHQiS9sXmIxCiAjawfCoH1N7QVtLLGaheZBYRJs
hdPUvn7PI9l5sUYj1xr31vSXQ6UIA3pRDbDnVmKGNweB6CHxEGNBtoJt8s3Zf4Bv
p0t3EBVUApx60G64KZhyNAh7ztckkUimw/Kdd/yqcxNwYPmPN0zXNFz6UbHA1SXh
dbLizSOXyaa/014hSxL1stDfkn9MqLIhQyz5PvsUmR/tdiyHWt9y04WjqJIarWYZ
UESKBeECAwEAAaOB8jCB7zAdBgNVHQ4EFgQUJvxw4I+hPVKCdmvLxw+JnSuGafUw
gcIGA1UdIwSBujCBt4AURHsAfJwcl5+XqmvyXuaBfA6u5iuhgZukgZgwgZUxCzAJ
BgNVBAYTAlVTMRAwDgYDVQQIDAdNb250YW5hMRAwDgYDVQQHDAdCb3plbWFuMREw
DwYDVQQKDAhTYXd0b290aDETMBEGA1UECwwKQ29uc3VsdGluZzEYMBYGA1UEAwwP
d3d3LndvbGZzc2wuY29tMSAwHgYJKoZIhvcNAQkBFhFmYWN0c0B3b2xmc3NsLmNv
bYIBZDAJBgNVHRMEAjAAMA0GCSqGSIb3DQEBCwUAA4IBAQAuA1QwK/85zWYGvzH/
x+L74Zx2JF5p0sh14W4ATffO5mSRARkn0ShjZ32hpfvMUb/9VrbhbUMFne2pNYiE
4i5wWvP/X2IuaxcPCuwvRq9CSRF9VUrCVS7EewJg7ecm6ley//+4J1fbe2gCf6Z6
f5Oe3YTgdAu/KJ4nIPRKuGO9Bpvo+zAJgjD5OAli9j2HRgXubh/07T8TF6LHx0nX
UsbOg2kT3yv8smbb3LGqYXfXeSsplO+dv8aGuUak2lNUp5hjJzgKVw244F5FHxTk
myjIBlnLydqYZnNr+moooWMbbsNy6f2W6Tz1pywnlqwr39/TB1YjHPGtyLnJm/g6
Kj26
-----END CERTIFICATE-----
