Certificate:
    Data:
        Version: 3 (0x2)
        Serial Number: 100 (0x64)
        Signature Algorithm: sha256WithRSAEncryption
        Issuer: C=US, ST=Washington, L=Seattle, O=wolfSSL Inc., OU=Engineering, CN=chainJ-ICA4-pathlen2, emailAddress=facts@wolfssl.com
        Validity
            Not Before: Jun 11 21:44:40 2026 GMT
            Not After : Mar  7 21:44:40 2029 GMT
        Subject: C=US, ST=Washington, L=Seattle, O=wolfSSL Inc., OU=Engineering, CN=chainJ-ICA3-no_pathlen, emailAddress=facts@wolfssl.com
        Subject Public Key Info:
            Public Key Algorithm: rsaEncryption
                Public-Key: (2048 bit)
                Modulus:
                    00:d8:aa:f6:05:95:70:5a:53:c7:66:10:aa:90:79:
                    3b:cb:78:2a:ef:5f:43:22:71:7c:6d:47:99:a7:8b:
                    39:e1:e7:4e:48:29:48:25:e1:b5:f5:25:df:64:7b:
                    ea:ed:aa:1f:8b:0d:e7:eb:f5:2f:ae:2a:5a:3d:50:
                    c7:fb:ef:0b:8b:44:0b:63:94:be:c6:d7:63:45:2e:
                    85:96:00:5c:be:7e:10:09:b3:d0:aa:7c:de:20:f8:
                    75:39:23:85:ee:84:13:88:54:2a:96:f5:16:27:9f:
                    8b:b0:a6:2a:f4:9d:13:8c:71:1c:0c:a6:59:53:ec:
                    f9:0b:2b:c9:45:13:d6:12:ef:39:d1:8e:9c:9e:ae:
                    3c:bb:b6:d8:10:ac:b7:59:49:5b:73:00:be:af:92:
                    21:14:54:a3:fa:b6:17:ae:b6:dc:b1:f1:61:f0:75:
                    07:43:5e:48:fa:e7:80:56:cf:df:ad:46:52:85:42:
                    fb:a7:70:53:14:c6:b7:51:fa:23:f0:f5:4b:d1:bb:
                    3f:9b:fc:35:ca:d2:85:f1:a0:77:02:06:7c:79:99:
                    13:b5:68:b4:16:47:42:88:f7:bc:eb:78:b2:e8:11:
                    2f:62:f6:da:f9:ef:1b:e0:9f:b5:d5:32:65:b5:4e:
                    e4:be:36:6b:65:65:1a:96:a2:47:b5:3e:9f:b0:0d:
                    63:41
                Exponent: 65537 (0x10001)
        X509v3 extensions:
            X509v3 Subject Key Identifier: 
                CD:97:49:78:F7:31:61:ED:2F:71:1A:68:E9:45:2C:40:78:51:93:5B
            X509v3 Authority Key Identifier: 
                keyid:FC:18:13:52:BB:33:4A:DB:1C:5B:D1:80:98:3E:40:86:95:58:72:F9
                DirName:/C=US/ST=Montana/L=Bozeman/O=Sawtooth/OU=Consulting/CN=www.wolfssl.com/emailAddress=facts@wolfssl.com
                serial:64
            X509v3 Basic Constraints: 
                CA:TRUE
            X509v3 Key Usage: 
                Certificate Sign, CRL Sign
    Signature Algorithm: sha256WithRSAEncryption
    Signature Value:
        12:8a:b4:2b:c1:f7:07:ce:d0:6d:13:20:f9:26:f5:cf:b9:a7:
        a2:87:91:61:36:12:65:a4:09:8a:3c:83:97:78:0f:4b:2a:1b:
        9e:8d:95:c2:86:17:d3:41:ec:8c:51:5c:9d:16:85:0d:34:0b:
        73:50:bf:0d:ca:97:c9:b8:c6:dc:4f:db:6b:ca:2f:6b:3c:2d:
        44:37:b7:54:d5:ee:8c:3f:6c:b5:82:3d:f7:1b:68:c0:46:5f:
        89:82:38:00:88:c4:80:08:01:3b:ca:69:bf:fd:26:6a:12:c5:
        33:8c:f9:89:70:a0:c1:5f:39:56:d5:2a:f2:b7:ed:30:4d:f0:
        b7:55:d7:17:35:55:15:4e:0f:75:6e:4a:9e:18:d1:8e:c2:6e:
        e8:f3:fd:f6:8a:e0:26:c1:85:b8:05:eb:f9:29:82:81:2d:af:
        15:50:f1:7b:63:ac:f6:85:9f:1c:2a:d2:f0:38:29:2a:5d:f5:
        97:d7:78:52:be:f9:b4:ac:1f:44:2c:38:3c:ba:d5:52:86:d7:
        fc:7b:0c:67:64:87:12:58:1e:4b:bc:59:5e:bc:69:db:ea:95:
        cd:10:4f:62:66:8c:ba:87:cd:f3:4a:10:46:aa:84:72:4b:dc:
        b5:2f:44:1f:08:63:de:9e:32:d7:25:68:45:0a:8d:83:6e:58:
        1c:a8:e9:50
-----BEGIN CERTIFICATE-----
MIIExzCCA6+gAwIBAgIBZDANBgkqhkiG9w0BAQsFADCBojELMAkGA1UEBhMCVVMx
EzARBgNVBAgMCldhc2hpbmd0b24xEDAOBgNVBAcMB1NlYXR0bGUxFTATBgNVBAoM
DHdvbGZTU0wgSW5jLjEUMBIGA1UECwwLRW5naW5lZXJpbmcxHTAbBgNVBAMMFGNo
YWluSi1JQ0E0LXBhdGhsZW4yMSAwHgYJKoZIhvcNAQkBFhFmYWN0c0B3b2xmc3Ns
LmNvbTAeFw0yNjA2MTEyMTQ0NDBaFw0yOTAzMDcyMTQ0NDBaMIGkMQswCQYDVQQG
EwJVUzETMBEGA1UECAwKV2FzaGluZ3RvbjEQMA4GA1UEBwwHU2VhdHRsZTEVMBMG
A1UECgwMd29sZlNTTCBJbmMuMRQwEgYDVQQLDAtFbmdpbmVlcmluZzEfMB0GA1UE
AwwWY2hhaW5KLUlDQTMtbm9fcGF0aGxlbjEgMB4GCSqGSIb3DQEJARYRZmFjdHNA
d29sZnNzbC5jb20wggEiMA0GCSqGSIb3DQEBAQUAA4IBDwAwggEKAoIBAQDYqvYF
lXBaU8dmEKqQeTvLeCrvX0MicXxtR5mniznh505IKUgl4bX1Jd9ke+rtqh+LDefr
9S+uKlo9UMf77wuLRAtjlL7G12NFLoWWAFy+fhAJs9CqfN4g+HU5I4XuhBOIVCqW
9RYnn4uwpir0nROMcRwMpllT7PkLK8lFE9YS7znRjpyerjy7ttgQrLdZSVtzAL6v
kiEUVKP6theuttyx8WHwdQdDXkj654BWz9+tRlKFQvuncFMUxrdR+iPw9UvRuz+b
/DXK0oXxoHcCBnx5mRO1aLQWR0KI97zreLLoES9i9tr57xvgn7XVMmW1TuS+Nmtl
ZRqWoke1Pp+wDWNBAgMBAAGjggECMIH/MB0GA1UdDgQWBBTNl0l49zFh7S9xGmjp
RSxAeFGTWzCBwgYDVR0jBIG6MIG3gBT8GBNSuzNK2xxb0YCYPkCGlVhy+aGBm6SB
mDCBlTELMAkGA1UEBhMCVVMxEDAOBgNVBAgMB01vbnRhbmExEDAOBgNVBAcMB0Jv
emVtYW4xETAPBgNVBAoMCFNhd3Rvb3RoMRMwEQYDVQQLDApDb25zdWx0aW5nMRgw
FgYDVQQDDA93d3cud29sZnNzbC5jb20xIDAeBgkqhkiG9w0BCQEWEWZhY3RzQHdv
bGZzc2wuY29tggFkMAwGA1UdEwQFMAMBAf8wCwYDVR0PBAQDAgEGMA0GCSqGSIb3
DQEBCwUAA4IBAQASirQrwfcHztBtEyD5JvXPuaeih5FhNhJlpAmKPIOXeA9LKhue
jZXChhfTQeyMUVydFoUNNAtzUL8NypfJuMbcT9tryi9rPC1EN7dU1e6MP2y1gj33
G2jARl+JgjgAiMSACAE7ymm//SZqEsUzjPmJcKDBXzlW1Sryt+0wTfC3VdcXNVUV
Tg91bkqeGNGOwm7o8/32iuAmwYW4Bev5KYKBLa8VUPF7Y6z2hZ8cKtLwOCkqXfWX
13hSvvm0rB9ELDg8utVShtf8ewxnZIcSWB5LvFlevGnb6pXNEE9iZoy6h83zShBG
qoRyS9y1L0QfCGPenjLXJWhFCo2DblgcqOlQ
-----END CERTIFICATE-----
