Certificate:
    Data:
        Version: 3 (0x2)
        Serial Number: 100 (0x64)
        Signature Algorithm: sha1WithRSAEncryption
        Issuer: C = US, ST = Montana, L = Bozeman, O = Sawtooth, OU = Consulting, CN = www.wolfssl.com, emailAddress = info@wolfssl.com
        Validity
            Not Before: Oct 10 21:32:42 2019 GMT
            Not After : Jul  6 21:32:42 2022 GMT
        Subject: C = US, ST = Washington, L = Seattle, O = wolfSSL Inc., OU = Engineering, CN = chainF-ICA2-pathlen0, emailAddress = info@wolfssl.com
        Subject Public Key Info:
            Public Key Algorithm: rsaEncryption
                RSA Public-Key: (2048 bit)
                Modulus:
                    00:da:3a:22:65:f8:6d:1c:b7:1c:87:dd:27:f4:d7:
                    75:aa:7c:1c:37:31:b4:d6:a5:34:4b:36:40:ea:55:
                    08:72:a0:ff:58:e2:5d:26:11:f5:b8:6e:de:d7:c3:
                    bb:26:51:c8:d0:36:14:00:76:42:4d:03:73:ef:88:
                    b9:37:f4:e8:9d:61:45:96:e1:8e:6c:78:58:e1:f6:
                    cf:46:8a:d6:a5:79:4d:47:88:ca:6c:69:4e:28:d4:
                    8d:84:a8:e1:6c:1d:d3:36:7e:23:e3:64:d5:0a:a3:
                    fc:36:89:90:0a:ff:7e:8b:fa:2e:66:fb:c7:33:44:
                    92:df:0f:43:b2:eb:24:7e:2b:ae:b0:43:a9:ad:53:
                    82:f8:de:17:19:26:5f:ca:8c:ac:0c:1f:24:bd:15:
                    ed:4f:5d:82:ea:10:eb:05:70:4f:03:60:d9:23:6d:
                    21:07:4d:12:9c:f3:64:ee:76:fb:9d:f9:c3:d8:1a:
                    3b:6e:a9:82:7b:2d:2e:b0:74:b7:13:d6:65:8a:06:
                    f2:25:74:c2:26:e9:71:66:54:61:fe:2a:34:27:07:
                    c9:8d:ef:a0:a2:86:93:41:47:73:08:01:07:cc:4d:
                    ec:fe:80:88:93:fb:ae:b4:91:16:fa:83:96:84:66:
                    53:cd:f3:52:da:d4:25:e1:09:15:20:e2:10:ea:dd:
                    39:ef
                Exponent: 65537 (0x10001)
        X509v3 extensions:
            X509v3 Subject Key Identifier: 
                4A:53:4A:B7:30:78:35:91:B4:CB:DD:C8:22:74:89:AF:80:0F:7F:68
            X509v3 Authority Key Identifier: 
                keyid:27:8E:67:11:74:C3:26:1D:3F:ED:33:63:B3:A4:D8:1D:30:E5:E8:D5
                DirName:/C=US/ST=Montana/L=Bozeman/O=Sawtooth/OU=Consulting/CN=www.wolfssl.com/emailAddress=info@wolfssl.com
                serial:86:FF:F5:8E:10:DE:B8:FB

            X509v3 Basic Constraints: 
                CA:TRUE, pathlen:0
            X509v3 Key Usage: 
                Certificate Sign, CRL Sign
    Signature Algorithm: sha1WithRSAEncryption
         2d:ca:3d:06:3c:0b:90:2e:87:05:58:6f:99:83:96:90:55:05:
         51:b1:dd:73:d3:a5:4c:bb:6d:c3:10:ef:da:53:db:65:15:25:
         00:a5:6b:d4:ac:33:47:75:5d:39:9a:96:11:c1:c3:03:2d:3c:
         70:b6:94:35:af:7d:d1:51:9d:d3:bf:f7:09:21:77:64:ce:fa:
         92:0b:95:94:7a:84:76:ed:55:79:3f:e7:db:42:8d:40:00:dc:
         77:11:a6:4c:98:33:92:34:2c:8a:cf:b8:85:bd:0e:1f:63:97:
         0a:e3:7a:b5:26:f7:36:68:a1:a5:0a:1c:4f:69:f0:c7:12:70:
         38:8b:16:58:88:89:8f:1f:79:c5:3e:49:08:93:9e:21:cf:ec:
         72:10:ab:a5:67:16:f1:e0:01:54:fc:2b:05:d6:5f:6a:8b:8e:
         b5:90:97:dc:24:b1:06:2e:b0:4a:96:08:54:39:ab:97:ca:67:
         3e:7c:a8:10:01:10:98:47:6b:62:05:f7:83:85:63:d3:28:b7:
         e6:61:09:0a:7d:50:2f:d4:e1:1d:af:8c:23:03:0b:e3:aa:d0:
         15:fe:4d:51:7c:49:de:0b:fb:fe:f5:fb:cd:25:4b:b5:2f:7d:
         e6:55:c8:c2:a3:0b:26:60:8f:79:b0:d1:8f:83:1f:36:91:aa:
         24:0e:d6:0d
-----BEGIN CERTIFICATE-----
MIIEwTCCA6mgAwIBAgIBZDANBgkqhkiG9w0BAQUFADCBlDELMAkGA1UEBhMCVVMx
EDAOBgNVBAgMB01vbnRhbmExEDAOBgNVBAcMB0JvemVtYW4xETAPBgNVBAoMCFNh
d3Rvb3RoMRMwEQYDVQQLDApDb25zdWx0aW5nMRgwFgYDVQQDDA93d3cud29sZnNz
bC5jb20xHzAdBgkqhkiG9w0BCQEWEGluZm9Ad29sZnNzbC5jb20wHhcNMTkxMDEw
MjEzMjQyWhcNMjIwNzA2MjEzMjQyWjCBoTELMAkGA1UEBhMCVVMxEzARBgNVBAgM
Cldhc2hpbmd0b24xEDAOBgNVBAcMB1NlYXR0bGUxFTATBgNVBAoMDHdvbGZTU0wg
SW5jLjEUMBIGA1UECwwLRW5naW5lZXJpbmcxHTAbBgNVBAMMFGNoYWluRi1JQ0Ey
LXBhdGhsZW4wMR8wHQYJKoZIhvcNAQkBFhBpbmZvQHdvbGZzc2wuY29tMIIBIjAN
BgkqhkiG9w0BAQEFAAOCAQ8AMIIBCgKCAQEA2joiZfhtHLcch90n9Nd1qnwcNzG0
1qU0SzZA6lUIcqD/WOJdJhH1uG7e18O7JlHI0DYUAHZCTQNz74i5N/TonWFFluGO
bHhY4fbPRorWpXlNR4jKbGlOKNSNhKjhbB3TNn4j42TVCqP8NomQCv9+i/ouZvvH
M0SS3w9DsuskfiuusEOprVOC+N4XGSZfyoysDB8kvRXtT12C6hDrBXBPA2DZI20h
B00SnPNk7nb7nfnD2Bo7bqmCey0usHS3E9ZligbyJXTCJulxZlRh/io0JwfJje+g
ooaTQUdzCAEHzE3s/oCIk/uutJEW+oOWhGZTzfNS2tQl4QkVIOIQ6t057wIDAQAB
o4IBDTCCAQkwHQYDVR0OBBYEFEpTSrcweDWRtMvdyCJ0ia+AD39oMIHJBgNVHSME
gcEwgb6AFCeOZxF0wyYdP+0zY7Ok2B0w5ejVoYGapIGXMIGUMQswCQYDVQQGEwJV
UzEQMA4GA1UECAwHTW9udGFuYTEQMA4GA1UEBwwHQm96ZW1hbjERMA8GA1UECgwI
U2F3dG9vdGgxEzARBgNVBAsMCkNvbnN1bHRpbmcxGDAWBgNVBAMMD3d3dy53b2xm
c3NsLmNvbTEfMB0GCSqGSIb3DQEJARYQaW5mb0B3b2xmc3NsLmNvbYIJAIb/9Y4Q
3rj7MA8GA1UdEwQIMAYBAf8CAQAwCwYDVR0PBAQDAgEGMA0GCSqGSIb3DQEBBQUA
A4IBAQAtyj0GPAuQLocFWG+Zg5aQVQVRsd1z06VMu23DEO/aU9tlFSUApWvUrDNH
dV05mpYRwcMDLTxwtpQ1r33RUZ3Tv/cJIXdkzvqSC5WUeoR27VV5P+fbQo1AANx3
EaZMmDOSNCyKz7iFvQ4fY5cK43q1Jvc2aKGlChxPafDHEnA4ixZYiImPH3nFPkkI
k54hz+xyEKulZxbx4AFU/CsF1l9qi461kJfcJLEGLrBKlghUOauXymc+fKgQARCY
R2tiBfeDhWPTKLfmYQkKfVAv1OEdr4wjAwvjqtAV/k1RfEneC/v+9fvNJUu1L33m
VcjCowsmYI95sNGPgx82kaokDtYN
-----END CERTIFICATE-----
