Certificate:
    Data:
        Version: 3 (0x2)
        Serial Number: 100 (0x64)
        Signature Algorithm: sha1WithRSAEncryption
        Issuer: C = US, ST = Washington, L = Seattle, O = wolfSSL Inc., OU = Engineering, CN = chainG-ICA7-pathlen100, emailAddress = info@wolfssl.com
        Validity
            Not Before: Oct 10 21:32:42 2019 GMT
            Not After : Jul  6 21:32:42 2022 GMT
        Subject: C = US, ST = Washington, L = Seattle, O = wolfSSL Inc., OU = Engineering, CN = chainG-ICA6-pathlen10, emailAddress = info@wolfssl.com
        Subject Public Key Info:
            Public Key Algorithm: rsaEncryption
                RSA Public-Key: (2048 bit)
                Modulus:
                    00:e1:4f:c9:e7:30:ea:06:ff:65:cb:2b:6c:f1:a8:
                    ac:f6:cf:10:6b:80:7a:af:5e:42:0a:0d:61:be:6f:
                    14:3c:9f:64:6e:96:46:77:e2:64:a0:0e:d7:56:41:
                    fc:5b:e6:fe:49:86:1f:8f:20:cc:4b:ec:3a:f1:46:
                    74:1a:7e:33:d9:aa:d5:e2:78:09:dd:0c:39:20:7e:
                    32:12:96:cd:96:db:10:01:e8:b7:aa:e3:e1:27:5d:
                    0a:8f:99:6e:ef:2d:d8:c8:c8:76:aa:d9:00:9d:48:
                    d9:cf:12:08:97:31:59:c0:4f:a3:e0:ee:5c:a1:35:
                    ef:94:7c:c6:04:aa:3e:34:a6:43:e0:c8:ed:3d:91:
                    53:53:9e:19:03:8e:bf:30:fd:d9:b5:4b:f3:51:0b:
                    60:ed:27:e2:b1:dd:15:3c:b0:5f:25:0f:29:9b:5f:
                    aa:31:64:5e:3d:83:2e:b8:20:66:b9:da:a7:b5:22:
                    40:19:3d:24:5d:c3:e7:dd:b6:6b:16:c3:67:23:5d:
                    31:65:3b:cb:72:d1:a7:c8:b0:e0:b9:a2:cb:90:86:
                    30:d6:ce:7f:9c:b3:b1:c3:34:62:63:c6:b9:66:33:
                    6b:5b:a6:00:bb:45:ee:03:07:96:a5:d7:2f:1e:f1:
                    d2:f2:5e:c2:d2:a1:36:25:f0:7a:70:cb:3d:1d:a4:
                    6f:61
                Exponent: 65537 (0x10001)
        X509v3 extensions:
            X509v3 Subject Key Identifier: 
                14:07:E8:A7:3A:A2:9C:DD:4C:30:B0:4D:F0:00:C4:88:C4:39:DF:73
            X509v3 Authority Key Identifier: 
                keyid:12:E4:A4:19:85:AE:85:B7:D6:EB:63:04:D5:B9:B0:7E:57:5F:0C:16
                DirName:/C=US/ST=Montana/L=Bozeman/O=Sawtooth/OU=Consulting/CN=www.wolfssl.com/emailAddress=info@wolfssl.com
                serial:64

            X509v3 Basic Constraints: 
                CA:TRUE, pathlen:10
            X509v3 Key Usage: 
                Certificate Sign, CRL Sign
    Signature Algorithm: sha1WithRSAEncryption
         62:15:b5:4c:71:fc:6c:05:d9:97:75:9b:a0:8f:f5:ae:1a:b8:
         59:43:f9:0a:c0:2c:4c:88:47:02:21:da:7d:6a:33:cc:85:17:
         10:b5:b9:74:78:22:17:8b:94:ed:90:93:e4:61:6c:9f:4e:ce:
         3f:3e:e8:39:7a:12:33:99:c5:5a:f0:05:be:e4:3e:b2:ae:79:
         56:aa:e6:47:7d:d3:f9:d9:4c:49:39:df:5a:f5:1e:44:2e:81:
         3c:2a:28:3a:c6:dd:11:15:41:eb:73:5e:a7:e6:06:0c:d5:24:
         e8:30:af:ac:52:2e:e5:76:a0:b2:8b:93:a0:47:90:2a:d0:f8:
         da:b9:03:fa:ce:fb:f6:16:31:56:43:7c:ea:a9:dd:1d:42:c0:
         6b:25:2b:e6:c5:82:c4:f3:b7:27:81:1c:36:2d:3c:53:9e:ca:
         73:af:70:42:6b:97:38:89:be:6e:54:e2:08:5a:84:2f:78:2b:
         fe:cf:2f:e0:eb:04:e0:93:67:e1:d1:49:c0:6d:9b:30:0f:24:
         0b:10:5e:f2:36:9e:90:b4:a6:46:81:cd:cf:96:a6:37:0f:82:
         80:ca:6f:25:b3:85:65:6e:e9:09:8f:b3:fc:d5:a6:4a:57:62:
         89:06:c3:d1:3d:ad:f1:33:5e:b8:dd:89:b0:50:98:96:11:0f:
         66:ec:5d:71
-----BEGIN CERTIFICATE-----
MIIEyTCCA7GgAwIBAgIBZDANBgkqhkiG9w0BAQUFADCBozELMAkGA1UEBhMCVVMx
EzARBgNVBAgMCldhc2hpbmd0b24xEDAOBgNVBAcMB1NlYXR0bGUxFTATBgNVBAoM
DHdvbGZTU0wgSW5jLjEUMBIGA1UECwwLRW5naW5lZXJpbmcxHzAdBgNVBAMMFmNo
YWluRy1JQ0E3LXBhdGhsZW4xMDAxHzAdBgkqhkiG9w0BCQEWEGluZm9Ad29sZnNz
bC5jb20wHhcNMTkxMDEwMjEzMjQyWhcNMjIwNzA2MjEzMjQyWjCBojELMAkGA1UE
BhMCVVMxEzARBgNVBAgMCldhc2hpbmd0b24xEDAOBgNVBAcMB1NlYXR0bGUxFTAT
BgNVBAoMDHdvbGZTU0wgSW5jLjEUMBIGA1UECwwLRW5naW5lZXJpbmcxHjAcBgNV
BAMMFWNoYWluRy1JQ0E2LXBhdGhsZW4xMDEfMB0GCSqGSIb3DQEJARYQaW5mb0B3
b2xmc3NsLmNvbTCCASIwDQYJKoZIhvcNAQEBBQADggEPADCCAQoCggEBAOFPyecw
6gb/ZcsrbPGorPbPEGuAeq9eQgoNYb5vFDyfZG6WRnfiZKAO11ZB/Fvm/kmGH48g
zEvsOvFGdBp+M9mq1eJ4Cd0MOSB+MhKWzZbbEAHot6rj4SddCo+Zbu8t2MjIdqrZ
AJ1I2c8SCJcxWcBPo+DuXKE175R8xgSqPjSmQ+DI7T2RU1OeGQOOvzD92bVL81EL
YO0n4rHdFTywXyUPKZtfqjFkXj2DLrggZrnap7UiQBk9JF3D5922axbDZyNdMWU7
y3LRp8iw4Lmiy5CGMNbOf5yzscM0YmPGuWYza1umALtF7gMHlqXXLx7x0vJewtKh
NiXwenDLPR2kb2ECAwEAAaOCAQUwggEBMB0GA1UdDgQWBBQUB+inOqKc3UwwsE3w
AMSIxDnfczCBwQYDVR0jBIG5MIG2gBQS5KQZha6Ft9brYwTVubB+V18MFqGBmqSB
lzCBlDELMAkGA1UEBhMCVVMxEDAOBgNVBAgMB01vbnRhbmExEDAOBgNVBAcMB0Jv
emVtYW4xETAPBgNVBAoMCFNhd3Rvb3RoMRMwEQYDVQQLDApDb25zdWx0aW5nMRgw
FgYDVQQDDA93d3cud29sZnNzbC5jb20xHzAdBgkqhkiG9w0BCQEWEGluZm9Ad29s
ZnNzbC5jb22CAWQwDwYDVR0TBAgwBgEB/wIBCjALBgNVHQ8EBAMCAQYwDQYJKoZI
hvcNAQEFBQADggEBAGIVtUxx/GwF2Zd1m6CP9a4auFlD+QrALEyIRwIh2n1qM8yF
FxC1uXR4IheLlO2Qk+RhbJ9Ozj8+6Dl6EjOZxVrwBb7kPrKueVaq5kd90/nZTEk5
31r1HkQugTwqKDrG3REVQetzXqfmBgzVJOgwr6xSLuV2oLKLk6BHkCrQ+Nq5A/rO
+/YWMVZDfOqp3R1CwGslK+bFgsTztyeBHDYtPFOeynOvcEJrlziJvm5U4ghahC94
K/7PL+DrBOCTZ+HRScBtmzAPJAsQXvI2npC0pkaBzc+WpjcPgoDKbyWzhWVu6QmP
s/zVpkpXYokGw9E9rfEzXrjdibBQmJYRD2bsXXE=
-----END CERTIFICATE-----
