Certificate:
    Data:
        Version: 3 (0x2)
        Serial Number: 100 (0x64)
        Signature Algorithm: sha256WithRSAEncryption
        Issuer: C = US, ST = Washington, L = Seattle, O = wolfSSL Inc., OU = Engineering, CN = chainG-ICA2-pathlen1, emailAddress = info@wolfssl.com
        Validity
            Not Before: Dec 20 23:07:25 2021 GMT
            Not After : Sep 15 23:07:25 2024 GMT
        Subject: C = US, ST = Washington, L = Seattle, O = wolfSSL Inc., OU = Engineering, CN = chainG-ICA1-pathlen0, emailAddress = info@wolfssl.com
        Subject Public Key Info:
            Public Key Algorithm: rsaEncryption
                RSA Public-Key: (2048 bit)
                Modulus:
                    00:d2:26:be:51:98:42:e0:1f:ae:fc:c2:cb:ba:d5:
                    0f:44:3b:0b:60:d8:49:ec:03:43:6b:06:ce:f2:28:
                    19:fb:48:9c:0b:5c:7f:00:a3:22:9f:bc:e9:2a:5b:
                    e4:e1:16:d8:9c:b9:c3:0b:30:e3:1c:83:7d:c0:b9:
                    a4:3f:da:38:ec:8b:38:be:45:c4:a7:1d:c1:68:18:
                    28:19:b0:f2:93:06:3a:bd:23:67:aa:05:89:31:3b:
                    c2:b4:5e:b3:12:cb:3b:f3:9c:d6:df:4c:ed:cb:42:
                    1b:25:80:2d:ab:c4:67:8f:a5:ff:da:6c:f1:18:fd:
                    a1:98:8c:d8:1f:67:6c:28:c7:cb:4e:bb:b0:27:ea:
                    25:b1:5d:73:d0:2a:e9:44:50:b9:f5:65:64:e6:cf:
                    3d:92:d8:c0:6d:ed:96:8e:e2:d3:84:70:d0:db:fe:
                    70:63:44:fa:f8:db:35:d1:95:ad:18:95:21:64:ce:
                    e2:23:7e:5e:6c:2f:ef:a7:63:fe:82:4a:cb:cc:23:
                    cf:9d:26:a5:66:ed:9c:06:7e:70:76:03:72:99:db:
                    fa:be:a5:c3:38:8b:40:24:c1:6b:d7:9c:bb:27:86:
                    22:a9:62:e0:b2:bd:e7:b5:e4:81:ea:64:db:18:16:
                    24:62:81:6c:a8:f2:83:3f:af:3b:b5:fd:b0:d8:84:
                    b2:21
                Exponent: 65537 (0x10001)
        X509v3 extensions:
            X509v3 Subject Key Identifier: 
                47:C0:19:4B:ED:C4:DA:97:B1:60:EA:5A:0A:42:6D:A5:D3:D8:25:31
            X509v3 Authority Key Identifier: 
                keyid:E1:E6:9B:28:CF:FD:AB:45:C1:B7:A7:C4:C9:58:FC:41:E3:1A:5C:74
                DirName:/C=US/ST=Washington/L=Seattle/O=wolfSSL Inc./OU=Engineering/CN=chainG-ICA3-pathlen99/emailAddress=info@wolfssl.com
                serial:64

            X509v3 Basic Constraints: 
                CA:TRUE, pathlen:0
            X509v3 Key Usage: 
                Certificate Sign, CRL Sign
    Signature Algorithm: sha256WithRSAEncryption
         79:c2:90:26:d1:a8:0c:b0:e5:f8:5f:6b:29:06:17:bf:df:32:
         5e:08:c4:27:18:2d:83:14:30:63:3b:40:89:2a:68:d2:65:4d:
         68:a7:d6:a5:6c:c6:62:9d:14:ba:99:c5:a7:ea:28:34:dc:82:
         f0:fd:f0:02:c9:be:f8:a6:75:87:bf:7e:bb:3b:5d:c4:c6:7e:
         aa:af:97:a1:5e:ac:51:f8:5e:62:e5:57:a0:df:f2:8a:a8:e3:
         db:2c:c0:ae:40:65:3a:19:6a:d5:65:30:3d:97:1f:10:ef:e7:
         7e:d1:81:e5:b0:76:25:70:52:22:51:f7:45:17:13:7f:e6:f1:
         76:4f:ef:a6:fd:d9:45:a1:e5:ab:1b:b8:73:bd:7d:51:e3:61:
         72:e5:c3:87:51:c1:b7:82:d0:08:63:21:f5:cd:c4:0a:bc:0d:
         9b:f0:d8:5a:63:00:f8:51:48:14:f8:5e:8c:e7:a5:f9:63:85:
         ca:9d:09:62:7a:3d:1c:bb:90:72:6d:39:f3:b8:62:fa:2b:c4:
         31:fa:86:45:eb:2b:7d:5d:09:88:58:79:ba:ba:0f:64:2c:1c:
         21:12:52:51:0f:05:f0:b3:c2:53:df:66:3c:14:59:82:35:ee:
         ef:65:15:61:8c:00:f8:3a:b3:a7:8a:d5:4d:6a:c9:4f:9f:1f:
         f9:1e:5e:0d
-----BEGIN CERTIFICATE-----
MIIE1DCCA7ygAwIBAgIBZDANBgkqhkiG9w0BAQsFADCBoTELMAkGA1UEBhMCVVMx
EzARBgNVBAgMCldhc2hpbmd0b24xEDAOBgNVBAcMB1NlYXR0bGUxFTATBgNVBAoM
DHdvbGZTU0wgSW5jLjEUMBIGA1UECwwLRW5naW5lZXJpbmcxHTAbBgNVBAMMFGNo
YWluRy1JQ0EyLXBhdGhsZW4xMR8wHQYJKoZIhvcNAQkBFhBpbmZvQHdvbGZzc2wu
Y29tMB4XDTIxMTIyMDIzMDcyNVoXDTI0MDkxNTIzMDcyNVowgaExCzAJBgNVBAYT
AlVTMRMwEQYDVQQIDApXYXNoaW5ndG9uMRAwDgYDVQQHDAdTZWF0dGxlMRUwEwYD
VQQKDAx3b2xmU1NMIEluYy4xFDASBgNVBAsMC0VuZ2luZWVyaW5nMR0wGwYDVQQD
DBRjaGFpbkctSUNBMS1wYXRobGVuMDEfMB0GCSqGSIb3DQEJARYQaW5mb0B3b2xm
c3NsLmNvbTCCASIwDQYJKoZIhvcNAQEBBQADggEPADCCAQoCggEBANImvlGYQuAf
rvzCy7rVD0Q7C2DYSewDQ2sGzvIoGftInAtcfwCjIp+86Spb5OEW2Jy5wwsw4xyD
fcC5pD/aOOyLOL5FxKcdwWgYKBmw8pMGOr0jZ6oFiTE7wrResxLLO/Oc1t9M7ctC
GyWALavEZ4+l/9ps8Rj9oZiM2B9nbCjHy067sCfqJbFdc9Aq6URQufVlZObPPZLY
wG3tlo7i04Rw0Nv+cGNE+vjbNdGVrRiVIWTO4iN+Xmwv76dj/oJKy8wjz50mpWbt
nAZ+cHYDcpnb+r6lwziLQCTBa9ecuyeGIqli4LK957Xkgepk2xgWJGKBbKjygz+v
O7X9sNiEsiECAwEAAaOCARMwggEPMB0GA1UdDgQWBBRHwBlL7cTal7Fg6loKQm2l
09glMTCBzwYDVR0jBIHHMIHEgBTh5psoz/2rRcG3p8TJWPxB4xpcdKGBqKSBpTCB
ojELMAkGA1UEBhMCVVMxEzARBgNVBAgMCldhc2hpbmd0b24xEDAOBgNVBAcMB1Nl
YXR0bGUxFTATBgNVBAoMDHdvbGZTU0wgSW5jLjEUMBIGA1UECwwLRW5naW5lZXJp
bmcxHjAcBgNVBAMMFWNoYWluRy1JQ0EzLXBhdGhsZW45OTEfMB0GCSqGSIb3DQEJ
ARYQaW5mb0B3b2xmc3NsLmNvbYIBZDAPBgNVHRMECDAGAQH/AgEAMAsGA1UdDwQE
AwIBBjANBgkqhkiG9w0BAQsFAAOCAQEAecKQJtGoDLDl+F9rKQYXv98yXgjEJxgt
gxQwYztAiSpo0mVNaKfWpWzGYp0UupnFp+ooNNyC8P3wAsm++KZ1h79+uztdxMZ+
qq+XoV6sUfheYuVXoN/yiqjj2yzArkBlOhlq1WUwPZcfEO/nftGB5bB2JXBSIlH3
RRcTf+bxdk/vpv3ZRaHlqxu4c719UeNhcuXDh1HBt4LQCGMh9c3ECrwNm/DYWmMA
+FFIFPhejOel+WOFyp0JYno9HLuQcm0587hi+ivEMfqGResrfV0JiFh5uroPZCwc
IRJSUQ8F8LPCU99mPBRZgjXu72UVYYwA+Dqzp4rVTWrJT58f+R5eDQ==
-----END CERTIFICATE-----
