Certificate:
    Data:
        Version: 3 (0x2)
        Serial Number: 100 (0x64)
        Signature Algorithm: sha256WithRSAEncryption
        Issuer: C = US, ST = Washington, L = Seattle, O = wolfSSL Inc., OU = Engineering, CN = chainH-ICA2-pathlen2, emailAddress = info@wolfssl.com
        Validity
            Not Before: Jun 19 13:23:42 2020 GMT
            Not After : Mar 16 13:23:42 2023 GMT
        Subject: C = US, ST = Washington, L = Seattle, O = wolfSSL Inc., OU = Engineering, CN = chainH-ICA1-pathlen0, emailAddress = info@wolfssl.com
        Subject Public Key Info:
            Public Key Algorithm: rsaEncryption
                RSA Public-Key: (2048 bit)
                Modulus:
                    00:c7:f4:a6:7e:f2:cb:4f:6e:04:18:d3:53:d5:cf:
                    bf:7e:97:d1:74:94:fe:db:ad:61:3f:12:20:67:f3:
                    10:83:7b:51:43:a3:0c:20:b7:35:63:f1:0a:ee:59:
                    74:82:72:fb:d1:d4:12:71:ec:0e:8f:69:c9:fb:af:
                    a7:2f:c4:3b:2c:66:34:ab:ac:80:c2:6d:4a:0e:54:
                    fe:f6:3e:3a:00:25:84:a7:cb:42:d5:e8:47:04:94:
                    e4:68:c3:f5:32:ad:21:89:d8:5e:f9:88:ee:7d:ce:
                    91:a3:16:fc:87:76:1f:2f:1d:4c:b1:2f:3d:4d:f4:
                    0a:6c:04:fd:49:cf:51:88:49:c4:03:65:63:1e:c8:
                    f1:34:1d:44:34:58:af:f5:ec:90:2a:8c:a9:38:7b:
                    dc:fa:5f:ed:00:ed:08:53:4d:f7:36:10:ed:71:41:
                    aa:e3:bf:e8:5d:ee:4e:36:39:57:7e:f4:fd:c3:f7:
                    8a:52:0f:f1:37:72:2b:ae:90:77:00:d6:7c:ec:ec:
                    ee:8d:f8:4b:fb:39:0a:45:49:81:31:41:3f:a9:bb:
                    7b:1c:8a:cf:31:09:c7:94:a7:70:4a:d4:bb:ea:61:
                    3d:9a:a1:8e:1b:8b:02:3b:1f:1f:c4:85:e9:7f:63:
                    0c:ea:e5:91:83:a8:5b:25:34:7c:a8:68:eb:97:6f:
                    74:99
                Exponent: 65537 (0x10001)
        X509v3 extensions:
            X509v3 Subject Key Identifier: 
                48:80:87:28:EF:E6:28:0F:03:9B:DF:33:48:10:A0:E5:20:B3:69:50
            X509v3 Authority Key Identifier: 
                keyid:80:49:61:8C:1D:13:08:56:B5:42:68:D5:B2:EA:89:2C:B4:8B:05:87
                DirName:/C=US/ST=Washington/L=Seattle/O=wolfSSL Inc./OU=Engineering/CN=chainH-ICA3-pathlen2/emailAddress=info@wolfssl.com
                serial:64

            X509v3 Basic Constraints: 
                CA:TRUE, pathlen:0
            X509v3 Key Usage: 
                Certificate Sign, CRL Sign
    Signature Algorithm: sha256WithRSAEncryption
         a9:fb:44:1a:69:ef:29:5c:ef:85:be:c2:bd:43:2e:92:55:2d:
         7c:ea:29:54:6f:8e:06:dd:31:9b:82:95:9f:21:d2:5e:69:8d:
         42:cc:d2:90:67:19:e2:9f:ec:60:d2:9e:76:79:ea:9b:51:7a:
         99:f1:27:59:d1:59:8d:87:d1:46:8d:44:99:09:da:39:e4:e4:
         16:a3:25:b0:02:48:bd:6e:f9:3b:0a:da:2f:2e:26:d6:aa:9e:
         40:51:cd:a2:9f:89:6f:61:3d:1b:b8:5d:dd:c7:e9:91:92:cb:
         d8:f4:1f:c8:38:8c:86:89:62:45:80:f8:fe:d7:3a:c2:c9:f3:
         e3:3d:8d:46:69:81:5a:f3:d8:29:30:46:76:a7:aa:01:b8:28:
         bd:0b:63:69:12:ef:6c:22:27:b9:b9:e9:42:4f:e7:d2:13:55:
         c4:20:00:c6:5b:53:06:a3:cd:af:de:c6:4b:41:6f:f6:84:10:
         eb:d6:ec:00:48:20:1e:2a:18:83:ef:33:f1:c7:3e:af:a3:73:
         f9:e3:f8:00:f6:03:68:8b:9a:12:2c:51:5a:1b:02:ad:00:26:
         b5:8d:1b:cb:88:19:6c:5e:fe:7a:67:90:65:0a:0a:e1:b1:c1:
         bd:45:7c:e2:ff:30:d7:0b:7d:ce:61:cf:21:75:c4:6f:ec:5e:
         85:0b:c6:62
-----BEGIN CERTIFICATE-----
MIIE0zCCA7ugAwIBAgIBZDANBgkqhkiG9w0BAQsFADCBoTELMAkGA1UEBhMCVVMx
EzARBgNVBAgMCldhc2hpbmd0b24xEDAOBgNVBAcMB1NlYXR0bGUxFTATBgNVBAoM
DHdvbGZTU0wgSW5jLjEUMBIGA1UECwwLRW5naW5lZXJpbmcxHTAbBgNVBAMMFGNo
YWluSC1JQ0EyLXBhdGhsZW4yMR8wHQYJKoZIhvcNAQkBFhBpbmZvQHdvbGZzc2wu
Y29tMB4XDTIwMDYxOTEzMjM0MloXDTIzMDMxNjEzMjM0MlowgaExCzAJBgNVBAYT
AlVTMRMwEQYDVQQIDApXYXNoaW5ndG9uMRAwDgYDVQQHDAdTZWF0dGxlMRUwEwYD
VQQKDAx3b2xmU1NMIEluYy4xFDASBgNVBAsMC0VuZ2luZWVyaW5nMR0wGwYDVQQD
DBRjaGFpbkgtSUNBMS1wYXRobGVuMDEfMB0GCSqGSIb3DQEJARYQaW5mb0B3b2xm
c3NsLmNvbTCCASIwDQYJKoZIhvcNAQEBBQADggEPADCCAQoCggEBAMf0pn7yy09u
BBjTU9XPv36X0XSU/tutYT8SIGfzEIN7UUOjDCC3NWPxCu5ZdIJy+9HUEnHsDo9p
yfuvpy/EOyxmNKusgMJtSg5U/vY+OgAlhKfLQtXoRwSU5GjD9TKtIYnYXvmI7n3O
kaMW/Id2Hy8dTLEvPU30CmwE/UnPUYhJxANlYx7I8TQdRDRYr/XskCqMqTh73Ppf
7QDtCFNN9zYQ7XFBquO/6F3uTjY5V370/cP3ilIP8TdyK66QdwDWfOzs7o34S/s5
CkVJgTFBP6m7exyKzzEJx5SncErUu+phPZqhjhuLAjsfH8SF6X9jDOrlkYOoWyU0
fKho65dvdJkCAwEAAaOCARIwggEOMB0GA1UdDgQWBBRIgIco7+YoDwOb3zNIEKDl
ILNpUDCBzgYDVR0jBIHGMIHDgBSASWGMHRMIVrVCaNWy6okstIsFh6GBp6SBpDCB
oTELMAkGA1UEBhMCVVMxEzARBgNVBAgMCldhc2hpbmd0b24xEDAOBgNVBAcMB1Nl
YXR0bGUxFTATBgNVBAoMDHdvbGZTU0wgSW5jLjEUMBIGA1UECwwLRW5naW5lZXJp
bmcxHTAbBgNVBAMMFGNoYWluSC1JQ0EzLXBhdGhsZW4yMR8wHQYJKoZIhvcNAQkB
FhBpbmZvQHdvbGZzc2wuY29tggFkMA8GA1UdEwQIMAYBAf8CAQAwCwYDVR0PBAQD
AgEGMA0GCSqGSIb3DQEBCwUAA4IBAQCp+0Qaae8pXO+FvsK9Qy6SVS186ilUb44G
3TGbgpWfIdJeaY1CzNKQZxnin+xg0p52eeqbUXqZ8SdZ0VmNh9FGjUSZCdo55OQW
oyWwAki9bvk7CtovLibWqp5AUc2in4lvYT0buF3dx+mRksvY9B/IOIyGiWJFgPj+
1zrCyfPjPY1GaYFa89gpMEZ2p6oBuCi9C2NpEu9sIie5uelCT+fSE1XEIADGW1MG
o82v3sZLQW/2hBDr1uwASCAeKhiD7zPxxz6vo3P54/gA9gNoi5oSLFFaGwKtACa1
jRvLiBlsXv56Z5BlCgrhscG9RXzi/zDXC33OYc8hdcRv7F6FC8Zi
-----END CERTIFICATE-----
