Certificate:
    Data:
        Version: 3 (0x2)
        Serial Number: 100 (0x64)
        Signature Algorithm: sha256WithRSAEncryption
        Issuer: C = US, ST = Montana, L = Bozeman, O = Sawtooth, OU = Consulting, CN = www.wolfssl.com, emailAddress = info@wolfssl.com
        Validity
            Not Before: May  7 07:39:05 2020 GMT
            Not After : Feb  1 07:39:05 2023 GMT
        Subject: C = US, ST = Washington, L = Seattle, O = wolfSSL Inc., OU = Engineering, CN = chainI-ICA3-pathlen2, emailAddress = info@wolfssl.com
        Subject Public Key Info:
            Public Key Algorithm: rsaEncryption
                RSA Public-Key: (2048 bit)
                Modulus:
                    00:b8:36:0c:66:a9:06:ce:ac:e0:7c:86:a1:69:9d:
                    be:28:cf:a3:81:f3:b4:dc:5f:c8:92:9d:f2:07:c0:
                    5e:04:d3:e5:74:19:fc:cf:85:7f:f7:91:8c:d5:58:
                    7c:02:4c:88:f1:4d:43:e3:07:bd:2a:4e:df:51:87:
                    29:74:c5:24:67:1d:f1:6f:8b:07:75:39:89:70:2a:
                    9c:00:e0:2e:6c:7c:74:27:18:34:fd:29:98:43:83:
                    d6:e1:51:b3:13:41:1c:bc:29:dc:8b:2f:93:08:95:
                    8b:90:22:4b:e4:98:f5:d6:70:2a:9b:8b:64:e6:49:
                    06:62:a4:23:08:60:68:97:89:a9:b2:c0:94:8e:4f:
                    39:1c:25:3b:0f:e4:c5:1d:7d:89:89:5e:c6:02:69:
                    68:fc:13:55:b5:80:6b:77:f7:59:57:0b:1c:7e:c6:
                    ed:46:c6:70:fb:34:a1:28:1c:82:b1:c2:ab:a6:c1:
                    f0:13:1b:7d:0b:bc:1a:39:23:3c:e7:1d:ee:c8:ee:
                    2f:69:5f:a1:31:3f:1a:2f:98:5d:53:d7:42:93:db:
                    49:ac:d6:7a:12:2e:9d:0d:c9:b0:ef:40:d1:a4:02:
                    5e:52:e8:fb:d4:92:07:98:b1:76:d9:16:0f:e4:8b:
                    de:dc:88:65:e0:fd:52:1d:8b:e2:e3:ed:08:37:d0:
                    11:f7
                Exponent: 65537 (0x10001)
        X509v3 extensions:
            X509v3 Subject Key Identifier: 
                EE:37:A6:F2:40:D0:EF:FD:22:C7:A3:B4:6C:57:47:40:B9:99:F9:8D
            X509v3 Authority Key Identifier: 
                keyid:27:8E:67:11:74:C3:26:1D:3F:ED:33:63:B3:A4:D8:1D:30:E5:E8:D5
                DirName:/C=US/ST=Montana/L=Bozeman/O=Sawtooth/OU=Consulting/CN=www.wolfssl.com/emailAddress=info@wolfssl.com
                serial:3F:32:13:52:92:C6:DF:4A:D5:42:05:6C:B0:B2:2E:46:C2:F8:B8:67

            X509v3 Basic Constraints: 
                CA:TRUE, pathlen:2
            X509v3 Key Usage: 
                Certificate Sign, CRL Sign
    Signature Algorithm: sha256WithRSAEncryption
         46:4a:3b:ae:67:9d:d9:e6:c1:8c:0c:01:78:e7:19:91:19:8f:
         01:46:b1:2c:a4:6d:2c:17:9f:6e:ef:c2:1a:dc:fd:de:d7:8d:
         23:10:57:7b:69:03:fe:5a:48:44:80:81:13:a1:79:3e:28:ff:
         9b:f1:3a:c4:87:83:b1:cb:8e:52:b5:50:61:98:74:11:3a:39:
         73:20:a4:3e:c0:51:94:0a:a7:f5:c8:e2:60:59:5c:13:ed:fb:
         0c:3e:5e:f2:bc:72:5f:10:4a:b5:6b:02:7c:45:5c:1c:5d:58:
         a0:5a:30:5a:f2:1f:4a:07:6a:f9:42:83:7b:72:c5:a1:84:ff:
         8a:32:11:bf:fd:8a:36:bc:39:ba:c2:f3:d1:cf:50:d1:5a:21:
         94:55:10:15:0d:09:fd:51:1b:04:e9:f6:58:54:6b:e8:7f:37:
         4f:56:10:36:35:e8:af:5f:04:e2:a7:f1:7f:67:a9:a0:91:e4:
         a3:e8:9f:5e:91:03:8b:79:b1:0c:aa:7b:04:19:6d:11:7d:ab:
         1e:27:41:f0:7b:13:43:29:a0:58:d6:72:68:d8:96:72:08:ab:
         e6:91:99:e5:a5:f7:41:ef:c1:5d:a5:44:7e:a4:12:92:67:3d:
         5f:f3:a8:18:ef:fa:ec:23:d6:ac:7f:6c:c0:20:ca:33:71:c8:
         4e:c1:2b:2e
-----BEGIN CERTIFICATE-----
MIIEzDCCA7SgAwIBAgIBZDANBgkqhkiG9w0BAQsFADCBlDELMAkGA1UEBhMCVVMx
EDAOBgNVBAgMB01vbnRhbmExEDAOBgNVBAcMB0JvemVtYW4xETAPBgNVBAoMCFNh
d3Rvb3RoMRMwEQYDVQQLDApDb25zdWx0aW5nMRgwFgYDVQQDDA93d3cud29sZnNz
bC5jb20xHzAdBgkqhkiG9w0BCQEWEGluZm9Ad29sZnNzbC5jb20wHhcNMjAwNTA3
MDczOTA1WhcNMjMwMjAxMDczOTA1WjCBoTELMAkGA1UEBhMCVVMxEzARBgNVBAgM
Cldhc2hpbmd0b24xEDAOBgNVBAcMB1NlYXR0bGUxFTATBgNVBAoMDHdvbGZTU0wg
SW5jLjEUMBIGA1UECwwLRW5naW5lZXJpbmcxHTAbBgNVBAMMFGNoYWluSS1JQ0Ez
LXBhdGhsZW4yMR8wHQYJKoZIhvcNAQkBFhBpbmZvQHdvbGZzc2wuY29tMIIBIjAN
BgkqhkiG9w0BAQEFAAOCAQ8AMIIBCgKCAQEAuDYMZqkGzqzgfIahaZ2+KM+jgfO0
3F/Ikp3yB8BeBNPldBn8z4V/95GM1Vh8AkyI8U1D4we9Kk7fUYcpdMUkZx3xb4sH
dTmJcCqcAOAubHx0Jxg0/SmYQ4PW4VGzE0EcvCnciy+TCJWLkCJL5Jj11nAqm4tk
5kkGYqQjCGBol4mpssCUjk85HCU7D+TFHX2JiV7GAmlo/BNVtYBrd/dZVwscfsbt
RsZw+zShKByCscKrpsHwExt9C7waOSM85x3uyO4vaV+hMT8aL5hdU9dCk9tJrNZ6
Ei6dDcmw70DRpAJeUuj71JIHmLF22RYP5Ive3Ihl4P1SHYvi4+0IN9AR9wIDAQAB
o4IBGDCCARQwHQYDVR0OBBYEFO43pvJA0O/9IsejtGxXR0C5mfmNMIHUBgNVHSME
gcwwgcmAFCeOZxF0wyYdP+0zY7Ok2B0w5ejVoYGapIGXMIGUMQswCQYDVQQGEwJV
UzEQMA4GA1UECAwHTW9udGFuYTEQMA4GA1UEBwwHQm96ZW1hbjERMA8GA1UECgwI
U2F3dG9vdGgxEzARBgNVBAsMCkNvbnN1bHRpbmcxGDAWBgNVBAMMD3d3dy53b2xm
c3NsLmNvbTEfMB0GCSqGSIb3DQEJARYQaW5mb0B3b2xmc3NsLmNvbYIUPzITUpLG
30rVQgVssLIuRsL4uGcwDwYDVR0TBAgwBgEB/wIBAjALBgNVHQ8EBAMCAQYwDQYJ
KoZIhvcNAQELBQADggEBAEZKO65nndnmwYwMAXjnGZEZjwFGsSykbSwXn27vwhrc
/d7XjSMQV3tpA/5aSESAgROheT4o/5vxOsSHg7HLjlK1UGGYdBE6OXMgpD7AUZQK
p/XI4mBZXBPt+ww+XvK8cl8QSrVrAnxFXBxdWKBaMFryH0oHavlCg3tyxaGE/4oy
Eb/9ija8ObrC89HPUNFaIZRVEBUNCf1RGwTp9lhUa+h/N09WEDY16K9fBOKn8X9n
qaCR5KPon16RA4t5sQyqewQZbRF9qx4nQfB7E0MpoFjWcmjYlnIIq+aRmeWl90Hv
wV2lRH6kEpJnPV/zqBjv+uwj1qx/bMAgyjNxyE7BKy4=
-----END CERTIFICATE-----
