Certificate:
    Data:
        Version: 3 (0x2)
        Serial Number: 101 (0x65)
        Signature Algorithm: sha256WithRSAEncryption
        Issuer: C = US, ST = Washington, L = Seattle, O = wolfSSL Inc., OU = Engineering, CN = chainC-ICA1-pathlen1, emailAddress = info@wolfssl.com
        Validity
            Not Before: Sep 26 17:22:46 2023 GMT
            Not After : Jun 22 17:22:46 2026 GMT
        Subject: C = US, ST = Washington, L = Seattle, O = wolfSSL Inc., OU = Engineering, CN = chainC-entity, emailAddress = info@wolfssl.com
        Subject Public Key Info:
            Public Key Algorithm: rsaEncryption
                Public-Key: (2048 bit)
                Modulus:
                    00:bf:34:e1:1c:2c:2d:a4:93:b5:c4:fc:65:40:fa:
                    94:68:74:24:ff:52:a4:df:3e:f1:7c:92:14:f0:f0:
                    91:ed:9c:7e:a0:7e:b1:07:20:38:b2:c4:a2:b8:09:
                    d1:06:ee:fa:c6:7e:4d:79:be:dd:83:18:cf:e8:a7:
                    78:88:cd:44:ce:3a:40:05:7a:6e:c5:c9:e4:84:64:
                    e0:01:7d:4f:f9:87:d2:94:91:e9:c8:21:bc:71:2e:
                    ef:f6:61:23:46:6b:da:5f:32:23:a1:86:9c:c6:9a:
                    b4:98:35:6d:36:b8:34:14:fd:9d:63:2f:75:7e:58:
                    f2:08:f9:e3:32:2a:a6:d2:b1:49:05:d3:8c:d4:48:
                    5c:c2:57:07:62:4e:7a:05:23:c2:4f:ca:d5:a8:38:
                    32:92:c2:21:3b:74:3e:2d:b1:6b:57:96:81:a3:2d:
                    ce:6e:9c:d9:ce:1f:e9:42:f8:2c:bb:fe:07:57:c6:
                    c8:93:6e:89:d3:fc:d2:83:4b:c1:2c:ea:5e:41:c9:
                    7c:be:6c:23:01:89:75:1b:1f:57:ac:83:dc:da:e1:
                    63:55:d8:94:fc:2d:a6:99:15:d1:71:88:a5:1b:f5:
                    6f:39:0a:bd:ec:09:02:09:77:a7:5d:da:78:f8:8f:
                    b1:5d:a7:83:12:10:5f:89:ae:72:c2:88:bf:3e:80:
                    98:c3
                Exponent: 65537 (0x10001)
        X509v3 extensions:
            X509v3 Subject Key Identifier: 
                91:79:7C:91:A7:A0:BC:E1:7B:77:9E:51:6E:5C:A7:7A:D9:3F:18:A0
            X509v3 Authority Key Identifier: 
                keyid:94:1D:2E:07:37:C6:2F:52:C1:EC:79:6B:13:CE:09:90:5F:F4:C4:51
                DirName:/C=US/ST=Montana/L=Bozeman/O=Sawtooth/OU=Consulting/CN=www.wolfssl.com/emailAddress=info@wolfssl.com
                serial:64
            X509v3 Basic Constraints: 
                CA:FALSE
    Signature Algorithm: sha256WithRSAEncryption
    Signature Value:
        1a:87:c8:85:06:26:58:6e:0f:3d:6c:61:01:ab:9d:fb:a1:b2:
        d3:ff:94:a4:5e:68:5a:fc:64:78:33:f0:33:6a:ab:2c:ca:ea:
        e6:66:67:a2:5a:71:ac:44:3d:b8:96:be:29:bc:39:7e:73:04:
        e7:ae:b2:57:6e:1d:e1:38:23:a2:da:db:7c:a7:a6:14:32:8c:
        71:da:7e:81:df:1f:7b:28:7a:6f:c1:46:1d:8d:52:79:f7:88:
        65:d8:8b:3b:95:81:12:73:67:f9:76:5a:2f:01:b3:fc:fe:13:
        e4:77:cb:7a:f8:30:bb:5b:36:a0:5c:99:42:51:02:d9:eb:8d:
        ee:2e:33:2d:37:f9:dd:81:22:4e:b5:f4:ed:c8:68:9c:49:f0:
        84:4f:21:9e:24:81:78:d1:e9:4f:6c:d4:e2:21:ba:cf:19:8e:
        98:b8:30:86:4f:ea:49:41:81:aa:95:b3:f9:f9:a8:86:59:21:
        31:e9:cb:37:a0:cf:a0:7f:06:e7:77:81:9b:c9:82:da:9e:26:
        92:f4:7d:40:14:06:98:52:8e:70:84:31:ee:a1:94:29:5f:84:
        40:64:dc:45:ef:14:0f:83:97:55:d4:fc:0f:b5:5c:b8:02:5b:
        68:7b:ab:3e:49:49:fe:e6:f6:8c:4d:0e:93:b6:80:11:72:09:
        73:04:ba:a2
-----BEGIN CERTIFICATE-----
MIIEqjCCA5KgAwIBAgIBZTANBgkqhkiG9w0BAQsFADCBoTELMAkGA1UEBhMCVVMx
EzARBgNVBAgMCldhc2hpbmd0b24xEDAOBgNVBAcMB1NlYXR0bGUxFTATBgNVBAoM
DHdvbGZTU0wgSW5jLjEUMBIGA1UECwwLRW5naW5lZXJpbmcxHTAbBgNVBAMMFGNo
YWluQy1JQ0ExLXBhdGhsZW4xMR8wHQYJKoZIhvcNAQkBFhBpbmZvQHdvbGZzc2wu
Y29tMB4XDTIzMDkyNjE3MjI0NloXDTI2MDYyMjE3MjI0NlowgZoxCzAJBgNVBAYT
AlVTMRMwEQYDVQQIDApXYXNoaW5ndG9uMRAwDgYDVQQHDAdTZWF0dGxlMRUwEwYD
VQQKDAx3b2xmU1NMIEluYy4xFDASBgNVBAsMC0VuZ2luZWVyaW5nMRYwFAYDVQQD
DA1jaGFpbkMtZW50aXR5MR8wHQYJKoZIhvcNAQkBFhBpbmZvQHdvbGZzc2wuY29t
MIIBIjANBgkqhkiG9w0BAQEFAAOCAQ8AMIIBCgKCAQEAvzThHCwtpJO1xPxlQPqU
aHQk/1Kk3z7xfJIU8PCR7Zx+oH6xByA4ssSiuAnRBu76xn5Neb7dgxjP6Kd4iM1E
zjpABXpuxcnkhGTgAX1P+YfSlJHpyCG8cS7v9mEjRmvaXzIjoYacxpq0mDVtNrg0
FP2dYy91fljyCPnjMiqm0rFJBdOM1EhcwlcHYk56BSPCT8rVqDgyksIhO3Q+LbFr
V5aBoy3ObpzZzh/pQvgsu/4HV8bIk26J0/zSg0vBLOpeQcl8vmwjAYl1Gx9XrIPc
2uFjVdiU/C2mmRXRcYilG/VvOQq97AkCCXenXdp4+I+xXaeDEhBfia5ywoi/PoCY
wwIDAQABo4HxMIHuMB0GA1UdDgQWBBSReXyRp6C84Xt3nlFuXKd62T8YoDCBwQYD
VR0jBIG5MIG2gBSUHS4HN8YvUsHseWsTzgmQX/TEUaGBmqSBlzCBlDELMAkGA1UE
BhMCVVMxEDAOBgNVBAgMB01vbnRhbmExEDAOBgNVBAcMB0JvemVtYW4xETAPBgNV
BAoMCFNhd3Rvb3RoMRMwEQYDVQQLDApDb25zdWx0aW5nMRgwFgYDVQQDDA93d3cu
d29sZnNzbC5jb20xHzAdBgkqhkiG9w0BCQEWEGluZm9Ad29sZnNzbC5jb22CAWQw
CQYDVR0TBAIwADANBgkqhkiG9w0BAQsFAAOCAQEAGofIhQYmWG4PPWxhAaud+6Gy
0/+UpF5oWvxkeDPwM2qrLMrq5mZnolpxrEQ9uJa+Kbw5fnME566yV24d4Tgjotrb
fKemFDKMcdp+gd8feyh6b8FGHY1SefeIZdiLO5WBEnNn+XZaLwGz/P4T5HfLevgw
u1s2oFyZQlEC2euN7i4zLTf53YEiTrX07chonEnwhE8hniSBeNHpT2zU4iG6zxmO
mLgwhk/qSUGBqpWz+fmohlkhMenLN6DPoH8G53eBm8mC2p4mkvR9QBQGmFKOcIQx
7qGUKV+EQGTcRe8UD4OXVdT8D7VcuAJbaHurPklJ/ub2jE0Ok7aAEXIJcwS6og==
-----END CERTIFICATE-----
Certificate:
    Data:
        Version: 3 (0x2)
        Serial Number: 100 (0x64)
        Signature Algorithm: sha256WithRSAEncryption
        Issuer: C = US, ST = Montana, L = Bozeman, O = Sawtooth, OU = Consulting, CN = www.wolfssl.com, emailAddress = info@wolfssl.com
        Validity
            Not Before: Sep 26 17:22:46 2023 GMT
            Not After : Jun 22 17:22:46 2026 GMT
        Subject: C = US, ST = Washington, L = Seattle, O = wolfSSL Inc., OU = Engineering, CN = chainC-ICA1-pathlen1, emailAddress = info@wolfssl.com
        Subject Public Key Info:
            Public Key Algorithm: rsaEncryption
                Public-Key: (2048 bit)
                Modulus:
                    00:bb:1a:6c:c1:bd:bb:9b:29:ca:35:3d:63:a3:29:
                    cd:a6:65:c4:9e:a3:c5:50:99:ad:51:90:0a:9a:9b:
                    83:ce:be:06:bb:66:4f:ef:1e:31:25:34:6f:5f:98:
                    ae:01:49:c3:63:17:84:b9:7a:6d:c0:d8:fd:0c:ff:
                    9a:02:4c:41:37:49:f0:18:63:1b:4f:fc:37:26:4e:
                    54:79:d7:17:39:50:79:6e:a3:29:99:07:ad:9d:5c:
                    d8:e1:02:e7:33:7e:e4:da:a4:05:bc:62:03:d3:9f:
                    6a:91:92:66:dd:29:d0:95:fb:2f:3f:f0:59:b8:70:
                    5b:25:54:7b:a0:0a:9f:33:09:64:ed:fb:d4:1c:2d:
                    96:54:45:e3:50:98:ff:b1:7f:9a:c6:cf:09:a3:da:
                    e9:57:ad:1d:05:8f:1e:75:75:e7:d2:07:33:de:da:
                    7d:42:d8:0e:94:fe:ae:c7:9b:c3:b5:9e:f3:6b:21:
                    9f:74:c4:b3:32:7c:28:4e:0f:bc:15:33:ba:9c:09:
                    3c:c1:40:06:78:bb:b1:20:3f:61:15:f6:1e:49:73:
                    51:89:95:2d:95:bf:34:d6:c2:a9:d1:34:1d:8d:21:
                    6d:4f:a3:6e:ef:fc:23:a2:76:fc:d0:25:53:0e:43:
                    76:3b:ed:82:ec:d8:23:cb:33:ef:3c:9d:a1:de:e6:
                    7a:ad
                Exponent: 65537 (0x10001)
        X509v3 extensions:
            X509v3 Subject Key Identifier: 
                94:1D:2E:07:37:C6:2F:52:C1:EC:79:6B:13:CE:09:90:5F:F4:C4:51
            X509v3 Authority Key Identifier: 
                keyid:27:8E:67:11:74:C3:26:1D:3F:ED:33:63:B3:A4:D8:1D:30:E5:E8:D5
                DirName:/C=US/ST=Montana/L=Bozeman/O=Sawtooth/OU=Consulting/CN=www.wolfssl.com/emailAddress=info@wolfssl.com
                serial:4F:1D:F3:64:BA:21:A8:E6:CB:74:3A:4E:44:A5:E6:79:19:E8:5B:81
            X509v3 Basic Constraints: 
                CA:TRUE, pathlen:1
            X509v3 Key Usage: 
                Certificate Sign, CRL Sign
    Signature Algorithm: sha256WithRSAEncryption
    Signature Value:
        41:95:97:6b:3f:6f:42:17:6d:22:b1:c4:d9:41:70:cd:47:5a:
        6a:1e:03:5b:7d:3d:bc:1d:d2:42:68:74:66:dc:7e:09:18:c1:
        f9:84:7c:d9:96:9d:a1:5e:e5:17:06:63:b6:41:89:a1:4d:39:
        e4:2d:17:92:e7:87:ff:e7:29:17:af:32:db:f2:55:0c:fd:cb:
        29:17:f0:fe:b6:7b:b9:98:81:f6:e8:ec:21:04:27:7c:92:74:
        91:c7:6a:8e:e8:28:b7:30:4b:0d:27:4a:1d:b0:93:94:56:b7:
        86:c2:e5:99:51:e6:f5:ea:31:a6:7a:d1:9a:ae:00:1d:76:2e:
        d0:88:00:0f:ab:36:5e:67:40:87:4a:a0:4f:68:7d:c3:49:3c:
        23:54:cb:f1:cf:fa:9b:7d:ac:86:f8:27:bc:51:a8:17:bc:b1:
        94:40:9a:b8:3c:fb:49:8c:a6:35:06:4e:55:2a:33:4f:09:67:
        ed:8d:f6:f5:c9:ef:6a:e3:97:81:c7:38:95:24:12:60:b9:cc:
        43:cb:bf:42:36:7e:49:0c:2e:27:4e:39:45:a2:8a:9c:fc:62:
        d4:ff:1e:cc:09:51:c1:0c:af:45:93:dd:0a:8a:01:8b:5b:ee:
        e8:42:53:5d:a5:2d:35:9d:83:12:4b:69:6d:3b:a2:28:ac:4d:
        37:ec:ac:46
-----BEGIN CERTIFICATE-----
MIIEzDCCA7SgAwIBAgIBZDANBgkqhkiG9w0BAQsFADCBlDELMAkGA1UEBhMCVVMx
EDAOBgNVBAgMB01vbnRhbmExEDAOBgNVBAcMB0JvemVtYW4xETAPBgNVBAoMCFNh
d3Rvb3RoMRMwEQYDVQQLDApDb25zdWx0aW5nMRgwFgYDVQQDDA93d3cud29sZnNz
bC5jb20xHzAdBgkqhkiG9w0BCQEWEGluZm9Ad29sZnNzbC5jb20wHhcNMjMwOTI2
MTcyMjQ2WhcNMjYwNjIyMTcyMjQ2WjCBoTELMAkGA1UEBhMCVVMxEzARBgNVBAgM
Cldhc2hpbmd0b24xEDAOBgNVBAcMB1NlYXR0bGUxFTATBgNVBAoMDHdvbGZTU0wg
SW5jLjEUMBIGA1UECwwLRW5naW5lZXJpbmcxHTAbBgNVBAMMFGNoYWluQy1JQ0Ex
LXBhdGhsZW4xMR8wHQYJKoZIhvcNAQkBFhBpbmZvQHdvbGZzc2wuY29tMIIBIjAN
BgkqhkiG9w0BAQEFAAOCAQ8AMIIBCgKCAQEAuxpswb27mynKNT1joynNpmXEnqPF
UJmtUZAKmpuDzr4Gu2ZP7x4xJTRvX5iuAUnDYxeEuXptwNj9DP+aAkxBN0nwGGMb
T/w3Jk5UedcXOVB5bqMpmQetnVzY4QLnM37k2qQFvGID059qkZJm3SnQlfsvP/BZ
uHBbJVR7oAqfMwlk7fvUHC2WVEXjUJj/sX+axs8Jo9rpV60dBY8edXXn0gcz3tp9
QtgOlP6ux5vDtZ7zayGfdMSzMnwoTg+8FTO6nAk8wUAGeLuxID9hFfYeSXNRiZUt
lb801sKp0TQdjSFtT6Nu7/wjonb80CVTDkN2O+2C7NgjyzPvPJ2h3uZ6rQIDAQAB
o4IBGDCCARQwHQYDVR0OBBYEFJQdLgc3xi9Swex5axPOCZBf9MRRMIHUBgNVHSME
gcwwgcmAFCeOZxF0wyYdP+0zY7Ok2B0w5ejVoYGapIGXMIGUMQswCQYDVQQGEwJV
UzEQMA4GA1UECAwHTW9udGFuYTEQMA4GA1UEBwwHQm96ZW1hbjERMA8GA1UECgwI
U2F3dG9vdGgxEzARBgNVBAsMCkNvbnN1bHRpbmcxGDAWBgNVBAMMD3d3dy53b2xm
c3NsLmNvbTEfMB0GCSqGSIb3DQEJARYQaW5mb0B3b2xmc3NsLmNvbYIUTx3zZLoh
qObLdDpORKXmeRnoW4EwDwYDVR0TBAgwBgEB/wIBATALBgNVHQ8EBAMCAQYwDQYJ
KoZIhvcNAQELBQADggEBAEGVl2s/b0IXbSKxxNlBcM1HWmoeA1t9Pbwd0kJodGbc
fgkYwfmEfNmWnaFe5RcGY7ZBiaFNOeQtF5Lnh//nKRevMtvyVQz9yykX8P62e7mY
gfbo7CEEJ3ySdJHHao7oKLcwSw0nSh2wk5RWt4bC5ZlR5vXqMaZ60ZquAB12LtCI
AA+rNl5nQIdKoE9ofcNJPCNUy/HP+pt9rIb4J7xRqBe8sZRAmrg8+0mMpjUGTlUq
M08JZ+2N9vXJ72rjl4HHOJUkEmC5zEPLv0I2fkkMLidOOUWiipz8YtT/HswJUcEM
r0WT3QqKAYtb7uhCU12lLTWdgxJLaW07oiisTTfsrEY=
-----END CERTIFICATE-----
