Certificate:
    Data:
        Version: 3 (0x2)
        Serial Number: 100 (0x64)
    Signature Algorithm: sha256WithRSAEncryption
        Issuer: C=US, ST=Montana, L=Bozeman, O=Sawtooth, OU=Consulting, CN=www.wolfssl.com/emailAddress=info@wolfssl.com
        Validity
            Not Before: Feb 10 19:49:55 2021 GMT
            Not After : Nov  7 19:49:55 2023 GMT
        Subject: C=US, ST=Washington, L=Seattle, O=wolfSSL Inc., OU=Engineering, CN=chainH-ICA4-pathlen2/emailAddress=info@wolfssl.com
        Subject Public Key Info:
            Public Key Algorithm: rsaEncryption
                Public-Key: (2048 bit)
                Modulus:
                    00:bb:f3:2f:8a:cd:9e:87:f1:01:f3:a4:c0:2d:66:
                    36:d7:11:2e:64:08:e8:f1:99:fa:a6:9c:f4:bd:3b:
                    47:72:d2:0e:58:9d:3e:52:e7:da:a3:43:78:c3:c3:
                    93:e6:04:d3:ab:51:8a:1a:24:0e:7a:62:59:aa:c6:
                    42:9e:66:c1:61:5e:31:b1:4d:dc:37:a9:18:76:8d:
                    fe:cb:09:54:3f:4f:bb:5f:ab:ba:70:e9:b4:a1:5e:
                    a0:69:7e:45:3f:c0:cc:78:e9:f2:74:64:79:c2:6a:
                    16:d0:98:30:82:44:4a:b3:99:2c:66:30:ac:99:82:
                    04:2a:bf:0f:60:89:04:36:fa:29:d3:08:56:61:6a:
                    a8:33:40:9a:53:7d:20:a8:51:6f:9b:a0:d9:3e:dc:
                    9a:8b:1d:37:9e:ad:c9:fd:53:a7:04:dc:1f:36:3e:
                    d3:65:52:84:24:61:d0:4e:e2:41:60:bf:fb:fd:b2:
                    04:b3:3f:eb:14:99:5e:bc:e8:7d:e9:65:d1:3f:fe:
                    04:49:e5:bb:a3:2d:e3:db:96:df:d9:81:a0:32:d7:
                    01:b9:b8:02:8e:b9:a2:1f:0a:d4:24:17:3a:19:0f:
                    6d:3a:10:5f:5c:7d:b8:56:82:c7:7f:40:f0:2d:87:
                    63:c1:b1:d8:64:c7:3c:27:13:4a:63:82:21:b1:f2:
                    39:e9
                Exponent: 65537 (0x10001)
        X509v3 extensions:
            X509v3 Subject Key Identifier: 
                18:6D:44:83:EE:1F:EC:B4:22:F0:9C:EB:54:1E:4A:15:58:01:AA:13
            X509v3 Authority Key Identifier: 
                keyid:27:8E:67:11:74:C3:26:1D:3F:ED:33:63:B3:A4:D8:1D:30:E5:E8:D5
                DirName:/C=US/ST=Montana/L=Bozeman/O=Sawtooth/OU=Consulting/CN=www.wolfssl.com/emailAddress=info@wolfssl.com
                serial:AA:D3:3F:AC:18:0A:37:4D

            X509v3 Basic Constraints: 
                CA:TRUE, pathlen:2
            X509v3 Key Usage: 
                Certificate Sign, CRL Sign
    Signature Algorithm: sha256WithRSAEncryption
         49:c6:df:ce:fc:71:3e:a5:1b:27:1c:e4:9e:bb:04:fa:93:17:
         6d:79:c8:8f:ee:08:6e:59:57:b6:f9:5a:a2:21:1a:3e:a7:a1:
         0c:0d:3f:30:70:57:15:55:4c:95:e4:e1:3e:99:ce:9e:4a:a6:
         c3:56:22:1d:a1:23:bc:fc:25:c8:5a:84:74:a1:0e:dd:70:59:
         a8:36:29:14:bf:ff:ce:c5:6e:12:c4:2d:fb:13:63:66:29:63:
         63:83:f3:ab:a0:7f:12:aa:5c:58:70:3a:9d:ae:26:ec:ec:d3:
         31:07:41:17:cc:14:15:8e:d5:45:49:d8:f2:ec:4d:46:db:2b:
         69:15:c5:99:23:6b:dc:31:c7:d6:53:b3:d2:65:fc:17:f5:19:
         ae:d9:95:aa:1e:9b:1b:cf:18:61:c9:e1:17:d4:fa:d7:e1:a3:
         cf:b5:09:ce:ed:9b:3c:41:c8:88:99:a2:ab:f0:55:86:78:8d:
         07:44:25:c5:23:11:6e:fe:db:92:6f:35:96:ba:a1:01:f9:ab:
         da:d2:29:c8:70:d0:b9:fe:c1:8d:72:67:ec:0a:d0:75:e5:01:
         9d:d3:f9:01:ea:06:27:6f:21:99:e5:46:d8:fc:65:0d:9c:72:
         25:82:1e:f6:43:d6:e8:08:b1:8f:d2:a9:c8:bf:05:ab:5c:80:
         72:6c:ac:a4
-----BEGIN CERTIFICATE-----
MIIEwTCCA6mgAwIBAgIBZDANBgkqhkiG9w0BAQsFADCBlDELMAkGA1UEBhMCVVMx
EDAOBgNVBAgMB01vbnRhbmExEDAOBgNVBAcMB0JvemVtYW4xETAPBgNVBAoMCFNh
d3Rvb3RoMRMwEQYDVQQLDApDb25zdWx0aW5nMRgwFgYDVQQDDA93d3cud29sZnNz
bC5jb20xHzAdBgkqhkiG9w0BCQEWEGluZm9Ad29sZnNzbC5jb20wHhcNMjEwMjEw
MTk0OTU1WhcNMjMxMTA3MTk0OTU1WjCBoTELMAkGA1UEBhMCVVMxEzARBgNVBAgM
Cldhc2hpbmd0b24xEDAOBgNVBAcMB1NlYXR0bGUxFTATBgNVBAoMDHdvbGZTU0wg
SW5jLjEUMBIGA1UECwwLRW5naW5lZXJpbmcxHTAbBgNVBAMMFGNoYWluSC1JQ0E0
LXBhdGhsZW4yMR8wHQYJKoZIhvcNAQkBFhBpbmZvQHdvbGZzc2wuY29tMIIBIjAN
BgkqhkiG9w0BAQEFAAOCAQ8AMIIBCgKCAQEAu/Mvis2eh/EB86TALWY21xEuZAjo
8Zn6ppz0vTtHctIOWJ0+Uufao0N4w8OT5gTTq1GKGiQOemJZqsZCnmbBYV4xsU3c
N6kYdo3+ywlUP0+7X6u6cOm0oV6gaX5FP8DMeOnydGR5wmoW0JgwgkRKs5ksZjCs
mYIEKr8PYIkENvop0whWYWqoM0CaU30gqFFvm6DZPtyaix03nq3J/VOnBNwfNj7T
ZVKEJGHQTuJBYL/7/bIEsz/rFJlevOh96WXRP/4ESeW7oy3j25bf2YGgMtcBubgC
jrmiHwrUJBc6GQ9tOhBfXH24VoLHf0DwLYdjwbHYZMc8JxNKY4IhsfI56QIDAQAB
o4IBDTCCAQkwHQYDVR0OBBYEFBhtRIPuH+y0IvCc61QeShVYAaoTMIHJBgNVHSME
gcEwgb6AFCeOZxF0wyYdP+0zY7Ok2B0w5ejVoYGapIGXMIGUMQswCQYDVQQGEwJV
UzEQMA4GA1UECAwHTW9udGFuYTEQMA4GA1UEBwwHQm96ZW1hbjERMA8GA1UECgwI
U2F3dG9vdGgxEzARBgNVBAsMCkNvbnN1bHRpbmcxGDAWBgNVBAMMD3d3dy53b2xm
c3NsLmNvbTEfMB0GCSqGSIb3DQEJARYQaW5mb0B3b2xmc3NsLmNvbYIJAKrTP6wY
CjdNMA8GA1UdEwQIMAYBAf8CAQIwCwYDVR0PBAQDAgEGMA0GCSqGSIb3DQEBCwUA
A4IBAQBJxt/O/HE+pRsnHOSeuwT6kxdteciP7ghuWVe2+VqiIRo+p6EMDT8wcFcV
VUyV5OE+mc6eSqbDViIdoSO8/CXIWoR0oQ7dcFmoNikUv//OxW4SxC37E2NmKWNj
g/OroH8SqlxYcDqdribs7NMxB0EXzBQVjtVFSdjy7E1G2ytpFcWZI2vcMcfWU7PS
ZfwX9Rmu2ZWqHpsbzxhhyeEX1PrX4aPPtQnO7Zs8QciImaKr8FWGeI0HRCXFIxFu
/tuSbzWWuqEB+ava0inIcNC5/sGNcmfsCtB15QGd0/kB6gYnbyGZ5UbY/GUNnHIl
gh72Q9boCLGP0qnIvwWrXIBybKyk
-----END CERTIFICATE-----
