Certificate:
    Data:
        Version: 3 (0x2)
        Serial Number: 100 (0x64)
    Signature Algorithm: sha256WithRSAEncryption
        Issuer: C=US, ST=Montana, L=Bozeman, O=Sawtooth, OU=Consulting, CN=www.wolfssl.com/emailAddress=info@wolfssl.com
        Validity
            Not Before: Feb 10 19:49:55 2021 GMT
            Not After : Nov  7 19:49:55 2023 GMT
        Subject: C=US, ST=Washington, L=Seattle, O=wolfSSL Inc., OU=Engineering, CN=chainJ-ICA4-pathlen2/emailAddress=info@wolfssl.com
        Subject Public Key Info:
            Public Key Algorithm: rsaEncryption
                Public-Key: (2048 bit)
                Modulus:
                    00:9d:4a:ee:6b:ff:b6:ec:88:21:23:84:03:b6:88:
                    bb:3e:5a:1b:95:03:2f:24:53:2d:57:3f:11:38:5d:
                    12:1d:40:6b:10:db:c2:d3:e4:dd:80:77:74:7b:88:
                    44:65:e0:cf:52:c5:8a:42:e5:6e:b7:6a:ab:50:a0:
                    2e:29:c2:fe:ba:d5:c7:da:6b:91:26:8f:fc:1e:06:
                    17:f0:de:58:87:ef:1e:a6:91:12:39:68:a5:05:f3:
                    8c:67:c9:e5:99:18:a4:fc:90:3f:bd:a6:ca:f2:a6:
                    dd:b5:e6:93:cb:14:89:83:3c:88:5a:31:ab:e3:66:
                    2a:1b:87:c5:85:03:45:b0:ce:e1:0f:c1:0f:92:70:
                    d7:ac:65:ea:a8:09:c1:fe:1d:db:b7:e7:dd:98:d3:
                    c6:b1:16:b4:54:58:c1:aa:ba:a1:cf:19:14:a7:e4:
                    55:a6:da:bb:1f:9e:d1:85:00:e0:8d:4a:c4:d2:86:
                    08:75:fd:d8:1e:85:21:6c:27:8f:18:d5:44:73:58:
                    ab:94:75:4a:36:3d:8d:4d:c6:7a:86:9d:00:db:c5:
                    ba:be:70:02:83:bf:6e:d8:31:89:b3:f2:16:98:be:
                    27:f6:14:5a:e9:d4:72:67:8d:a9:df:76:27:bf:19:
                    ac:20:59:28:5b:1b:42:d9:d5:5b:6d:fb:6e:a2:5e:
                    d3:e9
                Exponent: 65537 (0x10001)
        X509v3 extensions:
            X509v3 Subject Key Identifier: 
                FC:18:13:52:BB:33:4A:DB:1C:5B:D1:80:98:3E:40:86:95:58:72:F9
            X509v3 Authority Key Identifier: 
                keyid:27:8E:67:11:74:C3:26:1D:3F:ED:33:63:B3:A4:D8:1D:30:E5:E8:D5
                DirName:/C=US/ST=Montana/L=Bozeman/O=Sawtooth/OU=Consulting/CN=www.wolfssl.com/emailAddress=info@wolfssl.com
                serial:AA:D3:3F:AC:18:0A:37:4D

            X509v3 Basic Constraints: 
                CA:TRUE, pathlen:2
            X509v3 Key Usage: 
                Certificate Sign, CRL Sign
    Signature Algorithm: sha256WithRSAEncryption
         0a:09:0b:51:1a:2d:fd:0f:3f:07:9b:9e:c8:17:d9:a5:40:e6:
         08:a5:8a:f6:38:38:c1:b2:6a:a0:80:6e:b8:0f:15:94:80:ed:
         1b:2d:79:f0:31:f3:9c:6a:1f:f5:51:d3:9d:6a:17:c7:20:14:
         cf:74:b5:01:ef:ce:0c:d4:c4:e5:d2:f8:6c:ef:79:64:c0:7e:
         50:7d:88:1f:5a:7d:a4:d0:e5:0b:ec:b9:54:ac:81:91:75:2c:
         38:de:ff:73:8d:23:14:52:ce:c8:07:cd:e5:66:8b:79:90:ee:
         e0:4e:91:ee:dd:14:74:58:89:04:ea:d7:f6:cf:65:b6:33:d8:
         f8:ae:1c:3d:17:fc:5a:51:28:b9:a6:6e:c4:aa:e8:43:f8:9d:
         6b:de:dd:e9:9c:9d:b1:43:8e:f1:b7:60:9b:0a:fa:3a:0b:80:
         a8:01:7c:b5:63:d5:c5:11:23:9a:89:2f:0f:47:26:0d:78:26:
         c1:61:64:c3:37:93:27:af:08:f8:4e:1a:f7:92:a6:c0:2b:32:
         78:23:fc:71:71:8d:a1:1e:ec:7e:6f:62:27:1b:04:3c:0a:78:
         23:9a:21:b2:ef:59:67:59:bd:9d:d3:49:72:0c:0b:c2:8f:d3:
         ca:4e:81:ab:b3:5a:00:39:4a:86:ce:1e:e3:99:a8:1a:e3:ba:
         79:a9:aa:68
-----BEGIN CERTIFICATE-----
MIIEwTCCA6mgAwIBAgIBZDANBgkqhkiG9w0BAQsFADCBlDELMAkGA1UEBhMCVVMx
EDAOBgNVBAgMB01vbnRhbmExEDAOBgNVBAcMB0JvemVtYW4xETAPBgNVBAoMCFNh
d3Rvb3RoMRMwEQYDVQQLDApDb25zdWx0aW5nMRgwFgYDVQQDDA93d3cud29sZnNz
bC5jb20xHzAdBgkqhkiG9w0BCQEWEGluZm9Ad29sZnNzbC5jb20wHhcNMjEwMjEw
MTk0OTU1WhcNMjMxMTA3MTk0OTU1WjCBoTELMAkGA1UEBhMCVVMxEzARBgNVBAgM
Cldhc2hpbmd0b24xEDAOBgNVBAcMB1NlYXR0bGUxFTATBgNVBAoMDHdvbGZTU0wg
SW5jLjEUMBIGA1UECwwLRW5naW5lZXJpbmcxHTAbBgNVBAMMFGNoYWluSi1JQ0E0
LXBhdGhsZW4yMR8wHQYJKoZIhvcNAQkBFhBpbmZvQHdvbGZzc2wuY29tMIIBIjAN
BgkqhkiG9w0BAQEFAAOCAQ8AMIIBCgKCAQEAnUrua/+27IghI4QDtoi7PloblQMv
JFMtVz8ROF0SHUBrENvC0+TdgHd0e4hEZeDPUsWKQuVut2qrUKAuKcL+utXH2muR
Jo/8HgYX8N5Yh+8eppESOWilBfOMZ8nlmRik/JA/vabK8qbdteaTyxSJgzyIWjGr
42YqG4fFhQNFsM7hD8EPknDXrGXqqAnB/h3bt+fdmNPGsRa0VFjBqrqhzxkUp+RV
ptq7H57RhQDgjUrE0oYIdf3YHoUhbCePGNVEc1irlHVKNj2NTcZ6hp0A28W6vnAC
g79u2DGJs/IWmL4n9hRa6dRyZ42p33YnvxmsIFkoWxtC2dVbbftuol7T6QIDAQAB
o4IBDTCCAQkwHQYDVR0OBBYEFPwYE1K7M0rbHFvRgJg+QIaVWHL5MIHJBgNVHSME
gcEwgb6AFCeOZxF0wyYdP+0zY7Ok2B0w5ejVoYGapIGXMIGUMQswCQYDVQQGEwJV
UzEQMA4GA1UECAwHTW9udGFuYTEQMA4GA1UEBwwHQm96ZW1hbjERMA8GA1UECgwI
U2F3dG9vdGgxEzARBgNVBAsMCkNvbnN1bHRpbmcxGDAWBgNVBAMMD3d3dy53b2xm
c3NsLmNvbTEfMB0GCSqGSIb3DQEJARYQaW5mb0B3b2xmc3NsLmNvbYIJAKrTP6wY
CjdNMA8GA1UdEwQIMAYBAf8CAQIwCwYDVR0PBAQDAgEGMA0GCSqGSIb3DQEBCwUA
A4IBAQAKCQtRGi39Dz8Hm57IF9mlQOYIpYr2ODjBsmqggG64DxWUgO0bLXnwMfOc
ah/1UdOdahfHIBTPdLUB784M1MTl0vhs73lkwH5QfYgfWn2k0OUL7LlUrIGRdSw4
3v9zjSMUUs7IB83lZot5kO7gTpHu3RR0WIkE6tf2z2W2M9j4rhw9F/xaUSi5pm7E
quhD+J1r3t3pnJ2xQ47xt2CbCvo6C4CoAXy1Y9XFESOaiS8PRyYNeCbBYWTDN5Mn
rwj4Thr3kqbAKzJ4I/xxcY2hHux+b2InGwQ8CngjmiGy71lnWb2d00lyDAvCj9PK
ToGrs1oAOUqGzh7jmaga47p5qapo
-----END CERTIFICATE-----
