Certificate:
    Data:
        Version: 3 (0x2)
        Serial Number: 101 (0x65)
        Signature Algorithm: sha256WithRSAEncryption
        Issuer: C=US, ST=Washington, L=Seattle, O=wolfSSL Inc., OU=Engineering, CN=chainB-ICA1-pathlen0, emailAddress=info@wolfssl.com
        Validity
            Not Before: Nov 13 20:41:41 2025 GMT
            Not After : Aug  9 20:41:41 2028 GMT
        Subject: C=US, ST=Washington, L=Seattle, O=wolfSSL Inc., OU=Engineering, CN=chainB-entity, emailAddress=info@wolfssl.com
        Subject Public Key Info:
            Public Key Algorithm: rsaEncryption
                Public-Key: (2048 bit)
                Modulus:
                    00:d7:5f:d9:3d:d7:5b:11:aa:3e:53:31:d0:32:78:
                    87:fb:c0:8e:80:6d:fc:68:73:1f:9c:77:66:16:35:
                    fc:2f:d7:e4:ca:ba:2a:73:5f:14:94:12:f0:48:31:
                    a2:40:ad:b4:e3:07:0c:02:47:b4:0a:07:69:d5:d2:
                    85:bf:c8:bc:14:8c:c7:87:ba:5f:87:c5:07:f4:df:
                    a4:46:1e:b7:13:0f:9d:7e:f6:1a:7b:29:09:55:4c:
                    17:ee:c8:b0:9d:39:0c:89:6e:18:9c:06:7f:5d:95:
                    d2:4c:71:b3:1f:ea:5d:d2:f6:2c:69:a8:16:15:59:
                    e5:7d:03:d7:bd:1a:34:e3:f1:27:e3:b9:7d:68:e0:
                    39:3f:35:62:2f:20:20:fa:19:62:37:1a:30:47:6c:
                    a3:f9:8e:9c:f3:67:2e:bb:38:4c:2e:0a:21:9b:70:
                    b6:97:a2:1b:b3:98:0d:5b:74:97:33:f0:b8:6c:4e:
                    ad:b4:1f:48:62:c9:9a:af:2d:a6:a1:06:ae:98:30:
                    54:5e:cb:dd:23:77:d5:ee:5c:fb:81:f0:2b:ad:6f:
                    fa:e3:b1:0e:98:bd:3e:0b:f4:7c:c5:e3:50:bf:08:
                    9b:bf:be:f8:6a:d9:db:78:36:84:f2:7e:7b:7d:5e:
                    a7:8f:42:81:5f:41:f4:77:5c:30:51:f5:3f:2d:25:
                    95:4d
                Exponent: 65537 (0x10001)
        X509v3 extensions:
            X509v3 Subject Key Identifier: 
                7F:17:7E:8E:A8:2C:AD:9C:C7:22:7E:A6:C6:90:9E:63:C4:5F:33:9E
            X509v3 Authority Key Identifier: 
                keyid:D7:90:E4:86:59:24:F9:2B:B8:06:8E:B1:8F:33:E5:2C:63:F1:03:16
                DirName:/C=US/ST=Washington/L=Seattle/O=wolfSSL Inc./OU=Engineering/CN=chainB-ICA2-pathlen1/emailAddress=info@wolfssl.com
                serial:64
            X509v3 Basic Constraints: 
                CA:FALSE
    Signature Algorithm: sha256WithRSAEncryption
    Signature Value:
        99:9a:8a:8a:0a:8e:e6:47:8a:14:46:7a:d2:be:a9:06:73:62:
        52:4c:84:c6:16:e2:b0:45:9b:48:3d:ef:79:ce:7b:6a:40:04:
        df:18:44:69:a5:65:78:c8:35:0f:14:4f:a4:dc:30:c0:d6:11:
        db:c2:eb:4e:44:99:f0:04:61:42:28:6a:6c:9e:c1:31:40:78:
        25:9e:f2:2d:92:ec:cb:57:c1:ce:1d:a0:de:c2:f7:4d:40:1f:
        45:78:75:7a:2a:03:d6:3c:3f:82:36:b9:15:70:2e:17:bb:ec:
        88:d2:21:e7:39:55:1c:8b:66:51:7e:27:03:68:fc:de:b2:1a:
        31:21:cf:b5:67:d5:9e:33:be:14:b6:2b:14:f3:1d:36:e7:06:
        fc:a1:4f:8a:82:16:ad:95:13:88:7f:e0:f7:b2:24:32:f3:82:
        c9:1b:05:64:eb:6d:18:42:aa:ba:70:dc:07:15:c0:49:01:7e:
        da:f5:7c:ec:19:85:54:7d:f2:cd:6b:02:98:e6:78:40:a0:78:
        11:b1:be:86:89:13:5b:e9:f5:20:93:bf:c6:f3:49:f4:b6:3f:
        4f:ce:81:46:b7:2a:96:80:3f:43:dd:8d:6f:ed:25:0c:5e:1d:
        25:e9:c0:92:c5:91:e8:e8:32:3c:b1:cd:89:a2:e4:3b:29:e1:
        b0:f2:3c:91
-----BEGIN CERTIFICATE-----
MIIEtzCCA5+gAwIBAgIBZTANBgkqhkiG9w0BAQsFADCBoTELMAkGA1UEBhMCVVMx
EzARBgNVBAgMCldhc2hpbmd0b24xEDAOBgNVBAcMB1NlYXR0bGUxFTATBgNVBAoM
DHdvbGZTU0wgSW5jLjEUMBIGA1UECwwLRW5naW5lZXJpbmcxHTAbBgNVBAMMFGNo
YWluQi1JQ0ExLXBhdGhsZW4wMR8wHQYJKoZIhvcNAQkBFhBpbmZvQHdvbGZzc2wu
Y29tMB4XDTI1MTExMzIwNDE0MVoXDTI4MDgwOTIwNDE0MVowgZoxCzAJBgNVBAYT
AlVTMRMwEQYDVQQIDApXYXNoaW5ndG9uMRAwDgYDVQQHDAdTZWF0dGxlMRUwEwYD
VQQKDAx3b2xmU1NMIEluYy4xFDASBgNVBAsMC0VuZ2luZWVyaW5nMRYwFAYDVQQD
DA1jaGFpbkItZW50aXR5MR8wHQYJKoZIhvcNAQkBFhBpbmZvQHdvbGZzc2wuY29t
MIIBIjANBgkqhkiG9w0BAQEFAAOCAQ8AMIIBCgKCAQEA11/ZPddbEao+UzHQMniH
+8COgG38aHMfnHdmFjX8L9fkyroqc18UlBLwSDGiQK204wcMAke0Cgdp1dKFv8i8
FIzHh7pfh8UH9N+kRh63Ew+dfvYaeykJVUwX7siwnTkMiW4YnAZ/XZXSTHGzH+pd
0vYsaagWFVnlfQPXvRo04/En47l9aOA5PzViLyAg+hliNxowR2yj+Y6c82cuuzhM
Lgohm3C2l6Ibs5gNW3SXM/C4bE6ttB9IYsmary2moQaumDBUXsvdI3fV7lz7gfAr
rW/647EOmL0+C/R8xeNQvwibv774atnbeDaE8n57fV6nj0KBX0H0d1wwUfU/LSWV
TQIDAQABo4H+MIH7MB0GA1UdDgQWBBR/F36OqCytnMcifqbGkJ5jxF8znjCBzgYD
VR0jBIHGMIHDgBTXkOSGWST5K7gGjrGPM+UsY/EDFqGBp6SBpDCBoTELMAkGA1UE
BhMCVVMxEzARBgNVBAgMCldhc2hpbmd0b24xEDAOBgNVBAcMB1NlYXR0bGUxFTAT
BgNVBAoMDHdvbGZTU0wgSW5jLjEUMBIGA1UECwwLRW5naW5lZXJpbmcxHTAbBgNV
BAMMFGNoYWluQi1JQ0EyLXBhdGhsZW4xMR8wHQYJKoZIhvcNAQkBFhBpbmZvQHdv
bGZzc2wuY29tggFkMAkGA1UdEwQCMAAwDQYJKoZIhvcNAQELBQADggEBAJmaiooK
juZHihRGetK+qQZzYlJMhMYW4rBFm0g973nOe2pABN8YRGmlZXjINQ8UT6TcMMDW
EdvC605EmfAEYUIoamyewTFAeCWe8i2S7MtXwc4doN7C901AH0V4dXoqA9Y8P4I2
uRVwLhe77IjSIec5VRyLZlF+JwNo/N6yGjEhz7Vn1Z4zvhS2KxTzHTbnBvyhT4qC
Fq2VE4h/4PeyJDLzgskbBWTrbRhCqrpw3AcVwEkBftr1fOwZhVR98s1rApjmeECg
eBGxvoaJE1vp9SCTv8bzSfS2P0/OgUa3KpaAP0PdjW/tJQxeHSXpwJLFkejoMjyx
zYmi5Dsp4bDyPJE=
-----END CERTIFICATE-----
