Certificate:
    Data:
        Version: 3 (0x2)
        Serial Number: 100 (0x64)
        Signature Algorithm: sha256WithRSAEncryption
        Issuer: C=US, ST=Washington, L=Seattle, O=wolfSSL Inc., OU=Engineering, CN=chainG-ICA4-pathlen5, emailAddress=facts@wolfssl.com
        Validity
            Not Before: Jun 11 21:44:39 2026 GMT
            Not After : Mar  7 21:44:39 2029 GMT
        Subject: C=US, ST=Washington, L=Seattle, O=wolfSSL Inc., OU=Engineering, CN=chainG-ICA3-pathlen99, emailAddress=facts@wolfssl.com
        Subject Public Key Info:
            Public Key Algorithm: rsaEncryption
                Public-Key: (2048 bit)
                Modulus:
                    00:ac:f1:39:65:f7:9c:9d:f6:f0:d2:b7:18:16:24:
                    81:32:b7:a5:29:d6:f7:4e:31:38:a7:54:d6:eb:07:
                    97:27:a1:92:e0:c1:3a:b5:93:06:17:ef:a7:74:f8:
                    9b:42:97:0c:d6:d3:d4:36:c9:61:ef:92:4c:3e:c4:
                    74:08:d6:19:2a:cd:9b:f1:6f:e8:c8:67:9f:28:54:
                    99:ce:63:1a:87:56:99:36:31:65:05:c5:d6:97:cf:
                    51:e4:2d:3d:74:14:31:d3:c3:05:fc:0e:7c:93:57:
                    cd:f7:c4:97:d7:5c:65:75:e7:35:85:81:27:eb:9a:
                    9f:d7:a2:bc:28:41:a8:ce:92:3a:10:b9:35:28:83:
                    dc:b0:27:cc:6e:20:03:60:13:23:22:b4:3c:25:58:
                    ae:a1:b2:24:d1:21:8b:b9:f0:28:84:ae:e6:00:cc:
                    cb:9b:78:8c:fa:4b:ed:73:7a:91:05:f9:fb:6e:34:
                    3b:7e:af:f9:45:9e:a0:d5:62:bb:d8:cd:95:9e:a2:
                    90:72:27:e0:3e:b9:b0:5e:0a:b2:e4:55:95:03:0c:
                    a6:66:44:65:db:0a:9f:90:5a:d3:81:c7:e2:3e:f2:
                    b0:9a:e0:05:1c:de:64:04:c2:7e:ca:7e:df:a1:f6:
                    18:e5:94:d3:74:fb:a5:1f:2d:77:cd:6e:5e:55:a3:
                    80:cb
                Exponent: 65537 (0x10001)
        X509v3 extensions:
            X509v3 Subject Key Identifier: 
                C1:CD:1F:81:13:82:24:3B:CF:64:51:7A:4C:E3:65:2E:75:1E:01:23
            X509v3 Authority Key Identifier: 
                keyid:D4:92:AE:BD:3B:1C:66:4B:17:88:18:15:F8:27:AB:38:CC:07:5A:65
                DirName:/C=US/ST=Washington/L=Seattle/O=wolfSSL Inc./OU=Engineering/CN=chainG-ICA5-pathlen20/emailAddress=facts@wolfssl.com
                serial:64
            X509v3 Basic Constraints: 
                CA:TRUE, pathlen:99
            X509v3 Key Usage: 
                Certificate Sign, CRL Sign
    Signature Algorithm: sha256WithRSAEncryption
    Signature Value:
        3b:b8:2b:cb:42:18:24:df:e8:3c:8b:c3:79:38:33:98:3d:90:
        3f:a4:6d:da:b3:0b:43:46:dd:43:ee:0f:29:4d:fc:b3:bd:3a:
        92:28:19:e2:2c:8c:e6:e0:bc:55:e9:ad:89:6f:66:01:77:df:
        31:2f:25:65:0d:28:ef:17:b1:8f:e1:77:b9:19:73:aa:74:5b:
        57:80:cb:a0:08:89:28:04:1b:20:4c:91:96:c5:df:ba:5d:91:
        20:a6:bf:fc:5f:7a:36:24:16:46:5a:23:93:8d:08:be:ee:dc:
        1e:ea:28:5b:62:c7:7b:de:bb:0a:26:51:27:d3:3e:a5:8f:28:
        ac:be:b6:a6:0b:23:0f:27:88:59:69:58:28:38:b0:63:e5:9d:
        22:4f:eb:e4:ce:e7:55:1a:a6:5c:be:91:18:b2:c2:92:20:6e:
        3b:a1:5f:f7:af:e7:fa:39:e1:d0:39:2d:88:0e:82:b0:ea:70:
        19:be:03:8a:37:81:03:18:f2:56:1d:df:c7:74:ec:0a:b3:eb:
        ed:65:e9:38:b5:e3:8b:99:85:33:08:88:17:cd:05:bb:1e:b3:
        e4:5f:3e:b0:05:90:ee:7f:51:07:33:5d:28:ee:a2:c9:7d:c1:
        bf:73:e6:0f:5e:4b:c0:86:eb:c9:b5:26:12:e7:33:5d:19:de:
        60:04:eb:e2
-----BEGIN CERTIFICATE-----
MIIE2DCCA8CgAwIBAgIBZDANBgkqhkiG9w0BAQsFADCBojELMAkGA1UEBhMCVVMx
EzARBgNVBAgMCldhc2hpbmd0b24xEDAOBgNVBAcMB1NlYXR0bGUxFTATBgNVBAoM
DHdvbGZTU0wgSW5jLjEUMBIGA1UECwwLRW5naW5lZXJpbmcxHTAbBgNVBAMMFGNo
YWluRy1JQ0E0LXBhdGhsZW41MSAwHgYJKoZIhvcNAQkBFhFmYWN0c0B3b2xmc3Ns
LmNvbTAeFw0yNjA2MTEyMTQ0MzlaFw0yOTAzMDcyMTQ0MzlaMIGjMQswCQYDVQQG
EwJVUzETMBEGA1UECAwKV2FzaGluZ3RvbjEQMA4GA1UEBwwHU2VhdHRsZTEVMBMG
A1UECgwMd29sZlNTTCBJbmMuMRQwEgYDVQQLDAtFbmdpbmVlcmluZzEeMBwGA1UE
AwwVY2hhaW5HLUlDQTMtcGF0aGxlbjk5MSAwHgYJKoZIhvcNAQkBFhFmYWN0c0B3
b2xmc3NsLmNvbTCCASIwDQYJKoZIhvcNAQEBBQADggEPADCCAQoCggEBAKzxOWX3
nJ328NK3GBYkgTK3pSnW904xOKdU1usHlyehkuDBOrWTBhfvp3T4m0KXDNbT1DbJ
Ye+STD7EdAjWGSrNm/Fv6MhnnyhUmc5jGodWmTYxZQXF1pfPUeQtPXQUMdPDBfwO
fJNXzffEl9dcZXXnNYWBJ+uan9eivChBqM6SOhC5NSiD3LAnzG4gA2ATIyK0PCVY
rqGyJNEhi7nwKISu5gDMy5t4jPpL7XN6kQX5+240O36v+UWeoNViu9jNlZ6ikHIn
4D65sF4KsuRVlQMMpmZEZdsKn5Ba04HH4j7ysJrgBRzeZATCfsp+36H2GOWU03T7
pR8td81uXlWjgMsCAwEAAaOCARQwggEQMB0GA1UdDgQWBBTBzR+BE4IkO89kUXpM
42UudR4BIzCB0AYDVR0jBIHIMIHFgBTUkq69OxxmSxeIGBX4J6s4zAdaZaGBqaSB
pjCBozELMAkGA1UEBhMCVVMxEzARBgNVBAgMCldhc2hpbmd0b24xEDAOBgNVBAcM
B1NlYXR0bGUxFTATBgNVBAoMDHdvbGZTU0wgSW5jLjEUMBIGA1UECwwLRW5naW5l
ZXJpbmcxHjAcBgNVBAMMFWNoYWluRy1JQ0E1LXBhdGhsZW4yMDEgMB4GCSqGSIb3
DQEJARYRZmFjdHNAd29sZnNzbC5jb22CAWQwDwYDVR0TBAgwBgEB/wIBYzALBgNV
HQ8EBAMCAQYwDQYJKoZIhvcNAQELBQADggEBADu4K8tCGCTf6DyLw3k4M5g9kD+k
bdqzC0NG3UPuDylN/LO9OpIoGeIsjObgvFXprYlvZgF33zEvJWUNKO8XsY/hd7kZ
c6p0W1eAy6AIiSgEGyBMkZbF37pdkSCmv/xfejYkFkZaI5ONCL7u3B7qKFtix3ve
uwomUSfTPqWPKKy+tqYLIw8niFlpWCg4sGPlnSJP6+TO51Uaply+kRiywpIgbjuh
X/ev5/o54dA5LYgOgrDqcBm+A4o3gQMY8lYd38d07Aqz6+1l6Ti144uZhTMIiBfN
Bbses+RfPrAFkO5/UQczXSjuosl9wb9z5g9eS8CG68m1JhLnM10Z3mAE6+I=
-----END CERTIFICATE-----
