Certificate:
    Data:
        Version: 3 (0x2)
        Serial Number: 101 (0x65)
        Signature Algorithm: sha1WithRSAEncryption
        Issuer: C = US, ST = Washington, L = Seattle, O = wolfSSL Inc., OU = Engineering, CN = chainF-ICA1-pathlen1, emailAddress = info@wolfssl.com
        Validity
            Not Before: Oct 10 21:32:42 2019 GMT
            Not After : Jul  6 21:32:42 2022 GMT
        Subject: C = US, ST = Washington, L = Seattle, O = wolfSSL Inc., OU = Engineering, CN = chainF-entity, emailAddress = info@wolfssl.com
        Subject Public Key Info:
            Public Key Algorithm: rsaEncryption
                RSA Public-Key: (2048 bit)
                Modulus:
                    00:c9:f8:2c:ad:25:a9:65:3b:72:13:5d:aa:7f:5b:
                    71:f5:e0:43:c4:3a:b3:36:0d:34:61:35:86:77:a0:
                    2a:81:de:2c:7c:7d:01:fb:f4:c3:00:b0:17:b9:49:
                    93:1d:c2:1b:6f:40:ee:86:e0:a7:f3:5e:ad:23:43:
                    99:5f:34:38:c8:58:02:9b:cc:9e:59:da:81:5b:b1:
                    40:74:ca:c1:b8:67:14:ba:3f:71:16:d9:ba:a9:cd:
                    f1:96:1b:52:e2:d2:07:6d:6a:d6:cf:e7:a8:c8:e0:
                    4f:eb:35:64:bc:aa:1a:17:af:98:de:d0:9b:08:73:
                    72:d8:fe:e2:e5:4e:7e:97:37:37:58:9e:5c:65:91:
                    b9:5d:38:da:ba:db:00:c0:f6:4a:6f:9c:86:23:ad:
                    b0:c4:ff:b7:dd:d6:9a:b0:de:8d:15:87:e2:4b:04:
                    85:6d:5d:cc:5f:65:6f:e1:ae:22:44:80:18:ba:c2:
                    95:a4:a3:28:c5:3f:7b:4c:85:6c:0f:11:14:56:d2:
                    d5:a7:f7:03:e9:f7:ce:ef:d9:18:02:f0:f2:6e:81:
                    ef:ac:50:87:0e:b0:46:9f:ae:c0:77:8f:03:28:8a:
                    9d:6e:87:50:8f:37:46:b3:29:57:a4:c2:ef:25:cd:
                    23:1a:ef:1a:03:c9:59:69:cd:45:5f:39:3f:76:d4:
                    79:53
                Exponent: 65537 (0x10001)
        X509v3 extensions:
            X509v3 Subject Key Identifier: 
                E9:27:36:DA:64:81:70:89:C9:C1:F9:E3:92:7A:67:11:07:01:4A:49
            X509v3 Authority Key Identifier: 
                keyid:75:32:21:05:2B:60:FE:44:17:AF:18:65:86:85:19:82:3F:F9:64:83
                DirName:/C=US/ST=Washington/L=Seattle/O=wolfSSL Inc./OU=Engineering/CN=chainF-ICA2-pathlen0/emailAddress=info@wolfssl.com
                serial:64

            X509v3 Basic Constraints: 
                CA:FALSE
    Signature Algorithm: sha1WithRSAEncryption
         6c:54:2c:45:c9:74:21:a3:cf:25:27:a0:dd:fa:a5:50:47:53:
         c8:1e:48:19:8c:eb:2a:9e:9c:b6:28:65:4d:ec:02:1d:55:91:
         57:ba:ee:37:e5:f6:2e:d7:d6:e8:a9:78:f2:0f:37:d8:1b:b5:
         24:37:61:b8:dd:aa:67:16:14:f6:3e:8a:15:4a:ca:b4:54:68:
         82:26:3f:20:21:bc:66:3a:3a:06:eb:7b:8c:9b:69:46:37:4e:
         af:88:67:34:df:fe:c3:b0:8e:5e:5a:71:2a:e7:f7:5a:98:c2:
         72:7d:92:2c:97:87:c8:bd:be:ff:c1:05:8d:58:cc:93:b6:10:
         aa:8a:1f:06:12:7d:12:6d:ce:4a:80:5d:18:05:e8:49:57:c7:
         a0:65:a8:4b:dd:ea:2b:6a:3f:fc:74:19:b6:a6:69:b7:84:60:
         5d:23:8c:5c:93:bf:67:3f:f3:a2:89:54:6d:df:1c:d9:d8:3c:
         a1:15:38:1b:08:b5:a0:7a:35:35:f2:01:7e:d7:28:7f:bc:8c:
         f7:f6:92:7b:88:e2:01:66:df:e8:a1:34:71:01:26:f7:92:8d:
         0c:ef:19:22:7b:5e:c0:a4:49:0a:c6:14:25:91:43:bc:91:79:
         fd:02:cd:22:42:a7:24:e7:2c:33:d4:27:3f:99:35:be:4c:f8:
         9a:28:91:3b
-----BEGIN CERTIFICATE-----
MIIEtzCCA5+gAwIBAgIBZTANBgkqhkiG9w0BAQUFADCBoTELMAkGA1UEBhMCVVMx
EzARBgNVBAgMCldhc2hpbmd0b24xEDAOBgNVBAcMB1NlYXR0bGUxFTATBgNVBAoM
DHdvbGZTU0wgSW5jLjEUMBIGA1UECwwLRW5naW5lZXJpbmcxHTAbBgNVBAMMFGNo
YWluRi1JQ0ExLXBhdGhsZW4xMR8wHQYJKoZIhvcNAQkBFhBpbmZvQHdvbGZzc2wu
Y29tMB4XDTE5MTAxMDIxMzI0MloXDTIyMDcwNjIxMzI0MlowgZoxCzAJBgNVBAYT
AlVTMRMwEQYDVQQIDApXYXNoaW5ndG9uMRAwDgYDVQQHDAdTZWF0dGxlMRUwEwYD
VQQKDAx3b2xmU1NMIEluYy4xFDASBgNVBAsMC0VuZ2luZWVyaW5nMRYwFAYDVQQD
DA1jaGFpbkYtZW50aXR5MR8wHQYJKoZIhvcNAQkBFhBpbmZvQHdvbGZzc2wuY29t
MIIBIjANBgkqhkiG9w0BAQEFAAOCAQ8AMIIBCgKCAQEAyfgsrSWpZTtyE12qf1tx
9eBDxDqzNg00YTWGd6Aqgd4sfH0B+/TDALAXuUmTHcIbb0DuhuCn816tI0OZXzQ4
yFgCm8yeWdqBW7FAdMrBuGcUuj9xFtm6qc3xlhtS4tIHbWrWz+eoyOBP6zVkvKoa
F6+Y3tCbCHNy2P7i5U5+lzc3WJ5cZZG5XTjautsAwPZKb5yGI62wxP+33daasN6N
FYfiSwSFbV3MX2Vv4a4iRIAYusKVpKMoxT97TIVsDxEUVtLVp/cD6ffO79kYAvDy
boHvrFCHDrBGn67Ad48DKIqdbodQjzdGsylXpMLvJc0jGu8aA8lZac1FXzk/dtR5
UwIDAQABo4H+MIH7MB0GA1UdDgQWBBTpJzbaZIFwicnB+eOSemcRBwFKSTCBzgYD
VR0jBIHGMIHDgBR1MiEFK2D+RBevGGWGhRmCP/lkg6GBp6SBpDCBoTELMAkGA1UE
BhMCVVMxEzARBgNVBAgMCldhc2hpbmd0b24xEDAOBgNVBAcMB1NlYXR0bGUxFTAT
BgNVBAoMDHdvbGZTU0wgSW5jLjEUMBIGA1UECwwLRW5naW5lZXJpbmcxHTAbBgNV
BAMMFGNoYWluRi1JQ0EyLXBhdGhsZW4wMR8wHQYJKoZIhvcNAQkBFhBpbmZvQHdv
bGZzc2wuY29tggFkMAkGA1UdEwQCMAAwDQYJKoZIhvcNAQEFBQADggEBAGxULEXJ
dCGjzyUnoN36pVBHU8geSBmM6yqenLYoZU3sAh1VkVe67jfl9i7X1uipePIPN9gb
tSQ3YbjdqmcWFPY+ihVKyrRUaIImPyAhvGY6Ogbre4ybaUY3Tq+IZzTf/sOwjl5a
cSrn91qYwnJ9kiyXh8i9vv/BBY1YzJO2EKqKHwYSfRJtzkqAXRgF6ElXx6BlqEvd
6itqP/x0GbamabeEYF0jjFyTv2c/86KJVG3fHNnYPKEVOBsItaB6NTXyAX7XKH+8
jPf2knuI4gFm3+ihNHEBJveSjQzvGSJ7XsCkSQrGFCWRQ7yRef0CzSJCpyTnLDPU
Jz+ZNb5M+JookTs=
-----END CERTIFICATE-----
Certificate:
    Data:
        Version: 3 (0x2)
        Serial Number: 100 (0x64)
        Signature Algorithm: sha1WithRSAEncryption
        Issuer: C = US, ST = Washington, L = Seattle, O = wolfSSL Inc., OU = Engineering, CN = chainF-ICA2-pathlen0, emailAddress = info@wolfssl.com
        Validity
            Not Before: Oct 10 21:32:42 2019 GMT
            Not After : Jul  6 21:32:42 2022 GMT
        Subject: C = US, ST = Washington, L = Seattle, O = wolfSSL Inc., OU = Engineering, CN = chainF-ICA1-pathlen1, emailAddress = info@wolfssl.com
        Subject Public Key Info:
            Public Key Algorithm: rsaEncryption
                RSA Public-Key: (2048 bit)
                Modulus:
                    00:e0:13:c9:b0:8e:9d:3f:88:d4:30:4a:b4:e8:11:
                    21:93:5c:20:45:08:f8:7a:91:b9:2c:ad:ff:60:aa:
                    16:9f:1c:bb:88:b8:3d:0a:39:c1:89:a9:76:ca:8e:
                    6c:72:72:7e:6e:74:a6:36:2c:69:df:33:d6:e9:66:
                    70:65:7f:ba:2a:44:17:62:9f:33:46:12:e6:03:a5:
                    a6:e2:5c:09:07:cf:bc:8d:76:fe:a0:fd:d7:72:4a:
                    94:c8:ca:2f:95:91:9c:0a:77:7f:82:23:be:72:27:
                    29:45:cd:41:cf:ec:e1:84:cf:67:d0:18:98:b9:31:
                    be:c9:fe:98:5d:3f:aa:d2:83:76:45:85:ab:08:86:
                    63:58:5b:b3:e5:4a:43:3d:a1:99:e2:80:d1:2b:b2:
                    06:e3:f0:10:85:f9:a6:36:b8:52:2b:9d:73:3b:34:
                    23:51:3d:fe:56:2f:e9:39:b2:68:07:3e:6f:52:7b:
                    f4:40:d4:72:fa:69:19:ca:ff:22:c8:45:95:05:5e:
                    91:08:3f:27:2d:41:d1:74:a5:06:9c:f3:40:bd:bb:
                    fc:65:63:86:ed:80:22:50:c1:f6:4f:dc:8f:43:4c:
                    5e:fb:bf:d9:6d:1f:b4:84:0f:1e:e8:c6:5d:c5:53:
                    d5:2c:c9:7f:6b:98:93:a7:5d:35:9a:17:62:91:2e:
                    20:c1
                Exponent: 65537 (0x10001)
        X509v3 extensions:
            X509v3 Subject Key Identifier: 
                75:32:21:05:2B:60:FE:44:17:AF:18:65:86:85:19:82:3F:F9:64:83
            X509v3 Authority Key Identifier: 
                keyid:4A:53:4A:B7:30:78:35:91:B4:CB:DD:C8:22:74:89:AF:80:0F:7F:68
                DirName:/C=US/ST=Montana/L=Bozeman/O=Sawtooth/OU=Consulting/CN=www.wolfssl.com/emailAddress=info@wolfssl.com
                serial:64

            X509v3 Basic Constraints: 
                CA:TRUE, pathlen:1
            X509v3 Key Usage: 
                Certificate Sign, CRL Sign
    Signature Algorithm: sha1WithRSAEncryption
         9a:92:6f:b8:58:97:33:cb:d3:2f:98:31:95:9c:9a:b6:f4:a9:
         29:0e:66:97:0b:c4:97:f1:7c:f6:ed:1f:e6:d5:35:ce:b0:94:
         78:4b:0f:bc:c5:98:80:29:3b:a8:08:e3:2b:7b:1f:10:4e:2b:
         67:09:89:cd:ef:36:f4:d8:3a:dc:f4:82:e2:53:47:07:e9:3b:
         cb:01:3c:73:3a:2c:82:24:d5:4d:8c:13:ba:cf:c5:65:7a:8f:
         da:7d:b0:98:4a:d1:16:55:e9:ab:5b:3c:3e:b0:50:0c:05:77:
         3a:bc:ef:6f:c5:f1:f4:f3:a8:00:5a:dc:2a:af:7a:95:e5:05:
         d9:9b:88:5f:59:3c:f3:a1:66:78:e1:d0:c0:c5:b9:68:f1:07:
         92:bf:eb:21:4c:a8:87:79:b1:da:af:38:89:6e:42:f8:26:ed:
         af:3c:52:56:af:86:c3:bf:42:08:69:39:fd:82:a5:6f:c9:b0:
         89:9c:f2:6b:0a:2c:25:a2:22:03:84:ca:cf:26:5e:6e:61:3d:
         38:8d:2b:0d:b2:0c:82:1e:be:5b:bf:da:ef:9f:3c:17:31:ed:
         d3:c2:8b:fd:c8:1e:bc:2b:1c:5f:63:5c:54:51:db:71:45:b3:
         a8:09:b9:96:74:4f:f9:19:d7:6c:bb:46:6d:42:1f:bc:6e:72:
         25:b2:22:37
-----BEGIN CERTIFICATE-----
MIIExjCCA66gAwIBAgIBZDANBgkqhkiG9w0BAQUFADCBoTELMAkGA1UEBhMCVVMx
EzARBgNVBAgMCldhc2hpbmd0b24xEDAOBgNVBAcMB1NlYXR0bGUxFTATBgNVBAoM
DHdvbGZTU0wgSW5jLjEUMBIGA1UECwwLRW5naW5lZXJpbmcxHTAbBgNVBAMMFGNo
YWluRi1JQ0EyLXBhdGhsZW4wMR8wHQYJKoZIhvcNAQkBFhBpbmZvQHdvbGZzc2wu
Y29tMB4XDTE5MTAxMDIxMzI0MloXDTIyMDcwNjIxMzI0MlowgaExCzAJBgNVBAYT
AlVTMRMwEQYDVQQIDApXYXNoaW5ndG9uMRAwDgYDVQQHDAdTZWF0dGxlMRUwEwYD
VQQKDAx3b2xmU1NMIEluYy4xFDASBgNVBAsMC0VuZ2luZWVyaW5nMR0wGwYDVQQD
DBRjaGFpbkYtSUNBMS1wYXRobGVuMTEfMB0GCSqGSIb3DQEJARYQaW5mb0B3b2xm
c3NsLmNvbTCCASIwDQYJKoZIhvcNAQEBBQADggEPADCCAQoCggEBAOATybCOnT+I
1DBKtOgRIZNcIEUI+HqRuSyt/2CqFp8cu4i4PQo5wYmpdsqObHJyfm50pjYsad8z
1ulmcGV/uipEF2KfM0YS5gOlpuJcCQfPvI12/qD913JKlMjKL5WRnAp3f4IjvnIn
KUXNQc/s4YTPZ9AYmLkxvsn+mF0/qtKDdkWFqwiGY1hbs+VKQz2hmeKA0SuyBuPw
EIX5pja4Uiudczs0I1E9/lYv6TmyaAc+b1J79EDUcvppGcr/IshFlQVekQg/Jy1B
0XSlBpzzQL27/GVjhu2AIlDB9k/cj0NMXvu/2W0ftIQPHujGXcVT1SzJf2uYk6dd
NZoXYpEuIMECAwEAAaOCAQUwggEBMB0GA1UdDgQWBBR1MiEFK2D+RBevGGWGhRmC
P/lkgzCBwQYDVR0jBIG5MIG2gBRKU0q3MHg1kbTL3cgidImvgA9/aKGBmqSBlzCB
lDELMAkGA1UEBhMCVVMxEDAOBgNVBAgMB01vbnRhbmExEDAOBgNVBAcMB0JvemVt
YW4xETAPBgNVBAoMCFNhd3Rvb3RoMRMwEQYDVQQLDApDb25zdWx0aW5nMRgwFgYD
VQQDDA93d3cud29sZnNzbC5jb20xHzAdBgkqhkiG9w0BCQEWEGluZm9Ad29sZnNz
bC5jb22CAWQwDwYDVR0TBAgwBgEB/wIBATALBgNVHQ8EBAMCAQYwDQYJKoZIhvcN
AQEFBQADggEBAJqSb7hYlzPL0y+YMZWcmrb0qSkOZpcLxJfxfPbtH+bVNc6wlHhL
D7zFmIApO6gI4yt7HxBOK2cJic3vNvTYOtz0guJTRwfpO8sBPHM6LIIk1U2ME7rP
xWV6j9p9sJhK0RZV6atbPD6wUAwFdzq872/F8fTzqABa3CqvepXlBdmbiF9ZPPOh
Znjh0MDFuWjxB5K/6yFMqId5sdqvOIluQvgm7a88UlavhsO/QghpOf2CpW/JsImc
8msKLCWiIgOEys8mXm5hPTiNKw2yDIIevlu/2u+fPBcx7dPCi/3IHrwrHF9jXFRR
23FFs6gJuZZ0T/kZ12y7Rm1CH7xuciWyIjc=
-----END CERTIFICATE-----
Certificate:
    Data:
        Version: 3 (0x2)
        Serial Number: 100 (0x64)
        Signature Algorithm: sha1WithRSAEncryption
        Issuer: C = US, ST = Montana, L = Bozeman, O = Sawtooth, OU = Consulting, CN = www.wolfssl.com, emailAddress = info@wolfssl.com
        Validity
            Not Before: Oct 10 21:32:42 2019 GMT
            Not After : Jul  6 21:32:42 2022 GMT
        Subject: C = US, ST = Washington, L = Seattle, O = wolfSSL Inc., OU = Engineering, CN = chainF-ICA2-pathlen0, emailAddress = info@wolfssl.com
        Subject Public Key Info:
            Public Key Algorithm: rsaEncryption
                RSA Public-Key: (2048 bit)
                Modulus:
                    00:da:3a:22:65:f8:6d:1c:b7:1c:87:dd:27:f4:d7:
                    75:aa:7c:1c:37:31:b4:d6:a5:34:4b:36:40:ea:55:
                    08:72:a0:ff:58:e2:5d:26:11:f5:b8:6e:de:d7:c3:
                    bb:26:51:c8:d0:36:14:00:76:42:4d:03:73:ef:88:
                    b9:37:f4:e8:9d:61:45:96:e1:8e:6c:78:58:e1:f6:
                    cf:46:8a:d6:a5:79:4d:47:88:ca:6c:69:4e:28:d4:
                    8d:84:a8:e1:6c:1d:d3:36:7e:23:e3:64:d5:0a:a3:
                    fc:36:89:90:0a:ff:7e:8b:fa:2e:66:fb:c7:33:44:
                    92:df:0f:43:b2:eb:24:7e:2b:ae:b0:43:a9:ad:53:
                    82:f8:de:17:19:26:5f:ca:8c:ac:0c:1f:24:bd:15:
                    ed:4f:5d:82:ea:10:eb:05:70:4f:03:60:d9:23:6d:
                    21:07:4d:12:9c:f3:64:ee:76:fb:9d:f9:c3:d8:1a:
                    3b:6e:a9:82:7b:2d:2e:b0:74:b7:13:d6:65:8a:06:
                    f2:25:74:c2:26:e9:71:66:54:61:fe:2a:34:27:07:
                    c9:8d:ef:a0:a2:86:93:41:47:73:08:01:07:cc:4d:
                    ec:fe:80:88:93:fb:ae:b4:91:16:fa:83:96:84:66:
                    53:cd:f3:52:da:d4:25:e1:09:15:20:e2:10:ea:dd:
                    39:ef
                Exponent: 65537 (0x10001)
        X509v3 extensions:
            X509v3 Subject Key Identifier: 
                4A:53:4A:B7:30:78:35:91:B4:CB:DD:C8:22:74:89:AF:80:0F:7F:68
            X509v3 Authority Key Identifier: 
                keyid:27:8E:67:11:74:C3:26:1D:3F:ED:33:63:B3:A4:D8:1D:30:E5:E8:D5
                DirName:/C=US/ST=Montana/L=Bozeman/O=Sawtooth/OU=Consulting/CN=www.wolfssl.com/emailAddress=info@wolfssl.com
                serial:86:FF:F5:8E:10:DE:B8:FB

            X509v3 Basic Constraints: 
                CA:TRUE, pathlen:0
            X509v3 Key Usage: 
                Certificate Sign, CRL Sign
    Signature Algorithm: sha1WithRSAEncryption
         2d:ca:3d:06:3c:0b:90:2e:87:05:58:6f:99:83:96:90:55:05:
         51:b1:dd:73:d3:a5:4c:bb:6d:c3:10:ef:da:53:db:65:15:25:
         00:a5:6b:d4:ac:33:47:75:5d:39:9a:96:11:c1:c3:03:2d:3c:
         70:b6:94:35:af:7d:d1:51:9d:d3:bf:f7:09:21:77:64:ce:fa:
         92:0b:95:94:7a:84:76:ed:55:79:3f:e7:db:42:8d:40:00:dc:
         77:11:a6:4c:98:33:92:34:2c:8a:cf:b8:85:bd:0e:1f:63:97:
         0a:e3:7a:b5:26:f7:36:68:a1:a5:0a:1c:4f:69:f0:c7:12:70:
         38:8b:16:58:88:89:8f:1f:79:c5:3e:49:08:93:9e:21:cf:ec:
         72:10:ab:a5:67:16:f1:e0:01:54:fc:2b:05:d6:5f:6a:8b:8e:
         b5:90:97:dc:24:b1:06:2e:b0:4a:96:08:54:39:ab:97:ca:67:
         3e:7c:a8:10:01:10:98:47:6b:62:05:f7:83:85:63:d3:28:b7:
         e6:61:09:0a:7d:50:2f:d4:e1:1d:af:8c:23:03:0b:e3:aa:d0:
         15:fe:4d:51:7c:49:de:0b:fb:fe:f5:fb:cd:25:4b:b5:2f:7d:
         e6:55:c8:c2:a3:0b:26:60:8f:79:b0:d1:8f:83:1f:36:91:aa:
         24:0e:d6:0d
-----BEGIN CERTIFICATE-----
MIIEwTCCA6mgAwIBAgIBZDANBgkqhkiG9w0BAQUFADCBlDELMAkGA1UEBhMCVVMx
EDAOBgNVBAgMB01vbnRhbmExEDAOBgNVBAcMB0JvemVtYW4xETAPBgNVBAoMCFNh
d3Rvb3RoMRMwEQYDVQQLDApDb25zdWx0aW5nMRgwFgYDVQQDDA93d3cud29sZnNz
bC5jb20xHzAdBgkqhkiG9w0BCQEWEGluZm9Ad29sZnNzbC5jb20wHhcNMTkxMDEw
MjEzMjQyWhcNMjIwNzA2MjEzMjQyWjCBoTELMAkGA1UEBhMCVVMxEzARBgNVBAgM
Cldhc2hpbmd0b24xEDAOBgNVBAcMB1NlYXR0bGUxFTATBgNVBAoMDHdvbGZTU0wg
SW5jLjEUMBIGA1UECwwLRW5naW5lZXJpbmcxHTAbBgNVBAMMFGNoYWluRi1JQ0Ey
LXBhdGhsZW4wMR8wHQYJKoZIhvcNAQkBFhBpbmZvQHdvbGZzc2wuY29tMIIBIjAN
BgkqhkiG9w0BAQEFAAOCAQ8AMIIBCgKCAQEA2joiZfhtHLcch90n9Nd1qnwcNzG0
1qU0SzZA6lUIcqD/WOJdJhH1uG7e18O7JlHI0DYUAHZCTQNz74i5N/TonWFFluGO
bHhY4fbPRorWpXlNR4jKbGlOKNSNhKjhbB3TNn4j42TVCqP8NomQCv9+i/ouZvvH
M0SS3w9DsuskfiuusEOprVOC+N4XGSZfyoysDB8kvRXtT12C6hDrBXBPA2DZI20h
B00SnPNk7nb7nfnD2Bo7bqmCey0usHS3E9ZligbyJXTCJulxZlRh/io0JwfJje+g
ooaTQUdzCAEHzE3s/oCIk/uutJEW+oOWhGZTzfNS2tQl4QkVIOIQ6t057wIDAQAB
o4IBDTCCAQkwHQYDVR0OBBYEFEpTSrcweDWRtMvdyCJ0ia+AD39oMIHJBgNVHSME
gcEwgb6AFCeOZxF0wyYdP+0zY7Ok2B0w5ejVoYGapIGXMIGUMQswCQYDVQQGEwJV
UzEQMA4GA1UECAwHTW9udGFuYTEQMA4GA1UEBwwHQm96ZW1hbjERMA8GA1UECgwI
U2F3dG9vdGgxEzARBgNVBAsMCkNvbnN1bHRpbmcxGDAWBgNVBAMMD3d3dy53b2xm
c3NsLmNvbTEfMB0GCSqGSIb3DQEJARYQaW5mb0B3b2xmc3NsLmNvbYIJAIb/9Y4Q
3rj7MA8GA1UdEwQIMAYBAf8CAQAwCwYDVR0PBAQDAgEGMA0GCSqGSIb3DQEBBQUA
A4IBAQAtyj0GPAuQLocFWG+Zg5aQVQVRsd1z06VMu23DEO/aU9tlFSUApWvUrDNH
dV05mpYRwcMDLTxwtpQ1r33RUZ3Tv/cJIXdkzvqSC5WUeoR27VV5P+fbQo1AANx3
EaZMmDOSNCyKz7iFvQ4fY5cK43q1Jvc2aKGlChxPafDHEnA4ixZYiImPH3nFPkkI
k54hz+xyEKulZxbx4AFU/CsF1l9qi461kJfcJLEGLrBKlghUOauXymc+fKgQARCY
R2tiBfeDhWPTKLfmYQkKfVAv1OEdr4wjAwvjqtAV/k1RfEneC/v+9fvNJUu1L33m
VcjCowsmYI95sNGPgx82kaokDtYN
-----END CERTIFICATE-----
