Certificate:
    Data:
        Version: 3 (0x2)
        Serial Number: 101 (0x65)
        Signature Algorithm: sha256WithRSAEncryption
        Issuer: C=US, ST=Washington, L=Seattle, O=wolfSSL Inc., OU=Engineering, CN=chainI-ICA1-no_pathlen, emailAddress=facts@wolfssl.com
        Validity
            Not Before: Jun 11 21:44:40 2026 GMT
            Not After : Mar  7 21:44:40 2029 GMT
        Subject: C=US, ST=Washington, L=Seattle, O=wolfSSL Inc., OU=Engineering, CN=chainI-entity, emailAddress=facts@wolfssl.com
        Subject Public Key Info:
            Public Key Algorithm: rsaEncryption
                Public-Key: (2048 bit)
                Modulus:
                    00:f3:ac:32:8f:52:af:a9:cf:9e:23:a4:96:8e:e9:
                    e8:0a:3a:b7:6a:7b:ba:70:85:68:e2:52:f3:38:39:
                    cf:c8:f1:8a:f6:55:1e:59:fa:97:fe:e7:9b:07:2a:
                    b6:80:2a:92:d9:39:95:9e:0c:1f:d7:ad:1f:74:4d:
                    8e:61:6f:64:24:4c:d4:95:03:8f:d3:f2:3d:6e:d8:
                    d8:d5:aa:64:7d:82:ee:74:07:16:68:fa:95:17:9b:
                    35:8f:c3:6c:47:88:3e:40:de:93:36:ed:62:f4:cc:
                    67:45:ee:ea:45:9f:fc:f1:63:6d:b7:fa:f8:c3:e0:
                    6f:c7:4a:3e:04:49:04:37:8b:3a:99:e8:64:0a:86:
                    43:ab:5b:34:1e:6c:33:a2:a4:26:7c:c7:6c:48:99:
                    7d:85:f5:1f:c1:9c:a9:c7:8f:51:6b:8a:86:8d:1c:
                    b0:d2:82:ba:a4:a7:09:29:8b:0a:20:d1:7c:b1:67:
                    0c:61:cd:88:33:5e:38:ab:08:78:0b:80:0b:ce:63:
                    03:b9:40:7b:67:3e:a8:ac:4e:44:92:09:4c:3f:e0:
                    3d:55:cb:aa:5a:bc:17:9c:4e:9e:40:5c:82:fc:3b:
                    3a:54:40:90:f9:22:3c:f4:00:5f:95:13:72:49:29:
                    ae:5f:31:22:30:04:05:6a:7b:b5:0a:0a:a6:5e:72:
                    4d:5f
                Exponent: 65537 (0x10001)
        X509v3 extensions:
            X509v3 Subject Key Identifier: 
                EB:B5:A2:7B:24:95:03:11:6B:56:CB:13:3E:A8:B2:8F:B1:CF:5D:C4
            X509v3 Authority Key Identifier: 
                keyid:9E:54:B6:95:EA:89:07:A6:C9:E4:82:E8:D0:34:64:5D:08:CD:56:A0
                DirName:/C=US/ST=Washington/L=Seattle/O=wolfSSL Inc./OU=Engineering/CN=chainI-ICA2-no_pathlen/emailAddress=facts@wolfssl.com
                serial:64
            X509v3 Basic Constraints: 
                CA:FALSE
    Signature Algorithm: sha256WithRSAEncryption
    Signature Value:
        b8:77:9e:19:b9:20:db:a4:6f:ba:85:39:6c:1f:66:aa:a4:be:
        fb:6a:c3:78:a4:fc:e5:03:9e:0c:d7:a0:d5:8f:07:b2:72:d2:
        ee:94:d0:f2:6d:43:08:fe:24:a4:0a:36:27:d5:b8:98:a9:2d:
        26:58:30:08:81:44:52:d3:34:2f:85:8a:bf:cd:96:0a:17:c7:
        a1:56:27:4c:5b:45:3b:24:4c:36:e9:ec:18:67:b1:50:59:c8:
        02:c9:04:5c:c3:f2:10:39:cb:fb:da:7d:1e:ad:02:c1:2b:b6:
        a1:3e:bb:7d:c9:62:b9:ad:e8:5d:90:c3:07:16:36:37:32:27:
        18:67:17:79:c9:32:0e:e9:45:6a:c5:aa:ef:48:23:7d:3f:b7:
        65:1d:72:cd:67:b4:c7:fe:2e:4d:2d:18:66:0d:b8:0c:33:a1:
        3f:8c:ac:75:9f:24:a2:4b:6b:4a:da:e9:28:b7:fc:cb:bb:a4:
        12:aa:d6:b6:12:5b:23:36:6d:4d:6e:35:22:6c:df:2f:6d:ef:
        5d:86:76:96:5e:3c:d4:50:8b:97:fc:7e:b5:8d:66:64:c8:86:
        7c:ac:56:af:9a:ae:4e:3d:a8:44:b6:dd:0c:70:5f:a4:91:c9:
        ef:d8:bd:61:a6:5f:73:32:b9:bf:1c:03:40:38:98:d4:f4:1e:
        4b:68:98:53
-----BEGIN CERTIFICATE-----
MIIEvzCCA6egAwIBAgIBZTANBgkqhkiG9w0BAQsFADCBpDELMAkGA1UEBhMCVVMx
EzARBgNVBAgMCldhc2hpbmd0b24xEDAOBgNVBAcMB1NlYXR0bGUxFTATBgNVBAoM
DHdvbGZTU0wgSW5jLjEUMBIGA1UECwwLRW5naW5lZXJpbmcxHzAdBgNVBAMMFmNo
YWluSS1JQ0ExLW5vX3BhdGhsZW4xIDAeBgkqhkiG9w0BCQEWEWZhY3RzQHdvbGZz
c2wuY29tMB4XDTI2MDYxMTIxNDQ0MFoXDTI5MDMwNzIxNDQ0MFowgZsxCzAJBgNV
BAYTAlVTMRMwEQYDVQQIDApXYXNoaW5ndG9uMRAwDgYDVQQHDAdTZWF0dGxlMRUw
EwYDVQQKDAx3b2xmU1NMIEluYy4xFDASBgNVBAsMC0VuZ2luZWVyaW5nMRYwFAYD
VQQDDA1jaGFpbkktZW50aXR5MSAwHgYJKoZIhvcNAQkBFhFmYWN0c0B3b2xmc3Ns
LmNvbTCCASIwDQYJKoZIhvcNAQEBBQADggEPADCCAQoCggEBAPOsMo9Sr6nPniOk
lo7p6Ao6t2p7unCFaOJS8zg5z8jxivZVHln6l/7nmwcqtoAqktk5lZ4MH9etH3RN
jmFvZCRM1JUDj9PyPW7Y2NWqZH2C7nQHFmj6lRebNY/DbEeIPkDekzbtYvTMZ0Xu
6kWf/PFjbbf6+MPgb8dKPgRJBDeLOpnoZAqGQ6tbNB5sM6KkJnzHbEiZfYX1H8Gc
qcePUWuKho0csNKCuqSnCSmLCiDRfLFnDGHNiDNeOKsIeAuAC85jA7lAe2c+qKxO
RJIJTD/gPVXLqlq8F5xOnkBcgvw7OlRAkPkiPPQAX5UTckkprl8xIjAEBWp7tQoK
pl5yTV8CAwEAAaOCAQEwgf4wHQYDVR0OBBYEFOu1onsklQMRa1bLEz6oso+xz13E
MIHRBgNVHSMEgckwgcaAFJ5UtpXqiQemyeSC6NA0ZF0IzVagoYGqpIGnMIGkMQsw
CQYDVQQGEwJVUzETMBEGA1UECAwKV2FzaGluZ3RvbjEQMA4GA1UEBwwHU2VhdHRs
ZTEVMBMGA1UECgwMd29sZlNTTCBJbmMuMRQwEgYDVQQLDAtFbmdpbmVlcmluZzEf
MB0GA1UEAwwWY2hhaW5JLUlDQTItbm9fcGF0aGxlbjEgMB4GCSqGSIb3DQEJARYR
ZmFjdHNAd29sZnNzbC5jb22CAWQwCQYDVR0TBAIwADANBgkqhkiG9w0BAQsFAAOC
AQEAuHeeGbkg26RvuoU5bB9mqqS++2rDeKT85QOeDNeg1Y8HsnLS7pTQ8m1DCP4k
pAo2J9W4mKktJlgwCIFEUtM0L4WKv82WChfHoVYnTFtFOyRMNunsGGexUFnIAskE
XMPyEDnL+9p9Hq0CwSu2oT67fcliua3oXZDDBxY2NzInGGcXeckyDulFasWq70gj
fT+3ZR1yzWe0x/4uTS0YZg24DDOhP4ysdZ8koktrStrpKLf8y7ukEqrWthJbIzZt
TW41ImzfL23vXYZ2ll481FCLl/x+tY1mZMiGfKxWr5quTj2oRLbdDHBfpJHJ79i9
YaZfczK5vxwDQDiY1PQeS2iYUw==
-----END CERTIFICATE-----
Certificate:
    Data:
        Version: 3 (0x2)
        Serial Number: 100 (0x64)
        Signature Algorithm: sha256WithRSAEncryption
        Issuer: C=US, ST=Washington, L=Seattle, O=wolfSSL Inc., OU=Engineering, CN=chainI-ICA2-no_pathlen, emailAddress=facts@wolfssl.com
        Validity
            Not Before: Jun 11 21:44:40 2026 GMT
            Not After : Mar  7 21:44:40 2029 GMT
        Subject: C=US, ST=Washington, L=Seattle, O=wolfSSL Inc., OU=Engineering, CN=chainI-ICA1-no_pathlen, emailAddress=facts@wolfssl.com
        Subject Public Key Info:
            Public Key Algorithm: rsaEncryption
                Public-Key: (2048 bit)
                Modulus:
                    00:bb:ba:06:ad:13:cf:da:fb:d1:cb:65:fe:26:58:
                    49:6a:01:14:a6:78:b2:2c:1d:ba:ba:d0:bd:27:38:
                    66:7c:a0:1b:28:08:3c:6a:fd:f8:87:be:49:a2:ed:
                    38:f2:4c:b0:8b:93:ff:d2:c5:3f:cd:03:c5:14:79:
                    e8:76:63:7a:aa:a7:54:1e:0e:27:bd:1b:be:e8:3f:
                    2b:55:40:f0:59:23:d8:3f:e8:05:1a:0b:71:f0:fd:
                    24:d9:f9:0b:99:25:da:af:96:34:ee:e1:91:cb:fc:
                    8f:a0:41:8f:9c:e1:4f:57:5f:b6:d6:55:69:6f:c3:
                    64:c3:11:a9:69:40:85:df:f3:9a:59:b5:ee:90:c0:
                    22:ee:72:28:2e:d3:da:65:27:3b:ba:42:c0:9e:73:
                    ba:a2:f2:45:13:7a:c5:1d:30:a5:b7:db:75:5d:6f:
                    cc:08:77:80:67:8d:18:2a:ca:02:8d:8e:d3:9c:2a:
                    fa:b7:8f:1b:7d:ef:62:77:a4:fa:b6:d8:5a:3e:66:
                    9c:3e:13:45:a8:cf:61:fb:ff:41:45:14:21:e2:63:
                    ac:81:4d:65:89:e3:d5:71:20:01:19:76:ec:a4:16:
                    a6:ef:3c:bc:f2:a2:56:2b:07:31:67:0d:e5:97:88:
                    e8:db:cb:4d:98:cb:99:e6:e0:bd:62:48:2b:b1:04:
                    12:07
                Exponent: 65537 (0x10001)
        X509v3 extensions:
            X509v3 Subject Key Identifier: 
                9E:54:B6:95:EA:89:07:A6:C9:E4:82:E8:D0:34:64:5D:08:CD:56:A0
            X509v3 Authority Key Identifier: 
                keyid:D1:BA:FB:FF:1D:29:41:8A:6A:5F:B2:F3:A7:41:05:47:09:1F:48:42
                DirName:/C=US/ST=Washington/L=Seattle/O=wolfSSL Inc./OU=Engineering/CN=chainI-ICA3-pathlen2/emailAddress=facts@wolfssl.com
                serial:64
            X509v3 Basic Constraints: 
                CA:TRUE
            X509v3 Key Usage: 
                Certificate Sign, CRL Sign
    Signature Algorithm: sha256WithRSAEncryption
    Signature Value:
        06:c7:3c:72:e1:94:e4:ef:bf:eb:54:91:5e:22:00:a1:46:30:
        bb:c4:9c:64:39:73:f3:9c:71:82:df:78:47:7e:64:80:bd:fb:
        91:06:cc:9e:63:5a:1b:cc:86:90:a3:34:94:34:e5:99:d4:b3:
        1e:7a:9a:b8:a8:77:9a:5f:cc:6e:94:87:79:b6:dc:5e:25:ec:
        81:59:ca:23:84:fc:06:26:4d:ca:1e:22:ef:39:dc:a6:23:77:
        5d:ba:de:1c:de:19:02:8a:1a:f5:fe:0d:5e:7b:b0:2f:57:b6:
        a9:c3:ef:46:7d:ad:f0:19:9c:b9:5c:71:52:0f:69:22:a0:b5:
        45:c9:97:88:95:fd:32:90:fc:7e:52:1a:b9:1f:d5:95:83:91:
        a2:e6:0c:5e:d1:86:0a:8e:0b:b2:10:2c:84:0a:ed:2c:4f:4c:
        53:35:56:10:7a:c4:81:97:6f:7d:5f:e1:1e:00:ed:c8:7b:31:
        bd:91:3b:e3:eb:29:c1:2e:34:e2:a8:66:b2:55:bd:69:b1:cf:
        c6:c0:18:f1:e9:f9:b7:6f:2f:f5:d8:6b:69:7e:a6:c1:51:19:
        10:bc:e4:67:94:44:4f:cd:ed:7e:e9:f7:b2:ce:67:3d:aa:5e:
        c2:f3:d5:6a:7e:20:aa:18:a0:5f:67:f9:7c:6e:12:c7:11:91:
        22:4e:7e:64
-----BEGIN CERTIFICATE-----
MIIE1zCCA7+gAwIBAgIBZDANBgkqhkiG9w0BAQsFADCBpDELMAkGA1UEBhMCVVMx
EzARBgNVBAgMCldhc2hpbmd0b24xEDAOBgNVBAcMB1NlYXR0bGUxFTATBgNVBAoM
DHdvbGZTU0wgSW5jLjEUMBIGA1UECwwLRW5naW5lZXJpbmcxHzAdBgNVBAMMFmNo
YWluSS1JQ0EyLW5vX3BhdGhsZW4xIDAeBgkqhkiG9w0BCQEWEWZhY3RzQHdvbGZz
c2wuY29tMB4XDTI2MDYxMTIxNDQ0MFoXDTI5MDMwNzIxNDQ0MFowgaQxCzAJBgNV
BAYTAlVTMRMwEQYDVQQIDApXYXNoaW5ndG9uMRAwDgYDVQQHDAdTZWF0dGxlMRUw
EwYDVQQKDAx3b2xmU1NMIEluYy4xFDASBgNVBAsMC0VuZ2luZWVyaW5nMR8wHQYD
VQQDDBZjaGFpbkktSUNBMS1ub19wYXRobGVuMSAwHgYJKoZIhvcNAQkBFhFmYWN0
c0B3b2xmc3NsLmNvbTCCASIwDQYJKoZIhvcNAQEBBQADggEPADCCAQoCggEBALu6
Bq0Tz9r70ctl/iZYSWoBFKZ4siwdurrQvSc4ZnygGygIPGr9+Ie+SaLtOPJMsIuT
/9LFP80DxRR56HZjeqqnVB4OJ70bvug/K1VA8Fkj2D/oBRoLcfD9JNn5C5kl2q+W
NO7hkcv8j6BBj5zhT1dfttZVaW/DZMMRqWlAhd/zmlm17pDAIu5yKC7T2mUnO7pC
wJ5zuqLyRRN6xR0wpbfbdV1vzAh3gGeNGCrKAo2O05wq+rePG33vYnek+rbYWj5m
nD4TRajPYfv/QUUUIeJjrIFNZYnj1XEgARl27KQWpu88vPKiVisHMWcN5ZeI6NvL
TZjLmebgvWJIK7EEEgcCAwEAAaOCARAwggEMMB0GA1UdDgQWBBSeVLaV6okHpsnk
gujQNGRdCM1WoDCBzwYDVR0jBIHHMIHEgBTRuvv/HSlBimpfsvOnQQVHCR9IQqGB
qKSBpTCBojELMAkGA1UEBhMCVVMxEzARBgNVBAgMCldhc2hpbmd0b24xEDAOBgNV
BAcMB1NlYXR0bGUxFTATBgNVBAoMDHdvbGZTU0wgSW5jLjEUMBIGA1UECwwLRW5n
aW5lZXJpbmcxHTAbBgNVBAMMFGNoYWluSS1JQ0EzLXBhdGhsZW4yMSAwHgYJKoZI
hvcNAQkBFhFmYWN0c0B3b2xmc3NsLmNvbYIBZDAMBgNVHRMEBTADAQH/MAsGA1Ud
DwQEAwIBBjANBgkqhkiG9w0BAQsFAAOCAQEABsc8cuGU5O+/61SRXiIAoUYwu8Sc
ZDlz85xxgt94R35kgL37kQbMnmNaG8yGkKM0lDTlmdSzHnqauKh3ml/MbpSHebbc
XiXsgVnKI4T8BiZNyh4i7zncpiN3XbreHN4ZAooa9f4NXnuwL1e2qcPvRn2t8Bmc
uVxxUg9pIqC1RcmXiJX9MpD8flIauR/VlYORouYMXtGGCo4LshAshArtLE9MUzVW
EHrEgZdvfV/hHgDtyHsxvZE74+spwS404qhmslW9abHPxsAY8en5t28v9dhraX6m
wVEZELzkZ5RET83tfun3ss5nPapewvPVan4gqhigX2f5fG4SxxGRIk5+ZA==
-----END CERTIFICATE-----
Certificate:
    Data:
        Version: 3 (0x2)
        Serial Number: 100 (0x64)
        Signature Algorithm: sha256WithRSAEncryption
        Issuer: C=US, ST=Washington, L=Seattle, O=wolfSSL Inc., OU=Engineering, CN=chainI-ICA3-pathlen2, emailAddress=facts@wolfssl.com
        Validity
            Not Before: Jun 11 21:44:40 2026 GMT
            Not After : Mar  7 21:44:40 2029 GMT
        Subject: C=US, ST=Washington, L=Seattle, O=wolfSSL Inc., OU=Engineering, CN=chainI-ICA2-no_pathlen, emailAddress=facts@wolfssl.com
        Subject Public Key Info:
            Public Key Algorithm: rsaEncryption
                Public-Key: (2048 bit)
                Modulus:
                    00:de:1e:08:66:12:fe:20:07:10:1b:a1:27:0d:f9:
                    22:30:81:9b:ce:62:b1:a6:6d:49:d4:ed:b8:2d:4b:
                    97:77:1e:94:51:3d:73:2b:16:e9:05:e9:4c:1b:82:
                    ad:47:9d:33:30:53:b5:9b:d2:2d:e9:7b:d6:63:f3:
                    61:20:1b:23:6e:47:09:8b:c0:d5:09:85:a6:e2:e4:
                    3a:4d:b3:f9:dd:c6:7c:9a:42:07:22:d5:7b:67:18:
                    38:c4:fc:ea:8d:09:80:a0:b0:44:33:fd:c1:aa:8b:
                    9c:98:e3:95:c3:74:71:3b:71:b8:b3:80:bf:30:63:
                    85:09:27:8b:12:b5:86:b0:0b:99:ff:97:42:52:a0:
                    ac:b2:38:38:8d:13:96:d9:d6:fa:8f:c4:89:14:06:
                    9c:1f:0a:a3:3a:a2:f7:1f:83:d8:ae:41:44:9e:21:
                    b2:5b:b7:a2:19:e9:46:58:de:e5:a2:ab:07:7a:9a:
                    9a:60:bc:14:ed:cf:4d:42:fc:5c:28:ea:42:d1:ae:
                    cc:71:7e:52:5d:84:88:de:b6:7d:72:6e:ab:73:4b:
                    0d:ab:92:9f:11:b4:51:da:14:54:9a:0e:ec:ac:42:
                    fc:71:87:5b:54:38:09:2c:f0:5d:86:0c:34:b7:92:
                    33:5c:3e:19:b1:4d:a0:62:9b:b4:68:36:36:38:ec:
                    29:b3
                Exponent: 65537 (0x10001)
        X509v3 extensions:
            X509v3 Subject Key Identifier: 
                D1:BA:FB:FF:1D:29:41:8A:6A:5F:B2:F3:A7:41:05:47:09:1F:48:42
            X509v3 Authority Key Identifier: 
                keyid:EE:37:A6:F2:40:D0:EF:FD:22:C7:A3:B4:6C:57:47:40:B9:99:F9:8D
                DirName:/C=US/ST=Montana/L=Bozeman/O=Sawtooth/OU=Consulting/CN=www.wolfssl.com/emailAddress=facts@wolfssl.com
                serial:64
            X509v3 Basic Constraints: 
                CA:TRUE
            X509v3 Key Usage: 
                Certificate Sign, CRL Sign
    Signature Algorithm: sha256WithRSAEncryption
    Signature Value:
        ab:96:88:76:81:e7:6b:a0:26:95:74:4b:35:d8:7d:df:25:ca:
        b3:c2:a7:92:67:fc:7f:c4:d0:1f:8f:ee:3a:db:59:ba:fa:ef:
        91:bd:4e:71:15:ec:0a:dc:c6:d4:79:d9:82:85:be:8e:95:4a:
        0c:eb:e7:99:d0:e1:9b:d9:7c:71:60:60:a5:ae:69:c1:de:57:
        0b:70:03:cc:66:0e:da:9b:db:dd:55:79:76:5f:0f:3f:f3:6b:
        46:4b:43:fe:3d:10:50:6f:d5:d3:9e:1b:a8:44:8e:15:34:64:
        42:bb:d4:c3:2c:19:a3:dc:e8:70:c7:b0:f7:2d:87:a9:35:d5:
        94:27:c5:3f:68:53:ab:14:18:95:86:9d:e4:94:ee:67:d1:83:
        89:3b:9a:57:ba:3c:98:16:30:06:7a:94:21:48:dd:ba:49:70:
        16:84:a6:86:39:5e:4f:41:7f:de:a9:85:13:e5:a8:b7:d8:87:
        3e:d1:aa:ef:08:5b:1c:ca:87:76:a9:e7:bd:0b:23:b5:c1:0f:
        b7:41:2b:cc:ec:b3:7b:2b:37:ba:f5:65:6e:e7:04:c1:86:52:
        54:de:73:09:28:42:d0:21:2e:2b:22:0d:8b:c3:14:da:e1:88:
        85:0d:74:b3:df:2c:83:0d:3c:ac:41:c5:f4:2f:f8:4f:3b:00:
        ba:b7:01:96
-----BEGIN CERTIFICATE-----
MIIExzCCA6+gAwIBAgIBZDANBgkqhkiG9w0BAQsFADCBojELMAkGA1UEBhMCVVMx
EzARBgNVBAgMCldhc2hpbmd0b24xEDAOBgNVBAcMB1NlYXR0bGUxFTATBgNVBAoM
DHdvbGZTU0wgSW5jLjEUMBIGA1UECwwLRW5naW5lZXJpbmcxHTAbBgNVBAMMFGNo
YWluSS1JQ0EzLXBhdGhsZW4yMSAwHgYJKoZIhvcNAQkBFhFmYWN0c0B3b2xmc3Ns
LmNvbTAeFw0yNjA2MTEyMTQ0NDBaFw0yOTAzMDcyMTQ0NDBaMIGkMQswCQYDVQQG
EwJVUzETMBEGA1UECAwKV2FzaGluZ3RvbjEQMA4GA1UEBwwHU2VhdHRsZTEVMBMG
A1UECgwMd29sZlNTTCBJbmMuMRQwEgYDVQQLDAtFbmdpbmVlcmluZzEfMB0GA1UE
AwwWY2hhaW5JLUlDQTItbm9fcGF0aGxlbjEgMB4GCSqGSIb3DQEJARYRZmFjdHNA
d29sZnNzbC5jb20wggEiMA0GCSqGSIb3DQEBAQUAA4IBDwAwggEKAoIBAQDeHghm
Ev4gBxAboScN+SIwgZvOYrGmbUnU7bgtS5d3HpRRPXMrFukF6Uwbgq1HnTMwU7Wb
0i3pe9Zj82EgGyNuRwmLwNUJhabi5DpNs/ndxnyaQgci1XtnGDjE/OqNCYCgsEQz
/cGqi5yY45XDdHE7cbizgL8wY4UJJ4sStYawC5n/l0JSoKyyODiNE5bZ1vqPxIkU
BpwfCqM6ovcfg9iuQUSeIbJbt6IZ6UZY3uWiqwd6mppgvBTtz01C/Fwo6kLRrsxx
flJdhIjetn1ybqtzSw2rkp8RtFHaFFSaDuysQvxxh1tUOAks8F2GDDS3kjNcPhmx
TaBim7RoNjY47CmzAgMBAAGjggECMIH/MB0GA1UdDgQWBBTRuvv/HSlBimpfsvOn
QQVHCR9IQjCBwgYDVR0jBIG6MIG3gBTuN6byQNDv/SLHo7RsV0dAuZn5jaGBm6SB
mDCBlTELMAkGA1UEBhMCVVMxEDAOBgNVBAgMB01vbnRhbmExEDAOBgNVBAcMB0Jv
emVtYW4xETAPBgNVBAoMCFNhd3Rvb3RoMRMwEQYDVQQLDApDb25zdWx0aW5nMRgw
FgYDVQQDDA93d3cud29sZnNzbC5jb20xIDAeBgkqhkiG9w0BCQEWEWZhY3RzQHdv
bGZzc2wuY29tggFkMAwGA1UdEwQFMAMBAf8wCwYDVR0PBAQDAgEGMA0GCSqGSIb3
DQEBCwUAA4IBAQCrloh2gedroCaVdEs12H3fJcqzwqeSZ/x/xNAfj+4621m6+u+R
vU5xFewK3MbUedmChb6OlUoM6+eZ0OGb2XxxYGClrmnB3lcLcAPMZg7am9vdVXl2
Xw8/82tGS0P+PRBQb9XTnhuoRI4VNGRCu9TDLBmj3Ohwx7D3LYepNdWUJ8U/aFOr
FBiVhp3klO5n0YOJO5pXujyYFjAGepQhSN26SXAWhKaGOV5PQX/eqYUT5ai32Ic+
0arvCFscyod2qee9CyO1wQ+3QSvM7LN7Kze69WVu5wTBhlJU3nMJKELQIS4rIg2L
wxTa4YiFDXSz3yyDDTysQcX0L/hPOwC6twGW
-----END CERTIFICATE-----
Certificate:
    Data:
        Version: 3 (0x2)
        Serial Number: 100 (0x64)
        Signature Algorithm: sha256WithRSAEncryption
        Issuer: C=US, ST=Montana, L=Bozeman, O=Sawtooth, OU=Consulting, CN=www.wolfssl.com, emailAddress=facts@wolfssl.com
        Validity
            Not Before: Jun 11 21:44:40 2026 GMT
            Not After : Mar  7 21:44:40 2029 GMT
        Subject: C=US, ST=Washington, L=Seattle, O=wolfSSL Inc., OU=Engineering, CN=chainI-ICA3-pathlen2, emailAddress=facts@wolfssl.com
        Subject Public Key Info:
            Public Key Algorithm: rsaEncryption
                Public-Key: (2048 bit)
                Modulus:
                    00:b8:36:0c:66:a9:06:ce:ac:e0:7c:86:a1:69:9d:
                    be:28:cf:a3:81:f3:b4:dc:5f:c8:92:9d:f2:07:c0:
                    5e:04:d3:e5:74:19:fc:cf:85:7f:f7:91:8c:d5:58:
                    7c:02:4c:88:f1:4d:43:e3:07:bd:2a:4e:df:51:87:
                    29:74:c5:24:67:1d:f1:6f:8b:07:75:39:89:70:2a:
                    9c:00:e0:2e:6c:7c:74:27:18:34:fd:29:98:43:83:
                    d6:e1:51:b3:13:41:1c:bc:29:dc:8b:2f:93:08:95:
                    8b:90:22:4b:e4:98:f5:d6:70:2a:9b:8b:64:e6:49:
                    06:62:a4:23:08:60:68:97:89:a9:b2:c0:94:8e:4f:
                    39:1c:25:3b:0f:e4:c5:1d:7d:89:89:5e:c6:02:69:
                    68:fc:13:55:b5:80:6b:77:f7:59:57:0b:1c:7e:c6:
                    ed:46:c6:70:fb:34:a1:28:1c:82:b1:c2:ab:a6:c1:
                    f0:13:1b:7d:0b:bc:1a:39:23:3c:e7:1d:ee:c8:ee:
                    2f:69:5f:a1:31:3f:1a:2f:98:5d:53:d7:42:93:db:
                    49:ac:d6:7a:12:2e:9d:0d:c9:b0:ef:40:d1:a4:02:
                    5e:52:e8:fb:d4:92:07:98:b1:76:d9:16:0f:e4:8b:
                    de:dc:88:65:e0:fd:52:1d:8b:e2:e3:ed:08:37:d0:
                    11:f7
                Exponent: 65537 (0x10001)
        X509v3 extensions:
            X509v3 Subject Key Identifier: 
                EE:37:A6:F2:40:D0:EF:FD:22:C7:A3:B4:6C:57:47:40:B9:99:F9:8D
            X509v3 Authority Key Identifier: 
                keyid:27:8E:67:11:74:C3:26:1D:3F:ED:33:63:B3:A4:D8:1D:30:E5:E8:D5
                DirName:/C=US/ST=Montana/L=Bozeman/O=Sawtooth/OU=Consulting/CN=www.wolfssl.com/emailAddress=facts@wolfssl.com
                serial:67:19:D2:A8:7F:E3:2D:FA:75:7A:4F:E7:B2:02:D9:AD:C4:77:5E:F8
            X509v3 Basic Constraints: 
                CA:TRUE, pathlen:2
            X509v3 Key Usage: 
                Certificate Sign, CRL Sign
    Signature Algorithm: sha256WithRSAEncryption
    Signature Value:
        1f:06:e0:e2:26:95:d5:9e:20:07:1c:c3:ea:9d:c0:44:d8:13:
        6d:37:a6:b7:89:16:3d:fa:86:78:8e:a4:17:1d:35:1e:94:37:
        19:a1:d6:80:62:83:84:c3:3f:7c:fa:43:0c:cc:3d:88:c2:0d:
        d9:bc:82:b8:a4:69:b5:0b:92:8d:8e:5f:1d:c9:1d:72:0b:14:
        54:09:18:ea:b9:d5:44:31:3b:8a:61:e1:37:31:41:b9:68:f7:
        1e:01:c1:df:7a:fb:6d:37:6d:cc:67:67:d3:84:b8:c4:5b:9b:
        dc:af:48:5d:3a:59:25:3e:86:a3:b3:49:e4:a2:cb:69:c3:93:
        f1:97:a0:81:1e:fa:2e:10:ef:7c:3e:1f:11:9a:11:86:fe:9d:
        d4:5c:5a:ff:5d:c2:f1:b7:49:2d:23:23:5a:38:f7:d5:64:96:
        62:db:04:6a:d1:19:dc:03:24:e2:92:bd:c3:13:74:af:29:5d:
        66:3f:a7:17:2e:2c:22:cf:47:d3:7e:86:37:16:ff:6c:14:47:
        c6:13:ea:fc:ea:c2:a0:42:14:b1:15:81:1d:89:91:12:d0:5d:
        13:49:97:7b:a3:82:18:2f:7e:da:83:31:5c:9e:4d:33:03:16:
        2b:85:ab:49:f0:8e:53:ef:69:84:64:82:77:fa:62:48:49:40:
        7a:b5:0c:da
-----BEGIN CERTIFICATE-----
MIIEzzCCA7egAwIBAgIBZDANBgkqhkiG9w0BAQsFADCBlTELMAkGA1UEBhMCVVMx
EDAOBgNVBAgMB01vbnRhbmExEDAOBgNVBAcMB0JvemVtYW4xETAPBgNVBAoMCFNh
d3Rvb3RoMRMwEQYDVQQLDApDb25zdWx0aW5nMRgwFgYDVQQDDA93d3cud29sZnNz
bC5jb20xIDAeBgkqhkiG9w0BCQEWEWZhY3RzQHdvbGZzc2wuY29tMB4XDTI2MDYx
MTIxNDQ0MFoXDTI5MDMwNzIxNDQ0MFowgaIxCzAJBgNVBAYTAlVTMRMwEQYDVQQI
DApXYXNoaW5ndG9uMRAwDgYDVQQHDAdTZWF0dGxlMRUwEwYDVQQKDAx3b2xmU1NM
IEluYy4xFDASBgNVBAsMC0VuZ2luZWVyaW5nMR0wGwYDVQQDDBRjaGFpbkktSUNB
My1wYXRobGVuMjEgMB4GCSqGSIb3DQEJARYRZmFjdHNAd29sZnNzbC5jb20wggEi
MA0GCSqGSIb3DQEBAQUAA4IBDwAwggEKAoIBAQC4NgxmqQbOrOB8hqFpnb4oz6OB
87TcX8iSnfIHwF4E0+V0GfzPhX/3kYzVWHwCTIjxTUPjB70qTt9Rhyl0xSRnHfFv
iwd1OYlwKpwA4C5sfHQnGDT9KZhDg9bhUbMTQRy8KdyLL5MIlYuQIkvkmPXWcCqb
i2TmSQZipCMIYGiXiamywJSOTzkcJTsP5MUdfYmJXsYCaWj8E1W1gGt391lXCxx+
xu1GxnD7NKEoHIKxwqumwfATG30LvBo5IzznHe7I7i9pX6ExPxovmF1T10KT20ms
1noSLp0NybDvQNGkAl5S6PvUkgeYsXbZFg/ki97ciGXg/VIdi+Lj7Qg30BH3AgMB
AAGjggEZMIIBFTAdBgNVHQ4EFgQU7jem8kDQ7/0ix6O0bFdHQLmZ+Y0wgdUGA1Ud
IwSBzTCByoAUJ45nEXTDJh0/7TNjs6TYHTDl6NWhgZukgZgwgZUxCzAJBgNVBAYT
AlVTMRAwDgYDVQQIDAdNb250YW5hMRAwDgYDVQQHDAdCb3plbWFuMREwDwYDVQQK
DAhTYXd0b290aDETMBEGA1UECwwKQ29uc3VsdGluZzEYMBYGA1UEAwwPd3d3Lndv
bGZzc2wuY29tMSAwHgYJKoZIhvcNAQkBFhFmYWN0c0B3b2xmc3NsLmNvbYIUZxnS
qH/jLfp1ek/nsgLZrcR3XvgwDwYDVR0TBAgwBgEB/wIBAjALBgNVHQ8EBAMCAQYw
DQYJKoZIhvcNAQELBQADggEBAB8G4OImldWeIAccw+qdwETYE203preJFj36hniO
pBcdNR6UNxmh1oBig4TDP3z6QwzMPYjCDdm8grikabULko2OXx3JHXILFFQJGOq5
1UQxO4ph4TcxQblo9x4Bwd96+203bcxnZ9OEuMRbm9yvSF06WSU+hqOzSeSiy2nD
k/GXoIEe+i4Q73w+HxGaEYb+ndRcWv9dwvG3SS0jI1o499VklmLbBGrRGdwDJOKS
vcMTdK8pXWY/pxcuLCLPR9N+hjcW/2wUR8YT6vzqwqBCFLEVgR2JkRLQXRNJl3uj
ghgvftqDMVyeTTMDFiuFq0nwjlPvaYRkgnf6YkhJQHq1DNo=
-----END CERTIFICATE-----
