Certificate:
    Data:
        Version: 3 (0x2)
        Serial Number: 101 (0x65)
        Signature Algorithm: sha256WithRSAEncryption
        Issuer: C=US, ST=Washington, L=Seattle, O=wolfSSL Inc., OU=Engineering, CN=chainE-ICA1-pathlen128, emailAddress=info@wolfssl.com
        Validity
            Not Before: Nov 13 20:41:43 2025 GMT
            Not After : Aug  9 20:41:43 2028 GMT
        Subject: C=US, ST=Washington, L=Seattle, O=wolfSSL Inc., OU=Engineering, CN=chainE-entity, emailAddress=info@wolfssl.com
        Subject Public Key Info:
            Public Key Algorithm: rsaEncryption
                Public-Key: (2048 bit)
                Modulus:
                    00:d8:6f:49:bb:56:ea:34:4c:25:a6:8c:44:f6:c9:
                    75:8f:6b:83:b8:8b:ec:c6:f6:d3:c7:40:e2:d1:b2:
                    d8:77:92:e9:97:c4:b6:57:ad:10:c8:cb:e7:0a:40:
                    ef:3c:a8:38:dc:94:22:08:e7:53:2a:c8:7a:26:90:
                    41:43:6f:7b:8f:4e:58:74:69:20:92:9f:12:aa:6a:
                    c5:cf:7f:24:d1:d0:89:2f:6c:5e:62:31:0a:20:23:
                    6b:07:c2:a0:7d:4d:ed:05:6d:2c:b1:9a:85:e6:41:
                    61:12:6c:85:d3:d4:be:7e:cf:23:d9:79:b1:46:23:
                    d7:1a:f7:d6:f4:97:43:a5:08:03:7a:51:0d:b0:e7:
                    56:62:86:37:07:81:e8:21:f1:10:63:41:b6:82:6d:
                    f2:cd:d9:7f:80:6f:a7:4b:77:10:15:54:02:9c:7a:
                    d0:6e:b8:29:98:72:34:08:7b:ce:d7:24:91:48:a6:
                    c3:f2:9d:77:fc:aa:73:13:70:60:f9:8f:37:4c:d7:
                    34:5c:fa:51:b1:c0:d5:25:e1:75:b2:e2:cd:23:97:
                    c9:a6:bf:d3:5e:21:4b:12:f5:b2:d0:df:92:7f:4c:
                    a8:b2:21:43:2c:f9:3e:fb:14:99:1f:ed:76:2c:87:
                    5a:df:72:d3:85:a3:a8:92:1a:ad:66:19:50:44:8a:
                    05:e1
                Exponent: 65537 (0x10001)
        X509v3 extensions:
            X509v3 Subject Key Identifier: 
                26:FC:70:E0:8F:A1:3D:52:82:76:6B:CB:C7:0F:89:9D:2B:86:69:F5
            X509v3 Authority Key Identifier: 
                keyid:44:7B:00:7C:9C:1C:97:9F:97:AA:6B:F2:5E:E6:81:7C:0E:AE:E6:2B
                DirName:/C=US/ST=Montana/L=Bozeman/O=Sawtooth/OU=Consulting/CN=www.wolfssl.com/emailAddress=info@wolfssl.com
                serial:64
            X509v3 Basic Constraints: 
                CA:FALSE
    Signature Algorithm: sha256WithRSAEncryption
    Signature Value:
        59:17:24:b2:8e:c4:27:7e:eb:93:e7:e2:0d:d5:b0:a3:02:40:
        78:6b:03:bb:6c:ad:1c:44:c9:e5:a9:bf:4e:bf:77:6a:fa:d5:
        2c:de:0a:27:e2:27:2f:8e:2d:20:94:1e:a0:3d:10:c7:99:1b:
        d8:b8:96:e3:98:a2:4e:a9:b1:64:a1:27:cb:fd:70:56:a6:db:
        48:e0:5a:a3:6a:a2:68:0e:50:db:e9:39:91:83:98:98:13:46:
        e4:66:bd:b8:63:61:f5:e7:fe:83:d1:22:0b:66:e2:06:1b:2b:
        b2:21:0b:ed:75:5d:85:64:54:54:5b:1c:e3:1a:ad:6f:e3:26:
        8a:6a:a6:6f:97:fd:d9:bc:77:8d:38:b3:14:ef:62:b9:4e:c3:
        b6:0d:73:9c:06:d1:d0:f3:68:bb:e1:8f:fb:0f:e5:72:bf:44:
        45:8b:a4:57:b5:2e:a9:c4:9f:e7:45:6f:e3:97:1b:cf:ec:ca:
        c5:12:64:72:bb:a1:51:b9:74:43:e4:3d:d4:87:4f:22:ce:0f:
        d2:a1:c3:78:4f:46:83:a0:c5:bc:a8:ff:a6:ee:1c:6f:0f:19:
        29:a0:59:b2:6d:56:0a:59:41:3b:1f:fe:3c:b6:32:17:64:4c:
        3b:d3:b6:8b:60:b7:fd:37:d9:41:36:ee:17:db:42:a5:91:8b:
        55:0e:2d:68
-----BEGIN CERTIFICATE-----
MIIErDCCA5SgAwIBAgIBZTANBgkqhkiG9w0BAQsFADCBozELMAkGA1UEBhMCVVMx
EzARBgNVBAgMCldhc2hpbmd0b24xEDAOBgNVBAcMB1NlYXR0bGUxFTATBgNVBAoM
DHdvbGZTU0wgSW5jLjEUMBIGA1UECwwLRW5naW5lZXJpbmcxHzAdBgNVBAMMFmNo
YWluRS1JQ0ExLXBhdGhsZW4xMjgxHzAdBgkqhkiG9w0BCQEWEGluZm9Ad29sZnNz
bC5jb20wHhcNMjUxMTEzMjA0MTQzWhcNMjgwODA5MjA0MTQzWjCBmjELMAkGA1UE
BhMCVVMxEzARBgNVBAgMCldhc2hpbmd0b24xEDAOBgNVBAcMB1NlYXR0bGUxFTAT
BgNVBAoMDHdvbGZTU0wgSW5jLjEUMBIGA1UECwwLRW5naW5lZXJpbmcxFjAUBgNV
BAMMDWNoYWluRS1lbnRpdHkxHzAdBgkqhkiG9w0BCQEWEGluZm9Ad29sZnNzbC5j
b20wggEiMA0GCSqGSIb3DQEBAQUAA4IBDwAwggEKAoIBAQDYb0m7Vuo0TCWmjET2
yXWPa4O4i+zG9tPHQOLRsth3kumXxLZXrRDIy+cKQO88qDjclCII51MqyHomkEFD
b3uPTlh0aSCSnxKqasXPfyTR0IkvbF5iMQogI2sHwqB9Te0FbSyxmoXmQWESbIXT
1L5+zyPZebFGI9ca99b0l0OlCAN6UQ2w51ZihjcHgegh8RBjQbaCbfLN2X+Ab6dL
dxAVVAKcetBuuCmYcjQIe87XJJFIpsPynXf8qnMTcGD5jzdM1zRc+lGxwNUl4XWy
4s0jl8mmv9NeIUsS9bLQ35J/TKiyIUMs+T77FJkf7XYsh1rfctOFo6iSGq1mGVBE
igXhAgMBAAGjgfEwge4wHQYDVR0OBBYEFCb8cOCPoT1SgnZry8cPiZ0rhmn1MIHB
BgNVHSMEgbkwgbaAFER7AHycHJefl6pr8l7mgXwOruYroYGapIGXMIGUMQswCQYD
VQQGEwJVUzEQMA4GA1UECAwHTW9udGFuYTEQMA4GA1UEBwwHQm96ZW1hbjERMA8G
A1UECgwIU2F3dG9vdGgxEzARBgNVBAsMCkNvbnN1bHRpbmcxGDAWBgNVBAMMD3d3
dy53b2xmc3NsLmNvbTEfMB0GCSqGSIb3DQEJARYQaW5mb0B3b2xmc3NsLmNvbYIB
ZDAJBgNVHRMEAjAAMA0GCSqGSIb3DQEBCwUAA4IBAQBZFySyjsQnfuuT5+IN1bCj
AkB4awO7bK0cRMnlqb9Ov3dq+tUs3gon4icvji0glB6gPRDHmRvYuJbjmKJOqbFk
oSfL/XBWpttI4FqjaqJoDlDb6TmRg5iYE0bkZr24Y2H15/6D0SILZuIGGyuyIQvt
dV2FZFRUWxzjGq1v4yaKaqZvl/3ZvHeNOLMU72K5TsO2DXOcBtHQ82i74Y/7D+Vy
v0RFi6RXtS6pxJ/nRW/jlxvP7MrFEmRyu6FRuXRD5D3Uh08izg/SocN4T0aDoMW8
qP+m7hxvDxkpoFmybVYKWUE7H/48tjIXZEw707aLYLf9N9lBNu4X20KlkYtVDi1o
-----END CERTIFICATE-----
