Certificate:
    Data:
        Version: 3 (0x2)
        Serial Number: 100 (0x64)
        Signature Algorithm: sha256WithRSAEncryption
        Issuer: C = US, ST = Washington, L = Seattle, O = wolfSSL Inc., OU = Engineering, CN = chainG-ICA3-pathlen99, emailAddress = info@wolfssl.com
        Validity
            Not Before: Sep 26 17:22:46 2023 GMT
            Not After : Jun 22 17:22:46 2026 GMT
        Subject: C = US, ST = Washington, L = Seattle, O = wolfSSL Inc., OU = Engineering, CN = chainG-ICA2-pathlen1, emailAddress = info@wolfssl.com
        Subject Public Key Info:
            Public Key Algorithm: rsaEncryption
                Public-Key: (2048 bit)
                Modulus:
                    00:d7:3e:de:b9:f9:a9:d7:8e:7a:4b:f2:f1:8c:f9:
                    3b:1c:ce:59:31:4c:57:0c:2e:8a:0f:90:f0:dc:27:
                    55:0b:10:c3:a2:e8:b9:39:75:17:d1:9d:99:43:94:
                    b2:f1:56:76:6b:b9:46:a6:b8:35:95:a1:d2:d0:ec:
                    8e:be:95:dc:78:17:0a:41:a1:23:df:cb:b2:87:cb:
                    2e:1d:02:7d:c4:fe:7a:f6:7a:d8:a5:8d:b5:11:1a:
                    e4:6b:d2:66:01:01:03:a7:3b:95:49:92:5d:c1:c7:
                    49:f0:1a:ef:00:71:37:99:5a:87:0a:40:de:55:0e:
                    68:89:dc:e7:a1:14:bf:9d:72:93:7e:48:29:e4:ea:
                    a6:4f:0a:7a:a5:a1:39:6c:21:84:3a:8f:ca:7a:35:
                    0b:0a:cd:12:67:3c:56:06:f5:9d:24:c9:8e:4a:82:
                    23:c8:38:7f:ac:98:b6:b2:57:dc:82:62:84:00:13:
                    7b:ea:73:80:26:4a:9b:c1:b4:0a:f1:fc:ff:46:58:
                    96:a0:21:a1:c9:8f:d9:99:74:41:0b:d0:6d:31:a7:
                    ab:87:92:76:51:42:ef:88:95:cc:2c:f2:9b:cc:d5:
                    29:a0:f7:aa:6b:e1:ab:32:16:cd:55:c4:15:80:69:
                    80:91:d8:78:2c:07:15:fd:c2:02:a4:f4:13:75:50:
                    b8:2b
                Exponent: 65537 (0x10001)
        X509v3 extensions:
            X509v3 Subject Key Identifier: 
                E1:E6:9B:28:CF:FD:AB:45:C1:B7:A7:C4:C9:58:FC:41:E3:1A:5C:74
            X509v3 Authority Key Identifier: 
                keyid:C1:CD:1F:81:13:82:24:3B:CF:64:51:7A:4C:E3:65:2E:75:1E:01:23
                DirName:/C=US/ST=Washington/L=Seattle/O=wolfSSL Inc./OU=Engineering/CN=chainG-ICA4-pathlen5/emailAddress=info@wolfssl.com
                serial:64
            X509v3 Basic Constraints: 
                CA:TRUE, pathlen:1
            X509v3 Key Usage: 
                Certificate Sign, CRL Sign
    Signature Algorithm: sha256WithRSAEncryption
    Signature Value:
        47:24:47:3c:e9:b6:24:f4:aa:ac:d5:2a:43:42:f9:de:bc:92:
        21:65:a3:15:6d:62:63:f4:bf:d4:ba:40:5f:0d:ba:2c:b3:6d:
        3a:e3:ac:74:f9:fe:53:84:08:40:08:06:ca:5c:e6:d7:f7:06:
        5a:0d:31:9c:9e:f0:0b:8e:a5:64:b6:35:b2:45:f7:49:c2:dd:
        7b:95:8d:3e:d7:f8:3e:a6:f2:b5:5f:02:ca:5c:4c:04:5a:3a:
        92:9c:9e:9f:f9:2e:0f:15:3e:ce:a5:5f:4f:85:6c:f8:2e:77:
        82:3e:59:8f:58:6d:44:83:85:29:2f:e6:10:c8:79:2d:bf:05:
        99:28:78:48:9d:34:64:33:18:b7:88:2f:80:f9:ee:a8:2d:b1:
        92:1e:75:43:86:9b:27:08:c9:2a:77:c0:17:ac:b5:b4:82:6e:
        f4:f5:3d:96:2e:9c:48:5a:1f:a9:55:cd:65:58:d3:b4:21:26:
        31:c7:10:ba:38:3d:cf:80:f7:4e:14:12:1a:d6:68:25:80:6e:
        ee:16:4a:27:b9:b2:ac:a9:a5:82:0b:37:04:c4:a8:52:97:2e:
        54:05:99:7a:d3:6e:13:ff:13:ae:8d:9a:83:a9:b7:da:37:1e:
        db:58:6e:a2:9b:4c:b9:6c:bb:a3:47:20:c1:7a:ed:6f:64:09:
        f9:3e:80:28
-----BEGIN CERTIFICATE-----
MIIE1DCCA7ygAwIBAgIBZDANBgkqhkiG9w0BAQsFADCBojELMAkGA1UEBhMCVVMx
EzARBgNVBAgMCldhc2hpbmd0b24xEDAOBgNVBAcMB1NlYXR0bGUxFTATBgNVBAoM
DHdvbGZTU0wgSW5jLjEUMBIGA1UECwwLRW5naW5lZXJpbmcxHjAcBgNVBAMMFWNo
YWluRy1JQ0EzLXBhdGhsZW45OTEfMB0GCSqGSIb3DQEJARYQaW5mb0B3b2xmc3Ns
LmNvbTAeFw0yMzA5MjYxNzIyNDZaFw0yNjA2MjIxNzIyNDZaMIGhMQswCQYDVQQG
EwJVUzETMBEGA1UECAwKV2FzaGluZ3RvbjEQMA4GA1UEBwwHU2VhdHRsZTEVMBMG
A1UECgwMd29sZlNTTCBJbmMuMRQwEgYDVQQLDAtFbmdpbmVlcmluZzEdMBsGA1UE
AwwUY2hhaW5HLUlDQTItcGF0aGxlbjExHzAdBgkqhkiG9w0BCQEWEGluZm9Ad29s
ZnNzbC5jb20wggEiMA0GCSqGSIb3DQEBAQUAA4IBDwAwggEKAoIBAQDXPt65+anX
jnpL8vGM+TsczlkxTFcMLooPkPDcJ1ULEMOi6Lk5dRfRnZlDlLLxVnZruUamuDWV
odLQ7I6+ldx4FwpBoSPfy7KHyy4dAn3E/nr2etiljbURGuRr0mYBAQOnO5VJkl3B
x0nwGu8AcTeZWocKQN5VDmiJ3OehFL+dcpN+SCnk6qZPCnqloTlsIYQ6j8p6NQsK
zRJnPFYG9Z0kyY5KgiPIOH+smLayV9yCYoQAE3vqc4AmSpvBtArx/P9GWJagIaHJ
j9mZdEEL0G0xp6uHknZRQu+Ilcws8pvM1Smg96pr4asyFs1VxBWAaYCR2HgsBxX9
wgKk9BN1ULgrAgMBAAGjggESMIIBDjAdBgNVHQ4EFgQU4eabKM/9q0XBt6fEyVj8
QeMaXHQwgc4GA1UdIwSBxjCBw4AUwc0fgROCJDvPZFF6TONlLnUeASOhgaekgaQw
gaExCzAJBgNVBAYTAlVTMRMwEQYDVQQIDApXYXNoaW5ndG9uMRAwDgYDVQQHDAdT
ZWF0dGxlMRUwEwYDVQQKDAx3b2xmU1NMIEluYy4xFDASBgNVBAsMC0VuZ2luZWVy
aW5nMR0wGwYDVQQDDBRjaGFpbkctSUNBNC1wYXRobGVuNTEfMB0GCSqGSIb3DQEJ
ARYQaW5mb0B3b2xmc3NsLmNvbYIBZDAPBgNVHRMECDAGAQH/AgEBMAsGA1UdDwQE
AwIBBjANBgkqhkiG9w0BAQsFAAOCAQEARyRHPOm2JPSqrNUqQ0L53rySIWWjFW1i
Y/S/1LpAXw26LLNtOuOsdPn+U4QIQAgGylzm1/cGWg0xnJ7wC46lZLY1skX3ScLd
e5WNPtf4PqbytV8CylxMBFo6kpyen/kuDxU+zqVfT4Vs+C53gj5Zj1htRIOFKS/m
EMh5Lb8FmSh4SJ00ZDMYt4gvgPnuqC2xkh51Q4abJwjJKnfAF6y1tIJu9PU9li6c
SFofqVXNZVjTtCEmMccQujg9z4D3ThQSGtZoJYBu7hZKJ7myrKmlggs3BMSoUpcu
VAWZetNuE/8Tro2ag6m32jce21huoptMuWy7o0cgwXrtb2QJ+T6AKA==
-----END CERTIFICATE-----
