Certificate:
    Data:
        Version: 3 (0x2)
        Serial Number: 100 (0x64)
        Signature Algorithm: sha1WithRSAEncryption
        Issuer: C = US, ST = Washington, L = Seattle, O = wolfSSL Inc., OU = Engineering, CN = chainG-ICA4-pathlen5, emailAddress = info@wolfssl.com
        Validity
            Not Before: Oct 10 21:32:42 2019 GMT
            Not After : Jul  6 21:32:42 2022 GMT
        Subject: C = US, ST = Washington, L = Seattle, O = wolfSSL Inc., OU = Engineering, CN = chainG-ICA3-pathlen99, emailAddress = info@wolfssl.com
        Subject Public Key Info:
            Public Key Algorithm: rsaEncryption
                RSA Public-Key: (2048 bit)
                Modulus:
                    00:ac:f1:39:65:f7:9c:9d:f6:f0:d2:b7:18:16:24:
                    81:32:b7:a5:29:d6:f7:4e:31:38:a7:54:d6:eb:07:
                    97:27:a1:92:e0:c1:3a:b5:93:06:17:ef:a7:74:f8:
                    9b:42:97:0c:d6:d3:d4:36:c9:61:ef:92:4c:3e:c4:
                    74:08:d6:19:2a:cd:9b:f1:6f:e8:c8:67:9f:28:54:
                    99:ce:63:1a:87:56:99:36:31:65:05:c5:d6:97:cf:
                    51:e4:2d:3d:74:14:31:d3:c3:05:fc:0e:7c:93:57:
                    cd:f7:c4:97:d7:5c:65:75:e7:35:85:81:27:eb:9a:
                    9f:d7:a2:bc:28:41:a8:ce:92:3a:10:b9:35:28:83:
                    dc:b0:27:cc:6e:20:03:60:13:23:22:b4:3c:25:58:
                    ae:a1:b2:24:d1:21:8b:b9:f0:28:84:ae:e6:00:cc:
                    cb:9b:78:8c:fa:4b:ed:73:7a:91:05:f9:fb:6e:34:
                    3b:7e:af:f9:45:9e:a0:d5:62:bb:d8:cd:95:9e:a2:
                    90:72:27:e0:3e:b9:b0:5e:0a:b2:e4:55:95:03:0c:
                    a6:66:44:65:db:0a:9f:90:5a:d3:81:c7:e2:3e:f2:
                    b0:9a:e0:05:1c:de:64:04:c2:7e:ca:7e:df:a1:f6:
                    18:e5:94:d3:74:fb:a5:1f:2d:77:cd:6e:5e:55:a3:
                    80:cb
                Exponent: 65537 (0x10001)
        X509v3 extensions:
            X509v3 Subject Key Identifier: 
                C1:CD:1F:81:13:82:24:3B:CF:64:51:7A:4C:E3:65:2E:75:1E:01:23
            X509v3 Authority Key Identifier: 
                keyid:D4:92:AE:BD:3B:1C:66:4B:17:88:18:15:F8:27:AB:38:CC:07:5A:65
                DirName:/C=US/ST=Washington/L=Seattle/O=wolfSSL Inc./OU=Engineering/CN=chainG-ICA5-pathlen20/emailAddress=info@wolfssl.com
                serial:64

            X509v3 Basic Constraints: 
                CA:TRUE, pathlen:99
            X509v3 Key Usage: 
                Certificate Sign, CRL Sign
    Signature Algorithm: sha1WithRSAEncryption
         c5:d2:07:3a:4e:7d:af:34:ee:03:6d:3b:6a:15:68:3c:60:3c:
         ec:ac:a3:6c:95:eb:37:7e:be:03:e1:67:2e:d9:21:db:70:01:
         c9:78:df:38:be:cd:a9:14:4c:30:79:43:d3:20:5f:dd:2d:a1:
         a8:fb:46:e9:12:64:e6:8f:42:7f:08:2e:65:0a:4a:98:4c:62:
         76:62:5c:5d:b3:c8:3d:d7:7f:bd:c7:47:c7:54:93:49:0e:e7:
         5c:bd:62:ae:5b:8a:dc:92:aa:bc:bd:ed:02:3d:f3:0b:69:04:
         5c:35:6b:04:fa:82:5e:ca:8f:b9:7e:a2:3a:72:0b:c4:61:8e:
         45:db:0e:25:f3:11:b9:bb:20:9b:a6:14:9a:a4:8f:5b:1a:e9:
         bf:53:df:f1:61:11:7f:fa:0c:f8:8d:36:ff:93:75:35:49:43:
         2c:2a:30:3b:e6:82:b5:2e:d7:05:68:e3:53:97:dd:d7:c1:52:
         6b:74:37:e1:03:b3:c7:2e:ad:86:58:27:fa:94:a9:2e:5a:b6:
         0d:9a:e8:68:0e:ad:e0:10:05:f3:8d:49:a2:33:ca:99:a9:3a:
         ef:04:b5:f5:99:26:7a:dd:9f:62:97:cc:ea:6f:5a:1c:bd:2d:
         a9:6b:f6:b6:f1:a4:28:4b:e9:4e:c8:7a:a4:a0:31:23:b3:d7:
         c8:5e:14:b5
-----BEGIN CERTIFICATE-----
MIIE1TCCA72gAwIBAgIBZDANBgkqhkiG9w0BAQUFADCBoTELMAkGA1UEBhMCVVMx
EzARBgNVBAgMCldhc2hpbmd0b24xEDAOBgNVBAcMB1NlYXR0bGUxFTATBgNVBAoM
DHdvbGZTU0wgSW5jLjEUMBIGA1UECwwLRW5naW5lZXJpbmcxHTAbBgNVBAMMFGNo
YWluRy1JQ0E0LXBhdGhsZW41MR8wHQYJKoZIhvcNAQkBFhBpbmZvQHdvbGZzc2wu
Y29tMB4XDTE5MTAxMDIxMzI0MloXDTIyMDcwNjIxMzI0MlowgaIxCzAJBgNVBAYT
AlVTMRMwEQYDVQQIDApXYXNoaW5ndG9uMRAwDgYDVQQHDAdTZWF0dGxlMRUwEwYD
VQQKDAx3b2xmU1NMIEluYy4xFDASBgNVBAsMC0VuZ2luZWVyaW5nMR4wHAYDVQQD
DBVjaGFpbkctSUNBMy1wYXRobGVuOTkxHzAdBgkqhkiG9w0BCQEWEGluZm9Ad29s
ZnNzbC5jb20wggEiMA0GCSqGSIb3DQEBAQUAA4IBDwAwggEKAoIBAQCs8Tll95yd
9vDStxgWJIEyt6Up1vdOMTinVNbrB5cnoZLgwTq1kwYX76d0+JtClwzW09Q2yWHv
kkw+xHQI1hkqzZvxb+jIZ58oVJnOYxqHVpk2MWUFxdaXz1HkLT10FDHTwwX8DnyT
V833xJfXXGV15zWFgSfrmp/XorwoQajOkjoQuTUog9ywJ8xuIANgEyMitDwlWK6h
siTRIYu58CiEruYAzMubeIz6S+1zepEF+ftuNDt+r/lFnqDVYrvYzZWeopByJ+A+
ubBeCrLkVZUDDKZmRGXbCp+QWtOBx+I+8rCa4AUc3mQEwn7Kft+h9hjllNN0+6Uf
LXfNbl5Vo4DLAgMBAAGjggETMIIBDzAdBgNVHQ4EFgQUwc0fgROCJDvPZFF6TONl
LnUeASMwgc8GA1UdIwSBxzCBxIAU1JKuvTscZksXiBgV+CerOMwHWmWhgaikgaUw
gaIxCzAJBgNVBAYTAlVTMRMwEQYDVQQIDApXYXNoaW5ndG9uMRAwDgYDVQQHDAdT
ZWF0dGxlMRUwEwYDVQQKDAx3b2xmU1NMIEluYy4xFDASBgNVBAsMC0VuZ2luZWVy
aW5nMR4wHAYDVQQDDBVjaGFpbkctSUNBNS1wYXRobGVuMjAxHzAdBgkqhkiG9w0B
CQEWEGluZm9Ad29sZnNzbC5jb22CAWQwDwYDVR0TBAgwBgEB/wIBYzALBgNVHQ8E
BAMCAQYwDQYJKoZIhvcNAQEFBQADggEBAMXSBzpOfa807gNtO2oVaDxgPOyso2yV
6zd+vgPhZy7ZIdtwAcl43zi+zakUTDB5Q9MgX90toaj7RukSZOaPQn8ILmUKSphM
YnZiXF2zyD3Xf73HR8dUk0kO51y9Yq5bitySqry97QI98wtpBFw1awT6gl7Kj7l+
ojpyC8RhjkXbDiXzEbm7IJumFJqkj1sa6b9T3/FhEX/6DPiNNv+TdTVJQywqMDvm
grUu1wVo41OX3dfBUmt0N+EDs8curYZYJ/qUqS5atg2a6GgOreAQBfONSaIzypmp
Ou8EtfWZJnrdn2KXzOpvWhy9Lalr9rbxpChL6U7IeqSgMSOz18heFLU=
-----END CERTIFICATE-----
