Certificate:
    Data:
        Version: 3 (0x2)
        Serial Number: 100 (0x64)
        Signature Algorithm: sha256WithRSAEncryption
        Issuer: C = US, ST = Washington, L = Seattle, O = wolfSSL Inc., OU = Engineering, CN = chainJ-ICA2-no_pathlen, emailAddress = info@wolfssl.com
        Validity
            Not Before: Sep 26 17:22:46 2023 GMT
            Not After : Jun 22 17:22:46 2026 GMT
        Subject: C = US, ST = Washington, L = Seattle, O = wolfSSL Inc., OU = Engineering, CN = chainJ-ICA1-no_pathlen, emailAddress = info@wolfssl.com
        Subject Public Key Info:
            Public Key Algorithm: rsaEncryption
                Public-Key: (2048 bit)
                Modulus:
                    00:a7:6f:44:c2:11:cc:2c:f4:2a:a5:a8:08:53:4b:
                    0e:cd:96:23:bb:15:4a:2a:dd:f9:a7:19:2b:91:28:
                    e8:73:a3:57:b4:49:3a:37:82:8f:15:38:5a:aa:af:
                    ad:72:26:2e:84:c2:0d:de:fc:f0:be:3b:a2:11:a9:
                    12:20:d4:3d:de:62:85:85:91:08:60:db:c0:4a:bb:
                    89:b6:f4:91:1e:51:a3:b2:f7:08:99:df:48:4a:59:
                    84:d1:aa:09:36:0d:cd:68:a5:ae:41:c8:d7:1a:d8:
                    ea:49:87:20:22:27:f9:45:54:3e:c7:c8:00:44:7e:
                    34:72:aa:8d:2d:4d:6a:3e:75:89:e2:d4:17:57:f9:
                    cd:2b:d0:b7:14:6a:54:1b:61:af:9b:68:22:b1:16:
                    73:eb:05:6c:41:ea:ed:10:4e:bc:83:04:68:c8:3a:
                    e1:03:12:ad:28:5c:24:4c:19:a1:7e:d8:ef:1b:80:
                    e4:0e:49:0c:69:86:f6:1e:e7:01:fb:2a:6f:56:1b:
                    6d:0a:ad:e9:29:3f:31:bb:48:28:40:79:2b:b5:f3:
                    aa:ec:e9:09:4c:82:fc:97:28:19:a3:3a:c0:d2:5e:
                    a3:8a:98:c8:8a:b7:d2:c4:90:bc:ff:cc:47:13:90:
                    ad:00:ab:8a:ec:f7:94:35:09:60:10:35:9f:32:c5:
                    00:1b
                Exponent: 65537 (0x10001)
        X509v3 extensions:
            X509v3 Subject Key Identifier: 
                9C:7B:3A:10:B3:08:99:05:00:AF:3E:E0:A4:5D:D9:AF:82:BC:4D:C0
            X509v3 Authority Key Identifier: 
                keyid:A3:F5:71:8A:60:80:3C:93:64:17:D9:2E:B5:C0:CE:A9:C1:14:17:C4
                DirName:/C=US/ST=Washington/L=Seattle/O=wolfSSL Inc./OU=Engineering/CN=chainJ-ICA3-no_pathlen/emailAddress=info@wolfssl.com
                serial:64
            X509v3 Basic Constraints: 
                CA:TRUE
            X509v3 Key Usage: 
                Certificate Sign, CRL Sign
    Signature Algorithm: sha256WithRSAEncryption
    Signature Value:
        8f:d3:da:6d:af:2c:95:09:cb:a4:68:69:9c:2e:fa:4f:77:ab:
        12:ca:88:68:a0:82:41:bc:68:c0:26:d6:5f:c0:0e:86:6e:13:
        2a:ac:a1:d1:d3:c3:9a:99:91:f7:03:c1:0d:92:08:1a:27:72:
        0e:72:e4:3a:77:60:f4:6c:71:4d:d4:ec:ea:1f:c4:18:2a:80:
        53:bf:fc:8a:85:bb:38:40:8f:96:ab:3f:76:af:d9:c2:e0:09:
        04:14:64:e0:10:a3:8f:b5:4f:f2:76:72:33:5d:a4:33:1c:7e:
        b6:93:3c:04:74:06:00:13:26:d7:fe:e4:58:51:82:68:67:97:
        18:f2:4d:f6:11:69:47:49:00:15:e1:29:fa:6a:02:a7:60:0a:
        da:19:62:0a:2b:ca:6d:df:75:16:dd:e9:8c:24:9a:27:4b:0f:
        66:23:38:95:3d:df:9b:d7:05:48:81:ce:6d:d3:cf:bc:42:74:
        8a:41:64:06:74:c4:80:52:e1:d0:de:0b:24:5c:f9:f4:55:e4:
        ad:36:c0:b5:da:49:b5:18:e1:98:d2:57:87:57:ca:ab:3e:0f:
        f3:1f:4e:fa:8d:c7:18:03:c1:87:3f:64:93:0a:9a:ba:99:7b:
        4b:cb:e8:8d:6f:89:d6:7e:01:e4:2b:9b:18:c7:a2:9f:54:6e:
        2c:f7:81:8c
-----BEGIN CERTIFICATE-----
MIIE1jCCA76gAwIBAgIBZDANBgkqhkiG9w0BAQsFADCBozELMAkGA1UEBhMCVVMx
EzARBgNVBAgMCldhc2hpbmd0b24xEDAOBgNVBAcMB1NlYXR0bGUxFTATBgNVBAoM
DHdvbGZTU0wgSW5jLjEUMBIGA1UECwwLRW5naW5lZXJpbmcxHzAdBgNVBAMMFmNo
YWluSi1JQ0EyLW5vX3BhdGhsZW4xHzAdBgkqhkiG9w0BCQEWEGluZm9Ad29sZnNz
bC5jb20wHhcNMjMwOTI2MTcyMjQ2WhcNMjYwNjIyMTcyMjQ2WjCBozELMAkGA1UE
BhMCVVMxEzARBgNVBAgMCldhc2hpbmd0b24xEDAOBgNVBAcMB1NlYXR0bGUxFTAT
BgNVBAoMDHdvbGZTU0wgSW5jLjEUMBIGA1UECwwLRW5naW5lZXJpbmcxHzAdBgNV
BAMMFmNoYWluSi1JQ0ExLW5vX3BhdGhsZW4xHzAdBgkqhkiG9w0BCQEWEGluZm9A
d29sZnNzbC5jb20wggEiMA0GCSqGSIb3DQEBAQUAA4IBDwAwggEKAoIBAQCnb0TC
Ecws9CqlqAhTSw7NliO7FUoq3fmnGSuRKOhzo1e0STo3go8VOFqqr61yJi6Ewg3e
/PC+O6IRqRIg1D3eYoWFkQhg28BKu4m29JEeUaOy9wiZ30hKWYTRqgk2Dc1opa5B
yNca2OpJhyAiJ/lFVD7HyABEfjRyqo0tTWo+dYni1BdX+c0r0LcUalQbYa+baCKx
FnPrBWxB6u0QTryDBGjIOuEDEq0oXCRMGaF+2O8bgOQOSQxphvYe5wH7Km9WG20K
rekpPzG7SChAeSu186rs6QlMgvyXKBmjOsDSXqOKmMiKt9LEkLz/zEcTkK0Aq4rs
95Q1CWAQNZ8yxQAbAgMBAAGjggERMIIBDTAdBgNVHQ4EFgQUnHs6ELMImQUArz7g
pF3Zr4K8TcAwgdAGA1UdIwSByDCBxYAUo/VximCAPJNkF9kutcDOqcEUF8Shgamk
gaYwgaMxCzAJBgNVBAYTAlVTMRMwEQYDVQQIDApXYXNoaW5ndG9uMRAwDgYDVQQH
DAdTZWF0dGxlMRUwEwYDVQQKDAx3b2xmU1NMIEluYy4xFDASBgNVBAsMC0VuZ2lu
ZWVyaW5nMR8wHQYDVQQDDBZjaGFpbkotSUNBMy1ub19wYXRobGVuMR8wHQYJKoZI
hvcNAQkBFhBpbmZvQHdvbGZzc2wuY29tggFkMAwGA1UdEwQFMAMBAf8wCwYDVR0P
BAQDAgEGMA0GCSqGSIb3DQEBCwUAA4IBAQCP09ptryyVCcukaGmcLvpPd6sSyoho
oIJBvGjAJtZfwA6GbhMqrKHR08OamZH3A8ENkggaJ3IOcuQ6d2D0bHFN1OzqH8QY
KoBTv/yKhbs4QI+Wqz92r9nC4AkEFGTgEKOPtU/ydnIzXaQzHH62kzwEdAYAEybX
/uRYUYJoZ5cY8k32EWlHSQAV4Sn6agKnYAraGWIKK8pt33UW3emMJJonSw9mIziV
Pd+b1wVIgc5t08+8QnSKQWQGdMSAUuHQ3gskXPn0VeStNsC12km1GOGY0leHV8qr
Pg/zH076jccYA8GHP2STCpq6mXtLy+iNb4nWfgHkK5sYx6KfVG4s94GM
-----END CERTIFICATE-----
