Certificate:
    Data:
        Version: 3 (0x2)
        Serial Number: 100 (0x64)
        Signature Algorithm: sha256WithRSAEncryption
        Issuer: C=US, ST=Montana, L=Bozeman, O=Sawtooth, OU=Consulting, CN=www.wolfssl.com, emailAddress=facts@wolfssl.com
        Validity
            Not Before: Jun 11 21:44:38 2026 GMT
            Not After : Mar  7 21:44:38 2029 GMT
        Subject: C=US, ST=Washington, L=Seattle, O=wolfSSL Inc., OU=Engineering, CN=chainC-ICA1-pathlen1, emailAddress=facts@wolfssl.com
        Subject Public Key Info:
            Public Key Algorithm: rsaEncryption
                Public-Key: (2048 bit)
                Modulus:
                    00:bb:1a:6c:c1:bd:bb:9b:29:ca:35:3d:63:a3:29:
                    cd:a6:65:c4:9e:a3:c5:50:99:ad:51:90:0a:9a:9b:
                    83:ce:be:06:bb:66:4f:ef:1e:31:25:34:6f:5f:98:
                    ae:01:49:c3:63:17:84:b9:7a:6d:c0:d8:fd:0c:ff:
                    9a:02:4c:41:37:49:f0:18:63:1b:4f:fc:37:26:4e:
                    54:79:d7:17:39:50:79:6e:a3:29:99:07:ad:9d:5c:
                    d8:e1:02:e7:33:7e:e4:da:a4:05:bc:62:03:d3:9f:
                    6a:91:92:66:dd:29:d0:95:fb:2f:3f:f0:59:b8:70:
                    5b:25:54:7b:a0:0a:9f:33:09:64:ed:fb:d4:1c:2d:
                    96:54:45:e3:50:98:ff:b1:7f:9a:c6:cf:09:a3:da:
                    e9:57:ad:1d:05:8f:1e:75:75:e7:d2:07:33:de:da:
                    7d:42:d8:0e:94:fe:ae:c7:9b:c3:b5:9e:f3:6b:21:
                    9f:74:c4:b3:32:7c:28:4e:0f:bc:15:33:ba:9c:09:
                    3c:c1:40:06:78:bb:b1:20:3f:61:15:f6:1e:49:73:
                    51:89:95:2d:95:bf:34:d6:c2:a9:d1:34:1d:8d:21:
                    6d:4f:a3:6e:ef:fc:23:a2:76:fc:d0:25:53:0e:43:
                    76:3b:ed:82:ec:d8:23:cb:33:ef:3c:9d:a1:de:e6:
                    7a:ad
                Exponent: 65537 (0x10001)
        X509v3 extensions:
            X509v3 Subject Key Identifier: 
                94:1D:2E:07:37:C6:2F:52:C1:EC:79:6B:13:CE:09:90:5F:F4:C4:51
            X509v3 Authority Key Identifier: 
                keyid:27:8E:67:11:74:C3:26:1D:3F:ED:33:63:B3:A4:D8:1D:30:E5:E8:D5
                DirName:/C=US/ST=Montana/L=Bozeman/O=Sawtooth/OU=Consulting/CN=www.wolfssl.com/emailAddress=facts@wolfssl.com
                serial:67:19:D2:A8:7F:E3:2D:FA:75:7A:4F:E7:B2:02:D9:AD:C4:77:5E:F8
            X509v3 Basic Constraints: 
                CA:TRUE, pathlen:1
            X509v3 Key Usage: 
                Certificate Sign, CRL Sign
    Signature Algorithm: sha256WithRSAEncryption
    Signature Value:
        7a:09:53:b3:a2:65:40:29:be:aa:3c:ec:94:29:dc:4b:71:6a:
        06:a0:a2:2c:80:d4:c3:42:2e:1f:da:3c:f5:61:1c:c3:87:cc:
        90:17:dc:5a:e9:0f:cc:fa:94:f2:70:32:fe:f5:3c:b8:7d:f5:
        38:a4:b4:e7:6f:5a:6a:22:b9:4c:b7:29:66:6f:ac:2c:d6:e7:
        d1:c8:47:59:0c:75:2a:56:22:9e:93:8d:cb:f7:65:80:82:3c:
        a4:cf:ef:ff:14:50:a0:1f:95:3b:38:e0:04:0b:5e:b2:e5:00:
        34:0a:9d:f3:df:c7:c9:cf:81:b9:67:89:34:a6:9a:76:9d:2b:
        e6:21:96:e5:44:a8:5d:e2:23:21:04:f3:79:e2:52:ff:cd:03:
        d4:96:b6:e3:de:9a:d9:4c:40:ac:d2:51:0f:ff:fe:33:fb:e4:
        67:b8:37:b6:d7:d4:da:79:be:0c:fa:f0:97:6b:05:7f:66:e1:
        b2:bd:aa:76:81:40:72:cd:f6:95:1e:b6:15:4a:04:00:bb:5d:
        8d:30:4d:53:f6:f6:b3:50:8b:cc:5e:b0:ec:95:88:04:e7:5c:
        f2:eb:2e:82:1e:1c:3d:15:ef:fc:b3:56:ac:6a:2e:d6:7a:a7:
        4d:5b:8e:8b:3a:49:b3:41:6e:e7:70:e0:9f:38:d6:52:f7:b6:
        a8:da:f6:9a
-----BEGIN CERTIFICATE-----
MIIEzzCCA7egAwIBAgIBZDANBgkqhkiG9w0BAQsFADCBlTELMAkGA1UEBhMCVVMx
EDAOBgNVBAgMB01vbnRhbmExEDAOBgNVBAcMB0JvemVtYW4xETAPBgNVBAoMCFNh
d3Rvb3RoMRMwEQYDVQQLDApDb25zdWx0aW5nMRgwFgYDVQQDDA93d3cud29sZnNz
bC5jb20xIDAeBgkqhkiG9w0BCQEWEWZhY3RzQHdvbGZzc2wuY29tMB4XDTI2MDYx
MTIxNDQzOFoXDTI5MDMwNzIxNDQzOFowgaIxCzAJBgNVBAYTAlVTMRMwEQYDVQQI
DApXYXNoaW5ndG9uMRAwDgYDVQQHDAdTZWF0dGxlMRUwEwYDVQQKDAx3b2xmU1NM
IEluYy4xFDASBgNVBAsMC0VuZ2luZWVyaW5nMR0wGwYDVQQDDBRjaGFpbkMtSUNB
MS1wYXRobGVuMTEgMB4GCSqGSIb3DQEJARYRZmFjdHNAd29sZnNzbC5jb20wggEi
MA0GCSqGSIb3DQEBAQUAA4IBDwAwggEKAoIBAQC7GmzBvbubKco1PWOjKc2mZcSe
o8VQma1RkAqam4POvga7Zk/vHjElNG9fmK4BScNjF4S5em3A2P0M/5oCTEE3SfAY
YxtP/DcmTlR51xc5UHluoymZB62dXNjhAuczfuTapAW8YgPTn2qRkmbdKdCV+y8/
8Fm4cFslVHugCp8zCWTt+9QcLZZUReNQmP+xf5rGzwmj2ulXrR0Fjx51defSBzPe
2n1C2A6U/q7Hm8O1nvNrIZ90xLMyfChOD7wVM7qcCTzBQAZ4u7EgP2EV9h5Jc1GJ
lS2VvzTWwqnRNB2NIW1Po27v/COidvzQJVMOQ3Y77YLs2CPLM+88naHe5nqtAgMB
AAGjggEZMIIBFTAdBgNVHQ4EFgQUlB0uBzfGL1LB7HlrE84JkF/0xFEwgdUGA1Ud
IwSBzTCByoAUJ45nEXTDJh0/7TNjs6TYHTDl6NWhgZukgZgwgZUxCzAJBgNVBAYT
AlVTMRAwDgYDVQQIDAdNb250YW5hMRAwDgYDVQQHDAdCb3plbWFuMREwDwYDVQQK
DAhTYXd0b290aDETMBEGA1UECwwKQ29uc3VsdGluZzEYMBYGA1UEAwwPd3d3Lndv
bGZzc2wuY29tMSAwHgYJKoZIhvcNAQkBFhFmYWN0c0B3b2xmc3NsLmNvbYIUZxnS
qH/jLfp1ek/nsgLZrcR3XvgwDwYDVR0TBAgwBgEB/wIBATALBgNVHQ8EBAMCAQYw
DQYJKoZIhvcNAQELBQADggEBAHoJU7OiZUApvqo87JQp3EtxagagoiyA1MNCLh/a
PPVhHMOHzJAX3FrpD8z6lPJwMv71PLh99TiktOdvWmoiuUy3KWZvrCzW59HIR1kM
dSpWIp6Tjcv3ZYCCPKTP7/8UUKAflTs44AQLXrLlADQKnfPfx8nPgblniTSmmnad
K+YhluVEqF3iIyEE83niUv/NA9SWtuPemtlMQKzSUQ///jP75Ge4N7bX1Np5vgz6
8JdrBX9m4bK9qnaBQHLN9pUethVKBAC7XY0wTVP29rNQi8xesOyViATnXPLrLoIe
HD0V7/yzVqxqLtZ6p01bjos6SbNBbudw4J841lL3tqja9po=
-----END CERTIFICATE-----
