Certificate:
    Data:
        Version: 3 (0x2)
        Serial Number: 101 (0x65)
        Signature Algorithm: sha256WithRSAEncryption
        Issuer: C = US, ST = Washington, L = Seattle, O = wolfSSL Inc., OU = Engineering, CN = chainJ-ICA1-no_pathlen, emailAddress = info@wolfssl.com
        Validity
            Not Before: May  7 07:39:05 2020 GMT
            Not After : Feb  1 07:39:05 2023 GMT
        Subject: C = US, ST = Washington, L = Seattle, O = wolfSSL Inc., OU = Engineering, CN = chainJ-entity, emailAddress = info@wolfssl.com
        Subject Public Key Info:
            Public Key Algorithm: rsaEncryption
                RSA Public-Key: (2048 bit)
                Modulus:
                    00:b3:fb:51:a0:ac:69:8b:35:06:bf:7a:ee:b4:a1:
                    8a:7e:ae:31:75:ad:e7:45:7b:e6:d9:bb:7c:e9:73:
                    0e:de:cf:05:74:df:37:a4:37:33:a6:6f:59:06:c8:
                    9f:19:35:c3:94:f7:05:ba:52:eb:3e:92:29:61:48:
                    88:fa:6d:42:b4:30:de:ce:df:94:ed:92:88:60:c8:
                    55:36:50:ee:36:b5:ed:35:6f:95:01:f4:88:4b:7b:
                    3e:fe:b5:9c:64:c0:72:be:8c:74:6a:8c:f5:e4:65:
                    66:87:52:9d:7b:b0:20:f6:d8:c3:de:76:b9:70:7c:
                    01:82:6e:fc:fa:1b:e7:c4:c1:5f:38:ce:50:dc:3a:
                    22:87:bc:19:9a:45:d5:8a:7a:93:f9:78:59:c7:0a:
                    f9:8f:eb:c3:79:eb:b5:ee:36:f0:5e:5d:2f:8f:46:
                    e8:63:c2:31:82:fc:fb:5d:8c:ca:01:b1:bb:72:2b:
                    e7:2f:82:3c:a6:24:a6:3f:58:7e:69:5b:4a:00:b4:
                    25:b3:b3:c3:b3:b0:c2:3f:a3:d7:ee:04:12:1d:ab:
                    0b:bb:02:b0:6c:0b:36:64:56:a9:5d:37:e5:0a:28:
                    44:5e:15:e4:f5:ab:73:98:0a:b3:28:90:1d:30:f2:
                    8c:e7:db:13:6a:0f:b4:cb:8d:06:15:86:ce:35:12:
                    e3:a9
                Exponent: 65537 (0x10001)
        X509v3 extensions:
            X509v3 Subject Key Identifier: 
                13:92:E0:30:5E:36:4F:BF:D5:E3:0D:5D:40:0B:64:95:EC:8E:77:4E
            X509v3 Authority Key Identifier: 
                keyid:9C:7B:3A:10:B3:08:99:05:00:AF:3E:E0:A4:5D:D9:AF:82:BC:4D:C0
                DirName:/C=US/ST=Washington/L=Seattle/O=wolfSSL Inc./OU=Engineering/CN=chainJ-ICA2-no_pathlen/emailAddress=info@wolfssl.com
                serial:64

            X509v3 Basic Constraints: 
                CA:FALSE
    Signature Algorithm: sha256WithRSAEncryption
         94:3f:3c:06:04:ee:37:70:7f:f8:37:6b:f1:50:f2:1c:40:e0:
         d8:c0:ab:f9:ae:64:43:b3:bc:25:30:93:a4:e8:d7:93:56:30:
         d7:93:7b:b9:3f:2c:af:34:c8:2c:f2:42:25:08:66:b8:90:12:
         19:cb:a1:b9:15:20:7b:0d:ad:7a:36:c0:47:f7:bc:d8:c6:d4:
         4d:be:9a:2e:de:ca:81:fb:52:64:9e:c4:96:c9:91:be:cb:fe:
         b7:44:d5:df:f4:44:32:fa:43:a0:bc:c9:0a:1d:7a:ce:1b:f7:
         ee:52:1c:df:db:81:2c:01:4b:65:fb:5d:2c:68:a6:a6:8d:d3:
         70:73:24:43:0a:89:dd:2f:e7:37:84:e2:b5:28:b6:9c:1b:d7:
         b6:ae:e5:71:be:24:fc:5e:61:a4:a7:75:cd:fd:10:95:78:64:
         5c:f9:13:cc:9a:c0:e5:fc:13:e5:b3:51:e2:a2:27:86:03:c3:
         c0:ce:a3:56:c2:2a:73:12:60:82:66:27:19:4c:95:61:0f:6a:
         56:43:11:fa:2a:78:a8:5e:1d:92:e2:54:19:53:46:ca:1f:71:
         56:02:59:d2:20:a4:06:31:03:34:e1:0c:db:3e:0a:8e:52:ec:
         ec:76:73:b3:8d:6c:21:7f:54:16:bd:ed:41:65:ba:c0:0e:5f:
         08:9e:6a:0c
-----BEGIN CERTIFICATE-----
MIIEvDCCA6SgAwIBAgIBZTANBgkqhkiG9w0BAQsFADCBozELMAkGA1UEBhMCVVMx
EzARBgNVBAgMCldhc2hpbmd0b24xEDAOBgNVBAcMB1NlYXR0bGUxFTATBgNVBAoM
DHdvbGZTU0wgSW5jLjEUMBIGA1UECwwLRW5naW5lZXJpbmcxHzAdBgNVBAMMFmNo
YWluSi1JQ0ExLW5vX3BhdGhsZW4xHzAdBgkqhkiG9w0BCQEWEGluZm9Ad29sZnNz
bC5jb20wHhcNMjAwNTA3MDczOTA1WhcNMjMwMjAxMDczOTA1WjCBmjELMAkGA1UE
BhMCVVMxEzARBgNVBAgMCldhc2hpbmd0b24xEDAOBgNVBAcMB1NlYXR0bGUxFTAT
BgNVBAoMDHdvbGZTU0wgSW5jLjEUMBIGA1UECwwLRW5naW5lZXJpbmcxFjAUBgNV
BAMMDWNoYWluSi1lbnRpdHkxHzAdBgkqhkiG9w0BCQEWEGluZm9Ad29sZnNzbC5j
b20wggEiMA0GCSqGSIb3DQEBAQUAA4IBDwAwggEKAoIBAQCz+1GgrGmLNQa/eu60
oYp+rjF1redFe+bZu3zpcw7ezwV03zekNzOmb1kGyJ8ZNcOU9wW6Uus+kilhSIj6
bUK0MN7O35TtkohgyFU2UO42te01b5UB9IhLez7+tZxkwHK+jHRqjPXkZWaHUp17
sCD22MPedrlwfAGCbvz6G+fEwV84zlDcOiKHvBmaRdWKepP5eFnHCvmP68N567Xu
NvBeXS+PRuhjwjGC/PtdjMoBsbtyK+cvgjymJKY/WH5pW0oAtCWzs8OzsMI/o9fu
BBIdqwu7ArBsCzZkVqldN+UKKEReFeT1q3OYCrMokB0w8ozn2xNqD7TLjQYVhs41
EuOpAgMBAAGjggEAMIH9MB0GA1UdDgQWBBQTkuAwXjZPv9XjDV1AC2SV7I53TjCB
0AYDVR0jBIHIMIHFgBScezoQswiZBQCvPuCkXdmvgrxNwKGBqaSBpjCBozELMAkG
A1UEBhMCVVMxEzARBgNVBAgMCldhc2hpbmd0b24xEDAOBgNVBAcMB1NlYXR0bGUx
FTATBgNVBAoMDHdvbGZTU0wgSW5jLjEUMBIGA1UECwwLRW5naW5lZXJpbmcxHzAd
BgNVBAMMFmNoYWluSi1JQ0EyLW5vX3BhdGhsZW4xHzAdBgkqhkiG9w0BCQEWEGlu
Zm9Ad29sZnNzbC5jb22CAWQwCQYDVR0TBAIwADANBgkqhkiG9w0BAQsFAAOCAQEA
lD88BgTuN3B/+Ddr8VDyHEDg2MCr+a5kQ7O8JTCTpOjXk1Yw15N7uT8srzTILPJC
JQhmuJASGcuhuRUgew2tejbAR/e82MbUTb6aLt7KgftSZJ7ElsmRvsv+t0TV3/RE
MvpDoLzJCh16zhv37lIc39uBLAFLZftdLGimpo3TcHMkQwqJ3S/nN4TitSi2nBvX
tq7lcb4k/F5hpKd1zf0QlXhkXPkTzJrA5fwT5bNR4qInhgPDwM6jVsIqcxJggmYn
GUyVYQ9qVkMR+ip4qF4dkuJUGVNGyh9xVgJZ0iCkBjEDNOEM2z4KjlLs7HZzs41s
IX9UFr3tQWW6wA5fCJ5qDA==
-----END CERTIFICATE-----
Certificate:
    Data:
        Version: 3 (0x2)
        Serial Number: 100 (0x64)
        Signature Algorithm: sha256WithRSAEncryption
        Issuer: C = US, ST = Washington, L = Seattle, O = wolfSSL Inc., OU = Engineering, CN = chainJ-ICA2-no_pathlen, emailAddress = info@wolfssl.com
        Validity
            Not Before: May  7 07:39:05 2020 GMT
            Not After : Feb  1 07:39:05 2023 GMT
        Subject: C = US, ST = Washington, L = Seattle, O = wolfSSL Inc., OU = Engineering, CN = chainJ-ICA1-no_pathlen, emailAddress = info@wolfssl.com
        Subject Public Key Info:
            Public Key Algorithm: rsaEncryption
                RSA Public-Key: (2048 bit)
                Modulus:
                    00:a7:6f:44:c2:11:cc:2c:f4:2a:a5:a8:08:53:4b:
                    0e:cd:96:23:bb:15:4a:2a:dd:f9:a7:19:2b:91:28:
                    e8:73:a3:57:b4:49:3a:37:82:8f:15:38:5a:aa:af:
                    ad:72:26:2e:84:c2:0d:de:fc:f0:be:3b:a2:11:a9:
                    12:20:d4:3d:de:62:85:85:91:08:60:db:c0:4a:bb:
                    89:b6:f4:91:1e:51:a3:b2:f7:08:99:df:48:4a:59:
                    84:d1:aa:09:36:0d:cd:68:a5:ae:41:c8:d7:1a:d8:
                    ea:49:87:20:22:27:f9:45:54:3e:c7:c8:00:44:7e:
                    34:72:aa:8d:2d:4d:6a:3e:75:89:e2:d4:17:57:f9:
                    cd:2b:d0:b7:14:6a:54:1b:61:af:9b:68:22:b1:16:
                    73:eb:05:6c:41:ea:ed:10:4e:bc:83:04:68:c8:3a:
                    e1:03:12:ad:28:5c:24:4c:19:a1:7e:d8:ef:1b:80:
                    e4:0e:49:0c:69:86:f6:1e:e7:01:fb:2a:6f:56:1b:
                    6d:0a:ad:e9:29:3f:31:bb:48:28:40:79:2b:b5:f3:
                    aa:ec:e9:09:4c:82:fc:97:28:19:a3:3a:c0:d2:5e:
                    a3:8a:98:c8:8a:b7:d2:c4:90:bc:ff:cc:47:13:90:
                    ad:00:ab:8a:ec:f7:94:35:09:60:10:35:9f:32:c5:
                    00:1b
                Exponent: 65537 (0x10001)
        X509v3 extensions:
            X509v3 Subject Key Identifier: 
                9C:7B:3A:10:B3:08:99:05:00:AF:3E:E0:A4:5D:D9:AF:82:BC:4D:C0
            X509v3 Authority Key Identifier: 
                keyid:A3:F5:71:8A:60:80:3C:93:64:17:D9:2E:B5:C0:CE:A9:C1:14:17:C4
                DirName:/C=US/ST=Washington/L=Seattle/O=wolfSSL Inc./OU=Engineering/CN=chainJ-ICA3-no_pathlen/emailAddress=info@wolfssl.com
                serial:64

            X509v3 Basic Constraints: 
                CA:TRUE
            X509v3 Key Usage: 
                Certificate Sign, CRL Sign
    Signature Algorithm: sha256WithRSAEncryption
         61:28:67:29:88:59:da:5c:6a:11:fb:9e:59:81:e2:5d:29:0f:
         d5:13:b7:fa:e6:c6:b8:6e:75:92:13:a1:90:86:38:b2:e1:f6:
         2b:88:12:2d:83:c7:d9:c4:64:ae:7b:80:15:7f:41:91:bd:17:
         9d:6c:7b:db:46:61:22:53:c9:04:5e:02:bd:bc:11:0b:10:e6:
         93:f5:30:20:38:df:72:a0:64:a2:1c:11:1e:f6:d7:11:4e:bb:
         2e:b4:dd:fc:fe:45:40:6f:b8:c0:23:41:5a:57:ba:37:1f:76:
         4e:01:3b:f3:76:b5:66:23:53:8e:e9:1b:b8:5b:41:41:65:22:
         46:f4:dc:46:0e:21:12:ef:05:bc:f8:53:34:c2:c2:c5:bc:67:
         0a:cb:c9:6f:79:a0:df:aa:aa:ea:63:49:d7:99:e7:8c:d0:e5:
         40:c9:aa:6b:5d:e0:7d:32:b4:33:19:f6:74:0d:4e:2a:e1:a2:
         32:0f:02:0f:06:4a:b0:55:49:55:fe:9c:13:71:e7:b4:8d:5f:
         52:1e:dd:07:66:b1:13:1a:99:8c:db:78:16:6e:b4:dc:76:af:
         d5:95:cd:fb:24:05:bc:aa:69:42:89:31:14:82:63:c5:de:3d:
         47:eb:a0:88:b9:d0:84:5b:4c:23:b0:8e:be:d4:09:6b:9a:3c:
         9a:fc:da:2a
-----BEGIN CERTIFICATE-----
MIIE1jCCA76gAwIBAgIBZDANBgkqhkiG9w0BAQsFADCBozELMAkGA1UEBhMCVVMx
EzARBgNVBAgMCldhc2hpbmd0b24xEDAOBgNVBAcMB1NlYXR0bGUxFTATBgNVBAoM
DHdvbGZTU0wgSW5jLjEUMBIGA1UECwwLRW5naW5lZXJpbmcxHzAdBgNVBAMMFmNo
YWluSi1JQ0EyLW5vX3BhdGhsZW4xHzAdBgkqhkiG9w0BCQEWEGluZm9Ad29sZnNz
bC5jb20wHhcNMjAwNTA3MDczOTA1WhcNMjMwMjAxMDczOTA1WjCBozELMAkGA1UE
BhMCVVMxEzARBgNVBAgMCldhc2hpbmd0b24xEDAOBgNVBAcMB1NlYXR0bGUxFTAT
BgNVBAoMDHdvbGZTU0wgSW5jLjEUMBIGA1UECwwLRW5naW5lZXJpbmcxHzAdBgNV
BAMMFmNoYWluSi1JQ0ExLW5vX3BhdGhsZW4xHzAdBgkqhkiG9w0BCQEWEGluZm9A
d29sZnNzbC5jb20wggEiMA0GCSqGSIb3DQEBAQUAA4IBDwAwggEKAoIBAQCnb0TC
Ecws9CqlqAhTSw7NliO7FUoq3fmnGSuRKOhzo1e0STo3go8VOFqqr61yJi6Ewg3e
/PC+O6IRqRIg1D3eYoWFkQhg28BKu4m29JEeUaOy9wiZ30hKWYTRqgk2Dc1opa5B
yNca2OpJhyAiJ/lFVD7HyABEfjRyqo0tTWo+dYni1BdX+c0r0LcUalQbYa+baCKx
FnPrBWxB6u0QTryDBGjIOuEDEq0oXCRMGaF+2O8bgOQOSQxphvYe5wH7Km9WG20K
rekpPzG7SChAeSu186rs6QlMgvyXKBmjOsDSXqOKmMiKt9LEkLz/zEcTkK0Aq4rs
95Q1CWAQNZ8yxQAbAgMBAAGjggERMIIBDTAdBgNVHQ4EFgQUnHs6ELMImQUArz7g
pF3Zr4K8TcAwgdAGA1UdIwSByDCBxYAUo/VximCAPJNkF9kutcDOqcEUF8Shgamk
gaYwgaMxCzAJBgNVBAYTAlVTMRMwEQYDVQQIDApXYXNoaW5ndG9uMRAwDgYDVQQH
DAdTZWF0dGxlMRUwEwYDVQQKDAx3b2xmU1NMIEluYy4xFDASBgNVBAsMC0VuZ2lu
ZWVyaW5nMR8wHQYDVQQDDBZjaGFpbkotSUNBMy1ub19wYXRobGVuMR8wHQYJKoZI
hvcNAQkBFhBpbmZvQHdvbGZzc2wuY29tggFkMAwGA1UdEwQFMAMBAf8wCwYDVR0P
BAQDAgEGMA0GCSqGSIb3DQEBCwUAA4IBAQBhKGcpiFnaXGoR+55ZgeJdKQ/VE7f6
5sa4bnWSE6GQhjiy4fYriBItg8fZxGSue4AVf0GRvRedbHvbRmEiU8kEXgK9vBEL
EOaT9TAgON9yoGSiHBEe9tcRTrsutN38/kVAb7jAI0FaV7o3H3ZOATvzdrVmI1OO
6Ru4W0FBZSJG9NxGDiES7wW8+FM0wsLFvGcKy8lveaDfqqrqY0nXmeeM0OVAyapr
XeB9MrQzGfZ0DU4q4aIyDwIPBkqwVUlV/pwTcee0jV9SHt0HZrETGpmM23gWbrTc
dq/Vlc37JAW8qmlCiTEUgmPF3j1H66CIudCEW0wjsI6+1Alrmjya/Noq
-----END CERTIFICATE-----
Certificate:
    Data:
        Version: 3 (0x2)
        Serial Number: 100 (0x64)
        Signature Algorithm: sha256WithRSAEncryption
        Issuer: C = US, ST = Washington, L = Seattle, O = wolfSSL Inc., OU = Engineering, CN = chainJ-ICA3-no_pathlen, emailAddress = info@wolfssl.com
        Validity
            Not Before: May  7 07:39:05 2020 GMT
            Not After : Feb  1 07:39:05 2023 GMT
        Subject: C = US, ST = Washington, L = Seattle, O = wolfSSL Inc., OU = Engineering, CN = chainJ-ICA2-no_pathlen, emailAddress = info@wolfssl.com
        Subject Public Key Info:
            Public Key Algorithm: rsaEncryption
                RSA Public-Key: (2048 bit)
                Modulus:
                    00:bb:29:fd:89:aa:82:e0:1d:04:78:69:ec:61:58:
                    51:52:84:7e:6b:55:69:2c:f4:23:d6:1f:d8:ed:ab:
                    19:96:38:7b:c6:88:d7:7d:85:93:00:35:40:0b:c0:
                    a9:ff:66:0f:9e:a1:1d:88:6e:a9:8a:f1:ad:47:b4:
                    71:c9:15:50:c6:0f:35:9e:95:4a:66:d3:bd:1b:38:
                    7b:dc:67:85:97:1b:b3:63:c9:72:d6:43:5a:f1:5e:
                    35:f6:05:96:c7:40:bc:23:ab:94:34:82:59:02:b2:
                    33:d0:e6:7f:19:57:65:68:3c:04:61:50:ef:22:95:
                    4f:ef:18:bf:15:b1:4d:8e:cd:a7:a0:98:22:f5:1c:
                    05:01:6b:4b:35:bf:88:c3:47:c3:24:29:b4:45:cb:
                    95:a1:ac:16:1d:dd:b8:68:ac:51:39:24:27:6a:be:
                    31:f1:ec:06:10:55:be:44:02:4f:e8:12:7b:d6:fe:
                    32:c9:48:37:6b:20:68:cb:53:f5:49:3a:ae:4a:c7:
                    43:c1:af:e6:53:11:d9:f8:71:1a:a2:d6:37:c7:2b:
                    45:50:49:51:4f:55:6c:3f:1e:69:7b:58:12:3a:7e:
                    59:a0:57:9d:28:9c:8a:6d:82:e7:13:15:3b:04:8f:
                    e2:82:0f:2f:cf:d9:25:d9:65:a3:3c:03:c0:cd:b6:
                    51:d5
                Exponent: 65537 (0x10001)
        X509v3 extensions:
            X509v3 Subject Key Identifier: 
                A3:F5:71:8A:60:80:3C:93:64:17:D9:2E:B5:C0:CE:A9:C1:14:17:C4
            X509v3 Authority Key Identifier: 
                keyid:CD:97:49:78:F7:31:61:ED:2F:71:1A:68:E9:45:2C:40:78:51:93:5B
                DirName:/C=US/ST=Washington/L=Seattle/O=wolfSSL Inc./OU=Engineering/CN=chainJ-ICA4-pathlen2/emailAddress=info@wolfssl.com
                serial:64

            X509v3 Basic Constraints: 
                CA:TRUE
            X509v3 Key Usage: 
                Certificate Sign, CRL Sign
    Signature Algorithm: sha256WithRSAEncryption
         54:57:fa:58:c7:ae:60:55:9f:7e:41:2c:c4:dc:8d:b6:f8:fb:
         cf:d3:ea:c9:88:0e:9a:c8:51:f2:2b:8f:e5:6c:a1:96:40:1c:
         0d:cb:ae:a8:8a:0b:ab:e8:fb:83:1b:4f:d4:5e:e9:92:94:70:
         a8:1b:d8:10:62:a5:83:cd:0e:27:91:26:4f:1d:c6:ce:36:52:
         26:92:28:c0:e8:eb:c5:d3:88:a8:d5:fd:1f:b0:2c:e4:e2:f3:
         d1:1f:d8:e3:7c:76:ab:f7:94:5f:d8:9f:9e:34:9e:80:9c:50:
         81:e6:cc:c6:cb:d6:7c:dd:4a:a9:dd:22:01:79:ba:ef:20:9b:
         89:72:a6:c9:89:f2:68:fd:76:a6:55:fa:7b:4a:bd:ea:53:ed:
         af:7c:07:81:23:c7:71:2d:cc:ae:1d:be:6e:5d:77:08:a4:aa:
         36:92:8d:20:af:5d:6c:e7:ee:72:e2:89:9c:41:11:5b:e2:42:
         35:6f:0c:a0:41:10:93:2a:e5:57:7f:84:16:b3:af:0c:29:b5:
         cd:69:96:f2:7e:20:6f:78:80:be:be:e8:3d:27:c2:d8:58:de:
         8c:f5:bd:fc:be:fd:66:ee:19:37:57:25:cb:fa:ee:cc:0d:16:
         fa:81:15:df:ce:74:1a:52:55:df:02:17:50:45:10:6c:d4:bc:
         57:2f:bc:21
-----BEGIN CERTIFICATE-----
MIIE1DCCA7ygAwIBAgIBZDANBgkqhkiG9w0BAQsFADCBozELMAkGA1UEBhMCVVMx
EzARBgNVBAgMCldhc2hpbmd0b24xEDAOBgNVBAcMB1NlYXR0bGUxFTATBgNVBAoM
DHdvbGZTU0wgSW5jLjEUMBIGA1UECwwLRW5naW5lZXJpbmcxHzAdBgNVBAMMFmNo
YWluSi1JQ0EzLW5vX3BhdGhsZW4xHzAdBgkqhkiG9w0BCQEWEGluZm9Ad29sZnNz
bC5jb20wHhcNMjAwNTA3MDczOTA1WhcNMjMwMjAxMDczOTA1WjCBozELMAkGA1UE
BhMCVVMxEzARBgNVBAgMCldhc2hpbmd0b24xEDAOBgNVBAcMB1NlYXR0bGUxFTAT
BgNVBAoMDHdvbGZTU0wgSW5jLjEUMBIGA1UECwwLRW5naW5lZXJpbmcxHzAdBgNV
BAMMFmNoYWluSi1JQ0EyLW5vX3BhdGhsZW4xHzAdBgkqhkiG9w0BCQEWEGluZm9A
d29sZnNzbC5jb20wggEiMA0GCSqGSIb3DQEBAQUAA4IBDwAwggEKAoIBAQC7Kf2J
qoLgHQR4aexhWFFShH5rVWks9CPWH9jtqxmWOHvGiNd9hZMANUALwKn/Zg+eoR2I
bqmK8a1HtHHJFVDGDzWelUpm070bOHvcZ4WXG7NjyXLWQ1rxXjX2BZbHQLwjq5Q0
glkCsjPQ5n8ZV2VoPARhUO8ilU/vGL8VsU2OzaegmCL1HAUBa0s1v4jDR8MkKbRF
y5WhrBYd3bhorFE5JCdqvjHx7AYQVb5EAk/oEnvW/jLJSDdrIGjLU/VJOq5Kx0PB
r+ZTEdn4cRqi1jfHK0VQSVFPVWw/Hml7WBI6flmgV50onIptgucTFTsEj+KCDy/P
2SXZZaM8A8DNtlHVAgMBAAGjggEPMIIBCzAdBgNVHQ4EFgQUo/VximCAPJNkF9ku
tcDOqcEUF8Qwgc4GA1UdIwSBxjCBw4AUzZdJePcxYe0vcRpo6UUsQHhRk1uhgaek
gaQwgaExCzAJBgNVBAYTAlVTMRMwEQYDVQQIDApXYXNoaW5ndG9uMRAwDgYDVQQH
DAdTZWF0dGxlMRUwEwYDVQQKDAx3b2xmU1NMIEluYy4xFDASBgNVBAsMC0VuZ2lu
ZWVyaW5nMR0wGwYDVQQDDBRjaGFpbkotSUNBNC1wYXRobGVuMjEfMB0GCSqGSIb3
DQEJARYQaW5mb0B3b2xmc3NsLmNvbYIBZDAMBgNVHRMEBTADAQH/MAsGA1UdDwQE
AwIBBjANBgkqhkiG9w0BAQsFAAOCAQEAVFf6WMeuYFWffkEsxNyNtvj7z9PqyYgO
mshR8iuP5WyhlkAcDcuuqIoLq+j7gxtP1F7pkpRwqBvYEGKlg80OJ5EmTx3GzjZS
JpIowOjrxdOIqNX9H7As5OLz0R/Y43x2q/eUX9ifnjSegJxQgebMxsvWfN1Kqd0i
AXm67yCbiXKmyYnyaP12plX6e0q96lPtr3wHgSPHcS3Mrh2+bl13CKSqNpKNIK9d
bOfucuKJnEERW+JCNW8MoEEQkyrlV3+EFrOvDCm1zWmW8n4gb3iAvr7oPSfC2Fje
jPW9/L79Zu4ZN1cly/ruzA0W+oEV3850GlJV3wIXUEUQbNS8Vy+8IQ==
-----END CERTIFICATE-----
Certificate:
    Data:
        Version: 3 (0x2)
        Serial Number: 100 (0x64)
        Signature Algorithm: sha256WithRSAEncryption
        Issuer: C = US, ST = Washington, L = Seattle, O = wolfSSL Inc., OU = Engineering, CN = chainJ-ICA4-pathlen2, emailAddress = info@wolfssl.com
        Validity
            Not Before: May  7 07:39:05 2020 GMT
            Not After : Feb  1 07:39:05 2023 GMT
        Subject: C = US, ST = Washington, L = Seattle, O = wolfSSL Inc., OU = Engineering, CN = chainJ-ICA3-no_pathlen, emailAddress = info@wolfssl.com
        Subject Public Key Info:
            Public Key Algorithm: rsaEncryption
                RSA Public-Key: (2048 bit)
                Modulus:
                    00:d8:aa:f6:05:95:70:5a:53:c7:66:10:aa:90:79:
                    3b:cb:78:2a:ef:5f:43:22:71:7c:6d:47:99:a7:8b:
                    39:e1:e7:4e:48:29:48:25:e1:b5:f5:25:df:64:7b:
                    ea:ed:aa:1f:8b:0d:e7:eb:f5:2f:ae:2a:5a:3d:50:
                    c7:fb:ef:0b:8b:44:0b:63:94:be:c6:d7:63:45:2e:
                    85:96:00:5c:be:7e:10:09:b3:d0:aa:7c:de:20:f8:
                    75:39:23:85:ee:84:13:88:54:2a:96:f5:16:27:9f:
                    8b:b0:a6:2a:f4:9d:13:8c:71:1c:0c:a6:59:53:ec:
                    f9:0b:2b:c9:45:13:d6:12:ef:39:d1:8e:9c:9e:ae:
                    3c:bb:b6:d8:10:ac:b7:59:49:5b:73:00:be:af:92:
                    21:14:54:a3:fa:b6:17:ae:b6:dc:b1:f1:61:f0:75:
                    07:43:5e:48:fa:e7:80:56:cf:df:ad:46:52:85:42:
                    fb:a7:70:53:14:c6:b7:51:fa:23:f0:f5:4b:d1:bb:
                    3f:9b:fc:35:ca:d2:85:f1:a0:77:02:06:7c:79:99:
                    13:b5:68:b4:16:47:42:88:f7:bc:eb:78:b2:e8:11:
                    2f:62:f6:da:f9:ef:1b:e0:9f:b5:d5:32:65:b5:4e:
                    e4:be:36:6b:65:65:1a:96:a2:47:b5:3e:9f:b0:0d:
                    63:41
                Exponent: 65537 (0x10001)
        X509v3 extensions:
            X509v3 Subject Key Identifier: 
                CD:97:49:78:F7:31:61:ED:2F:71:1A:68:E9:45:2C:40:78:51:93:5B
            X509v3 Authority Key Identifier: 
                keyid:FC:18:13:52:BB:33:4A:DB:1C:5B:D1:80:98:3E:40:86:95:58:72:F9
                DirName:/C=US/ST=Montana/L=Bozeman/O=Sawtooth/OU=Consulting/CN=www.wolfssl.com/emailAddress=info@wolfssl.com
                serial:64

            X509v3 Basic Constraints: 
                CA:TRUE
            X509v3 Key Usage: 
                Certificate Sign, CRL Sign
    Signature Algorithm: sha256WithRSAEncryption
         60:6c:d2:1a:ea:b9:91:d1:e4:7e:03:d7:3c:60:73:0f:c7:7d:
         f2:0d:99:40:2e:ba:f5:5d:17:0a:e1:65:1f:00:1f:37:a2:3b:
         0d:f2:eb:0b:b9:ec:6d:1f:bc:5f:f8:87:b4:b9:d7:23:15:78:
         7b:97:f2:d0:84:22:2e:6f:2e:08:0d:a1:1c:1c:f6:71:79:60:
         65:ed:1e:a8:14:0f:4a:3d:2b:f5:50:9d:89:09:20:b6:4a:03:
         fe:7d:f9:03:7b:4d:c4:74:b9:c7:66:b5:69:1f:1b:d3:01:b5:
         1e:c0:27:5c:fe:2d:c6:aa:1f:b0:c9:14:28:62:41:4a:f0:ad:
         d4:49:7b:ca:74:75:12:3b:b2:f4:06:90:d1:80:ca:33:3e:57:
         91:6b:c6:b4:de:24:3e:86:86:20:62:01:d6:a2:e9:3f:2e:11:
         ca:7d:f9:2b:46:e4:b4:fb:f0:fe:2f:f6:93:94:a3:9f:9f:14:
         a2:54:33:90:3c:31:6d:1f:99:54:a8:7e:7e:e6:7f:06:a8:9d:
         53:93:24:c8:20:e6:3c:74:a6:ba:fc:be:8b:f6:3c:53:94:8e:
         fb:34:24:4b:71:5f:c0:33:80:79:22:7f:0e:ce:6a:8c:5e:63:
         fc:96:90:d4:2a:26:2f:3c:7a:06:b8:4e:30:89:4d:b9:c7:19:
         52:6e:98:82
-----BEGIN CERTIFICATE-----
MIIExDCCA6ygAwIBAgIBZDANBgkqhkiG9w0BAQsFADCBoTELMAkGA1UEBhMCVVMx
EzARBgNVBAgMCldhc2hpbmd0b24xEDAOBgNVBAcMB1NlYXR0bGUxFTATBgNVBAoM
DHdvbGZTU0wgSW5jLjEUMBIGA1UECwwLRW5naW5lZXJpbmcxHTAbBgNVBAMMFGNo
YWluSi1JQ0E0LXBhdGhsZW4yMR8wHQYJKoZIhvcNAQkBFhBpbmZvQHdvbGZzc2wu
Y29tMB4XDTIwMDUwNzA3MzkwNVoXDTIzMDIwMTA3MzkwNVowgaMxCzAJBgNVBAYT
AlVTMRMwEQYDVQQIDApXYXNoaW5ndG9uMRAwDgYDVQQHDAdTZWF0dGxlMRUwEwYD
VQQKDAx3b2xmU1NMIEluYy4xFDASBgNVBAsMC0VuZ2luZWVyaW5nMR8wHQYDVQQD
DBZjaGFpbkotSUNBMy1ub19wYXRobGVuMR8wHQYJKoZIhvcNAQkBFhBpbmZvQHdv
bGZzc2wuY29tMIIBIjANBgkqhkiG9w0BAQEFAAOCAQ8AMIIBCgKCAQEA2Kr2BZVw
WlPHZhCqkHk7y3gq719DInF8bUeZp4s54edOSClIJeG19SXfZHvq7aofiw3n6/Uv
ripaPVDH++8Li0QLY5S+xtdjRS6FlgBcvn4QCbPQqnzeIPh1OSOF7oQTiFQqlvUW
J5+LsKYq9J0TjHEcDKZZU+z5CyvJRRPWEu850Y6cnq48u7bYEKy3WUlbcwC+r5Ih
FFSj+rYXrrbcsfFh8HUHQ15I+ueAVs/frUZShUL7p3BTFMa3Ufoj8PVL0bs/m/w1
ytKF8aB3AgZ8eZkTtWi0FkdCiPe863iy6BEvYvba+e8b4J+11TJltU7kvjZrZWUa
lqJHtT6fsA1jQQIDAQABo4IBATCB/jAdBgNVHQ4EFgQUzZdJePcxYe0vcRpo6UUs
QHhRk1swgcEGA1UdIwSBuTCBtoAU/BgTUrszStscW9GAmD5AhpVYcvmhgZqkgZcw
gZQxCzAJBgNVBAYTAlVTMRAwDgYDVQQIDAdNb250YW5hMRAwDgYDVQQHDAdCb3pl
bWFuMREwDwYDVQQKDAhTYXd0b290aDETMBEGA1UECwwKQ29uc3VsdGluZzEYMBYG
A1UEAwwPd3d3LndvbGZzc2wuY29tMR8wHQYJKoZIhvcNAQkBFhBpbmZvQHdvbGZz
c2wuY29tggFkMAwGA1UdEwQFMAMBAf8wCwYDVR0PBAQDAgEGMA0GCSqGSIb3DQEB
CwUAA4IBAQBgbNIa6rmR0eR+A9c8YHMPx33yDZlALrr1XRcK4WUfAB83ojsN8usL
uextH7xf+Ie0udcjFXh7l/LQhCIuby4IDaEcHPZxeWBl7R6oFA9KPSv1UJ2JCSC2
SgP+ffkDe03EdLnHZrVpHxvTAbUewCdc/i3Gqh+wyRQoYkFK8K3USXvKdHUSO7L0
BpDRgMozPleRa8a03iQ+hoYgYgHWouk/LhHKffkrRuS0+/D+L/aTlKOfnxSiVDOQ
PDFtH5lUqH5+5n8GqJ1TkyTIIOY8dKa6/L6L9jxTlI77NCRLcV/AM4B5In8OzmqM
XmP8lpDUKiYvPHoGuE4wiU25xxlSbpiC
-----END CERTIFICATE-----
Certificate:
    Data:
        Version: 3 (0x2)
        Serial Number: 100 (0x64)
        Signature Algorithm: sha256WithRSAEncryption
        Issuer: C = US, ST = Montana, L = Bozeman, O = Sawtooth, OU = Consulting, CN = www.wolfssl.com, emailAddress = info@wolfssl.com
        Validity
            Not Before: May  7 07:39:05 2020 GMT
            Not After : Feb  1 07:39:05 2023 GMT
        Subject: C = US, ST = Washington, L = Seattle, O = wolfSSL Inc., OU = Engineering, CN = chainJ-ICA4-pathlen2, emailAddress = info@wolfssl.com
        Subject Public Key Info:
            Public Key Algorithm: rsaEncryption
                RSA Public-Key: (2048 bit)
                Modulus:
                    00:9d:4a:ee:6b:ff:b6:ec:88:21:23:84:03:b6:88:
                    bb:3e:5a:1b:95:03:2f:24:53:2d:57:3f:11:38:5d:
                    12:1d:40:6b:10:db:c2:d3:e4:dd:80:77:74:7b:88:
                    44:65:e0:cf:52:c5:8a:42:e5:6e:b7:6a:ab:50:a0:
                    2e:29:c2:fe:ba:d5:c7:da:6b:91:26:8f:fc:1e:06:
                    17:f0:de:58:87:ef:1e:a6:91:12:39:68:a5:05:f3:
                    8c:67:c9:e5:99:18:a4:fc:90:3f:bd:a6:ca:f2:a6:
                    dd:b5:e6:93:cb:14:89:83:3c:88:5a:31:ab:e3:66:
                    2a:1b:87:c5:85:03:45:b0:ce:e1:0f:c1:0f:92:70:
                    d7:ac:65:ea:a8:09:c1:fe:1d:db:b7:e7:dd:98:d3:
                    c6:b1:16:b4:54:58:c1:aa:ba:a1:cf:19:14:a7:e4:
                    55:a6:da:bb:1f:9e:d1:85:00:e0:8d:4a:c4:d2:86:
                    08:75:fd:d8:1e:85:21:6c:27:8f:18:d5:44:73:58:
                    ab:94:75:4a:36:3d:8d:4d:c6:7a:86:9d:00:db:c5:
                    ba:be:70:02:83:bf:6e:d8:31:89:b3:f2:16:98:be:
                    27:f6:14:5a:e9:d4:72:67:8d:a9:df:76:27:bf:19:
                    ac:20:59:28:5b:1b:42:d9:d5:5b:6d:fb:6e:a2:5e:
                    d3:e9
                Exponent: 65537 (0x10001)
        X509v3 extensions:
            X509v3 Subject Key Identifier: 
                FC:18:13:52:BB:33:4A:DB:1C:5B:D1:80:98:3E:40:86:95:58:72:F9
            X509v3 Authority Key Identifier: 
                keyid:27:8E:67:11:74:C3:26:1D:3F:ED:33:63:B3:A4:D8:1D:30:E5:E8:D5
                DirName:/C=US/ST=Montana/L=Bozeman/O=Sawtooth/OU=Consulting/CN=www.wolfssl.com/emailAddress=info@wolfssl.com
                serial:3F:32:13:52:92:C6:DF:4A:D5:42:05:6C:B0:B2:2E:46:C2:F8:B8:67

            X509v3 Basic Constraints: 
                CA:TRUE, pathlen:2
            X509v3 Key Usage: 
                Certificate Sign, CRL Sign
    Signature Algorithm: sha256WithRSAEncryption
         51:21:92:8f:59:88:72:3a:6d:36:06:83:3f:89:d0:e0:91:19:
         99:3e:3e:be:16:4e:0a:fe:9e:ef:1e:f8:a3:e2:aa:53:95:68:
         fa:f9:09:fc:dd:54:f2:9a:1e:75:67:90:b9:54:58:bc:4d:03:
         6c:15:b4:11:c4:d1:f7:1d:6a:b4:84:21:3e:1b:c3:be:08:95:
         6d:8c:f6:91:42:4f:0c:cb:56:ce:ae:47:ef:f7:ac:92:76:f7:
         59:03:aa:a4:be:95:fe:b4:4e:b1:72:10:2f:58:07:d5:e8:9d:
         3d:b1:70:ee:52:8e:33:da:e5:94:c1:03:c4:1e:d2:96:3a:23:
         7d:d6:34:6d:98:13:c0:c8:3d:bb:d3:32:da:66:33:03:64:ba:
         25:1f:96:d0:e0:62:b9:98:4c:ba:ab:51:68:af:a0:17:34:21:
         6b:2b:73:96:98:cf:74:b9:26:c8:68:96:18:97:30:dc:d3:eb:
         2e:fe:04:4d:b1:43:cb:8f:29:9d:40:f3:92:ed:ef:16:3a:2c:
         96:6e:7b:c3:a7:e7:0c:16:c2:de:9a:c7:75:8e:89:93:64:82:
         ea:ed:10:7b:4c:71:d2:3d:40:97:05:68:cd:2d:5e:a3:c3:fa:
         19:97:a8:21:c7:a5:a6:e1:d4:a5:63:4e:b4:e1:3f:25:02:0f:
         2a:78:69:d6
-----BEGIN CERTIFICATE-----
MIIEzDCCA7SgAwIBAgIBZDANBgkqhkiG9w0BAQsFADCBlDELMAkGA1UEBhMCVVMx
EDAOBgNVBAgMB01vbnRhbmExEDAOBgNVBAcMB0JvemVtYW4xETAPBgNVBAoMCFNh
d3Rvb3RoMRMwEQYDVQQLDApDb25zdWx0aW5nMRgwFgYDVQQDDA93d3cud29sZnNz
bC5jb20xHzAdBgkqhkiG9w0BCQEWEGluZm9Ad29sZnNzbC5jb20wHhcNMjAwNTA3
MDczOTA1WhcNMjMwMjAxMDczOTA1WjCBoTELMAkGA1UEBhMCVVMxEzARBgNVBAgM
Cldhc2hpbmd0b24xEDAOBgNVBAcMB1NlYXR0bGUxFTATBgNVBAoMDHdvbGZTU0wg
SW5jLjEUMBIGA1UECwwLRW5naW5lZXJpbmcxHTAbBgNVBAMMFGNoYWluSi1JQ0E0
LXBhdGhsZW4yMR8wHQYJKoZIhvcNAQkBFhBpbmZvQHdvbGZzc2wuY29tMIIBIjAN
BgkqhkiG9w0BAQEFAAOCAQ8AMIIBCgKCAQEAnUrua/+27IghI4QDtoi7PloblQMv
JFMtVz8ROF0SHUBrENvC0+TdgHd0e4hEZeDPUsWKQuVut2qrUKAuKcL+utXH2muR
Jo/8HgYX8N5Yh+8eppESOWilBfOMZ8nlmRik/JA/vabK8qbdteaTyxSJgzyIWjGr
42YqG4fFhQNFsM7hD8EPknDXrGXqqAnB/h3bt+fdmNPGsRa0VFjBqrqhzxkUp+RV
ptq7H57RhQDgjUrE0oYIdf3YHoUhbCePGNVEc1irlHVKNj2NTcZ6hp0A28W6vnAC
g79u2DGJs/IWmL4n9hRa6dRyZ42p33YnvxmsIFkoWxtC2dVbbftuol7T6QIDAQAB
o4IBGDCCARQwHQYDVR0OBBYEFPwYE1K7M0rbHFvRgJg+QIaVWHL5MIHUBgNVHSME
gcwwgcmAFCeOZxF0wyYdP+0zY7Ok2B0w5ejVoYGapIGXMIGUMQswCQYDVQQGEwJV
UzEQMA4GA1UECAwHTW9udGFuYTEQMA4GA1UEBwwHQm96ZW1hbjERMA8GA1UECgwI
U2F3dG9vdGgxEzARBgNVBAsMCkNvbnN1bHRpbmcxGDAWBgNVBAMMD3d3dy53b2xm
c3NsLmNvbTEfMB0GCSqGSIb3DQEJARYQaW5mb0B3b2xmc3NsLmNvbYIUPzITUpLG
30rVQgVssLIuRsL4uGcwDwYDVR0TBAgwBgEB/wIBAjALBgNVHQ8EBAMCAQYwDQYJ
KoZIhvcNAQELBQADggEBAFEhko9ZiHI6bTYGgz+J0OCRGZk+Pr4WTgr+nu8e+KPi
qlOVaPr5CfzdVPKaHnVnkLlUWLxNA2wVtBHE0fcdarSEIT4bw74IlW2M9pFCTwzL
Vs6uR+/3rJJ291kDqqS+lf60TrFyEC9YB9XonT2xcO5SjjPa5ZTBA8Qe0pY6I33W
NG2YE8DIPbvTMtpmMwNkuiUfltDgYrmYTLqrUWivoBc0IWsrc5aYz3S5JsholhiX
MNzT6y7+BE2xQ8uPKZ1A85Lt7xY6LJZue8On5wwWwt6ax3WOiZNkgurtEHtMcdI9
QJcFaM0tXqPD+hmXqCHHpabh1KVjTrThPyUCDyp4adY=
-----END CERTIFICATE-----
