Certificate:
    Data:
        Version: 3 (0x2)
        Serial Number: 100 (0x64)
        Signature Algorithm: sha256WithRSAEncryption
        Issuer: C = US, ST = Washington, L = Seattle, O = wolfSSL Inc., OU = Engineering, CN = chainI-ICA3-pathlen2, emailAddress = info@wolfssl.com
        Validity
            Not Before: Dec 13 22:19:33 2023 GMT
            Not After : Sep  8 22:19:33 2026 GMT
        Subject: C = US, ST = Washington, L = Seattle, O = wolfSSL Inc., OU = Engineering, CN = chainI-ICA2-no_pathlen, emailAddress = info@wolfssl.com
        Subject Public Key Info:
            Public Key Algorithm: rsaEncryption
                RSA Public-Key: (2048 bit)
                Modulus:
                    00:de:1e:08:66:12:fe:20:07:10:1b:a1:27:0d:f9:
                    22:30:81:9b:ce:62:b1:a6:6d:49:d4:ed:b8:2d:4b:
                    97:77:1e:94:51:3d:73:2b:16:e9:05:e9:4c:1b:82:
                    ad:47:9d:33:30:53:b5:9b:d2:2d:e9:7b:d6:63:f3:
                    61:20:1b:23:6e:47:09:8b:c0:d5:09:85:a6:e2:e4:
                    3a:4d:b3:f9:dd:c6:7c:9a:42:07:22:d5:7b:67:18:
                    38:c4:fc:ea:8d:09:80:a0:b0:44:33:fd:c1:aa:8b:
                    9c:98:e3:95:c3:74:71:3b:71:b8:b3:80:bf:30:63:
                    85:09:27:8b:12:b5:86:b0:0b:99:ff:97:42:52:a0:
                    ac:b2:38:38:8d:13:96:d9:d6:fa:8f:c4:89:14:06:
                    9c:1f:0a:a3:3a:a2:f7:1f:83:d8:ae:41:44:9e:21:
                    b2:5b:b7:a2:19:e9:46:58:de:e5:a2:ab:07:7a:9a:
                    9a:60:bc:14:ed:cf:4d:42:fc:5c:28:ea:42:d1:ae:
                    cc:71:7e:52:5d:84:88:de:b6:7d:72:6e:ab:73:4b:
                    0d:ab:92:9f:11:b4:51:da:14:54:9a:0e:ec:ac:42:
                    fc:71:87:5b:54:38:09:2c:f0:5d:86:0c:34:b7:92:
                    33:5c:3e:19:b1:4d:a0:62:9b:b4:68:36:36:38:ec:
                    29:b3
                Exponent: 65537 (0x10001)
        X509v3 extensions:
            X509v3 Subject Key Identifier: 
                D1:BA:FB:FF:1D:29:41:8A:6A:5F:B2:F3:A7:41:05:47:09:1F:48:42
            X509v3 Authority Key Identifier: 
                keyid:EE:37:A6:F2:40:D0:EF:FD:22:C7:A3:B4:6C:57:47:40:B9:99:F9:8D
                DirName:/C=US/ST=Montana/L=Bozeman/O=Sawtooth/OU=Consulting/CN=www.wolfssl.com/emailAddress=info@wolfssl.com
                serial:64

            X509v3 Basic Constraints: 
                CA:TRUE
            X509v3 Key Usage: 
                Certificate Sign, CRL Sign
    Signature Algorithm: sha256WithRSAEncryption
         14:61:ba:15:45:07:60:d4:c9:6d:ef:6f:74:2a:44:b5:34:a4:
         df:0e:d9:f1:7b:7c:cb:50:db:d7:17:d3:9d:91:64:01:1b:93:
         0d:b5:51:07:16:77:5f:2a:b5:9a:24:39:19:fc:ee:4d:79:4f:
         c3:a3:9f:a1:07:e8:a3:0c:7e:04:0c:b0:33:a1:96:21:d2:ce:
         88:41:28:88:82:39:7f:9d:54:2d:4c:56:df:41:8e:4a:59:69:
         84:0b:fc:5d:47:06:84:ec:ae:4d:52:34:b2:1a:e8:61:e0:51:
         8c:87:ad:c9:5d:f3:2e:bb:5b:36:d2:91:71:7f:f9:cf:f9:7f:
         c3:2d:e5:7d:a7:fb:8a:2f:47:24:6c:3a:75:72:9b:c8:74:6f:
         17:95:a4:d4:96:b4:3e:91:bf:c1:eb:89:18:ba:c3:e1:52:f8:
         e8:a4:92:1b:c9:d8:a7:11:40:bf:62:9a:e6:ee:70:0a:f5:a3:
         6d:06:0f:59:ad:53:8a:f6:b8:93:dc:39:59:b7:97:c2:3c:e2:
         3b:e8:9f:5a:c9:42:35:d2:39:32:d8:9a:1d:3f:52:e6:cd:0b:
         f9:d0:be:d8:ad:09:11:d7:6b:c2:c3:2e:d2:9b:92:99:a0:a8:
         c9:0e:30:41:0e:73:77:48:ac:8b:69:28:3b:1c:76:b3:da:7f:
         bd:04:95:07
-----BEGIN CERTIFICATE-----
MIIExDCCA6ygAwIBAgIBZDANBgkqhkiG9w0BAQsFADCBoTELMAkGA1UEBhMCVVMx
EzARBgNVBAgMCldhc2hpbmd0b24xEDAOBgNVBAcMB1NlYXR0bGUxFTATBgNVBAoM
DHdvbGZTU0wgSW5jLjEUMBIGA1UECwwLRW5naW5lZXJpbmcxHTAbBgNVBAMMFGNo
YWluSS1JQ0EzLXBhdGhsZW4yMR8wHQYJKoZIhvcNAQkBFhBpbmZvQHdvbGZzc2wu
Y29tMB4XDTIzMTIxMzIyMTkzM1oXDTI2MDkwODIyMTkzM1owgaMxCzAJBgNVBAYT
AlVTMRMwEQYDVQQIDApXYXNoaW5ndG9uMRAwDgYDVQQHDAdTZWF0dGxlMRUwEwYD
VQQKDAx3b2xmU1NMIEluYy4xFDASBgNVBAsMC0VuZ2luZWVyaW5nMR8wHQYDVQQD
DBZjaGFpbkktSUNBMi1ub19wYXRobGVuMR8wHQYJKoZIhvcNAQkBFhBpbmZvQHdv
bGZzc2wuY29tMIIBIjANBgkqhkiG9w0BAQEFAAOCAQ8AMIIBCgKCAQEA3h4IZhL+
IAcQG6EnDfkiMIGbzmKxpm1J1O24LUuXdx6UUT1zKxbpBelMG4KtR50zMFO1m9It
6XvWY/NhIBsjbkcJi8DVCYWm4uQ6TbP53cZ8mkIHItV7Zxg4xPzqjQmAoLBEM/3B
qoucmOOVw3RxO3G4s4C/MGOFCSeLErWGsAuZ/5dCUqCssjg4jROW2db6j8SJFAac
HwqjOqL3H4PYrkFEniGyW7eiGelGWN7loqsHepqaYLwU7c9NQvxcKOpC0a7McX5S
XYSI3rZ9cm6rc0sNq5KfEbRR2hRUmg7srEL8cYdbVDgJLPBdhgw0t5IzXD4ZsU2g
Ypu0aDY2OOwpswIDAQABo4IBATCB/jAdBgNVHQ4EFgQU0br7/x0pQYpqX7Lzp0EF
RwkfSEIwgcEGA1UdIwSBuTCBtoAU7jem8kDQ7/0ix6O0bFdHQLmZ+Y2hgZqkgZcw
gZQxCzAJBgNVBAYTAlVTMRAwDgYDVQQIDAdNb250YW5hMRAwDgYDVQQHDAdCb3pl
bWFuMREwDwYDVQQKDAhTYXd0b290aDETMBEGA1UECwwKQ29uc3VsdGluZzEYMBYG
A1UEAwwPd3d3LndvbGZzc2wuY29tMR8wHQYJKoZIhvcNAQkBFhBpbmZvQHdvbGZz
c2wuY29tggFkMAwGA1UdEwQFMAMBAf8wCwYDVR0PBAQDAgEGMA0GCSqGSIb3DQEB
CwUAA4IBAQAUYboVRQdg1Mlt7290KkS1NKTfDtnxe3zLUNvXF9OdkWQBG5MNtVEH
FndfKrWaJDkZ/O5NeU/Do5+hB+ijDH4EDLAzoZYh0s6IQSiIgjl/nVQtTFbfQY5K
WWmEC/xdRwaE7K5NUjSyGuhh4FGMh63JXfMuu1s20pFxf/nP+X/DLeV9p/uKL0ck
bDp1cpvIdG8XlaTUlrQ+kb/B64kYusPhUvjopJIbydinEUC/Yprm7nAK9aNtBg9Z
rVOK9riT3DlZt5fCPOI76J9ayUI10jky2JodP1LmzQv50L7YrQkR12vCwy7Sm5KZ
oKjJDjBBDnN3SKyLaSg7HHaz2n+9BJUH
-----END CERTIFICATE-----
