Certificate:
    Data:
        Version: 3 (0x2)
        Serial Number: 100 (0x64)
        Signature Algorithm: sha256WithRSAEncryption
        Issuer: C=US, ST=Washington, L=Seattle, O=wolfSSL Inc., OU=Engineering, CN=chainI-ICA3-pathlen2, emailAddress=facts@wolfssl.com
        Validity
            Not Before: Jun 11 21:44:40 2026 GMT
            Not After : Mar  7 21:44:40 2029 GMT
        Subject: C=US, ST=Washington, L=Seattle, O=wolfSSL Inc., OU=Engineering, CN=chainI-ICA2-no_pathlen, emailAddress=facts@wolfssl.com
        Subject Public Key Info:
            Public Key Algorithm: rsaEncryption
                Public-Key: (2048 bit)
                Modulus:
                    00:de:1e:08:66:12:fe:20:07:10:1b:a1:27:0d:f9:
                    22:30:81:9b:ce:62:b1:a6:6d:49:d4:ed:b8:2d:4b:
                    97:77:1e:94:51:3d:73:2b:16:e9:05:e9:4c:1b:82:
                    ad:47:9d:33:30:53:b5:9b:d2:2d:e9:7b:d6:63:f3:
                    61:20:1b:23:6e:47:09:8b:c0:d5:09:85:a6:e2:e4:
                    3a:4d:b3:f9:dd:c6:7c:9a:42:07:22:d5:7b:67:18:
                    38:c4:fc:ea:8d:09:80:a0:b0:44:33:fd:c1:aa:8b:
                    9c:98:e3:95:c3:74:71:3b:71:b8:b3:80:bf:30:63:
                    85:09:27:8b:12:b5:86:b0:0b:99:ff:97:42:52:a0:
                    ac:b2:38:38:8d:13:96:d9:d6:fa:8f:c4:89:14:06:
                    9c:1f:0a:a3:3a:a2:f7:1f:83:d8:ae:41:44:9e:21:
                    b2:5b:b7:a2:19:e9:46:58:de:e5:a2:ab:07:7a:9a:
                    9a:60:bc:14:ed:cf:4d:42:fc:5c:28:ea:42:d1:ae:
                    cc:71:7e:52:5d:84:88:de:b6:7d:72:6e:ab:73:4b:
                    0d:ab:92:9f:11:b4:51:da:14:54:9a:0e:ec:ac:42:
                    fc:71:87:5b:54:38:09:2c:f0:5d:86:0c:34:b7:92:
                    33:5c:3e:19:b1:4d:a0:62:9b:b4:68:36:36:38:ec:
                    29:b3
                Exponent: 65537 (0x10001)
        X509v3 extensions:
            X509v3 Subject Key Identifier: 
                D1:BA:FB:FF:1D:29:41:8A:6A:5F:B2:F3:A7:41:05:47:09:1F:48:42
            X509v3 Authority Key Identifier: 
                keyid:EE:37:A6:F2:40:D0:EF:FD:22:C7:A3:B4:6C:57:47:40:B9:99:F9:8D
                DirName:/C=US/ST=Montana/L=Bozeman/O=Sawtooth/OU=Consulting/CN=www.wolfssl.com/emailAddress=facts@wolfssl.com
                serial:64
            X509v3 Basic Constraints: 
                CA:TRUE
            X509v3 Key Usage: 
                Certificate Sign, CRL Sign
    Signature Algorithm: sha256WithRSAEncryption
    Signature Value:
        ab:96:88:76:81:e7:6b:a0:26:95:74:4b:35:d8:7d:df:25:ca:
        b3:c2:a7:92:67:fc:7f:c4:d0:1f:8f:ee:3a:db:59:ba:fa:ef:
        91:bd:4e:71:15:ec:0a:dc:c6:d4:79:d9:82:85:be:8e:95:4a:
        0c:eb:e7:99:d0:e1:9b:d9:7c:71:60:60:a5:ae:69:c1:de:57:
        0b:70:03:cc:66:0e:da:9b:db:dd:55:79:76:5f:0f:3f:f3:6b:
        46:4b:43:fe:3d:10:50:6f:d5:d3:9e:1b:a8:44:8e:15:34:64:
        42:bb:d4:c3:2c:19:a3:dc:e8:70:c7:b0:f7:2d:87:a9:35:d5:
        94:27:c5:3f:68:53:ab:14:18:95:86:9d:e4:94:ee:67:d1:83:
        89:3b:9a:57:ba:3c:98:16:30:06:7a:94:21:48:dd:ba:49:70:
        16:84:a6:86:39:5e:4f:41:7f:de:a9:85:13:e5:a8:b7:d8:87:
        3e:d1:aa:ef:08:5b:1c:ca:87:76:a9:e7:bd:0b:23:b5:c1:0f:
        b7:41:2b:cc:ec:b3:7b:2b:37:ba:f5:65:6e:e7:04:c1:86:52:
        54:de:73:09:28:42:d0:21:2e:2b:22:0d:8b:c3:14:da:e1:88:
        85:0d:74:b3:df:2c:83:0d:3c:ac:41:c5:f4:2f:f8:4f:3b:00:
        ba:b7:01:96
-----BEGIN CERTIFICATE-----
MIIExzCCA6+gAwIBAgIBZDANBgkqhkiG9w0BAQsFADCBojELMAkGA1UEBhMCVVMx
EzARBgNVBAgMCldhc2hpbmd0b24xEDAOBgNVBAcMB1NlYXR0bGUxFTATBgNVBAoM
DHdvbGZTU0wgSW5jLjEUMBIGA1UECwwLRW5naW5lZXJpbmcxHTAbBgNVBAMMFGNo
YWluSS1JQ0EzLXBhdGhsZW4yMSAwHgYJKoZIhvcNAQkBFhFmYWN0c0B3b2xmc3Ns
LmNvbTAeFw0yNjA2MTEyMTQ0NDBaFw0yOTAzMDcyMTQ0NDBaMIGkMQswCQYDVQQG
EwJVUzETMBEGA1UECAwKV2FzaGluZ3RvbjEQMA4GA1UEBwwHU2VhdHRsZTEVMBMG
A1UECgwMd29sZlNTTCBJbmMuMRQwEgYDVQQLDAtFbmdpbmVlcmluZzEfMB0GA1UE
AwwWY2hhaW5JLUlDQTItbm9fcGF0aGxlbjEgMB4GCSqGSIb3DQEJARYRZmFjdHNA
d29sZnNzbC5jb20wggEiMA0GCSqGSIb3DQEBAQUAA4IBDwAwggEKAoIBAQDeHghm
Ev4gBxAboScN+SIwgZvOYrGmbUnU7bgtS5d3HpRRPXMrFukF6Uwbgq1HnTMwU7Wb
0i3pe9Zj82EgGyNuRwmLwNUJhabi5DpNs/ndxnyaQgci1XtnGDjE/OqNCYCgsEQz
/cGqi5yY45XDdHE7cbizgL8wY4UJJ4sStYawC5n/l0JSoKyyODiNE5bZ1vqPxIkU
BpwfCqM6ovcfg9iuQUSeIbJbt6IZ6UZY3uWiqwd6mppgvBTtz01C/Fwo6kLRrsxx
flJdhIjetn1ybqtzSw2rkp8RtFHaFFSaDuysQvxxh1tUOAks8F2GDDS3kjNcPhmx
TaBim7RoNjY47CmzAgMBAAGjggECMIH/MB0GA1UdDgQWBBTRuvv/HSlBimpfsvOn
QQVHCR9IQjCBwgYDVR0jBIG6MIG3gBTuN6byQNDv/SLHo7RsV0dAuZn5jaGBm6SB
mDCBlTELMAkGA1UEBhMCVVMxEDAOBgNVBAgMB01vbnRhbmExEDAOBgNVBAcMB0Jv
emVtYW4xETAPBgNVBAoMCFNhd3Rvb3RoMRMwEQYDVQQLDApDb25zdWx0aW5nMRgw
FgYDVQQDDA93d3cud29sZnNzbC5jb20xIDAeBgkqhkiG9w0BCQEWEWZhY3RzQHdv
bGZzc2wuY29tggFkMAwGA1UdEwQFMAMBAf8wCwYDVR0PBAQDAgEGMA0GCSqGSIb3
DQEBCwUAA4IBAQCrloh2gedroCaVdEs12H3fJcqzwqeSZ/x/xNAfj+4621m6+u+R
vU5xFewK3MbUedmChb6OlUoM6+eZ0OGb2XxxYGClrmnB3lcLcAPMZg7am9vdVXl2
Xw8/82tGS0P+PRBQb9XTnhuoRI4VNGRCu9TDLBmj3Ohwx7D3LYepNdWUJ8U/aFOr
FBiVhp3klO5n0YOJO5pXujyYFjAGepQhSN26SXAWhKaGOV5PQX/eqYUT5ai32Ic+
0arvCFscyod2qee9CyO1wQ+3QSvM7LN7Kze69WVu5wTBhlJU3nMJKELQIS4rIg2L
wxTa4YiFDXSz3yyDDTysQcX0L/hPOwC6twGW
-----END CERTIFICATE-----
