Certificate:
    Data:
        Version: 3 (0x2)
        Serial Number: 101 (0x65)
        Signature Algorithm: sha256WithRSAEncryption
        Issuer: C=US, ST=Washington, L=Seattle, O=wolfSSL Inc., OU=Engineering, CN=chainD-ICA1-pathlen127, emailAddress=facts@wolfssl.com
        Validity
            Not Before: Jun 11 21:44:38 2026 GMT
            Not After : Mar  7 21:44:38 2029 GMT
        Subject: C=US, ST=Washington, L=Seattle, O=wolfSSL Inc., OU=Engineering, CN=chainD-entity, emailAddress=facts@wolfssl.com
        Subject Public Key Info:
            Public Key Algorithm: rsaEncryption
                Public-Key: (2048 bit)
                Modulus:
                    00:e2:5d:f4:bd:06:b6:a1:21:3a:2d:7f:cc:f2:5a:
                    15:36:28:0a:f2:bb:16:b5:ec:f9:e7:5b:92:ec:17:
                    75:76:89:f4:1b:7c:a9:79:cb:62:4b:55:8a:ca:cc:
                    f9:f0:a9:a2:05:61:ee:d8:8b:d0:5d:c5:49:bc:7d:
                    28:26:7d:3a:22:cc:20:71:55:4c:3a:f7:24:d7:95:
                    ac:ce:18:7d:0d:7b:20:4f:11:a9:7b:02:08:09:e6:
                    85:91:e4:4e:80:b9:a4:76:0f:28:cc:07:f6:f2:be:
                    c1:54:63:d2:b7:81:59:09:0b:c1:bd:0d:27:70:55:
                    c7:5f:bc:54:ee:73:16:7e:d2:b4:4c:df:a8:a9:81:
                    cc:e3:a6:8c:eb:e3:98:49:84:0b:a0:da:f3:e1:5f:
                    32:69:6a:b0:50:69:4f:96:72:04:3f:e7:1c:80:b1:
                    2c:6f:7d:ff:41:f2:bb:0b:17:b7:b5:ce:21:ea:e6:
                    c2:bd:cd:28:08:40:43:04:e5:40:e2:7d:41:35:b5:
                    51:bf:e8:20:01:99:85:a2:38:f1:6e:69:40:da:6e:
                    9f:d3:40:63:89:19:de:4d:49:d2:79:10:b6:2a:bb:
                    6f:66:fa:25:5f:96:c1:e8:38:96:e3:e5:28:28:b4:
                    ca:3c:21:1c:95:cd:b5:5e:50:f1:c9:3e:c2:4c:f2:
                    cb:33
                Exponent: 65537 (0x10001)
        X509v3 extensions:
            X509v3 Subject Key Identifier: 
                58:92:0B:B2:E4:12:D8:A3:31:37:D9:89:F2:9E:6E:62:22:40:42:82
            X509v3 Authority Key Identifier: 
                keyid:67:78:F9:AD:1C:53:41:1F:46:BD:49:9B:73:2E:7C:DC:5C:2D:0B:FB
                DirName:/C=US/ST=Montana/L=Bozeman/O=Sawtooth/OU=Consulting/CN=www.wolfssl.com/emailAddress=facts@wolfssl.com
                serial:64
            X509v3 Basic Constraints: 
                CA:FALSE
    Signature Algorithm: sha256WithRSAEncryption
    Signature Value:
        14:c3:0c:02:b8:06:9c:e8:c6:ff:dc:97:fb:79:0c:28:8c:96:
        df:71:d4:f2:10:9b:a4:9d:79:d9:74:62:8b:0b:62:84:27:59:
        57:2d:f1:d7:96:29:1f:c2:a7:bc:ed:cd:1c:64:a7:16:ad:f6:
        06:2a:97:59:66:d0:cc:45:0c:5c:94:0d:de:e5:f0:2e:bd:6d:
        8a:73:80:00:87:88:31:8f:8b:31:21:d5:ba:a0:c0:93:8c:d8:
        5c:15:db:4d:ba:7c:8e:9b:15:1f:ca:59:56:5f:44:0f:c5:ec:
        51:c8:d7:80:77:60:13:9b:a4:1c:7d:01:7e:2c:4f:a8:6e:60:
        93:d5:21:1e:eb:a5:48:3d:f4:9c:3d:02:4c:9d:7d:e7:1f:6c:
        d0:03:b3:1c:f7:cd:5e:8a:67:93:04:e2:a0:96:b3:50:7e:31:
        aa:43:60:5e:71:a2:3b:80:af:08:39:3c:8d:e0:8d:2a:36:b2:
        3f:b8:c5:fc:c8:7e:86:1b:bd:19:41:cc:ca:64:f7:b1:29:44:
        9b:8e:7f:24:5c:a5:93:27:a3:22:77:5e:ef:bb:5d:b4:f8:f3:
        a4:1e:7d:ac:a2:17:4d:b2:b2:b3:96:f8:28:58:f8:62:5b:58:
        dc:6b:22:3d:f1:28:5c:f9:8f:96:b6:1b:06:b1:bf:0e:76:36:
        f2:a0:e2:08
-----BEGIN CERTIFICATE-----
MIIErzCCA5egAwIBAgIBZTANBgkqhkiG9w0BAQsFADCBpDELMAkGA1UEBhMCVVMx
EzARBgNVBAgMCldhc2hpbmd0b24xEDAOBgNVBAcMB1NlYXR0bGUxFTATBgNVBAoM
DHdvbGZTU0wgSW5jLjEUMBIGA1UECwwLRW5naW5lZXJpbmcxHzAdBgNVBAMMFmNo
YWluRC1JQ0ExLXBhdGhsZW4xMjcxIDAeBgkqhkiG9w0BCQEWEWZhY3RzQHdvbGZz
c2wuY29tMB4XDTI2MDYxMTIxNDQzOFoXDTI5MDMwNzIxNDQzOFowgZsxCzAJBgNV
BAYTAlVTMRMwEQYDVQQIDApXYXNoaW5ndG9uMRAwDgYDVQQHDAdTZWF0dGxlMRUw
EwYDVQQKDAx3b2xmU1NMIEluYy4xFDASBgNVBAsMC0VuZ2luZWVyaW5nMRYwFAYD
VQQDDA1jaGFpbkQtZW50aXR5MSAwHgYJKoZIhvcNAQkBFhFmYWN0c0B3b2xmc3Ns
LmNvbTCCASIwDQYJKoZIhvcNAQEBBQADggEPADCCAQoCggEBAOJd9L0GtqEhOi1/
zPJaFTYoCvK7FrXs+edbkuwXdXaJ9Bt8qXnLYktVisrM+fCpogVh7tiL0F3FSbx9
KCZ9OiLMIHFVTDr3JNeVrM4YfQ17IE8RqXsCCAnmhZHkToC5pHYPKMwH9vK+wVRj
0reBWQkLwb0NJ3BVx1+8VO5zFn7StEzfqKmBzOOmjOvjmEmEC6Da8+FfMmlqsFBp
T5ZyBD/nHICxLG99/0HyuwsXt7XOIermwr3NKAhAQwTlQOJ9QTW1Ub/oIAGZhaI4
8W5pQNpun9NAY4kZ3k1J0nkQtiq7b2b6JV+Wweg4luPlKCi0yjwhHJXNtV5Q8ck+
wkzyyzMCAwEAAaOB8jCB7zAdBgNVHQ4EFgQUWJILsuQS2KMxN9mJ8p5uYiJAQoIw
gcIGA1UdIwSBujCBt4AUZ3j5rRxTQR9GvUmbcy583FwtC/uhgZukgZgwgZUxCzAJ
BgNVBAYTAlVTMRAwDgYDVQQIDAdNb250YW5hMRAwDgYDVQQHDAdCb3plbWFuMREw
DwYDVQQKDAhTYXd0b290aDETMBEGA1UECwwKQ29uc3VsdGluZzEYMBYGA1UEAwwP
d3d3LndvbGZzc2wuY29tMSAwHgYJKoZIhvcNAQkBFhFmYWN0c0B3b2xmc3NsLmNv
bYIBZDAJBgNVHRMEAjAAMA0GCSqGSIb3DQEBCwUAA4IBAQAUwwwCuAac6Mb/3Jf7
eQwojJbfcdTyEJuknXnZdGKLC2KEJ1lXLfHXlikfwqe87c0cZKcWrfYGKpdZZtDM
RQxclA3e5fAuvW2Kc4AAh4gxj4sxIdW6oMCTjNhcFdtNunyOmxUfyllWX0QPxexR
yNeAd2ATm6QcfQF+LE+obmCT1SEe66VIPfScPQJMnX3nH2zQA7Mc981eimeTBOKg
lrNQfjGqQ2BecaI7gK8IOTyN4I0qNrI/uMX8yH6GG70ZQczKZPexKUSbjn8kXKWT
J6Mid17vu120+POkHn2sohdNsrKzlvgoWPhiW1jcayI98Shc+Y+WthsGsb8Odjby
oOII
-----END CERTIFICATE-----
