Certificate:
    Data:
        Version: 3 (0x2)
        Serial Number: 101 (0x65)
        Signature Algorithm: sha256WithRSAEncryption
        Issuer: C = US, ST = Washington, L = Seattle, O = wolfSSL Inc., OU = Engineering, CN = chainC-ICA1-pathlen1, emailAddress = info@wolfssl.com
        Validity
            Not Before: Dec 13 22:19:32 2023 GMT
            Not After : Sep  8 22:19:32 2026 GMT
        Subject: C = US, ST = Washington, L = Seattle, O = wolfSSL Inc., OU = Engineering, CN = chainC-entity, emailAddress = info@wolfssl.com
        Subject Public Key Info:
            Public Key Algorithm: rsaEncryption
                RSA Public-Key: (2048 bit)
                Modulus:
                    00:bf:34:e1:1c:2c:2d:a4:93:b5:c4:fc:65:40:fa:
                    94:68:74:24:ff:52:a4:df:3e:f1:7c:92:14:f0:f0:
                    91:ed:9c:7e:a0:7e:b1:07:20:38:b2:c4:a2:b8:09:
                    d1:06:ee:fa:c6:7e:4d:79:be:dd:83:18:cf:e8:a7:
                    78:88:cd:44:ce:3a:40:05:7a:6e:c5:c9:e4:84:64:
                    e0:01:7d:4f:f9:87:d2:94:91:e9:c8:21:bc:71:2e:
                    ef:f6:61:23:46:6b:da:5f:32:23:a1:86:9c:c6:9a:
                    b4:98:35:6d:36:b8:34:14:fd:9d:63:2f:75:7e:58:
                    f2:08:f9:e3:32:2a:a6:d2:b1:49:05:d3:8c:d4:48:
                    5c:c2:57:07:62:4e:7a:05:23:c2:4f:ca:d5:a8:38:
                    32:92:c2:21:3b:74:3e:2d:b1:6b:57:96:81:a3:2d:
                    ce:6e:9c:d9:ce:1f:e9:42:f8:2c:bb:fe:07:57:c6:
                    c8:93:6e:89:d3:fc:d2:83:4b:c1:2c:ea:5e:41:c9:
                    7c:be:6c:23:01:89:75:1b:1f:57:ac:83:dc:da:e1:
                    63:55:d8:94:fc:2d:a6:99:15:d1:71:88:a5:1b:f5:
                    6f:39:0a:bd:ec:09:02:09:77:a7:5d:da:78:f8:8f:
                    b1:5d:a7:83:12:10:5f:89:ae:72:c2:88:bf:3e:80:
                    98:c3
                Exponent: 65537 (0x10001)
        X509v3 extensions:
            X509v3 Subject Key Identifier: 
                91:79:7C:91:A7:A0:BC:E1:7B:77:9E:51:6E:5C:A7:7A:D9:3F:18:A0
            X509v3 Authority Key Identifier: 
                keyid:94:1D:2E:07:37:C6:2F:52:C1:EC:79:6B:13:CE:09:90:5F:F4:C4:51
                DirName:/C=US/ST=Montana/L=Bozeman/O=Sawtooth/OU=Consulting/CN=www.wolfssl.com/emailAddress=info@wolfssl.com
                serial:64

            X509v3 Basic Constraints: 
                CA:FALSE
    Signature Algorithm: sha256WithRSAEncryption
         b0:8e:f5:a6:d7:df:13:fb:72:58:82:1e:b8:e8:34:aa:12:cc:
         39:4e:ad:b7:ff:b7:1b:d4:91:25:12:4f:af:f4:f0:9a:bf:e4:
         0f:f1:3d:bb:46:e9:c1:61:a5:b1:42:f3:13:75:b1:60:df:ba:
         36:62:f4:4d:e1:2c:23:ff:92:db:81:dc:72:71:74:00:6b:a2:
         29:cd:6f:ff:3c:db:35:6c:8c:bf:d5:d4:af:20:78:65:6c:f3:
         5c:e5:84:22:b6:1c:06:6e:fa:b1:fb:07:3e:76:60:58:36:73:
         3c:97:ab:5a:27:56:d6:f9:ef:43:34:67:af:57:3e:d2:dc:2e:
         e7:e4:1c:8b:cb:90:11:1a:b9:8e:01:3f:e4:a2:6c:93:b3:90:
         cd:6c:05:1e:d7:2f:7a:00:de:00:be:e6:35:4c:25:fc:19:96:
         27:9f:0d:0b:a8:9d:14:d9:89:4b:13:ec:53:e9:f9:31:b7:3f:
         95:61:7e:b3:bb:32:a3:f1:94:53:49:b4:f5:c8:ee:83:0d:69:
         5c:89:c3:21:e4:a5:d0:9c:af:30:af:64:e3:78:53:d5:5e:72:
         2b:d8:d7:7a:45:03:ba:9f:93:c9:fb:8d:cc:94:41:d5:2a:eb:
         87:ee:9f:c8:bf:ca:d1:6e:92:6b:96:af:20:6e:a5:42:9b:1d:
         8b:2b:ad:d5
-----BEGIN CERTIFICATE-----
MIIEqjCCA5KgAwIBAgIBZTANBgkqhkiG9w0BAQsFADCBoTELMAkGA1UEBhMCVVMx
EzARBgNVBAgMCldhc2hpbmd0b24xEDAOBgNVBAcMB1NlYXR0bGUxFTATBgNVBAoM
DHdvbGZTU0wgSW5jLjEUMBIGA1UECwwLRW5naW5lZXJpbmcxHTAbBgNVBAMMFGNo
YWluQy1JQ0ExLXBhdGhsZW4xMR8wHQYJKoZIhvcNAQkBFhBpbmZvQHdvbGZzc2wu
Y29tMB4XDTIzMTIxMzIyMTkzMloXDTI2MDkwODIyMTkzMlowgZoxCzAJBgNVBAYT
AlVTMRMwEQYDVQQIDApXYXNoaW5ndG9uMRAwDgYDVQQHDAdTZWF0dGxlMRUwEwYD
VQQKDAx3b2xmU1NMIEluYy4xFDASBgNVBAsMC0VuZ2luZWVyaW5nMRYwFAYDVQQD
DA1jaGFpbkMtZW50aXR5MR8wHQYJKoZIhvcNAQkBFhBpbmZvQHdvbGZzc2wuY29t
MIIBIjANBgkqhkiG9w0BAQEFAAOCAQ8AMIIBCgKCAQEAvzThHCwtpJO1xPxlQPqU
aHQk/1Kk3z7xfJIU8PCR7Zx+oH6xByA4ssSiuAnRBu76xn5Neb7dgxjP6Kd4iM1E
zjpABXpuxcnkhGTgAX1P+YfSlJHpyCG8cS7v9mEjRmvaXzIjoYacxpq0mDVtNrg0
FP2dYy91fljyCPnjMiqm0rFJBdOM1EhcwlcHYk56BSPCT8rVqDgyksIhO3Q+LbFr
V5aBoy3ObpzZzh/pQvgsu/4HV8bIk26J0/zSg0vBLOpeQcl8vmwjAYl1Gx9XrIPc
2uFjVdiU/C2mmRXRcYilG/VvOQq97AkCCXenXdp4+I+xXaeDEhBfia5ywoi/PoCY
wwIDAQABo4HxMIHuMB0GA1UdDgQWBBSReXyRp6C84Xt3nlFuXKd62T8YoDCBwQYD
VR0jBIG5MIG2gBSUHS4HN8YvUsHseWsTzgmQX/TEUaGBmqSBlzCBlDELMAkGA1UE
BhMCVVMxEDAOBgNVBAgMB01vbnRhbmExEDAOBgNVBAcMB0JvemVtYW4xETAPBgNV
BAoMCFNhd3Rvb3RoMRMwEQYDVQQLDApDb25zdWx0aW5nMRgwFgYDVQQDDA93d3cu
d29sZnNzbC5jb20xHzAdBgkqhkiG9w0BCQEWEGluZm9Ad29sZnNzbC5jb22CAWQw
CQYDVR0TBAIwADANBgkqhkiG9w0BAQsFAAOCAQEAsI71ptffE/tyWIIeuOg0qhLM
OU6tt/+3G9SRJRJPr/Twmr/kD/E9u0bpwWGlsULzE3WxYN+6NmL0TeEsI/+S24Hc
cnF0AGuiKc1v/zzbNWyMv9XUryB4ZWzzXOWEIrYcBm76sfsHPnZgWDZzPJerWidW
1vnvQzRnr1c+0twu5+Qci8uQERq5jgE/5KJsk7OQzWwFHtcvegDeAL7mNUwl/BmW
J58NC6idFNmJSxPsU+n5Mbc/lWF+s7syo/GUU0m09cjugw1pXInDIeSl0JyvMK9k
43hT1V5yK9jXekUDup+TyfuNzJRB1Srrh+6fyL/K0W6Sa5avIG6lQpsdiyut1Q==
-----END CERTIFICATE-----
Certificate:
    Data:
        Version: 3 (0x2)
        Serial Number: 100 (0x64)
        Signature Algorithm: sha256WithRSAEncryption
        Issuer: C = US, ST = Montana, L = Bozeman, O = Sawtooth, OU = Consulting, CN = www.wolfssl.com, emailAddress = info@wolfssl.com
        Validity
            Not Before: Dec 13 22:19:32 2023 GMT
            Not After : Sep  8 22:19:32 2026 GMT
        Subject: C = US, ST = Washington, L = Seattle, O = wolfSSL Inc., OU = Engineering, CN = chainC-ICA1-pathlen1, emailAddress = info@wolfssl.com
        Subject Public Key Info:
            Public Key Algorithm: rsaEncryption
                RSA Public-Key: (2048 bit)
                Modulus:
                    00:bb:1a:6c:c1:bd:bb:9b:29:ca:35:3d:63:a3:29:
                    cd:a6:65:c4:9e:a3:c5:50:99:ad:51:90:0a:9a:9b:
                    83:ce:be:06:bb:66:4f:ef:1e:31:25:34:6f:5f:98:
                    ae:01:49:c3:63:17:84:b9:7a:6d:c0:d8:fd:0c:ff:
                    9a:02:4c:41:37:49:f0:18:63:1b:4f:fc:37:26:4e:
                    54:79:d7:17:39:50:79:6e:a3:29:99:07:ad:9d:5c:
                    d8:e1:02:e7:33:7e:e4:da:a4:05:bc:62:03:d3:9f:
                    6a:91:92:66:dd:29:d0:95:fb:2f:3f:f0:59:b8:70:
                    5b:25:54:7b:a0:0a:9f:33:09:64:ed:fb:d4:1c:2d:
                    96:54:45:e3:50:98:ff:b1:7f:9a:c6:cf:09:a3:da:
                    e9:57:ad:1d:05:8f:1e:75:75:e7:d2:07:33:de:da:
                    7d:42:d8:0e:94:fe:ae:c7:9b:c3:b5:9e:f3:6b:21:
                    9f:74:c4:b3:32:7c:28:4e:0f:bc:15:33:ba:9c:09:
                    3c:c1:40:06:78:bb:b1:20:3f:61:15:f6:1e:49:73:
                    51:89:95:2d:95:bf:34:d6:c2:a9:d1:34:1d:8d:21:
                    6d:4f:a3:6e:ef:fc:23:a2:76:fc:d0:25:53:0e:43:
                    76:3b:ed:82:ec:d8:23:cb:33:ef:3c:9d:a1:de:e6:
                    7a:ad
                Exponent: 65537 (0x10001)
        X509v3 extensions:
            X509v3 Subject Key Identifier: 
                94:1D:2E:07:37:C6:2F:52:C1:EC:79:6B:13:CE:09:90:5F:F4:C4:51
            X509v3 Authority Key Identifier: 
                keyid:27:8E:67:11:74:C3:26:1D:3F:ED:33:63:B3:A4:D8:1D:30:E5:E8:D5
                DirName:/C=US/ST=Montana/L=Bozeman/O=Sawtooth/OU=Consulting/CN=www.wolfssl.com/emailAddress=info@wolfssl.com
                serial:33:44:1A:A8:6C:01:EC:F6:60:F2:70:51:0A:4C:D1:14:FA:BC:E9:44

            X509v3 Basic Constraints: 
                CA:TRUE, pathlen:1
            X509v3 Key Usage: 
                Certificate Sign, CRL Sign
    Signature Algorithm: sha256WithRSAEncryption
         52:84:69:eb:36:71:76:74:41:ab:d8:70:ae:18:64:3f:b1:8d:
         ef:ad:2f:6b:6b:e5:c3:5e:41:ca:6c:30:23:b5:6b:26:c2:18:
         fa:b4:97:95:9f:50:16:29:94:5e:91:1b:90:22:db:1e:a8:7f:
         eb:db:b9:38:d8:7d:8d:f9:1b:b2:c4:ab:0e:10:d4:ae:8e:a3:
         56:c5:e0:ed:f9:37:eb:ce:1f:93:70:32:2a:aa:30:90:38:02:
         58:e4:e7:e7:bb:80:64:a0:ef:8d:2f:15:2d:8b:d0:d8:b0:72:
         0c:63:76:ba:cb:c8:1c:79:34:d9:d3:23:15:c2:b2:da:89:1a:
         c6:24:16:60:2f:8a:80:fd:ac:cf:3d:0d:eb:1b:e1:ca:aa:37:
         e5:a1:80:8d:14:e1:ca:94:f2:c4:7c:22:4a:54:f6:e4:e5:db:
         57:13:a3:fb:9a:63:13:2c:6e:4b:33:cc:1e:de:73:7e:00:b9:
         8f:3d:bf:ff:af:81:83:31:2e:42:b2:c9:df:23:ae:9a:35:cf:
         3d:f4:98:fd:dc:58:15:01:41:a7:c0:6c:09:cd:88:39:24:71:
         10:97:f3:e5:0e:ad:59:77:83:00:a0:03:9e:c8:cb:26:18:d1:
         a1:60:bd:8a:53:a8:4e:08:0e:57:1e:5b:1d:df:a5:bd:04:01:
         66:dd:30:2d
-----BEGIN CERTIFICATE-----
MIIEzDCCA7SgAwIBAgIBZDANBgkqhkiG9w0BAQsFADCBlDELMAkGA1UEBhMCVVMx
EDAOBgNVBAgMB01vbnRhbmExEDAOBgNVBAcMB0JvemVtYW4xETAPBgNVBAoMCFNh
d3Rvb3RoMRMwEQYDVQQLDApDb25zdWx0aW5nMRgwFgYDVQQDDA93d3cud29sZnNz
bC5jb20xHzAdBgkqhkiG9w0BCQEWEGluZm9Ad29sZnNzbC5jb20wHhcNMjMxMjEz
MjIxOTMyWhcNMjYwOTA4MjIxOTMyWjCBoTELMAkGA1UEBhMCVVMxEzARBgNVBAgM
Cldhc2hpbmd0b24xEDAOBgNVBAcMB1NlYXR0bGUxFTATBgNVBAoMDHdvbGZTU0wg
SW5jLjEUMBIGA1UECwwLRW5naW5lZXJpbmcxHTAbBgNVBAMMFGNoYWluQy1JQ0Ex
LXBhdGhsZW4xMR8wHQYJKoZIhvcNAQkBFhBpbmZvQHdvbGZzc2wuY29tMIIBIjAN
BgkqhkiG9w0BAQEFAAOCAQ8AMIIBCgKCAQEAuxpswb27mynKNT1joynNpmXEnqPF
UJmtUZAKmpuDzr4Gu2ZP7x4xJTRvX5iuAUnDYxeEuXptwNj9DP+aAkxBN0nwGGMb
T/w3Jk5UedcXOVB5bqMpmQetnVzY4QLnM37k2qQFvGID059qkZJm3SnQlfsvP/BZ
uHBbJVR7oAqfMwlk7fvUHC2WVEXjUJj/sX+axs8Jo9rpV60dBY8edXXn0gcz3tp9
QtgOlP6ux5vDtZ7zayGfdMSzMnwoTg+8FTO6nAk8wUAGeLuxID9hFfYeSXNRiZUt
lb801sKp0TQdjSFtT6Nu7/wjonb80CVTDkN2O+2C7NgjyzPvPJ2h3uZ6rQIDAQAB
o4IBGDCCARQwHQYDVR0OBBYEFJQdLgc3xi9Swex5axPOCZBf9MRRMIHUBgNVHSME
gcwwgcmAFCeOZxF0wyYdP+0zY7Ok2B0w5ejVoYGapIGXMIGUMQswCQYDVQQGEwJV
UzEQMA4GA1UECAwHTW9udGFuYTEQMA4GA1UEBwwHQm96ZW1hbjERMA8GA1UECgwI
U2F3dG9vdGgxEzARBgNVBAsMCkNvbnN1bHRpbmcxGDAWBgNVBAMMD3d3dy53b2xm
c3NsLmNvbTEfMB0GCSqGSIb3DQEJARYQaW5mb0B3b2xmc3NsLmNvbYIUM0QaqGwB
7PZg8nBRCkzRFPq86UQwDwYDVR0TBAgwBgEB/wIBATALBgNVHQ8EBAMCAQYwDQYJ
KoZIhvcNAQELBQADggEBAFKEaes2cXZ0QavYcK4YZD+xje+tL2tr5cNeQcpsMCO1
aybCGPq0l5WfUBYplF6RG5Ai2x6of+vbuTjYfY35G7LEqw4Q1K6Oo1bF4O35N+vO
H5NwMiqqMJA4Aljk5+e7gGSg740vFS2L0NiwcgxjdrrLyBx5NNnTIxXCstqJGsYk
FmAvioD9rM89Desb4cqqN+WhgI0U4cqU8sR8IkpU9uTl21cTo/uaYxMsbkszzB7e
c34AuY89v/+vgYMxLkKyyd8jrpo1zz30mP3cWBUBQafAbAnNiDkkcRCX8+UOrVl3
gwCgA57IyyYY0aFgvYpTqE4IDlceWx3fpb0EAWbdMC0=
-----END CERTIFICATE-----
