Certificate:
    Data:
        Version: 3 (0x2)
        Serial Number: 101 (0x65)
        Signature Algorithm: sha256WithRSAEncryption
        Issuer: C=US, ST=Washington, L=Seattle, O=wolfSSL Inc., OU=Engineering, CN=chainC-ICA1-pathlen1, emailAddress=facts@wolfssl.com
        Validity
            Not Before: Jun 11 21:44:38 2026 GMT
            Not After : Mar  7 21:44:38 2029 GMT
        Subject: C=US, ST=Washington, L=Seattle, O=wolfSSL Inc., OU=Engineering, CN=chainC-entity, emailAddress=facts@wolfssl.com
        Subject Public Key Info:
            Public Key Algorithm: rsaEncryption
                Public-Key: (2048 bit)
                Modulus:
                    00:bf:34:e1:1c:2c:2d:a4:93:b5:c4:fc:65:40:fa:
                    94:68:74:24:ff:52:a4:df:3e:f1:7c:92:14:f0:f0:
                    91:ed:9c:7e:a0:7e:b1:07:20:38:b2:c4:a2:b8:09:
                    d1:06:ee:fa:c6:7e:4d:79:be:dd:83:18:cf:e8:a7:
                    78:88:cd:44:ce:3a:40:05:7a:6e:c5:c9:e4:84:64:
                    e0:01:7d:4f:f9:87:d2:94:91:e9:c8:21:bc:71:2e:
                    ef:f6:61:23:46:6b:da:5f:32:23:a1:86:9c:c6:9a:
                    b4:98:35:6d:36:b8:34:14:fd:9d:63:2f:75:7e:58:
                    f2:08:f9:e3:32:2a:a6:d2:b1:49:05:d3:8c:d4:48:
                    5c:c2:57:07:62:4e:7a:05:23:c2:4f:ca:d5:a8:38:
                    32:92:c2:21:3b:74:3e:2d:b1:6b:57:96:81:a3:2d:
                    ce:6e:9c:d9:ce:1f:e9:42:f8:2c:bb:fe:07:57:c6:
                    c8:93:6e:89:d3:fc:d2:83:4b:c1:2c:ea:5e:41:c9:
                    7c:be:6c:23:01:89:75:1b:1f:57:ac:83:dc:da:e1:
                    63:55:d8:94:fc:2d:a6:99:15:d1:71:88:a5:1b:f5:
                    6f:39:0a:bd:ec:09:02:09:77:a7:5d:da:78:f8:8f:
                    b1:5d:a7:83:12:10:5f:89:ae:72:c2:88:bf:3e:80:
                    98:c3
                Exponent: 65537 (0x10001)
        X509v3 extensions:
            X509v3 Subject Key Identifier: 
                91:79:7C:91:A7:A0:BC:E1:7B:77:9E:51:6E:5C:A7:7A:D9:3F:18:A0
            X509v3 Authority Key Identifier: 
                keyid:94:1D:2E:07:37:C6:2F:52:C1:EC:79:6B:13:CE:09:90:5F:F4:C4:51
                DirName:/C=US/ST=Montana/L=Bozeman/O=Sawtooth/OU=Consulting/CN=www.wolfssl.com/emailAddress=facts@wolfssl.com
                serial:64
            X509v3 Basic Constraints: 
                CA:FALSE
    Signature Algorithm: sha256WithRSAEncryption
    Signature Value:
        49:13:c0:7d:2f:9b:3b:98:a6:54:a2:06:48:f7:2d:0a:68:f6:
        aa:08:1e:c0:29:40:ca:30:37:fc:27:e9:55:6d:aa:71:94:70:
        10:90:97:a5:2c:c2:5f:c2:bb:bf:8d:df:c1:b6:9f:e2:c7:e1:
        1f:93:12:bb:da:97:bf:b6:55:23:40:0c:d9:25:11:22:70:6c:
        c8:b6:6c:e2:6d:20:eb:b8:27:13:db:21:bc:ef:eb:b2:4f:a6:
        3f:ba:17:65:d3:ca:08:80:d2:c1:08:87:2c:21:87:85:bd:96:
        03:10:fe:4f:38:5a:11:1b:b7:36:7e:b3:0d:08:cf:f6:31:ca:
        c2:27:54:59:80:e1:b3:27:bb:65:41:30:13:c0:1d:cd:d8:39:
        73:74:01:6a:62:45:50:da:e7:33:ed:79:35:76:49:9a:d9:d7:
        a3:de:20:f6:1e:31:ca:f4:3e:fa:93:1a:56:35:25:38:92:35:
        a0:9d:d9:5a:ab:03:42:a5:24:67:12:a9:61:b4:5e:27:e7:8c:
        36:b5:74:60:41:a6:2e:ab:5a:f9:a4:c8:ad:3b:2c:59:f7:8b:
        dc:f3:52:9b:6d:cb:ec:5a:59:ec:b1:89:c9:64:d5:03:07:09:
        e1:45:0e:8b:7c:3a:c0:74:d0:8b:50:28:80:43:ef:92:39:a4:
        68:d1:ea:c0
-----BEGIN CERTIFICATE-----
MIIErTCCA5WgAwIBAgIBZTANBgkqhkiG9w0BAQsFADCBojELMAkGA1UEBhMCVVMx
EzARBgNVBAgMCldhc2hpbmd0b24xEDAOBgNVBAcMB1NlYXR0bGUxFTATBgNVBAoM
DHdvbGZTU0wgSW5jLjEUMBIGA1UECwwLRW5naW5lZXJpbmcxHTAbBgNVBAMMFGNo
YWluQy1JQ0ExLXBhdGhsZW4xMSAwHgYJKoZIhvcNAQkBFhFmYWN0c0B3b2xmc3Ns
LmNvbTAeFw0yNjA2MTEyMTQ0MzhaFw0yOTAzMDcyMTQ0MzhaMIGbMQswCQYDVQQG
EwJVUzETMBEGA1UECAwKV2FzaGluZ3RvbjEQMA4GA1UEBwwHU2VhdHRsZTEVMBMG
A1UECgwMd29sZlNTTCBJbmMuMRQwEgYDVQQLDAtFbmdpbmVlcmluZzEWMBQGA1UE
AwwNY2hhaW5DLWVudGl0eTEgMB4GCSqGSIb3DQEJARYRZmFjdHNAd29sZnNzbC5j
b20wggEiMA0GCSqGSIb3DQEBAQUAA4IBDwAwggEKAoIBAQC/NOEcLC2kk7XE/GVA
+pRodCT/UqTfPvF8khTw8JHtnH6gfrEHIDiyxKK4CdEG7vrGfk15vt2DGM/op3iI
zUTOOkAFem7FyeSEZOABfU/5h9KUkenIIbxxLu/2YSNGa9pfMiOhhpzGmrSYNW02
uDQU/Z1jL3V+WPII+eMyKqbSsUkF04zUSFzCVwdiTnoFI8JPytWoODKSwiE7dD4t
sWtXloGjLc5unNnOH+lC+Cy7/gdXxsiTbonT/NKDS8Es6l5ByXy+bCMBiXUbH1es
g9za4WNV2JT8LaaZFdFxiKUb9W85Cr3sCQIJd6dd2nj4j7Fdp4MSEF+JrnLCiL8+
gJjDAgMBAAGjgfIwge8wHQYDVR0OBBYEFJF5fJGnoLzhe3eeUW5cp3rZPxigMIHC
BgNVHSMEgbowgbeAFJQdLgc3xi9Swex5axPOCZBf9MRRoYGbpIGYMIGVMQswCQYD
VQQGEwJVUzEQMA4GA1UECAwHTW9udGFuYTEQMA4GA1UEBwwHQm96ZW1hbjERMA8G
A1UECgwIU2F3dG9vdGgxEzARBgNVBAsMCkNvbnN1bHRpbmcxGDAWBgNVBAMMD3d3
dy53b2xmc3NsLmNvbTEgMB4GCSqGSIb3DQEJARYRZmFjdHNAd29sZnNzbC5jb22C
AWQwCQYDVR0TBAIwADANBgkqhkiG9w0BAQsFAAOCAQEASRPAfS+bO5imVKIGSPct
Cmj2qggewClAyjA3/CfpVW2qcZRwEJCXpSzCX8K7v43fwbaf4sfhH5MSu9qXv7ZV
I0AM2SURInBsyLZs4m0g67gnE9shvO/rsk+mP7oXZdPKCIDSwQiHLCGHhb2WAxD+
TzhaERu3Nn6zDQjP9jHKwidUWYDhsye7ZUEwE8Adzdg5c3QBamJFUNrnM+15NXZJ
mtnXo94g9h4xyvQ++pMaVjUlOJI1oJ3ZWqsDQqUkZxKpYbReJ+eMNrV0YEGmLqta
+aTIrTssWfeL3PNSm23L7FpZ7LGJyWTVAwcJ4UUOi3w6wHTQi1AogEPvkjmkaNHq
wA==
-----END CERTIFICATE-----
Certificate:
    Data:
        Version: 3 (0x2)
        Serial Number: 100 (0x64)
        Signature Algorithm: sha256WithRSAEncryption
        Issuer: C=US, ST=Montana, L=Bozeman, O=Sawtooth, OU=Consulting, CN=www.wolfssl.com, emailAddress=facts@wolfssl.com
        Validity
            Not Before: Jun 11 21:44:38 2026 GMT
            Not After : Mar  7 21:44:38 2029 GMT
        Subject: C=US, ST=Washington, L=Seattle, O=wolfSSL Inc., OU=Engineering, CN=chainC-ICA1-pathlen1, emailAddress=facts@wolfssl.com
        Subject Public Key Info:
            Public Key Algorithm: rsaEncryption
                Public-Key: (2048 bit)
                Modulus:
                    00:bb:1a:6c:c1:bd:bb:9b:29:ca:35:3d:63:a3:29:
                    cd:a6:65:c4:9e:a3:c5:50:99:ad:51:90:0a:9a:9b:
                    83:ce:be:06:bb:66:4f:ef:1e:31:25:34:6f:5f:98:
                    ae:01:49:c3:63:17:84:b9:7a:6d:c0:d8:fd:0c:ff:
                    9a:02:4c:41:37:49:f0:18:63:1b:4f:fc:37:26:4e:
                    54:79:d7:17:39:50:79:6e:a3:29:99:07:ad:9d:5c:
                    d8:e1:02:e7:33:7e:e4:da:a4:05:bc:62:03:d3:9f:
                    6a:91:92:66:dd:29:d0:95:fb:2f:3f:f0:59:b8:70:
                    5b:25:54:7b:a0:0a:9f:33:09:64:ed:fb:d4:1c:2d:
                    96:54:45:e3:50:98:ff:b1:7f:9a:c6:cf:09:a3:da:
                    e9:57:ad:1d:05:8f:1e:75:75:e7:d2:07:33:de:da:
                    7d:42:d8:0e:94:fe:ae:c7:9b:c3:b5:9e:f3:6b:21:
                    9f:74:c4:b3:32:7c:28:4e:0f:bc:15:33:ba:9c:09:
                    3c:c1:40:06:78:bb:b1:20:3f:61:15:f6:1e:49:73:
                    51:89:95:2d:95:bf:34:d6:c2:a9:d1:34:1d:8d:21:
                    6d:4f:a3:6e:ef:fc:23:a2:76:fc:d0:25:53:0e:43:
                    76:3b:ed:82:ec:d8:23:cb:33:ef:3c:9d:a1:de:e6:
                    7a:ad
                Exponent: 65537 (0x10001)
        X509v3 extensions:
            X509v3 Subject Key Identifier: 
                94:1D:2E:07:37:C6:2F:52:C1:EC:79:6B:13:CE:09:90:5F:F4:C4:51
            X509v3 Authority Key Identifier: 
                keyid:27:8E:67:11:74:C3:26:1D:3F:ED:33:63:B3:A4:D8:1D:30:E5:E8:D5
                DirName:/C=US/ST=Montana/L=Bozeman/O=Sawtooth/OU=Consulting/CN=www.wolfssl.com/emailAddress=facts@wolfssl.com
                serial:67:19:D2:A8:7F:E3:2D:FA:75:7A:4F:E7:B2:02:D9:AD:C4:77:5E:F8
            X509v3 Basic Constraints: 
                CA:TRUE, pathlen:1
            X509v3 Key Usage: 
                Certificate Sign, CRL Sign
    Signature Algorithm: sha256WithRSAEncryption
    Signature Value:
        7a:09:53:b3:a2:65:40:29:be:aa:3c:ec:94:29:dc:4b:71:6a:
        06:a0:a2:2c:80:d4:c3:42:2e:1f:da:3c:f5:61:1c:c3:87:cc:
        90:17:dc:5a:e9:0f:cc:fa:94:f2:70:32:fe:f5:3c:b8:7d:f5:
        38:a4:b4:e7:6f:5a:6a:22:b9:4c:b7:29:66:6f:ac:2c:d6:e7:
        d1:c8:47:59:0c:75:2a:56:22:9e:93:8d:cb:f7:65:80:82:3c:
        a4:cf:ef:ff:14:50:a0:1f:95:3b:38:e0:04:0b:5e:b2:e5:00:
        34:0a:9d:f3:df:c7:c9:cf:81:b9:67:89:34:a6:9a:76:9d:2b:
        e6:21:96:e5:44:a8:5d:e2:23:21:04:f3:79:e2:52:ff:cd:03:
        d4:96:b6:e3:de:9a:d9:4c:40:ac:d2:51:0f:ff:fe:33:fb:e4:
        67:b8:37:b6:d7:d4:da:79:be:0c:fa:f0:97:6b:05:7f:66:e1:
        b2:bd:aa:76:81:40:72:cd:f6:95:1e:b6:15:4a:04:00:bb:5d:
        8d:30:4d:53:f6:f6:b3:50:8b:cc:5e:b0:ec:95:88:04:e7:5c:
        f2:eb:2e:82:1e:1c:3d:15:ef:fc:b3:56:ac:6a:2e:d6:7a:a7:
        4d:5b:8e:8b:3a:49:b3:41:6e:e7:70:e0:9f:38:d6:52:f7:b6:
        a8:da:f6:9a
-----BEGIN CERTIFICATE-----
MIIEzzCCA7egAwIBAgIBZDANBgkqhkiG9w0BAQsFADCBlTELMAkGA1UEBhMCVVMx
EDAOBgNVBAgMB01vbnRhbmExEDAOBgNVBAcMB0JvemVtYW4xETAPBgNVBAoMCFNh
d3Rvb3RoMRMwEQYDVQQLDApDb25zdWx0aW5nMRgwFgYDVQQDDA93d3cud29sZnNz
bC5jb20xIDAeBgkqhkiG9w0BCQEWEWZhY3RzQHdvbGZzc2wuY29tMB4XDTI2MDYx
MTIxNDQzOFoXDTI5MDMwNzIxNDQzOFowgaIxCzAJBgNVBAYTAlVTMRMwEQYDVQQI
DApXYXNoaW5ndG9uMRAwDgYDVQQHDAdTZWF0dGxlMRUwEwYDVQQKDAx3b2xmU1NM
IEluYy4xFDASBgNVBAsMC0VuZ2luZWVyaW5nMR0wGwYDVQQDDBRjaGFpbkMtSUNB
MS1wYXRobGVuMTEgMB4GCSqGSIb3DQEJARYRZmFjdHNAd29sZnNzbC5jb20wggEi
MA0GCSqGSIb3DQEBAQUAA4IBDwAwggEKAoIBAQC7GmzBvbubKco1PWOjKc2mZcSe
o8VQma1RkAqam4POvga7Zk/vHjElNG9fmK4BScNjF4S5em3A2P0M/5oCTEE3SfAY
YxtP/DcmTlR51xc5UHluoymZB62dXNjhAuczfuTapAW8YgPTn2qRkmbdKdCV+y8/
8Fm4cFslVHugCp8zCWTt+9QcLZZUReNQmP+xf5rGzwmj2ulXrR0Fjx51defSBzPe
2n1C2A6U/q7Hm8O1nvNrIZ90xLMyfChOD7wVM7qcCTzBQAZ4u7EgP2EV9h5Jc1GJ
lS2VvzTWwqnRNB2NIW1Po27v/COidvzQJVMOQ3Y77YLs2CPLM+88naHe5nqtAgMB
AAGjggEZMIIBFTAdBgNVHQ4EFgQUlB0uBzfGL1LB7HlrE84JkF/0xFEwgdUGA1Ud
IwSBzTCByoAUJ45nEXTDJh0/7TNjs6TYHTDl6NWhgZukgZgwgZUxCzAJBgNVBAYT
AlVTMRAwDgYDVQQIDAdNb250YW5hMRAwDgYDVQQHDAdCb3plbWFuMREwDwYDVQQK
DAhTYXd0b290aDETMBEGA1UECwwKQ29uc3VsdGluZzEYMBYGA1UEAwwPd3d3Lndv
bGZzc2wuY29tMSAwHgYJKoZIhvcNAQkBFhFmYWN0c0B3b2xmc3NsLmNvbYIUZxnS
qH/jLfp1ek/nsgLZrcR3XvgwDwYDVR0TBAgwBgEB/wIBATALBgNVHQ8EBAMCAQYw
DQYJKoZIhvcNAQELBQADggEBAHoJU7OiZUApvqo87JQp3EtxagagoiyA1MNCLh/a
PPVhHMOHzJAX3FrpD8z6lPJwMv71PLh99TiktOdvWmoiuUy3KWZvrCzW59HIR1kM
dSpWIp6Tjcv3ZYCCPKTP7/8UUKAflTs44AQLXrLlADQKnfPfx8nPgblniTSmmnad
K+YhluVEqF3iIyEE83niUv/NA9SWtuPemtlMQKzSUQ///jP75Ge4N7bX1Np5vgz6
8JdrBX9m4bK9qnaBQHLN9pUethVKBAC7XY0wTVP29rNQi8xesOyViATnXPLrLoIe
HD0V7/yzVqxqLtZ6p01bjos6SbNBbudw4J841lL3tqja9po=
-----END CERTIFICATE-----
