Certificate:
    Data:
        Version: 3 (0x2)
        Serial Number: 100 (0x64)
        Signature Algorithm: sha256WithRSAEncryption
        Issuer: C = US, ST = Montana, L = Bozeman, O = Sawtooth, OU = Consulting, CN = www.wolfssl.com, emailAddress = info@wolfssl.com
        Validity
            Not Before: Jun 19 13:23:42 2020 GMT
            Not After : Mar 16 13:23:42 2023 GMT
        Subject: C = US, ST = Washington, L = Seattle, O = wolfSSL Inc., OU = Engineering, CN = chainD-ICA1-pathlen127, emailAddress = info@wolfssl.com
        Subject Public Key Info:
            Public Key Algorithm: rsaEncryption
                RSA Public-Key: (2048 bit)
                Modulus:
                    00:d7:81:78:a9:19:99:12:d1:cf:3d:51:54:1d:d3:
                    14:94:ed:3e:de:ff:e0:23:e4:f7:23:fc:5c:49:24:
                    d8:36:93:e6:2a:ee:a7:ab:c6:8d:c9:ad:40:45:c9:
                    44:06:47:4c:0d:65:09:dd:db:e2:f0:bd:cd:79:1c:
                    ec:d1:8d:de:f2:ff:66:f5:b2:bd:43:cc:58:7f:1d:
                    db:4b:97:a5:83:5c:87:5e:9b:73:87:c8:1d:2b:47:
                    92:55:e4:db:be:51:d5:eb:76:c2:aa:59:72:7b:f6:
                    27:2f:be:c0:db:dc:3c:f2:e2:19:c9:b0:30:bb:2e:
                    a2:95:48:06:bd:8e:9d:bd:8c:6b:5e:c6:9a:73:4b:
                    6c:b0:20:96:47:44:d3:09:6b:6a:2b:fa:86:5f:1d:
                    0b:a7:62:22:72:d5:56:1c:aa:97:8c:ce:57:a3:0f:
                    e6:bc:cd:63:54:55:60:87:50:eb:fa:8c:e9:15:70:
                    b3:5c:4d:0e:27:60:fd:07:6e:8c:ec:3f:a0:25:c5:
                    01:59:a3:fc:2d:80:4b:84:4c:10:b5:c8:a7:6b:b1:
                    e5:c5:c1:9a:b0:d6:4b:30:21:ba:42:65:e0:3f:59:
                    cf:7f:49:4b:3b:cf:62:06:f4:89:ae:5b:81:5d:15:
                    63:fb:7c:29:a6:b5:cf:f3:b5:b5:66:06:4f:a3:da:
                    67:39
                Exponent: 65537 (0x10001)
        X509v3 extensions:
            X509v3 Subject Key Identifier: 
                67:78:F9:AD:1C:53:41:1F:46:BD:49:9B:73:2E:7C:DC:5C:2D:0B:FB
            X509v3 Authority Key Identifier: 
                keyid:27:8E:67:11:74:C3:26:1D:3F:ED:33:63:B3:A4:D8:1D:30:E5:E8:D5
                DirName:/C=US/ST=Montana/L=Bozeman/O=Sawtooth/OU=Consulting/CN=www.wolfssl.com/emailAddress=info@wolfssl.com
                serial:5E:BA:A4:F4:B1:F7:48:25:E3:5F:9B:DA:A1:13:ED:D5:2B:03:67:15

            X509v3 Basic Constraints: 
                CA:TRUE, pathlen:127
            X509v3 Key Usage: 
                Certificate Sign, CRL Sign
    Signature Algorithm: sha256WithRSAEncryption
         24:68:ad:24:74:81:42:43:21:83:20:a6:10:32:3b:5a:5f:b8:
         a6:2d:05:eb:45:86:c8:14:6c:c2:a1:bb:f9:57:e6:b5:b5:59:
         15:ec:f2:e3:bb:a6:d9:8e:c2:a3:df:ae:c5:46:4b:43:10:77:
         53:7b:60:a6:c7:24:4e:32:ba:01:29:24:a6:46:b8:e1:9a:5a:
         fd:cd:1c:fa:eb:09:b7:8c:94:5b:75:35:88:2e:56:1d:a6:de:
         ef:83:02:f9:35:b6:a6:2f:36:35:ee:69:37:f4:a5:40:cc:f9:
         20:bd:41:a8:68:ea:3d:93:cd:11:b6:87:42:f0:a8:01:c4:37:
         1d:f6:24:13:1b:37:5a:29:ac:f3:37:7d:a3:8e:3d:47:02:78:
         3d:62:cf:8f:b5:61:31:12:e4:ca:e1:3d:b4:5c:49:4b:31:c9:
         01:2d:c2:03:45:ba:1e:00:97:f7:8d:5a:35:95:59:a8:73:ed:
         24:6e:4a:d4:b1:4d:ed:f6:73:49:09:74:cf:19:49:0c:2e:00:
         e9:cf:ca:d3:0e:2f:84:5d:dd:e3:35:ce:27:3a:5b:40:4f:3e:
         f5:c2:dc:14:61:69:b7:44:26:38:9c:0a:50:01:84:2b:8a:7f:
         e8:5e:cc:6f:f7:5f:a8:47:12:2e:75:7f:18:60:5f:71:18:81:
         ae:7e:d3:f2
-----BEGIN CERTIFICATE-----
MIIEzjCCA7agAwIBAgIBZDANBgkqhkiG9w0BAQsFADCBlDELMAkGA1UEBhMCVVMx
EDAOBgNVBAgMB01vbnRhbmExEDAOBgNVBAcMB0JvemVtYW4xETAPBgNVBAoMCFNh
d3Rvb3RoMRMwEQYDVQQLDApDb25zdWx0aW5nMRgwFgYDVQQDDA93d3cud29sZnNz
bC5jb20xHzAdBgkqhkiG9w0BCQEWEGluZm9Ad29sZnNzbC5jb20wHhcNMjAwNjE5
MTMyMzQyWhcNMjMwMzE2MTMyMzQyWjCBozELMAkGA1UEBhMCVVMxEzARBgNVBAgM
Cldhc2hpbmd0b24xEDAOBgNVBAcMB1NlYXR0bGUxFTATBgNVBAoMDHdvbGZTU0wg
SW5jLjEUMBIGA1UECwwLRW5naW5lZXJpbmcxHzAdBgNVBAMMFmNoYWluRC1JQ0Ex
LXBhdGhsZW4xMjcxHzAdBgkqhkiG9w0BCQEWEGluZm9Ad29sZnNzbC5jb20wggEi
MA0GCSqGSIb3DQEBAQUAA4IBDwAwggEKAoIBAQDXgXipGZkS0c89UVQd0xSU7T7e
/+Aj5Pcj/FxJJNg2k+Yq7qerxo3JrUBFyUQGR0wNZQnd2+Lwvc15HOzRjd7y/2b1
sr1DzFh/HdtLl6WDXIdem3OHyB0rR5JV5Nu+UdXrdsKqWXJ79icvvsDb3Dzy4hnJ
sDC7LqKVSAa9jp29jGtexppzS2ywIJZHRNMJa2or+oZfHQunYiJy1VYcqpeMzlej
D+a8zWNUVWCHUOv6jOkVcLNcTQ4nYP0HbozsP6AlxQFZo/wtgEuETBC1yKdrseXF
wZqw1kswIbpCZeA/Wc9/SUs7z2IG9ImuW4FdFWP7fCmmtc/ztbVmBk+j2mc5AgMB
AAGjggEYMIIBFDAdBgNVHQ4EFgQUZ3j5rRxTQR9GvUmbcy583FwtC/swgdQGA1Ud
IwSBzDCByYAUJ45nEXTDJh0/7TNjs6TYHTDl6NWhgZqkgZcwgZQxCzAJBgNVBAYT
AlVTMRAwDgYDVQQIDAdNb250YW5hMRAwDgYDVQQHDAdCb3plbWFuMREwDwYDVQQK
DAhTYXd0b290aDETMBEGA1UECwwKQ29uc3VsdGluZzEYMBYGA1UEAwwPd3d3Lndv
bGZzc2wuY29tMR8wHQYJKoZIhvcNAQkBFhBpbmZvQHdvbGZzc2wuY29tghReuqT0
sfdIJeNfm9qhE+3VKwNnFTAPBgNVHRMECDAGAQH/AgF/MAsGA1UdDwQEAwIBBjAN
BgkqhkiG9w0BAQsFAAOCAQEAJGitJHSBQkMhgyCmEDI7Wl+4pi0F60WGyBRswqG7
+VfmtbVZFezy47um2Y7Co9+uxUZLQxB3U3tgpsckTjK6ASkkpka44Zpa/c0c+usJ
t4yUW3U1iC5WHabe74MC+TW2pi82Ne5pN/SlQMz5IL1BqGjqPZPNEbaHQvCoAcQ3
HfYkExs3Wims8zd9o449RwJ4PWLPj7VhMRLkyuE9tFxJSzHJAS3CA0W6HgCX941a
NZVZqHPtJG5K1LFN7fZzSQl0zxlJDC4A6c/K0w4vhF3d4zXOJzpbQE8+9cLcFGFp
t0QmOJwKUAGEK4p/6F7Mb/dfqEcSLnV/GGBfcRiBrn7T8g==
-----END CERTIFICATE-----
