Certificate:
    Data:
        Version: 3 (0x2)
        Serial Number: 100 (0x64)
        Signature Algorithm: sha256WithRSAEncryption
        Issuer: C = US, ST = Washington, L = Seattle, O = wolfSSL Inc., OU = Engineering, CN = chainI-ICA3-pathlen2, emailAddress = info@wolfssl.com
        Validity
            Not Before: Jun 19 13:23:42 2020 GMT
            Not After : Mar 16 13:23:42 2023 GMT
        Subject: C = US, ST = Washington, L = Seattle, O = wolfSSL Inc., OU = Engineering, CN = chainI-ICA2-no_pathlen, emailAddress = info@wolfssl.com
        Subject Public Key Info:
            Public Key Algorithm: rsaEncryption
                RSA Public-Key: (2048 bit)
                Modulus:
                    00:de:1e:08:66:12:fe:20:07:10:1b:a1:27:0d:f9:
                    22:30:81:9b:ce:62:b1:a6:6d:49:d4:ed:b8:2d:4b:
                    97:77:1e:94:51:3d:73:2b:16:e9:05:e9:4c:1b:82:
                    ad:47:9d:33:30:53:b5:9b:d2:2d:e9:7b:d6:63:f3:
                    61:20:1b:23:6e:47:09:8b:c0:d5:09:85:a6:e2:e4:
                    3a:4d:b3:f9:dd:c6:7c:9a:42:07:22:d5:7b:67:18:
                    38:c4:fc:ea:8d:09:80:a0:b0:44:33:fd:c1:aa:8b:
                    9c:98:e3:95:c3:74:71:3b:71:b8:b3:80:bf:30:63:
                    85:09:27:8b:12:b5:86:b0:0b:99:ff:97:42:52:a0:
                    ac:b2:38:38:8d:13:96:d9:d6:fa:8f:c4:89:14:06:
                    9c:1f:0a:a3:3a:a2:f7:1f:83:d8:ae:41:44:9e:21:
                    b2:5b:b7:a2:19:e9:46:58:de:e5:a2:ab:07:7a:9a:
                    9a:60:bc:14:ed:cf:4d:42:fc:5c:28:ea:42:d1:ae:
                    cc:71:7e:52:5d:84:88:de:b6:7d:72:6e:ab:73:4b:
                    0d:ab:92:9f:11:b4:51:da:14:54:9a:0e:ec:ac:42:
                    fc:71:87:5b:54:38:09:2c:f0:5d:86:0c:34:b7:92:
                    33:5c:3e:19:b1:4d:a0:62:9b:b4:68:36:36:38:ec:
                    29:b3
                Exponent: 65537 (0x10001)
        X509v3 extensions:
            X509v3 Subject Key Identifier: 
                D1:BA:FB:FF:1D:29:41:8A:6A:5F:B2:F3:A7:41:05:47:09:1F:48:42
            X509v3 Authority Key Identifier: 
                keyid:EE:37:A6:F2:40:D0:EF:FD:22:C7:A3:B4:6C:57:47:40:B9:99:F9:8D
                DirName:/C=US/ST=Montana/L=Bozeman/O=Sawtooth/OU=Consulting/CN=www.wolfssl.com/emailAddress=info@wolfssl.com
                serial:64

            X509v3 Basic Constraints: 
                CA:TRUE
            X509v3 Key Usage: 
                Certificate Sign, CRL Sign
    Signature Algorithm: sha256WithRSAEncryption
         12:c4:64:57:9e:d7:e2:5e:ce:47:77:01:65:3c:18:54:ef:76:
         d3:f3:87:2e:4e:41:a6:71:9e:59:19:1e:c9:32:db:fb:59:b8:
         6c:cb:88:1f:0d:5d:17:89:96:fc:6b:ea:93:4c:bb:42:90:a1:
         58:6a:e2:34:83:ce:0f:ff:ac:a2:d7:f3:64:fa:0c:f5:45:d4:
         07:4f:51:61:42:2e:09:55:71:fa:da:c4:93:d9:79:89:af:a6:
         31:ff:89:6a:a3:98:3a:2f:f6:c7:de:cb:14:df:60:05:f4:ab:
         de:0a:2c:30:84:43:08:de:86:ac:ad:a1:8a:2c:82:67:93:ef:
         8d:d9:4d:c4:b3:bc:24:ec:2e:e5:6b:dc:fc:f6:68:4d:be:d4:
         77:0e:51:00:df:0c:e4:91:73:fb:fb:88:f7:d3:b9:4d:54:68:
         16:56:ad:b0:a8:69:cc:f0:62:b7:b9:b6:b7:07:8e:20:c8:25:
         de:e8:27:a6:91:67:4a:8a:39:07:75:55:7e:2f:53:b1:10:9b:
         e2:59:45:02:f4:05:62:45:96:1d:5d:3b:4d:e0:0b:cb:3c:44:
         65:00:01:b3:f9:dd:88:72:c8:f2:3f:45:d4:66:36:a4:7e:4e:
         90:68:90:1c:d2:06:0b:74:41:ca:97:bc:43:7c:38:c2:75:80:
         ba:61:e5:34
-----BEGIN CERTIFICATE-----
MIIExDCCA6ygAwIBAgIBZDANBgkqhkiG9w0BAQsFADCBoTELMAkGA1UEBhMCVVMx
EzARBgNVBAgMCldhc2hpbmd0b24xEDAOBgNVBAcMB1NlYXR0bGUxFTATBgNVBAoM
DHdvbGZTU0wgSW5jLjEUMBIGA1UECwwLRW5naW5lZXJpbmcxHTAbBgNVBAMMFGNo
YWluSS1JQ0EzLXBhdGhsZW4yMR8wHQYJKoZIhvcNAQkBFhBpbmZvQHdvbGZzc2wu
Y29tMB4XDTIwMDYxOTEzMjM0MloXDTIzMDMxNjEzMjM0MlowgaMxCzAJBgNVBAYT
AlVTMRMwEQYDVQQIDApXYXNoaW5ndG9uMRAwDgYDVQQHDAdTZWF0dGxlMRUwEwYD
VQQKDAx3b2xmU1NMIEluYy4xFDASBgNVBAsMC0VuZ2luZWVyaW5nMR8wHQYDVQQD
DBZjaGFpbkktSUNBMi1ub19wYXRobGVuMR8wHQYJKoZIhvcNAQkBFhBpbmZvQHdv
bGZzc2wuY29tMIIBIjANBgkqhkiG9w0BAQEFAAOCAQ8AMIIBCgKCAQEA3h4IZhL+
IAcQG6EnDfkiMIGbzmKxpm1J1O24LUuXdx6UUT1zKxbpBelMG4KtR50zMFO1m9It
6XvWY/NhIBsjbkcJi8DVCYWm4uQ6TbP53cZ8mkIHItV7Zxg4xPzqjQmAoLBEM/3B
qoucmOOVw3RxO3G4s4C/MGOFCSeLErWGsAuZ/5dCUqCssjg4jROW2db6j8SJFAac
HwqjOqL3H4PYrkFEniGyW7eiGelGWN7loqsHepqaYLwU7c9NQvxcKOpC0a7McX5S
XYSI3rZ9cm6rc0sNq5KfEbRR2hRUmg7srEL8cYdbVDgJLPBdhgw0t5IzXD4ZsU2g
Ypu0aDY2OOwpswIDAQABo4IBATCB/jAdBgNVHQ4EFgQU0br7/x0pQYpqX7Lzp0EF
RwkfSEIwgcEGA1UdIwSBuTCBtoAU7jem8kDQ7/0ix6O0bFdHQLmZ+Y2hgZqkgZcw
gZQxCzAJBgNVBAYTAlVTMRAwDgYDVQQIDAdNb250YW5hMRAwDgYDVQQHDAdCb3pl
bWFuMREwDwYDVQQKDAhTYXd0b290aDETMBEGA1UECwwKQ29uc3VsdGluZzEYMBYG
A1UEAwwPd3d3LndvbGZzc2wuY29tMR8wHQYJKoZIhvcNAQkBFhBpbmZvQHdvbGZz
c2wuY29tggFkMAwGA1UdEwQFMAMBAf8wCwYDVR0PBAQDAgEGMA0GCSqGSIb3DQEB
CwUAA4IBAQASxGRXntfiXs5HdwFlPBhU73bT84cuTkGmcZ5ZGR7JMtv7Wbhsy4gf
DV0XiZb8a+qTTLtCkKFYauI0g84P/6yi1/Nk+gz1RdQHT1FhQi4JVXH62sST2XmJ
r6Yx/4lqo5g6L/bH3ssU32AF9KveCiwwhEMI3oasraGKLIJnk++N2U3Es7wk7C7l
a9z89mhNvtR3DlEA3wzkkXP7+4j307lNVGgWVq2wqGnM8GK3uba3B44gyCXe6Cem
kWdKijkHdVV+L1OxEJviWUUC9AViRZYdXTtN4AvLPERlAAGz+d2IcsjyP0XUZjak
fk6QaJAc0gYLdEHKl7xDfDjCdYC6YeU0
-----END CERTIFICATE-----
