Certificate:
    Data:
        Version: 3 (0x2)
        Serial Number: 101 (0x65)
    Signature Algorithm: sha256WithRSAEncryption
        Issuer: C=US, ST=Washington, L=Seattle, O=wolfSSL Inc., OU=Engineering, CN=chainJ-ICA1-no_pathlen/emailAddress=info@wolfssl.com
        Validity
            Not Before: Feb 10 19:49:55 2021 GMT
            Not After : Nov  7 19:49:55 2023 GMT
        Subject: C=US, ST=Washington, L=Seattle, O=wolfSSL Inc., OU=Engineering, CN=chainJ-entity/emailAddress=info@wolfssl.com
        Subject Public Key Info:
            Public Key Algorithm: rsaEncryption
                Public-Key: (2048 bit)
                Modulus:
                    00:b3:fb:51:a0:ac:69:8b:35:06:bf:7a:ee:b4:a1:
                    8a:7e:ae:31:75:ad:e7:45:7b:e6:d9:bb:7c:e9:73:
                    0e:de:cf:05:74:df:37:a4:37:33:a6:6f:59:06:c8:
                    9f:19:35:c3:94:f7:05:ba:52:eb:3e:92:29:61:48:
                    88:fa:6d:42:b4:30:de:ce:df:94:ed:92:88:60:c8:
                    55:36:50:ee:36:b5:ed:35:6f:95:01:f4:88:4b:7b:
                    3e:fe:b5:9c:64:c0:72:be:8c:74:6a:8c:f5:e4:65:
                    66:87:52:9d:7b:b0:20:f6:d8:c3:de:76:b9:70:7c:
                    01:82:6e:fc:fa:1b:e7:c4:c1:5f:38:ce:50:dc:3a:
                    22:87:bc:19:9a:45:d5:8a:7a:93:f9:78:59:c7:0a:
                    f9:8f:eb:c3:79:eb:b5:ee:36:f0:5e:5d:2f:8f:46:
                    e8:63:c2:31:82:fc:fb:5d:8c:ca:01:b1:bb:72:2b:
                    e7:2f:82:3c:a6:24:a6:3f:58:7e:69:5b:4a:00:b4:
                    25:b3:b3:c3:b3:b0:c2:3f:a3:d7:ee:04:12:1d:ab:
                    0b:bb:02:b0:6c:0b:36:64:56:a9:5d:37:e5:0a:28:
                    44:5e:15:e4:f5:ab:73:98:0a:b3:28:90:1d:30:f2:
                    8c:e7:db:13:6a:0f:b4:cb:8d:06:15:86:ce:35:12:
                    e3:a9
                Exponent: 65537 (0x10001)
        X509v3 extensions:
            X509v3 Subject Key Identifier: 
                13:92:E0:30:5E:36:4F:BF:D5:E3:0D:5D:40:0B:64:95:EC:8E:77:4E
            X509v3 Authority Key Identifier: 
                keyid:9C:7B:3A:10:B3:08:99:05:00:AF:3E:E0:A4:5D:D9:AF:82:BC:4D:C0
                DirName:/C=US/ST=Washington/L=Seattle/O=wolfSSL Inc./OU=Engineering/CN=chainJ-ICA2-no_pathlen/emailAddress=info@wolfssl.com
                serial:64

            X509v3 Basic Constraints: 
                CA:FALSE
    Signature Algorithm: sha256WithRSAEncryption
         9c:16:1e:71:2c:cc:59:21:df:65:d5:f0:6a:07:d1:46:2a:cf:
         10:5f:9c:e5:75:13:1b:d7:8e:a3:15:dc:85:b8:27:7b:87:d5:
         c5:5f:29:03:92:48:0a:42:83:85:93:3c:1a:82:5b:0f:66:81:
         09:6a:d6:9e:73:fa:4c:6e:c0:97:7d:b2:ad:14:5b:12:84:82:
         62:19:a2:e4:07:15:48:3b:98:6c:31:f5:4a:8b:2d:88:e9:c2:
         36:de:c2:7b:c8:62:7b:cf:67:63:97:40:0c:f0:b9:09:69:8f:
         ce:55:b4:28:06:9d:a7:d8:1d:4b:8d:4c:57:ce:0e:0d:1b:9e:
         85:0d:c9:48:a5:f8:f5:00:d1:77:e0:d5:91:cb:7b:68:2c:02:
         58:aa:38:f5:09:9a:3e:01:3d:e7:b5:1e:0f:49:05:93:9f:30:
         59:84:8b:06:e5:8a:be:93:98:29:5b:44:86:a6:d8:5e:14:d4:
         22:79:36:b7:b0:9d:2d:c1:ec:5a:99:7f:a8:7a:f2:a1:48:42:
         18:89:6e:22:a5:8d:fc:6e:b1:6c:62:3e:67:72:d6:f4:96:f8:
         fb:fc:55:53:68:d8:d7:be:7e:d6:1b:75:0e:58:c8:f9:f1:d1:
         5d:ba:e4:5e:ce:f6:a1:b7:cf:5e:d7:43:56:42:f5:58:88:9e:
         21:de:6d:0b
-----BEGIN CERTIFICATE-----
MIIEvDCCA6SgAwIBAgIBZTANBgkqhkiG9w0BAQsFADCBozELMAkGA1UEBhMCVVMx
EzARBgNVBAgMCldhc2hpbmd0b24xEDAOBgNVBAcMB1NlYXR0bGUxFTATBgNVBAoM
DHdvbGZTU0wgSW5jLjEUMBIGA1UECwwLRW5naW5lZXJpbmcxHzAdBgNVBAMMFmNo
YWluSi1JQ0ExLW5vX3BhdGhsZW4xHzAdBgkqhkiG9w0BCQEWEGluZm9Ad29sZnNz
bC5jb20wHhcNMjEwMjEwMTk0OTU1WhcNMjMxMTA3MTk0OTU1WjCBmjELMAkGA1UE
BhMCVVMxEzARBgNVBAgMCldhc2hpbmd0b24xEDAOBgNVBAcMB1NlYXR0bGUxFTAT
BgNVBAoMDHdvbGZTU0wgSW5jLjEUMBIGA1UECwwLRW5naW5lZXJpbmcxFjAUBgNV
BAMMDWNoYWluSi1lbnRpdHkxHzAdBgkqhkiG9w0BCQEWEGluZm9Ad29sZnNzbC5j
b20wggEiMA0GCSqGSIb3DQEBAQUAA4IBDwAwggEKAoIBAQCz+1GgrGmLNQa/eu60
oYp+rjF1redFe+bZu3zpcw7ezwV03zekNzOmb1kGyJ8ZNcOU9wW6Uus+kilhSIj6
bUK0MN7O35TtkohgyFU2UO42te01b5UB9IhLez7+tZxkwHK+jHRqjPXkZWaHUp17
sCD22MPedrlwfAGCbvz6G+fEwV84zlDcOiKHvBmaRdWKepP5eFnHCvmP68N567Xu
NvBeXS+PRuhjwjGC/PtdjMoBsbtyK+cvgjymJKY/WH5pW0oAtCWzs8OzsMI/o9fu
BBIdqwu7ArBsCzZkVqldN+UKKEReFeT1q3OYCrMokB0w8ozn2xNqD7TLjQYVhs41
EuOpAgMBAAGjggEAMIH9MB0GA1UdDgQWBBQTkuAwXjZPv9XjDV1AC2SV7I53TjCB
0AYDVR0jBIHIMIHFgBScezoQswiZBQCvPuCkXdmvgrxNwKGBqaSBpjCBozELMAkG
A1UEBhMCVVMxEzARBgNVBAgMCldhc2hpbmd0b24xEDAOBgNVBAcMB1NlYXR0bGUx
FTATBgNVBAoMDHdvbGZTU0wgSW5jLjEUMBIGA1UECwwLRW5naW5lZXJpbmcxHzAd
BgNVBAMMFmNoYWluSi1JQ0EyLW5vX3BhdGhsZW4xHzAdBgkqhkiG9w0BCQEWEGlu
Zm9Ad29sZnNzbC5jb22CAWQwCQYDVR0TBAIwADANBgkqhkiG9w0BAQsFAAOCAQEA
nBYecSzMWSHfZdXwagfRRirPEF+c5XUTG9eOoxXchbgne4fVxV8pA5JICkKDhZM8
GoJbD2aBCWrWnnP6TG7Al32yrRRbEoSCYhmi5AcVSDuYbDH1SostiOnCNt7Ce8hi
e89nY5dADPC5CWmPzlW0KAadp9gdS41MV84ODRuehQ3JSKX49QDRd+DVkct7aCwC
WKo49QmaPgE957UeD0kFk58wWYSLBuWKvpOYKVtEhqbYXhTUInk2t7CdLcHsWpl/
qHryoUhCGIluIqWN/G6xbGI+Z3LW9Jb4+/xVU2jY175+1ht1DljI+fHRXbrkXs72
obfPXtdDVkL1WIieId5tCw==
-----END CERTIFICATE-----
Certificate:
    Data:
        Version: 3 (0x2)
        Serial Number: 100 (0x64)
    Signature Algorithm: sha256WithRSAEncryption
        Issuer: C=US, ST=Washington, L=Seattle, O=wolfSSL Inc., OU=Engineering, CN=chainJ-ICA2-no_pathlen/emailAddress=info@wolfssl.com
        Validity
            Not Before: Feb 10 19:49:55 2021 GMT
            Not After : Nov  7 19:49:55 2023 GMT
        Subject: C=US, ST=Washington, L=Seattle, O=wolfSSL Inc., OU=Engineering, CN=chainJ-ICA1-no_pathlen/emailAddress=info@wolfssl.com
        Subject Public Key Info:
            Public Key Algorithm: rsaEncryption
                Public-Key: (2048 bit)
                Modulus:
                    00:a7:6f:44:c2:11:cc:2c:f4:2a:a5:a8:08:53:4b:
                    0e:cd:96:23:bb:15:4a:2a:dd:f9:a7:19:2b:91:28:
                    e8:73:a3:57:b4:49:3a:37:82:8f:15:38:5a:aa:af:
                    ad:72:26:2e:84:c2:0d:de:fc:f0:be:3b:a2:11:a9:
                    12:20:d4:3d:de:62:85:85:91:08:60:db:c0:4a:bb:
                    89:b6:f4:91:1e:51:a3:b2:f7:08:99:df:48:4a:59:
                    84:d1:aa:09:36:0d:cd:68:a5:ae:41:c8:d7:1a:d8:
                    ea:49:87:20:22:27:f9:45:54:3e:c7:c8:00:44:7e:
                    34:72:aa:8d:2d:4d:6a:3e:75:89:e2:d4:17:57:f9:
                    cd:2b:d0:b7:14:6a:54:1b:61:af:9b:68:22:b1:16:
                    73:eb:05:6c:41:ea:ed:10:4e:bc:83:04:68:c8:3a:
                    e1:03:12:ad:28:5c:24:4c:19:a1:7e:d8:ef:1b:80:
                    e4:0e:49:0c:69:86:f6:1e:e7:01:fb:2a:6f:56:1b:
                    6d:0a:ad:e9:29:3f:31:bb:48:28:40:79:2b:b5:f3:
                    aa:ec:e9:09:4c:82:fc:97:28:19:a3:3a:c0:d2:5e:
                    a3:8a:98:c8:8a:b7:d2:c4:90:bc:ff:cc:47:13:90:
                    ad:00:ab:8a:ec:f7:94:35:09:60:10:35:9f:32:c5:
                    00:1b
                Exponent: 65537 (0x10001)
        X509v3 extensions:
            X509v3 Subject Key Identifier: 
                9C:7B:3A:10:B3:08:99:05:00:AF:3E:E0:A4:5D:D9:AF:82:BC:4D:C0
            X509v3 Authority Key Identifier: 
                keyid:A3:F5:71:8A:60:80:3C:93:64:17:D9:2E:B5:C0:CE:A9:C1:14:17:C4
                DirName:/C=US/ST=Washington/L=Seattle/O=wolfSSL Inc./OU=Engineering/CN=chainJ-ICA3-no_pathlen/emailAddress=info@wolfssl.com
                serial:64

            X509v3 Basic Constraints: 
                CA:TRUE
            X509v3 Key Usage: 
                Certificate Sign, CRL Sign
    Signature Algorithm: sha256WithRSAEncryption
         1b:bc:90:0e:7d:7e:8c:da:bb:5c:81:c5:86:8a:da:4e:c9:98:
         a6:0c:e5:8b:ab:a1:a6:9d:94:68:af:18:34:3f:b3:39:e8:0a:
         3f:8f:67:a2:b4:f5:41:eb:ca:ab:93:8f:29:9f:7d:1c:50:7e:
         85:4f:a8:01:11:ea:08:fd:a1:e6:ec:10:4e:84:b3:4d:a0:20:
         c8:32:5a:40:d8:8b:78:41:ea:19:8d:e2:5e:03:72:ee:9b:a0:
         84:bc:87:32:e9:31:24:37:b5:33:78:7a:aa:5a:d4:bb:aa:e1:
         b3:10:c8:98:90:e3:92:23:54:86:0e:2a:04:23:cc:d9:a8:7a:
         c9:1b:17:c1:08:d5:2b:09:e9:9b:ac:07:9f:e0:34:05:eb:01:
         e8:15:c5:7d:69:89:17:15:cc:dc:3b:84:1c:aa:53:e0:06:fa:
         2b:7f:82:07:0d:eb:cb:be:43:8c:7e:9e:2b:62:08:44:32:e8:
         68:48:4e:e0:44:8f:7a:d2:4a:3c:6d:25:56:ce:2b:6a:54:8e:
         67:8e:1e:ef:bb:92:9b:47:7c:95:3d:c5:9b:bf:28:e0:a8:2e:
         e5:17:4d:01:1a:71:1a:d4:0c:4d:d4:c8:f4:df:09:85:1d:36:
         b6:47:9a:f9:83:1a:74:98:23:aa:96:a1:31:c1:67:c7:db:69:
         9a:fe:44:aa
-----BEGIN CERTIFICATE-----
MIIE1jCCA76gAwIBAgIBZDANBgkqhkiG9w0BAQsFADCBozELMAkGA1UEBhMCVVMx
EzARBgNVBAgMCldhc2hpbmd0b24xEDAOBgNVBAcMB1NlYXR0bGUxFTATBgNVBAoM
DHdvbGZTU0wgSW5jLjEUMBIGA1UECwwLRW5naW5lZXJpbmcxHzAdBgNVBAMMFmNo
YWluSi1JQ0EyLW5vX3BhdGhsZW4xHzAdBgkqhkiG9w0BCQEWEGluZm9Ad29sZnNz
bC5jb20wHhcNMjEwMjEwMTk0OTU1WhcNMjMxMTA3MTk0OTU1WjCBozELMAkGA1UE
BhMCVVMxEzARBgNVBAgMCldhc2hpbmd0b24xEDAOBgNVBAcMB1NlYXR0bGUxFTAT
BgNVBAoMDHdvbGZTU0wgSW5jLjEUMBIGA1UECwwLRW5naW5lZXJpbmcxHzAdBgNV
BAMMFmNoYWluSi1JQ0ExLW5vX3BhdGhsZW4xHzAdBgkqhkiG9w0BCQEWEGluZm9A
d29sZnNzbC5jb20wggEiMA0GCSqGSIb3DQEBAQUAA4IBDwAwggEKAoIBAQCnb0TC
Ecws9CqlqAhTSw7NliO7FUoq3fmnGSuRKOhzo1e0STo3go8VOFqqr61yJi6Ewg3e
/PC+O6IRqRIg1D3eYoWFkQhg28BKu4m29JEeUaOy9wiZ30hKWYTRqgk2Dc1opa5B
yNca2OpJhyAiJ/lFVD7HyABEfjRyqo0tTWo+dYni1BdX+c0r0LcUalQbYa+baCKx
FnPrBWxB6u0QTryDBGjIOuEDEq0oXCRMGaF+2O8bgOQOSQxphvYe5wH7Km9WG20K
rekpPzG7SChAeSu186rs6QlMgvyXKBmjOsDSXqOKmMiKt9LEkLz/zEcTkK0Aq4rs
95Q1CWAQNZ8yxQAbAgMBAAGjggERMIIBDTAdBgNVHQ4EFgQUnHs6ELMImQUArz7g
pF3Zr4K8TcAwgdAGA1UdIwSByDCBxYAUo/VximCAPJNkF9kutcDOqcEUF8Shgamk
gaYwgaMxCzAJBgNVBAYTAlVTMRMwEQYDVQQIDApXYXNoaW5ndG9uMRAwDgYDVQQH
DAdTZWF0dGxlMRUwEwYDVQQKDAx3b2xmU1NMIEluYy4xFDASBgNVBAsMC0VuZ2lu
ZWVyaW5nMR8wHQYDVQQDDBZjaGFpbkotSUNBMy1ub19wYXRobGVuMR8wHQYJKoZI
hvcNAQkBFhBpbmZvQHdvbGZzc2wuY29tggFkMAwGA1UdEwQFMAMBAf8wCwYDVR0P
BAQDAgEGMA0GCSqGSIb3DQEBCwUAA4IBAQAbvJAOfX6M2rtcgcWGitpOyZimDOWL
q6GmnZRorxg0P7M56Ao/j2eitPVB68qrk48pn30cUH6FT6gBEeoI/aHm7BBOhLNN
oCDIMlpA2It4QeoZjeJeA3Lum6CEvIcy6TEkN7UzeHqqWtS7quGzEMiYkOOSI1SG
DioEI8zZqHrJGxfBCNUrCembrAef4DQF6wHoFcV9aYkXFczcO4QcqlPgBvorf4IH
DevLvkOMfp4rYghEMuhoSE7gRI960ko8bSVWzitqVI5njh7vu5KbR3yVPcWbvyjg
qC7lF00BGnEa1AxN1Mj03wmFHTa2R5r5gxp0mCOqlqExwWfH22ma/kSq
-----END CERTIFICATE-----
Certificate:
    Data:
        Version: 3 (0x2)
        Serial Number: 100 (0x64)
    Signature Algorithm: sha256WithRSAEncryption
        Issuer: C=US, ST=Washington, L=Seattle, O=wolfSSL Inc., OU=Engineering, CN=chainJ-ICA3-no_pathlen/emailAddress=info@wolfssl.com
        Validity
            Not Before: Feb 10 19:49:55 2021 GMT
            Not After : Nov  7 19:49:55 2023 GMT
        Subject: C=US, ST=Washington, L=Seattle, O=wolfSSL Inc., OU=Engineering, CN=chainJ-ICA2-no_pathlen/emailAddress=info@wolfssl.com
        Subject Public Key Info:
            Public Key Algorithm: rsaEncryption
                Public-Key: (2048 bit)
                Modulus:
                    00:bb:29:fd:89:aa:82:e0:1d:04:78:69:ec:61:58:
                    51:52:84:7e:6b:55:69:2c:f4:23:d6:1f:d8:ed:ab:
                    19:96:38:7b:c6:88:d7:7d:85:93:00:35:40:0b:c0:
                    a9:ff:66:0f:9e:a1:1d:88:6e:a9:8a:f1:ad:47:b4:
                    71:c9:15:50:c6:0f:35:9e:95:4a:66:d3:bd:1b:38:
                    7b:dc:67:85:97:1b:b3:63:c9:72:d6:43:5a:f1:5e:
                    35:f6:05:96:c7:40:bc:23:ab:94:34:82:59:02:b2:
                    33:d0:e6:7f:19:57:65:68:3c:04:61:50:ef:22:95:
                    4f:ef:18:bf:15:b1:4d:8e:cd:a7:a0:98:22:f5:1c:
                    05:01:6b:4b:35:bf:88:c3:47:c3:24:29:b4:45:cb:
                    95:a1:ac:16:1d:dd:b8:68:ac:51:39:24:27:6a:be:
                    31:f1:ec:06:10:55:be:44:02:4f:e8:12:7b:d6:fe:
                    32:c9:48:37:6b:20:68:cb:53:f5:49:3a:ae:4a:c7:
                    43:c1:af:e6:53:11:d9:f8:71:1a:a2:d6:37:c7:2b:
                    45:50:49:51:4f:55:6c:3f:1e:69:7b:58:12:3a:7e:
                    59:a0:57:9d:28:9c:8a:6d:82:e7:13:15:3b:04:8f:
                    e2:82:0f:2f:cf:d9:25:d9:65:a3:3c:03:c0:cd:b6:
                    51:d5
                Exponent: 65537 (0x10001)
        X509v3 extensions:
            X509v3 Subject Key Identifier: 
                A3:F5:71:8A:60:80:3C:93:64:17:D9:2E:B5:C0:CE:A9:C1:14:17:C4
            X509v3 Authority Key Identifier: 
                keyid:CD:97:49:78:F7:31:61:ED:2F:71:1A:68:E9:45:2C:40:78:51:93:5B
                DirName:/C=US/ST=Washington/L=Seattle/O=wolfSSL Inc./OU=Engineering/CN=chainJ-ICA4-pathlen2/emailAddress=info@wolfssl.com
                serial:64

            X509v3 Basic Constraints: 
                CA:TRUE
            X509v3 Key Usage: 
                Certificate Sign, CRL Sign
    Signature Algorithm: sha256WithRSAEncryption
         b5:1a:a8:18:60:a0:55:56:bc:19:0c:0b:a6:fe:c1:a4:fb:b0:
         f3:c2:7e:4f:86:62:c5:3d:a4:da:9f:df:de:57:a1:3d:9e:67:
         d4:84:2d:bd:17:12:ad:9e:cd:7b:e5:43:c9:35:90:00:50:36:
         97:dd:bc:86:86:3c:63:11:13:ed:4f:f2:66:b3:ea:fb:d2:a9:
         71:00:d1:9d:be:c8:ae:00:44:40:a6:08:df:a3:ae:1e:85:34:
         4d:cf:61:40:1e:1e:be:b1:e4:0a:33:ed:30:d0:fc:c1:26:c3:
         5c:c9:c3:5d:02:87:88:49:2d:50:d2:7f:dd:5a:ac:26:8c:22:
         79:62:0e:84:ac:5e:2a:83:47:b3:42:5e:c1:2a:98:8e:1d:40:
         8f:4e:8c:2a:89:97:b6:91:8b:cf:12:5b:83:9b:81:0c:82:80:
         90:70:fc:55:28:8b:f0:c1:74:85:a6:df:85:c6:69:e3:16:d8:
         cb:ae:11:96:7a:16:b8:85:c4:d6:17:69:13:75:35:b5:40:4c:
         31:02:cb:85:8b:75:38:32:f0:80:93:3c:75:20:5b:da:3a:c1:
         40:dd:2a:9e:36:e4:f1:8d:8f:56:20:a0:ef:67:9d:ea:53:ec:
         b2:f5:7c:4e:dd:41:57:26:96:1a:0b:2c:55:00:5f:10:87:e0:
         41:e5:ce:51
-----BEGIN CERTIFICATE-----
MIIE1DCCA7ygAwIBAgIBZDANBgkqhkiG9w0BAQsFADCBozELMAkGA1UEBhMCVVMx
EzARBgNVBAgMCldhc2hpbmd0b24xEDAOBgNVBAcMB1NlYXR0bGUxFTATBgNVBAoM
DHdvbGZTU0wgSW5jLjEUMBIGA1UECwwLRW5naW5lZXJpbmcxHzAdBgNVBAMMFmNo
YWluSi1JQ0EzLW5vX3BhdGhsZW4xHzAdBgkqhkiG9w0BCQEWEGluZm9Ad29sZnNz
bC5jb20wHhcNMjEwMjEwMTk0OTU1WhcNMjMxMTA3MTk0OTU1WjCBozELMAkGA1UE
BhMCVVMxEzARBgNVBAgMCldhc2hpbmd0b24xEDAOBgNVBAcMB1NlYXR0bGUxFTAT
BgNVBAoMDHdvbGZTU0wgSW5jLjEUMBIGA1UECwwLRW5naW5lZXJpbmcxHzAdBgNV
BAMMFmNoYWluSi1JQ0EyLW5vX3BhdGhsZW4xHzAdBgkqhkiG9w0BCQEWEGluZm9A
d29sZnNzbC5jb20wggEiMA0GCSqGSIb3DQEBAQUAA4IBDwAwggEKAoIBAQC7Kf2J
qoLgHQR4aexhWFFShH5rVWks9CPWH9jtqxmWOHvGiNd9hZMANUALwKn/Zg+eoR2I
bqmK8a1HtHHJFVDGDzWelUpm070bOHvcZ4WXG7NjyXLWQ1rxXjX2BZbHQLwjq5Q0
glkCsjPQ5n8ZV2VoPARhUO8ilU/vGL8VsU2OzaegmCL1HAUBa0s1v4jDR8MkKbRF
y5WhrBYd3bhorFE5JCdqvjHx7AYQVb5EAk/oEnvW/jLJSDdrIGjLU/VJOq5Kx0PB
r+ZTEdn4cRqi1jfHK0VQSVFPVWw/Hml7WBI6flmgV50onIptgucTFTsEj+KCDy/P
2SXZZaM8A8DNtlHVAgMBAAGjggEPMIIBCzAdBgNVHQ4EFgQUo/VximCAPJNkF9ku
tcDOqcEUF8Qwgc4GA1UdIwSBxjCBw4AUzZdJePcxYe0vcRpo6UUsQHhRk1uhgaek
gaQwgaExCzAJBgNVBAYTAlVTMRMwEQYDVQQIDApXYXNoaW5ndG9uMRAwDgYDVQQH
DAdTZWF0dGxlMRUwEwYDVQQKDAx3b2xmU1NMIEluYy4xFDASBgNVBAsMC0VuZ2lu
ZWVyaW5nMR0wGwYDVQQDDBRjaGFpbkotSUNBNC1wYXRobGVuMjEfMB0GCSqGSIb3
DQEJARYQaW5mb0B3b2xmc3NsLmNvbYIBZDAMBgNVHRMEBTADAQH/MAsGA1UdDwQE
AwIBBjANBgkqhkiG9w0BAQsFAAOCAQEAtRqoGGCgVVa8GQwLpv7BpPuw88J+T4Zi
xT2k2p/f3lehPZ5n1IQtvRcSrZ7Ne+VDyTWQAFA2l928hoY8YxET7U/yZrPq+9Kp
cQDRnb7IrgBEQKYI36OuHoU0Tc9hQB4evrHkCjPtMND8wSbDXMnDXQKHiEktUNJ/
3VqsJowieWIOhKxeKoNHs0JewSqYjh1Aj06MKomXtpGLzxJbg5uBDIKAkHD8VSiL
8MF0habfhcZp4xbYy64RlnoWuIXE1hdpE3U1tUBMMQLLhYt1ODLwgJM8dSBb2jrB
QN0qnjbk8Y2PViCg72ed6lPssvV8Tt1BVyaWGgssVQBfEIfgQeXOUQ==
-----END CERTIFICATE-----
Certificate:
    Data:
        Version: 3 (0x2)
        Serial Number: 100 (0x64)
    Signature Algorithm: sha256WithRSAEncryption
        Issuer: C=US, ST=Washington, L=Seattle, O=wolfSSL Inc., OU=Engineering, CN=chainJ-ICA4-pathlen2/emailAddress=info@wolfssl.com
        Validity
            Not Before: Feb 10 19:49:55 2021 GMT
            Not After : Nov  7 19:49:55 2023 GMT
        Subject: C=US, ST=Washington, L=Seattle, O=wolfSSL Inc., OU=Engineering, CN=chainJ-ICA3-no_pathlen/emailAddress=info@wolfssl.com
        Subject Public Key Info:
            Public Key Algorithm: rsaEncryption
                Public-Key: (2048 bit)
                Modulus:
                    00:d8:aa:f6:05:95:70:5a:53:c7:66:10:aa:90:79:
                    3b:cb:78:2a:ef:5f:43:22:71:7c:6d:47:99:a7:8b:
                    39:e1:e7:4e:48:29:48:25:e1:b5:f5:25:df:64:7b:
                    ea:ed:aa:1f:8b:0d:e7:eb:f5:2f:ae:2a:5a:3d:50:
                    c7:fb:ef:0b:8b:44:0b:63:94:be:c6:d7:63:45:2e:
                    85:96:00:5c:be:7e:10:09:b3:d0:aa:7c:de:20:f8:
                    75:39:23:85:ee:84:13:88:54:2a:96:f5:16:27:9f:
                    8b:b0:a6:2a:f4:9d:13:8c:71:1c:0c:a6:59:53:ec:
                    f9:0b:2b:c9:45:13:d6:12:ef:39:d1:8e:9c:9e:ae:
                    3c:bb:b6:d8:10:ac:b7:59:49:5b:73:00:be:af:92:
                    21:14:54:a3:fa:b6:17:ae:b6:dc:b1:f1:61:f0:75:
                    07:43:5e:48:fa:e7:80:56:cf:df:ad:46:52:85:42:
                    fb:a7:70:53:14:c6:b7:51:fa:23:f0:f5:4b:d1:bb:
                    3f:9b:fc:35:ca:d2:85:f1:a0:77:02:06:7c:79:99:
                    13:b5:68:b4:16:47:42:88:f7:bc:eb:78:b2:e8:11:
                    2f:62:f6:da:f9:ef:1b:e0:9f:b5:d5:32:65:b5:4e:
                    e4:be:36:6b:65:65:1a:96:a2:47:b5:3e:9f:b0:0d:
                    63:41
                Exponent: 65537 (0x10001)
        X509v3 extensions:
            X509v3 Subject Key Identifier: 
                CD:97:49:78:F7:31:61:ED:2F:71:1A:68:E9:45:2C:40:78:51:93:5B
            X509v3 Authority Key Identifier: 
                keyid:FC:18:13:52:BB:33:4A:DB:1C:5B:D1:80:98:3E:40:86:95:58:72:F9
                DirName:/C=US/ST=Montana/L=Bozeman/O=Sawtooth/OU=Consulting/CN=www.wolfssl.com/emailAddress=info@wolfssl.com
                serial:64

            X509v3 Basic Constraints: 
                CA:TRUE
            X509v3 Key Usage: 
                Certificate Sign, CRL Sign
    Signature Algorithm: sha256WithRSAEncryption
         1c:4a:61:8f:95:15:dc:f1:79:27:3d:bd:fb:30:05:37:da:62:
         e9:ed:0c:e4:18:78:87:7c:aa:a7:0e:c6:b2:ff:04:25:a7:f1:
         29:4e:ad:7e:86:47:67:f3:a8:a9:70:28:5f:2b:ab:34:a3:21:
         30:7b:45:d3:5b:60:5f:84:86:01:cf:36:14:1a:86:09:00:d7:
         b6:60:69:6a:0b:fc:9c:c4:9e:46:90:74:00:61:32:23:b6:73:
         e8:58:c9:44:e6:6e:8a:b1:e4:a1:9c:a9:a0:db:2d:71:b2:a4:
         4c:ea:f2:b3:28:46:8f:fd:61:70:c5:92:b3:ad:42:92:d4:dd:
         2b:11:ce:a5:02:84:6a:a8:81:2c:00:29:2d:54:63:c3:18:79:
         c0:a9:d0:d7:c1:12:65:6e:14:98:e5:09:1a:2e:ef:0a:e3:4a:
         9c:3f:a8:01:44:6c:f2:31:90:b3:78:91:23:e5:6f:3e:13:54:
         59:32:c2:11:1e:a2:2d:9d:39:95:25:c3:8d:c5:d7:b0:e4:b3:
         f8:d7:d5:8c:ad:b7:f4:2f:44:f2:05:53:33:6b:52:a0:98:e5:
         e4:ec:fb:51:e7:fa:d6:2b:c1:e8:c8:a6:a7:5c:44:aa:e4:61:
         a7:43:5d:5f:eb:5e:d0:d5:fd:99:01:a3:0e:39:5d:0b:b4:9b:
         8f:e8:a8:0e
-----BEGIN CERTIFICATE-----
MIIExDCCA6ygAwIBAgIBZDANBgkqhkiG9w0BAQsFADCBoTELMAkGA1UEBhMCVVMx
EzARBgNVBAgMCldhc2hpbmd0b24xEDAOBgNVBAcMB1NlYXR0bGUxFTATBgNVBAoM
DHdvbGZTU0wgSW5jLjEUMBIGA1UECwwLRW5naW5lZXJpbmcxHTAbBgNVBAMMFGNo
YWluSi1JQ0E0LXBhdGhsZW4yMR8wHQYJKoZIhvcNAQkBFhBpbmZvQHdvbGZzc2wu
Y29tMB4XDTIxMDIxMDE5NDk1NVoXDTIzMTEwNzE5NDk1NVowgaMxCzAJBgNVBAYT
AlVTMRMwEQYDVQQIDApXYXNoaW5ndG9uMRAwDgYDVQQHDAdTZWF0dGxlMRUwEwYD
VQQKDAx3b2xmU1NMIEluYy4xFDASBgNVBAsMC0VuZ2luZWVyaW5nMR8wHQYDVQQD
DBZjaGFpbkotSUNBMy1ub19wYXRobGVuMR8wHQYJKoZIhvcNAQkBFhBpbmZvQHdv
bGZzc2wuY29tMIIBIjANBgkqhkiG9w0BAQEFAAOCAQ8AMIIBCgKCAQEA2Kr2BZVw
WlPHZhCqkHk7y3gq719DInF8bUeZp4s54edOSClIJeG19SXfZHvq7aofiw3n6/Uv
ripaPVDH++8Li0QLY5S+xtdjRS6FlgBcvn4QCbPQqnzeIPh1OSOF7oQTiFQqlvUW
J5+LsKYq9J0TjHEcDKZZU+z5CyvJRRPWEu850Y6cnq48u7bYEKy3WUlbcwC+r5Ih
FFSj+rYXrrbcsfFh8HUHQ15I+ueAVs/frUZShUL7p3BTFMa3Ufoj8PVL0bs/m/w1
ytKF8aB3AgZ8eZkTtWi0FkdCiPe863iy6BEvYvba+e8b4J+11TJltU7kvjZrZWUa
lqJHtT6fsA1jQQIDAQABo4IBATCB/jAdBgNVHQ4EFgQUzZdJePcxYe0vcRpo6UUs
QHhRk1swgcEGA1UdIwSBuTCBtoAU/BgTUrszStscW9GAmD5AhpVYcvmhgZqkgZcw
gZQxCzAJBgNVBAYTAlVTMRAwDgYDVQQIDAdNb250YW5hMRAwDgYDVQQHDAdCb3pl
bWFuMREwDwYDVQQKDAhTYXd0b290aDETMBEGA1UECwwKQ29uc3VsdGluZzEYMBYG
A1UEAwwPd3d3LndvbGZzc2wuY29tMR8wHQYJKoZIhvcNAQkBFhBpbmZvQHdvbGZz
c2wuY29tggFkMAwGA1UdEwQFMAMBAf8wCwYDVR0PBAQDAgEGMA0GCSqGSIb3DQEB
CwUAA4IBAQAcSmGPlRXc8XknPb37MAU32mLp7QzkGHiHfKqnDsay/wQlp/EpTq1+
hkdn86ipcChfK6s0oyEwe0XTW2BfhIYBzzYUGoYJANe2YGlqC/ycxJ5GkHQAYTIj
tnPoWMlE5m6KseShnKmg2y1xsqRM6vKzKEaP/WFwxZKzrUKS1N0rEc6lAoRqqIEs
ACktVGPDGHnAqdDXwRJlbhSY5QkaLu8K40qcP6gBRGzyMZCzeJEj5W8+E1RZMsIR
HqItnTmVJcONxdew5LP419WMrbf0L0TyBVMza1KgmOXk7PtR5/rWK8HoyKanXESq
5GGnQ11f617Q1f2ZAaMOOV0LtJuP6KgO
-----END CERTIFICATE-----
Certificate:
    Data:
        Version: 3 (0x2)
        Serial Number: 100 (0x64)
    Signature Algorithm: sha256WithRSAEncryption
        Issuer: C=US, ST=Montana, L=Bozeman, O=Sawtooth, OU=Consulting, CN=www.wolfssl.com/emailAddress=info@wolfssl.com
        Validity
            Not Before: Feb 10 19:49:55 2021 GMT
            Not After : Nov  7 19:49:55 2023 GMT
        Subject: C=US, ST=Washington, L=Seattle, O=wolfSSL Inc., OU=Engineering, CN=chainJ-ICA4-pathlen2/emailAddress=info@wolfssl.com
        Subject Public Key Info:
            Public Key Algorithm: rsaEncryption
                Public-Key: (2048 bit)
                Modulus:
                    00:9d:4a:ee:6b:ff:b6:ec:88:21:23:84:03:b6:88:
                    bb:3e:5a:1b:95:03:2f:24:53:2d:57:3f:11:38:5d:
                    12:1d:40:6b:10:db:c2:d3:e4:dd:80:77:74:7b:88:
                    44:65:e0:cf:52:c5:8a:42:e5:6e:b7:6a:ab:50:a0:
                    2e:29:c2:fe:ba:d5:c7:da:6b:91:26:8f:fc:1e:06:
                    17:f0:de:58:87:ef:1e:a6:91:12:39:68:a5:05:f3:
                    8c:67:c9:e5:99:18:a4:fc:90:3f:bd:a6:ca:f2:a6:
                    dd:b5:e6:93:cb:14:89:83:3c:88:5a:31:ab:e3:66:
                    2a:1b:87:c5:85:03:45:b0:ce:e1:0f:c1:0f:92:70:
                    d7:ac:65:ea:a8:09:c1:fe:1d:db:b7:e7:dd:98:d3:
                    c6:b1:16:b4:54:58:c1:aa:ba:a1:cf:19:14:a7:e4:
                    55:a6:da:bb:1f:9e:d1:85:00:e0:8d:4a:c4:d2:86:
                    08:75:fd:d8:1e:85:21:6c:27:8f:18:d5:44:73:58:
                    ab:94:75:4a:36:3d:8d:4d:c6:7a:86:9d:00:db:c5:
                    ba:be:70:02:83:bf:6e:d8:31:89:b3:f2:16:98:be:
                    27:f6:14:5a:e9:d4:72:67:8d:a9:df:76:27:bf:19:
                    ac:20:59:28:5b:1b:42:d9:d5:5b:6d:fb:6e:a2:5e:
                    d3:e9
                Exponent: 65537 (0x10001)
        X509v3 extensions:
            X509v3 Subject Key Identifier: 
                FC:18:13:52:BB:33:4A:DB:1C:5B:D1:80:98:3E:40:86:95:58:72:F9
            X509v3 Authority Key Identifier: 
                keyid:27:8E:67:11:74:C3:26:1D:3F:ED:33:63:B3:A4:D8:1D:30:E5:E8:D5
                DirName:/C=US/ST=Montana/L=Bozeman/O=Sawtooth/OU=Consulting/CN=www.wolfssl.com/emailAddress=info@wolfssl.com
                serial:AA:D3:3F:AC:18:0A:37:4D

            X509v3 Basic Constraints: 
                CA:TRUE, pathlen:2
            X509v3 Key Usage: 
                Certificate Sign, CRL Sign
    Signature Algorithm: sha256WithRSAEncryption
         0a:09:0b:51:1a:2d:fd:0f:3f:07:9b:9e:c8:17:d9:a5:40:e6:
         08:a5:8a:f6:38:38:c1:b2:6a:a0:80:6e:b8:0f:15:94:80:ed:
         1b:2d:79:f0:31:f3:9c:6a:1f:f5:51:d3:9d:6a:17:c7:20:14:
         cf:74:b5:01:ef:ce:0c:d4:c4:e5:d2:f8:6c:ef:79:64:c0:7e:
         50:7d:88:1f:5a:7d:a4:d0:e5:0b:ec:b9:54:ac:81:91:75:2c:
         38:de:ff:73:8d:23:14:52:ce:c8:07:cd:e5:66:8b:79:90:ee:
         e0:4e:91:ee:dd:14:74:58:89:04:ea:d7:f6:cf:65:b6:33:d8:
         f8:ae:1c:3d:17:fc:5a:51:28:b9:a6:6e:c4:aa:e8:43:f8:9d:
         6b:de:dd:e9:9c:9d:b1:43:8e:f1:b7:60:9b:0a:fa:3a:0b:80:
         a8:01:7c:b5:63:d5:c5:11:23:9a:89:2f:0f:47:26:0d:78:26:
         c1:61:64:c3:37:93:27:af:08:f8:4e:1a:f7:92:a6:c0:2b:32:
         78:23:fc:71:71:8d:a1:1e:ec:7e:6f:62:27:1b:04:3c:0a:78:
         23:9a:21:b2:ef:59:67:59:bd:9d:d3:49:72:0c:0b:c2:8f:d3:
         ca:4e:81:ab:b3:5a:00:39:4a:86:ce:1e:e3:99:a8:1a:e3:ba:
         79:a9:aa:68
-----BEGIN CERTIFICATE-----
MIIEwTCCA6mgAwIBAgIBZDANBgkqhkiG9w0BAQsFADCBlDELMAkGA1UEBhMCVVMx
EDAOBgNVBAgMB01vbnRhbmExEDAOBgNVBAcMB0JvemVtYW4xETAPBgNVBAoMCFNh
d3Rvb3RoMRMwEQYDVQQLDApDb25zdWx0aW5nMRgwFgYDVQQDDA93d3cud29sZnNz
bC5jb20xHzAdBgkqhkiG9w0BCQEWEGluZm9Ad29sZnNzbC5jb20wHhcNMjEwMjEw
MTk0OTU1WhcNMjMxMTA3MTk0OTU1WjCBoTELMAkGA1UEBhMCVVMxEzARBgNVBAgM
Cldhc2hpbmd0b24xEDAOBgNVBAcMB1NlYXR0bGUxFTATBgNVBAoMDHdvbGZTU0wg
SW5jLjEUMBIGA1UECwwLRW5naW5lZXJpbmcxHTAbBgNVBAMMFGNoYWluSi1JQ0E0
LXBhdGhsZW4yMR8wHQYJKoZIhvcNAQkBFhBpbmZvQHdvbGZzc2wuY29tMIIBIjAN
BgkqhkiG9w0BAQEFAAOCAQ8AMIIBCgKCAQEAnUrua/+27IghI4QDtoi7PloblQMv
JFMtVz8ROF0SHUBrENvC0+TdgHd0e4hEZeDPUsWKQuVut2qrUKAuKcL+utXH2muR
Jo/8HgYX8N5Yh+8eppESOWilBfOMZ8nlmRik/JA/vabK8qbdteaTyxSJgzyIWjGr
42YqG4fFhQNFsM7hD8EPknDXrGXqqAnB/h3bt+fdmNPGsRa0VFjBqrqhzxkUp+RV
ptq7H57RhQDgjUrE0oYIdf3YHoUhbCePGNVEc1irlHVKNj2NTcZ6hp0A28W6vnAC
g79u2DGJs/IWmL4n9hRa6dRyZ42p33YnvxmsIFkoWxtC2dVbbftuol7T6QIDAQAB
o4IBDTCCAQkwHQYDVR0OBBYEFPwYE1K7M0rbHFvRgJg+QIaVWHL5MIHJBgNVHSME
gcEwgb6AFCeOZxF0wyYdP+0zY7Ok2B0w5ejVoYGapIGXMIGUMQswCQYDVQQGEwJV
UzEQMA4GA1UECAwHTW9udGFuYTEQMA4GA1UEBwwHQm96ZW1hbjERMA8GA1UECgwI
U2F3dG9vdGgxEzARBgNVBAsMCkNvbnN1bHRpbmcxGDAWBgNVBAMMD3d3dy53b2xm
c3NsLmNvbTEfMB0GCSqGSIb3DQEJARYQaW5mb0B3b2xmc3NsLmNvbYIJAKrTP6wY
CjdNMA8GA1UdEwQIMAYBAf8CAQIwCwYDVR0PBAQDAgEGMA0GCSqGSIb3DQEBCwUA
A4IBAQAKCQtRGi39Dz8Hm57IF9mlQOYIpYr2ODjBsmqggG64DxWUgO0bLXnwMfOc
ah/1UdOdahfHIBTPdLUB784M1MTl0vhs73lkwH5QfYgfWn2k0OUL7LlUrIGRdSw4
3v9zjSMUUs7IB83lZot5kO7gTpHu3RR0WIkE6tf2z2W2M9j4rhw9F/xaUSi5pm7E
quhD+J1r3t3pnJ2xQ47xt2CbCvo6C4CoAXy1Y9XFESOaiS8PRyYNeCbBYWTDN5Mn
rwj4Thr3kqbAKzJ4I/xxcY2hHux+b2InGwQ8CngjmiGy71lnWb2d00lyDAvCj9PK
ToGrs1oAOUqGzh7jmaga47p5qapo
-----END CERTIFICATE-----
