Certificate:
    Data:
        Version: 3 (0x2)
        Serial Number: 101 (0x65)
        Signature Algorithm: sha256WithRSAEncryption
        Issuer: C = US, ST = Washington, L = Seattle, O = wolfSSL Inc., OU = Engineering, CN = chainF-ICA1-pathlen1, emailAddress = info@wolfssl.com
        Validity
            Not Before: Jun 19 13:23:42 2020 GMT
            Not After : Mar 16 13:23:42 2023 GMT
        Subject: C = US, ST = Washington, L = Seattle, O = wolfSSL Inc., OU = Engineering, CN = chainF-entity, emailAddress = info@wolfssl.com
        Subject Public Key Info:
            Public Key Algorithm: rsaEncryption
                RSA Public-Key: (2048 bit)
                Modulus:
                    00:c9:f8:2c:ad:25:a9:65:3b:72:13:5d:aa:7f:5b:
                    71:f5:e0:43:c4:3a:b3:36:0d:34:61:35:86:77:a0:
                    2a:81:de:2c:7c:7d:01:fb:f4:c3:00:b0:17:b9:49:
                    93:1d:c2:1b:6f:40:ee:86:e0:a7:f3:5e:ad:23:43:
                    99:5f:34:38:c8:58:02:9b:cc:9e:59:da:81:5b:b1:
                    40:74:ca:c1:b8:67:14:ba:3f:71:16:d9:ba:a9:cd:
                    f1:96:1b:52:e2:d2:07:6d:6a:d6:cf:e7:a8:c8:e0:
                    4f:eb:35:64:bc:aa:1a:17:af:98:de:d0:9b:08:73:
                    72:d8:fe:e2:e5:4e:7e:97:37:37:58:9e:5c:65:91:
                    b9:5d:38:da:ba:db:00:c0:f6:4a:6f:9c:86:23:ad:
                    b0:c4:ff:b7:dd:d6:9a:b0:de:8d:15:87:e2:4b:04:
                    85:6d:5d:cc:5f:65:6f:e1:ae:22:44:80:18:ba:c2:
                    95:a4:a3:28:c5:3f:7b:4c:85:6c:0f:11:14:56:d2:
                    d5:a7:f7:03:e9:f7:ce:ef:d9:18:02:f0:f2:6e:81:
                    ef:ac:50:87:0e:b0:46:9f:ae:c0:77:8f:03:28:8a:
                    9d:6e:87:50:8f:37:46:b3:29:57:a4:c2:ef:25:cd:
                    23:1a:ef:1a:03:c9:59:69:cd:45:5f:39:3f:76:d4:
                    79:53
                Exponent: 65537 (0x10001)
        X509v3 extensions:
            X509v3 Subject Key Identifier: 
                E9:27:36:DA:64:81:70:89:C9:C1:F9:E3:92:7A:67:11:07:01:4A:49
            X509v3 Authority Key Identifier: 
                keyid:75:32:21:05:2B:60:FE:44:17:AF:18:65:86:85:19:82:3F:F9:64:83
                DirName:/C=US/ST=Washington/L=Seattle/O=wolfSSL Inc./OU=Engineering/CN=chainF-ICA2-pathlen0/emailAddress=info@wolfssl.com
                serial:64

            X509v3 Basic Constraints: 
                CA:FALSE
    Signature Algorithm: sha256WithRSAEncryption
         82:9c:c0:af:d1:7c:35:1c:bc:d8:28:bd:c4:bb:56:f6:0e:e8:
         70:cd:25:5e:ac:2a:38:18:23:8f:3a:52:d1:cf:d6:51:77:79:
         fc:16:30:d6:8b:62:1e:c1:a4:0c:90:89:c7:c1:fc:a4:ee:bf:
         e7:f1:fb:01:32:d9:e3:30:75:78:63:c9:f4:3b:71:df:29:9c:
         7d:5f:59:02:ef:6b:00:37:ae:07:92:c7:17:ed:8c:2f:94:3b:
         e2:f0:70:76:9f:32:3b:97:e5:da:90:ca:fd:c8:0d:a0:b9:11:
         a4:a7:37:9f:8e:48:f3:d9:71:c3:c4:49:ed:4b:1c:ef:21:2a:
         d3:41:5f:39:2a:cd:ec:a9:ba:15:f5:56:da:b3:f0:83:e5:4d:
         2d:ec:c0:d1:2c:d5:32:d8:05:e8:0f:66:e3:6e:a4:8d:cb:06:
         73:80:41:38:62:53:00:ed:51:a9:3b:e4:a9:9c:9d:49:b1:0e:
         75:16:3e:cb:96:a1:35:90:bc:67:5f:d0:b7:93:68:f7:01:1d:
         11:d9:09:6c:ec:ca:75:5b:57:df:4a:8c:d5:2d:8a:5c:a9:90:
         c1:72:00:92:d2:40:5c:35:8f:2b:87:58:38:8e:2e:54:dd:0a:
         4f:ad:0b:e2:6c:6a:16:1e:28:fc:2d:6e:f4:18:2e:5b:a4:f1:
         2d:55:e6:9a
-----BEGIN CERTIFICATE-----
MIIEtzCCA5+gAwIBAgIBZTANBgkqhkiG9w0BAQsFADCBoTELMAkGA1UEBhMCVVMx
EzARBgNVBAgMCldhc2hpbmd0b24xEDAOBgNVBAcMB1NlYXR0bGUxFTATBgNVBAoM
DHdvbGZTU0wgSW5jLjEUMBIGA1UECwwLRW5naW5lZXJpbmcxHTAbBgNVBAMMFGNo
YWluRi1JQ0ExLXBhdGhsZW4xMR8wHQYJKoZIhvcNAQkBFhBpbmZvQHdvbGZzc2wu
Y29tMB4XDTIwMDYxOTEzMjM0MloXDTIzMDMxNjEzMjM0MlowgZoxCzAJBgNVBAYT
AlVTMRMwEQYDVQQIDApXYXNoaW5ndG9uMRAwDgYDVQQHDAdTZWF0dGxlMRUwEwYD
VQQKDAx3b2xmU1NMIEluYy4xFDASBgNVBAsMC0VuZ2luZWVyaW5nMRYwFAYDVQQD
DA1jaGFpbkYtZW50aXR5MR8wHQYJKoZIhvcNAQkBFhBpbmZvQHdvbGZzc2wuY29t
MIIBIjANBgkqhkiG9w0BAQEFAAOCAQ8AMIIBCgKCAQEAyfgsrSWpZTtyE12qf1tx
9eBDxDqzNg00YTWGd6Aqgd4sfH0B+/TDALAXuUmTHcIbb0DuhuCn816tI0OZXzQ4
yFgCm8yeWdqBW7FAdMrBuGcUuj9xFtm6qc3xlhtS4tIHbWrWz+eoyOBP6zVkvKoa
F6+Y3tCbCHNy2P7i5U5+lzc3WJ5cZZG5XTjautsAwPZKb5yGI62wxP+33daasN6N
FYfiSwSFbV3MX2Vv4a4iRIAYusKVpKMoxT97TIVsDxEUVtLVp/cD6ffO79kYAvDy
boHvrFCHDrBGn67Ad48DKIqdbodQjzdGsylXpMLvJc0jGu8aA8lZac1FXzk/dtR5
UwIDAQABo4H+MIH7MB0GA1UdDgQWBBTpJzbaZIFwicnB+eOSemcRBwFKSTCBzgYD
VR0jBIHGMIHDgBR1MiEFK2D+RBevGGWGhRmCP/lkg6GBp6SBpDCBoTELMAkGA1UE
BhMCVVMxEzARBgNVBAgMCldhc2hpbmd0b24xEDAOBgNVBAcMB1NlYXR0bGUxFTAT
BgNVBAoMDHdvbGZTU0wgSW5jLjEUMBIGA1UECwwLRW5naW5lZXJpbmcxHTAbBgNV
BAMMFGNoYWluRi1JQ0EyLXBhdGhsZW4wMR8wHQYJKoZIhvcNAQkBFhBpbmZvQHdv
bGZzc2wuY29tggFkMAkGA1UdEwQCMAAwDQYJKoZIhvcNAQELBQADggEBAIKcwK/R
fDUcvNgovcS7VvYO6HDNJV6sKjgYI486UtHP1lF3efwWMNaLYh7BpAyQicfB/KTu
v+fx+wEy2eMwdXhjyfQ7cd8pnH1fWQLvawA3rgeSxxftjC+UO+LwcHafMjuX5dqQ
yv3IDaC5EaSnN5+OSPPZccPESe1LHO8hKtNBXzkqzeypuhX1Vtqz8IPlTS3swNEs
1TLYBegPZuNupI3LBnOAQThiUwDtUak75KmcnUmxDnUWPsuWoTWQvGdf0LeTaPcB
HRHZCWzsynVbV99KjNUtilypkMFyAJLSQFw1jyuHWDiOLlTdCk+tC+JsahYeKPwt
bvQYLluk8S1V5po=
-----END CERTIFICATE-----
Certificate:
    Data:
        Version: 3 (0x2)
        Serial Number: 100 (0x64)
        Signature Algorithm: sha256WithRSAEncryption
        Issuer: C = US, ST = Washington, L = Seattle, O = wolfSSL Inc., OU = Engineering, CN = chainF-ICA2-pathlen0, emailAddress = info@wolfssl.com
        Validity
            Not Before: Jun 19 13:23:42 2020 GMT
            Not After : Mar 16 13:23:42 2023 GMT
        Subject: C = US, ST = Washington, L = Seattle, O = wolfSSL Inc., OU = Engineering, CN = chainF-ICA1-pathlen1, emailAddress = info@wolfssl.com
        Subject Public Key Info:
            Public Key Algorithm: rsaEncryption
                RSA Public-Key: (2048 bit)
                Modulus:
                    00:e0:13:c9:b0:8e:9d:3f:88:d4:30:4a:b4:e8:11:
                    21:93:5c:20:45:08:f8:7a:91:b9:2c:ad:ff:60:aa:
                    16:9f:1c:bb:88:b8:3d:0a:39:c1:89:a9:76:ca:8e:
                    6c:72:72:7e:6e:74:a6:36:2c:69:df:33:d6:e9:66:
                    70:65:7f:ba:2a:44:17:62:9f:33:46:12:e6:03:a5:
                    a6:e2:5c:09:07:cf:bc:8d:76:fe:a0:fd:d7:72:4a:
                    94:c8:ca:2f:95:91:9c:0a:77:7f:82:23:be:72:27:
                    29:45:cd:41:cf:ec:e1:84:cf:67:d0:18:98:b9:31:
                    be:c9:fe:98:5d:3f:aa:d2:83:76:45:85:ab:08:86:
                    63:58:5b:b3:e5:4a:43:3d:a1:99:e2:80:d1:2b:b2:
                    06:e3:f0:10:85:f9:a6:36:b8:52:2b:9d:73:3b:34:
                    23:51:3d:fe:56:2f:e9:39:b2:68:07:3e:6f:52:7b:
                    f4:40:d4:72:fa:69:19:ca:ff:22:c8:45:95:05:5e:
                    91:08:3f:27:2d:41:d1:74:a5:06:9c:f3:40:bd:bb:
                    fc:65:63:86:ed:80:22:50:c1:f6:4f:dc:8f:43:4c:
                    5e:fb:bf:d9:6d:1f:b4:84:0f:1e:e8:c6:5d:c5:53:
                    d5:2c:c9:7f:6b:98:93:a7:5d:35:9a:17:62:91:2e:
                    20:c1
                Exponent: 65537 (0x10001)
        X509v3 extensions:
            X509v3 Subject Key Identifier: 
                75:32:21:05:2B:60:FE:44:17:AF:18:65:86:85:19:82:3F:F9:64:83
            X509v3 Authority Key Identifier: 
                keyid:4A:53:4A:B7:30:78:35:91:B4:CB:DD:C8:22:74:89:AF:80:0F:7F:68
                DirName:/C=US/ST=Montana/L=Bozeman/O=Sawtooth/OU=Consulting/CN=www.wolfssl.com/emailAddress=info@wolfssl.com
                serial:64

            X509v3 Basic Constraints: 
                CA:TRUE, pathlen:1
            X509v3 Key Usage: 
                Certificate Sign, CRL Sign
    Signature Algorithm: sha256WithRSAEncryption
         0d:37:9b:7e:f3:f8:99:ca:8d:0f:e1:04:0f:50:6f:1f:c1:2c:
         99:e9:b7:aa:93:16:a8:14:6b:31:31:e9:9e:73:11:07:9b:52:
         49:26:06:0d:06:11:36:27:10:0a:a7:9c:ff:4a:b5:91:0d:a5:
         55:14:a6:41:04:b6:6f:89:38:ca:3e:87:c3:b9:a5:0a:71:0f:
         a8:d1:a3:45:6e:0e:bb:7e:29:c0:20:a5:e1:f9:e4:d0:3a:cd:
         e1:85:26:89:16:90:d0:46:b8:2e:44:b2:49:ee:70:9e:54:d2:
         d9:55:bd:1c:bc:f3:b5:43:4c:13:ce:a8:5c:d0:4f:c8:0a:0c:
         87:9f:c7:4e:4e:99:5a:85:81:5f:9f:a8:04:fa:a8:f0:dd:ab:
         36:2a:b3:f5:14:bc:54:9a:12:e8:12:6e:c1:88:cc:ee:17:84:
         bc:2c:9b:f3:77:31:b8:fd:4c:ef:c3:27:8c:e7:fa:94:c0:eb:
         7a:fb:e2:c7:58:b1:1b:f6:7b:3d:df:9f:30:5f:60:ab:7a:46:
         c8:05:01:82:12:83:07:db:1e:3d:8a:d4:62:c6:ac:9f:28:18:
         4f:ba:06:74:a9:53:54:9a:04:30:39:bb:52:54:08:2b:6f:fa:
         bf:1d:04:1c:87:2a:c4:5f:a4:7b:ca:b9:d0:d0:a4:db:44:22:
         f1:cf:b0:86
-----BEGIN CERTIFICATE-----
MIIExjCCA66gAwIBAgIBZDANBgkqhkiG9w0BAQsFADCBoTELMAkGA1UEBhMCVVMx
EzARBgNVBAgMCldhc2hpbmd0b24xEDAOBgNVBAcMB1NlYXR0bGUxFTATBgNVBAoM
DHdvbGZTU0wgSW5jLjEUMBIGA1UECwwLRW5naW5lZXJpbmcxHTAbBgNVBAMMFGNo
YWluRi1JQ0EyLXBhdGhsZW4wMR8wHQYJKoZIhvcNAQkBFhBpbmZvQHdvbGZzc2wu
Y29tMB4XDTIwMDYxOTEzMjM0MloXDTIzMDMxNjEzMjM0MlowgaExCzAJBgNVBAYT
AlVTMRMwEQYDVQQIDApXYXNoaW5ndG9uMRAwDgYDVQQHDAdTZWF0dGxlMRUwEwYD
VQQKDAx3b2xmU1NMIEluYy4xFDASBgNVBAsMC0VuZ2luZWVyaW5nMR0wGwYDVQQD
DBRjaGFpbkYtSUNBMS1wYXRobGVuMTEfMB0GCSqGSIb3DQEJARYQaW5mb0B3b2xm
c3NsLmNvbTCCASIwDQYJKoZIhvcNAQEBBQADggEPADCCAQoCggEBAOATybCOnT+I
1DBKtOgRIZNcIEUI+HqRuSyt/2CqFp8cu4i4PQo5wYmpdsqObHJyfm50pjYsad8z
1ulmcGV/uipEF2KfM0YS5gOlpuJcCQfPvI12/qD913JKlMjKL5WRnAp3f4IjvnIn
KUXNQc/s4YTPZ9AYmLkxvsn+mF0/qtKDdkWFqwiGY1hbs+VKQz2hmeKA0SuyBuPw
EIX5pja4Uiudczs0I1E9/lYv6TmyaAc+b1J79EDUcvppGcr/IshFlQVekQg/Jy1B
0XSlBpzzQL27/GVjhu2AIlDB9k/cj0NMXvu/2W0ftIQPHujGXcVT1SzJf2uYk6dd
NZoXYpEuIMECAwEAAaOCAQUwggEBMB0GA1UdDgQWBBR1MiEFK2D+RBevGGWGhRmC
P/lkgzCBwQYDVR0jBIG5MIG2gBRKU0q3MHg1kbTL3cgidImvgA9/aKGBmqSBlzCB
lDELMAkGA1UEBhMCVVMxEDAOBgNVBAgMB01vbnRhbmExEDAOBgNVBAcMB0JvemVt
YW4xETAPBgNVBAoMCFNhd3Rvb3RoMRMwEQYDVQQLDApDb25zdWx0aW5nMRgwFgYD
VQQDDA93d3cud29sZnNzbC5jb20xHzAdBgkqhkiG9w0BCQEWEGluZm9Ad29sZnNz
bC5jb22CAWQwDwYDVR0TBAgwBgEB/wIBATALBgNVHQ8EBAMCAQYwDQYJKoZIhvcN
AQELBQADggEBAA03m37z+JnKjQ/hBA9Qbx/BLJnpt6qTFqgUazEx6Z5zEQebUkkm
Bg0GETYnEAqnnP9KtZENpVUUpkEEtm+JOMo+h8O5pQpxD6jRo0VuDrt+KcAgpeH5
5NA6zeGFJokWkNBGuC5EsknucJ5U0tlVvRy887VDTBPOqFzQT8gKDIefx05OmVqF
gV+fqAT6qPDdqzYqs/UUvFSaEugSbsGIzO4XhLwsm/N3Mbj9TO/DJ4zn+pTA63r7
4sdYsRv2ez3fnzBfYKt6RsgFAYISgwfbHj2K1GLGrJ8oGE+6BnSpU1SaBDA5u1JU
CCtv+r8dBByHKsRfpHvKudDQpNtEIvHPsIY=
-----END CERTIFICATE-----
Certificate:
    Data:
        Version: 3 (0x2)
        Serial Number: 100 (0x64)
        Signature Algorithm: sha256WithRSAEncryption
        Issuer: C = US, ST = Montana, L = Bozeman, O = Sawtooth, OU = Consulting, CN = www.wolfssl.com, emailAddress = info@wolfssl.com
        Validity
            Not Before: Jun 19 13:23:42 2020 GMT
            Not After : Mar 16 13:23:42 2023 GMT
        Subject: C = US, ST = Washington, L = Seattle, O = wolfSSL Inc., OU = Engineering, CN = chainF-ICA2-pathlen0, emailAddress = info@wolfssl.com
        Subject Public Key Info:
            Public Key Algorithm: rsaEncryption
                RSA Public-Key: (2048 bit)
                Modulus:
                    00:da:3a:22:65:f8:6d:1c:b7:1c:87:dd:27:f4:d7:
                    75:aa:7c:1c:37:31:b4:d6:a5:34:4b:36:40:ea:55:
                    08:72:a0:ff:58:e2:5d:26:11:f5:b8:6e:de:d7:c3:
                    bb:26:51:c8:d0:36:14:00:76:42:4d:03:73:ef:88:
                    b9:37:f4:e8:9d:61:45:96:e1:8e:6c:78:58:e1:f6:
                    cf:46:8a:d6:a5:79:4d:47:88:ca:6c:69:4e:28:d4:
                    8d:84:a8:e1:6c:1d:d3:36:7e:23:e3:64:d5:0a:a3:
                    fc:36:89:90:0a:ff:7e:8b:fa:2e:66:fb:c7:33:44:
                    92:df:0f:43:b2:eb:24:7e:2b:ae:b0:43:a9:ad:53:
                    82:f8:de:17:19:26:5f:ca:8c:ac:0c:1f:24:bd:15:
                    ed:4f:5d:82:ea:10:eb:05:70:4f:03:60:d9:23:6d:
                    21:07:4d:12:9c:f3:64:ee:76:fb:9d:f9:c3:d8:1a:
                    3b:6e:a9:82:7b:2d:2e:b0:74:b7:13:d6:65:8a:06:
                    f2:25:74:c2:26:e9:71:66:54:61:fe:2a:34:27:07:
                    c9:8d:ef:a0:a2:86:93:41:47:73:08:01:07:cc:4d:
                    ec:fe:80:88:93:fb:ae:b4:91:16:fa:83:96:84:66:
                    53:cd:f3:52:da:d4:25:e1:09:15:20:e2:10:ea:dd:
                    39:ef
                Exponent: 65537 (0x10001)
        X509v3 extensions:
            X509v3 Subject Key Identifier: 
                4A:53:4A:B7:30:78:35:91:B4:CB:DD:C8:22:74:89:AF:80:0F:7F:68
            X509v3 Authority Key Identifier: 
                keyid:27:8E:67:11:74:C3:26:1D:3F:ED:33:63:B3:A4:D8:1D:30:E5:E8:D5
                DirName:/C=US/ST=Montana/L=Bozeman/O=Sawtooth/OU=Consulting/CN=www.wolfssl.com/emailAddress=info@wolfssl.com
                serial:5E:BA:A4:F4:B1:F7:48:25:E3:5F:9B:DA:A1:13:ED:D5:2B:03:67:15

            X509v3 Basic Constraints: 
                CA:TRUE, pathlen:0
            X509v3 Key Usage: 
                Certificate Sign, CRL Sign
    Signature Algorithm: sha256WithRSAEncryption
         a7:61:d5:54:60:c4:a2:2d:67:a6:a5:81:c2:48:ac:dc:f4:48:
         80:b3:02:b0:e6:21:95:1d:b1:05:84:65:a0:7b:26:aa:5f:95:
         92:a9:71:44:d5:7a:2a:02:34:a5:21:a5:e7:8a:69:ab:6e:9d:
         cb:ef:18:b7:d7:24:06:37:52:74:2c:7f:34:a0:b6:55:36:dc:
         30:96:71:bf:bb:86:77:c2:18:f0:54:36:83:ad:27:7b:3e:d6:
         d2:ba:02:43:57:0c:0f:01:5b:71:46:2e:e5:a0:24:6a:13:86:
         0b:b5:c8:88:af:2f:73:d2:35:1f:0f:02:50:65:01:43:4c:d9:
         58:83:4f:bd:a5:45:e8:74:4b:51:aa:c1:29:82:7d:70:b5:d6:
         80:77:31:9c:17:67:65:7b:f9:b5:df:32:a1:1a:b8:30:fd:6a:
         67:98:0e:11:9d:29:3a:dd:27:f0:c2:aa:1d:25:a3:77:79:ff:
         f0:12:6b:43:dc:3b:7f:65:79:30:67:15:13:0a:10:ac:cb:ff:
         1e:70:60:e1:00:32:cc:f6:a9:21:a5:99:e5:36:74:ee:a2:cd:
         f2:d1:85:0f:51:24:38:ac:7a:ef:e3:c9:b5:35:55:3d:80:ba:
         20:3b:20:0b:c0:a8:b9:fd:91:e7:f5:98:ae:f4:70:82:33:2a:
         89:e4:97:53
-----BEGIN CERTIFICATE-----
MIIEzDCCA7SgAwIBAgIBZDANBgkqhkiG9w0BAQsFADCBlDELMAkGA1UEBhMCVVMx
EDAOBgNVBAgMB01vbnRhbmExEDAOBgNVBAcMB0JvemVtYW4xETAPBgNVBAoMCFNh
d3Rvb3RoMRMwEQYDVQQLDApDb25zdWx0aW5nMRgwFgYDVQQDDA93d3cud29sZnNz
bC5jb20xHzAdBgkqhkiG9w0BCQEWEGluZm9Ad29sZnNzbC5jb20wHhcNMjAwNjE5
MTMyMzQyWhcNMjMwMzE2MTMyMzQyWjCBoTELMAkGA1UEBhMCVVMxEzARBgNVBAgM
Cldhc2hpbmd0b24xEDAOBgNVBAcMB1NlYXR0bGUxFTATBgNVBAoMDHdvbGZTU0wg
SW5jLjEUMBIGA1UECwwLRW5naW5lZXJpbmcxHTAbBgNVBAMMFGNoYWluRi1JQ0Ey
LXBhdGhsZW4wMR8wHQYJKoZIhvcNAQkBFhBpbmZvQHdvbGZzc2wuY29tMIIBIjAN
BgkqhkiG9w0BAQEFAAOCAQ8AMIIBCgKCAQEA2joiZfhtHLcch90n9Nd1qnwcNzG0
1qU0SzZA6lUIcqD/WOJdJhH1uG7e18O7JlHI0DYUAHZCTQNz74i5N/TonWFFluGO
bHhY4fbPRorWpXlNR4jKbGlOKNSNhKjhbB3TNn4j42TVCqP8NomQCv9+i/ouZvvH
M0SS3w9DsuskfiuusEOprVOC+N4XGSZfyoysDB8kvRXtT12C6hDrBXBPA2DZI20h
B00SnPNk7nb7nfnD2Bo7bqmCey0usHS3E9ZligbyJXTCJulxZlRh/io0JwfJje+g
ooaTQUdzCAEHzE3s/oCIk/uutJEW+oOWhGZTzfNS2tQl4QkVIOIQ6t057wIDAQAB
o4IBGDCCARQwHQYDVR0OBBYEFEpTSrcweDWRtMvdyCJ0ia+AD39oMIHUBgNVHSME
gcwwgcmAFCeOZxF0wyYdP+0zY7Ok2B0w5ejVoYGapIGXMIGUMQswCQYDVQQGEwJV
UzEQMA4GA1UECAwHTW9udGFuYTEQMA4GA1UEBwwHQm96ZW1hbjERMA8GA1UECgwI
U2F3dG9vdGgxEzARBgNVBAsMCkNvbnN1bHRpbmcxGDAWBgNVBAMMD3d3dy53b2xm
c3NsLmNvbTEfMB0GCSqGSIb3DQEJARYQaW5mb0B3b2xmc3NsLmNvbYIUXrqk9LH3
SCXjX5vaoRPt1SsDZxUwDwYDVR0TBAgwBgEB/wIBADALBgNVHQ8EBAMCAQYwDQYJ
KoZIhvcNAQELBQADggEBAKdh1VRgxKItZ6algcJIrNz0SICzArDmIZUdsQWEZaB7
JqpflZKpcUTVeioCNKUhpeeKaatuncvvGLfXJAY3UnQsfzSgtlU23DCWcb+7hnfC
GPBUNoOtJ3s+1tK6AkNXDA8BW3FGLuWgJGoThgu1yIivL3PSNR8PAlBlAUNM2ViD
T72lReh0S1GqwSmCfXC11oB3MZwXZ2V7+bXfMqEauDD9ameYDhGdKTrdJ/DCqh0l
o3d5//ASa0PcO39leTBnFRMKEKzL/x5wYOEAMsz2qSGlmeU2dO6izfLRhQ9RJDis
eu/jybU1VT2AuiA7IAvAqLn9kef1mK70cIIzKonkl1M=
-----END CERTIFICATE-----
