Certificate:
    Data:
        Version: 3 (0x2)
        Serial Number: 100 (0x64)
        Signature Algorithm: sha256WithRSAEncryption
        Issuer: C=US, ST=Washington, L=Seattle, O=wolfSSL Inc., OU=Engineering, CN=chainB-ICA2-pathlen1, emailAddress=info@wolfssl.com
        Validity
            Not Before: Nov 13 20:41:41 2025 GMT
            Not After : Aug  9 20:41:41 2028 GMT
        Subject: C=US, ST=Washington, L=Seattle, O=wolfSSL Inc., OU=Engineering, CN=chainB-ICA1-pathlen0, emailAddress=info@wolfssl.com
        Subject Public Key Info:
            Public Key Algorithm: rsaEncryption
                Public-Key: (2048 bit)
                Modulus:
                    00:b2:f7:aa:ae:91:d1:24:41:52:a1:22:e0:d3:97:
                    9b:e0:0c:94:9c:4a:e4:b3:85:ae:a9:43:9f:ec:7a:
                    05:dd:88:5c:e5:19:52:53:39:86:8a:b2:e2:86:27:
                    ab:03:9a:be:c4:54:67:af:b9:ac:65:e2:61:97:78:
                    66:60:29:90:62:08:62:91:a0:96:2b:0f:30:6c:da:
                    3d:70:35:52:a8:a7:d5:85:49:25:6a:56:59:bc:6b:
                    45:91:c3:37:fc:06:0d:a2:a9:46:e2:29:82:1b:77:
                    a6:49:35:fb:57:5f:33:02:92:e5:6b:67:c2:61:e2:
                    37:9c:12:5c:b5:2c:9b:2a:a5:85:97:22:73:3d:36:
                    50:55:1a:6a:59:d9:da:ac:2d:3f:e6:6a:b1:1d:60:
                    52:03:05:40:5f:cf:06:68:f0:32:86:5a:6f:b5:02:
                    63:e6:2e:1e:9f:09:82:8c:03:18:19:e4:79:d5:35:
                    6e:d9:17:9f:3c:c1:d9:3b:95:f9:6f:f3:19:d1:d3:
                    b8:5d:7c:93:37:c3:7c:3b:a0:58:c7:fb:e5:2d:f5:
                    58:d3:9b:72:f3:43:7a:29:ec:6b:f4:86:81:c8:e6:
                    60:8b:2b:c5:ad:59:e5:a4:a0:05:97:09:02:00:a7:
                    55:dc:5b:ef:e4:8b:83:1a:ee:c8:1c:b5:b6:e6:61:
                    6b:d1
                Exponent: 65537 (0x10001)
        X509v3 extensions:
            X509v3 Subject Key Identifier: 
                D7:90:E4:86:59:24:F9:2B:B8:06:8E:B1:8F:33:E5:2C:63:F1:03:16
            X509v3 Authority Key Identifier: 
                keyid:EE:59:9D:56:0B:7C:0A:45:44:E3:15:57:E2:B2:F3:1D:64:6F:AF:7A
                DirName:/C=US/ST=Montana/L=Bozeman/O=Sawtooth/OU=Consulting/CN=www.wolfssl.com/emailAddress=info@wolfssl.com
                serial:64
            X509v3 Basic Constraints: 
                CA:TRUE, pathlen:0
            X509v3 Key Usage: 
                Certificate Sign, CRL Sign
    Signature Algorithm: sha256WithRSAEncryption
    Signature Value:
        41:67:5e:c1:45:7b:54:20:70:0b:f6:a8:10:29:25:cc:b9:4d:
        32:df:07:fa:cc:2d:c6:bc:c2:58:06:ac:a8:1b:44:9f:b9:4f:
        e6:16:0b:bd:58:6e:04:b3:3f:ab:3a:32:14:d5:5c:c6:34:41:
        cd:32:66:a5:51:01:8e:62:e9:c8:f6:a3:62:0e:8b:b8:e9:a2:
        e5:1b:0e:5c:36:54:e7:6c:4e:72:af:5a:4a:0a:f8:64:d1:ef:
        c9:a4:a7:2c:1b:42:6b:2f:c2:ca:97:48:f7:4b:46:c4:e3:94:
        b6:5c:d7:5e:c3:c0:ef:ab:d4:be:84:ac:ce:5a:85:b3:02:ce:
        1c:5c:28:10:d1:03:75:05:ef:62:86:39:c8:cb:08:39:9f:f3:
        41:57:4d:d8:78:90:50:95:5d:4f:55:30:1e:0f:7f:b1:69:0b:
        8b:5a:2b:af:12:f1:17:e8:11:7a:47:7c:16:5e:11:6b:92:19:
        92:0d:60:7b:2e:1b:48:aa:37:3c:0d:1d:6f:0f:60:78:33:6b:
        fa:e8:44:8a:21:b5:aa:4e:20:71:a2:57:db:2a:ea:68:c0:49:
        9b:60:7f:1b:bb:7c:30:4e:df:be:12:ec:d6:71:30:62:6e:d1:
        c6:e3:dd:3d:c0:4e:49:3d:c4:ad:9e:c3:fa:f1:d2:33:c9:21:
        6c:1b:f3:18
-----BEGIN CERTIFICATE-----
MIIExjCCA66gAwIBAgIBZDANBgkqhkiG9w0BAQsFADCBoTELMAkGA1UEBhMCVVMx
EzARBgNVBAgMCldhc2hpbmd0b24xEDAOBgNVBAcMB1NlYXR0bGUxFTATBgNVBAoM
DHdvbGZTU0wgSW5jLjEUMBIGA1UECwwLRW5naW5lZXJpbmcxHTAbBgNVBAMMFGNo
YWluQi1JQ0EyLXBhdGhsZW4xMR8wHQYJKoZIhvcNAQkBFhBpbmZvQHdvbGZzc2wu
Y29tMB4XDTI1MTExMzIwNDE0MVoXDTI4MDgwOTIwNDE0MVowgaExCzAJBgNVBAYT
AlVTMRMwEQYDVQQIDApXYXNoaW5ndG9uMRAwDgYDVQQHDAdTZWF0dGxlMRUwEwYD
VQQKDAx3b2xmU1NMIEluYy4xFDASBgNVBAsMC0VuZ2luZWVyaW5nMR0wGwYDVQQD
DBRjaGFpbkItSUNBMS1wYXRobGVuMDEfMB0GCSqGSIb3DQEJARYQaW5mb0B3b2xm
c3NsLmNvbTCCASIwDQYJKoZIhvcNAQEBBQADggEPADCCAQoCggEBALL3qq6R0SRB
UqEi4NOXm+AMlJxK5LOFrqlDn+x6Bd2IXOUZUlM5hoqy4oYnqwOavsRUZ6+5rGXi
YZd4ZmApkGIIYpGglisPMGzaPXA1Uqin1YVJJWpWWbxrRZHDN/wGDaKpRuIpght3
pkk1+1dfMwKS5WtnwmHiN5wSXLUsmyqlhZcicz02UFUaalnZ2qwtP+ZqsR1gUgMF
QF/PBmjwMoZab7UCY+YuHp8JgowDGBnkedU1btkXnzzB2TuV+W/zGdHTuF18kzfD
fDugWMf75S31WNObcvNDeinsa/SGgcjmYIsrxa1Z5aSgBZcJAgCnVdxb7+SLgxru
yBy1tuZha9ECAwEAAaOCAQUwggEBMB0GA1UdDgQWBBTXkOSGWST5K7gGjrGPM+Us
Y/EDFjCBwQYDVR0jBIG5MIG2gBTuWZ1WC3wKRUTjFVfisvMdZG+veqGBmqSBlzCB
lDELMAkGA1UEBhMCVVMxEDAOBgNVBAgMB01vbnRhbmExEDAOBgNVBAcMB0JvemVt
YW4xETAPBgNVBAoMCFNhd3Rvb3RoMRMwEQYDVQQLDApDb25zdWx0aW5nMRgwFgYD
VQQDDA93d3cud29sZnNzbC5jb20xHzAdBgkqhkiG9w0BCQEWEGluZm9Ad29sZnNz
bC5jb22CAWQwDwYDVR0TBAgwBgEB/wIBADALBgNVHQ8EBAMCAQYwDQYJKoZIhvcN
AQELBQADggEBAEFnXsFFe1QgcAv2qBApJcy5TTLfB/rMLca8wlgGrKgbRJ+5T+YW
C71YbgSzP6s6MhTVXMY0Qc0yZqVRAY5i6cj2o2IOi7jpouUbDlw2VOdsTnKvWkoK
+GTR78mkpywbQmsvwsqXSPdLRsTjlLZc117DwO+r1L6ErM5ahbMCzhxcKBDRA3UF
72KGOcjLCDmf80FXTdh4kFCVXU9VMB4Pf7FpC4taK68S8RfoEXpHfBZeEWuSGZIN
YHsuG0iqNzwNHW8PYHgza/roRIohtapOIHGiV9sq6mjASZtgfxu7fDBO374S7NZx
MGJu0cbj3T3ATkk9xK2ew/rx0jPJIWwb8xg=
-----END CERTIFICATE-----
