Certificate:
    Data:
        Version: 3 (0x2)
        Serial Number: 101 (0x65)
        Signature Algorithm: sha256WithRSAEncryption
        Issuer: C=US, ST=Washington, L=Seattle, O=wolfSSL Inc., OU=Engineering, CN=chainA-ICA1-pathlen0, emailAddress=info@wolfssl.com
        Validity
            Not Before: Nov 13 20:41:40 2025 GMT
            Not After : Aug  9 20:41:40 2028 GMT
        Subject: C=US, ST=Washington, L=Seattle, O=wolfSSL Inc., OU=Engineering, CN=chainA-entity, emailAddress=info@wolfssl.com
        Subject Public Key Info:
            Public Key Algorithm: rsaEncryption
                Public-Key: (2048 bit)
                Modulus:
                    00:d0:7a:d8:c8:6c:4f:a5:cd:72:25:87:ff:12:a3:
                    65:0e:1d:1f:78:b2:d7:1a:65:a1:e7:4e:bd:05:b5:
                    05:3e:39:3e:85:ad:90:c7:5b:a5:81:42:b5:01:00:
                    57:87:29:a3:45:ce:f4:02:fa:80:8f:3b:8e:99:40:
                    2c:fc:c8:b0:8b:2b:19:c3:20:c6:af:db:a0:d9:d5:
                    70:32:6d:66:c3:ca:c4:ea:63:fb:08:0e:35:bc:50:
                    7f:85:c7:62:f4:e2:85:e4:89:59:52:71:f2:e3:d1:
                    63:3e:1d:08:6d:ff:86:cb:e5:eb:bc:1f:de:13:f0:
                    b2:f8:92:ee:23:9d:64:e7:b0:49:6f:26:a2:64:bc:
                    9c:18:8a:f3:c6:db:83:a4:6c:b0:56:23:16:40:57:
                    b0:95:5e:1b:3d:c5:3f:10:7a:84:e0:3e:bb:78:e8:
                    7d:c1:63:f3:fe:ee:af:16:db:ce:28:02:21:df:8b:
                    ca:f3:c3:1e:d1:47:c0:59:5f:1c:48:ec:50:6a:e3:
                    cc:fb:b6:16:45:40:c8:50:cf:dc:3e:2d:2d:cb:cd:
                    19:2a:17:74:41:7f:bc:26:4d:cd:97:b2:2b:67:57:
                    8e:6e:75:b5:d8:ec:6b:69:ab:09:3d:95:85:2c:0f:
                    d7:8d:29:75:1f:9b:88:56:bc:e8:11:a3:c8:65:e5:
                    2b:23
                Exponent: 65537 (0x10001)
        X509v3 extensions:
            X509v3 Subject Key Identifier: 
                D6:56:A1:9C:F1:66:E4:05:17:36:32:74:BA:72:97:50:13:58:B3:3D
            X509v3 Authority Key Identifier: 
                keyid:A8:10:EA:C8:EF:4F:00:CD:E3:79:C3:EB:DF:F6:C8:86:9D:44:6C:26
                DirName:/C=US/ST=Montana/L=Bozeman/O=Sawtooth/OU=Consulting/CN=www.wolfssl.com/emailAddress=info@wolfssl.com
                serial:64
            X509v3 Basic Constraints: 
                CA:FALSE
    Signature Algorithm: sha256WithRSAEncryption
    Signature Value:
        41:4f:01:b0:35:1c:dd:7e:8d:0b:df:23:2f:91:a6:2a:e1:fc:
        0b:b3:89:8c:b0:fc:77:b4:18:02:75:0d:92:88:a7:e7:31:e9:
        00:07:84:36:17:ec:c9:b3:a4:46:da:a3:f2:62:ef:a7:4d:54:
        53:d1:0b:62:53:df:0b:9e:55:dc:54:cb:69:01:aa:19:0b:cb:
        fa:8f:fd:f3:c0:7c:8c:35:9b:48:17:39:84:53:d2:9b:83:74:
        7c:e5:83:59:6a:e6:a0:99:80:6d:1a:ad:e4:ff:de:a5:69:fb:
        d8:0c:f4:60:01:1f:89:b9:f6:6d:6f:5f:82:06:3c:bc:d6:4b:
        59:98:7c:50:fb:64:2b:6f:37:be:27:2a:d5:35:d1:d8:c8:f2:
        2e:fc:f7:c0:14:fd:f5:ef:44:e3:41:83:12:0c:65:ed:08:c5:
        c2:1a:9e:39:d8:bd:b2:55:ed:34:42:9f:ae:96:49:fe:f0:70:
        de:f8:00:4c:bd:d2:57:5c:af:ed:cd:f7:c8:32:93:07:7d:b9:
        5d:43:1a:ef:e5:48:0c:ef:6b:37:63:2a:8c:2a:e2:6e:4b:66:
        9e:7e:4f:ad:02:c8:69:67:aa:1a:88:4b:bf:6d:6b:90:5a:dd:
        25:8e:0e:0d:a7:04:9e:be:53:f3:1d:4a:87:cc:03:c2:36:2d:
        2d:72:13:79
-----BEGIN CERTIFICATE-----
MIIEqjCCA5KgAwIBAgIBZTANBgkqhkiG9w0BAQsFADCBoTELMAkGA1UEBhMCVVMx
EzARBgNVBAgMCldhc2hpbmd0b24xEDAOBgNVBAcMB1NlYXR0bGUxFTATBgNVBAoM
DHdvbGZTU0wgSW5jLjEUMBIGA1UECwwLRW5naW5lZXJpbmcxHTAbBgNVBAMMFGNo
YWluQS1JQ0ExLXBhdGhsZW4wMR8wHQYJKoZIhvcNAQkBFhBpbmZvQHdvbGZzc2wu
Y29tMB4XDTI1MTExMzIwNDE0MFoXDTI4MDgwOTIwNDE0MFowgZoxCzAJBgNVBAYT
AlVTMRMwEQYDVQQIDApXYXNoaW5ndG9uMRAwDgYDVQQHDAdTZWF0dGxlMRUwEwYD
VQQKDAx3b2xmU1NMIEluYy4xFDASBgNVBAsMC0VuZ2luZWVyaW5nMRYwFAYDVQQD
DA1jaGFpbkEtZW50aXR5MR8wHQYJKoZIhvcNAQkBFhBpbmZvQHdvbGZzc2wuY29t
MIIBIjANBgkqhkiG9w0BAQEFAAOCAQ8AMIIBCgKCAQEA0HrYyGxPpc1yJYf/EqNl
Dh0feLLXGmWh5069BbUFPjk+ha2Qx1ulgUK1AQBXhymjRc70AvqAjzuOmUAs/Miw
iysZwyDGr9ug2dVwMm1mw8rE6mP7CA41vFB/hcdi9OKF5IlZUnHy49FjPh0Ibf+G
y+XrvB/eE/Cy+JLuI51k57BJbyaiZLycGIrzxtuDpGywViMWQFewlV4bPcU/EHqE
4D67eOh9wWPz/u6vFtvOKAIh34vK88Me0UfAWV8cSOxQauPM+7YWRUDIUM/cPi0t
y80ZKhd0QX+8Jk3Nl7IrZ1eObnW12OxraasJPZWFLA/XjSl1H5uIVrzoEaPIZeUr
IwIDAQABo4HxMIHuMB0GA1UdDgQWBBTWVqGc8WbkBRc2MnS6cpdQE1izPTCBwQYD
VR0jBIG5MIG2gBSoEOrI708AzeN5w+vf9siGnURsJqGBmqSBlzCBlDELMAkGA1UE
BhMCVVMxEDAOBgNVBAgMB01vbnRhbmExEDAOBgNVBAcMB0JvemVtYW4xETAPBgNV
BAoMCFNhd3Rvb3RoMRMwEQYDVQQLDApDb25zdWx0aW5nMRgwFgYDVQQDDA93d3cu
d29sZnNzbC5jb20xHzAdBgkqhkiG9w0BCQEWEGluZm9Ad29sZnNzbC5jb22CAWQw
CQYDVR0TBAIwADANBgkqhkiG9w0BAQsFAAOCAQEAQU8BsDUc3X6NC98jL5GmKuH8
C7OJjLD8d7QYAnUNkoin5zHpAAeENhfsybOkRtqj8mLvp01UU9ELYlPfC55V3FTL
aQGqGQvL+o/988B8jDWbSBc5hFPSm4N0fOWDWWrmoJmAbRqt5P/epWn72Az0YAEf
ibn2bW9fggY8vNZLWZh8UPtkK283vicq1TXR2MjyLvz3wBT99e9E40GDEgxl7QjF
whqeOdi9slXtNEKfrpZJ/vBw3vgATL3SV1yv7c33yDKTB325XUMa7+VIDO9rN2Mq
jCribktmnn5PrQLIaWeqGohLv21rkFrdJY4ODacEnr5T8x1Kh8wDwjYtLXITeQ==
-----END CERTIFICATE-----
Certificate:
    Data:
        Version: 3 (0x2)
        Serial Number: 100 (0x64)
        Signature Algorithm: sha256WithRSAEncryption
        Issuer: C=US, ST=Montana, L=Bozeman, O=Sawtooth, OU=Consulting, CN=www.wolfssl.com, emailAddress=info@wolfssl.com
        Validity
            Not Before: Nov 13 20:41:40 2025 GMT
            Not After : Aug  9 20:41:40 2028 GMT
        Subject: C=US, ST=Washington, L=Seattle, O=wolfSSL Inc., OU=Engineering, CN=chainA-ICA1-pathlen0, emailAddress=info@wolfssl.com
        Subject Public Key Info:
            Public Key Algorithm: rsaEncryption
                Public-Key: (2048 bit)
                Modulus:
                    00:b2:2b:a1:3f:be:c0:58:bd:3a:bc:0d:19:ac:ca:
                    7f:b9:3b:f0:8c:30:ff:04:b1:34:7e:26:86:96:36:
                    6b:53:2e:44:1d:a1:f4:bc:51:79:55:05:ca:bb:a0:
                    a7:9d:33:01:93:96:14:67:ec:f4:c3:2e:66:27:d1:
                    41:68:34:ac:8d:64:63:d8:55:86:9d:62:24:99:ed:
                    b7:ff:cb:4d:9d:40:54:d5:e3:aa:45:a6:a6:db:fe:
                    73:42:94:42:c1:d0:32:5c:c4:21:ae:9c:93:00:b7:
                    4a:1f:9e:95:a6:28:6d:4b:d8:c0:65:e7:ed:a3:6d:
                    ca:18:b3:fa:df:c9:67:1a:75:23:60:83:a5:03:5f:
                    61:bd:e5:d6:8d:9d:05:47:23:7e:a0:8d:d1:7f:42:
                    4e:38:ac:ce:70:bc:bf:7b:05:5b:0f:82:02:b0:9a:
                    8d:c0:14:ca:d0:45:5e:97:10:d1:a1:e1:23:da:dc:
                    69:9c:ce:53:cc:68:89:c6:40:4d:69:bc:ab:4f:c7:
                    11:5e:62:a2:df:e2:a5:34:7c:39:36:27:67:34:11:
                    04:2c:2a:b3:16:db:8e:fd:d7:7b:1d:93:5f:33:c2:
                    ca:96:22:2a:43:82:8a:48:46:07:13:ff:6c:1c:b0:
                    ba:0b:f0:cd:3f:4c:dc:34:17:8f:22:70:69:9d:22:
                    d7:c7
                Exponent: 65537 (0x10001)
        X509v3 extensions:
            X509v3 Subject Key Identifier: 
                A8:10:EA:C8:EF:4F:00:CD:E3:79:C3:EB:DF:F6:C8:86:9D:44:6C:26
            X509v3 Authority Key Identifier: 
                keyid:27:8E:67:11:74:C3:26:1D:3F:ED:33:63:B3:A4:D8:1D:30:E5:E8:D5
                DirName:/C=US/ST=Montana/L=Bozeman/O=Sawtooth/OU=Consulting/CN=www.wolfssl.com/emailAddress=info@wolfssl.com
                serial:3F:29:11:20:57:71:E7:8E:F9:18:0D:CA:70:4D:5B:15:2A:43:D6:24
            X509v3 Basic Constraints: 
                CA:TRUE, pathlen:0
            X509v3 Key Usage: 
                Certificate Sign, CRL Sign
    Signature Algorithm: sha256WithRSAEncryption
    Signature Value:
        81:e5:21:90:5c:b0:fc:98:92:7f:62:0b:ea:bb:a5:78:a7:e5:
        f2:fd:99:db:8b:32:92:29:e0:d8:36:c7:04:8d:09:55:20:9b:
        af:28:c4:20:51:4e:a0:40:d5:3b:1b:36:21:07:bd:cb:18:de:
        c1:cd:cf:80:a9:b2:4c:66:cd:0c:25:73:46:9c:3e:f8:be:89:
        c9:5c:c9:bc:33:11:6f:7f:4a:7e:b4:8f:4d:d7:8d:c7:e4:a9:
        9d:d9:e3:78:05:a8:6b:74:fd:ba:6c:3a:6f:dd:68:e1:89:55:
        d7:3a:97:b6:17:58:5e:8c:f4:1f:f0:ce:58:32:51:0c:f6:da:
        f8:77:37:27:40:47:ed:2d:4c:be:ff:79:d3:5f:b9:c2:c3:17:
        72:2a:02:09:d4:9e:46:19:77:14:b7:13:4d:d8:b1:78:ce:c9:
        96:e1:2b:7a:dd:cb:c5:f2:04:66:07:b9:4e:1f:2d:97:bf:2f:
        dd:94:89:57:08:63:83:b2:91:b6:49:23:11:50:79:bd:9c:6b:
        a0:64:91:e7:2d:a5:59:4b:a3:16:c0:9d:fd:c7:73:0e:1e:bd:
        45:ad:97:d0:43:6e:cf:71:c1:1a:52:1a:ea:a8:42:35:c3:89:
        6b:99:98:69:09:38:34:a6:31:cc:f6:00:9e:c4:be:64:0a:f9:
        54:76:fa:52
-----BEGIN CERTIFICATE-----
MIIEzDCCA7SgAwIBAgIBZDANBgkqhkiG9w0BAQsFADCBlDELMAkGA1UEBhMCVVMx
EDAOBgNVBAgMB01vbnRhbmExEDAOBgNVBAcMB0JvemVtYW4xETAPBgNVBAoMCFNh
d3Rvb3RoMRMwEQYDVQQLDApDb25zdWx0aW5nMRgwFgYDVQQDDA93d3cud29sZnNz
bC5jb20xHzAdBgkqhkiG9w0BCQEWEGluZm9Ad29sZnNzbC5jb20wHhcNMjUxMTEz
MjA0MTQwWhcNMjgwODA5MjA0MTQwWjCBoTELMAkGA1UEBhMCVVMxEzARBgNVBAgM
Cldhc2hpbmd0b24xEDAOBgNVBAcMB1NlYXR0bGUxFTATBgNVBAoMDHdvbGZTU0wg
SW5jLjEUMBIGA1UECwwLRW5naW5lZXJpbmcxHTAbBgNVBAMMFGNoYWluQS1JQ0Ex
LXBhdGhsZW4wMR8wHQYJKoZIhvcNAQkBFhBpbmZvQHdvbGZzc2wuY29tMIIBIjAN
BgkqhkiG9w0BAQEFAAOCAQ8AMIIBCgKCAQEAsiuhP77AWL06vA0ZrMp/uTvwjDD/
BLE0fiaGljZrUy5EHaH0vFF5VQXKu6CnnTMBk5YUZ+z0wy5mJ9FBaDSsjWRj2FWG
nWIkme23/8tNnUBU1eOqRaam2/5zQpRCwdAyXMQhrpyTALdKH56VpihtS9jAZeft
o23KGLP638lnGnUjYIOlA19hveXWjZ0FRyN+oI3Rf0JOOKzOcLy/ewVbD4ICsJqN
wBTK0EVelxDRoeEj2txpnM5TzGiJxkBNabyrT8cRXmKi3+KlNHw5NidnNBEELCqz
FtuO/dd7HZNfM8LKliIqQ4KKSEYHE/9sHLC6C/DNP0zcNBePInBpnSLXxwIDAQAB
o4IBGDCCARQwHQYDVR0OBBYEFKgQ6sjvTwDN43nD69/2yIadRGwmMIHUBgNVHSME
gcwwgcmAFCeOZxF0wyYdP+0zY7Ok2B0w5ejVoYGapIGXMIGUMQswCQYDVQQGEwJV
UzEQMA4GA1UECAwHTW9udGFuYTEQMA4GA1UEBwwHQm96ZW1hbjERMA8GA1UECgwI
U2F3dG9vdGgxEzARBgNVBAsMCkNvbnN1bHRpbmcxGDAWBgNVBAMMD3d3dy53b2xm
c3NsLmNvbTEfMB0GCSqGSIb3DQEJARYQaW5mb0B3b2xmc3NsLmNvbYIUPykRIFdx
5475GA3KcE1bFSpD1iQwDwYDVR0TBAgwBgEB/wIBADALBgNVHQ8EBAMCAQYwDQYJ
KoZIhvcNAQELBQADggEBAIHlIZBcsPyYkn9iC+q7pXin5fL9mduLMpIp4Ng2xwSN
CVUgm68oxCBRTqBA1TsbNiEHvcsY3sHNz4CpskxmzQwlc0acPvi+iclcybwzEW9/
Sn60j03XjcfkqZ3Z43gFqGt0/bpsOm/daOGJVdc6l7YXWF6M9B/wzlgyUQz22vh3
NydAR+0tTL7/edNfucLDF3IqAgnUnkYZdxS3E03YsXjOyZbhK3rdy8XyBGYHuU4f
LZe/L92UiVcIY4OykbZJIxFQeb2ca6BkkectpVlLoxbAnf3Hcw4evUWtl9BDbs9x
wRpSGuqoQjXDiWuZmGkJODSmMcz2AJ7EvmQK+VR2+lI=
-----END CERTIFICATE-----
