Certificate:
    Data:
        Version: 3 (0x2)
        Serial Number: 100 (0x64)
        Signature Algorithm: sha256WithRSAEncryption
        Issuer: C = US, ST = Montana, L = Bozeman, O = Sawtooth, OU = Consulting, CN = www.wolfssl.com, emailAddress = info@wolfssl.com
        Validity
            Not Before: Feb 15 12:50:26 2022 GMT
            Not After : Nov 11 12:50:26 2024 GMT
        Subject: C = US, ST = Washington, L = Seattle, O = wolfSSL Inc., OU = Engineering, CN = chainC-ICA1-pathlen1, emailAddress = info@wolfssl.com
        Subject Public Key Info:
            Public Key Algorithm: rsaEncryption
                RSA Public-Key: (2048 bit)
                Modulus:
                    00:bb:1a:6c:c1:bd:bb:9b:29:ca:35:3d:63:a3:29:
                    cd:a6:65:c4:9e:a3:c5:50:99:ad:51:90:0a:9a:9b:
                    83:ce:be:06:bb:66:4f:ef:1e:31:25:34:6f:5f:98:
                    ae:01:49:c3:63:17:84:b9:7a:6d:c0:d8:fd:0c:ff:
                    9a:02:4c:41:37:49:f0:18:63:1b:4f:fc:37:26:4e:
                    54:79:d7:17:39:50:79:6e:a3:29:99:07:ad:9d:5c:
                    d8:e1:02:e7:33:7e:e4:da:a4:05:bc:62:03:d3:9f:
                    6a:91:92:66:dd:29:d0:95:fb:2f:3f:f0:59:b8:70:
                    5b:25:54:7b:a0:0a:9f:33:09:64:ed:fb:d4:1c:2d:
                    96:54:45:e3:50:98:ff:b1:7f:9a:c6:cf:09:a3:da:
                    e9:57:ad:1d:05:8f:1e:75:75:e7:d2:07:33:de:da:
                    7d:42:d8:0e:94:fe:ae:c7:9b:c3:b5:9e:f3:6b:21:
                    9f:74:c4:b3:32:7c:28:4e:0f:bc:15:33:ba:9c:09:
                    3c:c1:40:06:78:bb:b1:20:3f:61:15:f6:1e:49:73:
                    51:89:95:2d:95:bf:34:d6:c2:a9:d1:34:1d:8d:21:
                    6d:4f:a3:6e:ef:fc:23:a2:76:fc:d0:25:53:0e:43:
                    76:3b:ed:82:ec:d8:23:cb:33:ef:3c:9d:a1:de:e6:
                    7a:ad
                Exponent: 65537 (0x10001)
        X509v3 extensions:
            X509v3 Subject Key Identifier: 
                94:1D:2E:07:37:C6:2F:52:C1:EC:79:6B:13:CE:09:90:5F:F4:C4:51
            X509v3 Authority Key Identifier: 
                keyid:27:8E:67:11:74:C3:26:1D:3F:ED:33:63:B3:A4:D8:1D:30:E5:E8:D5
                DirName:/C=US/ST=Montana/L=Bozeman/O=Sawtooth/OU=Consulting/CN=www.wolfssl.com/emailAddress=info@wolfssl.com
                serial:26:8C:93:F9:F9:F4:1E:B3:01:72:94:55:67:6D:E2:F8:3D:DA:E9:F4

            X509v3 Basic Constraints: 
                CA:TRUE, pathlen:1
            X509v3 Key Usage: 
                Certificate Sign, CRL Sign
    Signature Algorithm: sha256WithRSAEncryption
         24:5c:35:1d:ef:fc:b8:9e:18:5b:be:9b:b4:00:9b:2b:47:d6:
         c4:77:fb:80:7e:5a:64:f5:6f:8b:01:a3:1b:da:d8:2a:6c:91:
         bd:00:28:e3:6e:12:04:b4:19:64:5c:e2:ff:1c:30:b1:01:1e:
         10:c9:30:a3:e3:fa:c4:2a:2f:40:15:8a:1a:f7:f8:a8:67:e7:
         69:d1:3c:c5:77:38:e2:14:0a:7d:59:ed:ad:c7:75:e9:d8:5f:
         62:a4:7a:7e:d3:f1:44:e4:37:62:f8:00:a0:fb:63:6e:23:c8:
         08:ea:8e:61:35:51:fe:6f:ad:22:3a:6f:84:91:c6:f5:9e:50:
         b1:d4:3a:ae:25:e5:45:82:34:2c:f0:72:d0:b3:54:72:90:e8:
         ea:1c:92:62:79:dd:b9:6a:7d:4c:0e:b9:8d:7d:83:cd:07:a8:
         00:26:60:9a:38:f0:49:67:63:7d:2c:85:99:94:4e:04:16:64:
         0a:82:43:03:ae:9e:4c:c2:2b:75:66:d6:2d:f7:9c:48:fd:34:
         71:c9:8e:68:53:bb:bc:72:7c:84:10:bc:6a:21:f3:72:8e:26:
         83:35:47:91:63:f9:99:a9:28:df:33:63:77:94:33:6f:7f:44:
         3d:94:23:56:6a:7a:2b:8f:85:8c:52:8f:87:1c:bd:31:5a:25:
         4f:38:d6:30
-----BEGIN CERTIFICATE-----
MIIEzDCCA7SgAwIBAgIBZDANBgkqhkiG9w0BAQsFADCBlDELMAkGA1UEBhMCVVMx
EDAOBgNVBAgMB01vbnRhbmExEDAOBgNVBAcMB0JvemVtYW4xETAPBgNVBAoMCFNh
d3Rvb3RoMRMwEQYDVQQLDApDb25zdWx0aW5nMRgwFgYDVQQDDA93d3cud29sZnNz
bC5jb20xHzAdBgkqhkiG9w0BCQEWEGluZm9Ad29sZnNzbC5jb20wHhcNMjIwMjE1
MTI1MDI2WhcNMjQxMTExMTI1MDI2WjCBoTELMAkGA1UEBhMCVVMxEzARBgNVBAgM
Cldhc2hpbmd0b24xEDAOBgNVBAcMB1NlYXR0bGUxFTATBgNVBAoMDHdvbGZTU0wg
SW5jLjEUMBIGA1UECwwLRW5naW5lZXJpbmcxHTAbBgNVBAMMFGNoYWluQy1JQ0Ex
LXBhdGhsZW4xMR8wHQYJKoZIhvcNAQkBFhBpbmZvQHdvbGZzc2wuY29tMIIBIjAN
BgkqhkiG9w0BAQEFAAOCAQ8AMIIBCgKCAQEAuxpswb27mynKNT1joynNpmXEnqPF
UJmtUZAKmpuDzr4Gu2ZP7x4xJTRvX5iuAUnDYxeEuXptwNj9DP+aAkxBN0nwGGMb
T/w3Jk5UedcXOVB5bqMpmQetnVzY4QLnM37k2qQFvGID059qkZJm3SnQlfsvP/BZ
uHBbJVR7oAqfMwlk7fvUHC2WVEXjUJj/sX+axs8Jo9rpV60dBY8edXXn0gcz3tp9
QtgOlP6ux5vDtZ7zayGfdMSzMnwoTg+8FTO6nAk8wUAGeLuxID9hFfYeSXNRiZUt
lb801sKp0TQdjSFtT6Nu7/wjonb80CVTDkN2O+2C7NgjyzPvPJ2h3uZ6rQIDAQAB
o4IBGDCCARQwHQYDVR0OBBYEFJQdLgc3xi9Swex5axPOCZBf9MRRMIHUBgNVHSME
gcwwgcmAFCeOZxF0wyYdP+0zY7Ok2B0w5ejVoYGapIGXMIGUMQswCQYDVQQGEwJV
UzEQMA4GA1UECAwHTW9udGFuYTEQMA4GA1UEBwwHQm96ZW1hbjERMA8GA1UECgwI
U2F3dG9vdGgxEzARBgNVBAsMCkNvbnN1bHRpbmcxGDAWBgNVBAMMD3d3dy53b2xm
c3NsLmNvbTEfMB0GCSqGSIb3DQEJARYQaW5mb0B3b2xmc3NsLmNvbYIUJoyT+fn0
HrMBcpRVZ23i+D3a6fQwDwYDVR0TBAgwBgEB/wIBATALBgNVHQ8EBAMCAQYwDQYJ
KoZIhvcNAQELBQADggEBACRcNR3v/LieGFu+m7QAmytH1sR3+4B+WmT1b4sBoxva
2Cpskb0AKONuEgS0GWRc4v8cMLEBHhDJMKPj+sQqL0AVihr3+Khn52nRPMV3OOIU
Cn1Z7a3HdenYX2Kken7T8UTkN2L4AKD7Y24jyAjqjmE1Uf5vrSI6b4SRxvWeULHU
Oq4l5UWCNCzwctCzVHKQ6OockmJ53blqfUwOuY19g80HqAAmYJo48ElnY30shZmU
TgQWZAqCQwOunkzCK3Vm1i33nEj9NHHJjmhTu7xyfIQQvGoh83KOJoM1R5Fj+Zmp
KN8zY3eUM29/RD2UI1ZqeiuPhYxSj4ccvTFaJU841jA=
-----END CERTIFICATE-----
