Certificate:
    Data:
        Version: 3 (0x2)
        Serial Number: 101 (0x65)
        Signature Algorithm: sha256WithRSAEncryption
        Issuer: C=US, ST=Washington, L=Seattle, O=wolfSSL Inc., OU=Engineering, CN=chainF-ICA1-pathlen1, emailAddress=facts@wolfssl.com
        Validity
            Not Before: Jun 11 21:44:39 2026 GMT
            Not After : Mar  7 21:44:39 2029 GMT
        Subject: C=US, ST=Washington, L=Seattle, O=wolfSSL Inc., OU=Engineering, CN=chainF-entity, emailAddress=facts@wolfssl.com
        Subject Public Key Info:
            Public Key Algorithm: rsaEncryption
                Public-Key: (2048 bit)
                Modulus:
                    00:c9:f8:2c:ad:25:a9:65:3b:72:13:5d:aa:7f:5b:
                    71:f5:e0:43:c4:3a:b3:36:0d:34:61:35:86:77:a0:
                    2a:81:de:2c:7c:7d:01:fb:f4:c3:00:b0:17:b9:49:
                    93:1d:c2:1b:6f:40:ee:86:e0:a7:f3:5e:ad:23:43:
                    99:5f:34:38:c8:58:02:9b:cc:9e:59:da:81:5b:b1:
                    40:74:ca:c1:b8:67:14:ba:3f:71:16:d9:ba:a9:cd:
                    f1:96:1b:52:e2:d2:07:6d:6a:d6:cf:e7:a8:c8:e0:
                    4f:eb:35:64:bc:aa:1a:17:af:98:de:d0:9b:08:73:
                    72:d8:fe:e2:e5:4e:7e:97:37:37:58:9e:5c:65:91:
                    b9:5d:38:da:ba:db:00:c0:f6:4a:6f:9c:86:23:ad:
                    b0:c4:ff:b7:dd:d6:9a:b0:de:8d:15:87:e2:4b:04:
                    85:6d:5d:cc:5f:65:6f:e1:ae:22:44:80:18:ba:c2:
                    95:a4:a3:28:c5:3f:7b:4c:85:6c:0f:11:14:56:d2:
                    d5:a7:f7:03:e9:f7:ce:ef:d9:18:02:f0:f2:6e:81:
                    ef:ac:50:87:0e:b0:46:9f:ae:c0:77:8f:03:28:8a:
                    9d:6e:87:50:8f:37:46:b3:29:57:a4:c2:ef:25:cd:
                    23:1a:ef:1a:03:c9:59:69:cd:45:5f:39:3f:76:d4:
                    79:53
                Exponent: 65537 (0x10001)
        X509v3 extensions:
            X509v3 Subject Key Identifier: 
                E9:27:36:DA:64:81:70:89:C9:C1:F9:E3:92:7A:67:11:07:01:4A:49
            X509v3 Authority Key Identifier: 
                keyid:75:32:21:05:2B:60:FE:44:17:AF:18:65:86:85:19:82:3F:F9:64:83
                DirName:/C=US/ST=Washington/L=Seattle/O=wolfSSL Inc./OU=Engineering/CN=chainF-ICA2-pathlen0/emailAddress=facts@wolfssl.com
                serial:64
            X509v3 Basic Constraints: 
                CA:FALSE
    Signature Algorithm: sha256WithRSAEncryption
    Signature Value:
        5a:9f:f3:02:b5:e0:d0:09:01:3f:c6:92:b2:27:69:5b:e2:f7:
        7e:96:08:c6:42:42:2c:b1:ba:a5:5c:4e:fa:f7:35:2b:f2:eb:
        38:ea:92:e2:67:e0:5d:71:22:61:f2:3c:cb:7d:71:f6:94:5b:
        80:42:5c:4f:a4:0c:5f:0a:94:61:b1:37:4e:3f:de:d0:c6:c4:
        a2:b8:31:59:b4:c2:8e:d9:43:e1:df:8b:61:75:bb:06:1e:99:
        24:ca:08:6f:c7:94:13:f7:17:d7:5f:6e:0e:60:65:c6:c2:6c:
        3a:26:c3:e5:78:de:f8:53:18:b5:9a:f0:de:fa:d9:eb:39:49:
        19:55:cc:03:0e:61:d0:32:17:8a:99:22:f7:d8:d3:c4:55:96:
        a1:de:fd:57:3e:ab:3f:05:3c:8b:be:8d:7d:b2:8f:12:b7:58:
        a4:c0:87:90:c9:4f:9e:97:93:e8:e7:fa:50:0c:97:86:7e:0c:
        27:c6:c6:3b:d4:53:0c:2e:77:34:a4:88:ff:ec:a1:c6:44:cc:
        63:9a:18:f4:1a:b3:8b:68:ab:d2:d8:31:28:77:3b:f2:02:31:
        14:cd:75:1d:6e:36:cd:ca:46:8d:98:32:15:b1:e4:09:c0:8f:
        d1:88:33:15:de:3a:d5:9d:25:43:fb:bf:80:04:e6:c2:81:19:
        11:9f:04:8f
-----BEGIN CERTIFICATE-----
MIIEujCCA6KgAwIBAgIBZTANBgkqhkiG9w0BAQsFADCBojELMAkGA1UEBhMCVVMx
EzARBgNVBAgMCldhc2hpbmd0b24xEDAOBgNVBAcMB1NlYXR0bGUxFTATBgNVBAoM
DHdvbGZTU0wgSW5jLjEUMBIGA1UECwwLRW5naW5lZXJpbmcxHTAbBgNVBAMMFGNo
YWluRi1JQ0ExLXBhdGhsZW4xMSAwHgYJKoZIhvcNAQkBFhFmYWN0c0B3b2xmc3Ns
LmNvbTAeFw0yNjA2MTEyMTQ0MzlaFw0yOTAzMDcyMTQ0MzlaMIGbMQswCQYDVQQG
EwJVUzETMBEGA1UECAwKV2FzaGluZ3RvbjEQMA4GA1UEBwwHU2VhdHRsZTEVMBMG
A1UECgwMd29sZlNTTCBJbmMuMRQwEgYDVQQLDAtFbmdpbmVlcmluZzEWMBQGA1UE
AwwNY2hhaW5GLWVudGl0eTEgMB4GCSqGSIb3DQEJARYRZmFjdHNAd29sZnNzbC5j
b20wggEiMA0GCSqGSIb3DQEBAQUAA4IBDwAwggEKAoIBAQDJ+CytJallO3ITXap/
W3H14EPEOrM2DTRhNYZ3oCqB3ix8fQH79MMAsBe5SZMdwhtvQO6G4KfzXq0jQ5lf
NDjIWAKbzJ5Z2oFbsUB0ysG4ZxS6P3EW2bqpzfGWG1Li0gdtatbP56jI4E/rNWS8
qhoXr5je0JsIc3LY/uLlTn6XNzdYnlxlkbldONq62wDA9kpvnIYjrbDE/7fd1pqw
3o0Vh+JLBIVtXcxfZW/hriJEgBi6wpWkoyjFP3tMhWwPERRW0tWn9wPp987v2RgC
8PJuge+sUIcOsEafrsB3jwMoip1uh1CPN0azKVekwu8lzSMa7xoDyVlpzUVfOT92
1HlTAgMBAAGjgf8wgfwwHQYDVR0OBBYEFOknNtpkgXCJycH545J6ZxEHAUpJMIHP
BgNVHSMEgccwgcSAFHUyIQUrYP5EF68YZYaFGYI/+WSDoYGopIGlMIGiMQswCQYD
VQQGEwJVUzETMBEGA1UECAwKV2FzaGluZ3RvbjEQMA4GA1UEBwwHU2VhdHRsZTEV
MBMGA1UECgwMd29sZlNTTCBJbmMuMRQwEgYDVQQLDAtFbmdpbmVlcmluZzEdMBsG
A1UEAwwUY2hhaW5GLUlDQTItcGF0aGxlbjAxIDAeBgkqhkiG9w0BCQEWEWZhY3Rz
QHdvbGZzc2wuY29tggFkMAkGA1UdEwQCMAAwDQYJKoZIhvcNAQELBQADggEBAFqf
8wK14NAJAT/GkrInaVvi936WCMZCQiyxuqVcTvr3NSvy6zjqkuJn4F1xImHyPMt9
cfaUW4BCXE+kDF8KlGGxN04/3tDGxKK4MVm0wo7ZQ+Hfi2F1uwYemSTKCG/HlBP3
F9dfbg5gZcbCbDomw+V43vhTGLWa8N762es5SRlVzAMOYdAyF4qZIvfY08RVlqHe
/Vc+qz8FPIu+jX2yjxK3WKTAh5DJT56Xk+jn+lAMl4Z+DCfGxjvUUwwudzSkiP/s
ocZEzGOaGPQas4toq9LYMSh3O/ICMRTNdR1uNs3KRo2YMhWx5AnAj9GIMxXeOtWd
JUP7v4AE5sKBGRGfBI8=
-----END CERTIFICATE-----
Certificate:
    Data:
        Version: 3 (0x2)
        Serial Number: 100 (0x64)
        Signature Algorithm: sha256WithRSAEncryption
        Issuer: C=US, ST=Washington, L=Seattle, O=wolfSSL Inc., OU=Engineering, CN=chainF-ICA2-pathlen0, emailAddress=facts@wolfssl.com
        Validity
            Not Before: Jun 11 21:44:39 2026 GMT
            Not After : Mar  7 21:44:39 2029 GMT
        Subject: C=US, ST=Washington, L=Seattle, O=wolfSSL Inc., OU=Engineering, CN=chainF-ICA1-pathlen1, emailAddress=facts@wolfssl.com
        Subject Public Key Info:
            Public Key Algorithm: rsaEncryption
                Public-Key: (2048 bit)
                Modulus:
                    00:e0:13:c9:b0:8e:9d:3f:88:d4:30:4a:b4:e8:11:
                    21:93:5c:20:45:08:f8:7a:91:b9:2c:ad:ff:60:aa:
                    16:9f:1c:bb:88:b8:3d:0a:39:c1:89:a9:76:ca:8e:
                    6c:72:72:7e:6e:74:a6:36:2c:69:df:33:d6:e9:66:
                    70:65:7f:ba:2a:44:17:62:9f:33:46:12:e6:03:a5:
                    a6:e2:5c:09:07:cf:bc:8d:76:fe:a0:fd:d7:72:4a:
                    94:c8:ca:2f:95:91:9c:0a:77:7f:82:23:be:72:27:
                    29:45:cd:41:cf:ec:e1:84:cf:67:d0:18:98:b9:31:
                    be:c9:fe:98:5d:3f:aa:d2:83:76:45:85:ab:08:86:
                    63:58:5b:b3:e5:4a:43:3d:a1:99:e2:80:d1:2b:b2:
                    06:e3:f0:10:85:f9:a6:36:b8:52:2b:9d:73:3b:34:
                    23:51:3d:fe:56:2f:e9:39:b2:68:07:3e:6f:52:7b:
                    f4:40:d4:72:fa:69:19:ca:ff:22:c8:45:95:05:5e:
                    91:08:3f:27:2d:41:d1:74:a5:06:9c:f3:40:bd:bb:
                    fc:65:63:86:ed:80:22:50:c1:f6:4f:dc:8f:43:4c:
                    5e:fb:bf:d9:6d:1f:b4:84:0f:1e:e8:c6:5d:c5:53:
                    d5:2c:c9:7f:6b:98:93:a7:5d:35:9a:17:62:91:2e:
                    20:c1
                Exponent: 65537 (0x10001)
        X509v3 extensions:
            X509v3 Subject Key Identifier: 
                75:32:21:05:2B:60:FE:44:17:AF:18:65:86:85:19:82:3F:F9:64:83
            X509v3 Authority Key Identifier: 
                keyid:4A:53:4A:B7:30:78:35:91:B4:CB:DD:C8:22:74:89:AF:80:0F:7F:68
                DirName:/C=US/ST=Montana/L=Bozeman/O=Sawtooth/OU=Consulting/CN=www.wolfssl.com/emailAddress=facts@wolfssl.com
                serial:64
            X509v3 Basic Constraints: 
                CA:TRUE, pathlen:1
            X509v3 Key Usage: 
                Certificate Sign, CRL Sign
    Signature Algorithm: sha256WithRSAEncryption
    Signature Value:
        7d:16:c2:14:45:2b:6b:7a:98:0e:b9:f0:bb:3e:88:d3:21:a7:
        bf:fc:3b:a5:0e:02:54:0a:07:d0:fe:93:01:b9:6c:4e:2f:1a:
        01:6f:b6:0c:72:7e:a4:70:ae:39:5b:e9:84:92:09:12:98:82:
        b0:a9:e9:30:2e:4e:34:36:45:73:9f:4a:ed:c7:4f:5b:c2:27:
        53:88:cf:da:88:e1:fe:40:85:d8:2d:fa:d1:1f:9a:0c:46:7a:
        d4:32:0d:2b:04:1f:85:4d:06:b9:21:8f:e3:0e:21:cf:fd:66:
        6a:c5:d9:41:84:f5:54:dc:73:85:1b:3e:05:f7:c3:60:81:90:
        22:57:91:08:de:d8:d2:b7:15:2a:ba:cc:6d:7c:57:9b:54:37:
        e2:9f:3a:d2:7b:ce:e2:b7:eb:0d:c0:7f:09:08:42:f3:f8:18:
        d4:38:ac:18:94:06:6f:06:e4:2f:1a:30:f1:09:25:de:5c:b7:
        93:f5:b6:c4:55:f1:d7:b0:b9:5e:56:dd:15:51:3b:fb:d1:5c:
        c0:fd:ff:25:58:73:c3:04:52:6b:ec:85:f9:24:f3:0f:8e:a1:
        b3:ed:d8:be:e7:fa:ba:17:40:79:3c:a3:93:f9:19:b7:44:0a:
        a0:db:0b:02:42:37:db:1a:f2:af:2d:9a:e9:43:72:b9:e5:80:
        2c:6c:94:91
-----BEGIN CERTIFICATE-----
MIIEyTCCA7GgAwIBAgIBZDANBgkqhkiG9w0BAQsFADCBojELMAkGA1UEBhMCVVMx
EzARBgNVBAgMCldhc2hpbmd0b24xEDAOBgNVBAcMB1NlYXR0bGUxFTATBgNVBAoM
DHdvbGZTU0wgSW5jLjEUMBIGA1UECwwLRW5naW5lZXJpbmcxHTAbBgNVBAMMFGNo
YWluRi1JQ0EyLXBhdGhsZW4wMSAwHgYJKoZIhvcNAQkBFhFmYWN0c0B3b2xmc3Ns
LmNvbTAeFw0yNjA2MTEyMTQ0MzlaFw0yOTAzMDcyMTQ0MzlaMIGiMQswCQYDVQQG
EwJVUzETMBEGA1UECAwKV2FzaGluZ3RvbjEQMA4GA1UEBwwHU2VhdHRsZTEVMBMG
A1UECgwMd29sZlNTTCBJbmMuMRQwEgYDVQQLDAtFbmdpbmVlcmluZzEdMBsGA1UE
AwwUY2hhaW5GLUlDQTEtcGF0aGxlbjExIDAeBgkqhkiG9w0BCQEWEWZhY3RzQHdv
bGZzc2wuY29tMIIBIjANBgkqhkiG9w0BAQEFAAOCAQ8AMIIBCgKCAQEA4BPJsI6d
P4jUMEq06BEhk1wgRQj4epG5LK3/YKoWnxy7iLg9CjnBial2yo5scnJ+bnSmNixp
3zPW6WZwZX+6KkQXYp8zRhLmA6Wm4lwJB8+8jXb+oP3XckqUyMovlZGcCnd/giO+
cicpRc1Bz+zhhM9n0BiYuTG+yf6YXT+q0oN2RYWrCIZjWFuz5UpDPaGZ4oDRK7IG
4/AQhfmmNrhSK51zOzQjUT3+Vi/pObJoBz5vUnv0QNRy+mkZyv8iyEWVBV6RCD8n
LUHRdKUGnPNAvbv8ZWOG7YAiUMH2T9yPQ0xe+7/ZbR+0hA8e6MZdxVPVLMl/a5iT
p101mhdikS4gwQIDAQABo4IBBjCCAQIwHQYDVR0OBBYEFHUyIQUrYP5EF68YZYaF
GYI/+WSDMIHCBgNVHSMEgbowgbeAFEpTSrcweDWRtMvdyCJ0ia+AD39ooYGbpIGY
MIGVMQswCQYDVQQGEwJVUzEQMA4GA1UECAwHTW9udGFuYTEQMA4GA1UEBwwHQm96
ZW1hbjERMA8GA1UECgwIU2F3dG9vdGgxEzARBgNVBAsMCkNvbnN1bHRpbmcxGDAW
BgNVBAMMD3d3dy53b2xmc3NsLmNvbTEgMB4GCSqGSIb3DQEJARYRZmFjdHNAd29s
ZnNzbC5jb22CAWQwDwYDVR0TBAgwBgEB/wIBATALBgNVHQ8EBAMCAQYwDQYJKoZI
hvcNAQELBQADggEBAH0WwhRFK2t6mA658Ls+iNMhp7/8O6UOAlQKB9D+kwG5bE4v
GgFvtgxyfqRwrjlb6YSSCRKYgrCp6TAuTjQ2RXOfSu3HT1vCJ1OIz9qI4f5Ahdgt
+tEfmgxGetQyDSsEH4VNBrkhj+MOIc/9ZmrF2UGE9VTcc4UbPgX3w2CBkCJXkQje
2NK3FSq6zG18V5tUN+KfOtJ7zuK36w3AfwkIQvP4GNQ4rBiUBm8G5C8aMPEJJd5c
t5P1tsRV8dewuV5W3RVRO/vRXMD9/yVYc8MEUmvshfkk8w+OobPt2L7n+roXQHk8
o5P5GbdECqDbCwJCN9sa8q8tmulDcrnlgCxslJE=
-----END CERTIFICATE-----
Certificate:
    Data:
        Version: 3 (0x2)
        Serial Number: 100 (0x64)
        Signature Algorithm: sha256WithRSAEncryption
        Issuer: C=US, ST=Montana, L=Bozeman, O=Sawtooth, OU=Consulting, CN=www.wolfssl.com, emailAddress=facts@wolfssl.com
        Validity
            Not Before: Jun 11 21:44:39 2026 GMT
            Not After : Mar  7 21:44:39 2029 GMT
        Subject: C=US, ST=Washington, L=Seattle, O=wolfSSL Inc., OU=Engineering, CN=chainF-ICA2-pathlen0, emailAddress=facts@wolfssl.com
        Subject Public Key Info:
            Public Key Algorithm: rsaEncryption
                Public-Key: (2048 bit)
                Modulus:
                    00:da:3a:22:65:f8:6d:1c:b7:1c:87:dd:27:f4:d7:
                    75:aa:7c:1c:37:31:b4:d6:a5:34:4b:36:40:ea:55:
                    08:72:a0:ff:58:e2:5d:26:11:f5:b8:6e:de:d7:c3:
                    bb:26:51:c8:d0:36:14:00:76:42:4d:03:73:ef:88:
                    b9:37:f4:e8:9d:61:45:96:e1:8e:6c:78:58:e1:f6:
                    cf:46:8a:d6:a5:79:4d:47:88:ca:6c:69:4e:28:d4:
                    8d:84:a8:e1:6c:1d:d3:36:7e:23:e3:64:d5:0a:a3:
                    fc:36:89:90:0a:ff:7e:8b:fa:2e:66:fb:c7:33:44:
                    92:df:0f:43:b2:eb:24:7e:2b:ae:b0:43:a9:ad:53:
                    82:f8:de:17:19:26:5f:ca:8c:ac:0c:1f:24:bd:15:
                    ed:4f:5d:82:ea:10:eb:05:70:4f:03:60:d9:23:6d:
                    21:07:4d:12:9c:f3:64:ee:76:fb:9d:f9:c3:d8:1a:
                    3b:6e:a9:82:7b:2d:2e:b0:74:b7:13:d6:65:8a:06:
                    f2:25:74:c2:26:e9:71:66:54:61:fe:2a:34:27:07:
                    c9:8d:ef:a0:a2:86:93:41:47:73:08:01:07:cc:4d:
                    ec:fe:80:88:93:fb:ae:b4:91:16:fa:83:96:84:66:
                    53:cd:f3:52:da:d4:25:e1:09:15:20:e2:10:ea:dd:
                    39:ef
                Exponent: 65537 (0x10001)
        X509v3 extensions:
            X509v3 Subject Key Identifier: 
                4A:53:4A:B7:30:78:35:91:B4:CB:DD:C8:22:74:89:AF:80:0F:7F:68
            X509v3 Authority Key Identifier: 
                keyid:27:8E:67:11:74:C3:26:1D:3F:ED:33:63:B3:A4:D8:1D:30:E5:E8:D5
                DirName:/C=US/ST=Montana/L=Bozeman/O=Sawtooth/OU=Consulting/CN=www.wolfssl.com/emailAddress=facts@wolfssl.com
                serial:67:19:D2:A8:7F:E3:2D:FA:75:7A:4F:E7:B2:02:D9:AD:C4:77:5E:F8
            X509v3 Basic Constraints: 
                CA:TRUE, pathlen:0
            X509v3 Key Usage: 
                Certificate Sign, CRL Sign
    Signature Algorithm: sha256WithRSAEncryption
    Signature Value:
        0e:0e:83:b1:dd:78:58:84:0c:2c:cb:07:e1:35:22:d9:ae:18:
        f4:ea:79:62:31:6f:3d:04:e2:17:4f:9d:b1:07:6f:63:99:41:
        cd:77:36:51:e1:11:5c:80:b5:b6:59:1c:ac:2f:43:38:da:e8:
        11:1a:92:75:49:ea:03:78:6d:1f:11:53:0d:1f:ff:40:15:75:
        09:d6:0a:4c:39:84:ec:63:ad:a3:d3:35:5a:4e:6a:b5:57:4d:
        5a:ed:fe:0b:7a:21:4e:91:7e:cb:3d:e8:f4:56:91:dd:84:a1:
        68:b5:4c:5f:2f:d2:46:10:05:08:cc:73:9d:87:a3:c5:15:ae:
        ff:7a:a4:8c:5b:bd:93:d2:3e:01:d2:03:84:38:7c:64:a9:0b:
        f5:ee:8c:52:45:86:46:29:54:a3:2c:ba:8b:35:0b:4a:85:b9:
        9b:d4:9c:f6:1f:ba:c9:b8:6c:d7:bf:44:00:7a:02:4d:65:25:
        7b:b0:12:50:dc:cf:71:54:57:de:7d:ec:91:71:a6:5d:dd:ad:
        03:25:f4:9e:e9:95:34:fe:d5:b9:3c:2a:2d:21:4a:fe:fb:99:
        ed:aa:3c:a2:e7:f3:5e:15:82:0a:7d:08:34:bc:c0:21:f1:6a:
        6f:d9:8c:79:68:72:ab:6e:46:3e:ff:1a:98:0d:69:e4:00:14:
        87:3c:1d:3f
-----BEGIN CERTIFICATE-----
MIIEzzCCA7egAwIBAgIBZDANBgkqhkiG9w0BAQsFADCBlTELMAkGA1UEBhMCVVMx
EDAOBgNVBAgMB01vbnRhbmExEDAOBgNVBAcMB0JvemVtYW4xETAPBgNVBAoMCFNh
d3Rvb3RoMRMwEQYDVQQLDApDb25zdWx0aW5nMRgwFgYDVQQDDA93d3cud29sZnNz
bC5jb20xIDAeBgkqhkiG9w0BCQEWEWZhY3RzQHdvbGZzc2wuY29tMB4XDTI2MDYx
MTIxNDQzOVoXDTI5MDMwNzIxNDQzOVowgaIxCzAJBgNVBAYTAlVTMRMwEQYDVQQI
DApXYXNoaW5ndG9uMRAwDgYDVQQHDAdTZWF0dGxlMRUwEwYDVQQKDAx3b2xmU1NM
IEluYy4xFDASBgNVBAsMC0VuZ2luZWVyaW5nMR0wGwYDVQQDDBRjaGFpbkYtSUNB
Mi1wYXRobGVuMDEgMB4GCSqGSIb3DQEJARYRZmFjdHNAd29sZnNzbC5jb20wggEi
MA0GCSqGSIb3DQEBAQUAA4IBDwAwggEKAoIBAQDaOiJl+G0ctxyH3Sf013WqfBw3
MbTWpTRLNkDqVQhyoP9Y4l0mEfW4bt7Xw7smUcjQNhQAdkJNA3PviLk39OidYUWW
4Y5seFjh9s9GitaleU1HiMpsaU4o1I2EqOFsHdM2fiPjZNUKo/w2iZAK/36L+i5m
+8czRJLfD0Oy6yR+K66wQ6mtU4L43hcZJl/KjKwMHyS9Fe1PXYLqEOsFcE8DYNkj
bSEHTRKc82Tudvud+cPYGjtuqYJ7LS6wdLcT1mWKBvIldMIm6XFmVGH+KjQnB8mN
76CihpNBR3MIAQfMTez+gIiT+660kRb6g5aEZlPN81La1CXhCRUg4hDq3TnvAgMB
AAGjggEZMIIBFTAdBgNVHQ4EFgQUSlNKtzB4NZG0y93IInSJr4APf2gwgdUGA1Ud
IwSBzTCByoAUJ45nEXTDJh0/7TNjs6TYHTDl6NWhgZukgZgwgZUxCzAJBgNVBAYT
AlVTMRAwDgYDVQQIDAdNb250YW5hMRAwDgYDVQQHDAdCb3plbWFuMREwDwYDVQQK
DAhTYXd0b290aDETMBEGA1UECwwKQ29uc3VsdGluZzEYMBYGA1UEAwwPd3d3Lndv
bGZzc2wuY29tMSAwHgYJKoZIhvcNAQkBFhFmYWN0c0B3b2xmc3NsLmNvbYIUZxnS
qH/jLfp1ek/nsgLZrcR3XvgwDwYDVR0TBAgwBgEB/wIBADALBgNVHQ8EBAMCAQYw
DQYJKoZIhvcNAQELBQADggEBAA4Og7HdeFiEDCzLB+E1ItmuGPTqeWIxbz0E4hdP
nbEHb2OZQc13NlHhEVyAtbZZHKwvQzja6BEaknVJ6gN4bR8RUw0f/0AVdQnWCkw5
hOxjraPTNVpOarVXTVrt/gt6IU6Rfss96PRWkd2EoWi1TF8v0kYQBQjMc52Ho8UV
rv96pIxbvZPSPgHSA4Q4fGSpC/XujFJFhkYpVKMsuos1C0qFuZvUnPYfusm4bNe/
RAB6Ak1lJXuwElDcz3FUV9597JFxpl3drQMl9J7plTT+1bk8Ki0hSv77me2qPKLn
814Vggp9CDS8wCHxam/ZjHlocqtuRj7/GpgNaeQAFIc8HT8=
-----END CERTIFICATE-----
