Certificate:
    Data:
        Version: 3 (0x2)
        Serial Number: 100 (0x64)
        Signature Algorithm: sha256WithRSAEncryption
        Issuer: C = US, ST = Montana, L = Bozeman, O = Sawtooth, OU = Consulting, CN = www.wolfssl.com, emailAddress = info@wolfssl.com
        Validity
            Not Before: May  7 07:39:05 2020 GMT
            Not After : Feb  1 07:39:05 2023 GMT
        Subject: C = US, ST = Washington, L = Seattle, O = wolfSSL Inc., OU = Engineering, CN = chainD-ICA1-pathlen127, emailAddress = info@wolfssl.com
        Subject Public Key Info:
            Public Key Algorithm: rsaEncryption
                RSA Public-Key: (2048 bit)
                Modulus:
                    00:d7:81:78:a9:19:99:12:d1:cf:3d:51:54:1d:d3:
                    14:94:ed:3e:de:ff:e0:23:e4:f7:23:fc:5c:49:24:
                    d8:36:93:e6:2a:ee:a7:ab:c6:8d:c9:ad:40:45:c9:
                    44:06:47:4c:0d:65:09:dd:db:e2:f0:bd:cd:79:1c:
                    ec:d1:8d:de:f2:ff:66:f5:b2:bd:43:cc:58:7f:1d:
                    db:4b:97:a5:83:5c:87:5e:9b:73:87:c8:1d:2b:47:
                    92:55:e4:db:be:51:d5:eb:76:c2:aa:59:72:7b:f6:
                    27:2f:be:c0:db:dc:3c:f2:e2:19:c9:b0:30:bb:2e:
                    a2:95:48:06:bd:8e:9d:bd:8c:6b:5e:c6:9a:73:4b:
                    6c:b0:20:96:47:44:d3:09:6b:6a:2b:fa:86:5f:1d:
                    0b:a7:62:22:72:d5:56:1c:aa:97:8c:ce:57:a3:0f:
                    e6:bc:cd:63:54:55:60:87:50:eb:fa:8c:e9:15:70:
                    b3:5c:4d:0e:27:60:fd:07:6e:8c:ec:3f:a0:25:c5:
                    01:59:a3:fc:2d:80:4b:84:4c:10:b5:c8:a7:6b:b1:
                    e5:c5:c1:9a:b0:d6:4b:30:21:ba:42:65:e0:3f:59:
                    cf:7f:49:4b:3b:cf:62:06:f4:89:ae:5b:81:5d:15:
                    63:fb:7c:29:a6:b5:cf:f3:b5:b5:66:06:4f:a3:da:
                    67:39
                Exponent: 65537 (0x10001)
        X509v3 extensions:
            X509v3 Subject Key Identifier: 
                67:78:F9:AD:1C:53:41:1F:46:BD:49:9B:73:2E:7C:DC:5C:2D:0B:FB
            X509v3 Authority Key Identifier: 
                keyid:27:8E:67:11:74:C3:26:1D:3F:ED:33:63:B3:A4:D8:1D:30:E5:E8:D5
                DirName:/C=US/ST=Montana/L=Bozeman/O=Sawtooth/OU=Consulting/CN=www.wolfssl.com/emailAddress=info@wolfssl.com
                serial:3F:32:13:52:92:C6:DF:4A:D5:42:05:6C:B0:B2:2E:46:C2:F8:B8:67

            X509v3 Basic Constraints: 
                CA:TRUE, pathlen:127
            X509v3 Key Usage: 
                Certificate Sign, CRL Sign
    Signature Algorithm: sha256WithRSAEncryption
         b6:9c:3d:f0:28:b4:9b:19:21:a2:5f:6e:58:1f:bd:83:ad:1f:
         f8:c6:dc:cd:14:4f:ea:bd:d6:33:bd:c7:a1:5f:0a:f1:7b:ae:
         9f:ac:12:75:28:ef:67:25:cf:6f:cd:89:62:e6:da:f8:3b:c6:
         d5:c4:af:97:bb:cb:47:7c:36:ab:d1:35:27:0d:03:18:bf:6e:
         c7:43:d8:36:a4:df:af:73:43:27:0e:73:2a:6f:99:0c:60:88:
         5e:76:5e:33:79:2e:e0:37:fc:9c:42:78:f6:29:0a:d0:ed:14:
         84:14:96:ca:1e:8a:f4:95:26:86:7c:d7:4c:67:b7:e0:7d:17:
         c6:f1:99:a2:63:a6:24:81:b3:18:b1:ea:3a:ed:d1:b4:74:6b:
         08:d4:48:17:e7:3e:3e:a3:b0:e8:34:d0:3a:a8:54:37:43:75:
         d0:a3:d6:bd:47:8d:65:d0:77:9d:c6:98:c5:65:aa:b9:de:a0:
         8f:5d:55:0e:2b:79:86:0a:41:6a:ee:2c:c6:39:3e:48:d7:b4:
         24:9f:6b:48:28:b8:ae:3e:29:1a:6c:08:bf:e0:14:86:49:4b:
         e0:6b:fd:8a:5d:69:ee:33:81:86:08:0e:32:46:94:61:ca:4f:
         56:48:ea:da:68:06:0d:21:92:6d:41:77:eb:32:b2:7e:34:83:
         88:9d:f5:f2
-----BEGIN CERTIFICATE-----
MIIEzjCCA7agAwIBAgIBZDANBgkqhkiG9w0BAQsFADCBlDELMAkGA1UEBhMCVVMx
EDAOBgNVBAgMB01vbnRhbmExEDAOBgNVBAcMB0JvemVtYW4xETAPBgNVBAoMCFNh
d3Rvb3RoMRMwEQYDVQQLDApDb25zdWx0aW5nMRgwFgYDVQQDDA93d3cud29sZnNz
bC5jb20xHzAdBgkqhkiG9w0BCQEWEGluZm9Ad29sZnNzbC5jb20wHhcNMjAwNTA3
MDczOTA1WhcNMjMwMjAxMDczOTA1WjCBozELMAkGA1UEBhMCVVMxEzARBgNVBAgM
Cldhc2hpbmd0b24xEDAOBgNVBAcMB1NlYXR0bGUxFTATBgNVBAoMDHdvbGZTU0wg
SW5jLjEUMBIGA1UECwwLRW5naW5lZXJpbmcxHzAdBgNVBAMMFmNoYWluRC1JQ0Ex
LXBhdGhsZW4xMjcxHzAdBgkqhkiG9w0BCQEWEGluZm9Ad29sZnNzbC5jb20wggEi
MA0GCSqGSIb3DQEBAQUAA4IBDwAwggEKAoIBAQDXgXipGZkS0c89UVQd0xSU7T7e
/+Aj5Pcj/FxJJNg2k+Yq7qerxo3JrUBFyUQGR0wNZQnd2+Lwvc15HOzRjd7y/2b1
sr1DzFh/HdtLl6WDXIdem3OHyB0rR5JV5Nu+UdXrdsKqWXJ79icvvsDb3Dzy4hnJ
sDC7LqKVSAa9jp29jGtexppzS2ywIJZHRNMJa2or+oZfHQunYiJy1VYcqpeMzlej
D+a8zWNUVWCHUOv6jOkVcLNcTQ4nYP0HbozsP6AlxQFZo/wtgEuETBC1yKdrseXF
wZqw1kswIbpCZeA/Wc9/SUs7z2IG9ImuW4FdFWP7fCmmtc/ztbVmBk+j2mc5AgMB
AAGjggEYMIIBFDAdBgNVHQ4EFgQUZ3j5rRxTQR9GvUmbcy583FwtC/swgdQGA1Ud
IwSBzDCByYAUJ45nEXTDJh0/7TNjs6TYHTDl6NWhgZqkgZcwgZQxCzAJBgNVBAYT
AlVTMRAwDgYDVQQIDAdNb250YW5hMRAwDgYDVQQHDAdCb3plbWFuMREwDwYDVQQK
DAhTYXd0b290aDETMBEGA1UECwwKQ29uc3VsdGluZzEYMBYGA1UEAwwPd3d3Lndv
bGZzc2wuY29tMR8wHQYJKoZIhvcNAQkBFhBpbmZvQHdvbGZzc2wuY29tghQ/MhNS
ksbfStVCBWywsi5Gwvi4ZzAPBgNVHRMECDAGAQH/AgF/MAsGA1UdDwQEAwIBBjAN
BgkqhkiG9w0BAQsFAAOCAQEAtpw98Ci0mxkhol9uWB+9g60f+MbczRRP6r3WM73H
oV8K8Xuun6wSdSjvZyXPb82JYuba+DvG1cSvl7vLR3w2q9E1Jw0DGL9ux0PYNqTf
r3NDJw5zKm+ZDGCIXnZeM3ku4Df8nEJ49ikK0O0UhBSWyh6K9JUmhnzXTGe34H0X
xvGZomOmJIGzGLHqOu3RtHRrCNRIF+c+PqOw6DTQOqhUN0N10KPWvUeNZdB3ncaY
xWWqud6gj11VDit5hgpBau4sxjk+SNe0JJ9rSCi4rj4pGmwIv+AUhklL4Gv9il1p
7jOBhggOMkaUYcpPVkjq2mgGDSGSbUF36zKyfjSDiJ318g==
-----END CERTIFICATE-----
