Certificate:
    Data:
        Version: 3 (0x2)
        Serial Number: 100 (0x64)
        Signature Algorithm: sha256WithRSAEncryption
        Issuer: C=US, ST=Montana, L=Bozeman, O=Sawtooth, OU=Consulting, CN=www.wolfssl.com, emailAddress=facts@wolfssl.com
        Validity
            Not Before: Jun 11 21:44:39 2026 GMT
            Not After : Mar  7 21:44:39 2029 GMT
        Subject: C=US, ST=Washington, L=Seattle, O=wolfSSL Inc., OU=Engineering, CN=chainH-ICA4-pathlen2, emailAddress=facts@wolfssl.com
        Subject Public Key Info:
            Public Key Algorithm: rsaEncryption
                Public-Key: (2048 bit)
                Modulus:
                    00:bb:f3:2f:8a:cd:9e:87:f1:01:f3:a4:c0:2d:66:
                    36:d7:11:2e:64:08:e8:f1:99:fa:a6:9c:f4:bd:3b:
                    47:72:d2:0e:58:9d:3e:52:e7:da:a3:43:78:c3:c3:
                    93:e6:04:d3:ab:51:8a:1a:24:0e:7a:62:59:aa:c6:
                    42:9e:66:c1:61:5e:31:b1:4d:dc:37:a9:18:76:8d:
                    fe:cb:09:54:3f:4f:bb:5f:ab:ba:70:e9:b4:a1:5e:
                    a0:69:7e:45:3f:c0:cc:78:e9:f2:74:64:79:c2:6a:
                    16:d0:98:30:82:44:4a:b3:99:2c:66:30:ac:99:82:
                    04:2a:bf:0f:60:89:04:36:fa:29:d3:08:56:61:6a:
                    a8:33:40:9a:53:7d:20:a8:51:6f:9b:a0:d9:3e:dc:
                    9a:8b:1d:37:9e:ad:c9:fd:53:a7:04:dc:1f:36:3e:
                    d3:65:52:84:24:61:d0:4e:e2:41:60:bf:fb:fd:b2:
                    04:b3:3f:eb:14:99:5e:bc:e8:7d:e9:65:d1:3f:fe:
                    04:49:e5:bb:a3:2d:e3:db:96:df:d9:81:a0:32:d7:
                    01:b9:b8:02:8e:b9:a2:1f:0a:d4:24:17:3a:19:0f:
                    6d:3a:10:5f:5c:7d:b8:56:82:c7:7f:40:f0:2d:87:
                    63:c1:b1:d8:64:c7:3c:27:13:4a:63:82:21:b1:f2:
                    39:e9
                Exponent: 65537 (0x10001)
        X509v3 extensions:
            X509v3 Subject Key Identifier: 
                18:6D:44:83:EE:1F:EC:B4:22:F0:9C:EB:54:1E:4A:15:58:01:AA:13
            X509v3 Authority Key Identifier: 
                keyid:27:8E:67:11:74:C3:26:1D:3F:ED:33:63:B3:A4:D8:1D:30:E5:E8:D5
                DirName:/C=US/ST=Montana/L=Bozeman/O=Sawtooth/OU=Consulting/CN=www.wolfssl.com/emailAddress=facts@wolfssl.com
                serial:67:19:D2:A8:7F:E3:2D:FA:75:7A:4F:E7:B2:02:D9:AD:C4:77:5E:F8
            X509v3 Basic Constraints: 
                CA:TRUE, pathlen:2
            X509v3 Key Usage: 
                Certificate Sign, CRL Sign
    Signature Algorithm: sha256WithRSAEncryption
    Signature Value:
        aa:b3:65:03:e4:72:0f:02:74:36:bb:81:0f:d6:07:e2:26:7c:
        58:33:80:a8:cb:06:b0:d8:79:48:5e:e4:db:39:89:eb:42:5e:
        73:12:e6:bc:25:e5:86:4f:c0:4e:8d:d6:71:fa:17:c8:2e:50:
        7f:34:c9:33:ba:ac:c1:9e:bf:bd:46:e0:cb:81:ff:ee:be:72:
        81:e8:c5:d0:01:01:df:f7:3e:7d:aa:be:d2:0f:7f:3c:df:03:
        f2:d4:49:96:f7:d5:f6:f4:ef:12:c3:2f:6e:52:11:b6:1d:1e:
        3c:b3:b5:b7:aa:b9:a4:7f:73:f0:7f:f0:aa:2e:ec:ae:fc:30:
        aa:47:af:18:e5:6a:84:c1:6b:18:33:66:56:15:fa:30:a8:cd:
        f3:a0:b9:87:04:26:71:f2:12:97:b4:1f:30:79:21:4d:1c:73:
        65:e3:38:04:8b:25:be:e9:3e:25:68:0a:3e:d1:a4:e2:56:2e:
        a9:bd:39:b0:3a:5e:93:79:ad:f9:36:a2:22:09:49:78:26:31:
        3b:c7:c4:d0:27:1b:45:7e:12:37:2a:87:76:86:2d:50:e9:8e:
        f5:29:66:a7:e4:d4:02:44:0d:b7:15:20:89:e7:37:70:d5:8e:
        b3:69:92:a4:4d:c7:cd:c9:46:72:66:92:7e:a6:7a:5b:14:d6:
        ec:41:29:7f
-----BEGIN CERTIFICATE-----
MIIEzzCCA7egAwIBAgIBZDANBgkqhkiG9w0BAQsFADCBlTELMAkGA1UEBhMCVVMx
EDAOBgNVBAgMB01vbnRhbmExEDAOBgNVBAcMB0JvemVtYW4xETAPBgNVBAoMCFNh
d3Rvb3RoMRMwEQYDVQQLDApDb25zdWx0aW5nMRgwFgYDVQQDDA93d3cud29sZnNz
bC5jb20xIDAeBgkqhkiG9w0BCQEWEWZhY3RzQHdvbGZzc2wuY29tMB4XDTI2MDYx
MTIxNDQzOVoXDTI5MDMwNzIxNDQzOVowgaIxCzAJBgNVBAYTAlVTMRMwEQYDVQQI
DApXYXNoaW5ndG9uMRAwDgYDVQQHDAdTZWF0dGxlMRUwEwYDVQQKDAx3b2xmU1NM
IEluYy4xFDASBgNVBAsMC0VuZ2luZWVyaW5nMR0wGwYDVQQDDBRjaGFpbkgtSUNB
NC1wYXRobGVuMjEgMB4GCSqGSIb3DQEJARYRZmFjdHNAd29sZnNzbC5jb20wggEi
MA0GCSqGSIb3DQEBAQUAA4IBDwAwggEKAoIBAQC78y+KzZ6H8QHzpMAtZjbXES5k
COjxmfqmnPS9O0dy0g5YnT5S59qjQ3jDw5PmBNOrUYoaJA56YlmqxkKeZsFhXjGx
Tdw3qRh2jf7LCVQ/T7tfq7pw6bShXqBpfkU/wMx46fJ0ZHnCahbQmDCCREqzmSxm
MKyZggQqvw9giQQ2+inTCFZhaqgzQJpTfSCoUW+boNk+3JqLHTeercn9U6cE3B82
PtNlUoQkYdBO4kFgv/v9sgSzP+sUmV686H3pZdE//gRJ5bujLePblt/ZgaAy1wG5
uAKOuaIfCtQkFzoZD206EF9cfbhWgsd/QPAth2PBsdhkxzwnE0pjgiGx8jnpAgMB
AAGjggEZMIIBFTAdBgNVHQ4EFgQUGG1Eg+4f7LQi8JzrVB5KFVgBqhMwgdUGA1Ud
IwSBzTCByoAUJ45nEXTDJh0/7TNjs6TYHTDl6NWhgZukgZgwgZUxCzAJBgNVBAYT
AlVTMRAwDgYDVQQIDAdNb250YW5hMRAwDgYDVQQHDAdCb3plbWFuMREwDwYDVQQK
DAhTYXd0b290aDETMBEGA1UECwwKQ29uc3VsdGluZzEYMBYGA1UEAwwPd3d3Lndv
bGZzc2wuY29tMSAwHgYJKoZIhvcNAQkBFhFmYWN0c0B3b2xmc3NsLmNvbYIUZxnS
qH/jLfp1ek/nsgLZrcR3XvgwDwYDVR0TBAgwBgEB/wIBAjALBgNVHQ8EBAMCAQYw
DQYJKoZIhvcNAQELBQADggEBAKqzZQPkcg8CdDa7gQ/WB+ImfFgzgKjLBrDYeUhe
5Ns5ietCXnMS5rwl5YZPwE6N1nH6F8guUH80yTO6rMGev71G4MuB/+6+coHoxdAB
Ad/3Pn2qvtIPfzzfA/LUSZb31fb07xLDL25SEbYdHjyztbequaR/c/B/8Kou7K78
MKpHrxjlaoTBaxgzZlYV+jCozfOguYcEJnHyEpe0HzB5IU0cc2XjOASLJb7pPiVo
Cj7RpOJWLqm9ObA6XpN5rfk2oiIJSXgmMTvHxNAnG0V+Ejcqh3aGLVDpjvUpZqfk
1AJEDbcVIInnN3DVjrNpkqRNx83JRnJmkn6melsU1uxBKX8=
-----END CERTIFICATE-----
