Certificate:
    Data:
        Version: 3 (0x2)
        Serial Number: 101 (0x65)
        Signature Algorithm: sha256WithRSAEncryption
        Issuer: C=US, ST=Washington, L=Seattle, O=wolfSSL Inc., OU=Engineering, CN=chainJ-ICA1-no_pathlen, emailAddress=info@wolfssl.com
        Validity
            Not Before: Nov 13 20:41:49 2025 GMT
            Not After : Aug  9 20:41:49 2028 GMT
        Subject: C=US, ST=Washington, L=Seattle, O=wolfSSL Inc., OU=Engineering, CN=chainJ-entity, emailAddress=info@wolfssl.com
        Subject Public Key Info:
            Public Key Algorithm: rsaEncryption
                Public-Key: (2048 bit)
                Modulus:
                    00:b3:fb:51:a0:ac:69:8b:35:06:bf:7a:ee:b4:a1:
                    8a:7e:ae:31:75:ad:e7:45:7b:e6:d9:bb:7c:e9:73:
                    0e:de:cf:05:74:df:37:a4:37:33:a6:6f:59:06:c8:
                    9f:19:35:c3:94:f7:05:ba:52:eb:3e:92:29:61:48:
                    88:fa:6d:42:b4:30:de:ce:df:94:ed:92:88:60:c8:
                    55:36:50:ee:36:b5:ed:35:6f:95:01:f4:88:4b:7b:
                    3e:fe:b5:9c:64:c0:72:be:8c:74:6a:8c:f5:e4:65:
                    66:87:52:9d:7b:b0:20:f6:d8:c3:de:76:b9:70:7c:
                    01:82:6e:fc:fa:1b:e7:c4:c1:5f:38:ce:50:dc:3a:
                    22:87:bc:19:9a:45:d5:8a:7a:93:f9:78:59:c7:0a:
                    f9:8f:eb:c3:79:eb:b5:ee:36:f0:5e:5d:2f:8f:46:
                    e8:63:c2:31:82:fc:fb:5d:8c:ca:01:b1:bb:72:2b:
                    e7:2f:82:3c:a6:24:a6:3f:58:7e:69:5b:4a:00:b4:
                    25:b3:b3:c3:b3:b0:c2:3f:a3:d7:ee:04:12:1d:ab:
                    0b:bb:02:b0:6c:0b:36:64:56:a9:5d:37:e5:0a:28:
                    44:5e:15:e4:f5:ab:73:98:0a:b3:28:90:1d:30:f2:
                    8c:e7:db:13:6a:0f:b4:cb:8d:06:15:86:ce:35:12:
                    e3:a9
                Exponent: 65537 (0x10001)
        X509v3 extensions:
            X509v3 Subject Key Identifier: 
                13:92:E0:30:5E:36:4F:BF:D5:E3:0D:5D:40:0B:64:95:EC:8E:77:4E
            X509v3 Authority Key Identifier: 
                keyid:9C:7B:3A:10:B3:08:99:05:00:AF:3E:E0:A4:5D:D9:AF:82:BC:4D:C0
                DirName:/C=US/ST=Washington/L=Seattle/O=wolfSSL Inc./OU=Engineering/CN=chainJ-ICA2-no_pathlen/emailAddress=info@wolfssl.com
                serial:64
            X509v3 Basic Constraints: 
                CA:FALSE
    Signature Algorithm: sha256WithRSAEncryption
    Signature Value:
        38:62:84:3a:cb:83:b8:8d:01:9e:f0:ca:4a:29:f0:03:58:5e:
        85:ad:87:08:4c:12:74:0b:b7:af:07:a6:d4:95:23:f9:07:68:
        15:df:de:1b:3b:67:d1:c1:7c:c8:9f:24:f4:dc:f2:52:f2:05:
        bf:1a:93:42:1e:88:8f:4f:29:74:d4:bf:8f:c9:72:23:98:ac:
        02:96:f6:16:b7:72:74:0f:e8:c7:1b:01:d3:f9:00:41:7b:85:
        95:f9:cc:b7:ed:ea:0e:72:01:7c:4e:46:a3:2f:c9:36:86:16:
        ae:28:d2:35:fb:f4:11:02:02:0b:0e:3b:01:af:cc:1f:d1:b7:
        ea:67:cb:87:73:b6:4f:f2:9b:db:1a:e2:de:b6:4d:55:6b:81:
        f3:9d:d2:6c:83:2e:88:9e:e8:76:e3:ad:77:8e:2d:5a:10:e1:
        e9:91:85:a8:5d:1e:0d:9d:03:f7:d6:15:4d:17:18:e0:27:09:
        4e:f5:01:75:65:45:ae:d3:b9:41:4e:37:c1:25:52:41:d0:97:
        07:69:9f:aa:cd:53:32:7a:45:87:ab:99:40:b3:94:6a:ef:86:
        cd:6e:39:fc:65:69:44:09:ab:5c:60:3d:47:1a:61:c3:66:c6:
        6a:7e:63:4c:ac:cc:a6:1d:ca:c4:14:79:95:4d:ff:81:de:70:
        24:f8:ce:49
-----BEGIN CERTIFICATE-----
MIIEvDCCA6SgAwIBAgIBZTANBgkqhkiG9w0BAQsFADCBozELMAkGA1UEBhMCVVMx
EzARBgNVBAgMCldhc2hpbmd0b24xEDAOBgNVBAcMB1NlYXR0bGUxFTATBgNVBAoM
DHdvbGZTU0wgSW5jLjEUMBIGA1UECwwLRW5naW5lZXJpbmcxHzAdBgNVBAMMFmNo
YWluSi1JQ0ExLW5vX3BhdGhsZW4xHzAdBgkqhkiG9w0BCQEWEGluZm9Ad29sZnNz
bC5jb20wHhcNMjUxMTEzMjA0MTQ5WhcNMjgwODA5MjA0MTQ5WjCBmjELMAkGA1UE
BhMCVVMxEzARBgNVBAgMCldhc2hpbmd0b24xEDAOBgNVBAcMB1NlYXR0bGUxFTAT
BgNVBAoMDHdvbGZTU0wgSW5jLjEUMBIGA1UECwwLRW5naW5lZXJpbmcxFjAUBgNV
BAMMDWNoYWluSi1lbnRpdHkxHzAdBgkqhkiG9w0BCQEWEGluZm9Ad29sZnNzbC5j
b20wggEiMA0GCSqGSIb3DQEBAQUAA4IBDwAwggEKAoIBAQCz+1GgrGmLNQa/eu60
oYp+rjF1redFe+bZu3zpcw7ezwV03zekNzOmb1kGyJ8ZNcOU9wW6Uus+kilhSIj6
bUK0MN7O35TtkohgyFU2UO42te01b5UB9IhLez7+tZxkwHK+jHRqjPXkZWaHUp17
sCD22MPedrlwfAGCbvz6G+fEwV84zlDcOiKHvBmaRdWKepP5eFnHCvmP68N567Xu
NvBeXS+PRuhjwjGC/PtdjMoBsbtyK+cvgjymJKY/WH5pW0oAtCWzs8OzsMI/o9fu
BBIdqwu7ArBsCzZkVqldN+UKKEReFeT1q3OYCrMokB0w8ozn2xNqD7TLjQYVhs41
EuOpAgMBAAGjggEAMIH9MB0GA1UdDgQWBBQTkuAwXjZPv9XjDV1AC2SV7I53TjCB
0AYDVR0jBIHIMIHFgBScezoQswiZBQCvPuCkXdmvgrxNwKGBqaSBpjCBozELMAkG
A1UEBhMCVVMxEzARBgNVBAgMCldhc2hpbmd0b24xEDAOBgNVBAcMB1NlYXR0bGUx
FTATBgNVBAoMDHdvbGZTU0wgSW5jLjEUMBIGA1UECwwLRW5naW5lZXJpbmcxHzAd
BgNVBAMMFmNoYWluSi1JQ0EyLW5vX3BhdGhsZW4xHzAdBgkqhkiG9w0BCQEWEGlu
Zm9Ad29sZnNzbC5jb22CAWQwCQYDVR0TBAIwADANBgkqhkiG9w0BAQsFAAOCAQEA
OGKEOsuDuI0BnvDKSinwA1heha2HCEwSdAu3rwem1JUj+QdoFd/eGztn0cF8yJ8k
9NzyUvIFvxqTQh6Ij08pdNS/j8lyI5isApb2FrdydA/oxxsB0/kAQXuFlfnMt+3q
DnIBfE5Goy/JNoYWrijSNfv0EQICCw47Aa/MH9G36mfLh3O2T/Kb2xri3rZNVWuB
853SbIMuiJ7oduOtd44tWhDh6ZGFqF0eDZ0D99YVTRcY4CcJTvUBdWVFrtO5QU43
wSVSQdCXB2mfqs1TMnpFh6uZQLOUau+GzW45/GVpRAmrXGA9Rxphw2bGan5jTKzM
ph3KxBR5lU3/gd5wJPjOSQ==
-----END CERTIFICATE-----
