Certificate:
    Data:
        Version: 3 (0x2)
        Serial Number: 101 (0x65)
        Signature Algorithm: sha256WithRSAEncryption
        Issuer: C = US, ST = Washington, L = Seattle, O = wolfSSL Inc., OU = Engineering, CN = chainJ-ICA1-no_pathlen, emailAddress = info@wolfssl.com
        Validity
            Not Before: Feb 15 12:50:26 2022 GMT
            Not After : Nov 11 12:50:26 2024 GMT
        Subject: C = US, ST = Washington, L = Seattle, O = wolfSSL Inc., OU = Engineering, CN = chainJ-entity, emailAddress = info@wolfssl.com
        Subject Public Key Info:
            Public Key Algorithm: rsaEncryption
                RSA Public-Key: (2048 bit)
                Modulus:
                    00:b3:fb:51:a0:ac:69:8b:35:06:bf:7a:ee:b4:a1:
                    8a:7e:ae:31:75:ad:e7:45:7b:e6:d9:bb:7c:e9:73:
                    0e:de:cf:05:74:df:37:a4:37:33:a6:6f:59:06:c8:
                    9f:19:35:c3:94:f7:05:ba:52:eb:3e:92:29:61:48:
                    88:fa:6d:42:b4:30:de:ce:df:94:ed:92:88:60:c8:
                    55:36:50:ee:36:b5:ed:35:6f:95:01:f4:88:4b:7b:
                    3e:fe:b5:9c:64:c0:72:be:8c:74:6a:8c:f5:e4:65:
                    66:87:52:9d:7b:b0:20:f6:d8:c3:de:76:b9:70:7c:
                    01:82:6e:fc:fa:1b:e7:c4:c1:5f:38:ce:50:dc:3a:
                    22:87:bc:19:9a:45:d5:8a:7a:93:f9:78:59:c7:0a:
                    f9:8f:eb:c3:79:eb:b5:ee:36:f0:5e:5d:2f:8f:46:
                    e8:63:c2:31:82:fc:fb:5d:8c:ca:01:b1:bb:72:2b:
                    e7:2f:82:3c:a6:24:a6:3f:58:7e:69:5b:4a:00:b4:
                    25:b3:b3:c3:b3:b0:c2:3f:a3:d7:ee:04:12:1d:ab:
                    0b:bb:02:b0:6c:0b:36:64:56:a9:5d:37:e5:0a:28:
                    44:5e:15:e4:f5:ab:73:98:0a:b3:28:90:1d:30:f2:
                    8c:e7:db:13:6a:0f:b4:cb:8d:06:15:86:ce:35:12:
                    e3:a9
                Exponent: 65537 (0x10001)
        X509v3 extensions:
            X509v3 Subject Key Identifier: 
                13:92:E0:30:5E:36:4F:BF:D5:E3:0D:5D:40:0B:64:95:EC:8E:77:4E
            X509v3 Authority Key Identifier: 
                keyid:9C:7B:3A:10:B3:08:99:05:00:AF:3E:E0:A4:5D:D9:AF:82:BC:4D:C0
                DirName:/C=US/ST=Washington/L=Seattle/O=wolfSSL Inc./OU=Engineering/CN=chainJ-ICA2-no_pathlen/emailAddress=info@wolfssl.com
                serial:64

            X509v3 Basic Constraints: 
                CA:FALSE
    Signature Algorithm: sha256WithRSAEncryption
         9b:cb:15:6d:99:25:75:54:03:66:69:a8:fc:2f:bc:74:fd:b3:
         6a:35:27:60:ba:9c:7f:8a:68:34:ec:27:66:ff:c5:aa:a2:b4:
         6a:8b:7e:a2:91:7b:81:e7:2c:81:00:7e:da:78:4e:0d:6d:1d:
         fd:1c:2e:3f:94:81:ce:d0:cf:80:1b:07:32:93:19:91:89:04:
         14:38:e5:a3:97:4c:0b:50:fe:15:aa:ca:01:d2:85:56:aa:0a:
         0d:52:07:4c:09:16:ad:69:0b:16:fb:ce:9d:29:f9:5b:49:ef:
         b1:84:da:ca:07:58:73:55:39:dd:ba:f6:aa:0e:19:e5:de:a8:
         05:f6:da:2c:a1:b9:43:37:13:0e:bf:ab:ea:92:de:40:9d:6f:
         51:8a:d7:e8:0f:e8:e1:af:51:80:b1:a3:aa:04:4c:9b:10:15:
         06:a0:bd:a0:64:b4:01:c0:9f:f5:8a:54:ef:a8:76:d9:52:0a:
         86:42:25:c3:62:80:93:9e:44:28:ad:82:74:aa:c2:db:7a:76:
         7b:08:b4:f3:aa:34:b8:a6:21:b5:0a:1d:53:e8:9b:c6:d0:43:
         e2:04:c3:ae:ab:1b:b5:a4:b8:20:aa:f7:6f:a1:1c:41:75:8c:
         73:2b:01:3a:0e:21:11:72:f6:22:36:a5:fd:aa:a7:fe:a8:78:
         2d:87:82:f1
-----BEGIN CERTIFICATE-----
MIIEvDCCA6SgAwIBAgIBZTANBgkqhkiG9w0BAQsFADCBozELMAkGA1UEBhMCVVMx
EzARBgNVBAgMCldhc2hpbmd0b24xEDAOBgNVBAcMB1NlYXR0bGUxFTATBgNVBAoM
DHdvbGZTU0wgSW5jLjEUMBIGA1UECwwLRW5naW5lZXJpbmcxHzAdBgNVBAMMFmNo
YWluSi1JQ0ExLW5vX3BhdGhsZW4xHzAdBgkqhkiG9w0BCQEWEGluZm9Ad29sZnNz
bC5jb20wHhcNMjIwMjE1MTI1MDI2WhcNMjQxMTExMTI1MDI2WjCBmjELMAkGA1UE
BhMCVVMxEzARBgNVBAgMCldhc2hpbmd0b24xEDAOBgNVBAcMB1NlYXR0bGUxFTAT
BgNVBAoMDHdvbGZTU0wgSW5jLjEUMBIGA1UECwwLRW5naW5lZXJpbmcxFjAUBgNV
BAMMDWNoYWluSi1lbnRpdHkxHzAdBgkqhkiG9w0BCQEWEGluZm9Ad29sZnNzbC5j
b20wggEiMA0GCSqGSIb3DQEBAQUAA4IBDwAwggEKAoIBAQCz+1GgrGmLNQa/eu60
oYp+rjF1redFe+bZu3zpcw7ezwV03zekNzOmb1kGyJ8ZNcOU9wW6Uus+kilhSIj6
bUK0MN7O35TtkohgyFU2UO42te01b5UB9IhLez7+tZxkwHK+jHRqjPXkZWaHUp17
sCD22MPedrlwfAGCbvz6G+fEwV84zlDcOiKHvBmaRdWKepP5eFnHCvmP68N567Xu
NvBeXS+PRuhjwjGC/PtdjMoBsbtyK+cvgjymJKY/WH5pW0oAtCWzs8OzsMI/o9fu
BBIdqwu7ArBsCzZkVqldN+UKKEReFeT1q3OYCrMokB0w8ozn2xNqD7TLjQYVhs41
EuOpAgMBAAGjggEAMIH9MB0GA1UdDgQWBBQTkuAwXjZPv9XjDV1AC2SV7I53TjCB
0AYDVR0jBIHIMIHFgBScezoQswiZBQCvPuCkXdmvgrxNwKGBqaSBpjCBozELMAkG
A1UEBhMCVVMxEzARBgNVBAgMCldhc2hpbmd0b24xEDAOBgNVBAcMB1NlYXR0bGUx
FTATBgNVBAoMDHdvbGZTU0wgSW5jLjEUMBIGA1UECwwLRW5naW5lZXJpbmcxHzAd
BgNVBAMMFmNoYWluSi1JQ0EyLW5vX3BhdGhsZW4xHzAdBgkqhkiG9w0BCQEWEGlu
Zm9Ad29sZnNzbC5jb22CAWQwCQYDVR0TBAIwADANBgkqhkiG9w0BAQsFAAOCAQEA
m8sVbZkldVQDZmmo/C+8dP2zajUnYLqcf4poNOwnZv/FqqK0aot+opF7gecsgQB+
2nhODW0d/RwuP5SBztDPgBsHMpMZkYkEFDjlo5dMC1D+FarKAdKFVqoKDVIHTAkW
rWkLFvvOnSn5W0nvsYTaygdYc1U53br2qg4Z5d6oBfbaLKG5QzcTDr+r6pLeQJ1v
UYrX6A/o4a9RgLGjqgRMmxAVBqC9oGS0AcCf9YpU76h22VIKhkIlw2KAk55EKK2C
dKrC23p2ewi086o0uKYhtQodU+ibxtBD4gTDrqsbtaS4IKr3b6EcQXWMcysBOg4h
EXL2Ijal/aqn/qh4LYeC8Q==
-----END CERTIFICATE-----
Certificate:
    Data:
        Version: 3 (0x2)
        Serial Number: 100 (0x64)
        Signature Algorithm: sha256WithRSAEncryption
        Issuer: C = US, ST = Washington, L = Seattle, O = wolfSSL Inc., OU = Engineering, CN = chainJ-ICA2-no_pathlen, emailAddress = info@wolfssl.com
        Validity
            Not Before: Feb 15 12:50:26 2022 GMT
            Not After : Nov 11 12:50:26 2024 GMT
        Subject: C = US, ST = Washington, L = Seattle, O = wolfSSL Inc., OU = Engineering, CN = chainJ-ICA1-no_pathlen, emailAddress = info@wolfssl.com
        Subject Public Key Info:
            Public Key Algorithm: rsaEncryption
                RSA Public-Key: (2048 bit)
                Modulus:
                    00:a7:6f:44:c2:11:cc:2c:f4:2a:a5:a8:08:53:4b:
                    0e:cd:96:23:bb:15:4a:2a:dd:f9:a7:19:2b:91:28:
                    e8:73:a3:57:b4:49:3a:37:82:8f:15:38:5a:aa:af:
                    ad:72:26:2e:84:c2:0d:de:fc:f0:be:3b:a2:11:a9:
                    12:20:d4:3d:de:62:85:85:91:08:60:db:c0:4a:bb:
                    89:b6:f4:91:1e:51:a3:b2:f7:08:99:df:48:4a:59:
                    84:d1:aa:09:36:0d:cd:68:a5:ae:41:c8:d7:1a:d8:
                    ea:49:87:20:22:27:f9:45:54:3e:c7:c8:00:44:7e:
                    34:72:aa:8d:2d:4d:6a:3e:75:89:e2:d4:17:57:f9:
                    cd:2b:d0:b7:14:6a:54:1b:61:af:9b:68:22:b1:16:
                    73:eb:05:6c:41:ea:ed:10:4e:bc:83:04:68:c8:3a:
                    e1:03:12:ad:28:5c:24:4c:19:a1:7e:d8:ef:1b:80:
                    e4:0e:49:0c:69:86:f6:1e:e7:01:fb:2a:6f:56:1b:
                    6d:0a:ad:e9:29:3f:31:bb:48:28:40:79:2b:b5:f3:
                    aa:ec:e9:09:4c:82:fc:97:28:19:a3:3a:c0:d2:5e:
                    a3:8a:98:c8:8a:b7:d2:c4:90:bc:ff:cc:47:13:90:
                    ad:00:ab:8a:ec:f7:94:35:09:60:10:35:9f:32:c5:
                    00:1b
                Exponent: 65537 (0x10001)
        X509v3 extensions:
            X509v3 Subject Key Identifier: 
                9C:7B:3A:10:B3:08:99:05:00:AF:3E:E0:A4:5D:D9:AF:82:BC:4D:C0
            X509v3 Authority Key Identifier: 
                keyid:A3:F5:71:8A:60:80:3C:93:64:17:D9:2E:B5:C0:CE:A9:C1:14:17:C4
                DirName:/C=US/ST=Washington/L=Seattle/O=wolfSSL Inc./OU=Engineering/CN=chainJ-ICA3-no_pathlen/emailAddress=info@wolfssl.com
                serial:64

            X509v3 Basic Constraints: 
                CA:TRUE
            X509v3 Key Usage: 
                Certificate Sign, CRL Sign
    Signature Algorithm: sha256WithRSAEncryption
         5b:2f:19:b9:3a:ba:5a:1e:ff:09:97:46:66:d3:6e:8b:63:75:
         68:1a:59:56:05:0d:6c:a4:16:10:17:ff:d2:49:bb:b0:4f:e7:
         9f:4e:c2:12:4d:fa:5e:5d:82:fe:f5:eb:31:01:86:c4:5d:e1:
         ae:4c:7d:34:fd:ea:3a:3a:4a:97:01:b0:34:0a:7c:0d:8c:a8:
         aa:0e:ae:82:65:8b:f4:09:c3:ec:e3:39:e4:0f:c9:cd:71:8e:
         a1:7a:e0:84:f3:b1:1e:77:3d:d9:c0:67:de:d3:ea:84:b1:8f:
         88:f9:c1:56:6d:be:78:f4:45:19:8e:69:e1:e0:d8:39:a2:ed:
         9b:c4:9f:a0:bc:0b:25:ba:92:3f:f3:dd:2d:60:62:03:a7:de:
         72:1f:df:6f:12:62:29:fb:d6:ff:97:ff:23:59:eb:a2:0c:c7:
         a0:c8:67:a5:fc:a0:77:16:e8:5d:0b:02:d7:5b:05:65:13:12:
         8f:56:6f:4d:94:e0:d8:f7:c9:2f:f6:2e:8e:f7:f6:3d:b8:58:
         d9:a1:4e:d8:48:3d:b2:3e:35:d5:d7:40:e4:10:43:76:51:e6:
         d7:bc:f4:e1:80:b7:03:83:59:59:b8:c6:a5:ac:10:df:53:26:
         bf:d1:c6:5a:9e:4a:0d:33:72:f2:91:c6:fc:24:51:2d:17:53:
         62:32:af:d7
-----BEGIN CERTIFICATE-----
MIIE1jCCA76gAwIBAgIBZDANBgkqhkiG9w0BAQsFADCBozELMAkGA1UEBhMCVVMx
EzARBgNVBAgMCldhc2hpbmd0b24xEDAOBgNVBAcMB1NlYXR0bGUxFTATBgNVBAoM
DHdvbGZTU0wgSW5jLjEUMBIGA1UECwwLRW5naW5lZXJpbmcxHzAdBgNVBAMMFmNo
YWluSi1JQ0EyLW5vX3BhdGhsZW4xHzAdBgkqhkiG9w0BCQEWEGluZm9Ad29sZnNz
bC5jb20wHhcNMjIwMjE1MTI1MDI2WhcNMjQxMTExMTI1MDI2WjCBozELMAkGA1UE
BhMCVVMxEzARBgNVBAgMCldhc2hpbmd0b24xEDAOBgNVBAcMB1NlYXR0bGUxFTAT
BgNVBAoMDHdvbGZTU0wgSW5jLjEUMBIGA1UECwwLRW5naW5lZXJpbmcxHzAdBgNV
BAMMFmNoYWluSi1JQ0ExLW5vX3BhdGhsZW4xHzAdBgkqhkiG9w0BCQEWEGluZm9A
d29sZnNzbC5jb20wggEiMA0GCSqGSIb3DQEBAQUAA4IBDwAwggEKAoIBAQCnb0TC
Ecws9CqlqAhTSw7NliO7FUoq3fmnGSuRKOhzo1e0STo3go8VOFqqr61yJi6Ewg3e
/PC+O6IRqRIg1D3eYoWFkQhg28BKu4m29JEeUaOy9wiZ30hKWYTRqgk2Dc1opa5B
yNca2OpJhyAiJ/lFVD7HyABEfjRyqo0tTWo+dYni1BdX+c0r0LcUalQbYa+baCKx
FnPrBWxB6u0QTryDBGjIOuEDEq0oXCRMGaF+2O8bgOQOSQxphvYe5wH7Km9WG20K
rekpPzG7SChAeSu186rs6QlMgvyXKBmjOsDSXqOKmMiKt9LEkLz/zEcTkK0Aq4rs
95Q1CWAQNZ8yxQAbAgMBAAGjggERMIIBDTAdBgNVHQ4EFgQUnHs6ELMImQUArz7g
pF3Zr4K8TcAwgdAGA1UdIwSByDCBxYAUo/VximCAPJNkF9kutcDOqcEUF8Shgamk
gaYwgaMxCzAJBgNVBAYTAlVTMRMwEQYDVQQIDApXYXNoaW5ndG9uMRAwDgYDVQQH
DAdTZWF0dGxlMRUwEwYDVQQKDAx3b2xmU1NMIEluYy4xFDASBgNVBAsMC0VuZ2lu
ZWVyaW5nMR8wHQYDVQQDDBZjaGFpbkotSUNBMy1ub19wYXRobGVuMR8wHQYJKoZI
hvcNAQkBFhBpbmZvQHdvbGZzc2wuY29tggFkMAwGA1UdEwQFMAMBAf8wCwYDVR0P
BAQDAgEGMA0GCSqGSIb3DQEBCwUAA4IBAQBbLxm5OrpaHv8Jl0Zm026LY3VoGllW
BQ1spBYQF//SSbuwT+efTsISTfpeXYL+9esxAYbEXeGuTH00/eo6OkqXAbA0CnwN
jKiqDq6CZYv0CcPs4znkD8nNcY6heuCE87Eedz3ZwGfe0+qEsY+I+cFWbb549EUZ
jmnh4Ng5ou2bxJ+gvAslupI/890tYGIDp95yH99vEmIp+9b/l/8jWeuiDMegyGel
/KB3FuhdCwLXWwVlExKPVm9NlODY98kv9i6O9/Y9uFjZoU7YSD2yPjXV10DkEEN2
UebXvPThgLcDg1lZuMalrBDfUya/0cZankoNM3Lykcb8JFEtF1NiMq/X
-----END CERTIFICATE-----
Certificate:
    Data:
        Version: 3 (0x2)
        Serial Number: 100 (0x64)
        Signature Algorithm: sha256WithRSAEncryption
        Issuer: C = US, ST = Washington, L = Seattle, O = wolfSSL Inc., OU = Engineering, CN = chainJ-ICA3-no_pathlen, emailAddress = info@wolfssl.com
        Validity
            Not Before: Feb 15 12:50:26 2022 GMT
            Not After : Nov 11 12:50:26 2024 GMT
        Subject: C = US, ST = Washington, L = Seattle, O = wolfSSL Inc., OU = Engineering, CN = chainJ-ICA2-no_pathlen, emailAddress = info@wolfssl.com
        Subject Public Key Info:
            Public Key Algorithm: rsaEncryption
                RSA Public-Key: (2048 bit)
                Modulus:
                    00:bb:29:fd:89:aa:82:e0:1d:04:78:69:ec:61:58:
                    51:52:84:7e:6b:55:69:2c:f4:23:d6:1f:d8:ed:ab:
                    19:96:38:7b:c6:88:d7:7d:85:93:00:35:40:0b:c0:
                    a9:ff:66:0f:9e:a1:1d:88:6e:a9:8a:f1:ad:47:b4:
                    71:c9:15:50:c6:0f:35:9e:95:4a:66:d3:bd:1b:38:
                    7b:dc:67:85:97:1b:b3:63:c9:72:d6:43:5a:f1:5e:
                    35:f6:05:96:c7:40:bc:23:ab:94:34:82:59:02:b2:
                    33:d0:e6:7f:19:57:65:68:3c:04:61:50:ef:22:95:
                    4f:ef:18:bf:15:b1:4d:8e:cd:a7:a0:98:22:f5:1c:
                    05:01:6b:4b:35:bf:88:c3:47:c3:24:29:b4:45:cb:
                    95:a1:ac:16:1d:dd:b8:68:ac:51:39:24:27:6a:be:
                    31:f1:ec:06:10:55:be:44:02:4f:e8:12:7b:d6:fe:
                    32:c9:48:37:6b:20:68:cb:53:f5:49:3a:ae:4a:c7:
                    43:c1:af:e6:53:11:d9:f8:71:1a:a2:d6:37:c7:2b:
                    45:50:49:51:4f:55:6c:3f:1e:69:7b:58:12:3a:7e:
                    59:a0:57:9d:28:9c:8a:6d:82:e7:13:15:3b:04:8f:
                    e2:82:0f:2f:cf:d9:25:d9:65:a3:3c:03:c0:cd:b6:
                    51:d5
                Exponent: 65537 (0x10001)
        X509v3 extensions:
            X509v3 Subject Key Identifier: 
                A3:F5:71:8A:60:80:3C:93:64:17:D9:2E:B5:C0:CE:A9:C1:14:17:C4
            X509v3 Authority Key Identifier: 
                keyid:CD:97:49:78:F7:31:61:ED:2F:71:1A:68:E9:45:2C:40:78:51:93:5B
                DirName:/C=US/ST=Washington/L=Seattle/O=wolfSSL Inc./OU=Engineering/CN=chainJ-ICA4-pathlen2/emailAddress=info@wolfssl.com
                serial:64

            X509v3 Basic Constraints: 
                CA:TRUE
            X509v3 Key Usage: 
                Certificate Sign, CRL Sign
    Signature Algorithm: sha256WithRSAEncryption
         2e:c3:9b:a2:47:92:bf:0d:58:16:71:ea:99:cd:26:53:8d:9b:
         3c:c8:b1:24:6e:ad:9f:92:e6:5a:fa:e5:a7:d5:65:ca:4e:30:
         3b:37:ff:e5:04:61:10:5b:a2:11:41:6a:da:40:ff:10:1f:39:
         e1:08:0b:4d:bd:33:e5:38:43:85:e9:f7:d5:e8:6a:66:f4:14:
         1c:d2:ad:91:6f:bf:ba:8d:ec:7d:ee:89:00:a0:48:34:b9:56:
         34:42:80:50:84:21:04:27:31:55:49:3a:5c:95:3a:5b:71:94:
         47:8c:df:0a:2c:f7:ee:30:52:61:fe:20:7c:1e:58:24:65:f0:
         7e:d3:6b:05:4a:e0:39:c4:24:d8:8b:ef:1c:b7:85:ed:b0:77:
         87:da:bd:33:0d:bd:4f:4a:65:76:7e:9e:6f:ed:0f:6f:72:9a:
         93:93:f8:e9:b4:8d:4b:33:24:b0:d7:38:33:45:77:00:d8:71:
         fa:37:7d:32:51:96:a9:ee:cd:02:f1:96:fe:dd:61:64:d9:64:
         f1:a2:13:95:3d:cc:56:86:9b:db:f9:3b:4f:85:88:96:aa:c9:
         f5:c2:df:2d:0e:56:6c:ca:26:c4:e2:e7:25:5b:d9:ee:47:6f:
         db:01:48:0f:b2:d8:43:fe:02:e1:a4:9b:7e:33:81:54:c3:6e:
         67:5f:81:84
-----BEGIN CERTIFICATE-----
MIIE1DCCA7ygAwIBAgIBZDANBgkqhkiG9w0BAQsFADCBozELMAkGA1UEBhMCVVMx
EzARBgNVBAgMCldhc2hpbmd0b24xEDAOBgNVBAcMB1NlYXR0bGUxFTATBgNVBAoM
DHdvbGZTU0wgSW5jLjEUMBIGA1UECwwLRW5naW5lZXJpbmcxHzAdBgNVBAMMFmNo
YWluSi1JQ0EzLW5vX3BhdGhsZW4xHzAdBgkqhkiG9w0BCQEWEGluZm9Ad29sZnNz
bC5jb20wHhcNMjIwMjE1MTI1MDI2WhcNMjQxMTExMTI1MDI2WjCBozELMAkGA1UE
BhMCVVMxEzARBgNVBAgMCldhc2hpbmd0b24xEDAOBgNVBAcMB1NlYXR0bGUxFTAT
BgNVBAoMDHdvbGZTU0wgSW5jLjEUMBIGA1UECwwLRW5naW5lZXJpbmcxHzAdBgNV
BAMMFmNoYWluSi1JQ0EyLW5vX3BhdGhsZW4xHzAdBgkqhkiG9w0BCQEWEGluZm9A
d29sZnNzbC5jb20wggEiMA0GCSqGSIb3DQEBAQUAA4IBDwAwggEKAoIBAQC7Kf2J
qoLgHQR4aexhWFFShH5rVWks9CPWH9jtqxmWOHvGiNd9hZMANUALwKn/Zg+eoR2I
bqmK8a1HtHHJFVDGDzWelUpm070bOHvcZ4WXG7NjyXLWQ1rxXjX2BZbHQLwjq5Q0
glkCsjPQ5n8ZV2VoPARhUO8ilU/vGL8VsU2OzaegmCL1HAUBa0s1v4jDR8MkKbRF
y5WhrBYd3bhorFE5JCdqvjHx7AYQVb5EAk/oEnvW/jLJSDdrIGjLU/VJOq5Kx0PB
r+ZTEdn4cRqi1jfHK0VQSVFPVWw/Hml7WBI6flmgV50onIptgucTFTsEj+KCDy/P
2SXZZaM8A8DNtlHVAgMBAAGjggEPMIIBCzAdBgNVHQ4EFgQUo/VximCAPJNkF9ku
tcDOqcEUF8Qwgc4GA1UdIwSBxjCBw4AUzZdJePcxYe0vcRpo6UUsQHhRk1uhgaek
gaQwgaExCzAJBgNVBAYTAlVTMRMwEQYDVQQIDApXYXNoaW5ndG9uMRAwDgYDVQQH
DAdTZWF0dGxlMRUwEwYDVQQKDAx3b2xmU1NMIEluYy4xFDASBgNVBAsMC0VuZ2lu
ZWVyaW5nMR0wGwYDVQQDDBRjaGFpbkotSUNBNC1wYXRobGVuMjEfMB0GCSqGSIb3
DQEJARYQaW5mb0B3b2xmc3NsLmNvbYIBZDAMBgNVHRMEBTADAQH/MAsGA1UdDwQE
AwIBBjANBgkqhkiG9w0BAQsFAAOCAQEALsObokeSvw1YFnHqmc0mU42bPMixJG6t
n5LmWvrlp9Vlyk4wOzf/5QRhEFuiEUFq2kD/EB854QgLTb0z5ThDhen31ehqZvQU
HNKtkW+/uo3sfe6JAKBINLlWNEKAUIQhBCcxVUk6XJU6W3GUR4zfCiz37jBSYf4g
fB5YJGXwftNrBUrgOcQk2IvvHLeF7bB3h9q9Mw29T0pldn6eb+0Pb3Kak5P46bSN
SzMksNc4M0V3ANhx+jd9MlGWqe7NAvGW/t1hZNlk8aITlT3MVoab2/k7T4WIlqrJ
9cLfLQ5WbMomxOLnJVvZ7kdv2wFID7LYQ/4C4aSbfjOBVMNuZ1+BhA==
-----END CERTIFICATE-----
Certificate:
    Data:
        Version: 3 (0x2)
        Serial Number: 100 (0x64)
        Signature Algorithm: sha256WithRSAEncryption
        Issuer: C = US, ST = Washington, L = Seattle, O = wolfSSL Inc., OU = Engineering, CN = chainJ-ICA4-pathlen2, emailAddress = info@wolfssl.com
        Validity
            Not Before: Feb 15 12:50:26 2022 GMT
            Not After : Nov 11 12:50:26 2024 GMT
        Subject: C = US, ST = Washington, L = Seattle, O = wolfSSL Inc., OU = Engineering, CN = chainJ-ICA3-no_pathlen, emailAddress = info@wolfssl.com
        Subject Public Key Info:
            Public Key Algorithm: rsaEncryption
                RSA Public-Key: (2048 bit)
                Modulus:
                    00:d8:aa:f6:05:95:70:5a:53:c7:66:10:aa:90:79:
                    3b:cb:78:2a:ef:5f:43:22:71:7c:6d:47:99:a7:8b:
                    39:e1:e7:4e:48:29:48:25:e1:b5:f5:25:df:64:7b:
                    ea:ed:aa:1f:8b:0d:e7:eb:f5:2f:ae:2a:5a:3d:50:
                    c7:fb:ef:0b:8b:44:0b:63:94:be:c6:d7:63:45:2e:
                    85:96:00:5c:be:7e:10:09:b3:d0:aa:7c:de:20:f8:
                    75:39:23:85:ee:84:13:88:54:2a:96:f5:16:27:9f:
                    8b:b0:a6:2a:f4:9d:13:8c:71:1c:0c:a6:59:53:ec:
                    f9:0b:2b:c9:45:13:d6:12:ef:39:d1:8e:9c:9e:ae:
                    3c:bb:b6:d8:10:ac:b7:59:49:5b:73:00:be:af:92:
                    21:14:54:a3:fa:b6:17:ae:b6:dc:b1:f1:61:f0:75:
                    07:43:5e:48:fa:e7:80:56:cf:df:ad:46:52:85:42:
                    fb:a7:70:53:14:c6:b7:51:fa:23:f0:f5:4b:d1:bb:
                    3f:9b:fc:35:ca:d2:85:f1:a0:77:02:06:7c:79:99:
                    13:b5:68:b4:16:47:42:88:f7:bc:eb:78:b2:e8:11:
                    2f:62:f6:da:f9:ef:1b:e0:9f:b5:d5:32:65:b5:4e:
                    e4:be:36:6b:65:65:1a:96:a2:47:b5:3e:9f:b0:0d:
                    63:41
                Exponent: 65537 (0x10001)
        X509v3 extensions:
            X509v3 Subject Key Identifier: 
                CD:97:49:78:F7:31:61:ED:2F:71:1A:68:E9:45:2C:40:78:51:93:5B
            X509v3 Authority Key Identifier: 
                keyid:FC:18:13:52:BB:33:4A:DB:1C:5B:D1:80:98:3E:40:86:95:58:72:F9
                DirName:/C=US/ST=Montana/L=Bozeman/O=Sawtooth/OU=Consulting/CN=www.wolfssl.com/emailAddress=info@wolfssl.com
                serial:64

            X509v3 Basic Constraints: 
                CA:TRUE
            X509v3 Key Usage: 
                Certificate Sign, CRL Sign
    Signature Algorithm: sha256WithRSAEncryption
         2c:da:81:64:69:af:80:e9:90:34:88:6f:94:32:96:f0:98:45:
         a5:14:19:90:94:f1:f2:31:09:43:48:f0:55:e3:95:85:67:94:
         c7:03:09:7c:0b:84:8a:6e:6f:57:73:04:0d:77:c5:53:56:52:
         f0:44:4c:29:0a:98:55:8e:05:22:ea:1a:5e:84:ef:22:a8:a9:
         29:54:e0:bb:60:14:32:b1:59:81:bc:4f:6d:3d:10:fc:33:73:
         5a:eb:f9:00:66:b6:71:01:e4:39:d2:3f:3f:6d:f3:5e:ae:ac:
         c5:cb:78:8c:3e:6f:98:d9:c1:be:55:50:99:8f:db:62:e4:5a:
         42:72:f6:9c:8d:77:8f:c3:2c:5e:8f:eb:52:7c:ed:87:8c:44:
         6c:d5:24:59:cb:d4:24:cb:90:82:a9:47:df:86:95:2c:49:d4:
         8d:b0:da:c6:5d:d2:bf:1e:ec:82:67:3f:37:66:12:fa:3e:55:
         80:b0:29:28:61:79:dd:c9:4a:22:c9:ef:80:14:7c:d7:bb:29:
         5d:d1:b2:b7:54:df:61:2a:41:c5:45:64:d5:80:e6:43:a0:1f:
         a5:28:67:41:13:ce:3d:dc:27:8d:39:44:b3:98:d3:1c:a1:cf:
         58:55:72:33:75:16:9a:bd:3e:73:9f:07:ee:e7:4f:fb:f5:a0:
         6b:c5:8e:8f
-----BEGIN CERTIFICATE-----
MIIExDCCA6ygAwIBAgIBZDANBgkqhkiG9w0BAQsFADCBoTELMAkGA1UEBhMCVVMx
EzARBgNVBAgMCldhc2hpbmd0b24xEDAOBgNVBAcMB1NlYXR0bGUxFTATBgNVBAoM
DHdvbGZTU0wgSW5jLjEUMBIGA1UECwwLRW5naW5lZXJpbmcxHTAbBgNVBAMMFGNo
YWluSi1JQ0E0LXBhdGhsZW4yMR8wHQYJKoZIhvcNAQkBFhBpbmZvQHdvbGZzc2wu
Y29tMB4XDTIyMDIxNTEyNTAyNloXDTI0MTExMTEyNTAyNlowgaMxCzAJBgNVBAYT
AlVTMRMwEQYDVQQIDApXYXNoaW5ndG9uMRAwDgYDVQQHDAdTZWF0dGxlMRUwEwYD
VQQKDAx3b2xmU1NMIEluYy4xFDASBgNVBAsMC0VuZ2luZWVyaW5nMR8wHQYDVQQD
DBZjaGFpbkotSUNBMy1ub19wYXRobGVuMR8wHQYJKoZIhvcNAQkBFhBpbmZvQHdv
bGZzc2wuY29tMIIBIjANBgkqhkiG9w0BAQEFAAOCAQ8AMIIBCgKCAQEA2Kr2BZVw
WlPHZhCqkHk7y3gq719DInF8bUeZp4s54edOSClIJeG19SXfZHvq7aofiw3n6/Uv
ripaPVDH++8Li0QLY5S+xtdjRS6FlgBcvn4QCbPQqnzeIPh1OSOF7oQTiFQqlvUW
J5+LsKYq9J0TjHEcDKZZU+z5CyvJRRPWEu850Y6cnq48u7bYEKy3WUlbcwC+r5Ih
FFSj+rYXrrbcsfFh8HUHQ15I+ueAVs/frUZShUL7p3BTFMa3Ufoj8PVL0bs/m/w1
ytKF8aB3AgZ8eZkTtWi0FkdCiPe863iy6BEvYvba+e8b4J+11TJltU7kvjZrZWUa
lqJHtT6fsA1jQQIDAQABo4IBATCB/jAdBgNVHQ4EFgQUzZdJePcxYe0vcRpo6UUs
QHhRk1swgcEGA1UdIwSBuTCBtoAU/BgTUrszStscW9GAmD5AhpVYcvmhgZqkgZcw
gZQxCzAJBgNVBAYTAlVTMRAwDgYDVQQIDAdNb250YW5hMRAwDgYDVQQHDAdCb3pl
bWFuMREwDwYDVQQKDAhTYXd0b290aDETMBEGA1UECwwKQ29uc3VsdGluZzEYMBYG
A1UEAwwPd3d3LndvbGZzc2wuY29tMR8wHQYJKoZIhvcNAQkBFhBpbmZvQHdvbGZz
c2wuY29tggFkMAwGA1UdEwQFMAMBAf8wCwYDVR0PBAQDAgEGMA0GCSqGSIb3DQEB
CwUAA4IBAQAs2oFkaa+A6ZA0iG+UMpbwmEWlFBmQlPHyMQlDSPBV45WFZ5THAwl8
C4SKbm9XcwQNd8VTVlLwREwpCphVjgUi6hpehO8iqKkpVOC7YBQysVmBvE9tPRD8
M3Na6/kAZrZxAeQ50j8/bfNerqzFy3iMPm+Y2cG+VVCZj9ti5FpCcvacjXePwyxe
j+tSfO2HjERs1SRZy9Qky5CCqUffhpUsSdSNsNrGXdK/HuyCZz83ZhL6PlWAsCko
YXndyUoiye+AFHzXuyld0bK3VN9hKkHFRWTVgOZDoB+lKGdBE8493CeNOUSzmNMc
oc9YVXIzdRaavT5znwfu50/79aBrxY6P
-----END CERTIFICATE-----
Certificate:
    Data:
        Version: 3 (0x2)
        Serial Number: 100 (0x64)
        Signature Algorithm: sha256WithRSAEncryption
        Issuer: C = US, ST = Montana, L = Bozeman, O = Sawtooth, OU = Consulting, CN = www.wolfssl.com, emailAddress = info@wolfssl.com
        Validity
            Not Before: Feb 15 12:50:26 2022 GMT
            Not After : Nov 11 12:50:26 2024 GMT
        Subject: C = US, ST = Washington, L = Seattle, O = wolfSSL Inc., OU = Engineering, CN = chainJ-ICA4-pathlen2, emailAddress = info@wolfssl.com
        Subject Public Key Info:
            Public Key Algorithm: rsaEncryption
                RSA Public-Key: (2048 bit)
                Modulus:
                    00:9d:4a:ee:6b:ff:b6:ec:88:21:23:84:03:b6:88:
                    bb:3e:5a:1b:95:03:2f:24:53:2d:57:3f:11:38:5d:
                    12:1d:40:6b:10:db:c2:d3:e4:dd:80:77:74:7b:88:
                    44:65:e0:cf:52:c5:8a:42:e5:6e:b7:6a:ab:50:a0:
                    2e:29:c2:fe:ba:d5:c7:da:6b:91:26:8f:fc:1e:06:
                    17:f0:de:58:87:ef:1e:a6:91:12:39:68:a5:05:f3:
                    8c:67:c9:e5:99:18:a4:fc:90:3f:bd:a6:ca:f2:a6:
                    dd:b5:e6:93:cb:14:89:83:3c:88:5a:31:ab:e3:66:
                    2a:1b:87:c5:85:03:45:b0:ce:e1:0f:c1:0f:92:70:
                    d7:ac:65:ea:a8:09:c1:fe:1d:db:b7:e7:dd:98:d3:
                    c6:b1:16:b4:54:58:c1:aa:ba:a1:cf:19:14:a7:e4:
                    55:a6:da:bb:1f:9e:d1:85:00:e0:8d:4a:c4:d2:86:
                    08:75:fd:d8:1e:85:21:6c:27:8f:18:d5:44:73:58:
                    ab:94:75:4a:36:3d:8d:4d:c6:7a:86:9d:00:db:c5:
                    ba:be:70:02:83:bf:6e:d8:31:89:b3:f2:16:98:be:
                    27:f6:14:5a:e9:d4:72:67:8d:a9:df:76:27:bf:19:
                    ac:20:59:28:5b:1b:42:d9:d5:5b:6d:fb:6e:a2:5e:
                    d3:e9
                Exponent: 65537 (0x10001)
        X509v3 extensions:
            X509v3 Subject Key Identifier: 
                FC:18:13:52:BB:33:4A:DB:1C:5B:D1:80:98:3E:40:86:95:58:72:F9
            X509v3 Authority Key Identifier: 
                keyid:27:8E:67:11:74:C3:26:1D:3F:ED:33:63:B3:A4:D8:1D:30:E5:E8:D5
                DirName:/C=US/ST=Montana/L=Bozeman/O=Sawtooth/OU=Consulting/CN=www.wolfssl.com/emailAddress=info@wolfssl.com
                serial:26:8C:93:F9:F9:F4:1E:B3:01:72:94:55:67:6D:E2:F8:3D:DA:E9:F4

            X509v3 Basic Constraints: 
                CA:TRUE, pathlen:2
            X509v3 Key Usage: 
                Certificate Sign, CRL Sign
    Signature Algorithm: sha256WithRSAEncryption
         4d:d4:a0:ef:22:44:3d:60:f4:0e:ad:d9:3d:03:99:d6:71:f3:
         ff:14:a5:35:24:ef:12:35:3b:ce:0c:91:be:3b:d6:b3:83:53:
         30:83:46:f8:ad:48:1a:c4:b9:3d:05:cd:69:f8:f9:a2:c5:aa:
         a3:f1:61:01:d6:71:81:76:be:c3:b3:31:2f:63:79:e5:41:43:
         cb:b2:63:3a:39:b9:86:ad:15:76:85:7a:5c:7a:6b:30:a6:91:
         d6:9d:ff:13:b4:7c:e8:28:09:5f:9c:0d:d2:59:a1:38:23:9a:
         5a:11:65:6e:a5:60:1b:a3:95:73:2a:77:93:ec:2f:c1:96:82:
         fa:fb:aa:0f:b0:3b:46:2b:75:6b:38:f8:1f:cf:5d:bd:68:bd:
         1a:b8:7b:37:0f:c5:02:69:a5:b5:05:2b:5d:8f:cb:7a:4c:d7:
         2d:6b:df:79:b2:11:03:30:a2:e1:37:b0:3b:14:3a:f9:30:86:
         a4:8c:d1:58:54:75:23:8a:01:b8:20:72:b5:53:7d:70:4b:f1:
         aa:b9:bb:4c:f3:fa:fb:75:6c:20:ee:9c:38:fa:05:60:22:3e:
         16:5a:6f:df:b3:0d:e5:df:ca:6e:61:e5:0c:29:98:9b:0f:b7:
         0d:7d:07:5e:30:9f:1e:05:0e:86:bc:f9:8b:f6:36:e0:6d:1d:
         17:78:a4:0a
-----BEGIN CERTIFICATE-----
MIIEzDCCA7SgAwIBAgIBZDANBgkqhkiG9w0BAQsFADCBlDELMAkGA1UEBhMCVVMx
EDAOBgNVBAgMB01vbnRhbmExEDAOBgNVBAcMB0JvemVtYW4xETAPBgNVBAoMCFNh
d3Rvb3RoMRMwEQYDVQQLDApDb25zdWx0aW5nMRgwFgYDVQQDDA93d3cud29sZnNz
bC5jb20xHzAdBgkqhkiG9w0BCQEWEGluZm9Ad29sZnNzbC5jb20wHhcNMjIwMjE1
MTI1MDI2WhcNMjQxMTExMTI1MDI2WjCBoTELMAkGA1UEBhMCVVMxEzARBgNVBAgM
Cldhc2hpbmd0b24xEDAOBgNVBAcMB1NlYXR0bGUxFTATBgNVBAoMDHdvbGZTU0wg
SW5jLjEUMBIGA1UECwwLRW5naW5lZXJpbmcxHTAbBgNVBAMMFGNoYWluSi1JQ0E0
LXBhdGhsZW4yMR8wHQYJKoZIhvcNAQkBFhBpbmZvQHdvbGZzc2wuY29tMIIBIjAN
BgkqhkiG9w0BAQEFAAOCAQ8AMIIBCgKCAQEAnUrua/+27IghI4QDtoi7PloblQMv
JFMtVz8ROF0SHUBrENvC0+TdgHd0e4hEZeDPUsWKQuVut2qrUKAuKcL+utXH2muR
Jo/8HgYX8N5Yh+8eppESOWilBfOMZ8nlmRik/JA/vabK8qbdteaTyxSJgzyIWjGr
42YqG4fFhQNFsM7hD8EPknDXrGXqqAnB/h3bt+fdmNPGsRa0VFjBqrqhzxkUp+RV
ptq7H57RhQDgjUrE0oYIdf3YHoUhbCePGNVEc1irlHVKNj2NTcZ6hp0A28W6vnAC
g79u2DGJs/IWmL4n9hRa6dRyZ42p33YnvxmsIFkoWxtC2dVbbftuol7T6QIDAQAB
o4IBGDCCARQwHQYDVR0OBBYEFPwYE1K7M0rbHFvRgJg+QIaVWHL5MIHUBgNVHSME
gcwwgcmAFCeOZxF0wyYdP+0zY7Ok2B0w5ejVoYGapIGXMIGUMQswCQYDVQQGEwJV
UzEQMA4GA1UECAwHTW9udGFuYTEQMA4GA1UEBwwHQm96ZW1hbjERMA8GA1UECgwI
U2F3dG9vdGgxEzARBgNVBAsMCkNvbnN1bHRpbmcxGDAWBgNVBAMMD3d3dy53b2xm
c3NsLmNvbTEfMB0GCSqGSIb3DQEJARYQaW5mb0B3b2xmc3NsLmNvbYIUJoyT+fn0
HrMBcpRVZ23i+D3a6fQwDwYDVR0TBAgwBgEB/wIBAjALBgNVHQ8EBAMCAQYwDQYJ
KoZIhvcNAQELBQADggEBAE3UoO8iRD1g9A6t2T0DmdZx8/8UpTUk7xI1O84Mkb47
1rODUzCDRvitSBrEuT0FzWn4+aLFqqPxYQHWcYF2vsOzMS9jeeVBQ8uyYzo5uYat
FXaFelx6azCmkdad/xO0fOgoCV+cDdJZoTgjmloRZW6lYBujlXMqd5PsL8GWgvr7
qg+wO0YrdWs4+B/PXb1ovRq4ezcPxQJppbUFK12Py3pM1y1r33myEQMwouE3sDsU
OvkwhqSM0VhUdSOKAbggcrVTfXBL8aq5u0zz+vt1bCDunDj6BWAiPhZab9+zDeXf
ym5h5QwpmJsPtw19B14wnx4FDoa8+Yv2NuBtHRd4pAo=
-----END CERTIFICATE-----
