Certificate:
    Data:
        Version: 3 (0x2)
        Serial Number: 101 (0x65)
        Signature Algorithm: sha256WithRSAEncryption
        Issuer: C = US, ST = Washington, L = Seattle, O = wolfSSL Inc., OU = Engineering, CN = chainG-ICA1-pathlen0, emailAddress = info@wolfssl.com
        Validity
            Not Before: Dec 20 23:07:25 2021 GMT
            Not After : Sep 15 23:07:25 2024 GMT
        Subject: C = US, ST = Washington, L = Seattle, O = wolfSSL Inc., OU = Engineering, CN = chainG-entity, emailAddress = info@wolfssl.com
        Subject Public Key Info:
            Public Key Algorithm: rsaEncryption
                RSA Public-Key: (2048 bit)
                Modulus:
                    00:bb:7b:82:23:a2:34:e7:cb:89:4e:64:cc:f2:98:
                    c8:65:8f:e2:69:55:54:4b:3c:8b:c0:1f:67:37:7f:
                    09:cb:9e:df:5e:75:f6:99:83:12:ac:15:23:cf:64:
                    a4:10:16:a5:10:af:28:86:00:20:4e:f3:4d:fd:08:
                    fb:a1:a7:18:4c:13:1e:4d:90:2e:e6:9a:e3:28:03:
                    b4:f4:83:ce:fd:a2:a9:86:56:02:62:33:9f:6e:98:
                    7e:0f:cc:06:71:31:8a:93:d2:d9:a3:1d:08:7a:92:
                    f8:7e:bf:90:5f:a1:e6:2b:64:58:bb:a6:9a:c9:19:
                    97:fd:c9:a9:f7:08:27:8a:f3:be:e2:db:88:25:84:
                    91:13:06:e2:63:bc:e1:37:82:7e:6f:5a:da:f0:e2:
                    eb:a1:2a:8f:5d:52:11:af:e2:f5:89:42:79:83:b8:
                    c0:a5:95:dc:42:c6:1c:90:51:1e:33:f3:f1:c2:e4:
                    d2:7b:87:c3:64:90:b7:5f:9b:38:ef:d2:d0:4f:d5:
                    51:aa:e0:3a:d1:c3:01:03:e7:32:b1:27:c6:48:5a:
                    c0:ac:26:8d:94:61:76:f8:98:ff:30:6d:aa:55:c3:
                    63:fd:a4:a4:1b:3c:6b:e8:05:75:41:17:5d:ad:c9:
                    17:9b:c3:4d:6e:9f:7d:7d:36:fe:c0:a3:99:d6:e5:
                    92:ad
                Exponent: 65537 (0x10001)
        X509v3 extensions:
            X509v3 Subject Key Identifier: 
                21:3A:72:3B:95:38:DF:99:DE:62:25:21:D0:14:81:6E:CA:AA:FB:A1
            X509v3 Authority Key Identifier: 
                keyid:47:C0:19:4B:ED:C4:DA:97:B1:60:EA:5A:0A:42:6D:A5:D3:D8:25:31
                DirName:/C=US/ST=Washington/L=Seattle/O=wolfSSL Inc./OU=Engineering/CN=chainG-ICA2-pathlen1/emailAddress=info@wolfssl.com
                serial:64

            X509v3 Basic Constraints: 
                CA:FALSE
    Signature Algorithm: sha256WithRSAEncryption
         ca:65:da:90:a0:ff:8b:98:db:33:6e:3c:4d:f1:43:81:53:a7:
         99:fb:d5:84:2c:30:9d:88:e6:2e:cb:1d:d7:69:a5:8b:c3:c7:
         25:52:4d:60:d2:48:d8:fa:82:ef:a2:d4:77:ff:e2:67:28:fa:
         4e:e8:ec:39:39:61:c4:93:d7:5e:7e:75:5c:68:00:15:c0:0e:
         08:60:18:03:d8:ff:a7:a5:dc:39:03:61:44:3a:04:04:57:40:
         b7:a5:0e:50:02:1d:98:1a:77:99:a9:0d:9c:0e:e5:96:ad:07:
         24:0c:b9:29:cc:ad:7e:41:a7:54:a8:ab:6c:6a:47:2f:90:b4:
         46:7f:9e:21:64:76:b5:27:f6:11:7f:5b:75:75:d9:e0:d8:5f:
         f2:fa:0a:03:91:eb:58:a2:20:35:d4:e9:91:0e:2e:c2:94:b0:
         06:d5:1e:a0:35:b9:35:2b:e3:c6:2b:72:6c:cc:bd:dc:5b:3f:
         0b:55:b6:9b:57:49:7c:29:7e:a5:40:4a:58:ce:87:2f:db:aa:
         1e:c0:34:fe:fc:cc:85:c6:e2:25:43:5e:2b:df:4a:ca:eb:74:
         4f:59:93:df:ff:8e:93:32:45:19:27:58:6b:9d:d9:9b:bf:0b:
         31:14:5d:c7:8b:05:a4:05:85:c8:f4:1c:24:df:8e:5f:cb:09:
         ca:af:68:82
-----BEGIN CERTIFICATE-----
MIIEtzCCA5+gAwIBAgIBZTANBgkqhkiG9w0BAQsFADCBoTELMAkGA1UEBhMCVVMx
EzARBgNVBAgMCldhc2hpbmd0b24xEDAOBgNVBAcMB1NlYXR0bGUxFTATBgNVBAoM
DHdvbGZTU0wgSW5jLjEUMBIGA1UECwwLRW5naW5lZXJpbmcxHTAbBgNVBAMMFGNo
YWluRy1JQ0ExLXBhdGhsZW4wMR8wHQYJKoZIhvcNAQkBFhBpbmZvQHdvbGZzc2wu
Y29tMB4XDTIxMTIyMDIzMDcyNVoXDTI0MDkxNTIzMDcyNVowgZoxCzAJBgNVBAYT
AlVTMRMwEQYDVQQIDApXYXNoaW5ndG9uMRAwDgYDVQQHDAdTZWF0dGxlMRUwEwYD
VQQKDAx3b2xmU1NMIEluYy4xFDASBgNVBAsMC0VuZ2luZWVyaW5nMRYwFAYDVQQD
DA1jaGFpbkctZW50aXR5MR8wHQYJKoZIhvcNAQkBFhBpbmZvQHdvbGZzc2wuY29t
MIIBIjANBgkqhkiG9w0BAQEFAAOCAQ8AMIIBCgKCAQEAu3uCI6I058uJTmTM8pjI
ZY/iaVVUSzyLwB9nN38Jy57fXnX2mYMSrBUjz2SkEBalEK8ohgAgTvNN/Qj7oacY
TBMeTZAu5prjKAO09IPO/aKphlYCYjOfbph+D8wGcTGKk9LZox0IepL4fr+QX6Hm
K2RYu6aayRmX/cmp9wgnivO+4tuIJYSREwbiY7zhN4J+b1ra8OLroSqPXVIRr+L1
iUJ5g7jApZXcQsYckFEeM/PxwuTSe4fDZJC3X5s479LQT9VRquA60cMBA+cysSfG
SFrArCaNlGF2+Jj/MG2qVcNj/aSkGzxr6AV1QRddrckXm8NNbp99fTb+wKOZ1uWS
rQIDAQABo4H+MIH7MB0GA1UdDgQWBBQhOnI7lTjfmd5iJSHQFIFuyqr7oTCBzgYD
VR0jBIHGMIHDgBRHwBlL7cTal7Fg6loKQm2l09glMaGBp6SBpDCBoTELMAkGA1UE
BhMCVVMxEzARBgNVBAgMCldhc2hpbmd0b24xEDAOBgNVBAcMB1NlYXR0bGUxFTAT
BgNVBAoMDHdvbGZTU0wgSW5jLjEUMBIGA1UECwwLRW5naW5lZXJpbmcxHTAbBgNV
BAMMFGNoYWluRy1JQ0EyLXBhdGhsZW4xMR8wHQYJKoZIhvcNAQkBFhBpbmZvQHdv
bGZzc2wuY29tggFkMAkGA1UdEwQCMAAwDQYJKoZIhvcNAQELBQADggEBAMpl2pCg
/4uY2zNuPE3xQ4FTp5n71YQsMJ2I5i7LHddppYvDxyVSTWDSSNj6gu+i1Hf/4mco
+k7o7Dk5YcST115+dVxoABXADghgGAPY/6el3DkDYUQ6BARXQLelDlACHZgad5mp
DZwO5ZatByQMuSnMrX5Bp1Soq2xqRy+QtEZ/niFkdrUn9hF/W3V12eDYX/L6CgOR
61iiIDXU6ZEOLsKUsAbVHqA1uTUr48YrcmzMvdxbPwtVtptXSXwpfqVASljOhy/b
qh7ANP78zIXG4iVDXivfSsrrdE9Zk9//jpMyRRknWGud2Zu/CzEUXceLBaQFhcj0
HCTfjl/LCcqvaII=
-----END CERTIFICATE-----
