Certificate:
    Data:
        Version: 3 (0x2)
        Serial Number: 100 (0x64)
        Signature Algorithm: sha256WithRSAEncryption
        Issuer: C = US, ST = Washington, L = Seattle, O = wolfSSL Inc., OU = Engineering, CN = chainJ-ICA2-no_pathlen, emailAddress = info@wolfssl.com
        Validity
            Not Before: Dec 18 21:25:34 2024 GMT
            Not After : Sep 14 21:25:34 2027 GMT
        Subject: C = US, ST = Washington, L = Seattle, O = wolfSSL Inc., OU = Engineering, CN = chainJ-ICA1-no_pathlen, emailAddress = info@wolfssl.com
        Subject Public Key Info:
            Public Key Algorithm: rsaEncryption
                Public-Key: (2048 bit)
                Modulus:
                    00:a7:6f:44:c2:11:cc:2c:f4:2a:a5:a8:08:53:4b:
                    0e:cd:96:23:bb:15:4a:2a:dd:f9:a7:19:2b:91:28:
                    e8:73:a3:57:b4:49:3a:37:82:8f:15:38:5a:aa:af:
                    ad:72:26:2e:84:c2:0d:de:fc:f0:be:3b:a2:11:a9:
                    12:20:d4:3d:de:62:85:85:91:08:60:db:c0:4a:bb:
                    89:b6:f4:91:1e:51:a3:b2:f7:08:99:df:48:4a:59:
                    84:d1:aa:09:36:0d:cd:68:a5:ae:41:c8:d7:1a:d8:
                    ea:49:87:20:22:27:f9:45:54:3e:c7:c8:00:44:7e:
                    34:72:aa:8d:2d:4d:6a:3e:75:89:e2:d4:17:57:f9:
                    cd:2b:d0:b7:14:6a:54:1b:61:af:9b:68:22:b1:16:
                    73:eb:05:6c:41:ea:ed:10:4e:bc:83:04:68:c8:3a:
                    e1:03:12:ad:28:5c:24:4c:19:a1:7e:d8:ef:1b:80:
                    e4:0e:49:0c:69:86:f6:1e:e7:01:fb:2a:6f:56:1b:
                    6d:0a:ad:e9:29:3f:31:bb:48:28:40:79:2b:b5:f3:
                    aa:ec:e9:09:4c:82:fc:97:28:19:a3:3a:c0:d2:5e:
                    a3:8a:98:c8:8a:b7:d2:c4:90:bc:ff:cc:47:13:90:
                    ad:00:ab:8a:ec:f7:94:35:09:60:10:35:9f:32:c5:
                    00:1b
                Exponent: 65537 (0x10001)
        X509v3 extensions:
            X509v3 Subject Key Identifier: 
                9C:7B:3A:10:B3:08:99:05:00:AF:3E:E0:A4:5D:D9:AF:82:BC:4D:C0
            X509v3 Authority Key Identifier: 
                keyid:A3:F5:71:8A:60:80:3C:93:64:17:D9:2E:B5:C0:CE:A9:C1:14:17:C4
                DirName:/C=US/ST=Washington/L=Seattle/O=wolfSSL Inc./OU=Engineering/CN=chainJ-ICA3-no_pathlen/emailAddress=info@wolfssl.com
                serial:64
            X509v3 Basic Constraints: 
                CA:TRUE
            X509v3 Key Usage: 
                Certificate Sign, CRL Sign
    Signature Algorithm: sha256WithRSAEncryption
    Signature Value:
        2d:f4:e2:98:aa:1a:fc:7c:ed:5b:7a:6c:64:de:a9:9c:a3:1a:
        19:7d:8e:a5:52:4e:2b:70:c3:b8:ef:5f:07:57:f5:52:d7:37:
        e6:12:08:dc:d1:51:ac:e1:e7:19:9a:f5:87:44:db:d7:31:23:
        4f:0a:a6:ac:b9:26:f2:d5:56:51:f2:41:29:fa:a4:ae:e8:bc:
        a4:24:25:23:ff:5d:f8:dd:5a:a9:9a:28:13:66:ef:f3:f7:70:
        cb:a2:48:2d:91:b8:ae:22:85:0c:08:10:be:cc:e0:d8:20:b2:
        ab:c4:41:00:76:9d:18:ec:63:c7:48:f2:da:e2:3a:35:7e:6c:
        82:ce:0b:fa:9f:c7:0f:28:39:c7:3d:c3:94:4d:85:75:79:1c:
        18:e9:79:eb:69:8f:fe:9b:7b:8a:0e:7f:2f:8f:35:7d:b0:22:
        25:50:79:da:5b:c7:44:9f:a5:cd:c1:b8:d9:cf:7d:10:34:60:
        4f:c8:42:ea:71:4f:4a:e3:76:99:e4:49:8e:84:5b:ef:34:14:
        18:77:c2:da:f6:80:72:b5:3e:40:3a:d5:93:22:06:05:3c:46:
        17:ec:d3:b8:86:93:22:c9:b1:9c:03:3a:f2:88:1a:6d:7b:50:
        ba:1a:50:85:d1:f5:f3:52:91:bd:88:c4:48:6b:67:8e:5f:f4:
        34:15:95:35
-----BEGIN CERTIFICATE-----
MIIE1jCCA76gAwIBAgIBZDANBgkqhkiG9w0BAQsFADCBozELMAkGA1UEBhMCVVMx
EzARBgNVBAgMCldhc2hpbmd0b24xEDAOBgNVBAcMB1NlYXR0bGUxFTATBgNVBAoM
DHdvbGZTU0wgSW5jLjEUMBIGA1UECwwLRW5naW5lZXJpbmcxHzAdBgNVBAMMFmNo
YWluSi1JQ0EyLW5vX3BhdGhsZW4xHzAdBgkqhkiG9w0BCQEWEGluZm9Ad29sZnNz
bC5jb20wHhcNMjQxMjE4MjEyNTM0WhcNMjcwOTE0MjEyNTM0WjCBozELMAkGA1UE
BhMCVVMxEzARBgNVBAgMCldhc2hpbmd0b24xEDAOBgNVBAcMB1NlYXR0bGUxFTAT
BgNVBAoMDHdvbGZTU0wgSW5jLjEUMBIGA1UECwwLRW5naW5lZXJpbmcxHzAdBgNV
BAMMFmNoYWluSi1JQ0ExLW5vX3BhdGhsZW4xHzAdBgkqhkiG9w0BCQEWEGluZm9A
d29sZnNzbC5jb20wggEiMA0GCSqGSIb3DQEBAQUAA4IBDwAwggEKAoIBAQCnb0TC
Ecws9CqlqAhTSw7NliO7FUoq3fmnGSuRKOhzo1e0STo3go8VOFqqr61yJi6Ewg3e
/PC+O6IRqRIg1D3eYoWFkQhg28BKu4m29JEeUaOy9wiZ30hKWYTRqgk2Dc1opa5B
yNca2OpJhyAiJ/lFVD7HyABEfjRyqo0tTWo+dYni1BdX+c0r0LcUalQbYa+baCKx
FnPrBWxB6u0QTryDBGjIOuEDEq0oXCRMGaF+2O8bgOQOSQxphvYe5wH7Km9WG20K
rekpPzG7SChAeSu186rs6QlMgvyXKBmjOsDSXqOKmMiKt9LEkLz/zEcTkK0Aq4rs
95Q1CWAQNZ8yxQAbAgMBAAGjggERMIIBDTAdBgNVHQ4EFgQUnHs6ELMImQUArz7g
pF3Zr4K8TcAwgdAGA1UdIwSByDCBxYAUo/VximCAPJNkF9kutcDOqcEUF8Shgamk
gaYwgaMxCzAJBgNVBAYTAlVTMRMwEQYDVQQIDApXYXNoaW5ndG9uMRAwDgYDVQQH
DAdTZWF0dGxlMRUwEwYDVQQKDAx3b2xmU1NMIEluYy4xFDASBgNVBAsMC0VuZ2lu
ZWVyaW5nMR8wHQYDVQQDDBZjaGFpbkotSUNBMy1ub19wYXRobGVuMR8wHQYJKoZI
hvcNAQkBFhBpbmZvQHdvbGZzc2wuY29tggFkMAwGA1UdEwQFMAMBAf8wCwYDVR0P
BAQDAgEGMA0GCSqGSIb3DQEBCwUAA4IBAQAt9OKYqhr8fO1bemxk3qmcoxoZfY6l
Uk4rcMO4718HV/VS1zfmEgjc0VGs4ecZmvWHRNvXMSNPCqasuSby1VZR8kEp+qSu
6LykJCUj/1343VqpmigTZu/z93DLokgtkbiuIoUMCBC+zODYILKrxEEAdp0Y7GPH
SPLa4jo1fmyCzgv6n8cPKDnHPcOUTYV1eRwY6XnraY/+m3uKDn8vjzV9sCIlUHna
W8dEn6XNwbjZz30QNGBPyELqcU9K43aZ5EmOhFvvNBQYd8La9oBytT5AOtWTIgYF
PEYX7NO4hpMiybGcAzryiBpte1C6GlCF0fXzUpG9iMRIa2eOX/Q0FZU1
-----END CERTIFICATE-----
