Certificate:
    Data:
        Version: 3 (0x2)
        Serial Number: 101 (0x65)
        Signature Algorithm: sha256WithRSAEncryption
        Issuer: C = US, ST = Washington, L = Seattle, O = wolfSSL Inc., OU = Engineering, CN = chainA-ICA1-pathlen0, emailAddress = info@wolfssl.com
        Validity
            Not Before: Sep 26 17:22:46 2023 GMT
            Not After : Jun 22 17:22:46 2026 GMT
        Subject: C = US, ST = Washington, L = Seattle, O = wolfSSL Inc., OU = Engineering, CN = chainA-entity, emailAddress = info@wolfssl.com
        Subject Public Key Info:
            Public Key Algorithm: rsaEncryption
                Public-Key: (2048 bit)
                Modulus:
                    00:d0:7a:d8:c8:6c:4f:a5:cd:72:25:87:ff:12:a3:
                    65:0e:1d:1f:78:b2:d7:1a:65:a1:e7:4e:bd:05:b5:
                    05:3e:39:3e:85:ad:90:c7:5b:a5:81:42:b5:01:00:
                    57:87:29:a3:45:ce:f4:02:fa:80:8f:3b:8e:99:40:
                    2c:fc:c8:b0:8b:2b:19:c3:20:c6:af:db:a0:d9:d5:
                    70:32:6d:66:c3:ca:c4:ea:63:fb:08:0e:35:bc:50:
                    7f:85:c7:62:f4:e2:85:e4:89:59:52:71:f2:e3:d1:
                    63:3e:1d:08:6d:ff:86:cb:e5:eb:bc:1f:de:13:f0:
                    b2:f8:92:ee:23:9d:64:e7:b0:49:6f:26:a2:64:bc:
                    9c:18:8a:f3:c6:db:83:a4:6c:b0:56:23:16:40:57:
                    b0:95:5e:1b:3d:c5:3f:10:7a:84:e0:3e:bb:78:e8:
                    7d:c1:63:f3:fe:ee:af:16:db:ce:28:02:21:df:8b:
                    ca:f3:c3:1e:d1:47:c0:59:5f:1c:48:ec:50:6a:e3:
                    cc:fb:b6:16:45:40:c8:50:cf:dc:3e:2d:2d:cb:cd:
                    19:2a:17:74:41:7f:bc:26:4d:cd:97:b2:2b:67:57:
                    8e:6e:75:b5:d8:ec:6b:69:ab:09:3d:95:85:2c:0f:
                    d7:8d:29:75:1f:9b:88:56:bc:e8:11:a3:c8:65:e5:
                    2b:23
                Exponent: 65537 (0x10001)
        X509v3 extensions:
            X509v3 Subject Key Identifier: 
                D6:56:A1:9C:F1:66:E4:05:17:36:32:74:BA:72:97:50:13:58:B3:3D
            X509v3 Authority Key Identifier: 
                keyid:A8:10:EA:C8:EF:4F:00:CD:E3:79:C3:EB:DF:F6:C8:86:9D:44:6C:26
                DirName:/C=US/ST=Montana/L=Bozeman/O=Sawtooth/OU=Consulting/CN=www.wolfssl.com/emailAddress=info@wolfssl.com
                serial:64
            X509v3 Basic Constraints: 
                CA:FALSE
    Signature Algorithm: sha256WithRSAEncryption
    Signature Value:
        5d:c2:e8:f9:06:db:95:a7:96:51:f5:bb:ba:3b:09:81:0e:ca:
        42:37:8f:52:ce:1b:73:59:c7:3e:69:ac:4c:f3:5a:c6:07:42:
        73:d8:77:a4:ea:e9:5e:a4:92:60:54:13:fb:c8:5d:bf:94:0f:
        db:b2:72:bc:93:fb:56:0d:98:ae:22:e8:03:62:74:40:1f:8e:
        64:d9:c0:4d:fc:3e:cb:06:19:ed:06:74:dd:2b:b2:db:84:bf:
        d2:7c:bd:df:3c:b9:4e:5b:46:c3:4d:72:ad:66:04:e3:58:00:
        76:90:75:6e:58:ef:e2:21:25:68:02:9c:3b:03:24:bf:e4:1d:
        fa:18:12:44:41:68:77:df:8f:4d:6d:d2:6a:64:eb:a3:88:9a:
        0a:a6:69:c1:68:bd:60:2c:5d:70:24:02:f0:d9:46:e9:b6:a8:
        ae:80:b0:1a:60:2e:3e:c3:cd:74:41:44:6c:90:90:84:8e:2e:
        1a:e3:51:f3:75:6b:63:02:d1:bf:d7:b7:6e:53:a3:04:b2:4f:
        8a:0b:eb:dd:9a:e4:81:b7:92:38:06:03:5e:70:86:54:44:9a:
        7f:ad:97:88:4e:5f:e8:a8:f0:eb:49:44:9c:e5:c1:2a:bd:1b:
        eb:da:6f:b3:2d:bd:c0:45:4a:cd:1e:41:aa:66:2d:20:61:f1:
        ae:49:bc:27
-----BEGIN CERTIFICATE-----
MIIEqjCCA5KgAwIBAgIBZTANBgkqhkiG9w0BAQsFADCBoTELMAkGA1UEBhMCVVMx
EzARBgNVBAgMCldhc2hpbmd0b24xEDAOBgNVBAcMB1NlYXR0bGUxFTATBgNVBAoM
DHdvbGZTU0wgSW5jLjEUMBIGA1UECwwLRW5naW5lZXJpbmcxHTAbBgNVBAMMFGNo
YWluQS1JQ0ExLXBhdGhsZW4wMR8wHQYJKoZIhvcNAQkBFhBpbmZvQHdvbGZzc2wu
Y29tMB4XDTIzMDkyNjE3MjI0NloXDTI2MDYyMjE3MjI0NlowgZoxCzAJBgNVBAYT
AlVTMRMwEQYDVQQIDApXYXNoaW5ndG9uMRAwDgYDVQQHDAdTZWF0dGxlMRUwEwYD
VQQKDAx3b2xmU1NMIEluYy4xFDASBgNVBAsMC0VuZ2luZWVyaW5nMRYwFAYDVQQD
DA1jaGFpbkEtZW50aXR5MR8wHQYJKoZIhvcNAQkBFhBpbmZvQHdvbGZzc2wuY29t
MIIBIjANBgkqhkiG9w0BAQEFAAOCAQ8AMIIBCgKCAQEA0HrYyGxPpc1yJYf/EqNl
Dh0feLLXGmWh5069BbUFPjk+ha2Qx1ulgUK1AQBXhymjRc70AvqAjzuOmUAs/Miw
iysZwyDGr9ug2dVwMm1mw8rE6mP7CA41vFB/hcdi9OKF5IlZUnHy49FjPh0Ibf+G
y+XrvB/eE/Cy+JLuI51k57BJbyaiZLycGIrzxtuDpGywViMWQFewlV4bPcU/EHqE
4D67eOh9wWPz/u6vFtvOKAIh34vK88Me0UfAWV8cSOxQauPM+7YWRUDIUM/cPi0t
y80ZKhd0QX+8Jk3Nl7IrZ1eObnW12OxraasJPZWFLA/XjSl1H5uIVrzoEaPIZeUr
IwIDAQABo4HxMIHuMB0GA1UdDgQWBBTWVqGc8WbkBRc2MnS6cpdQE1izPTCBwQYD
VR0jBIG5MIG2gBSoEOrI708AzeN5w+vf9siGnURsJqGBmqSBlzCBlDELMAkGA1UE
BhMCVVMxEDAOBgNVBAgMB01vbnRhbmExEDAOBgNVBAcMB0JvemVtYW4xETAPBgNV
BAoMCFNhd3Rvb3RoMRMwEQYDVQQLDApDb25zdWx0aW5nMRgwFgYDVQQDDA93d3cu
d29sZnNzbC5jb20xHzAdBgkqhkiG9w0BCQEWEGluZm9Ad29sZnNzbC5jb22CAWQw
CQYDVR0TBAIwADANBgkqhkiG9w0BAQsFAAOCAQEAXcLo+QbblaeWUfW7ujsJgQ7K
QjePUs4bc1nHPmmsTPNaxgdCc9h3pOrpXqSSYFQT+8hdv5QP27JyvJP7Vg2YriLo
A2J0QB+OZNnATfw+ywYZ7QZ03Suy24S/0ny93zy5TltGw01yrWYE41gAdpB1bljv
4iElaAKcOwMkv+Qd+hgSREFod9+PTW3SamTro4iaCqZpwWi9YCxdcCQC8NlG6bao
roCwGmAuPsPNdEFEbJCQhI4uGuNR83VrYwLRv9e3blOjBLJPigvr3ZrkgbeSOAYD
XnCGVESaf62XiE5f6Kjw60lEnOXBKr0b69pvsy29wEVKzR5BqmYtIGHxrkm8Jw==
-----END CERTIFICATE-----
