Certificate:
    Data:
        Version: 3 (0x2)
        Serial Number: 100 (0x64)
    Signature Algorithm: sha256WithRSAEncryption
        Issuer: C=US, ST=Washington, L=Seattle, O=wolfSSL Inc., OU=Engineering, CN=chainJ-ICA4-pathlen2/emailAddress=info@wolfssl.com
        Validity
            Not Before: Feb 10 19:49:55 2021 GMT
            Not After : Nov  7 19:49:55 2023 GMT
        Subject: C=US, ST=Washington, L=Seattle, O=wolfSSL Inc., OU=Engineering, CN=chainJ-ICA3-no_pathlen/emailAddress=info@wolfssl.com
        Subject Public Key Info:
            Public Key Algorithm: rsaEncryption
                Public-Key: (2048 bit)
                Modulus:
                    00:d8:aa:f6:05:95:70:5a:53:c7:66:10:aa:90:79:
                    3b:cb:78:2a:ef:5f:43:22:71:7c:6d:47:99:a7:8b:
                    39:e1:e7:4e:48:29:48:25:e1:b5:f5:25:df:64:7b:
                    ea:ed:aa:1f:8b:0d:e7:eb:f5:2f:ae:2a:5a:3d:50:
                    c7:fb:ef:0b:8b:44:0b:63:94:be:c6:d7:63:45:2e:
                    85:96:00:5c:be:7e:10:09:b3:d0:aa:7c:de:20:f8:
                    75:39:23:85:ee:84:13:88:54:2a:96:f5:16:27:9f:
                    8b:b0:a6:2a:f4:9d:13:8c:71:1c:0c:a6:59:53:ec:
                    f9:0b:2b:c9:45:13:d6:12:ef:39:d1:8e:9c:9e:ae:
                    3c:bb:b6:d8:10:ac:b7:59:49:5b:73:00:be:af:92:
                    21:14:54:a3:fa:b6:17:ae:b6:dc:b1:f1:61:f0:75:
                    07:43:5e:48:fa:e7:80:56:cf:df:ad:46:52:85:42:
                    fb:a7:70:53:14:c6:b7:51:fa:23:f0:f5:4b:d1:bb:
                    3f:9b:fc:35:ca:d2:85:f1:a0:77:02:06:7c:79:99:
                    13:b5:68:b4:16:47:42:88:f7:bc:eb:78:b2:e8:11:
                    2f:62:f6:da:f9:ef:1b:e0:9f:b5:d5:32:65:b5:4e:
                    e4:be:36:6b:65:65:1a:96:a2:47:b5:3e:9f:b0:0d:
                    63:41
                Exponent: 65537 (0x10001)
        X509v3 extensions:
            X509v3 Subject Key Identifier: 
                CD:97:49:78:F7:31:61:ED:2F:71:1A:68:E9:45:2C:40:78:51:93:5B
            X509v3 Authority Key Identifier: 
                keyid:FC:18:13:52:BB:33:4A:DB:1C:5B:D1:80:98:3E:40:86:95:58:72:F9
                DirName:/C=US/ST=Montana/L=Bozeman/O=Sawtooth/OU=Consulting/CN=www.wolfssl.com/emailAddress=info@wolfssl.com
                serial:64

            X509v3 Basic Constraints: 
                CA:TRUE
            X509v3 Key Usage: 
                Certificate Sign, CRL Sign
    Signature Algorithm: sha256WithRSAEncryption
         1c:4a:61:8f:95:15:dc:f1:79:27:3d:bd:fb:30:05:37:da:62:
         e9:ed:0c:e4:18:78:87:7c:aa:a7:0e:c6:b2:ff:04:25:a7:f1:
         29:4e:ad:7e:86:47:67:f3:a8:a9:70:28:5f:2b:ab:34:a3:21:
         30:7b:45:d3:5b:60:5f:84:86:01:cf:36:14:1a:86:09:00:d7:
         b6:60:69:6a:0b:fc:9c:c4:9e:46:90:74:00:61:32:23:b6:73:
         e8:58:c9:44:e6:6e:8a:b1:e4:a1:9c:a9:a0:db:2d:71:b2:a4:
         4c:ea:f2:b3:28:46:8f:fd:61:70:c5:92:b3:ad:42:92:d4:dd:
         2b:11:ce:a5:02:84:6a:a8:81:2c:00:29:2d:54:63:c3:18:79:
         c0:a9:d0:d7:c1:12:65:6e:14:98:e5:09:1a:2e:ef:0a:e3:4a:
         9c:3f:a8:01:44:6c:f2:31:90:b3:78:91:23:e5:6f:3e:13:54:
         59:32:c2:11:1e:a2:2d:9d:39:95:25:c3:8d:c5:d7:b0:e4:b3:
         f8:d7:d5:8c:ad:b7:f4:2f:44:f2:05:53:33:6b:52:a0:98:e5:
         e4:ec:fb:51:e7:fa:d6:2b:c1:e8:c8:a6:a7:5c:44:aa:e4:61:
         a7:43:5d:5f:eb:5e:d0:d5:fd:99:01:a3:0e:39:5d:0b:b4:9b:
         8f:e8:a8:0e
-----BEGIN CERTIFICATE-----
MIIExDCCA6ygAwIBAgIBZDANBgkqhkiG9w0BAQsFADCBoTELMAkGA1UEBhMCVVMx
EzARBgNVBAgMCldhc2hpbmd0b24xEDAOBgNVBAcMB1NlYXR0bGUxFTATBgNVBAoM
DHdvbGZTU0wgSW5jLjEUMBIGA1UECwwLRW5naW5lZXJpbmcxHTAbBgNVBAMMFGNo
YWluSi1JQ0E0LXBhdGhsZW4yMR8wHQYJKoZIhvcNAQkBFhBpbmZvQHdvbGZzc2wu
Y29tMB4XDTIxMDIxMDE5NDk1NVoXDTIzMTEwNzE5NDk1NVowgaMxCzAJBgNVBAYT
AlVTMRMwEQYDVQQIDApXYXNoaW5ndG9uMRAwDgYDVQQHDAdTZWF0dGxlMRUwEwYD
VQQKDAx3b2xmU1NMIEluYy4xFDASBgNVBAsMC0VuZ2luZWVyaW5nMR8wHQYDVQQD
DBZjaGFpbkotSUNBMy1ub19wYXRobGVuMR8wHQYJKoZIhvcNAQkBFhBpbmZvQHdv
bGZzc2wuY29tMIIBIjANBgkqhkiG9w0BAQEFAAOCAQ8AMIIBCgKCAQEA2Kr2BZVw
WlPHZhCqkHk7y3gq719DInF8bUeZp4s54edOSClIJeG19SXfZHvq7aofiw3n6/Uv
ripaPVDH++8Li0QLY5S+xtdjRS6FlgBcvn4QCbPQqnzeIPh1OSOF7oQTiFQqlvUW
J5+LsKYq9J0TjHEcDKZZU+z5CyvJRRPWEu850Y6cnq48u7bYEKy3WUlbcwC+r5Ih
FFSj+rYXrrbcsfFh8HUHQ15I+ueAVs/frUZShUL7p3BTFMa3Ufoj8PVL0bs/m/w1
ytKF8aB3AgZ8eZkTtWi0FkdCiPe863iy6BEvYvba+e8b4J+11TJltU7kvjZrZWUa
lqJHtT6fsA1jQQIDAQABo4IBATCB/jAdBgNVHQ4EFgQUzZdJePcxYe0vcRpo6UUs
QHhRk1swgcEGA1UdIwSBuTCBtoAU/BgTUrszStscW9GAmD5AhpVYcvmhgZqkgZcw
gZQxCzAJBgNVBAYTAlVTMRAwDgYDVQQIDAdNb250YW5hMRAwDgYDVQQHDAdCb3pl
bWFuMREwDwYDVQQKDAhTYXd0b290aDETMBEGA1UECwwKQ29uc3VsdGluZzEYMBYG
A1UEAwwPd3d3LndvbGZzc2wuY29tMR8wHQYJKoZIhvcNAQkBFhBpbmZvQHdvbGZz
c2wuY29tggFkMAwGA1UdEwQFMAMBAf8wCwYDVR0PBAQDAgEGMA0GCSqGSIb3DQEB
CwUAA4IBAQAcSmGPlRXc8XknPb37MAU32mLp7QzkGHiHfKqnDsay/wQlp/EpTq1+
hkdn86ipcChfK6s0oyEwe0XTW2BfhIYBzzYUGoYJANe2YGlqC/ycxJ5GkHQAYTIj
tnPoWMlE5m6KseShnKmg2y1xsqRM6vKzKEaP/WFwxZKzrUKS1N0rEc6lAoRqqIEs
ACktVGPDGHnAqdDXwRJlbhSY5QkaLu8K40qcP6gBRGzyMZCzeJEj5W8+E1RZMsIR
HqItnTmVJcONxdew5LP419WMrbf0L0TyBVMza1KgmOXk7PtR5/rWK8HoyKanXESq
5GGnQ11f617Q1f2ZAaMOOV0LtJuP6KgO
-----END CERTIFICATE-----
