Certificate:
    Data:
        Version: 3 (0x2)
        Serial Number: 100 (0x64)
        Signature Algorithm: sha256WithRSAEncryption
        Issuer: C=US, ST=Washington, L=Seattle, O=wolfSSL Inc., OU=Engineering, CN=chainG-ICA3-pathlen99, emailAddress=facts@wolfssl.com
        Validity
            Not Before: Jun 11 21:44:39 2026 GMT
            Not After : Mar  7 21:44:39 2029 GMT
        Subject: C=US, ST=Washington, L=Seattle, O=wolfSSL Inc., OU=Engineering, CN=chainG-ICA2-pathlen1, emailAddress=facts@wolfssl.com
        Subject Public Key Info:
            Public Key Algorithm: rsaEncryption
                Public-Key: (2048 bit)
                Modulus:
                    00:d7:3e:de:b9:f9:a9:d7:8e:7a:4b:f2:f1:8c:f9:
                    3b:1c:ce:59:31:4c:57:0c:2e:8a:0f:90:f0:dc:27:
                    55:0b:10:c3:a2:e8:b9:39:75:17:d1:9d:99:43:94:
                    b2:f1:56:76:6b:b9:46:a6:b8:35:95:a1:d2:d0:ec:
                    8e:be:95:dc:78:17:0a:41:a1:23:df:cb:b2:87:cb:
                    2e:1d:02:7d:c4:fe:7a:f6:7a:d8:a5:8d:b5:11:1a:
                    e4:6b:d2:66:01:01:03:a7:3b:95:49:92:5d:c1:c7:
                    49:f0:1a:ef:00:71:37:99:5a:87:0a:40:de:55:0e:
                    68:89:dc:e7:a1:14:bf:9d:72:93:7e:48:29:e4:ea:
                    a6:4f:0a:7a:a5:a1:39:6c:21:84:3a:8f:ca:7a:35:
                    0b:0a:cd:12:67:3c:56:06:f5:9d:24:c9:8e:4a:82:
                    23:c8:38:7f:ac:98:b6:b2:57:dc:82:62:84:00:13:
                    7b:ea:73:80:26:4a:9b:c1:b4:0a:f1:fc:ff:46:58:
                    96:a0:21:a1:c9:8f:d9:99:74:41:0b:d0:6d:31:a7:
                    ab:87:92:76:51:42:ef:88:95:cc:2c:f2:9b:cc:d5:
                    29:a0:f7:aa:6b:e1:ab:32:16:cd:55:c4:15:80:69:
                    80:91:d8:78:2c:07:15:fd:c2:02:a4:f4:13:75:50:
                    b8:2b
                Exponent: 65537 (0x10001)
        X509v3 extensions:
            X509v3 Subject Key Identifier: 
                E1:E6:9B:28:CF:FD:AB:45:C1:B7:A7:C4:C9:58:FC:41:E3:1A:5C:74
            X509v3 Authority Key Identifier: 
                keyid:C1:CD:1F:81:13:82:24:3B:CF:64:51:7A:4C:E3:65:2E:75:1E:01:23
                DirName:/C=US/ST=Washington/L=Seattle/O=wolfSSL Inc./OU=Engineering/CN=chainG-ICA4-pathlen5/emailAddress=facts@wolfssl.com
                serial:64
            X509v3 Basic Constraints: 
                CA:TRUE, pathlen:1
            X509v3 Key Usage: 
                Certificate Sign, CRL Sign
    Signature Algorithm: sha256WithRSAEncryption
    Signature Value:
        45:7f:fb:8d:c3:46:b5:06:63:b1:80:ce:f2:9f:f0:00:3a:41:
        8b:40:bd:9a:2f:7e:e0:e0:e2:62:0e:73:8c:a2:1f:f5:2d:b5:
        f9:3f:74:9d:f5:73:72:66:b9:16:40:33:12:a2:36:16:5a:5c:
        35:58:4f:5a:40:2f:27:12:b7:eb:d3:c8:15:3d:83:57:b6:24:
        2c:4f:03:0c:6b:b3:63:c1:f5:52:37:ff:6c:1c:95:ce:c3:09:
        16:7b:6c:07:a2:e8:90:41:3c:50:61:7a:ce:3e:ea:d3:bf:6f:
        5e:32:16:6f:9a:c6:f8:72:ac:d3:4f:c4:52:88:c7:e0:ef:ec:
        1c:2b:69:bd:17:01:ca:25:71:8c:6b:2a:0c:5a:1f:dc:72:41:
        c6:c5:5e:50:da:2d:97:23:49:bb:00:54:e9:c3:8d:6e:b7:33:
        92:60:c9:98:58:f9:51:9d:85:ea:73:21:fb:15:f6:c2:2f:ed:
        ae:99:15:21:1a:93:49:37:fa:73:15:12:84:94:14:74:2e:ad:
        80:1a:19:62:39:aa:c0:2d:08:81:f3:ab:d9:cf:88:8a:7b:5b:
        21:1e:1a:d7:c2:f8:7f:5d:8f:5a:ac:9e:86:32:99:d7:16:64:
        da:67:82:0f:16:26:df:b8:00:ed:b3:13:e6:60:40:66:9d:79:
        cd:49:1f:da
-----BEGIN CERTIFICATE-----
MIIE1zCCA7+gAwIBAgIBZDANBgkqhkiG9w0BAQsFADCBozELMAkGA1UEBhMCVVMx
EzARBgNVBAgMCldhc2hpbmd0b24xEDAOBgNVBAcMB1NlYXR0bGUxFTATBgNVBAoM
DHdvbGZTU0wgSW5jLjEUMBIGA1UECwwLRW5naW5lZXJpbmcxHjAcBgNVBAMMFWNo
YWluRy1JQ0EzLXBhdGhsZW45OTEgMB4GCSqGSIb3DQEJARYRZmFjdHNAd29sZnNz
bC5jb20wHhcNMjYwNjExMjE0NDM5WhcNMjkwMzA3MjE0NDM5WjCBojELMAkGA1UE
BhMCVVMxEzARBgNVBAgMCldhc2hpbmd0b24xEDAOBgNVBAcMB1NlYXR0bGUxFTAT
BgNVBAoMDHdvbGZTU0wgSW5jLjEUMBIGA1UECwwLRW5naW5lZXJpbmcxHTAbBgNV
BAMMFGNoYWluRy1JQ0EyLXBhdGhsZW4xMSAwHgYJKoZIhvcNAQkBFhFmYWN0c0B3
b2xmc3NsLmNvbTCCASIwDQYJKoZIhvcNAQEBBQADggEPADCCAQoCggEBANc+3rn5
qdeOekvy8Yz5OxzOWTFMVwwuig+Q8NwnVQsQw6LouTl1F9GdmUOUsvFWdmu5Rqa4
NZWh0tDsjr6V3HgXCkGhI9/LsofLLh0CfcT+evZ62KWNtREa5GvSZgEBA6c7lUmS
XcHHSfAa7wBxN5lahwpA3lUOaInc56EUv51yk35IKeTqpk8KeqWhOWwhhDqPyno1
CwrNEmc8Vgb1nSTJjkqCI8g4f6yYtrJX3IJihAATe+pzgCZKm8G0CvH8/0ZYlqAh
ocmP2Zl0QQvQbTGnq4eSdlFC74iVzCzym8zVKaD3qmvhqzIWzVXEFYBpgJHYeCwH
Ff3CAqT0E3VQuCsCAwEAAaOCARMwggEPMB0GA1UdDgQWBBTh5psoz/2rRcG3p8TJ
WPxB4xpcdDCBzwYDVR0jBIHHMIHEgBTBzR+BE4IkO89kUXpM42UudR4BI6GBqKSB
pTCBojELMAkGA1UEBhMCVVMxEzARBgNVBAgMCldhc2hpbmd0b24xEDAOBgNVBAcM
B1NlYXR0bGUxFTATBgNVBAoMDHdvbGZTU0wgSW5jLjEUMBIGA1UECwwLRW5naW5l
ZXJpbmcxHTAbBgNVBAMMFGNoYWluRy1JQ0E0LXBhdGhsZW41MSAwHgYJKoZIhvcN
AQkBFhFmYWN0c0B3b2xmc3NsLmNvbYIBZDAPBgNVHRMECDAGAQH/AgEBMAsGA1Ud
DwQEAwIBBjANBgkqhkiG9w0BAQsFAAOCAQEARX/7jcNGtQZjsYDO8p/wADpBi0C9
mi9+4ODiYg5zjKIf9S21+T90nfVzcma5FkAzEqI2FlpcNVhPWkAvJxK369PIFT2D
V7YkLE8DDGuzY8H1Ujf/bByVzsMJFntsB6LokEE8UGF6zj7q079vXjIWb5rG+HKs
00/EUojH4O/sHCtpvRcByiVxjGsqDFof3HJBxsVeUNotlyNJuwBU6cONbrczkmDJ
mFj5UZ2F6nMh+xX2wi/trpkVIRqTSTf6cxUShJQUdC6tgBoZYjmqwC0IgfOr2c+I
intbIR4a18L4f12PWqyehjKZ1xZk2meCDxYm37gA7bMT5mBAZp15zUkf2g==
-----END CERTIFICATE-----
