Certificate:
    Data:
        Version: 3 (0x2)
        Serial Number: 100 (0x64)
        Signature Algorithm: sha256WithRSAEncryption
        Issuer: C = US, ST = Washington, L = Seattle, O = wolfSSL Inc., OU = Engineering, CN = chainG-ICA7-pathlen100, emailAddress = info@wolfssl.com
        Validity
            Not Before: Jun 19 13:23:42 2020 GMT
            Not After : Mar 16 13:23:42 2023 GMT
        Subject: C = US, ST = Washington, L = Seattle, O = wolfSSL Inc., OU = Engineering, CN = chainG-ICA6-pathlen10, emailAddress = info@wolfssl.com
        Subject Public Key Info:
            Public Key Algorithm: rsaEncryption
                RSA Public-Key: (2048 bit)
                Modulus:
                    00:e1:4f:c9:e7:30:ea:06:ff:65:cb:2b:6c:f1:a8:
                    ac:f6:cf:10:6b:80:7a:af:5e:42:0a:0d:61:be:6f:
                    14:3c:9f:64:6e:96:46:77:e2:64:a0:0e:d7:56:41:
                    fc:5b:e6:fe:49:86:1f:8f:20:cc:4b:ec:3a:f1:46:
                    74:1a:7e:33:d9:aa:d5:e2:78:09:dd:0c:39:20:7e:
                    32:12:96:cd:96:db:10:01:e8:b7:aa:e3:e1:27:5d:
                    0a:8f:99:6e:ef:2d:d8:c8:c8:76:aa:d9:00:9d:48:
                    d9:cf:12:08:97:31:59:c0:4f:a3:e0:ee:5c:a1:35:
                    ef:94:7c:c6:04:aa:3e:34:a6:43:e0:c8:ed:3d:91:
                    53:53:9e:19:03:8e:bf:30:fd:d9:b5:4b:f3:51:0b:
                    60:ed:27:e2:b1:dd:15:3c:b0:5f:25:0f:29:9b:5f:
                    aa:31:64:5e:3d:83:2e:b8:20:66:b9:da:a7:b5:22:
                    40:19:3d:24:5d:c3:e7:dd:b6:6b:16:c3:67:23:5d:
                    31:65:3b:cb:72:d1:a7:c8:b0:e0:b9:a2:cb:90:86:
                    30:d6:ce:7f:9c:b3:b1:c3:34:62:63:c6:b9:66:33:
                    6b:5b:a6:00:bb:45:ee:03:07:96:a5:d7:2f:1e:f1:
                    d2:f2:5e:c2:d2:a1:36:25:f0:7a:70:cb:3d:1d:a4:
                    6f:61
                Exponent: 65537 (0x10001)
        X509v3 extensions:
            X509v3 Subject Key Identifier: 
                14:07:E8:A7:3A:A2:9C:DD:4C:30:B0:4D:F0:00:C4:88:C4:39:DF:73
            X509v3 Authority Key Identifier: 
                keyid:12:E4:A4:19:85:AE:85:B7:D6:EB:63:04:D5:B9:B0:7E:57:5F:0C:16
                DirName:/C=US/ST=Montana/L=Bozeman/O=Sawtooth/OU=Consulting/CN=www.wolfssl.com/emailAddress=info@wolfssl.com
                serial:64

            X509v3 Basic Constraints: 
                CA:TRUE, pathlen:10
            X509v3 Key Usage: 
                Certificate Sign, CRL Sign
    Signature Algorithm: sha256WithRSAEncryption
         3f:ad:21:8c:bc:14:91:26:58:9a:fe:f7:88:ce:ee:72:a4:20:
         0d:b5:c3:20:3d:6b:6d:17:7b:38:22:e1:04:84:66:f8:26:c3:
         34:ed:b0:0d:3b:ce:07:02:cf:c7:8c:37:16:24:5f:ff:8d:a4:
         e2:38:b1:ea:f2:89:19:d5:40:ec:60:75:09:4b:15:e5:47:a0:
         f8:f5:19:d8:57:a8:76:d7:07:ca:17:3b:ce:c1:32:1b:b6:1a:
         49:56:ea:83:ee:06:4b:52:35:e7:4d:db:b6:ba:87:d6:16:47:
         d2:2e:b7:85:83:f8:77:89:85:d6:88:9c:b8:9a:4d:83:cd:c4:
         c7:94:02:d2:76:1f:d3:c9:2a:d4:a8:85:ec:f7:b3:bd:05:31:
         13:31:03:ac:e9:bc:6b:89:c5:32:7b:00:8d:3f:90:7e:1d:73:
         90:68:7f:ea:6b:4b:49:59:6b:54:e1:05:83:99:75:31:b4:0a:
         f6:e0:19:84:db:ab:2b:b6:41:b4:82:34:be:16:84:48:63:dd:
         f6:ee:42:63:8c:47:02:c7:69:8d:03:88:94:82:f3:fc:63:b6:
         de:60:9c:cd:99:2d:5c:60:fa:28:06:d7:bf:7d:5c:50:bf:e7:
         15:63:b3:02:d0:cd:03:a0:95:1e:58:a2:62:57:8e:99:23:1d:
         f2:73:39:a0
-----BEGIN CERTIFICATE-----
MIIEyTCCA7GgAwIBAgIBZDANBgkqhkiG9w0BAQsFADCBozELMAkGA1UEBhMCVVMx
EzARBgNVBAgMCldhc2hpbmd0b24xEDAOBgNVBAcMB1NlYXR0bGUxFTATBgNVBAoM
DHdvbGZTU0wgSW5jLjEUMBIGA1UECwwLRW5naW5lZXJpbmcxHzAdBgNVBAMMFmNo
YWluRy1JQ0E3LXBhdGhsZW4xMDAxHzAdBgkqhkiG9w0BCQEWEGluZm9Ad29sZnNz
bC5jb20wHhcNMjAwNjE5MTMyMzQyWhcNMjMwMzE2MTMyMzQyWjCBojELMAkGA1UE
BhMCVVMxEzARBgNVBAgMCldhc2hpbmd0b24xEDAOBgNVBAcMB1NlYXR0bGUxFTAT
BgNVBAoMDHdvbGZTU0wgSW5jLjEUMBIGA1UECwwLRW5naW5lZXJpbmcxHjAcBgNV
BAMMFWNoYWluRy1JQ0E2LXBhdGhsZW4xMDEfMB0GCSqGSIb3DQEJARYQaW5mb0B3
b2xmc3NsLmNvbTCCASIwDQYJKoZIhvcNAQEBBQADggEPADCCAQoCggEBAOFPyecw
6gb/ZcsrbPGorPbPEGuAeq9eQgoNYb5vFDyfZG6WRnfiZKAO11ZB/Fvm/kmGH48g
zEvsOvFGdBp+M9mq1eJ4Cd0MOSB+MhKWzZbbEAHot6rj4SddCo+Zbu8t2MjIdqrZ
AJ1I2c8SCJcxWcBPo+DuXKE175R8xgSqPjSmQ+DI7T2RU1OeGQOOvzD92bVL81EL
YO0n4rHdFTywXyUPKZtfqjFkXj2DLrggZrnap7UiQBk9JF3D5922axbDZyNdMWU7
y3LRp8iw4Lmiy5CGMNbOf5yzscM0YmPGuWYza1umALtF7gMHlqXXLx7x0vJewtKh
NiXwenDLPR2kb2ECAwEAAaOCAQUwggEBMB0GA1UdDgQWBBQUB+inOqKc3UwwsE3w
AMSIxDnfczCBwQYDVR0jBIG5MIG2gBQS5KQZha6Ft9brYwTVubB+V18MFqGBmqSB
lzCBlDELMAkGA1UEBhMCVVMxEDAOBgNVBAgMB01vbnRhbmExEDAOBgNVBAcMB0Jv
emVtYW4xETAPBgNVBAoMCFNhd3Rvb3RoMRMwEQYDVQQLDApDb25zdWx0aW5nMRgw
FgYDVQQDDA93d3cud29sZnNzbC5jb20xHzAdBgkqhkiG9w0BCQEWEGluZm9Ad29s
ZnNzbC5jb22CAWQwDwYDVR0TBAgwBgEB/wIBCjALBgNVHQ8EBAMCAQYwDQYJKoZI
hvcNAQELBQADggEBAD+tIYy8FJEmWJr+94jO7nKkIA21wyA9a20Xezgi4QSEZvgm
wzTtsA07zgcCz8eMNxYkX/+NpOI4seryiRnVQOxgdQlLFeVHoPj1GdhXqHbXB8oX
O87BMhu2GklW6oPuBktSNedN27a6h9YWR9Iut4WD+HeJhdaInLiaTYPNxMeUAtJ2
H9PJKtSohez3s70FMRMxA6zpvGuJxTJ7AI0/kH4dc5Bof+prS0lZa1ThBYOZdTG0
CvbgGYTbqyu2QbSCNL4WhEhj3fbuQmOMRwLHaY0DiJSC8/xjtt5gnM2ZLVxg+igG
1799XFC/5xVjswLQzQOglR5YomJXjpkjHfJzOaA=
-----END CERTIFICATE-----
