Certificate:
    Data:
        Version: 3 (0x2)
        Serial Number: 100 (0x64)
        Signature Algorithm: sha1WithRSAEncryption
        Issuer: C = US, ST = Washington, L = Seattle, O = wolfSSL Inc., OU = Engineering, CN = chainH-ICA4-pathlen2, emailAddress = info@wolfssl.com
        Validity
            Not Before: Oct 10 21:32:43 2019 GMT
            Not After : Jul  6 21:32:43 2022 GMT
        Subject: C = US, ST = Washington, L = Seattle, O = wolfSSL Inc., OU = Engineering, CN = chainH-ICA3-pathlen2, emailAddress = info@wolfssl.com
        Subject Public Key Info:
            Public Key Algorithm: rsaEncryption
                RSA Public-Key: (2048 bit)
                Modulus:
                    00:b7:b3:1a:1b:4a:80:1b:a2:e5:95:14:bc:55:e4:
                    77:dc:f3:7b:8a:9f:34:7c:93:db:c9:c9:d0:8b:b8:
                    87:45:65:d3:a1:7d:46:f3:70:92:a9:d7:66:ef:3b:
                    b4:a8:16:b0:f0:be:67:70:aa:45:7b:09:bc:ca:77:
                    db:57:a4:24:54:0b:1a:da:5f:ad:64:a3:f1:49:83:
                    bc:9f:5d:c4:b4:da:43:04:aa:cc:c3:b0:4d:c2:f1:
                    73:c9:38:0d:4c:c9:ab:db:df:09:b3:5c:15:0b:66:
                    79:ad:6c:63:d1:38:cc:a6:2d:46:83:ce:19:1d:c1:
                    0b:6e:fc:38:b7:d8:8c:a2:6f:29:87:9b:21:cd:b0:
                    6b:e0:f8:1f:03:db:82:1d:8d:98:63:16:b6:74:47:
                    43:20:f2:a1:4b:16:8b:67:fd:bc:73:78:9b:f9:dd:
                    ba:49:d9:60:a9:b7:85:66:7f:a4:2a:05:c8:2d:93:
                    a0:9b:aa:bf:a6:31:e1:f2:c8:d3:1b:7b:79:d1:b6:
                    6c:ae:3b:6b:00:2e:6e:ae:10:dc:6c:88:dc:1b:93:
                    e8:56:99:8d:46:7e:49:3a:87:a0:b3:00:cc:2e:3b:
                    83:e1:6b:39:16:71:47:47:30:6d:6b:6c:9c:9f:e6:
                    ce:ec:20:2f:8f:c1:5d:ef:d3:84:32:6c:a5:cc:78:
                    fe:a1
                Exponent: 65537 (0x10001)
        X509v3 extensions:
            X509v3 Subject Key Identifier: 
                56:54:36:BE:23:2F:20:89:6D:A6:BA:9A:45:A4:88:0E:40:35:FD:F5
            X509v3 Authority Key Identifier: 
                keyid:18:6D:44:83:EE:1F:EC:B4:22:F0:9C:EB:54:1E:4A:15:58:01:AA:13
                DirName:/C=US/ST=Montana/L=Bozeman/O=Sawtooth/OU=Consulting/CN=www.wolfssl.com/emailAddress=info@wolfssl.com
                serial:64

            X509v3 Basic Constraints: 
                CA:TRUE, pathlen:2
            X509v3 Key Usage: 
                Certificate Sign, CRL Sign
    Signature Algorithm: sha1WithRSAEncryption
         6c:c3:93:16:3e:f6:9f:09:c0:5d:cc:47:8d:db:b8:9b:8e:3d:
         99:0d:37:d2:a1:bc:67:0d:21:a1:d4:6e:4b:35:14:ec:91:56:
         eb:6c:c2:e7:67:1c:0a:78:d7:d8:c8:0c:a3:7b:be:13:de:22:
         62:46:e4:50:89:cd:22:d3:18:2b:d8:2a:46:99:47:91:2f:4b:
         41:2d:42:3b:68:fb:1a:9c:3d:04:53:2d:c1:57:09:5b:99:13:
         1b:e6:99:83:4d:07:f7:3a:d6:45:8c:28:e5:bb:35:21:92:77:
         5c:d9:36:99:4b:3c:86:c7:59:31:08:8c:a9:7a:01:0d:89:06:
         62:c1:f5:95:09:c6:2a:a0:1b:01:28:b4:80:71:fd:84:b3:3c:
         6e:15:08:b7:2e:00:30:d0:b6:e8:6c:a0:5d:ad:7d:9b:52:ac:
         fd:f0:52:7d:f1:34:f9:f0:45:66:83:15:41:61:fd:3e:44:f1:
         df:b3:50:92:be:2e:f9:cc:a7:46:b2:e6:5f:a0:31:db:34:df:
         e7:a4:87:34:3f:9d:c3:58:86:22:06:56:98:56:98:cc:9b:1f:
         84:cf:a9:f9:50:c0:68:c1:c7:f8:a3:5a:5d:bd:0a:03:9f:46:
         8f:0e:94:2b:e3:0b:35:aa:b8:02:ba:9f:b9:d6:79:1c:1b:68:
         7e:4b:ec:a0
-----BEGIN CERTIFICATE-----
MIIExjCCA66gAwIBAgIBZDANBgkqhkiG9w0BAQUFADCBoTELMAkGA1UEBhMCVVMx
EzARBgNVBAgMCldhc2hpbmd0b24xEDAOBgNVBAcMB1NlYXR0bGUxFTATBgNVBAoM
DHdvbGZTU0wgSW5jLjEUMBIGA1UECwwLRW5naW5lZXJpbmcxHTAbBgNVBAMMFGNo
YWluSC1JQ0E0LXBhdGhsZW4yMR8wHQYJKoZIhvcNAQkBFhBpbmZvQHdvbGZzc2wu
Y29tMB4XDTE5MTAxMDIxMzI0M1oXDTIyMDcwNjIxMzI0M1owgaExCzAJBgNVBAYT
AlVTMRMwEQYDVQQIDApXYXNoaW5ndG9uMRAwDgYDVQQHDAdTZWF0dGxlMRUwEwYD
VQQKDAx3b2xmU1NMIEluYy4xFDASBgNVBAsMC0VuZ2luZWVyaW5nMR0wGwYDVQQD
DBRjaGFpbkgtSUNBMy1wYXRobGVuMjEfMB0GCSqGSIb3DQEJARYQaW5mb0B3b2xm
c3NsLmNvbTCCASIwDQYJKoZIhvcNAQEBBQADggEPADCCAQoCggEBALezGhtKgBui
5ZUUvFXkd9zze4qfNHyT28nJ0Iu4h0Vl06F9RvNwkqnXZu87tKgWsPC+Z3CqRXsJ
vMp321ekJFQLGtpfrWSj8UmDvJ9dxLTaQwSqzMOwTcLxc8k4DUzJq9vfCbNcFQtm
ea1sY9E4zKYtRoPOGR3BC278OLfYjKJvKYebIc2wa+D4HwPbgh2NmGMWtnRHQyDy
oUsWi2f9vHN4m/nduknZYKm3hWZ/pCoFyC2ToJuqv6Yx4fLI0xt7edG2bK47awAu
bq4Q3GyI3BuT6FaZjUZ+STqHoLMAzC47g+FrORZxR0cwbWtsnJ/mzuwgL4/BXe/T
hDJspcx4/qECAwEAAaOCAQUwggEBMB0GA1UdDgQWBBRWVDa+Iy8giW2muppFpIgO
QDX99TCBwQYDVR0jBIG5MIG2gBQYbUSD7h/stCLwnOtUHkoVWAGqE6GBmqSBlzCB
lDELMAkGA1UEBhMCVVMxEDAOBgNVBAgMB01vbnRhbmExEDAOBgNVBAcMB0JvemVt
YW4xETAPBgNVBAoMCFNhd3Rvb3RoMRMwEQYDVQQLDApDb25zdWx0aW5nMRgwFgYD
VQQDDA93d3cud29sZnNzbC5jb20xHzAdBgkqhkiG9w0BCQEWEGluZm9Ad29sZnNz
bC5jb22CAWQwDwYDVR0TBAgwBgEB/wIBAjALBgNVHQ8EBAMCAQYwDQYJKoZIhvcN
AQEFBQADggEBAGzDkxY+9p8JwF3MR43buJuOPZkNN9KhvGcNIaHUbks1FOyRVuts
wudnHAp419jIDKN7vhPeImJG5FCJzSLTGCvYKkaZR5EvS0EtQjto+xqcPQRTLcFX
CVuZExvmmYNNB/c61kWMKOW7NSGSd1zZNplLPIbHWTEIjKl6AQ2JBmLB9ZUJxiqg
GwEotIBx/YSzPG4VCLcuADDQtuhsoF2tfZtSrP3wUn3xNPnwRWaDFUFh/T5E8d+z
UJK+LvnMp0ay5l+gMds03+ekhzQ/ncNYhiIGVphWmMybH4TPqflQwGjBx/ijWl29
CgOfRo8OlCvjCzWquAK6n7nWeRwbaH5L7KA=
-----END CERTIFICATE-----
