Certificate:
    Data:
        Version: 3 (0x2)
        Serial Number: 101 (0x65)
        Signature Algorithm: sha256WithRSAEncryption
        Issuer: C = US, ST = Washington, L = Seattle, O = wolfSSL Inc., OU = Engineering, CN = chainA-ICA1-pathlen0, emailAddress = info@wolfssl.com
        Validity
            Not Before: Jun 19 13:23:42 2020 GMT
            Not After : Mar 16 13:23:42 2023 GMT
        Subject: C = US, ST = Washington, L = Seattle, O = wolfSSL Inc., OU = Engineering, CN = chainA-entity, emailAddress = info@wolfssl.com
        Subject Public Key Info:
            Public Key Algorithm: rsaEncryption
                RSA Public-Key: (2048 bit)
                Modulus:
                    00:d0:7a:d8:c8:6c:4f:a5:cd:72:25:87:ff:12:a3:
                    65:0e:1d:1f:78:b2:d7:1a:65:a1:e7:4e:bd:05:b5:
                    05:3e:39:3e:85:ad:90:c7:5b:a5:81:42:b5:01:00:
                    57:87:29:a3:45:ce:f4:02:fa:80:8f:3b:8e:99:40:
                    2c:fc:c8:b0:8b:2b:19:c3:20:c6:af:db:a0:d9:d5:
                    70:32:6d:66:c3:ca:c4:ea:63:fb:08:0e:35:bc:50:
                    7f:85:c7:62:f4:e2:85:e4:89:59:52:71:f2:e3:d1:
                    63:3e:1d:08:6d:ff:86:cb:e5:eb:bc:1f:de:13:f0:
                    b2:f8:92:ee:23:9d:64:e7:b0:49:6f:26:a2:64:bc:
                    9c:18:8a:f3:c6:db:83:a4:6c:b0:56:23:16:40:57:
                    b0:95:5e:1b:3d:c5:3f:10:7a:84:e0:3e:bb:78:e8:
                    7d:c1:63:f3:fe:ee:af:16:db:ce:28:02:21:df:8b:
                    ca:f3:c3:1e:d1:47:c0:59:5f:1c:48:ec:50:6a:e3:
                    cc:fb:b6:16:45:40:c8:50:cf:dc:3e:2d:2d:cb:cd:
                    19:2a:17:74:41:7f:bc:26:4d:cd:97:b2:2b:67:57:
                    8e:6e:75:b5:d8:ec:6b:69:ab:09:3d:95:85:2c:0f:
                    d7:8d:29:75:1f:9b:88:56:bc:e8:11:a3:c8:65:e5:
                    2b:23
                Exponent: 65537 (0x10001)
        X509v3 extensions:
            X509v3 Subject Key Identifier: 
                D6:56:A1:9C:F1:66:E4:05:17:36:32:74:BA:72:97:50:13:58:B3:3D
            X509v3 Authority Key Identifier: 
                keyid:A8:10:EA:C8:EF:4F:00:CD:E3:79:C3:EB:DF:F6:C8:86:9D:44:6C:26
                DirName:/C=US/ST=Montana/L=Bozeman/O=Sawtooth/OU=Consulting/CN=www.wolfssl.com/emailAddress=info@wolfssl.com
                serial:64

            X509v3 Basic Constraints: 
                CA:FALSE
    Signature Algorithm: sha256WithRSAEncryption
         a2:2c:5e:a6:e3:70:28:3e:7f:b7:43:f8:b4:2f:59:d3:1b:76:
         47:25:49:b1:c8:0c:00:5d:f1:1a:ee:ea:4d:85:12:63:94:90:
         75:8a:7b:b8:b1:a3:ef:35:e0:aa:37:16:d3:16:ec:11:d1:c3:
         27:31:3c:bf:67:d8:ba:fa:ed:59:0a:09:d6:e8:15:1a:b1:7e:
         3b:ad:71:e5:d9:e6:02:75:00:f1:8c:77:e2:da:5c:61:6c:50:
         a2:40:22:9a:c0:84:9d:36:d3:d2:78:a3:75:ac:87:46:04:ce:
         f1:fb:de:9e:22:d7:cd:5a:25:9a:b3:92:cb:f6:d8:57:80:a6:
         fe:ef:19:06:cf:95:3a:e6:af:88:78:8c:ef:bd:61:26:80:e4:
         73:65:3a:54:4a:33:a7:69:84:40:0c:8a:e5:36:21:c6:00:8e:
         d0:2f:55:f0:75:43:ae:83:1b:77:58:99:e1:fe:08:86:9c:de:
         d5:eb:30:e7:08:83:2c:2d:51:fd:06:42:93:9c:c0:3b:f1:83:
         7a:df:1e:34:51:53:8d:05:ce:03:49:ee:ec:4e:f1:a2:d3:96:
         ed:c6:22:b4:0d:d7:e5:8b:01:cc:fe:b0:b3:d7:fe:e4:a7:d9:
         fb:82:02:e4:fa:46:ff:a6:38:33:f9:2c:27:7b:c3:f7:46:a2:
         96:37:53:d9
-----BEGIN CERTIFICATE-----
MIIEqjCCA5KgAwIBAgIBZTANBgkqhkiG9w0BAQsFADCBoTELMAkGA1UEBhMCVVMx
EzARBgNVBAgMCldhc2hpbmd0b24xEDAOBgNVBAcMB1NlYXR0bGUxFTATBgNVBAoM
DHdvbGZTU0wgSW5jLjEUMBIGA1UECwwLRW5naW5lZXJpbmcxHTAbBgNVBAMMFGNo
YWluQS1JQ0ExLXBhdGhsZW4wMR8wHQYJKoZIhvcNAQkBFhBpbmZvQHdvbGZzc2wu
Y29tMB4XDTIwMDYxOTEzMjM0MloXDTIzMDMxNjEzMjM0MlowgZoxCzAJBgNVBAYT
AlVTMRMwEQYDVQQIDApXYXNoaW5ndG9uMRAwDgYDVQQHDAdTZWF0dGxlMRUwEwYD
VQQKDAx3b2xmU1NMIEluYy4xFDASBgNVBAsMC0VuZ2luZWVyaW5nMRYwFAYDVQQD
DA1jaGFpbkEtZW50aXR5MR8wHQYJKoZIhvcNAQkBFhBpbmZvQHdvbGZzc2wuY29t
MIIBIjANBgkqhkiG9w0BAQEFAAOCAQ8AMIIBCgKCAQEA0HrYyGxPpc1yJYf/EqNl
Dh0feLLXGmWh5069BbUFPjk+ha2Qx1ulgUK1AQBXhymjRc70AvqAjzuOmUAs/Miw
iysZwyDGr9ug2dVwMm1mw8rE6mP7CA41vFB/hcdi9OKF5IlZUnHy49FjPh0Ibf+G
y+XrvB/eE/Cy+JLuI51k57BJbyaiZLycGIrzxtuDpGywViMWQFewlV4bPcU/EHqE
4D67eOh9wWPz/u6vFtvOKAIh34vK88Me0UfAWV8cSOxQauPM+7YWRUDIUM/cPi0t
y80ZKhd0QX+8Jk3Nl7IrZ1eObnW12OxraasJPZWFLA/XjSl1H5uIVrzoEaPIZeUr
IwIDAQABo4HxMIHuMB0GA1UdDgQWBBTWVqGc8WbkBRc2MnS6cpdQE1izPTCBwQYD
VR0jBIG5MIG2gBSoEOrI708AzeN5w+vf9siGnURsJqGBmqSBlzCBlDELMAkGA1UE
BhMCVVMxEDAOBgNVBAgMB01vbnRhbmExEDAOBgNVBAcMB0JvemVtYW4xETAPBgNV
BAoMCFNhd3Rvb3RoMRMwEQYDVQQLDApDb25zdWx0aW5nMRgwFgYDVQQDDA93d3cu
d29sZnNzbC5jb20xHzAdBgkqhkiG9w0BCQEWEGluZm9Ad29sZnNzbC5jb22CAWQw
CQYDVR0TBAIwADANBgkqhkiG9w0BAQsFAAOCAQEAoixepuNwKD5/t0P4tC9Z0xt2
RyVJscgMAF3xGu7qTYUSY5SQdYp7uLGj7zXgqjcW0xbsEdHDJzE8v2fYuvrtWQoJ
1ugVGrF+O61x5dnmAnUA8Yx34tpcYWxQokAimsCEnTbT0nijdayHRgTO8fveniLX
zVolmrOSy/bYV4Cm/u8ZBs+VOuaviHiM771hJoDkc2U6VEozp2mEQAyK5TYhxgCO
0C9V8HVDroMbd1iZ4f4Ihpze1esw5wiDLC1R/QZCk5zAO/GDet8eNFFTjQXOA0nu
7E7xotOW7cYitA3X5YsBzP6ws9f+5KfZ+4IC5PpG/6Y4M/ksJ3vD90ailjdT2Q==
-----END CERTIFICATE-----
Certificate:
    Data:
        Version: 3 (0x2)
        Serial Number: 100 (0x64)
        Signature Algorithm: sha256WithRSAEncryption
        Issuer: C = US, ST = Montana, L = Bozeman, O = Sawtooth, OU = Consulting, CN = www.wolfssl.com, emailAddress = info@wolfssl.com
        Validity
            Not Before: Jun 19 13:23:42 2020 GMT
            Not After : Mar 16 13:23:42 2023 GMT
        Subject: C = US, ST = Washington, L = Seattle, O = wolfSSL Inc., OU = Engineering, CN = chainA-ICA1-pathlen0, emailAddress = info@wolfssl.com
        Subject Public Key Info:
            Public Key Algorithm: rsaEncryption
                RSA Public-Key: (2048 bit)
                Modulus:
                    00:b2:2b:a1:3f:be:c0:58:bd:3a:bc:0d:19:ac:ca:
                    7f:b9:3b:f0:8c:30:ff:04:b1:34:7e:26:86:96:36:
                    6b:53:2e:44:1d:a1:f4:bc:51:79:55:05:ca:bb:a0:
                    a7:9d:33:01:93:96:14:67:ec:f4:c3:2e:66:27:d1:
                    41:68:34:ac:8d:64:63:d8:55:86:9d:62:24:99:ed:
                    b7:ff:cb:4d:9d:40:54:d5:e3:aa:45:a6:a6:db:fe:
                    73:42:94:42:c1:d0:32:5c:c4:21:ae:9c:93:00:b7:
                    4a:1f:9e:95:a6:28:6d:4b:d8:c0:65:e7:ed:a3:6d:
                    ca:18:b3:fa:df:c9:67:1a:75:23:60:83:a5:03:5f:
                    61:bd:e5:d6:8d:9d:05:47:23:7e:a0:8d:d1:7f:42:
                    4e:38:ac:ce:70:bc:bf:7b:05:5b:0f:82:02:b0:9a:
                    8d:c0:14:ca:d0:45:5e:97:10:d1:a1:e1:23:da:dc:
                    69:9c:ce:53:cc:68:89:c6:40:4d:69:bc:ab:4f:c7:
                    11:5e:62:a2:df:e2:a5:34:7c:39:36:27:67:34:11:
                    04:2c:2a:b3:16:db:8e:fd:d7:7b:1d:93:5f:33:c2:
                    ca:96:22:2a:43:82:8a:48:46:07:13:ff:6c:1c:b0:
                    ba:0b:f0:cd:3f:4c:dc:34:17:8f:22:70:69:9d:22:
                    d7:c7
                Exponent: 65537 (0x10001)
        X509v3 extensions:
            X509v3 Subject Key Identifier: 
                A8:10:EA:C8:EF:4F:00:CD:E3:79:C3:EB:DF:F6:C8:86:9D:44:6C:26
            X509v3 Authority Key Identifier: 
                keyid:27:8E:67:11:74:C3:26:1D:3F:ED:33:63:B3:A4:D8:1D:30:E5:E8:D5
                DirName:/C=US/ST=Montana/L=Bozeman/O=Sawtooth/OU=Consulting/CN=www.wolfssl.com/emailAddress=info@wolfssl.com
                serial:5E:BA:A4:F4:B1:F7:48:25:E3:5F:9B:DA:A1:13:ED:D5:2B:03:67:15

            X509v3 Basic Constraints: 
                CA:TRUE, pathlen:0
            X509v3 Key Usage: 
                Certificate Sign, CRL Sign
    Signature Algorithm: sha256WithRSAEncryption
         3e:94:49:3e:0b:66:d5:3d:19:46:e1:c3:36:8f:11:af:ef:e6:
         4d:94:97:ce:53:2e:5e:dd:4c:d4:2d:a0:b3:49:4e:f4:98:10:
         44:7f:43:f1:d9:df:cb:6b:2a:4a:79:3c:e0:86:fe:ab:75:44:
         98:a5:3f:a9:b6:43:0e:c5:48:5a:78:3a:34:aa:9b:69:6d:5b:
         8a:52:93:5b:c2:58:53:f9:1e:5e:d4:99:c9:f3:72:34:6b:1a:
         a7:6b:d7:c6:af:bd:03:86:72:4a:78:8d:b6:e7:f7:2f:5d:0c:
         2c:3a:d7:5c:b0:70:a5:b9:b7:0d:55:9b:89:07:52:86:ec:05:
         3c:e7:7e:c2:ca:b0:71:23:05:d5:3e:38:22:18:69:6a:4a:92:
         36:14:1d:36:b9:15:f1:71:8b:a2:96:e5:02:ba:36:75:6c:ea:
         75:98:22:9c:e9:12:58:50:3f:3e:e4:51:cd:82:a6:f2:30:9a:
         25:02:f4:21:53:49:7e:86:71:cb:1c:1e:72:95:51:a2:0e:d3:
         d2:75:94:34:d7:1b:d5:6a:5a:b4:fc:cc:eb:93:ac:07:16:00:
         5a:f3:ff:75:2d:3a:49:04:dd:ea:ab:76:ce:4b:5e:08:d9:8c:
         04:02:f1:35:5e:25:11:4d:9c:27:37:63:ce:8b:2b:2a:6b:73:
         e4:95:b3:ad
-----BEGIN CERTIFICATE-----
MIIEzDCCA7SgAwIBAgIBZDANBgkqhkiG9w0BAQsFADCBlDELMAkGA1UEBhMCVVMx
EDAOBgNVBAgMB01vbnRhbmExEDAOBgNVBAcMB0JvemVtYW4xETAPBgNVBAoMCFNh
d3Rvb3RoMRMwEQYDVQQLDApDb25zdWx0aW5nMRgwFgYDVQQDDA93d3cud29sZnNz
bC5jb20xHzAdBgkqhkiG9w0BCQEWEGluZm9Ad29sZnNzbC5jb20wHhcNMjAwNjE5
MTMyMzQyWhcNMjMwMzE2MTMyMzQyWjCBoTELMAkGA1UEBhMCVVMxEzARBgNVBAgM
Cldhc2hpbmd0b24xEDAOBgNVBAcMB1NlYXR0bGUxFTATBgNVBAoMDHdvbGZTU0wg
SW5jLjEUMBIGA1UECwwLRW5naW5lZXJpbmcxHTAbBgNVBAMMFGNoYWluQS1JQ0Ex
LXBhdGhsZW4wMR8wHQYJKoZIhvcNAQkBFhBpbmZvQHdvbGZzc2wuY29tMIIBIjAN
BgkqhkiG9w0BAQEFAAOCAQ8AMIIBCgKCAQEAsiuhP77AWL06vA0ZrMp/uTvwjDD/
BLE0fiaGljZrUy5EHaH0vFF5VQXKu6CnnTMBk5YUZ+z0wy5mJ9FBaDSsjWRj2FWG
nWIkme23/8tNnUBU1eOqRaam2/5zQpRCwdAyXMQhrpyTALdKH56VpihtS9jAZeft
o23KGLP638lnGnUjYIOlA19hveXWjZ0FRyN+oI3Rf0JOOKzOcLy/ewVbD4ICsJqN
wBTK0EVelxDRoeEj2txpnM5TzGiJxkBNabyrT8cRXmKi3+KlNHw5NidnNBEELCqz
FtuO/dd7HZNfM8LKliIqQ4KKSEYHE/9sHLC6C/DNP0zcNBePInBpnSLXxwIDAQAB
o4IBGDCCARQwHQYDVR0OBBYEFKgQ6sjvTwDN43nD69/2yIadRGwmMIHUBgNVHSME
gcwwgcmAFCeOZxF0wyYdP+0zY7Ok2B0w5ejVoYGapIGXMIGUMQswCQYDVQQGEwJV
UzEQMA4GA1UECAwHTW9udGFuYTEQMA4GA1UEBwwHQm96ZW1hbjERMA8GA1UECgwI
U2F3dG9vdGgxEzARBgNVBAsMCkNvbnN1bHRpbmcxGDAWBgNVBAMMD3d3dy53b2xm
c3NsLmNvbTEfMB0GCSqGSIb3DQEJARYQaW5mb0B3b2xmc3NsLmNvbYIUXrqk9LH3
SCXjX5vaoRPt1SsDZxUwDwYDVR0TBAgwBgEB/wIBADALBgNVHQ8EBAMCAQYwDQYJ
KoZIhvcNAQELBQADggEBAD6UST4LZtU9GUbhwzaPEa/v5k2Ul85TLl7dTNQtoLNJ
TvSYEER/Q/HZ38trKkp5POCG/qt1RJilP6m2Qw7FSFp4OjSqm2ltW4pSk1vCWFP5
Hl7UmcnzcjRrGqdr18avvQOGckp4jbbn9y9dDCw611ywcKW5tw1Vm4kHUobsBTzn
fsLKsHEjBdU+OCIYaWpKkjYUHTa5FfFxi6KW5QK6NnVs6nWYIpzpElhQPz7kUc2C
pvIwmiUC9CFTSX6GccscHnKVUaIO09J1lDTXG9VqWrT8zOuTrAcWAFrz/3UtOkkE
3eqrds5LXgjZjAQC8TVeJRFNnCc3Y86LKyprc+SVs60=
-----END CERTIFICATE-----
