Certificate:
    Data:
        Version: 3 (0x2)
        Serial Number: 100 (0x64)
    Signature Algorithm: sha256WithRSAEncryption
        Issuer: C=US, ST=Montana, L=Bozeman, O=Sawtooth, OU=Consulting, CN=www.wolfssl.com/emailAddress=info@wolfssl.com
        Validity
            Not Before: Feb 10 19:49:54 2021 GMT
            Not After : Nov  7 19:49:54 2023 GMT
        Subject: C=US, ST=Washington, L=Seattle, O=wolfSSL Inc., OU=Engineering, CN=chainB-ICA2-pathlen1/emailAddress=info@wolfssl.com
        Subject Public Key Info:
            Public Key Algorithm: rsaEncryption
                Public-Key: (2048 bit)
                Modulus:
                    00:d0:7f:82:05:9d:5b:c4:49:e0:3e:1f:87:6e:17:
                    05:eb:e2:0a:d1:d1:a5:f5:cc:be:1d:46:d8:cd:a8:
                    6e:22:ce:3d:5c:39:71:a4:0d:03:fa:78:7e:bb:6c:
                    e8:51:e5:98:ef:a6:5e:62:d2:30:fa:3b:8f:21:5f:
                    b7:5f:98:b7:9f:a8:56:7a:39:ca:c2:df:a1:56:fe:
                    95:97:56:5e:5b:fe:74:d9:f2:2e:ca:7e:db:50:77:
                    5a:d1:90:dc:22:d6:fe:4b:c0:57:a1:c6:3b:4a:ba:
                    ad:05:14:c9:24:68:76:b5:e2:26:d5:cb:50:fd:d0:
                    77:0e:8c:0c:b9:5e:f7:a4:9a:45:35:6c:62:ca:e9:
                    38:d4:10:9a:5c:30:a5:4f:26:47:03:03:73:56:85:
                    8c:be:f5:d0:c0:09:06:3e:0e:e8:e5:7d:d0:19:54:
                    ed:57:ec:51:cf:bc:95:15:91:cf:d0:9a:84:dd:8a:
                    50:7c:33:c2:1a:61:70:31:9a:19:17:28:b3:8c:da:
                    5f:b8:d2:06:6b:82:3f:b6:6a:28:29:86:b4:20:cb:
                    a5:af:73:66:e4:37:36:81:f0:3f:ad:bf:05:b8:db:
                    2e:c4:22:e2:eb:46:87:f4:60:d1:a6:7f:ee:9c:41:
                    a7:f3:aa:e9:37:dd:da:d6:f0:cd:48:ac:51:d1:77:
                    8d:a1
                Exponent: 65537 (0x10001)
        X509v3 extensions:
            X509v3 Subject Key Identifier: 
                EE:59:9D:56:0B:7C:0A:45:44:E3:15:57:E2:B2:F3:1D:64:6F:AF:7A
            X509v3 Authority Key Identifier: 
                keyid:27:8E:67:11:74:C3:26:1D:3F:ED:33:63:B3:A4:D8:1D:30:E5:E8:D5
                DirName:/C=US/ST=Montana/L=Bozeman/O=Sawtooth/OU=Consulting/CN=www.wolfssl.com/emailAddress=info@wolfssl.com
                serial:AA:D3:3F:AC:18:0A:37:4D

            X509v3 Basic Constraints: 
                CA:TRUE, pathlen:1
            X509v3 Key Usage: 
                Certificate Sign, CRL Sign
    Signature Algorithm: sha256WithRSAEncryption
         12:dd:3f:c6:8a:bb:1e:a0:0b:68:c4:bf:9e:34:09:b0:e9:1a:
         32:f5:c3:6c:59:7a:ec:c6:ba:42:b8:57:05:21:8a:6b:99:dd:
         d7:7e:13:8e:1b:20:e5:ff:f9:67:23:ec:3c:fe:bb:07:e7:12:
         ca:cb:74:03:01:5b:82:2d:3c:2c:e7:de:c5:00:6c:3b:6e:a3:
         91:73:e4:b3:ef:bd:5b:89:ce:f4:aa:f7:78:c6:a7:60:57:5a:
         4e:f4:f7:64:e1:78:24:0b:c1:49:fc:be:e2:7e:b6:d7:dd:f2:
         8d:5c:85:b0:1c:9a:2d:28:ea:54:08:a9:d2:80:aa:9f:9d:50:
         83:f4:f6:ce:70:2f:f4:83:0a:f4:39:81:a4:92:76:69:15:74:
         3b:01:46:4e:e1:95:87:d2:0e:f5:a2:b1:cd:8a:dc:d8:c7:12:
         6c:1a:04:74:e8:89:2f:48:bc:64:16:2e:d5:4b:21:78:d5:b2:
         17:93:57:de:94:fe:a4:28:db:f1:6e:5b:df:2b:83:a9:89:a1:
         59:09:1d:5b:64:1d:e6:09:65:41:a9:ef:1c:6d:92:98:50:8c:
         af:aa:8e:89:d2:c5:88:2e:d5:a2:0e:1b:1e:7d:11:25:90:de:
         4f:49:ff:37:9c:71:3f:68:2a:da:15:60:20:c1:a0:2a:0e:ed:
         fd:f9:92:e7
-----BEGIN CERTIFICATE-----
MIIEwTCCA6mgAwIBAgIBZDANBgkqhkiG9w0BAQsFADCBlDELMAkGA1UEBhMCVVMx
EDAOBgNVBAgMB01vbnRhbmExEDAOBgNVBAcMB0JvemVtYW4xETAPBgNVBAoMCFNh
d3Rvb3RoMRMwEQYDVQQLDApDb25zdWx0aW5nMRgwFgYDVQQDDA93d3cud29sZnNz
bC5jb20xHzAdBgkqhkiG9w0BCQEWEGluZm9Ad29sZnNzbC5jb20wHhcNMjEwMjEw
MTk0OTU0WhcNMjMxMTA3MTk0OTU0WjCBoTELMAkGA1UEBhMCVVMxEzARBgNVBAgM
Cldhc2hpbmd0b24xEDAOBgNVBAcMB1NlYXR0bGUxFTATBgNVBAoMDHdvbGZTU0wg
SW5jLjEUMBIGA1UECwwLRW5naW5lZXJpbmcxHTAbBgNVBAMMFGNoYWluQi1JQ0Ey
LXBhdGhsZW4xMR8wHQYJKoZIhvcNAQkBFhBpbmZvQHdvbGZzc2wuY29tMIIBIjAN
BgkqhkiG9w0BAQEFAAOCAQ8AMIIBCgKCAQEA0H+CBZ1bxEngPh+HbhcF6+IK0dGl
9cy+HUbYzahuIs49XDlxpA0D+nh+u2zoUeWY76ZeYtIw+juPIV+3X5i3n6hWejnK
wt+hVv6Vl1ZeW/502fIuyn7bUHda0ZDcItb+S8BXocY7SrqtBRTJJGh2teIm1ctQ
/dB3DowMuV73pJpFNWxiyuk41BCaXDClTyZHAwNzVoWMvvXQwAkGPg7o5X3QGVTt
V+xRz7yVFZHP0JqE3YpQfDPCGmFwMZoZFyizjNpfuNIGa4I/tmooKYa0IMulr3Nm
5Dc2gfA/rb8FuNsuxCLi60aH9GDRpn/unEGn86rpN93a1vDNSKxR0XeNoQIDAQAB
o4IBDTCCAQkwHQYDVR0OBBYEFO5ZnVYLfApFROMVV+Ky8x1kb696MIHJBgNVHSME
gcEwgb6AFCeOZxF0wyYdP+0zY7Ok2B0w5ejVoYGapIGXMIGUMQswCQYDVQQGEwJV
UzEQMA4GA1UECAwHTW9udGFuYTEQMA4GA1UEBwwHQm96ZW1hbjERMA8GA1UECgwI
U2F3dG9vdGgxEzARBgNVBAsMCkNvbnN1bHRpbmcxGDAWBgNVBAMMD3d3dy53b2xm
c3NsLmNvbTEfMB0GCSqGSIb3DQEJARYQaW5mb0B3b2xmc3NsLmNvbYIJAKrTP6wY
CjdNMA8GA1UdEwQIMAYBAf8CAQEwCwYDVR0PBAQDAgEGMA0GCSqGSIb3DQEBCwUA
A4IBAQAS3T/GirseoAtoxL+eNAmw6Roy9cNsWXrsxrpCuFcFIYprmd3XfhOOGyDl
//lnI+w8/rsH5xLKy3QDAVuCLTws597FAGw7bqORc+Sz771bic70qvd4xqdgV1pO
9Pdk4XgkC8FJ/L7ifrbX3fKNXIWwHJotKOpUCKnSgKqfnVCD9PbOcC/0gwr0OYGk
knZpFXQ7AUZO4ZWH0g71orHNitzYxxJsGgR06IkvSLxkFi7VSyF41bIXk1felP6k
KNvxblvfK4OpiaFZCR1bZB3mCWVBqe8cbZKYUIyvqo6J0sWILtWiDhsefRElkN5P
Sf83nHE/aCraFWAgwaAqDu39+ZLn
-----END CERTIFICATE-----
