Certificate:
    Data:
        Version: 3 (0x2)
        Serial Number: 100 (0x64)
        Signature Algorithm: sha256WithRSAEncryption
        Issuer: C = US, ST = Montana, L = Bozeman, O = Sawtooth, OU = Consulting, CN = www.wolfssl.com, emailAddress = info@wolfssl.com
        Validity
            Not Before: Dec 20 23:07:25 2021 GMT
            Not After : Sep 15 23:07:25 2024 GMT
        Subject: C = US, ST = Washington, L = Seattle, O = wolfSSL Inc., OU = Engineering, CN = chainF-ICA2-pathlen0, emailAddress = info@wolfssl.com
        Subject Public Key Info:
            Public Key Algorithm: rsaEncryption
                RSA Public-Key: (2048 bit)
                Modulus:
                    00:da:3a:22:65:f8:6d:1c:b7:1c:87:dd:27:f4:d7:
                    75:aa:7c:1c:37:31:b4:d6:a5:34:4b:36:40:ea:55:
                    08:72:a0:ff:58:e2:5d:26:11:f5:b8:6e:de:d7:c3:
                    bb:26:51:c8:d0:36:14:00:76:42:4d:03:73:ef:88:
                    b9:37:f4:e8:9d:61:45:96:e1:8e:6c:78:58:e1:f6:
                    cf:46:8a:d6:a5:79:4d:47:88:ca:6c:69:4e:28:d4:
                    8d:84:a8:e1:6c:1d:d3:36:7e:23:e3:64:d5:0a:a3:
                    fc:36:89:90:0a:ff:7e:8b:fa:2e:66:fb:c7:33:44:
                    92:df:0f:43:b2:eb:24:7e:2b:ae:b0:43:a9:ad:53:
                    82:f8:de:17:19:26:5f:ca:8c:ac:0c:1f:24:bd:15:
                    ed:4f:5d:82:ea:10:eb:05:70:4f:03:60:d9:23:6d:
                    21:07:4d:12:9c:f3:64:ee:76:fb:9d:f9:c3:d8:1a:
                    3b:6e:a9:82:7b:2d:2e:b0:74:b7:13:d6:65:8a:06:
                    f2:25:74:c2:26:e9:71:66:54:61:fe:2a:34:27:07:
                    c9:8d:ef:a0:a2:86:93:41:47:73:08:01:07:cc:4d:
                    ec:fe:80:88:93:fb:ae:b4:91:16:fa:83:96:84:66:
                    53:cd:f3:52:da:d4:25:e1:09:15:20:e2:10:ea:dd:
                    39:ef
                Exponent: 65537 (0x10001)
        X509v3 extensions:
            X509v3 Subject Key Identifier: 
                4A:53:4A:B7:30:78:35:91:B4:CB:DD:C8:22:74:89:AF:80:0F:7F:68
            X509v3 Authority Key Identifier: 
                keyid:27:8E:67:11:74:C3:26:1D:3F:ED:33:63:B3:A4:D8:1D:30:E5:E8:D5
                DirName:/C=US/ST=Montana/L=Bozeman/O=Sawtooth/OU=Consulting/CN=www.wolfssl.com/emailAddress=info@wolfssl.com
                serial:7D:94:70:88:BA:07:42:8D:AA:AF:4F:BE:C2:1A:48:F0:D1:40:E6:42

            X509v3 Basic Constraints: 
                CA:TRUE, pathlen:0
            X509v3 Key Usage: 
                Certificate Sign, CRL Sign
    Signature Algorithm: sha256WithRSAEncryption
         06:b2:fa:bd:93:a8:a0:f5:e5:7c:cd:a6:58:8e:c7:c0:84:69:
         96:d1:ae:90:e9:d4:c7:62:56:00:73:0b:d9:b2:f4:0a:a7:90:
         c1:60:53:6d:14:e3:fe:5e:46:18:a2:68:a1:37:7e:b0:2e:98:
         9d:a5:e9:68:8b:8d:5a:fc:6d:ac:e9:1f:1b:47:af:fe:23:e7:
         2f:62:c1:ae:94:78:89:13:72:92:bb:f7:e5:38:93:a0:a3:a4:
         d8:5a:cd:27:a5:20:51:b6:43:9b:19:23:d9:61:5b:da:c5:d6:
         e2:89:c4:db:08:f0:90:ee:76:8c:31:fb:9e:2c:61:66:29:03:
         48:0a:d6:47:8d:6f:05:bd:df:a4:65:5b:80:8a:31:54:e3:af:
         ee:9d:f8:d0:aa:59:0c:a8:6f:d9:c1:9b:54:81:a3:6d:d2:1b:
         90:6d:2d:3b:de:60:ef:8d:15:76:c1:c0:6e:40:02:92:a1:21:
         da:41:ac:e7:4f:55:c3:b7:6d:0e:93:98:d7:60:c5:02:6e:c8:
         de:9f:4c:b3:af:ce:ab:7a:ca:9a:2b:6e:41:84:8b:6b:9f:95:
         8d:5a:f0:76:46:3d:49:38:40:5c:b2:a3:28:6c:f5:01:a2:c6:
         74:6b:aa:43:1f:70:e5:09:f5:63:4d:88:e3:8a:b0:10:ed:58:
         a5:ea:cd:f6
-----BEGIN CERTIFICATE-----
MIIEzDCCA7SgAwIBAgIBZDANBgkqhkiG9w0BAQsFADCBlDELMAkGA1UEBhMCVVMx
EDAOBgNVBAgMB01vbnRhbmExEDAOBgNVBAcMB0JvemVtYW4xETAPBgNVBAoMCFNh
d3Rvb3RoMRMwEQYDVQQLDApDb25zdWx0aW5nMRgwFgYDVQQDDA93d3cud29sZnNz
bC5jb20xHzAdBgkqhkiG9w0BCQEWEGluZm9Ad29sZnNzbC5jb20wHhcNMjExMjIw
MjMwNzI1WhcNMjQwOTE1MjMwNzI1WjCBoTELMAkGA1UEBhMCVVMxEzARBgNVBAgM
Cldhc2hpbmd0b24xEDAOBgNVBAcMB1NlYXR0bGUxFTATBgNVBAoMDHdvbGZTU0wg
SW5jLjEUMBIGA1UECwwLRW5naW5lZXJpbmcxHTAbBgNVBAMMFGNoYWluRi1JQ0Ey
LXBhdGhsZW4wMR8wHQYJKoZIhvcNAQkBFhBpbmZvQHdvbGZzc2wuY29tMIIBIjAN
BgkqhkiG9w0BAQEFAAOCAQ8AMIIBCgKCAQEA2joiZfhtHLcch90n9Nd1qnwcNzG0
1qU0SzZA6lUIcqD/WOJdJhH1uG7e18O7JlHI0DYUAHZCTQNz74i5N/TonWFFluGO
bHhY4fbPRorWpXlNR4jKbGlOKNSNhKjhbB3TNn4j42TVCqP8NomQCv9+i/ouZvvH
M0SS3w9DsuskfiuusEOprVOC+N4XGSZfyoysDB8kvRXtT12C6hDrBXBPA2DZI20h
B00SnPNk7nb7nfnD2Bo7bqmCey0usHS3E9ZligbyJXTCJulxZlRh/io0JwfJje+g
ooaTQUdzCAEHzE3s/oCIk/uutJEW+oOWhGZTzfNS2tQl4QkVIOIQ6t057wIDAQAB
o4IBGDCCARQwHQYDVR0OBBYEFEpTSrcweDWRtMvdyCJ0ia+AD39oMIHUBgNVHSME
gcwwgcmAFCeOZxF0wyYdP+0zY7Ok2B0w5ejVoYGapIGXMIGUMQswCQYDVQQGEwJV
UzEQMA4GA1UECAwHTW9udGFuYTEQMA4GA1UEBwwHQm96ZW1hbjERMA8GA1UECgwI
U2F3dG9vdGgxEzARBgNVBAsMCkNvbnN1bHRpbmcxGDAWBgNVBAMMD3d3dy53b2xm
c3NsLmNvbTEfMB0GCSqGSIb3DQEJARYQaW5mb0B3b2xmc3NsLmNvbYIUfZRwiLoH
Qo2qr0++whpI8NFA5kIwDwYDVR0TBAgwBgEB/wIBADALBgNVHQ8EBAMCAQYwDQYJ
KoZIhvcNAQELBQADggEBAAay+r2TqKD15XzNpliOx8CEaZbRrpDp1MdiVgBzC9my
9AqnkMFgU20U4/5eRhiiaKE3frAumJ2l6WiLjVr8bazpHxtHr/4j5y9iwa6UeIkT
cpK79+U4k6CjpNhazSelIFG2Q5sZI9lhW9rF1uKJxNsI8JDudowx+54sYWYpA0gK
1keNbwW936RlW4CKMVTjr+6d+NCqWQyob9nBm1SBo23SG5BtLTveYO+NFXbBwG5A
ApKhIdpBrOdPVcO3bQ6TmNdgxQJuyN6fTLOvzqt6yporbkGEi2uflY1a8HZGPUk4
QFyyoyhs9QGixnRrqkMfcOUJ9WNNiOOKsBDtWKXqzfY=
-----END CERTIFICATE-----
