Certificate:
    Data:
        Version: 3 (0x2)
        Serial Number: 100 (0x64)
        Signature Algorithm: sha256WithRSAEncryption
        Issuer: C = US, ST = Washington, L = Seattle, O = wolfSSL Inc., OU = Engineering, CN = chainG-ICA3-pathlen99, emailAddress = info@wolfssl.com
        Validity
            Not Before: Jun 19 13:23:42 2020 GMT
            Not After : Mar 16 13:23:42 2023 GMT
        Subject: C = US, ST = Washington, L = Seattle, O = wolfSSL Inc., OU = Engineering, CN = chainG-ICA2-pathlen1, emailAddress = info@wolfssl.com
        Subject Public Key Info:
            Public Key Algorithm: rsaEncryption
                RSA Public-Key: (2048 bit)
                Modulus:
                    00:d7:3e:de:b9:f9:a9:d7:8e:7a:4b:f2:f1:8c:f9:
                    3b:1c:ce:59:31:4c:57:0c:2e:8a:0f:90:f0:dc:27:
                    55:0b:10:c3:a2:e8:b9:39:75:17:d1:9d:99:43:94:
                    b2:f1:56:76:6b:b9:46:a6:b8:35:95:a1:d2:d0:ec:
                    8e:be:95:dc:78:17:0a:41:a1:23:df:cb:b2:87:cb:
                    2e:1d:02:7d:c4:fe:7a:f6:7a:d8:a5:8d:b5:11:1a:
                    e4:6b:d2:66:01:01:03:a7:3b:95:49:92:5d:c1:c7:
                    49:f0:1a:ef:00:71:37:99:5a:87:0a:40:de:55:0e:
                    68:89:dc:e7:a1:14:bf:9d:72:93:7e:48:29:e4:ea:
                    a6:4f:0a:7a:a5:a1:39:6c:21:84:3a:8f:ca:7a:35:
                    0b:0a:cd:12:67:3c:56:06:f5:9d:24:c9:8e:4a:82:
                    23:c8:38:7f:ac:98:b6:b2:57:dc:82:62:84:00:13:
                    7b:ea:73:80:26:4a:9b:c1:b4:0a:f1:fc:ff:46:58:
                    96:a0:21:a1:c9:8f:d9:99:74:41:0b:d0:6d:31:a7:
                    ab:87:92:76:51:42:ef:88:95:cc:2c:f2:9b:cc:d5:
                    29:a0:f7:aa:6b:e1:ab:32:16:cd:55:c4:15:80:69:
                    80:91:d8:78:2c:07:15:fd:c2:02:a4:f4:13:75:50:
                    b8:2b
                Exponent: 65537 (0x10001)
        X509v3 extensions:
            X509v3 Subject Key Identifier: 
                E1:E6:9B:28:CF:FD:AB:45:C1:B7:A7:C4:C9:58:FC:41:E3:1A:5C:74
            X509v3 Authority Key Identifier: 
                keyid:C1:CD:1F:81:13:82:24:3B:CF:64:51:7A:4C:E3:65:2E:75:1E:01:23
                DirName:/C=US/ST=Washington/L=Seattle/O=wolfSSL Inc./OU=Engineering/CN=chainG-ICA4-pathlen5/emailAddress=info@wolfssl.com
                serial:64

            X509v3 Basic Constraints: 
                CA:TRUE, pathlen:1
            X509v3 Key Usage: 
                Certificate Sign, CRL Sign
    Signature Algorithm: sha256WithRSAEncryption
         0a:45:2f:0e:42:02:cf:29:e1:33:ae:18:27:f5:a8:f7:12:77:
         cd:cd:45:d5:e1:cc:02:de:e9:bf:5b:8f:da:d9:f8:c0:82:2d:
         26:15:8e:fe:e5:21:ec:6b:10:a4:de:d7:90:3a:34:cb:2c:bd:
         c1:69:fb:71:b6:7f:9e:a5:ee:23:e8:38:ef:03:ae:fe:d0:2a:
         df:40:83:c8:f0:42:21:ab:0b:bb:ea:35:80:cb:32:df:4e:2e:
         a7:b0:c7:b0:9c:89:01:4f:e3:9d:c6:99:5e:80:b1:2d:7c:fa:
         b3:81:7e:4a:cd:e5:65:5d:d2:01:c5:0a:82:5a:65:04:b5:0e:
         25:74:e8:19:36:89:2b:24:9d:fe:63:e6:82:c5:89:27:a5:d3:
         b2:0a:99:e5:c0:7a:5b:e2:98:af:14:47:8e:40:3e:f3:3f:d5:
         14:6b:00:82:92:ba:b9:95:da:dd:94:5c:e7:bf:fe:52:cc:27:
         fa:fd:49:e4:89:1f:f5:b6:83:0d:74:39:e1:d9:d0:24:a3:e6:
         02:95:fb:c1:80:e4:cb:71:db:f4:3a:aa:9a:f5:1a:ea:55:ee:
         72:e8:8b:b1:89:da:34:e3:af:e9:4a:b7:81:2d:d8:a0:a3:c9:
         c1:02:26:db:3e:b1:ed:d5:d8:2f:ba:44:7e:8b:14:c2:2b:5c:
         70:ac:04:e8
-----BEGIN CERTIFICATE-----
MIIE1DCCA7ygAwIBAgIBZDANBgkqhkiG9w0BAQsFADCBojELMAkGA1UEBhMCVVMx
EzARBgNVBAgMCldhc2hpbmd0b24xEDAOBgNVBAcMB1NlYXR0bGUxFTATBgNVBAoM
DHdvbGZTU0wgSW5jLjEUMBIGA1UECwwLRW5naW5lZXJpbmcxHjAcBgNVBAMMFWNo
YWluRy1JQ0EzLXBhdGhsZW45OTEfMB0GCSqGSIb3DQEJARYQaW5mb0B3b2xmc3Ns
LmNvbTAeFw0yMDA2MTkxMzIzNDJaFw0yMzAzMTYxMzIzNDJaMIGhMQswCQYDVQQG
EwJVUzETMBEGA1UECAwKV2FzaGluZ3RvbjEQMA4GA1UEBwwHU2VhdHRsZTEVMBMG
A1UECgwMd29sZlNTTCBJbmMuMRQwEgYDVQQLDAtFbmdpbmVlcmluZzEdMBsGA1UE
AwwUY2hhaW5HLUlDQTItcGF0aGxlbjExHzAdBgkqhkiG9w0BCQEWEGluZm9Ad29s
ZnNzbC5jb20wggEiMA0GCSqGSIb3DQEBAQUAA4IBDwAwggEKAoIBAQDXPt65+anX
jnpL8vGM+TsczlkxTFcMLooPkPDcJ1ULEMOi6Lk5dRfRnZlDlLLxVnZruUamuDWV
odLQ7I6+ldx4FwpBoSPfy7KHyy4dAn3E/nr2etiljbURGuRr0mYBAQOnO5VJkl3B
x0nwGu8AcTeZWocKQN5VDmiJ3OehFL+dcpN+SCnk6qZPCnqloTlsIYQ6j8p6NQsK
zRJnPFYG9Z0kyY5KgiPIOH+smLayV9yCYoQAE3vqc4AmSpvBtArx/P9GWJagIaHJ
j9mZdEEL0G0xp6uHknZRQu+Ilcws8pvM1Smg96pr4asyFs1VxBWAaYCR2HgsBxX9
wgKk9BN1ULgrAgMBAAGjggESMIIBDjAdBgNVHQ4EFgQU4eabKM/9q0XBt6fEyVj8
QeMaXHQwgc4GA1UdIwSBxjCBw4AUwc0fgROCJDvPZFF6TONlLnUeASOhgaekgaQw
gaExCzAJBgNVBAYTAlVTMRMwEQYDVQQIDApXYXNoaW5ndG9uMRAwDgYDVQQHDAdT
ZWF0dGxlMRUwEwYDVQQKDAx3b2xmU1NMIEluYy4xFDASBgNVBAsMC0VuZ2luZWVy
aW5nMR0wGwYDVQQDDBRjaGFpbkctSUNBNC1wYXRobGVuNTEfMB0GCSqGSIb3DQEJ
ARYQaW5mb0B3b2xmc3NsLmNvbYIBZDAPBgNVHRMECDAGAQH/AgEBMAsGA1UdDwQE
AwIBBjANBgkqhkiG9w0BAQsFAAOCAQEACkUvDkICzynhM64YJ/Wo9xJ3zc1F1eHM
At7pv1uP2tn4wIItJhWO/uUh7GsQpN7XkDo0yyy9wWn7cbZ/nqXuI+g47wOu/tAq
30CDyPBCIasLu+o1gMsy304up7DHsJyJAU/jncaZXoCxLXz6s4F+Ss3lZV3SAcUK
glplBLUOJXToGTaJKySd/mPmgsWJJ6XTsgqZ5cB6W+KYrxRHjkA+8z/VFGsAgpK6
uZXa3ZRc57/+Uswn+v1J5Ikf9baDDXQ54dnQJKPmApX7wYDky3Hb9DqqmvUa6lXu
cuiLsYnaNOOv6Uq3gS3YoKPJwQIm2z6x7dXYL7pEfosUwitccKwE6A==
-----END CERTIFICATE-----
