Certificate:
    Data:
        Version: 3 (0x2)
        Serial Number: 100 (0x64)
        Signature Algorithm: sha256WithRSAEncryption
        Issuer: C=US, ST=Washington, L=Seattle, O=wolfSSL Inc., OU=Engineering, CN=chainH-ICA4-pathlen2, emailAddress=info@wolfssl.com
        Validity
            Not Before: Nov 13 20:41:46 2025 GMT
            Not After : Aug  9 20:41:46 2028 GMT
        Subject: C=US, ST=Washington, L=Seattle, O=wolfSSL Inc., OU=Engineering, CN=chainH-ICA3-pathlen2, emailAddress=info@wolfssl.com
        Subject Public Key Info:
            Public Key Algorithm: rsaEncryption
                Public-Key: (2048 bit)
                Modulus:
                    00:b7:b3:1a:1b:4a:80:1b:a2:e5:95:14:bc:55:e4:
                    77:dc:f3:7b:8a:9f:34:7c:93:db:c9:c9:d0:8b:b8:
                    87:45:65:d3:a1:7d:46:f3:70:92:a9:d7:66:ef:3b:
                    b4:a8:16:b0:f0:be:67:70:aa:45:7b:09:bc:ca:77:
                    db:57:a4:24:54:0b:1a:da:5f:ad:64:a3:f1:49:83:
                    bc:9f:5d:c4:b4:da:43:04:aa:cc:c3:b0:4d:c2:f1:
                    73:c9:38:0d:4c:c9:ab:db:df:09:b3:5c:15:0b:66:
                    79:ad:6c:63:d1:38:cc:a6:2d:46:83:ce:19:1d:c1:
                    0b:6e:fc:38:b7:d8:8c:a2:6f:29:87:9b:21:cd:b0:
                    6b:e0:f8:1f:03:db:82:1d:8d:98:63:16:b6:74:47:
                    43:20:f2:a1:4b:16:8b:67:fd:bc:73:78:9b:f9:dd:
                    ba:49:d9:60:a9:b7:85:66:7f:a4:2a:05:c8:2d:93:
                    a0:9b:aa:bf:a6:31:e1:f2:c8:d3:1b:7b:79:d1:b6:
                    6c:ae:3b:6b:00:2e:6e:ae:10:dc:6c:88:dc:1b:93:
                    e8:56:99:8d:46:7e:49:3a:87:a0:b3:00:cc:2e:3b:
                    83:e1:6b:39:16:71:47:47:30:6d:6b:6c:9c:9f:e6:
                    ce:ec:20:2f:8f:c1:5d:ef:d3:84:32:6c:a5:cc:78:
                    fe:a1
                Exponent: 65537 (0x10001)
        X509v3 extensions:
            X509v3 Subject Key Identifier: 
                56:54:36:BE:23:2F:20:89:6D:A6:BA:9A:45:A4:88:0E:40:35:FD:F5
            X509v3 Authority Key Identifier: 
                keyid:18:6D:44:83:EE:1F:EC:B4:22:F0:9C:EB:54:1E:4A:15:58:01:AA:13
                DirName:/C=US/ST=Montana/L=Bozeman/O=Sawtooth/OU=Consulting/CN=www.wolfssl.com/emailAddress=info@wolfssl.com
                serial:64
            X509v3 Basic Constraints: 
                CA:TRUE, pathlen:2
            X509v3 Key Usage: 
                Certificate Sign, CRL Sign
    Signature Algorithm: sha256WithRSAEncryption
    Signature Value:
        3f:33:db:9c:e6:27:f4:b7:3a:5d:9b:c5:fe:18:1f:a6:ad:3a:
        54:1c:9b:a9:e1:d3:4d:ec:5e:0a:ef:41:d4:6f:b6:e0:bb:3e:
        65:1a:fe:f8:c5:77:c9:70:3c:fc:bc:05:e9:3d:6b:30:36:13:
        8b:fa:e4:13:d2:df:5e:ae:20:38:4f:df:76:5e:74:a1:95:50:
        37:53:5d:20:13:b9:1f:4e:4e:ad:dc:59:f8:6f:a5:50:d5:e2:
        55:18:62:1e:82:ec:9a:66:49:ee:5b:5b:44:f9:f4:dd:3a:17:
        01:bf:fa:00:e5:36:ad:51:68:ed:d4:02:5c:dc:32:11:47:89:
        95:b9:5f:0f:24:9f:a4:d9:0e:a6:08:42:bb:34:20:a1:4c:70:
        33:5c:62:c5:ca:91:3b:dd:4b:29:12:c7:45:94:b3:02:4c:9d:
        24:b0:55:01:3c:18:8d:de:08:e4:73:76:35:70:81:33:1a:11:
        d6:f6:44:b3:6d:5e:cf:ce:93:2f:a1:55:f2:80:d5:83:c4:76:
        b1:40:53:9f:9c:7d:25:f2:e4:24:b5:43:c0:69:36:d3:56:bb:
        e1:57:7a:79:c5:1a:7e:a4:f7:a7:24:05:bd:0b:9f:0e:bd:a2:
        6d:1f:33:f8:ac:00:b4:b5:53:34:5a:82:4a:b4:ed:2a:2f:0a:
        4e:40:63:67
-----BEGIN CERTIFICATE-----
MIIExjCCA66gAwIBAgIBZDANBgkqhkiG9w0BAQsFADCBoTELMAkGA1UEBhMCVVMx
EzARBgNVBAgMCldhc2hpbmd0b24xEDAOBgNVBAcMB1NlYXR0bGUxFTATBgNVBAoM
DHdvbGZTU0wgSW5jLjEUMBIGA1UECwwLRW5naW5lZXJpbmcxHTAbBgNVBAMMFGNo
YWluSC1JQ0E0LXBhdGhsZW4yMR8wHQYJKoZIhvcNAQkBFhBpbmZvQHdvbGZzc2wu
Y29tMB4XDTI1MTExMzIwNDE0NloXDTI4MDgwOTIwNDE0NlowgaExCzAJBgNVBAYT
AlVTMRMwEQYDVQQIDApXYXNoaW5ndG9uMRAwDgYDVQQHDAdTZWF0dGxlMRUwEwYD
VQQKDAx3b2xmU1NMIEluYy4xFDASBgNVBAsMC0VuZ2luZWVyaW5nMR0wGwYDVQQD
DBRjaGFpbkgtSUNBMy1wYXRobGVuMjEfMB0GCSqGSIb3DQEJARYQaW5mb0B3b2xm
c3NsLmNvbTCCASIwDQYJKoZIhvcNAQEBBQADggEPADCCAQoCggEBALezGhtKgBui
5ZUUvFXkd9zze4qfNHyT28nJ0Iu4h0Vl06F9RvNwkqnXZu87tKgWsPC+Z3CqRXsJ
vMp321ekJFQLGtpfrWSj8UmDvJ9dxLTaQwSqzMOwTcLxc8k4DUzJq9vfCbNcFQtm
ea1sY9E4zKYtRoPOGR3BC278OLfYjKJvKYebIc2wa+D4HwPbgh2NmGMWtnRHQyDy
oUsWi2f9vHN4m/nduknZYKm3hWZ/pCoFyC2ToJuqv6Yx4fLI0xt7edG2bK47awAu
bq4Q3GyI3BuT6FaZjUZ+STqHoLMAzC47g+FrORZxR0cwbWtsnJ/mzuwgL4/BXe/T
hDJspcx4/qECAwEAAaOCAQUwggEBMB0GA1UdDgQWBBRWVDa+Iy8giW2muppFpIgO
QDX99TCBwQYDVR0jBIG5MIG2gBQYbUSD7h/stCLwnOtUHkoVWAGqE6GBmqSBlzCB
lDELMAkGA1UEBhMCVVMxEDAOBgNVBAgMB01vbnRhbmExEDAOBgNVBAcMB0JvemVt
YW4xETAPBgNVBAoMCFNhd3Rvb3RoMRMwEQYDVQQLDApDb25zdWx0aW5nMRgwFgYD
VQQDDA93d3cud29sZnNzbC5jb20xHzAdBgkqhkiG9w0BCQEWEGluZm9Ad29sZnNz
bC5jb22CAWQwDwYDVR0TBAgwBgEB/wIBAjALBgNVHQ8EBAMCAQYwDQYJKoZIhvcN
AQELBQADggEBAD8z25zmJ/S3Ol2bxf4YH6atOlQcm6nh003sXgrvQdRvtuC7PmUa
/vjFd8lwPPy8Bek9azA2E4v65BPS316uIDhP33ZedKGVUDdTXSATuR9OTq3cWfhv
pVDV4lUYYh6C7JpmSe5bW0T59N06FwG/+gDlNq1RaO3UAlzcMhFHiZW5Xw8kn6TZ
DqYIQrs0IKFMcDNcYsXKkTvdSykSx0WUswJMnSSwVQE8GI3eCORzdjVwgTMaEdb2
RLNtXs/Oky+hVfKA1YPEdrFAU5+cfSXy5CS1Q8BpNtNWu+FXennFGn6k96ckBb0L
nw69om0fM/isALS1UzRagkq07SovCk5AY2c=
-----END CERTIFICATE-----
