Certificate:
    Data:
        Version: 3 (0x2)
        Serial Number: 100 (0x64)
        Signature Algorithm: sha256WithRSAEncryption
        Issuer: C=US, ST=Washington, L=Seattle, O=wolfSSL Inc., OU=Engineering, CN=chainJ-ICA2-no_pathlen, emailAddress=facts@wolfssl.com
        Validity
            Not Before: Jun 11 21:44:40 2026 GMT
            Not After : Mar  7 21:44:40 2029 GMT
        Subject: C=US, ST=Washington, L=Seattle, O=wolfSSL Inc., OU=Engineering, CN=chainJ-ICA1-no_pathlen, emailAddress=facts@wolfssl.com
        Subject Public Key Info:
            Public Key Algorithm: rsaEncryption
                Public-Key: (2048 bit)
                Modulus:
                    00:a7:6f:44:c2:11:cc:2c:f4:2a:a5:a8:08:53:4b:
                    0e:cd:96:23:bb:15:4a:2a:dd:f9:a7:19:2b:91:28:
                    e8:73:a3:57:b4:49:3a:37:82:8f:15:38:5a:aa:af:
                    ad:72:26:2e:84:c2:0d:de:fc:f0:be:3b:a2:11:a9:
                    12:20:d4:3d:de:62:85:85:91:08:60:db:c0:4a:bb:
                    89:b6:f4:91:1e:51:a3:b2:f7:08:99:df:48:4a:59:
                    84:d1:aa:09:36:0d:cd:68:a5:ae:41:c8:d7:1a:d8:
                    ea:49:87:20:22:27:f9:45:54:3e:c7:c8:00:44:7e:
                    34:72:aa:8d:2d:4d:6a:3e:75:89:e2:d4:17:57:f9:
                    cd:2b:d0:b7:14:6a:54:1b:61:af:9b:68:22:b1:16:
                    73:eb:05:6c:41:ea:ed:10:4e:bc:83:04:68:c8:3a:
                    e1:03:12:ad:28:5c:24:4c:19:a1:7e:d8:ef:1b:80:
                    e4:0e:49:0c:69:86:f6:1e:e7:01:fb:2a:6f:56:1b:
                    6d:0a:ad:e9:29:3f:31:bb:48:28:40:79:2b:b5:f3:
                    aa:ec:e9:09:4c:82:fc:97:28:19:a3:3a:c0:d2:5e:
                    a3:8a:98:c8:8a:b7:d2:c4:90:bc:ff:cc:47:13:90:
                    ad:00:ab:8a:ec:f7:94:35:09:60:10:35:9f:32:c5:
                    00:1b
                Exponent: 65537 (0x10001)
        X509v3 extensions:
            X509v3 Subject Key Identifier: 
                9C:7B:3A:10:B3:08:99:05:00:AF:3E:E0:A4:5D:D9:AF:82:BC:4D:C0
            X509v3 Authority Key Identifier: 
                keyid:A3:F5:71:8A:60:80:3C:93:64:17:D9:2E:B5:C0:CE:A9:C1:14:17:C4
                DirName:/C=US/ST=Washington/L=Seattle/O=wolfSSL Inc./OU=Engineering/CN=chainJ-ICA3-no_pathlen/emailAddress=facts@wolfssl.com
                serial:64
            X509v3 Basic Constraints: 
                CA:TRUE
            X509v3 Key Usage: 
                Certificate Sign, CRL Sign
    Signature Algorithm: sha256WithRSAEncryption
    Signature Value:
        31:94:dc:bb:78:4d:49:95:c2:ec:91:c0:76:db:6d:2b:0c:74:
        59:9f:8e:37:b3:a1:22:8f:3f:f8:03:5b:34:ca:76:84:db:6e:
        78:f8:0d:46:1d:86:c1:37:23:9a:4d:e3:96:44:2e:68:3e:be:
        b4:59:6a:5c:03:f1:5a:7a:b5:a2:ee:7d:c1:7a:dc:bf:ca:e3:
        69:8a:a7:36:ec:0a:1f:a3:f6:69:7e:bb:d8:04:a8:6f:77:d5:
        70:69:7b:4a:c1:a2:12:00:eb:c1:4c:60:70:cd:70:4e:e6:05:
        27:49:69:a2:26:72:6b:19:dd:d0:d8:74:88:df:ae:a9:22:e8:
        07:88:ad:3f:9b:46:48:4e:c8:e1:26:db:f7:fc:8b:8c:c3:1d:
        13:6c:46:0c:6e:b1:ab:56:b0:9e:1f:e9:b3:f8:38:10:11:b4:
        c2:27:25:7f:77:a5:14:dc:bf:fc:d4:e1:37:b7:b5:fa:3f:80:
        c0:a7:ea:03:0e:68:ef:e2:fc:89:41:c4:5c:97:f6:16:73:c4:
        17:90:54:a4:4e:cd:d9:d9:c8:db:74:ec:43:2c:a4:d0:a4:b5:
        81:7f:f1:9b:5d:3d:1b:8d:e4:c6:8f:8c:fc:c3:5f:b2:c7:d5:
        92:3e:68:d6:ec:88:a3:1d:30:f7:96:0b:c0:94:ab:5c:ed:7f:
        26:5e:05:dc
-----BEGIN CERTIFICATE-----
MIIE2TCCA8GgAwIBAgIBZDANBgkqhkiG9w0BAQsFADCBpDELMAkGA1UEBhMCVVMx
EzARBgNVBAgMCldhc2hpbmd0b24xEDAOBgNVBAcMB1NlYXR0bGUxFTATBgNVBAoM
DHdvbGZTU0wgSW5jLjEUMBIGA1UECwwLRW5naW5lZXJpbmcxHzAdBgNVBAMMFmNo
YWluSi1JQ0EyLW5vX3BhdGhsZW4xIDAeBgkqhkiG9w0BCQEWEWZhY3RzQHdvbGZz
c2wuY29tMB4XDTI2MDYxMTIxNDQ0MFoXDTI5MDMwNzIxNDQ0MFowgaQxCzAJBgNV
BAYTAlVTMRMwEQYDVQQIDApXYXNoaW5ndG9uMRAwDgYDVQQHDAdTZWF0dGxlMRUw
EwYDVQQKDAx3b2xmU1NMIEluYy4xFDASBgNVBAsMC0VuZ2luZWVyaW5nMR8wHQYD
VQQDDBZjaGFpbkotSUNBMS1ub19wYXRobGVuMSAwHgYJKoZIhvcNAQkBFhFmYWN0
c0B3b2xmc3NsLmNvbTCCASIwDQYJKoZIhvcNAQEBBQADggEPADCCAQoCggEBAKdv
RMIRzCz0KqWoCFNLDs2WI7sVSird+acZK5Eo6HOjV7RJOjeCjxU4WqqvrXImLoTC
Dd788L47ohGpEiDUPd5ihYWRCGDbwEq7ibb0kR5Ro7L3CJnfSEpZhNGqCTYNzWil
rkHI1xrY6kmHICIn+UVUPsfIAER+NHKqjS1Naj51ieLUF1f5zSvQtxRqVBthr5to
IrEWc+sFbEHq7RBOvIMEaMg64QMSrShcJEwZoX7Y7xuA5A5JDGmG9h7nAfsqb1Yb
bQqt6Sk/MbtIKEB5K7XzquzpCUyC/JcoGaM6wNJeo4qYyIq30sSQvP/MRxOQrQCr
iuz3lDUJYBA1nzLFABsCAwEAAaOCARIwggEOMB0GA1UdDgQWBBScezoQswiZBQCv
PuCkXdmvgrxNwDCB0QYDVR0jBIHJMIHGgBSj9XGKYIA8k2QX2S61wM6pwRQXxKGB
qqSBpzCBpDELMAkGA1UEBhMCVVMxEzARBgNVBAgMCldhc2hpbmd0b24xEDAOBgNV
BAcMB1NlYXR0bGUxFTATBgNVBAoMDHdvbGZTU0wgSW5jLjEUMBIGA1UECwwLRW5n
aW5lZXJpbmcxHzAdBgNVBAMMFmNoYWluSi1JQ0EzLW5vX3BhdGhsZW4xIDAeBgkq
hkiG9w0BCQEWEWZhY3RzQHdvbGZzc2wuY29tggFkMAwGA1UdEwQFMAMBAf8wCwYD
VR0PBAQDAgEGMA0GCSqGSIb3DQEBCwUAA4IBAQAxlNy7eE1JlcLskcB2220rDHRZ
n443s6Eijz/4A1s0ynaE2254+A1GHYbBNyOaTeOWRC5oPr60WWpcA/FaerWi7n3B
ety/yuNpiqc27Aofo/ZpfrvYBKhvd9VwaXtKwaISAOvBTGBwzXBO5gUnSWmiJnJr
Gd3Q2HSI366pIugHiK0/m0ZITsjhJtv3/IuMwx0TbEYMbrGrVrCeH+mz+DgQEbTC
JyV/d6UU3L/81OE3t7X6P4DAp+oDDmjv4vyJQcRcl/YWc8QXkFSkTs3Z2cjbdOxD
LKTQpLWBf/GbXT0bjeTGj4z8w1+yx9WSPmjW7IijHTD3lgvAlKtc7X8mXgXc
-----END CERTIFICATE-----
