Certificate:
    Data:
        Version: 3 (0x2)
        Serial Number: 100 (0x64)
        Signature Algorithm: sha256WithRSAEncryption
        Issuer: C = US, ST = Washington, L = Seattle, O = wolfSSL Inc., OU = Engineering, CN = chainG-ICA7-pathlen100, emailAddress = info@wolfssl.com
        Validity
            Not Before: Dec 18 21:25:34 2024 GMT
            Not After : Sep 14 21:25:34 2027 GMT
        Subject: C = US, ST = Washington, L = Seattle, O = wolfSSL Inc., OU = Engineering, CN = chainG-ICA6-pathlen10, emailAddress = info@wolfssl.com
        Subject Public Key Info:
            Public Key Algorithm: rsaEncryption
                Public-Key: (2048 bit)
                Modulus:
                    00:e1:4f:c9:e7:30:ea:06:ff:65:cb:2b:6c:f1:a8:
                    ac:f6:cf:10:6b:80:7a:af:5e:42:0a:0d:61:be:6f:
                    14:3c:9f:64:6e:96:46:77:e2:64:a0:0e:d7:56:41:
                    fc:5b:e6:fe:49:86:1f:8f:20:cc:4b:ec:3a:f1:46:
                    74:1a:7e:33:d9:aa:d5:e2:78:09:dd:0c:39:20:7e:
                    32:12:96:cd:96:db:10:01:e8:b7:aa:e3:e1:27:5d:
                    0a:8f:99:6e:ef:2d:d8:c8:c8:76:aa:d9:00:9d:48:
                    d9:cf:12:08:97:31:59:c0:4f:a3:e0:ee:5c:a1:35:
                    ef:94:7c:c6:04:aa:3e:34:a6:43:e0:c8:ed:3d:91:
                    53:53:9e:19:03:8e:bf:30:fd:d9:b5:4b:f3:51:0b:
                    60:ed:27:e2:b1:dd:15:3c:b0:5f:25:0f:29:9b:5f:
                    aa:31:64:5e:3d:83:2e:b8:20:66:b9:da:a7:b5:22:
                    40:19:3d:24:5d:c3:e7:dd:b6:6b:16:c3:67:23:5d:
                    31:65:3b:cb:72:d1:a7:c8:b0:e0:b9:a2:cb:90:86:
                    30:d6:ce:7f:9c:b3:b1:c3:34:62:63:c6:b9:66:33:
                    6b:5b:a6:00:bb:45:ee:03:07:96:a5:d7:2f:1e:f1:
                    d2:f2:5e:c2:d2:a1:36:25:f0:7a:70:cb:3d:1d:a4:
                    6f:61
                Exponent: 65537 (0x10001)
        X509v3 extensions:
            X509v3 Subject Key Identifier: 
                14:07:E8:A7:3A:A2:9C:DD:4C:30:B0:4D:F0:00:C4:88:C4:39:DF:73
            X509v3 Authority Key Identifier: 
                keyid:12:E4:A4:19:85:AE:85:B7:D6:EB:63:04:D5:B9:B0:7E:57:5F:0C:16
                DirName:/C=US/ST=Montana/L=Bozeman/O=Sawtooth/OU=Consulting/CN=www.wolfssl.com/emailAddress=info@wolfssl.com
                serial:64
            X509v3 Basic Constraints: 
                CA:TRUE, pathlen:10
            X509v3 Key Usage: 
                Certificate Sign, CRL Sign
    Signature Algorithm: sha256WithRSAEncryption
    Signature Value:
        b2:a8:44:05:e8:64:53:f1:a8:c0:d3:ae:ec:58:41:a1:89:b1:
        c3:b6:5c:ce:23:8a:62:e0:1e:d0:b6:e4:8b:bd:bb:3b:33:83:
        27:b0:e6:e5:1b:c0:65:bd:4d:2d:bd:92:db:a1:c1:57:2a:05:
        a1:4e:2d:98:fe:00:46:b9:ec:e9:9e:10:cb:3c:e4:84:3f:de:
        4f:86:84:f6:12:37:67:6d:d2:c1:85:3b:da:aa:b4:43:68:9b:
        30:b9:47:a9:04:70:74:b6:34:37:c0:dd:1c:60:a6:04:33:8e:
        3b:d0:c8:cc:67:43:ef:79:56:09:bd:27:64:1d:a7:3e:a1:c9:
        c9:29:99:5d:21:6a:d6:ee:2b:31:a0:f7:95:4e:8c:09:07:f5:
        f7:64:ca:8e:47:4d:ce:08:1b:1c:a9:40:aa:d9:45:b2:ac:3f:
        41:5f:d7:7c:ba:10:00:ba:1d:74:ea:45:3e:eb:df:10:4e:1b:
        32:47:75:ae:c9:f3:d0:67:cc:01:89:ec:59:6a:d2:6a:00:5a:
        5a:1d:62:4b:05:50:f0:ae:d3:9d:5e:13:89:c5:f1:3a:5f:29:
        ac:90:5b:fa:09:3e:a0:35:1a:aa:47:39:17:82:74:c2:7f:f8:
        05:4b:61:0d:19:f6:68:0f:9c:a5:9c:f2:56:16:28:d4:f1:a8:
        80:5a:e9:d9
-----BEGIN CERTIFICATE-----
MIIEyTCCA7GgAwIBAgIBZDANBgkqhkiG9w0BAQsFADCBozELMAkGA1UEBhMCVVMx
EzARBgNVBAgMCldhc2hpbmd0b24xEDAOBgNVBAcMB1NlYXR0bGUxFTATBgNVBAoM
DHdvbGZTU0wgSW5jLjEUMBIGA1UECwwLRW5naW5lZXJpbmcxHzAdBgNVBAMMFmNo
YWluRy1JQ0E3LXBhdGhsZW4xMDAxHzAdBgkqhkiG9w0BCQEWEGluZm9Ad29sZnNz
bC5jb20wHhcNMjQxMjE4MjEyNTM0WhcNMjcwOTE0MjEyNTM0WjCBojELMAkGA1UE
BhMCVVMxEzARBgNVBAgMCldhc2hpbmd0b24xEDAOBgNVBAcMB1NlYXR0bGUxFTAT
BgNVBAoMDHdvbGZTU0wgSW5jLjEUMBIGA1UECwwLRW5naW5lZXJpbmcxHjAcBgNV
BAMMFWNoYWluRy1JQ0E2LXBhdGhsZW4xMDEfMB0GCSqGSIb3DQEJARYQaW5mb0B3
b2xmc3NsLmNvbTCCASIwDQYJKoZIhvcNAQEBBQADggEPADCCAQoCggEBAOFPyecw
6gb/ZcsrbPGorPbPEGuAeq9eQgoNYb5vFDyfZG6WRnfiZKAO11ZB/Fvm/kmGH48g
zEvsOvFGdBp+M9mq1eJ4Cd0MOSB+MhKWzZbbEAHot6rj4SddCo+Zbu8t2MjIdqrZ
AJ1I2c8SCJcxWcBPo+DuXKE175R8xgSqPjSmQ+DI7T2RU1OeGQOOvzD92bVL81EL
YO0n4rHdFTywXyUPKZtfqjFkXj2DLrggZrnap7UiQBk9JF3D5922axbDZyNdMWU7
y3LRp8iw4Lmiy5CGMNbOf5yzscM0YmPGuWYza1umALtF7gMHlqXXLx7x0vJewtKh
NiXwenDLPR2kb2ECAwEAAaOCAQUwggEBMB0GA1UdDgQWBBQUB+inOqKc3UwwsE3w
AMSIxDnfczCBwQYDVR0jBIG5MIG2gBQS5KQZha6Ft9brYwTVubB+V18MFqGBmqSB
lzCBlDELMAkGA1UEBhMCVVMxEDAOBgNVBAgMB01vbnRhbmExEDAOBgNVBAcMB0Jv
emVtYW4xETAPBgNVBAoMCFNhd3Rvb3RoMRMwEQYDVQQLDApDb25zdWx0aW5nMRgw
FgYDVQQDDA93d3cud29sZnNzbC5jb20xHzAdBgkqhkiG9w0BCQEWEGluZm9Ad29s
ZnNzbC5jb22CAWQwDwYDVR0TBAgwBgEB/wIBCjALBgNVHQ8EBAMCAQYwDQYJKoZI
hvcNAQELBQADggEBALKoRAXoZFPxqMDTruxYQaGJscO2XM4jimLgHtC25Iu9uzsz
gyew5uUbwGW9TS29ktuhwVcqBaFOLZj+AEa57OmeEMs85IQ/3k+GhPYSN2dt0sGF
O9qqtENomzC5R6kEcHS2NDfA3RxgpgQzjjvQyMxnQ+95Vgm9J2Qdpz6hyckpmV0h
atbuKzGg95VOjAkH9fdkyo5HTc4IGxypQKrZRbKsP0Ff13y6EAC6HXTqRT7r3xBO
GzJHda7J89BnzAGJ7Flq0moAWlodYksFUPCu051eE4nF8TpfKayQW/oJPqA1GqpH
OReCdMJ/+AVLYQ0Z9mgPnKWc8lYWKNTxqIBa6dk=
-----END CERTIFICATE-----
