Certificate:
    Data:
        Version: 3 (0x2)
        Serial Number: 101 (0x65)
        Signature Algorithm: sha256WithRSAEncryption
        Issuer: C = US, ST = Washington, L = Seattle, O = wolfSSL Inc., OU = Engineering, CN = chainE-ICA1-pathlen128, emailAddress = info@wolfssl.com
        Validity
            Not Before: Dec 18 21:25:33 2024 GMT
            Not After : Sep 14 21:25:33 2027 GMT
        Subject: C = US, ST = Washington, L = Seattle, O = wolfSSL Inc., OU = Engineering, CN = chainE-entity, emailAddress = info@wolfssl.com
        Subject Public Key Info:
            Public Key Algorithm: rsaEncryption
                Public-Key: (2048 bit)
                Modulus:
                    00:d8:6f:49:bb:56:ea:34:4c:25:a6:8c:44:f6:c9:
                    75:8f:6b:83:b8:8b:ec:c6:f6:d3:c7:40:e2:d1:b2:
                    d8:77:92:e9:97:c4:b6:57:ad:10:c8:cb:e7:0a:40:
                    ef:3c:a8:38:dc:94:22:08:e7:53:2a:c8:7a:26:90:
                    41:43:6f:7b:8f:4e:58:74:69:20:92:9f:12:aa:6a:
                    c5:cf:7f:24:d1:d0:89:2f:6c:5e:62:31:0a:20:23:
                    6b:07:c2:a0:7d:4d:ed:05:6d:2c:b1:9a:85:e6:41:
                    61:12:6c:85:d3:d4:be:7e:cf:23:d9:79:b1:46:23:
                    d7:1a:f7:d6:f4:97:43:a5:08:03:7a:51:0d:b0:e7:
                    56:62:86:37:07:81:e8:21:f1:10:63:41:b6:82:6d:
                    f2:cd:d9:7f:80:6f:a7:4b:77:10:15:54:02:9c:7a:
                    d0:6e:b8:29:98:72:34:08:7b:ce:d7:24:91:48:a6:
                    c3:f2:9d:77:fc:aa:73:13:70:60:f9:8f:37:4c:d7:
                    34:5c:fa:51:b1:c0:d5:25:e1:75:b2:e2:cd:23:97:
                    c9:a6:bf:d3:5e:21:4b:12:f5:b2:d0:df:92:7f:4c:
                    a8:b2:21:43:2c:f9:3e:fb:14:99:1f:ed:76:2c:87:
                    5a:df:72:d3:85:a3:a8:92:1a:ad:66:19:50:44:8a:
                    05:e1
                Exponent: 65537 (0x10001)
        X509v3 extensions:
            X509v3 Subject Key Identifier: 
                26:FC:70:E0:8F:A1:3D:52:82:76:6B:CB:C7:0F:89:9D:2B:86:69:F5
            X509v3 Authority Key Identifier: 
                keyid:44:7B:00:7C:9C:1C:97:9F:97:AA:6B:F2:5E:E6:81:7C:0E:AE:E6:2B
                DirName:/C=US/ST=Montana/L=Bozeman/O=Sawtooth/OU=Consulting/CN=www.wolfssl.com/emailAddress=info@wolfssl.com
                serial:64
            X509v3 Basic Constraints: 
                CA:FALSE
    Signature Algorithm: sha256WithRSAEncryption
    Signature Value:
        af:d9:4f:48:01:07:74:ac:5a:19:b3:b8:d4:8d:a9:ff:f8:23:
        57:c3:3b:e6:f5:ac:41:ab:0a:b5:71:32:a3:4f:4a:14:90:c4:
        eb:ef:65:38:88:97:92:79:2d:7e:64:29:be:2a:5a:48:9b:b9:
        b1:d7:4f:1c:3a:46:fc:2e:e9:72:4f:97:f7:c7:f5:f0:a2:d6:
        01:7d:49:99:c8:ac:a2:b7:f9:4c:d5:57:8d:b0:69:b6:fa:59:
        7e:77:9a:bc:61:bc:74:1c:24:75:d3:2e:1e:ea:79:9f:8c:c2:
        75:e7:a5:54:b7:d9:3c:40:b5:45:d5:e9:e3:24:00:76:67:a2:
        64:31:24:a7:2a:30:be:4f:c2:56:dd:89:0e:0d:09:1e:84:14:
        a2:c8:32:6f:59:2d:df:7e:8c:75:a0:83:19:cc:a5:49:99:e1:
        70:09:f0:70:83:32:3d:2b:07:f3:76:0a:ee:fc:91:d4:b3:b9:
        0f:b7:73:f4:9b:f3:58:c7:4e:80:27:48:aa:72:f9:01:42:41:
        e6:b7:5c:c1:93:47:48:e5:b9:54:d3:c2:de:02:8e:05:35:49:
        36:82:62:5d:a7:08:9a:d0:d3:eb:a4:48:2c:a1:5a:39:06:01:
        4f:9b:c4:19:c4:a2:36:b8:72:4c:50:cb:3e:77:e9:85:92:7b:
        d5:91:4c:56
-----BEGIN CERTIFICATE-----
MIIErDCCA5SgAwIBAgIBZTANBgkqhkiG9w0BAQsFADCBozELMAkGA1UEBhMCVVMx
EzARBgNVBAgMCldhc2hpbmd0b24xEDAOBgNVBAcMB1NlYXR0bGUxFTATBgNVBAoM
DHdvbGZTU0wgSW5jLjEUMBIGA1UECwwLRW5naW5lZXJpbmcxHzAdBgNVBAMMFmNo
YWluRS1JQ0ExLXBhdGhsZW4xMjgxHzAdBgkqhkiG9w0BCQEWEGluZm9Ad29sZnNz
bC5jb20wHhcNMjQxMjE4MjEyNTMzWhcNMjcwOTE0MjEyNTMzWjCBmjELMAkGA1UE
BhMCVVMxEzARBgNVBAgMCldhc2hpbmd0b24xEDAOBgNVBAcMB1NlYXR0bGUxFTAT
BgNVBAoMDHdvbGZTU0wgSW5jLjEUMBIGA1UECwwLRW5naW5lZXJpbmcxFjAUBgNV
BAMMDWNoYWluRS1lbnRpdHkxHzAdBgkqhkiG9w0BCQEWEGluZm9Ad29sZnNzbC5j
b20wggEiMA0GCSqGSIb3DQEBAQUAA4IBDwAwggEKAoIBAQDYb0m7Vuo0TCWmjET2
yXWPa4O4i+zG9tPHQOLRsth3kumXxLZXrRDIy+cKQO88qDjclCII51MqyHomkEFD
b3uPTlh0aSCSnxKqasXPfyTR0IkvbF5iMQogI2sHwqB9Te0FbSyxmoXmQWESbIXT
1L5+zyPZebFGI9ca99b0l0OlCAN6UQ2w51ZihjcHgegh8RBjQbaCbfLN2X+Ab6dL
dxAVVAKcetBuuCmYcjQIe87XJJFIpsPynXf8qnMTcGD5jzdM1zRc+lGxwNUl4XWy
4s0jl8mmv9NeIUsS9bLQ35J/TKiyIUMs+T77FJkf7XYsh1rfctOFo6iSGq1mGVBE
igXhAgMBAAGjgfEwge4wHQYDVR0OBBYEFCb8cOCPoT1SgnZry8cPiZ0rhmn1MIHB
BgNVHSMEgbkwgbaAFER7AHycHJefl6pr8l7mgXwOruYroYGapIGXMIGUMQswCQYD
VQQGEwJVUzEQMA4GA1UECAwHTW9udGFuYTEQMA4GA1UEBwwHQm96ZW1hbjERMA8G
A1UECgwIU2F3dG9vdGgxEzARBgNVBAsMCkNvbnN1bHRpbmcxGDAWBgNVBAMMD3d3
dy53b2xmc3NsLmNvbTEfMB0GCSqGSIb3DQEJARYQaW5mb0B3b2xmc3NsLmNvbYIB
ZDAJBgNVHRMEAjAAMA0GCSqGSIb3DQEBCwUAA4IBAQCv2U9IAQd0rFoZs7jUjan/
+CNXwzvm9axBqwq1cTKjT0oUkMTr72U4iJeSeS1+ZCm+KlpIm7mx108cOkb8Luly
T5f3x/XwotYBfUmZyKyit/lM1VeNsGm2+ll+d5q8Ybx0HCR10y4e6nmfjMJ156VU
t9k8QLVF1enjJAB2Z6JkMSSnKjC+T8JW3YkODQkehBSiyDJvWS3ffox1oIMZzKVJ
meFwCfBwgzI9Kwfzdgru/JHUs7kPt3P0m/NYx06AJ0iqcvkBQkHmt1zBk0dI5blU
08LeAo4FNUk2gmJdpwia0NPrpEgsoVo5BgFPm8QZxKI2uHJMUMs+d+mFknvVkUxW
-----END CERTIFICATE-----
