Certificate:
    Data:
        Version: 3 (0x2)
        Serial Number: 100 (0x64)
        Signature Algorithm: sha256WithRSAEncryption
        Issuer: C=US, ST=Montana, L=Bozeman, O=Sawtooth, OU=Consulting, CN=www.wolfssl.com, emailAddress=info@wolfssl.com
        Validity
            Not Before: Nov 13 20:41:42 2025 GMT
            Not After : Aug  9 20:41:42 2028 GMT
        Subject: C=US, ST=Washington, L=Seattle, O=wolfSSL Inc., OU=Engineering, CN=chainE-ICA1-pathlen128, emailAddress=info@wolfssl.com
        Subject Public Key Info:
            Public Key Algorithm: rsaEncryption
                Public-Key: (2048 bit)
                Modulus:
                    00:d6:f3:6f:b8:db:10:df:89:df:3b:d9:2e:7a:c1:
                    34:1a:56:97:6c:73:04:fc:15:50:04:93:66:cb:17:
                    ba:fb:f9:28:b9:d6:ce:7e:f5:78:bb:b1:4f:aa:4b:
                    f8:80:35:d9:ae:fe:99:75:f7:cd:79:0b:cf:ca:da:
                    cb:58:9a:6e:9b:91:21:f4:17:fd:56:b8:3a:cf:cf:
                    ed:f7:90:6a:73:6c:06:99:ef:0e:8f:65:dc:d0:e8:
                    db:7b:c1:e8:4d:6d:61:9e:cc:5a:20:de:86:3a:58:
                    81:fa:b1:d4:5f:3c:74:43:45:61:36:2c:fe:a4:35:
                    ae:e2:39:c7:fd:dd:b3:83:d6:17:dc:f5:99:3f:67:
                    0e:c1:60:d1:69:8d:3c:f9:62:e9:83:ae:66:10:aa:
                    40:91:63:0b:2a:e5:c1:a8:1f:8e:8a:9b:11:9f:bf:
                    a6:45:fb:16:70:ed:6c:1b:14:98:80:69:04:c3:bd:
                    13:22:e7:d9:33:48:9d:8a:6c:0f:9c:39:08:29:92:
                    83:7b:73:a3:da:86:d6:4a:00:0f:a7:c2:7b:bf:ac:
                    0f:2a:62:96:5b:3b:ef:9f:e1:08:bb:44:ba:c4:99:
                    4f:a0:b9:5e:4d:cb:73:73:fe:ee:82:69:4f:af:c7:
                    59:5a:36:81:44:c6:e3:50:3b:bf:8d:14:ef:7e:96:
                    ef:c1
                Exponent: 65537 (0x10001)
        X509v3 extensions:
            X509v3 Subject Key Identifier: 
                44:7B:00:7C:9C:1C:97:9F:97:AA:6B:F2:5E:E6:81:7C:0E:AE:E6:2B
            X509v3 Authority Key Identifier: 
                keyid:27:8E:67:11:74:C3:26:1D:3F:ED:33:63:B3:A4:D8:1D:30:E5:E8:D5
                DirName:/C=US/ST=Montana/L=Bozeman/O=Sawtooth/OU=Consulting/CN=www.wolfssl.com/emailAddress=info@wolfssl.com
                serial:3F:29:11:20:57:71:E7:8E:F9:18:0D:CA:70:4D:5B:15:2A:43:D6:24
            X509v3 Basic Constraints: 
                CA:TRUE, pathlen:128
            X509v3 Key Usage: 
                Certificate Sign, CRL Sign
    Signature Algorithm: sha256WithRSAEncryption
    Signature Value:
        2b:22:c0:03:4b:3c:5d:b0:8a:f2:e1:9a:79:39:f4:e0:83:02:
        d1:8d:cc:5b:ab:15:7f:dd:32:66:f4:ed:55:a3:fd:0b:af:d0:
        5a:30:07:d4:56:0e:ee:a6:16:86:1b:77:9b:60:5a:13:35:06:
        de:8a:3d:15:d8:72:c7:5d:96:aa:fc:11:c6:2e:c9:c4:3c:54:
        f1:95:f0:ff:e3:28:e5:f9:44:ea:c7:39:71:09:b6:2f:0b:d9:
        93:91:1e:c1:88:c6:4d:71:3c:ae:bd:94:5f:8b:89:39:79:60:
        cb:1e:6b:8a:3f:ca:89:e0:71:0e:ac:07:06:73:21:1c:ee:b5:
        ac:f0:04:21:7c:0d:96:aa:86:1a:10:85:65:a0:44:b2:37:29:
        1c:0e:08:5b:4f:26:01:17:2a:6b:3d:25:87:6e:dd:eb:0b:ef:
        26:31:a6:13:41:41:24:5f:59:e8:1c:4c:3e:af:fc:7c:01:3c:
        e5:ce:0b:7c:42:e0:60:79:69:07:73:d5:e4:7d:27:51:a8:41:
        75:b9:c6:86:9f:28:77:dc:1e:83:30:be:48:ff:97:d5:6d:7c:
        3c:f2:db:ff:1a:da:f9:de:7d:1a:bf:6b:bf:e5:c4:80:df:40:
        30:19:b4:e8:0a:e8:18:38:c8:06:65:a3:1d:6f:3b:58:65:43:
        90:ab:a8:a3
-----BEGIN CERTIFICATE-----
MIIEzzCCA7egAwIBAgIBZDANBgkqhkiG9w0BAQsFADCBlDELMAkGA1UEBhMCVVMx
EDAOBgNVBAgMB01vbnRhbmExEDAOBgNVBAcMB0JvemVtYW4xETAPBgNVBAoMCFNh
d3Rvb3RoMRMwEQYDVQQLDApDb25zdWx0aW5nMRgwFgYDVQQDDA93d3cud29sZnNz
bC5jb20xHzAdBgkqhkiG9w0BCQEWEGluZm9Ad29sZnNzbC5jb20wHhcNMjUxMTEz
MjA0MTQyWhcNMjgwODA5MjA0MTQyWjCBozELMAkGA1UEBhMCVVMxEzARBgNVBAgM
Cldhc2hpbmd0b24xEDAOBgNVBAcMB1NlYXR0bGUxFTATBgNVBAoMDHdvbGZTU0wg
SW5jLjEUMBIGA1UECwwLRW5naW5lZXJpbmcxHzAdBgNVBAMMFmNoYWluRS1JQ0Ex
LXBhdGhsZW4xMjgxHzAdBgkqhkiG9w0BCQEWEGluZm9Ad29sZnNzbC5jb20wggEi
MA0GCSqGSIb3DQEBAQUAA4IBDwAwggEKAoIBAQDW82+42xDfid872S56wTQaVpds
cwT8FVAEk2bLF7r7+Si51s5+9Xi7sU+qS/iANdmu/pl19815C8/K2stYmm6bkSH0
F/1WuDrPz+33kGpzbAaZ7w6PZdzQ6Nt7wehNbWGezFog3oY6WIH6sdRfPHRDRWE2
LP6kNa7iOcf93bOD1hfc9Zk/Zw7BYNFpjTz5YumDrmYQqkCRYwsq5cGoH46KmxGf
v6ZF+xZw7WwbFJiAaQTDvRMi59kzSJ2KbA+cOQgpkoN7c6PahtZKAA+nwnu/rA8q
YpZbO++f4Qi7RLrEmU+guV5Ny3Nz/u6CaU+vx1laNoFExuNQO7+NFO9+lu/BAgMB
AAGjggEZMIIBFTAdBgNVHQ4EFgQURHsAfJwcl5+XqmvyXuaBfA6u5iswgdQGA1Ud
IwSBzDCByYAUJ45nEXTDJh0/7TNjs6TYHTDl6NWhgZqkgZcwgZQxCzAJBgNVBAYT
AlVTMRAwDgYDVQQIDAdNb250YW5hMRAwDgYDVQQHDAdCb3plbWFuMREwDwYDVQQK
DAhTYXd0b290aDETMBEGA1UECwwKQ29uc3VsdGluZzEYMBYGA1UEAwwPd3d3Lndv
bGZzc2wuY29tMR8wHQYJKoZIhvcNAQkBFhBpbmZvQHdvbGZzc2wuY29tghQ/KREg
V3HnjvkYDcpwTVsVKkPWJDAQBgNVHRMECTAHAQH/AgIAgDALBgNVHQ8EBAMCAQYw
DQYJKoZIhvcNAQELBQADggEBACsiwANLPF2wivLhmnk59OCDAtGNzFurFX/dMmb0
7VWj/Quv0FowB9RWDu6mFoYbd5tgWhM1Bt6KPRXYcsddlqr8EcYuycQ8VPGV8P/j
KOX5ROrHOXEJti8L2ZORHsGIxk1xPK69lF+LiTl5YMsea4o/yongcQ6sBwZzIRzu
tazwBCF8DZaqhhoQhWWgRLI3KRwOCFtPJgEXKms9JYdu3esL7yYxphNBQSRfWegc
TD6v/HwBPOXOC3xC4GB5aQdz1eR9J1GoQXW5xoafKHfcHoMwvkj/l9VtfDzy2/8a
2vnefRq/a7/lxIDfQDAZtOgK6Bg4yAZlox1vO1hlQ5CrqKM=
-----END CERTIFICATE-----
