Certificate:
    Data:
        Version: 3 (0x2)
        Serial Number: 101 (0x65)
        Signature Algorithm: sha256WithRSAEncryption
        Issuer: C = US, ST = Washington, L = Seattle, O = wolfSSL Inc., OU = Engineering, CN = chainC-ICA1-pathlen1, emailAddress = info@wolfssl.com
        Validity
            Not Before: Dec 20 23:07:25 2021 GMT
            Not After : Sep 15 23:07:25 2024 GMT
        Subject: C = US, ST = Washington, L = Seattle, O = wolfSSL Inc., OU = Engineering, CN = chainC-entity, emailAddress = info@wolfssl.com
        Subject Public Key Info:
            Public Key Algorithm: rsaEncryption
                RSA Public-Key: (2048 bit)
                Modulus:
                    00:bf:34:e1:1c:2c:2d:a4:93:b5:c4:fc:65:40:fa:
                    94:68:74:24:ff:52:a4:df:3e:f1:7c:92:14:f0:f0:
                    91:ed:9c:7e:a0:7e:b1:07:20:38:b2:c4:a2:b8:09:
                    d1:06:ee:fa:c6:7e:4d:79:be:dd:83:18:cf:e8:a7:
                    78:88:cd:44:ce:3a:40:05:7a:6e:c5:c9:e4:84:64:
                    e0:01:7d:4f:f9:87:d2:94:91:e9:c8:21:bc:71:2e:
                    ef:f6:61:23:46:6b:da:5f:32:23:a1:86:9c:c6:9a:
                    b4:98:35:6d:36:b8:34:14:fd:9d:63:2f:75:7e:58:
                    f2:08:f9:e3:32:2a:a6:d2:b1:49:05:d3:8c:d4:48:
                    5c:c2:57:07:62:4e:7a:05:23:c2:4f:ca:d5:a8:38:
                    32:92:c2:21:3b:74:3e:2d:b1:6b:57:96:81:a3:2d:
                    ce:6e:9c:d9:ce:1f:e9:42:f8:2c:bb:fe:07:57:c6:
                    c8:93:6e:89:d3:fc:d2:83:4b:c1:2c:ea:5e:41:c9:
                    7c:be:6c:23:01:89:75:1b:1f:57:ac:83:dc:da:e1:
                    63:55:d8:94:fc:2d:a6:99:15:d1:71:88:a5:1b:f5:
                    6f:39:0a:bd:ec:09:02:09:77:a7:5d:da:78:f8:8f:
                    b1:5d:a7:83:12:10:5f:89:ae:72:c2:88:bf:3e:80:
                    98:c3
                Exponent: 65537 (0x10001)
        X509v3 extensions:
            X509v3 Subject Key Identifier: 
                91:79:7C:91:A7:A0:BC:E1:7B:77:9E:51:6E:5C:A7:7A:D9:3F:18:A0
            X509v3 Authority Key Identifier: 
                keyid:94:1D:2E:07:37:C6:2F:52:C1:EC:79:6B:13:CE:09:90:5F:F4:C4:51
                DirName:/C=US/ST=Montana/L=Bozeman/O=Sawtooth/OU=Consulting/CN=www.wolfssl.com/emailAddress=info@wolfssl.com
                serial:64

            X509v3 Basic Constraints: 
                CA:FALSE
    Signature Algorithm: sha256WithRSAEncryption
         ae:e3:75:41:90:9d:0b:8a:bf:15:d5:3c:dd:08:31:a7:b5:92:
         e2:3e:53:73:a7:20:27:4a:6b:2a:ef:99:a8:15:42:c9:79:4b:
         b7:bb:3a:ba:9d:f0:b3:cf:37:34:64:63:7c:0a:f1:91:04:30:
         6b:ca:66:39:d3:a0:26:23:34:28:5b:a9:57:91:0c:fa:cf:84:
         42:79:28:23:21:ba:ff:04:4c:c4:06:1f:9e:a5:1d:37:e9:5c:
         6a:75:84:b7:f9:d3:24:80:91:95:ab:df:1a:cc:7c:a7:7d:ac:
         95:fc:02:77:b2:8e:e2:77:da:96:30:48:84:44:2a:b0:af:5b:
         9d:7d:67:8a:a5:13:3d:4c:ed:df:cb:2a:6b:8a:1a:ad:18:f0:
         1f:50:9e:4d:c3:31:58:31:f2:9b:05:c0:7e:a3:6a:80:28:5c:
         22:78:fd:32:66:6a:9c:31:fc:d2:db:42:43:e8:b8:35:41:36:
         00:8d:26:4b:e9:02:c3:2d:72:c0:4f:8f:4a:cf:5d:7c:5c:ae:
         16:0b:0c:37:a9:34:d8:19:91:cd:3a:af:55:ae:bc:6b:2a:85:
         ef:f0:0f:8d:30:b3:90:d7:56:39:47:d6:5a:3d:e3:f3:d1:b9:
         75:74:8b:27:4f:c7:b6:af:ff:e4:6b:af:5c:b6:c4:6f:19:89:
         44:41:f6:41
-----BEGIN CERTIFICATE-----
MIIEqjCCA5KgAwIBAgIBZTANBgkqhkiG9w0BAQsFADCBoTELMAkGA1UEBhMCVVMx
EzARBgNVBAgMCldhc2hpbmd0b24xEDAOBgNVBAcMB1NlYXR0bGUxFTATBgNVBAoM
DHdvbGZTU0wgSW5jLjEUMBIGA1UECwwLRW5naW5lZXJpbmcxHTAbBgNVBAMMFGNo
YWluQy1JQ0ExLXBhdGhsZW4xMR8wHQYJKoZIhvcNAQkBFhBpbmZvQHdvbGZzc2wu
Y29tMB4XDTIxMTIyMDIzMDcyNVoXDTI0MDkxNTIzMDcyNVowgZoxCzAJBgNVBAYT
AlVTMRMwEQYDVQQIDApXYXNoaW5ndG9uMRAwDgYDVQQHDAdTZWF0dGxlMRUwEwYD
VQQKDAx3b2xmU1NMIEluYy4xFDASBgNVBAsMC0VuZ2luZWVyaW5nMRYwFAYDVQQD
DA1jaGFpbkMtZW50aXR5MR8wHQYJKoZIhvcNAQkBFhBpbmZvQHdvbGZzc2wuY29t
MIIBIjANBgkqhkiG9w0BAQEFAAOCAQ8AMIIBCgKCAQEAvzThHCwtpJO1xPxlQPqU
aHQk/1Kk3z7xfJIU8PCR7Zx+oH6xByA4ssSiuAnRBu76xn5Neb7dgxjP6Kd4iM1E
zjpABXpuxcnkhGTgAX1P+YfSlJHpyCG8cS7v9mEjRmvaXzIjoYacxpq0mDVtNrg0
FP2dYy91fljyCPnjMiqm0rFJBdOM1EhcwlcHYk56BSPCT8rVqDgyksIhO3Q+LbFr
V5aBoy3ObpzZzh/pQvgsu/4HV8bIk26J0/zSg0vBLOpeQcl8vmwjAYl1Gx9XrIPc
2uFjVdiU/C2mmRXRcYilG/VvOQq97AkCCXenXdp4+I+xXaeDEhBfia5ywoi/PoCY
wwIDAQABo4HxMIHuMB0GA1UdDgQWBBSReXyRp6C84Xt3nlFuXKd62T8YoDCBwQYD
VR0jBIG5MIG2gBSUHS4HN8YvUsHseWsTzgmQX/TEUaGBmqSBlzCBlDELMAkGA1UE
BhMCVVMxEDAOBgNVBAgMB01vbnRhbmExEDAOBgNVBAcMB0JvemVtYW4xETAPBgNV
BAoMCFNhd3Rvb3RoMRMwEQYDVQQLDApDb25zdWx0aW5nMRgwFgYDVQQDDA93d3cu
d29sZnNzbC5jb20xHzAdBgkqhkiG9w0BCQEWEGluZm9Ad29sZnNzbC5jb22CAWQw
CQYDVR0TBAIwADANBgkqhkiG9w0BAQsFAAOCAQEAruN1QZCdC4q/FdU83Qgxp7WS
4j5Tc6cgJ0prKu+ZqBVCyXlLt7s6up3ws883NGRjfArxkQQwa8pmOdOgJiM0KFup
V5EM+s+EQnkoIyG6/wRMxAYfnqUdN+lcanWEt/nTJICRlavfGsx8p32slfwCd7KO
4nfaljBIhEQqsK9bnX1niqUTPUzt38sqa4oarRjwH1CeTcMxWDHymwXAfqNqgChc
Inj9MmZqnDH80ttCQ+i4NUE2AI0mS+kCwy1ywE+PSs9dfFyuFgsMN6k02BmRzTqv
Va68ayqF7/APjTCzkNdWOUfWWj3j89G5dXSLJ0/Htq//5GuvXLbEbxmJREH2QQ==
-----END CERTIFICATE-----
