Certificate:
    Data:
        Version: 3 (0x2)
        Serial Number: 100 (0x64)
        Signature Algorithm: sha256WithRSAEncryption
        Issuer: C = US, ST = Washington, L = Seattle, O = wolfSSL Inc., OU = Engineering, CN = chainH-ICA3-pathlen2, emailAddress = info@wolfssl.com
        Validity
            Not Before: Dec 18 21:25:34 2024 GMT
            Not After : Sep 14 21:25:34 2027 GMT
        Subject: C = US, ST = Washington, L = Seattle, O = wolfSSL Inc., OU = Engineering, CN = chainH-ICA2-pathlen2, emailAddress = info@wolfssl.com
        Subject Public Key Info:
            Public Key Algorithm: rsaEncryption
                Public-Key: (2048 bit)
                Modulus:
                    00:d9:b5:af:4b:ba:83:03:23:df:50:28:a8:c2:0c:
                    2c:f0:04:cb:2d:04:9b:1e:f5:f4:68:bc:d4:8e:b4:
                    cd:46:04:a2:f5:14:9e:3e:33:d6:76:2d:54:f9:d5:
                    41:b5:7a:47:93:1a:54:80:a4:3d:8b:9d:80:ea:1c:
                    3a:3a:bb:d1:d4:b6:f1:f2:a3:bd:9e:5d:b8:85:01:
                    d7:c8:a0:27:f6:67:41:94:c5:95:91:11:cb:96:fc:
                    95:a9:bc:b5:be:58:77:5c:2b:9b:e9:24:7e:8b:6e:
                    10:a7:d5:3a:fa:05:21:27:14:d8:d2:5f:a2:58:12:
                    b4:d9:bd:88:1a:f1:e7:4c:9d:60:31:0b:1f:3f:8b:
                    af:3a:d9:ca:cf:d4:73:1b:b8:b0:3d:d5:96:5d:4e:
                    a3:62:8f:56:eb:3d:4c:f0:21:4f:f4:8c:c7:55:dd:
                    a6:dc:d9:15:a1:12:db:73:4d:bf:18:89:42:92:0e:
                    83:be:4f:aa:ee:8f:a8:ef:a1:27:01:73:16:29:c0:
                    e8:8c:23:c8:ff:95:68:cd:53:67:49:e5:73:b1:ec:
                    62:60:51:20:e8:a6:49:28:f5:2b:16:30:e8:8b:a6:
                    2f:f4:b7:37:99:8c:32:30:97:5d:16:bf:6b:5e:ba:
                    34:1f:d6:1b:2e:fc:79:f0:00:61:aa:a0:7a:2f:7b:
                    d2:83
                Exponent: 65537 (0x10001)
        X509v3 extensions:
            X509v3 Subject Key Identifier: 
                80:49:61:8C:1D:13:08:56:B5:42:68:D5:B2:EA:89:2C:B4:8B:05:87
            X509v3 Authority Key Identifier: 
                keyid:56:54:36:BE:23:2F:20:89:6D:A6:BA:9A:45:A4:88:0E:40:35:FD:F5
                DirName:/C=US/ST=Washington/L=Seattle/O=wolfSSL Inc./OU=Engineering/CN=chainH-ICA4-pathlen2/emailAddress=info@wolfssl.com
                serial:64
            X509v3 Basic Constraints: 
                CA:TRUE, pathlen:2
            X509v3 Key Usage: 
                Certificate Sign, CRL Sign
    Signature Algorithm: sha256WithRSAEncryption
    Signature Value:
        47:fe:53:d4:55:2d:7a:8b:02:53:06:f7:18:4c:be:c9:30:f9:
        53:d8:4c:58:e7:6a:53:db:b2:5b:8c:1b:63:9d:ba:c5:7e:6f:
        dc:aa:df:78:7c:a6:b6:55:92:69:6a:09:25:1c:98:3f:45:db:
        18:f8:81:7b:fb:a2:ae:95:81:50:c5:4a:e9:ae:31:b9:1e:ea:
        22:5e:26:6e:63:be:79:b2:e7:bb:16:0c:be:56:29:db:dc:8f:
        90:27:4a:9a:82:30:5e:6f:a8:7f:2b:56:e5:8b:3c:c5:47:46:
        ca:a1:20:a2:f4:3d:8c:bc:cd:f5:48:b1:59:23:71:70:aa:6d:
        5e:09:21:54:62:e2:05:5b:eb:d4:bc:fb:d3:8b:47:c2:47:31:
        0f:c8:45:36:c2:f5:1c:1d:e0:79:4b:45:1a:3c:36:53:b2:ec:
        3b:61:c0:7a:08:42:d7:2e:95:92:6b:6e:12:63:c7:61:bc:9c:
        2c:02:04:84:d4:28:a7:56:3f:bc:27:73:37:00:82:ef:09:c1:
        88:35:98:c1:77:8c:3f:4a:19:da:42:c5:89:00:54:ca:39:05:
        42:80:97:8d:f0:39:ca:9a:5b:f7:b7:4e:86:68:b9:88:1f:79:
        25:7c:79:e6:3b:58:8a:52:ca:10:47:95:64:bb:1d:fd:e7:51:
        d8:94:3b:89
-----BEGIN CERTIFICATE-----
MIIE0zCCA7ugAwIBAgIBZDANBgkqhkiG9w0BAQsFADCBoTELMAkGA1UEBhMCVVMx
EzARBgNVBAgMCldhc2hpbmd0b24xEDAOBgNVBAcMB1NlYXR0bGUxFTATBgNVBAoM
DHdvbGZTU0wgSW5jLjEUMBIGA1UECwwLRW5naW5lZXJpbmcxHTAbBgNVBAMMFGNo
YWluSC1JQ0EzLXBhdGhsZW4yMR8wHQYJKoZIhvcNAQkBFhBpbmZvQHdvbGZzc2wu
Y29tMB4XDTI0MTIxODIxMjUzNFoXDTI3MDkxNDIxMjUzNFowgaExCzAJBgNVBAYT
AlVTMRMwEQYDVQQIDApXYXNoaW5ndG9uMRAwDgYDVQQHDAdTZWF0dGxlMRUwEwYD
VQQKDAx3b2xmU1NMIEluYy4xFDASBgNVBAsMC0VuZ2luZWVyaW5nMR0wGwYDVQQD
DBRjaGFpbkgtSUNBMi1wYXRobGVuMjEfMB0GCSqGSIb3DQEJARYQaW5mb0B3b2xm
c3NsLmNvbTCCASIwDQYJKoZIhvcNAQEBBQADggEPADCCAQoCggEBANm1r0u6gwMj
31AoqMIMLPAEyy0Emx719Gi81I60zUYEovUUnj4z1nYtVPnVQbV6R5MaVICkPYud
gOocOjq70dS28fKjvZ5duIUB18igJ/ZnQZTFlZERy5b8lam8tb5Yd1wrm+kkfotu
EKfVOvoFIScU2NJfolgStNm9iBrx50ydYDELHz+LrzrZys/Ucxu4sD3Vll1Oo2KP
Vus9TPAhT/SMx1XdptzZFaES23NNvxiJQpIOg75Pqu6PqO+hJwFzFinA6IwjyP+V
aM1TZ0nlc7HsYmBRIOimSSj1KxYw6IumL/S3N5mMMjCXXRa/a166NB/WGy78efAA
Yaqgei970oMCAwEAAaOCARIwggEOMB0GA1UdDgQWBBSASWGMHRMIVrVCaNWy6oks
tIsFhzCBzgYDVR0jBIHGMIHDgBRWVDa+Iy8giW2muppFpIgOQDX99aGBp6SBpDCB
oTELMAkGA1UEBhMCVVMxEzARBgNVBAgMCldhc2hpbmd0b24xEDAOBgNVBAcMB1Nl
YXR0bGUxFTATBgNVBAoMDHdvbGZTU0wgSW5jLjEUMBIGA1UECwwLRW5naW5lZXJp
bmcxHTAbBgNVBAMMFGNoYWluSC1JQ0E0LXBhdGhsZW4yMR8wHQYJKoZIhvcNAQkB
FhBpbmZvQHdvbGZzc2wuY29tggFkMA8GA1UdEwQIMAYBAf8CAQIwCwYDVR0PBAQD
AgEGMA0GCSqGSIb3DQEBCwUAA4IBAQBH/lPUVS16iwJTBvcYTL7JMPlT2ExY52pT
27JbjBtjnbrFfm/cqt94fKa2VZJpagklHJg/RdsY+IF7+6KulYFQxUrprjG5Huoi
XiZuY755sue7Fgy+Vinb3I+QJ0qagjBeb6h/K1blizzFR0bKoSCi9D2MvM31SLFZ
I3Fwqm1eCSFUYuIFW+vUvPvTi0fCRzEPyEU2wvUcHeB5S0UaPDZTsuw7YcB6CELX
LpWSa24SY8dhvJwsAgSE1CinVj+8J3M3AILvCcGINZjBd4w/ShnaQsWJAFTKOQVC
gJeN8DnKmlv3t06GaLmIH3klfHnmO1iKUsoQR5Vkux3951HYlDuJ
-----END CERTIFICATE-----
