Certificate:
    Data:
        Version: 3 (0x2)
        Serial Number: 101 (0x65)
        Signature Algorithm: sha1WithRSAEncryption
        Issuer: C = US, ST = Washington, L = Seattle, O = wolfSSL Inc., OU = Engineering, CN = chainE-ICA1-pathlen128, emailAddress = info@wolfssl.com
        Validity
            Not Before: Oct 10 21:32:42 2019 GMT
            Not After : Jul  6 21:32:42 2022 GMT
        Subject: C = US, ST = Washington, L = Seattle, O = wolfSSL Inc., OU = Engineering, CN = chainE-entity, emailAddress = info@wolfssl.com
        Subject Public Key Info:
            Public Key Algorithm: rsaEncryption
                RSA Public-Key: (2048 bit)
                Modulus:
                    00:d8:6f:49:bb:56:ea:34:4c:25:a6:8c:44:f6:c9:
                    75:8f:6b:83:b8:8b:ec:c6:f6:d3:c7:40:e2:d1:b2:
                    d8:77:92:e9:97:c4:b6:57:ad:10:c8:cb:e7:0a:40:
                    ef:3c:a8:38:dc:94:22:08:e7:53:2a:c8:7a:26:90:
                    41:43:6f:7b:8f:4e:58:74:69:20:92:9f:12:aa:6a:
                    c5:cf:7f:24:d1:d0:89:2f:6c:5e:62:31:0a:20:23:
                    6b:07:c2:a0:7d:4d:ed:05:6d:2c:b1:9a:85:e6:41:
                    61:12:6c:85:d3:d4:be:7e:cf:23:d9:79:b1:46:23:
                    d7:1a:f7:d6:f4:97:43:a5:08:03:7a:51:0d:b0:e7:
                    56:62:86:37:07:81:e8:21:f1:10:63:41:b6:82:6d:
                    f2:cd:d9:7f:80:6f:a7:4b:77:10:15:54:02:9c:7a:
                    d0:6e:b8:29:98:72:34:08:7b:ce:d7:24:91:48:a6:
                    c3:f2:9d:77:fc:aa:73:13:70:60:f9:8f:37:4c:d7:
                    34:5c:fa:51:b1:c0:d5:25:e1:75:b2:e2:cd:23:97:
                    c9:a6:bf:d3:5e:21:4b:12:f5:b2:d0:df:92:7f:4c:
                    a8:b2:21:43:2c:f9:3e:fb:14:99:1f:ed:76:2c:87:
                    5a:df:72:d3:85:a3:a8:92:1a:ad:66:19:50:44:8a:
                    05:e1
                Exponent: 65537 (0x10001)
        X509v3 extensions:
            X509v3 Subject Key Identifier: 
                26:FC:70:E0:8F:A1:3D:52:82:76:6B:CB:C7:0F:89:9D:2B:86:69:F5
            X509v3 Authority Key Identifier: 
                keyid:44:7B:00:7C:9C:1C:97:9F:97:AA:6B:F2:5E:E6:81:7C:0E:AE:E6:2B
                DirName:/C=US/ST=Montana/L=Bozeman/O=Sawtooth/OU=Consulting/CN=www.wolfssl.com/emailAddress=info@wolfssl.com
                serial:64

            X509v3 Basic Constraints: 
                CA:FALSE
    Signature Algorithm: sha1WithRSAEncryption
         44:ed:dc:cb:7d:ed:b5:1b:98:c9:1d:8f:7e:e5:01:10:ba:ec:
         89:f1:bb:d9:11:9f:57:9d:b3:e0:3f:21:ef:c1:ab:0b:47:bb:
         b7:7e:ab:51:86:98:47:f2:c4:2a:53:ad:40:b0:ee:48:a3:44:
         c7:ee:af:39:d3:4d:2d:5c:13:33:d1:db:e3:ad:53:2a:b4:ec:
         8c:7d:75:fe:e0:ce:ed:b0:94:21:88:0e:0c:15:be:4f:9f:11:
         05:2c:57:da:06:be:1b:6e:f5:b0:23:4f:b1:ed:41:43:a2:29:
         e4:21:43:12:b1:a9:93:c1:39:a5:b5:e6:6b:ad:ce:3c:2f:ba:
         37:2e:2b:9e:d5:5d:44:76:ee:6a:e3:2f:05:43:21:c5:d7:ef:
         f7:2f:29:3f:81:a1:8f:c1:c1:fe:c2:54:59:02:b6:95:d7:9a:
         ad:2c:d4:5e:a0:8e:67:47:a9:0c:fc:fa:05:26:06:71:b2:2a:
         8e:c7:3e:18:cc:21:fb:a9:23:15:5b:3b:cb:ae:ab:d9:5a:3f:
         da:62:b2:29:49:5c:cb:2e:33:ef:7f:92:32:84:58:a2:8f:47:
         fd:d7:65:d9:f2:61:51:28:33:81:25:4f:c6:07:6f:b4:cf:ed:
         ff:d9:ce:f2:05:08:40:34:17:f8:98:4f:7b:d7:c7:42:5b:0b:
         8a:9b:b5:8c
-----BEGIN CERTIFICATE-----
MIIErDCCA5SgAwIBAgIBZTANBgkqhkiG9w0BAQUFADCBozELMAkGA1UEBhMCVVMx
EzARBgNVBAgMCldhc2hpbmd0b24xEDAOBgNVBAcMB1NlYXR0bGUxFTATBgNVBAoM
DHdvbGZTU0wgSW5jLjEUMBIGA1UECwwLRW5naW5lZXJpbmcxHzAdBgNVBAMMFmNo
YWluRS1JQ0ExLXBhdGhsZW4xMjgxHzAdBgkqhkiG9w0BCQEWEGluZm9Ad29sZnNz
bC5jb20wHhcNMTkxMDEwMjEzMjQyWhcNMjIwNzA2MjEzMjQyWjCBmjELMAkGA1UE
BhMCVVMxEzARBgNVBAgMCldhc2hpbmd0b24xEDAOBgNVBAcMB1NlYXR0bGUxFTAT
BgNVBAoMDHdvbGZTU0wgSW5jLjEUMBIGA1UECwwLRW5naW5lZXJpbmcxFjAUBgNV
BAMMDWNoYWluRS1lbnRpdHkxHzAdBgkqhkiG9w0BCQEWEGluZm9Ad29sZnNzbC5j
b20wggEiMA0GCSqGSIb3DQEBAQUAA4IBDwAwggEKAoIBAQDYb0m7Vuo0TCWmjET2
yXWPa4O4i+zG9tPHQOLRsth3kumXxLZXrRDIy+cKQO88qDjclCII51MqyHomkEFD
b3uPTlh0aSCSnxKqasXPfyTR0IkvbF5iMQogI2sHwqB9Te0FbSyxmoXmQWESbIXT
1L5+zyPZebFGI9ca99b0l0OlCAN6UQ2w51ZihjcHgegh8RBjQbaCbfLN2X+Ab6dL
dxAVVAKcetBuuCmYcjQIe87XJJFIpsPynXf8qnMTcGD5jzdM1zRc+lGxwNUl4XWy
4s0jl8mmv9NeIUsS9bLQ35J/TKiyIUMs+T77FJkf7XYsh1rfctOFo6iSGq1mGVBE
igXhAgMBAAGjgfEwge4wHQYDVR0OBBYEFCb8cOCPoT1SgnZry8cPiZ0rhmn1MIHB
BgNVHSMEgbkwgbaAFER7AHycHJefl6pr8l7mgXwOruYroYGapIGXMIGUMQswCQYD
VQQGEwJVUzEQMA4GA1UECAwHTW9udGFuYTEQMA4GA1UEBwwHQm96ZW1hbjERMA8G
A1UECgwIU2F3dG9vdGgxEzARBgNVBAsMCkNvbnN1bHRpbmcxGDAWBgNVBAMMD3d3
dy53b2xmc3NsLmNvbTEfMB0GCSqGSIb3DQEJARYQaW5mb0B3b2xmc3NsLmNvbYIB
ZDAJBgNVHRMEAjAAMA0GCSqGSIb3DQEBBQUAA4IBAQBE7dzLfe21G5jJHY9+5QEQ
uuyJ8bvZEZ9XnbPgPyHvwasLR7u3fqtRhphH8sQqU61AsO5Io0TH7q85000tXBMz
0dvjrVMqtOyMfXX+4M7tsJQhiA4MFb5PnxEFLFfaBr4bbvWwI0+x7UFDoinkIUMS
samTwTmlteZrrc48L7o3Liue1V1Edu5q4y8FQyHF1+/3Lyk/gaGPwcH+wlRZAraV
15qtLNReoI5nR6kM/PoFJgZxsiqOxz4YzCH7qSMVWzvLrqvZWj/aYrIpSVzLLjPv
f5IyhFiij0f912XZ8mFRKDOBJU/GB2+0z+3/2c7yBQhANBf4mE9718dCWwuKm7WM
-----END CERTIFICATE-----
Certificate:
    Data:
        Version: 3 (0x2)
        Serial Number: 100 (0x64)
        Signature Algorithm: sha1WithRSAEncryption
        Issuer: C = US, ST = Montana, L = Bozeman, O = Sawtooth, OU = Consulting, CN = www.wolfssl.com, emailAddress = info@wolfssl.com
        Validity
            Not Before: Oct 10 21:32:42 2019 GMT
            Not After : Jul  6 21:32:42 2022 GMT
        Subject: C = US, ST = Washington, L = Seattle, O = wolfSSL Inc., OU = Engineering, CN = chainE-ICA1-pathlen128, emailAddress = info@wolfssl.com
        Subject Public Key Info:
            Public Key Algorithm: rsaEncryption
                RSA Public-Key: (2048 bit)
                Modulus:
                    00:d6:f3:6f:b8:db:10:df:89:df:3b:d9:2e:7a:c1:
                    34:1a:56:97:6c:73:04:fc:15:50:04:93:66:cb:17:
                    ba:fb:f9:28:b9:d6:ce:7e:f5:78:bb:b1:4f:aa:4b:
                    f8:80:35:d9:ae:fe:99:75:f7:cd:79:0b:cf:ca:da:
                    cb:58:9a:6e:9b:91:21:f4:17:fd:56:b8:3a:cf:cf:
                    ed:f7:90:6a:73:6c:06:99:ef:0e:8f:65:dc:d0:e8:
                    db:7b:c1:e8:4d:6d:61:9e:cc:5a:20:de:86:3a:58:
                    81:fa:b1:d4:5f:3c:74:43:45:61:36:2c:fe:a4:35:
                    ae:e2:39:c7:fd:dd:b3:83:d6:17:dc:f5:99:3f:67:
                    0e:c1:60:d1:69:8d:3c:f9:62:e9:83:ae:66:10:aa:
                    40:91:63:0b:2a:e5:c1:a8:1f:8e:8a:9b:11:9f:bf:
                    a6:45:fb:16:70:ed:6c:1b:14:98:80:69:04:c3:bd:
                    13:22:e7:d9:33:48:9d:8a:6c:0f:9c:39:08:29:92:
                    83:7b:73:a3:da:86:d6:4a:00:0f:a7:c2:7b:bf:ac:
                    0f:2a:62:96:5b:3b:ef:9f:e1:08:bb:44:ba:c4:99:
                    4f:a0:b9:5e:4d:cb:73:73:fe:ee:82:69:4f:af:c7:
                    59:5a:36:81:44:c6:e3:50:3b:bf:8d:14:ef:7e:96:
                    ef:c1
                Exponent: 65537 (0x10001)
        X509v3 extensions:
            X509v3 Subject Key Identifier: 
                44:7B:00:7C:9C:1C:97:9F:97:AA:6B:F2:5E:E6:81:7C:0E:AE:E6:2B
            X509v3 Authority Key Identifier: 
                keyid:27:8E:67:11:74:C3:26:1D:3F:ED:33:63:B3:A4:D8:1D:30:E5:E8:D5
                DirName:/C=US/ST=Montana/L=Bozeman/O=Sawtooth/OU=Consulting/CN=www.wolfssl.com/emailAddress=info@wolfssl.com
                serial:86:FF:F5:8E:10:DE:B8:FB

            X509v3 Basic Constraints: 
                CA:TRUE, pathlen:128
            X509v3 Key Usage: 
                Certificate Sign, CRL Sign
    Signature Algorithm: sha1WithRSAEncryption
         af:fc:98:56:ed:ef:b5:d4:1b:37:22:6c:cf:fb:27:b8:1e:6f:
         af:85:6e:e3:84:26:a9:f7:17:96:68:c0:58:95:aa:07:4c:2d:
         92:c6:7b:44:e2:96:27:aa:db:81:70:f0:ad:e4:a0:14:4e:e4:
         43:b5:66:b9:64:50:16:1f:65:fa:ff:ff:60:74:52:15:63:55:
         4e:b4:51:c0:2e:42:d7:78:87:db:57:db:de:5e:5b:ee:93:94:
         67:14:ae:f0:39:88:44:76:44:6b:0e:5d:d4:b6:c5:9a:b0:d5:
         03:40:6a:d5:9f:0c:62:83:51:5a:d7:a4:fd:b4:f4:b3:47:93:
         71:0f:4d:75:39:1b:0f:dc:5b:62:c3:22:1c:53:03:19:2b:52:
         a5:d4:f5:e0:79:cf:6a:2d:e6:85:65:e1:d0:8c:c1:c9:1a:67:
         72:1d:77:2a:14:4b:e9:42:1e:06:82:4f:f5:98:ff:d0:36:cc:
         c9:05:37:3f:69:e8:53:62:2e:1c:84:d4:f8:a0:cf:5f:32:69:
         7f:4e:53:e6:43:d0:14:04:d4:27:cc:55:9e:b0:84:bb:1a:ba:
         7c:8d:3e:b7:1d:76:04:31:78:91:ff:07:a9:3a:46:09:81:e9:
         5b:2e:b2:ef:2b:b6:1a:1b:4b:2f:c2:e4:81:9f:bf:de:e1:73:
         4f:a6:b7:df
-----BEGIN CERTIFICATE-----
MIIExDCCA6ygAwIBAgIBZDANBgkqhkiG9w0BAQUFADCBlDELMAkGA1UEBhMCVVMx
EDAOBgNVBAgMB01vbnRhbmExEDAOBgNVBAcMB0JvemVtYW4xETAPBgNVBAoMCFNh
d3Rvb3RoMRMwEQYDVQQLDApDb25zdWx0aW5nMRgwFgYDVQQDDA93d3cud29sZnNz
bC5jb20xHzAdBgkqhkiG9w0BCQEWEGluZm9Ad29sZnNzbC5jb20wHhcNMTkxMDEw
MjEzMjQyWhcNMjIwNzA2MjEzMjQyWjCBozELMAkGA1UEBhMCVVMxEzARBgNVBAgM
Cldhc2hpbmd0b24xEDAOBgNVBAcMB1NlYXR0bGUxFTATBgNVBAoMDHdvbGZTU0wg
SW5jLjEUMBIGA1UECwwLRW5naW5lZXJpbmcxHzAdBgNVBAMMFmNoYWluRS1JQ0Ex
LXBhdGhsZW4xMjgxHzAdBgkqhkiG9w0BCQEWEGluZm9Ad29sZnNzbC5jb20wggEi
MA0GCSqGSIb3DQEBAQUAA4IBDwAwggEKAoIBAQDW82+42xDfid872S56wTQaVpds
cwT8FVAEk2bLF7r7+Si51s5+9Xi7sU+qS/iANdmu/pl19815C8/K2stYmm6bkSH0
F/1WuDrPz+33kGpzbAaZ7w6PZdzQ6Nt7wehNbWGezFog3oY6WIH6sdRfPHRDRWE2
LP6kNa7iOcf93bOD1hfc9Zk/Zw7BYNFpjTz5YumDrmYQqkCRYwsq5cGoH46KmxGf
v6ZF+xZw7WwbFJiAaQTDvRMi59kzSJ2KbA+cOQgpkoN7c6PahtZKAA+nwnu/rA8q
YpZbO++f4Qi7RLrEmU+guV5Ny3Nz/u6CaU+vx1laNoFExuNQO7+NFO9+lu/BAgMB
AAGjggEOMIIBCjAdBgNVHQ4EFgQURHsAfJwcl5+XqmvyXuaBfA6u5iswgckGA1Ud
IwSBwTCBvoAUJ45nEXTDJh0/7TNjs6TYHTDl6NWhgZqkgZcwgZQxCzAJBgNVBAYT
AlVTMRAwDgYDVQQIDAdNb250YW5hMRAwDgYDVQQHDAdCb3plbWFuMREwDwYDVQQK
DAhTYXd0b290aDETMBEGA1UECwwKQ29uc3VsdGluZzEYMBYGA1UEAwwPd3d3Lndv
bGZzc2wuY29tMR8wHQYJKoZIhvcNAQkBFhBpbmZvQHdvbGZzc2wuY29tggkAhv/1
jhDeuPswEAYDVR0TBAkwBwEB/wICAIAwCwYDVR0PBAQDAgEGMA0GCSqGSIb3DQEB
BQUAA4IBAQCv/JhW7e+11Bs3ImzP+ye4Hm+vhW7jhCap9xeWaMBYlaoHTC2SxntE
4pYnqtuBcPCt5KAUTuRDtWa5ZFAWH2X6//9gdFIVY1VOtFHALkLXeIfbV9veXlvu
k5RnFK7wOYhEdkRrDl3UtsWasNUDQGrVnwxig1Fa16T9tPSzR5NxD011ORsP3Fti
wyIcUwMZK1Kl1PXgec9qLeaFZeHQjMHJGmdyHXcqFEvpQh4Ggk/1mP/QNszJBTc/
aehTYi4chNT4oM9fMml/TlPmQ9AUBNQnzFWesIS7Grp8jT63HXYEMXiR/wepOkYJ
gelbLrLvK7YaG0svwuSBn7/e4XNPprff
-----END CERTIFICATE-----
