Certificate:
    Data:
        Version: 3 (0x2)
        Serial Number: 100 (0x64)
        Signature Algorithm: sha256WithRSAEncryption
        Issuer: C = US, ST = Washington, L = Seattle, O = wolfSSL Inc., OU = Engineering, CN = chainJ-ICA4-pathlen2, emailAddress = info@wolfssl.com
        Validity
            Not Before: Jun 19 13:23:42 2020 GMT
            Not After : Mar 16 13:23:42 2023 GMT
        Subject: C = US, ST = Washington, L = Seattle, O = wolfSSL Inc., OU = Engineering, CN = chainJ-ICA3-no_pathlen, emailAddress = info@wolfssl.com
        Subject Public Key Info:
            Public Key Algorithm: rsaEncryption
                RSA Public-Key: (2048 bit)
                Modulus:
                    00:d8:aa:f6:05:95:70:5a:53:c7:66:10:aa:90:79:
                    3b:cb:78:2a:ef:5f:43:22:71:7c:6d:47:99:a7:8b:
                    39:e1:e7:4e:48:29:48:25:e1:b5:f5:25:df:64:7b:
                    ea:ed:aa:1f:8b:0d:e7:eb:f5:2f:ae:2a:5a:3d:50:
                    c7:fb:ef:0b:8b:44:0b:63:94:be:c6:d7:63:45:2e:
                    85:96:00:5c:be:7e:10:09:b3:d0:aa:7c:de:20:f8:
                    75:39:23:85:ee:84:13:88:54:2a:96:f5:16:27:9f:
                    8b:b0:a6:2a:f4:9d:13:8c:71:1c:0c:a6:59:53:ec:
                    f9:0b:2b:c9:45:13:d6:12:ef:39:d1:8e:9c:9e:ae:
                    3c:bb:b6:d8:10:ac:b7:59:49:5b:73:00:be:af:92:
                    21:14:54:a3:fa:b6:17:ae:b6:dc:b1:f1:61:f0:75:
                    07:43:5e:48:fa:e7:80:56:cf:df:ad:46:52:85:42:
                    fb:a7:70:53:14:c6:b7:51:fa:23:f0:f5:4b:d1:bb:
                    3f:9b:fc:35:ca:d2:85:f1:a0:77:02:06:7c:79:99:
                    13:b5:68:b4:16:47:42:88:f7:bc:eb:78:b2:e8:11:
                    2f:62:f6:da:f9:ef:1b:e0:9f:b5:d5:32:65:b5:4e:
                    e4:be:36:6b:65:65:1a:96:a2:47:b5:3e:9f:b0:0d:
                    63:41
                Exponent: 65537 (0x10001)
        X509v3 extensions:
            X509v3 Subject Key Identifier: 
                CD:97:49:78:F7:31:61:ED:2F:71:1A:68:E9:45:2C:40:78:51:93:5B
            X509v3 Authority Key Identifier: 
                keyid:FC:18:13:52:BB:33:4A:DB:1C:5B:D1:80:98:3E:40:86:95:58:72:F9
                DirName:/C=US/ST=Montana/L=Bozeman/O=Sawtooth/OU=Consulting/CN=www.wolfssl.com/emailAddress=info@wolfssl.com
                serial:64

            X509v3 Basic Constraints: 
                CA:TRUE
            X509v3 Key Usage: 
                Certificate Sign, CRL Sign
    Signature Algorithm: sha256WithRSAEncryption
         8c:92:66:0e:c0:30:f0:5b:58:4f:e0:4f:37:3c:d1:f1:a0:2d:
         af:1e:43:84:98:fc:9c:ab:f4:58:5d:e1:6f:b4:8c:80:24:ab:
         1a:e9:87:a0:6c:4c:fb:77:5f:7d:6d:32:d3:f6:48:4c:e2:10:
         db:d7:96:4e:36:d2:4d:68:b6:41:83:75:b7:72:ea:92:1d:de:
         1a:52:ff:fa:64:b5:72:1d:4a:48:f3:a9:2f:0e:33:da:db:dd:
         c6:57:50:52:34:30:9a:7d:9b:c8:3a:91:90:0d:9d:7a:83:90:
         63:d3:a1:04:6e:e5:7f:00:56:b9:a3:89:90:4d:56:53:43:4b:
         f6:61:7f:83:c9:c1:61:93:a4:0b:00:6b:43:58:e8:d0:75:09:
         bd:09:5f:01:f8:f7:1a:90:13:ec:a1:19:b7:11:83:57:f7:d1:
         30:2a:61:da:41:41:aa:3f:61:ec:b7:31:05:f0:3c:e5:d1:74:
         7a:6f:79:86:de:59:cc:46:90:f8:b3:c6:6b:b8:80:b5:fb:71:
         b5:ef:1d:1b:0b:ab:7b:d4:36:98:ce:e4:ac:e0:2e:f6:31:b6:
         7d:9b:db:70:e8:bf:95:f7:02:d6:c1:35:90:6a:d9:84:74:13:
         5d:e8:51:bf:40:0d:f0:7b:c6:ca:49:19:25:4f:ae:d5:10:39:
         68:00:d0:5b
-----BEGIN CERTIFICATE-----
MIIExDCCA6ygAwIBAgIBZDANBgkqhkiG9w0BAQsFADCBoTELMAkGA1UEBhMCVVMx
EzARBgNVBAgMCldhc2hpbmd0b24xEDAOBgNVBAcMB1NlYXR0bGUxFTATBgNVBAoM
DHdvbGZTU0wgSW5jLjEUMBIGA1UECwwLRW5naW5lZXJpbmcxHTAbBgNVBAMMFGNo
YWluSi1JQ0E0LXBhdGhsZW4yMR8wHQYJKoZIhvcNAQkBFhBpbmZvQHdvbGZzc2wu
Y29tMB4XDTIwMDYxOTEzMjM0MloXDTIzMDMxNjEzMjM0MlowgaMxCzAJBgNVBAYT
AlVTMRMwEQYDVQQIDApXYXNoaW5ndG9uMRAwDgYDVQQHDAdTZWF0dGxlMRUwEwYD
VQQKDAx3b2xmU1NMIEluYy4xFDASBgNVBAsMC0VuZ2luZWVyaW5nMR8wHQYDVQQD
DBZjaGFpbkotSUNBMy1ub19wYXRobGVuMR8wHQYJKoZIhvcNAQkBFhBpbmZvQHdv
bGZzc2wuY29tMIIBIjANBgkqhkiG9w0BAQEFAAOCAQ8AMIIBCgKCAQEA2Kr2BZVw
WlPHZhCqkHk7y3gq719DInF8bUeZp4s54edOSClIJeG19SXfZHvq7aofiw3n6/Uv
ripaPVDH++8Li0QLY5S+xtdjRS6FlgBcvn4QCbPQqnzeIPh1OSOF7oQTiFQqlvUW
J5+LsKYq9J0TjHEcDKZZU+z5CyvJRRPWEu850Y6cnq48u7bYEKy3WUlbcwC+r5Ih
FFSj+rYXrrbcsfFh8HUHQ15I+ueAVs/frUZShUL7p3BTFMa3Ufoj8PVL0bs/m/w1
ytKF8aB3AgZ8eZkTtWi0FkdCiPe863iy6BEvYvba+e8b4J+11TJltU7kvjZrZWUa
lqJHtT6fsA1jQQIDAQABo4IBATCB/jAdBgNVHQ4EFgQUzZdJePcxYe0vcRpo6UUs
QHhRk1swgcEGA1UdIwSBuTCBtoAU/BgTUrszStscW9GAmD5AhpVYcvmhgZqkgZcw
gZQxCzAJBgNVBAYTAlVTMRAwDgYDVQQIDAdNb250YW5hMRAwDgYDVQQHDAdCb3pl
bWFuMREwDwYDVQQKDAhTYXd0b290aDETMBEGA1UECwwKQ29uc3VsdGluZzEYMBYG
A1UEAwwPd3d3LndvbGZzc2wuY29tMR8wHQYJKoZIhvcNAQkBFhBpbmZvQHdvbGZz
c2wuY29tggFkMAwGA1UdEwQFMAMBAf8wCwYDVR0PBAQDAgEGMA0GCSqGSIb3DQEB
CwUAA4IBAQCMkmYOwDDwW1hP4E83PNHxoC2vHkOEmPycq/RYXeFvtIyAJKsa6Yeg
bEz7d199bTLT9khM4hDb15ZONtJNaLZBg3W3cuqSHd4aUv/6ZLVyHUpI86kvDjPa
293GV1BSNDCafZvIOpGQDZ16g5Bj06EEbuV/AFa5o4mQTVZTQ0v2YX+DycFhk6QL
AGtDWOjQdQm9CV8B+PcakBPsoRm3EYNX99EwKmHaQUGqP2HstzEF8Dzl0XR6b3mG
3lnMRpD4s8ZruIC1+3G17x0bC6t71DaYzuSs4C72MbZ9m9tw6L+V9wLWwTWQatmE
dBNd6FG/QA3we8bKSRklT67VEDloANBb
-----END CERTIFICATE-----
