Certificate:
    Data:
        Version: 3 (0x2)
        Serial Number: 100 (0x64)
        Signature Algorithm: sha256WithRSAEncryption
        Issuer: C = US, ST = Montana, L = Bozeman, O = Sawtooth, OU = Consulting, CN = www.wolfssl.com, emailAddress = info@wolfssl.com
        Validity
            Not Before: Dec 13 22:19:32 2023 GMT
            Not After : Sep  8 22:19:32 2026 GMT
        Subject: C = US, ST = Washington, L = Seattle, O = wolfSSL Inc., OU = Engineering, CN = chainH-ICA4-pathlen2, emailAddress = info@wolfssl.com
        Subject Public Key Info:
            Public Key Algorithm: rsaEncryption
                RSA Public-Key: (2048 bit)
                Modulus:
                    00:bb:f3:2f:8a:cd:9e:87:f1:01:f3:a4:c0:2d:66:
                    36:d7:11:2e:64:08:e8:f1:99:fa:a6:9c:f4:bd:3b:
                    47:72:d2:0e:58:9d:3e:52:e7:da:a3:43:78:c3:c3:
                    93:e6:04:d3:ab:51:8a:1a:24:0e:7a:62:59:aa:c6:
                    42:9e:66:c1:61:5e:31:b1:4d:dc:37:a9:18:76:8d:
                    fe:cb:09:54:3f:4f:bb:5f:ab:ba:70:e9:b4:a1:5e:
                    a0:69:7e:45:3f:c0:cc:78:e9:f2:74:64:79:c2:6a:
                    16:d0:98:30:82:44:4a:b3:99:2c:66:30:ac:99:82:
                    04:2a:bf:0f:60:89:04:36:fa:29:d3:08:56:61:6a:
                    a8:33:40:9a:53:7d:20:a8:51:6f:9b:a0:d9:3e:dc:
                    9a:8b:1d:37:9e:ad:c9:fd:53:a7:04:dc:1f:36:3e:
                    d3:65:52:84:24:61:d0:4e:e2:41:60:bf:fb:fd:b2:
                    04:b3:3f:eb:14:99:5e:bc:e8:7d:e9:65:d1:3f:fe:
                    04:49:e5:bb:a3:2d:e3:db:96:df:d9:81:a0:32:d7:
                    01:b9:b8:02:8e:b9:a2:1f:0a:d4:24:17:3a:19:0f:
                    6d:3a:10:5f:5c:7d:b8:56:82:c7:7f:40:f0:2d:87:
                    63:c1:b1:d8:64:c7:3c:27:13:4a:63:82:21:b1:f2:
                    39:e9
                Exponent: 65537 (0x10001)
        X509v3 extensions:
            X509v3 Subject Key Identifier: 
                18:6D:44:83:EE:1F:EC:B4:22:F0:9C:EB:54:1E:4A:15:58:01:AA:13
            X509v3 Authority Key Identifier: 
                keyid:27:8E:67:11:74:C3:26:1D:3F:ED:33:63:B3:A4:D8:1D:30:E5:E8:D5
                DirName:/C=US/ST=Montana/L=Bozeman/O=Sawtooth/OU=Consulting/CN=www.wolfssl.com/emailAddress=info@wolfssl.com
                serial:33:44:1A:A8:6C:01:EC:F6:60:F2:70:51:0A:4C:D1:14:FA:BC:E9:44

            X509v3 Basic Constraints: 
                CA:TRUE, pathlen:2
            X509v3 Key Usage: 
                Certificate Sign, CRL Sign
    Signature Algorithm: sha256WithRSAEncryption
         a1:6c:a3:2e:95:bb:e7:f0:f4:70:b8:8c:5a:a7:29:54:13:6a:
         5b:13:e3:62:6a:b5:06:68:41:91:2f:84:97:1f:25:c1:db:18:
         5d:09:26:04:ab:aa:2d:4d:59:2e:96:70:8f:0e:5d:0b:b8:b0:
         db:5f:14:70:9e:00:d8:31:1f:65:54:47:69:5c:11:e8:0c:97:
         2e:ff:0d:2e:ee:45:18:5b:aa:83:21:b1:5d:66:f0:b7:b3:99:
         09:c6:fd:11:7e:b5:67:a0:d2:3b:a2:e9:b0:96:1d:42:ac:6e:
         ce:f2:80:4e:8c:87:36:af:b5:c4:bc:fb:5d:18:40:d4:7d:3a:
         0f:c8:9f:f1:95:bb:8a:ad:18:f8:3c:e0:49:da:36:26:17:8c:
         87:75:79:80:5f:c4:5a:48:93:ed:62:93:73:55:a3:73:d4:ba:
         3c:54:f4:b2:ad:70:af:8f:93:4f:a7:15:49:e0:cf:88:2a:1f:
         bf:18:f5:13:e4:5b:d3:37:29:12:db:8c:4d:b6:93:0b:02:70:
         47:84:cc:0a:e8:28:de:89:a1:43:0f:16:28:a9:be:85:6e:62:
         44:5c:69:a0:33:67:bf:ee:80:37:46:25:e4:d2:ec:56:07:67:
         e4:d6:e0:92:a1:2f:7c:d8:18:d0:7a:02:82:5b:48:3d:61:9b:
         5f:65:db:af
-----BEGIN CERTIFICATE-----
MIIEzDCCA7SgAwIBAgIBZDANBgkqhkiG9w0BAQsFADCBlDELMAkGA1UEBhMCVVMx
EDAOBgNVBAgMB01vbnRhbmExEDAOBgNVBAcMB0JvemVtYW4xETAPBgNVBAoMCFNh
d3Rvb3RoMRMwEQYDVQQLDApDb25zdWx0aW5nMRgwFgYDVQQDDA93d3cud29sZnNz
bC5jb20xHzAdBgkqhkiG9w0BCQEWEGluZm9Ad29sZnNzbC5jb20wHhcNMjMxMjEz
MjIxOTMyWhcNMjYwOTA4MjIxOTMyWjCBoTELMAkGA1UEBhMCVVMxEzARBgNVBAgM
Cldhc2hpbmd0b24xEDAOBgNVBAcMB1NlYXR0bGUxFTATBgNVBAoMDHdvbGZTU0wg
SW5jLjEUMBIGA1UECwwLRW5naW5lZXJpbmcxHTAbBgNVBAMMFGNoYWluSC1JQ0E0
LXBhdGhsZW4yMR8wHQYJKoZIhvcNAQkBFhBpbmZvQHdvbGZzc2wuY29tMIIBIjAN
BgkqhkiG9w0BAQEFAAOCAQ8AMIIBCgKCAQEAu/Mvis2eh/EB86TALWY21xEuZAjo
8Zn6ppz0vTtHctIOWJ0+Uufao0N4w8OT5gTTq1GKGiQOemJZqsZCnmbBYV4xsU3c
N6kYdo3+ywlUP0+7X6u6cOm0oV6gaX5FP8DMeOnydGR5wmoW0JgwgkRKs5ksZjCs
mYIEKr8PYIkENvop0whWYWqoM0CaU30gqFFvm6DZPtyaix03nq3J/VOnBNwfNj7T
ZVKEJGHQTuJBYL/7/bIEsz/rFJlevOh96WXRP/4ESeW7oy3j25bf2YGgMtcBubgC
jrmiHwrUJBc6GQ9tOhBfXH24VoLHf0DwLYdjwbHYZMc8JxNKY4IhsfI56QIDAQAB
o4IBGDCCARQwHQYDVR0OBBYEFBhtRIPuH+y0IvCc61QeShVYAaoTMIHUBgNVHSME
gcwwgcmAFCeOZxF0wyYdP+0zY7Ok2B0w5ejVoYGapIGXMIGUMQswCQYDVQQGEwJV
UzEQMA4GA1UECAwHTW9udGFuYTEQMA4GA1UEBwwHQm96ZW1hbjERMA8GA1UECgwI
U2F3dG9vdGgxEzARBgNVBAsMCkNvbnN1bHRpbmcxGDAWBgNVBAMMD3d3dy53b2xm
c3NsLmNvbTEfMB0GCSqGSIb3DQEJARYQaW5mb0B3b2xmc3NsLmNvbYIUM0QaqGwB
7PZg8nBRCkzRFPq86UQwDwYDVR0TBAgwBgEB/wIBAjALBgNVHQ8EBAMCAQYwDQYJ
KoZIhvcNAQELBQADggEBAKFsoy6Vu+fw9HC4jFqnKVQTalsT42JqtQZoQZEvhJcf
JcHbGF0JJgSrqi1NWS6WcI8OXQu4sNtfFHCeANgxH2VUR2lcEegMly7/DS7uRRhb
qoMhsV1m8LezmQnG/RF+tWeg0jui6bCWHUKsbs7ygE6MhzavtcS8+10YQNR9Og/I
n/GVu4qtGPg84EnaNiYXjId1eYBfxFpIk+1ik3NVo3PUujxU9LKtcK+Pk0+nFUng
z4gqH78Y9RPkW9M3KRLbjE22kwsCcEeEzAroKN6JoUMPFiipvoVuYkRcaaAzZ7/u
gDdGJeTS7FYHZ+TW4JKhL3zYGNB6AoJbSD1hm19l268=
-----END CERTIFICATE-----
