Certificate:
    Data:
        Version: 3 (0x2)
        Serial Number: 100 (0x64)
        Signature Algorithm: sha1WithRSAEncryption
        Issuer: C = US, ST = Montana, L = Bozeman, O = Sawtooth, OU = Consulting, CN = www.wolfssl.com, emailAddress = info@wolfssl.com
        Validity
            Not Before: Oct 10 21:32:41 2019 GMT
            Not After : Jul  6 21:32:41 2022 GMT
        Subject: C = US, ST = Washington, L = Seattle, O = wolfSSL Inc., OU = Engineering, CN = chainA-ICA1-pathlen0, emailAddress = info@wolfssl.com
        Subject Public Key Info:
            Public Key Algorithm: rsaEncryption
                RSA Public-Key: (2048 bit)
                Modulus:
                    00:b2:2b:a1:3f:be:c0:58:bd:3a:bc:0d:19:ac:ca:
                    7f:b9:3b:f0:8c:30:ff:04:b1:34:7e:26:86:96:36:
                    6b:53:2e:44:1d:a1:f4:bc:51:79:55:05:ca:bb:a0:
                    a7:9d:33:01:93:96:14:67:ec:f4:c3:2e:66:27:d1:
                    41:68:34:ac:8d:64:63:d8:55:86:9d:62:24:99:ed:
                    b7:ff:cb:4d:9d:40:54:d5:e3:aa:45:a6:a6:db:fe:
                    73:42:94:42:c1:d0:32:5c:c4:21:ae:9c:93:00:b7:
                    4a:1f:9e:95:a6:28:6d:4b:d8:c0:65:e7:ed:a3:6d:
                    ca:18:b3:fa:df:c9:67:1a:75:23:60:83:a5:03:5f:
                    61:bd:e5:d6:8d:9d:05:47:23:7e:a0:8d:d1:7f:42:
                    4e:38:ac:ce:70:bc:bf:7b:05:5b:0f:82:02:b0:9a:
                    8d:c0:14:ca:d0:45:5e:97:10:d1:a1:e1:23:da:dc:
                    69:9c:ce:53:cc:68:89:c6:40:4d:69:bc:ab:4f:c7:
                    11:5e:62:a2:df:e2:a5:34:7c:39:36:27:67:34:11:
                    04:2c:2a:b3:16:db:8e:fd:d7:7b:1d:93:5f:33:c2:
                    ca:96:22:2a:43:82:8a:48:46:07:13:ff:6c:1c:b0:
                    ba:0b:f0:cd:3f:4c:dc:34:17:8f:22:70:69:9d:22:
                    d7:c7
                Exponent: 65537 (0x10001)
        X509v3 extensions:
            X509v3 Subject Key Identifier: 
                A8:10:EA:C8:EF:4F:00:CD:E3:79:C3:EB:DF:F6:C8:86:9D:44:6C:26
            X509v3 Authority Key Identifier: 
                keyid:27:8E:67:11:74:C3:26:1D:3F:ED:33:63:B3:A4:D8:1D:30:E5:E8:D5
                DirName:/C=US/ST=Montana/L=Bozeman/O=Sawtooth/OU=Consulting/CN=www.wolfssl.com/emailAddress=info@wolfssl.com
                serial:86:FF:F5:8E:10:DE:B8:FB

            X509v3 Basic Constraints: 
                CA:TRUE, pathlen:0
            X509v3 Key Usage: 
                Certificate Sign, CRL Sign
    Signature Algorithm: sha1WithRSAEncryption
         21:c9:8b:0d:d9:f7:16:c7:bc:a4:9b:a3:60:79:eb:24:9b:f7:
         be:b6:c8:33:2a:b5:1c:67:a2:d9:31:83:9d:c4:18:d2:1f:d6:
         de:1d:fb:d0:8b:10:fb:44:12:6e:f1:e5:96:6d:31:a2:df:08:
         df:67:6f:0e:ac:cc:25:00:5c:fe:6b:4b:82:5b:ad:64:bf:ea:
         c1:0e:de:fa:45:df:3e:b1:a2:20:c0:95:ac:8a:20:f1:73:e7:
         46:d5:21:8f:0c:5a:2d:6b:19:95:01:27:23:00:33:b6:1b:1d:
         81:4a:d9:00:d9:d9:d9:13:59:0a:ac:0e:63:45:6b:38:4d:11:
         28:2d:5c:a8:a0:2d:34:20:0f:69:4d:cf:e9:01:ea:01:fd:14:
         fc:c9:0c:5c:8c:f7:5f:60:ab:7e:10:40:dd:0e:bf:f1:10:fe:
         f2:d6:3c:74:23:d6:c2:7c:df:6c:16:ef:b8:5d:5e:67:84:c8:
         e1:b0:52:1c:cf:51:97:43:f5:d3:65:b1:59:7e:e4:7e:79:7b:
         9a:ab:49:7d:25:2a:f3:fa:d7:9b:39:11:1c:ed:15:ab:cd:71:
         e3:10:a8:af:50:09:73:1f:b3:73:50:d5:03:eb:02:e8:20:af:
         7a:7f:15:8f:56:5f:41:36:75:6b:08:02:fc:47:a4:e3:cb:72:
         fd:7f:af:c2
-----BEGIN CERTIFICATE-----
MIIEwTCCA6mgAwIBAgIBZDANBgkqhkiG9w0BAQUFADCBlDELMAkGA1UEBhMCVVMx
EDAOBgNVBAgMB01vbnRhbmExEDAOBgNVBAcMB0JvemVtYW4xETAPBgNVBAoMCFNh
d3Rvb3RoMRMwEQYDVQQLDApDb25zdWx0aW5nMRgwFgYDVQQDDA93d3cud29sZnNz
bC5jb20xHzAdBgkqhkiG9w0BCQEWEGluZm9Ad29sZnNzbC5jb20wHhcNMTkxMDEw
MjEzMjQxWhcNMjIwNzA2MjEzMjQxWjCBoTELMAkGA1UEBhMCVVMxEzARBgNVBAgM
Cldhc2hpbmd0b24xEDAOBgNVBAcMB1NlYXR0bGUxFTATBgNVBAoMDHdvbGZTU0wg
SW5jLjEUMBIGA1UECwwLRW5naW5lZXJpbmcxHTAbBgNVBAMMFGNoYWluQS1JQ0Ex
LXBhdGhsZW4wMR8wHQYJKoZIhvcNAQkBFhBpbmZvQHdvbGZzc2wuY29tMIIBIjAN
BgkqhkiG9w0BAQEFAAOCAQ8AMIIBCgKCAQEAsiuhP77AWL06vA0ZrMp/uTvwjDD/
BLE0fiaGljZrUy5EHaH0vFF5VQXKu6CnnTMBk5YUZ+z0wy5mJ9FBaDSsjWRj2FWG
nWIkme23/8tNnUBU1eOqRaam2/5zQpRCwdAyXMQhrpyTALdKH56VpihtS9jAZeft
o23KGLP638lnGnUjYIOlA19hveXWjZ0FRyN+oI3Rf0JOOKzOcLy/ewVbD4ICsJqN
wBTK0EVelxDRoeEj2txpnM5TzGiJxkBNabyrT8cRXmKi3+KlNHw5NidnNBEELCqz
FtuO/dd7HZNfM8LKliIqQ4KKSEYHE/9sHLC6C/DNP0zcNBePInBpnSLXxwIDAQAB
o4IBDTCCAQkwHQYDVR0OBBYEFKgQ6sjvTwDN43nD69/2yIadRGwmMIHJBgNVHSME
gcEwgb6AFCeOZxF0wyYdP+0zY7Ok2B0w5ejVoYGapIGXMIGUMQswCQYDVQQGEwJV
UzEQMA4GA1UECAwHTW9udGFuYTEQMA4GA1UEBwwHQm96ZW1hbjERMA8GA1UECgwI
U2F3dG9vdGgxEzARBgNVBAsMCkNvbnN1bHRpbmcxGDAWBgNVBAMMD3d3dy53b2xm
c3NsLmNvbTEfMB0GCSqGSIb3DQEJARYQaW5mb0B3b2xmc3NsLmNvbYIJAIb/9Y4Q
3rj7MA8GA1UdEwQIMAYBAf8CAQAwCwYDVR0PBAQDAgEGMA0GCSqGSIb3DQEBBQUA
A4IBAQAhyYsN2fcWx7ykm6Ngeeskm/e+tsgzKrUcZ6LZMYOdxBjSH9beHfvQixD7
RBJu8eWWbTGi3wjfZ28OrMwlAFz+a0uCW61kv+rBDt76Rd8+saIgwJWsiiDxc+dG
1SGPDFotaxmVAScjADO2Gx2BStkA2dnZE1kKrA5jRWs4TREoLVyooC00IA9pTc/p
AeoB/RT8yQxcjPdfYKt+EEDdDr/xEP7y1jx0I9bCfN9sFu+4XV5nhMjhsFIcz1GX
Q/XTZbFZfuR+eXuaq0l9JSrz+tebOREc7RWrzXHjEKivUAlzH7NzUNUD6wLoIK96
fxWPVl9BNnVrCAL8R6Tjy3L9f6/C
-----END CERTIFICATE-----
