Certificate:
    Data:
        Version: 3 (0x2)
        Serial Number: 100 (0x64)
    Signature Algorithm: sha256WithRSAEncryption
        Issuer: C=US, ST=Washington, L=Seattle, O=wolfSSL Inc., OU=Engineering, CN=chainG-ICA2-pathlen1/emailAddress=info@wolfssl.com
        Validity
            Not Before: Feb 10 19:49:54 2021 GMT
            Not After : Nov  7 19:49:54 2023 GMT
        Subject: C=US, ST=Washington, L=Seattle, O=wolfSSL Inc., OU=Engineering, CN=chainG-ICA1-pathlen0/emailAddress=info@wolfssl.com
        Subject Public Key Info:
            Public Key Algorithm: rsaEncryption
                Public-Key: (2048 bit)
                Modulus:
                    00:d2:26:be:51:98:42:e0:1f:ae:fc:c2:cb:ba:d5:
                    0f:44:3b:0b:60:d8:49:ec:03:43:6b:06:ce:f2:28:
                    19:fb:48:9c:0b:5c:7f:00:a3:22:9f:bc:e9:2a:5b:
                    e4:e1:16:d8:9c:b9:c3:0b:30:e3:1c:83:7d:c0:b9:
                    a4:3f:da:38:ec:8b:38:be:45:c4:a7:1d:c1:68:18:
                    28:19:b0:f2:93:06:3a:bd:23:67:aa:05:89:31:3b:
                    c2:b4:5e:b3:12:cb:3b:f3:9c:d6:df:4c:ed:cb:42:
                    1b:25:80:2d:ab:c4:67:8f:a5:ff:da:6c:f1:18:fd:
                    a1:98:8c:d8:1f:67:6c:28:c7:cb:4e:bb:b0:27:ea:
                    25:b1:5d:73:d0:2a:e9:44:50:b9:f5:65:64:e6:cf:
                    3d:92:d8:c0:6d:ed:96:8e:e2:d3:84:70:d0:db:fe:
                    70:63:44:fa:f8:db:35:d1:95:ad:18:95:21:64:ce:
                    e2:23:7e:5e:6c:2f:ef:a7:63:fe:82:4a:cb:cc:23:
                    cf:9d:26:a5:66:ed:9c:06:7e:70:76:03:72:99:db:
                    fa:be:a5:c3:38:8b:40:24:c1:6b:d7:9c:bb:27:86:
                    22:a9:62:e0:b2:bd:e7:b5:e4:81:ea:64:db:18:16:
                    24:62:81:6c:a8:f2:83:3f:af:3b:b5:fd:b0:d8:84:
                    b2:21
                Exponent: 65537 (0x10001)
        X509v3 extensions:
            X509v3 Subject Key Identifier: 
                47:C0:19:4B:ED:C4:DA:97:B1:60:EA:5A:0A:42:6D:A5:D3:D8:25:31
            X509v3 Authority Key Identifier: 
                keyid:E1:E6:9B:28:CF:FD:AB:45:C1:B7:A7:C4:C9:58:FC:41:E3:1A:5C:74
                DirName:/C=US/ST=Washington/L=Seattle/O=wolfSSL Inc./OU=Engineering/CN=chainG-ICA3-pathlen99/emailAddress=info@wolfssl.com
                serial:64

            X509v3 Basic Constraints: 
                CA:TRUE, pathlen:0
            X509v3 Key Usage: 
                Certificate Sign, CRL Sign
    Signature Algorithm: sha256WithRSAEncryption
         8c:c9:7e:79:a8:29:4e:81:7f:e2:78:bc:91:6c:33:08:67:01:
         d0:76:f6:51:04:ad:a2:34:4d:59:4f:ab:b7:e5:80:60:01:1e:
         16:20:60:a9:ef:a5:27:01:36:7a:20:1d:76:1f:fb:ef:fc:7f:
         00:b0:96:d0:41:c8:d8:f0:1c:de:dc:c8:0b:09:57:85:f4:2b:
         8e:49:76:6b:32:ea:0d:87:79:15:63:80:ec:0a:f2:3e:7e:e1:
         ec:71:ee:32:57:77:9b:85:a7:fb:3b:1c:b9:be:59:d4:14:f8:
         84:63:a8:f9:46:1a:18:4b:18:9c:08:90:4f:7d:ba:ec:4c:b5:
         e8:a9:65:81:fa:ac:8c:2c:77:09:78:a7:44:7b:18:01:93:e6:
         bb:f5:ed:40:90:04:b3:78:b7:dd:70:9b:c6:bd:a3:58:a9:a7:
         57:f9:e5:0d:1f:ad:87:04:ca:d5:45:62:5c:4f:fa:9e:d4:19:
         83:0a:73:5f:f6:c2:65:7d:6e:96:6e:f6:66:3b:8d:90:0a:28:
         0a:89:17:2f:12:ba:3a:da:6a:0d:21:f8:04:44:ae:bf:49:eb:
         98:00:c6:cb:c3:5a:01:2a:de:74:39:99:43:34:98:94:76:dc:
         cb:e3:96:10:3b:08:15:0e:60:8d:0c:95:99:68:a4:38:cf:1f:
         5a:9f:7f:97
-----BEGIN CERTIFICATE-----
MIIE1DCCA7ygAwIBAgIBZDANBgkqhkiG9w0BAQsFADCBoTELMAkGA1UEBhMCVVMx
EzARBgNVBAgMCldhc2hpbmd0b24xEDAOBgNVBAcMB1NlYXR0bGUxFTATBgNVBAoM
DHdvbGZTU0wgSW5jLjEUMBIGA1UECwwLRW5naW5lZXJpbmcxHTAbBgNVBAMMFGNo
YWluRy1JQ0EyLXBhdGhsZW4xMR8wHQYJKoZIhvcNAQkBFhBpbmZvQHdvbGZzc2wu
Y29tMB4XDTIxMDIxMDE5NDk1NFoXDTIzMTEwNzE5NDk1NFowgaExCzAJBgNVBAYT
AlVTMRMwEQYDVQQIDApXYXNoaW5ndG9uMRAwDgYDVQQHDAdTZWF0dGxlMRUwEwYD
VQQKDAx3b2xmU1NMIEluYy4xFDASBgNVBAsMC0VuZ2luZWVyaW5nMR0wGwYDVQQD
DBRjaGFpbkctSUNBMS1wYXRobGVuMDEfMB0GCSqGSIb3DQEJARYQaW5mb0B3b2xm
c3NsLmNvbTCCASIwDQYJKoZIhvcNAQEBBQADggEPADCCAQoCggEBANImvlGYQuAf
rvzCy7rVD0Q7C2DYSewDQ2sGzvIoGftInAtcfwCjIp+86Spb5OEW2Jy5wwsw4xyD
fcC5pD/aOOyLOL5FxKcdwWgYKBmw8pMGOr0jZ6oFiTE7wrResxLLO/Oc1t9M7ctC
GyWALavEZ4+l/9ps8Rj9oZiM2B9nbCjHy067sCfqJbFdc9Aq6URQufVlZObPPZLY
wG3tlo7i04Rw0Nv+cGNE+vjbNdGVrRiVIWTO4iN+Xmwv76dj/oJKy8wjz50mpWbt
nAZ+cHYDcpnb+r6lwziLQCTBa9ecuyeGIqli4LK957Xkgepk2xgWJGKBbKjygz+v
O7X9sNiEsiECAwEAAaOCARMwggEPMB0GA1UdDgQWBBRHwBlL7cTal7Fg6loKQm2l
09glMTCBzwYDVR0jBIHHMIHEgBTh5psoz/2rRcG3p8TJWPxB4xpcdKGBqKSBpTCB
ojELMAkGA1UEBhMCVVMxEzARBgNVBAgMCldhc2hpbmd0b24xEDAOBgNVBAcMB1Nl
YXR0bGUxFTATBgNVBAoMDHdvbGZTU0wgSW5jLjEUMBIGA1UECwwLRW5naW5lZXJp
bmcxHjAcBgNVBAMMFWNoYWluRy1JQ0EzLXBhdGhsZW45OTEfMB0GCSqGSIb3DQEJ
ARYQaW5mb0B3b2xmc3NsLmNvbYIBZDAPBgNVHRMECDAGAQH/AgEAMAsGA1UdDwQE
AwIBBjANBgkqhkiG9w0BAQsFAAOCAQEAjMl+eagpToF/4ni8kWwzCGcB0Hb2UQSt
ojRNWU+rt+WAYAEeFiBgqe+lJwE2eiAddh/77/x/ALCW0EHI2PAc3tzICwlXhfQr
jkl2azLqDYd5FWOA7AryPn7h7HHuMld3m4Wn+zscub5Z1BT4hGOo+UYaGEsYnAiQ
T3267Ey16KllgfqsjCx3CXinRHsYAZPmu/XtQJAEs3i33XCbxr2jWKmnV/nlDR+t
hwTK1UViXE/6ntQZgwpzX/bCZX1ulm72ZjuNkAooCokXLxK6OtpqDSH4BESuv0nr
mADGy8NaASredDmZQzSYlHbcy+OWEDsIFQ5gjQyVmWikOM8fWp9/lw==
-----END CERTIFICATE-----
