Certificate:
    Data:
        Version: 3 (0x2)
        Serial Number: 100 (0x64)
        Signature Algorithm: sha256WithRSAEncryption
        Issuer: C = US, ST = Washington, L = Seattle, O = wolfSSL Inc., OU = Engineering, CN = chainG-ICA7-pathlen100, emailAddress = info@wolfssl.com
        Validity
            Not Before: Dec 20 23:07:25 2021 GMT
            Not After : Sep 15 23:07:25 2024 GMT
        Subject: C = US, ST = Washington, L = Seattle, O = wolfSSL Inc., OU = Engineering, CN = chainG-ICA6-pathlen10, emailAddress = info@wolfssl.com
        Subject Public Key Info:
            Public Key Algorithm: rsaEncryption
                RSA Public-Key: (2048 bit)
                Modulus:
                    00:e1:4f:c9:e7:30:ea:06:ff:65:cb:2b:6c:f1:a8:
                    ac:f6:cf:10:6b:80:7a:af:5e:42:0a:0d:61:be:6f:
                    14:3c:9f:64:6e:96:46:77:e2:64:a0:0e:d7:56:41:
                    fc:5b:e6:fe:49:86:1f:8f:20:cc:4b:ec:3a:f1:46:
                    74:1a:7e:33:d9:aa:d5:e2:78:09:dd:0c:39:20:7e:
                    32:12:96:cd:96:db:10:01:e8:b7:aa:e3:e1:27:5d:
                    0a:8f:99:6e:ef:2d:d8:c8:c8:76:aa:d9:00:9d:48:
                    d9:cf:12:08:97:31:59:c0:4f:a3:e0:ee:5c:a1:35:
                    ef:94:7c:c6:04:aa:3e:34:a6:43:e0:c8:ed:3d:91:
                    53:53:9e:19:03:8e:bf:30:fd:d9:b5:4b:f3:51:0b:
                    60:ed:27:e2:b1:dd:15:3c:b0:5f:25:0f:29:9b:5f:
                    aa:31:64:5e:3d:83:2e:b8:20:66:b9:da:a7:b5:22:
                    40:19:3d:24:5d:c3:e7:dd:b6:6b:16:c3:67:23:5d:
                    31:65:3b:cb:72:d1:a7:c8:b0:e0:b9:a2:cb:90:86:
                    30:d6:ce:7f:9c:b3:b1:c3:34:62:63:c6:b9:66:33:
                    6b:5b:a6:00:bb:45:ee:03:07:96:a5:d7:2f:1e:f1:
                    d2:f2:5e:c2:d2:a1:36:25:f0:7a:70:cb:3d:1d:a4:
                    6f:61
                Exponent: 65537 (0x10001)
        X509v3 extensions:
            X509v3 Subject Key Identifier: 
                14:07:E8:A7:3A:A2:9C:DD:4C:30:B0:4D:F0:00:C4:88:C4:39:DF:73
            X509v3 Authority Key Identifier: 
                keyid:12:E4:A4:19:85:AE:85:B7:D6:EB:63:04:D5:B9:B0:7E:57:5F:0C:16
                DirName:/C=US/ST=Montana/L=Bozeman/O=Sawtooth/OU=Consulting/CN=www.wolfssl.com/emailAddress=info@wolfssl.com
                serial:64

            X509v3 Basic Constraints: 
                CA:TRUE, pathlen:10
            X509v3 Key Usage: 
                Certificate Sign, CRL Sign
    Signature Algorithm: sha256WithRSAEncryption
         33:53:88:2d:1e:0e:04:6c:69:d4:b6:08:23:73:d1:31:02:7b:
         a2:ed:ce:c6:58:8e:6a:fd:0e:1e:c7:73:8e:0e:b5:46:02:15:
         c3:55:bf:96:8d:a7:cf:f3:3b:80:d9:8c:5d:a8:df:4e:f2:63:
         e0:9b:04:8c:76:f5:fc:a7:7e:43:e9:da:a5:9a:31:3e:ae:a3:
         f7:ae:20:14:e2:f8:a0:a0:18:74:2e:95:f7:30:24:b3:28:10:
         7f:85:23:e7:6c:5d:9d:e5:a3:f0:75:63:a6:ae:62:aa:7b:3d:
         e3:c9:27:4a:35:29:85:83:9a:ac:c0:f8:21:1e:8b:c4:b9:90:
         2e:83:6a:07:de:4c:3a:24:2a:2b:32:33:8d:85:d9:e1:97:a0:
         ae:8c:ae:10:f2:77:87:f6:73:7a:21:0f:4a:6b:7a:8e:82:bc:
         85:10:78:12:37:7c:ab:46:3c:78:32:bf:7a:1c:85:7c:b9:81:
         e0:b8:32:41:c9:af:db:f6:3c:8c:5d:01:f2:8a:d2:0c:42:1c:
         d2:05:ee:f1:a5:1a:42:d6:c5:d9:93:38:e0:f6:d3:25:55:6b:
         81:4a:1e:10:68:6a:29:d9:59:49:14:b9:84:46:99:c5:d6:fc:
         c7:ec:75:38:30:08:5a:58:96:cf:3c:43:6b:73:21:1d:f6:d8:
         01:2d:28:5a
-----BEGIN CERTIFICATE-----
MIIEyTCCA7GgAwIBAgIBZDANBgkqhkiG9w0BAQsFADCBozELMAkGA1UEBhMCVVMx
EzARBgNVBAgMCldhc2hpbmd0b24xEDAOBgNVBAcMB1NlYXR0bGUxFTATBgNVBAoM
DHdvbGZTU0wgSW5jLjEUMBIGA1UECwwLRW5naW5lZXJpbmcxHzAdBgNVBAMMFmNo
YWluRy1JQ0E3LXBhdGhsZW4xMDAxHzAdBgkqhkiG9w0BCQEWEGluZm9Ad29sZnNz
bC5jb20wHhcNMjExMjIwMjMwNzI1WhcNMjQwOTE1MjMwNzI1WjCBojELMAkGA1UE
BhMCVVMxEzARBgNVBAgMCldhc2hpbmd0b24xEDAOBgNVBAcMB1NlYXR0bGUxFTAT
BgNVBAoMDHdvbGZTU0wgSW5jLjEUMBIGA1UECwwLRW5naW5lZXJpbmcxHjAcBgNV
BAMMFWNoYWluRy1JQ0E2LXBhdGhsZW4xMDEfMB0GCSqGSIb3DQEJARYQaW5mb0B3
b2xmc3NsLmNvbTCCASIwDQYJKoZIhvcNAQEBBQADggEPADCCAQoCggEBAOFPyecw
6gb/ZcsrbPGorPbPEGuAeq9eQgoNYb5vFDyfZG6WRnfiZKAO11ZB/Fvm/kmGH48g
zEvsOvFGdBp+M9mq1eJ4Cd0MOSB+MhKWzZbbEAHot6rj4SddCo+Zbu8t2MjIdqrZ
AJ1I2c8SCJcxWcBPo+DuXKE175R8xgSqPjSmQ+DI7T2RU1OeGQOOvzD92bVL81EL
YO0n4rHdFTywXyUPKZtfqjFkXj2DLrggZrnap7UiQBk9JF3D5922axbDZyNdMWU7
y3LRp8iw4Lmiy5CGMNbOf5yzscM0YmPGuWYza1umALtF7gMHlqXXLx7x0vJewtKh
NiXwenDLPR2kb2ECAwEAAaOCAQUwggEBMB0GA1UdDgQWBBQUB+inOqKc3UwwsE3w
AMSIxDnfczCBwQYDVR0jBIG5MIG2gBQS5KQZha6Ft9brYwTVubB+V18MFqGBmqSB
lzCBlDELMAkGA1UEBhMCVVMxEDAOBgNVBAgMB01vbnRhbmExEDAOBgNVBAcMB0Jv
emVtYW4xETAPBgNVBAoMCFNhd3Rvb3RoMRMwEQYDVQQLDApDb25zdWx0aW5nMRgw
FgYDVQQDDA93d3cud29sZnNzbC5jb20xHzAdBgkqhkiG9w0BCQEWEGluZm9Ad29s
ZnNzbC5jb22CAWQwDwYDVR0TBAgwBgEB/wIBCjALBgNVHQ8EBAMCAQYwDQYJKoZI
hvcNAQELBQADggEBADNTiC0eDgRsadS2CCNz0TECe6LtzsZYjmr9Dh7Hc44OtUYC
FcNVv5aNp8/zO4DZjF2o307yY+CbBIx29fynfkPp2qWaMT6uo/euIBTi+KCgGHQu
lfcwJLMoEH+FI+dsXZ3lo/B1Y6auYqp7PePJJ0o1KYWDmqzA+CEei8S5kC6Dagfe
TDokKisyM42F2eGXoK6MrhDyd4f2c3ohD0preo6CvIUQeBI3fKtGPHgyv3ochXy5
geC4MkHJr9v2PIxdAfKK0gxCHNIF7vGlGkLWxdmTOOD20yVVa4FKHhBoainZWUkU
uYRGmcXW/MfsdTgwCFpYls88Q2tzIR322AEtKFo=
-----END CERTIFICATE-----
