Certificate:
    Data:
        Version: 3 (0x2)
        Serial Number: 101 (0x65)
    Signature Algorithm: sha256WithRSAEncryption
        Issuer: C=US, ST=Washington, L=Seattle, O=wolfSSL Inc., OU=Engineering, CN=chainH-ICA1-pathlen0/emailAddress=info@wolfssl.com
        Validity
            Not Before: Feb 10 19:49:55 2021 GMT
            Not After : Nov  7 19:49:55 2023 GMT
        Subject: C=US, ST=Washington, L=Seattle, O=wolfSSL Inc., OU=Engineering, CN=chainH-entity/emailAddress=info@wolfssl.com
        Subject Public Key Info:
            Public Key Algorithm: rsaEncryption
                Public-Key: (2048 bit)
                Modulus:
                    00:ba:ed:ab:c0:0d:92:6c:10:e4:50:9f:7c:98:cc:
                    87:fd:28:34:77:c0:58:28:52:2c:28:97:80:ec:78:
                    02:4f:f4:ca:60:f8:1d:e7:6a:04:52:2e:75:85:42:
                    74:76:00:e4:70:84:b8:51:8e:29:2e:7f:b6:ad:df:
                    6d:09:b4:4f:11:54:1e:88:16:e2:0e:af:30:f0:3d:
                    a7:da:9f:4e:0d:94:5b:05:51:9c:cc:05:65:8d:6b:
                    1e:3c:79:5b:26:7e:cb:ae:e9:9a:71:69:92:41:9b:
                    1a:cd:b4:53:0b:fb:2e:40:c4:e3:b1:5e:b8:8b:f8:
                    cf:0a:ec:5f:07:10:18:54:f8:8a:7d:35:97:7a:7a:
                    98:ea:93:2d:1b:e6:44:16:3f:cc:a7:4c:b9:cf:b5:
                    0b:09:47:b3:b8:8e:02:1a:56:69:37:b7:49:a4:59:
                    90:a3:20:88:f3:87:77:e8:39:0d:39:36:a5:56:b3:
                    ec:4b:f3:5e:8b:c2:cd:47:0c:d9:56:ce:32:f7:71:
                    33:db:7f:7d:c6:1e:7e:71:c1:01:06:98:9e:52:98:
                    9d:d7:9d:4a:32:94:3c:5a:42:66:00:ca:e2:a3:35:
                    db:b7:f3:27:0b:9c:fa:1b:99:4b:51:fa:6c:25:90:
                    f5:76:8c:d9:0d:80:8c:ac:61:eb:4d:92:12:6d:5f:
                    12:e5
                Exponent: 65537 (0x10001)
        X509v3 extensions:
            X509v3 Subject Key Identifier: 
                ED:62:FB:8F:91:CB:DE:B0:C8:89:CE:BA:B5:80:A8:47:F1:72:16:05
            X509v3 Authority Key Identifier: 
                keyid:48:80:87:28:EF:E6:28:0F:03:9B:DF:33:48:10:A0:E5:20:B3:69:50
                DirName:/C=US/ST=Washington/L=Seattle/O=wolfSSL Inc./OU=Engineering/CN=chainH-ICA2-pathlen2/emailAddress=info@wolfssl.com
                serial:64

            X509v3 Basic Constraints: 
                CA:FALSE
    Signature Algorithm: sha256WithRSAEncryption
         14:a2:2d:29:5a:25:93:ee:26:f8:bc:57:3b:40:a9:f8:b1:1f:
         73:15:57:e9:9b:1c:0b:ee:97:7d:a5:f1:51:7c:93:9e:ec:d4:
         aa:5d:65:16:20:a2:71:2c:61:32:5d:1e:0d:c2:cd:b2:ba:8b:
         ad:c5:ae:77:1a:e5:ff:72:3f:af:4f:37:0d:8b:2b:00:08:39:
         d4:08:eb:68:0b:42:4f:7d:2a:12:b9:bb:f7:f0:14:48:c4:49:
         44:a9:77:81:34:74:28:b4:bd:6d:ce:0a:ad:d3:72:48:66:d6:
         80:b1:b5:ed:6a:66:11:eb:2a:18:ed:da:67:1e:f8:31:33:77:
         a9:a6:b4:14:8d:ac:2b:a0:46:79:38:75:1c:82:43:e3:d5:10:
         f1:7f:87:44:c2:40:a4:2b:0b:eb:cb:9b:bf:7e:fb:cb:9d:c7:
         86:f8:95:a9:42:ef:58:be:f8:7e:94:51:15:94:57:88:34:60:
         2e:2e:75:d9:20:95:a1:72:eb:87:8c:c3:63:02:7c:f5:17:c9:
         dd:39:06:b0:a8:8b:fb:bf:32:5c:e6:8d:32:4a:9f:b9:ba:19:
         6b:6e:98:36:0a:80:5a:06:9f:6a:7d:68:f6:5c:e7:89:7f:d3:
         32:b8:35:04:91:5a:41:1e:dc:41:fc:63:bd:5a:36:42:25:a7:
         92:8b:2c:a7
-----BEGIN CERTIFICATE-----
MIIEtzCCA5+gAwIBAgIBZTANBgkqhkiG9w0BAQsFADCBoTELMAkGA1UEBhMCVVMx
EzARBgNVBAgMCldhc2hpbmd0b24xEDAOBgNVBAcMB1NlYXR0bGUxFTATBgNVBAoM
DHdvbGZTU0wgSW5jLjEUMBIGA1UECwwLRW5naW5lZXJpbmcxHTAbBgNVBAMMFGNo
YWluSC1JQ0ExLXBhdGhsZW4wMR8wHQYJKoZIhvcNAQkBFhBpbmZvQHdvbGZzc2wu
Y29tMB4XDTIxMDIxMDE5NDk1NVoXDTIzMTEwNzE5NDk1NVowgZoxCzAJBgNVBAYT
AlVTMRMwEQYDVQQIDApXYXNoaW5ndG9uMRAwDgYDVQQHDAdTZWF0dGxlMRUwEwYD
VQQKDAx3b2xmU1NMIEluYy4xFDASBgNVBAsMC0VuZ2luZWVyaW5nMRYwFAYDVQQD
DA1jaGFpbkgtZW50aXR5MR8wHQYJKoZIhvcNAQkBFhBpbmZvQHdvbGZzc2wuY29t
MIIBIjANBgkqhkiG9w0BAQEFAAOCAQ8AMIIBCgKCAQEAuu2rwA2SbBDkUJ98mMyH
/Sg0d8BYKFIsKJeA7HgCT/TKYPgd52oEUi51hUJ0dgDkcIS4UY4pLn+2rd9tCbRP
EVQeiBbiDq8w8D2n2p9ODZRbBVGczAVljWsePHlbJn7LrumacWmSQZsazbRTC/su
QMTjsV64i/jPCuxfBxAYVPiKfTWXenqY6pMtG+ZEFj/Mp0y5z7ULCUezuI4CGlZp
N7dJpFmQoyCI84d36DkNOTalVrPsS/Nei8LNRwzZVs4y93Ez2399xh5+ccEBBpie
Upid151KMpQ8WkJmAMriozXbt/MnC5z6G5lLUfpsJZD1dozZDYCMrGHrTZISbV8S
5QIDAQABo4H+MIH7MB0GA1UdDgQWBBTtYvuPkcvesMiJzrq1gKhH8XIWBTCBzgYD
VR0jBIHGMIHDgBRIgIco7+YoDwOb3zNIEKDlILNpUKGBp6SBpDCBoTELMAkGA1UE
BhMCVVMxEzARBgNVBAgMCldhc2hpbmd0b24xEDAOBgNVBAcMB1NlYXR0bGUxFTAT
BgNVBAoMDHdvbGZTU0wgSW5jLjEUMBIGA1UECwwLRW5naW5lZXJpbmcxHTAbBgNV
BAMMFGNoYWluSC1JQ0EyLXBhdGhsZW4yMR8wHQYJKoZIhvcNAQkBFhBpbmZvQHdv
bGZzc2wuY29tggFkMAkGA1UdEwQCMAAwDQYJKoZIhvcNAQELBQADggEBABSiLSla
JZPuJvi8VztAqfixH3MVV+mbHAvul32l8VF8k57s1KpdZRYgonEsYTJdHg3CzbK6
i63Frnca5f9yP69PNw2LKwAIOdQI62gLQk99KhK5u/fwFEjESUSpd4E0dCi0vW3O
Cq3Tckhm1oCxte1qZhHrKhjt2mce+DEzd6mmtBSNrCugRnk4dRyCQ+PVEPF/h0TC
QKQrC+vLm79++8udx4b4lalC71i++H6UURWUV4g0YC4uddkglaFy64eMw2MCfPUX
yd05BrCoi/u/MlzmjTJKn7m6GWtumDYKgFoGn2p9aPZc54l/0zK4NQSRWkEe3EH8
Y71aNkIlp5KLLKc=
-----END CERTIFICATE-----
Certificate:
    Data:
        Version: 3 (0x2)
        Serial Number: 100 (0x64)
    Signature Algorithm: sha256WithRSAEncryption
        Issuer: C=US, ST=Washington, L=Seattle, O=wolfSSL Inc., OU=Engineering, CN=chainH-ICA2-pathlen2/emailAddress=info@wolfssl.com
        Validity
            Not Before: Feb 10 19:49:55 2021 GMT
            Not After : Nov  7 19:49:55 2023 GMT
        Subject: C=US, ST=Washington, L=Seattle, O=wolfSSL Inc., OU=Engineering, CN=chainH-ICA1-pathlen0/emailAddress=info@wolfssl.com
        Subject Public Key Info:
            Public Key Algorithm: rsaEncryption
                Public-Key: (2048 bit)
                Modulus:
                    00:c7:f4:a6:7e:f2:cb:4f:6e:04:18:d3:53:d5:cf:
                    bf:7e:97:d1:74:94:fe:db:ad:61:3f:12:20:67:f3:
                    10:83:7b:51:43:a3:0c:20:b7:35:63:f1:0a:ee:59:
                    74:82:72:fb:d1:d4:12:71:ec:0e:8f:69:c9:fb:af:
                    a7:2f:c4:3b:2c:66:34:ab:ac:80:c2:6d:4a:0e:54:
                    fe:f6:3e:3a:00:25:84:a7:cb:42:d5:e8:47:04:94:
                    e4:68:c3:f5:32:ad:21:89:d8:5e:f9:88:ee:7d:ce:
                    91:a3:16:fc:87:76:1f:2f:1d:4c:b1:2f:3d:4d:f4:
                    0a:6c:04:fd:49:cf:51:88:49:c4:03:65:63:1e:c8:
                    f1:34:1d:44:34:58:af:f5:ec:90:2a:8c:a9:38:7b:
                    dc:fa:5f:ed:00:ed:08:53:4d:f7:36:10:ed:71:41:
                    aa:e3:bf:e8:5d:ee:4e:36:39:57:7e:f4:fd:c3:f7:
                    8a:52:0f:f1:37:72:2b:ae:90:77:00:d6:7c:ec:ec:
                    ee:8d:f8:4b:fb:39:0a:45:49:81:31:41:3f:a9:bb:
                    7b:1c:8a:cf:31:09:c7:94:a7:70:4a:d4:bb:ea:61:
                    3d:9a:a1:8e:1b:8b:02:3b:1f:1f:c4:85:e9:7f:63:
                    0c:ea:e5:91:83:a8:5b:25:34:7c:a8:68:eb:97:6f:
                    74:99
                Exponent: 65537 (0x10001)
        X509v3 extensions:
            X509v3 Subject Key Identifier: 
                48:80:87:28:EF:E6:28:0F:03:9B:DF:33:48:10:A0:E5:20:B3:69:50
            X509v3 Authority Key Identifier: 
                keyid:80:49:61:8C:1D:13:08:56:B5:42:68:D5:B2:EA:89:2C:B4:8B:05:87
                DirName:/C=US/ST=Washington/L=Seattle/O=wolfSSL Inc./OU=Engineering/CN=chainH-ICA3-pathlen2/emailAddress=info@wolfssl.com
                serial:64

            X509v3 Basic Constraints: 
                CA:TRUE, pathlen:0
            X509v3 Key Usage: 
                Certificate Sign, CRL Sign
    Signature Algorithm: sha256WithRSAEncryption
         9f:9b:2c:00:4d:4c:62:f6:75:de:56:fe:15:df:1e:74:11:1c:
         33:0e:84:40:04:4a:d3:9b:20:3a:1c:b2:c0:20:2f:71:f5:d6:
         f6:71:f3:a9:9e:f3:a3:e3:0f:fe:d8:97:24:bc:18:0b:54:38:
         d2:e5:d4:1d:74:d3:f9:19:a1:e5:5d:7e:61:bb:fb:cd:8b:aa:
         8b:dc:9a:47:5a:ed:e3:57:46:a7:cc:32:5e:71:1d:9b:2b:ad:
         a1:60:43:b3:be:80:31:a1:7d:2a:ab:a7:d8:3a:b5:62:95:c5:
         31:24:87:30:1f:fc:41:72:d7:b0:99:df:6c:b5:4c:14:dc:d9:
         4b:0b:a0:90:8b:11:a6:e5:4d:43:17:54:db:a7:4b:fe:1e:65:
         37:f2:1d:f3:6d:f0:6d:1e:13:d3:d0:a9:0c:39:f5:34:07:51:
         d2:19:f2:8e:a9:51:77:c7:b0:69:05:dc:44:66:0e:25:e6:78:
         9f:4c:4a:8d:c9:f4:66:4a:e4:60:fd:fa:13:73:2a:46:ce:3b:
         aa:f2:89:0d:68:68:75:78:d3:f5:a0:c2:72:16:6c:3c:82:bd:
         dd:1c:f7:65:dc:52:00:0e:24:d6:42:df:f5:60:24:9d:06:e6:
         1c:1d:e1:81:23:47:8b:66:a3:c2:49:c1:15:df:13:8b:83:3f:
         89:1d:42:ba
-----BEGIN CERTIFICATE-----
MIIE0zCCA7ugAwIBAgIBZDANBgkqhkiG9w0BAQsFADCBoTELMAkGA1UEBhMCVVMx
EzARBgNVBAgMCldhc2hpbmd0b24xEDAOBgNVBAcMB1NlYXR0bGUxFTATBgNVBAoM
DHdvbGZTU0wgSW5jLjEUMBIGA1UECwwLRW5naW5lZXJpbmcxHTAbBgNVBAMMFGNo
YWluSC1JQ0EyLXBhdGhsZW4yMR8wHQYJKoZIhvcNAQkBFhBpbmZvQHdvbGZzc2wu
Y29tMB4XDTIxMDIxMDE5NDk1NVoXDTIzMTEwNzE5NDk1NVowgaExCzAJBgNVBAYT
AlVTMRMwEQYDVQQIDApXYXNoaW5ndG9uMRAwDgYDVQQHDAdTZWF0dGxlMRUwEwYD
VQQKDAx3b2xmU1NMIEluYy4xFDASBgNVBAsMC0VuZ2luZWVyaW5nMR0wGwYDVQQD
DBRjaGFpbkgtSUNBMS1wYXRobGVuMDEfMB0GCSqGSIb3DQEJARYQaW5mb0B3b2xm
c3NsLmNvbTCCASIwDQYJKoZIhvcNAQEBBQADggEPADCCAQoCggEBAMf0pn7yy09u
BBjTU9XPv36X0XSU/tutYT8SIGfzEIN7UUOjDCC3NWPxCu5ZdIJy+9HUEnHsDo9p
yfuvpy/EOyxmNKusgMJtSg5U/vY+OgAlhKfLQtXoRwSU5GjD9TKtIYnYXvmI7n3O
kaMW/Id2Hy8dTLEvPU30CmwE/UnPUYhJxANlYx7I8TQdRDRYr/XskCqMqTh73Ppf
7QDtCFNN9zYQ7XFBquO/6F3uTjY5V370/cP3ilIP8TdyK66QdwDWfOzs7o34S/s5
CkVJgTFBP6m7exyKzzEJx5SncErUu+phPZqhjhuLAjsfH8SF6X9jDOrlkYOoWyU0
fKho65dvdJkCAwEAAaOCARIwggEOMB0GA1UdDgQWBBRIgIco7+YoDwOb3zNIEKDl
ILNpUDCBzgYDVR0jBIHGMIHDgBSASWGMHRMIVrVCaNWy6okstIsFh6GBp6SBpDCB
oTELMAkGA1UEBhMCVVMxEzARBgNVBAgMCldhc2hpbmd0b24xEDAOBgNVBAcMB1Nl
YXR0bGUxFTATBgNVBAoMDHdvbGZTU0wgSW5jLjEUMBIGA1UECwwLRW5naW5lZXJp
bmcxHTAbBgNVBAMMFGNoYWluSC1JQ0EzLXBhdGhsZW4yMR8wHQYJKoZIhvcNAQkB
FhBpbmZvQHdvbGZzc2wuY29tggFkMA8GA1UdEwQIMAYBAf8CAQAwCwYDVR0PBAQD
AgEGMA0GCSqGSIb3DQEBCwUAA4IBAQCfmywATUxi9nXeVv4V3x50ERwzDoRABErT
myA6HLLAIC9x9db2cfOpnvOj4w/+2JckvBgLVDjS5dQddNP5GaHlXX5hu/vNi6qL
3JpHWu3jV0anzDJecR2bK62hYEOzvoAxoX0qq6fYOrVilcUxJIcwH/xBctewmd9s
tUwU3NlLC6CQixGm5U1DF1Tbp0v+HmU38h3zbfBtHhPT0KkMOfU0B1HSGfKOqVF3
x7BpBdxEZg4l5nifTEqNyfRmSuRg/foTcypGzjuq8okNaGh1eNP1oMJyFmw8gr3d
HPdl3FIADiTWQt/1YCSdBuYcHeGBI0eLZqPCScEV3xOLgz+JHUK6
-----END CERTIFICATE-----
Certificate:
    Data:
        Version: 3 (0x2)
        Serial Number: 100 (0x64)
    Signature Algorithm: sha256WithRSAEncryption
        Issuer: C=US, ST=Washington, L=Seattle, O=wolfSSL Inc., OU=Engineering, CN=chainH-ICA3-pathlen2/emailAddress=info@wolfssl.com
        Validity
            Not Before: Feb 10 19:49:55 2021 GMT
            Not After : Nov  7 19:49:55 2023 GMT
        Subject: C=US, ST=Washington, L=Seattle, O=wolfSSL Inc., OU=Engineering, CN=chainH-ICA2-pathlen2/emailAddress=info@wolfssl.com
        Subject Public Key Info:
            Public Key Algorithm: rsaEncryption
                Public-Key: (2048 bit)
                Modulus:
                    00:d9:b5:af:4b:ba:83:03:23:df:50:28:a8:c2:0c:
                    2c:f0:04:cb:2d:04:9b:1e:f5:f4:68:bc:d4:8e:b4:
                    cd:46:04:a2:f5:14:9e:3e:33:d6:76:2d:54:f9:d5:
                    41:b5:7a:47:93:1a:54:80:a4:3d:8b:9d:80:ea:1c:
                    3a:3a:bb:d1:d4:b6:f1:f2:a3:bd:9e:5d:b8:85:01:
                    d7:c8:a0:27:f6:67:41:94:c5:95:91:11:cb:96:fc:
                    95:a9:bc:b5:be:58:77:5c:2b:9b:e9:24:7e:8b:6e:
                    10:a7:d5:3a:fa:05:21:27:14:d8:d2:5f:a2:58:12:
                    b4:d9:bd:88:1a:f1:e7:4c:9d:60:31:0b:1f:3f:8b:
                    af:3a:d9:ca:cf:d4:73:1b:b8:b0:3d:d5:96:5d:4e:
                    a3:62:8f:56:eb:3d:4c:f0:21:4f:f4:8c:c7:55:dd:
                    a6:dc:d9:15:a1:12:db:73:4d:bf:18:89:42:92:0e:
                    83:be:4f:aa:ee:8f:a8:ef:a1:27:01:73:16:29:c0:
                    e8:8c:23:c8:ff:95:68:cd:53:67:49:e5:73:b1:ec:
                    62:60:51:20:e8:a6:49:28:f5:2b:16:30:e8:8b:a6:
                    2f:f4:b7:37:99:8c:32:30:97:5d:16:bf:6b:5e:ba:
                    34:1f:d6:1b:2e:fc:79:f0:00:61:aa:a0:7a:2f:7b:
                    d2:83
                Exponent: 65537 (0x10001)
        X509v3 extensions:
            X509v3 Subject Key Identifier: 
                80:49:61:8C:1D:13:08:56:B5:42:68:D5:B2:EA:89:2C:B4:8B:05:87
            X509v3 Authority Key Identifier: 
                keyid:56:54:36:BE:23:2F:20:89:6D:A6:BA:9A:45:A4:88:0E:40:35:FD:F5
                DirName:/C=US/ST=Washington/L=Seattle/O=wolfSSL Inc./OU=Engineering/CN=chainH-ICA4-pathlen2/emailAddress=info@wolfssl.com
                serial:64

            X509v3 Basic Constraints: 
                CA:TRUE, pathlen:2
            X509v3 Key Usage: 
                Certificate Sign, CRL Sign
    Signature Algorithm: sha256WithRSAEncryption
         19:a6:e8:27:a0:39:d2:86:54:63:76:85:91:3d:3d:97:65:4f:
         e2:96:f1:cb:64:7b:07:b3:b4:3a:09:f0:8d:9f:cb:9c:6f:ab:
         cc:69:4a:3d:b4:26:01:c0:37:a3:23:56:a0:99:51:9d:a3:33:
         23:58:65:bc:8b:08:be:52:62:ef:8e:74:ed:c8:d0:88:ee:b6:
         14:c0:0a:63:f3:03:6c:df:f9:92:4b:b6:53:6c:86:39:3b:31:
         3e:69:b7:ed:ae:0c:df:2f:00:eb:8f:ed:01:ef:94:f4:8d:ca:
         a9:0f:eb:1c:07:1f:56:01:4a:16:69:a0:81:51:a4:08:75:89:
         cf:97:e7:6f:03:77:ed:21:ec:8c:2a:78:4a:8a:73:31:63:c2:
         4f:b8:43:ad:d8:5e:60:3d:1c:7f:89:f0:08:d1:65:9a:7b:be:
         22:fb:74:a9:25:6c:38:c2:f8:66:22:af:37:da:c6:58:99:cc:
         62:c2:44:8e:07:70:9f:64:64:bc:52:54:f6:5e:23:da:b5:84:
         45:d3:4c:00:22:0a:43:f1:4d:f0:50:77:78:fa:01:4c:23:08:
         26:ac:d3:70:99:db:ee:0d:cc:57:aa:27:aa:5f:6d:ed:3b:2a:
         8f:9b:7a:fa:82:e7:f9:41:6d:e4:61:3a:75:2c:4e:f3:2c:7c:
         b9:c2:0f:23
-----BEGIN CERTIFICATE-----
MIIE0zCCA7ugAwIBAgIBZDANBgkqhkiG9w0BAQsFADCBoTELMAkGA1UEBhMCVVMx
EzARBgNVBAgMCldhc2hpbmd0b24xEDAOBgNVBAcMB1NlYXR0bGUxFTATBgNVBAoM
DHdvbGZTU0wgSW5jLjEUMBIGA1UECwwLRW5naW5lZXJpbmcxHTAbBgNVBAMMFGNo
YWluSC1JQ0EzLXBhdGhsZW4yMR8wHQYJKoZIhvcNAQkBFhBpbmZvQHdvbGZzc2wu
Y29tMB4XDTIxMDIxMDE5NDk1NVoXDTIzMTEwNzE5NDk1NVowgaExCzAJBgNVBAYT
AlVTMRMwEQYDVQQIDApXYXNoaW5ndG9uMRAwDgYDVQQHDAdTZWF0dGxlMRUwEwYD
VQQKDAx3b2xmU1NMIEluYy4xFDASBgNVBAsMC0VuZ2luZWVyaW5nMR0wGwYDVQQD
DBRjaGFpbkgtSUNBMi1wYXRobGVuMjEfMB0GCSqGSIb3DQEJARYQaW5mb0B3b2xm
c3NsLmNvbTCCASIwDQYJKoZIhvcNAQEBBQADggEPADCCAQoCggEBANm1r0u6gwMj
31AoqMIMLPAEyy0Emx719Gi81I60zUYEovUUnj4z1nYtVPnVQbV6R5MaVICkPYud
gOocOjq70dS28fKjvZ5duIUB18igJ/ZnQZTFlZERy5b8lam8tb5Yd1wrm+kkfotu
EKfVOvoFIScU2NJfolgStNm9iBrx50ydYDELHz+LrzrZys/Ucxu4sD3Vll1Oo2KP
Vus9TPAhT/SMx1XdptzZFaES23NNvxiJQpIOg75Pqu6PqO+hJwFzFinA6IwjyP+V
aM1TZ0nlc7HsYmBRIOimSSj1KxYw6IumL/S3N5mMMjCXXRa/a166NB/WGy78efAA
Yaqgei970oMCAwEAAaOCARIwggEOMB0GA1UdDgQWBBSASWGMHRMIVrVCaNWy6oks
tIsFhzCBzgYDVR0jBIHGMIHDgBRWVDa+Iy8giW2muppFpIgOQDX99aGBp6SBpDCB
oTELMAkGA1UEBhMCVVMxEzARBgNVBAgMCldhc2hpbmd0b24xEDAOBgNVBAcMB1Nl
YXR0bGUxFTATBgNVBAoMDHdvbGZTU0wgSW5jLjEUMBIGA1UECwwLRW5naW5lZXJp
bmcxHTAbBgNVBAMMFGNoYWluSC1JQ0E0LXBhdGhsZW4yMR8wHQYJKoZIhvcNAQkB
FhBpbmZvQHdvbGZzc2wuY29tggFkMA8GA1UdEwQIMAYBAf8CAQIwCwYDVR0PBAQD
AgEGMA0GCSqGSIb3DQEBCwUAA4IBAQAZpugnoDnShlRjdoWRPT2XZU/ilvHLZHsH
s7Q6CfCNn8ucb6vMaUo9tCYBwDejI1agmVGdozMjWGW8iwi+UmLvjnTtyNCI7rYU
wApj8wNs3/mSS7ZTbIY5OzE+abftrgzfLwDrj+0B75T0jcqpD+scBx9WAUoWaaCB
UaQIdYnPl+dvA3ftIeyMKnhKinMxY8JPuEOt2F5gPRx/ifAI0WWae74i+3SpJWw4
wvhmIq832sZYmcxiwkSOB3CfZGS8UlT2XiPatYRF00wAIgpD8U3wUHd4+gFMIwgm
rNNwmdvuDcxXqieqX23tOyqPm3r6guf5QW3kYTp1LE7zLHy5wg8j
-----END CERTIFICATE-----
Certificate:
    Data:
        Version: 3 (0x2)
        Serial Number: 100 (0x64)
    Signature Algorithm: sha256WithRSAEncryption
        Issuer: C=US, ST=Washington, L=Seattle, O=wolfSSL Inc., OU=Engineering, CN=chainH-ICA4-pathlen2/emailAddress=info@wolfssl.com
        Validity
            Not Before: Feb 10 19:49:55 2021 GMT
            Not After : Nov  7 19:49:55 2023 GMT
        Subject: C=US, ST=Washington, L=Seattle, O=wolfSSL Inc., OU=Engineering, CN=chainH-ICA3-pathlen2/emailAddress=info@wolfssl.com
        Subject Public Key Info:
            Public Key Algorithm: rsaEncryption
                Public-Key: (2048 bit)
                Modulus:
                    00:b7:b3:1a:1b:4a:80:1b:a2:e5:95:14:bc:55:e4:
                    77:dc:f3:7b:8a:9f:34:7c:93:db:c9:c9:d0:8b:b8:
                    87:45:65:d3:a1:7d:46:f3:70:92:a9:d7:66:ef:3b:
                    b4:a8:16:b0:f0:be:67:70:aa:45:7b:09:bc:ca:77:
                    db:57:a4:24:54:0b:1a:da:5f:ad:64:a3:f1:49:83:
                    bc:9f:5d:c4:b4:da:43:04:aa:cc:c3:b0:4d:c2:f1:
                    73:c9:38:0d:4c:c9:ab:db:df:09:b3:5c:15:0b:66:
                    79:ad:6c:63:d1:38:cc:a6:2d:46:83:ce:19:1d:c1:
                    0b:6e:fc:38:b7:d8:8c:a2:6f:29:87:9b:21:cd:b0:
                    6b:e0:f8:1f:03:db:82:1d:8d:98:63:16:b6:74:47:
                    43:20:f2:a1:4b:16:8b:67:fd:bc:73:78:9b:f9:dd:
                    ba:49:d9:60:a9:b7:85:66:7f:a4:2a:05:c8:2d:93:
                    a0:9b:aa:bf:a6:31:e1:f2:c8:d3:1b:7b:79:d1:b6:
                    6c:ae:3b:6b:00:2e:6e:ae:10:dc:6c:88:dc:1b:93:
                    e8:56:99:8d:46:7e:49:3a:87:a0:b3:00:cc:2e:3b:
                    83:e1:6b:39:16:71:47:47:30:6d:6b:6c:9c:9f:e6:
                    ce:ec:20:2f:8f:c1:5d:ef:d3:84:32:6c:a5:cc:78:
                    fe:a1
                Exponent: 65537 (0x10001)
        X509v3 extensions:
            X509v3 Subject Key Identifier: 
                56:54:36:BE:23:2F:20:89:6D:A6:BA:9A:45:A4:88:0E:40:35:FD:F5
            X509v3 Authority Key Identifier: 
                keyid:18:6D:44:83:EE:1F:EC:B4:22:F0:9C:EB:54:1E:4A:15:58:01:AA:13
                DirName:/C=US/ST=Montana/L=Bozeman/O=Sawtooth/OU=Consulting/CN=www.wolfssl.com/emailAddress=info@wolfssl.com
                serial:64

            X509v3 Basic Constraints: 
                CA:TRUE, pathlen:2
            X509v3 Key Usage: 
                Certificate Sign, CRL Sign
    Signature Algorithm: sha256WithRSAEncryption
         31:21:a9:63:af:5f:5d:49:3f:34:d3:19:1b:f9:88:c1:a9:87:
         88:4e:60:9d:72:d3:7f:be:6a:54:73:46:4a:84:7c:ce:8d:7d:
         3b:d5:7d:e9:43:69:35:dc:d8:65:2e:49:5b:cd:10:33:20:40:
         9a:ba:71:64:6e:7a:50:f5:49:82:5f:75:31:66:77:11:d2:78:
         7b:26:ec:ed:12:e0:44:e1:c4:ae:36:d1:ed:f6:40:51:84:14:
         22:2d:7b:23:27:eb:ee:76:b0:84:57:61:46:58:f0:46:74:94:
         36:49:e4:f0:cb:6a:a5:c8:68:db:76:f5:f1:e0:4b:98:18:d7:
         2d:ad:f6:6b:38:f6:af:c1:e5:d9:b0:d4:af:ce:d0:09:af:14:
         99:b1:e9:e7:4c:c2:ea:3a:75:a3:e1:04:20:35:bd:41:e3:73:
         bc:5a:b4:d5:a5:d6:87:c4:89:20:1e:27:98:90:80:81:3f:45:
         10:5d:35:ee:d1:6d:2c:c3:d7:27:35:6b:56:6c:cb:b2:21:b7:
         fc:15:c4:ea:24:84:2e:ba:60:98:ed:7c:0c:93:dc:a7:59:d7:
         b5:d2:8a:05:7f:42:f5:bc:0b:92:6c:99:08:eb:8a:30:3b:d8:
         1a:a2:c4:f4:6e:c3:a5:1d:83:a0:40:47:35:0e:21:59:0d:bf:
         8a:be:ae:dd
-----BEGIN CERTIFICATE-----
MIIExjCCA66gAwIBAgIBZDANBgkqhkiG9w0BAQsFADCBoTELMAkGA1UEBhMCVVMx
EzARBgNVBAgMCldhc2hpbmd0b24xEDAOBgNVBAcMB1NlYXR0bGUxFTATBgNVBAoM
DHdvbGZTU0wgSW5jLjEUMBIGA1UECwwLRW5naW5lZXJpbmcxHTAbBgNVBAMMFGNo
YWluSC1JQ0E0LXBhdGhsZW4yMR8wHQYJKoZIhvcNAQkBFhBpbmZvQHdvbGZzc2wu
Y29tMB4XDTIxMDIxMDE5NDk1NVoXDTIzMTEwNzE5NDk1NVowgaExCzAJBgNVBAYT
AlVTMRMwEQYDVQQIDApXYXNoaW5ndG9uMRAwDgYDVQQHDAdTZWF0dGxlMRUwEwYD
VQQKDAx3b2xmU1NMIEluYy4xFDASBgNVBAsMC0VuZ2luZWVyaW5nMR0wGwYDVQQD
DBRjaGFpbkgtSUNBMy1wYXRobGVuMjEfMB0GCSqGSIb3DQEJARYQaW5mb0B3b2xm
c3NsLmNvbTCCASIwDQYJKoZIhvcNAQEBBQADggEPADCCAQoCggEBALezGhtKgBui
5ZUUvFXkd9zze4qfNHyT28nJ0Iu4h0Vl06F9RvNwkqnXZu87tKgWsPC+Z3CqRXsJ
vMp321ekJFQLGtpfrWSj8UmDvJ9dxLTaQwSqzMOwTcLxc8k4DUzJq9vfCbNcFQtm
ea1sY9E4zKYtRoPOGR3BC278OLfYjKJvKYebIc2wa+D4HwPbgh2NmGMWtnRHQyDy
oUsWi2f9vHN4m/nduknZYKm3hWZ/pCoFyC2ToJuqv6Yx4fLI0xt7edG2bK47awAu
bq4Q3GyI3BuT6FaZjUZ+STqHoLMAzC47g+FrORZxR0cwbWtsnJ/mzuwgL4/BXe/T
hDJspcx4/qECAwEAAaOCAQUwggEBMB0GA1UdDgQWBBRWVDa+Iy8giW2muppFpIgO
QDX99TCBwQYDVR0jBIG5MIG2gBQYbUSD7h/stCLwnOtUHkoVWAGqE6GBmqSBlzCB
lDELMAkGA1UEBhMCVVMxEDAOBgNVBAgMB01vbnRhbmExEDAOBgNVBAcMB0JvemVt
YW4xETAPBgNVBAoMCFNhd3Rvb3RoMRMwEQYDVQQLDApDb25zdWx0aW5nMRgwFgYD
VQQDDA93d3cud29sZnNzbC5jb20xHzAdBgkqhkiG9w0BCQEWEGluZm9Ad29sZnNz
bC5jb22CAWQwDwYDVR0TBAgwBgEB/wIBAjALBgNVHQ8EBAMCAQYwDQYJKoZIhvcN
AQELBQADggEBADEhqWOvX11JPzTTGRv5iMGph4hOYJ1y03++alRzRkqEfM6NfTvV
felDaTXc2GUuSVvNEDMgQJq6cWRuelD1SYJfdTFmdxHSeHsm7O0S4EThxK420e32
QFGEFCIteyMn6+52sIRXYUZY8EZ0lDZJ5PDLaqXIaNt29fHgS5gY1y2t9ms49q/B
5dmw1K/O0AmvFJmx6edMwuo6daPhBCA1vUHjc7xatNWl1ofEiSAeJ5iQgIE/RRBd
Ne7RbSzD1yc1a1Zsy7Iht/wVxOokhC66YJjtfAyT3KdZ17XSigV/QvW8C5JsmQjr
ijA72BqixPRuw6Udg6BARzUOIVkNv4q+rt0=
-----END CERTIFICATE-----
Certificate:
    Data:
        Version: 3 (0x2)
        Serial Number: 100 (0x64)
    Signature Algorithm: sha256WithRSAEncryption
        Issuer: C=US, ST=Montana, L=Bozeman, O=Sawtooth, OU=Consulting, CN=www.wolfssl.com/emailAddress=info@wolfssl.com
        Validity
            Not Before: Feb 10 19:49:55 2021 GMT
            Not After : Nov  7 19:49:55 2023 GMT
        Subject: C=US, ST=Washington, L=Seattle, O=wolfSSL Inc., OU=Engineering, CN=chainH-ICA4-pathlen2/emailAddress=info@wolfssl.com
        Subject Public Key Info:
            Public Key Algorithm: rsaEncryption
                Public-Key: (2048 bit)
                Modulus:
                    00:bb:f3:2f:8a:cd:9e:87:f1:01:f3:a4:c0:2d:66:
                    36:d7:11:2e:64:08:e8:f1:99:fa:a6:9c:f4:bd:3b:
                    47:72:d2:0e:58:9d:3e:52:e7:da:a3:43:78:c3:c3:
                    93:e6:04:d3:ab:51:8a:1a:24:0e:7a:62:59:aa:c6:
                    42:9e:66:c1:61:5e:31:b1:4d:dc:37:a9:18:76:8d:
                    fe:cb:09:54:3f:4f:bb:5f:ab:ba:70:e9:b4:a1:5e:
                    a0:69:7e:45:3f:c0:cc:78:e9:f2:74:64:79:c2:6a:
                    16:d0:98:30:82:44:4a:b3:99:2c:66:30:ac:99:82:
                    04:2a:bf:0f:60:89:04:36:fa:29:d3:08:56:61:6a:
                    a8:33:40:9a:53:7d:20:a8:51:6f:9b:a0:d9:3e:dc:
                    9a:8b:1d:37:9e:ad:c9:fd:53:a7:04:dc:1f:36:3e:
                    d3:65:52:84:24:61:d0:4e:e2:41:60:bf:fb:fd:b2:
                    04:b3:3f:eb:14:99:5e:bc:e8:7d:e9:65:d1:3f:fe:
                    04:49:e5:bb:a3:2d:e3:db:96:df:d9:81:a0:32:d7:
                    01:b9:b8:02:8e:b9:a2:1f:0a:d4:24:17:3a:19:0f:
                    6d:3a:10:5f:5c:7d:b8:56:82:c7:7f:40:f0:2d:87:
                    63:c1:b1:d8:64:c7:3c:27:13:4a:63:82:21:b1:f2:
                    39:e9
                Exponent: 65537 (0x10001)
        X509v3 extensions:
            X509v3 Subject Key Identifier: 
                18:6D:44:83:EE:1F:EC:B4:22:F0:9C:EB:54:1E:4A:15:58:01:AA:13
            X509v3 Authority Key Identifier: 
                keyid:27:8E:67:11:74:C3:26:1D:3F:ED:33:63:B3:A4:D8:1D:30:E5:E8:D5
                DirName:/C=US/ST=Montana/L=Bozeman/O=Sawtooth/OU=Consulting/CN=www.wolfssl.com/emailAddress=info@wolfssl.com
                serial:AA:D3:3F:AC:18:0A:37:4D

            X509v3 Basic Constraints: 
                CA:TRUE, pathlen:2
            X509v3 Key Usage: 
                Certificate Sign, CRL Sign
    Signature Algorithm: sha256WithRSAEncryption
         49:c6:df:ce:fc:71:3e:a5:1b:27:1c:e4:9e:bb:04:fa:93:17:
         6d:79:c8:8f:ee:08:6e:59:57:b6:f9:5a:a2:21:1a:3e:a7:a1:
         0c:0d:3f:30:70:57:15:55:4c:95:e4:e1:3e:99:ce:9e:4a:a6:
         c3:56:22:1d:a1:23:bc:fc:25:c8:5a:84:74:a1:0e:dd:70:59:
         a8:36:29:14:bf:ff:ce:c5:6e:12:c4:2d:fb:13:63:66:29:63:
         63:83:f3:ab:a0:7f:12:aa:5c:58:70:3a:9d:ae:26:ec:ec:d3:
         31:07:41:17:cc:14:15:8e:d5:45:49:d8:f2:ec:4d:46:db:2b:
         69:15:c5:99:23:6b:dc:31:c7:d6:53:b3:d2:65:fc:17:f5:19:
         ae:d9:95:aa:1e:9b:1b:cf:18:61:c9:e1:17:d4:fa:d7:e1:a3:
         cf:b5:09:ce:ed:9b:3c:41:c8:88:99:a2:ab:f0:55:86:78:8d:
         07:44:25:c5:23:11:6e:fe:db:92:6f:35:96:ba:a1:01:f9:ab:
         da:d2:29:c8:70:d0:b9:fe:c1:8d:72:67:ec:0a:d0:75:e5:01:
         9d:d3:f9:01:ea:06:27:6f:21:99:e5:46:d8:fc:65:0d:9c:72:
         25:82:1e:f6:43:d6:e8:08:b1:8f:d2:a9:c8:bf:05:ab:5c:80:
         72:6c:ac:a4
-----BEGIN CERTIFICATE-----
MIIEwTCCA6mgAwIBAgIBZDANBgkqhkiG9w0BAQsFADCBlDELMAkGA1UEBhMCVVMx
EDAOBgNVBAgMB01vbnRhbmExEDAOBgNVBAcMB0JvemVtYW4xETAPBgNVBAoMCFNh
d3Rvb3RoMRMwEQYDVQQLDApDb25zdWx0aW5nMRgwFgYDVQQDDA93d3cud29sZnNz
bC5jb20xHzAdBgkqhkiG9w0BCQEWEGluZm9Ad29sZnNzbC5jb20wHhcNMjEwMjEw
MTk0OTU1WhcNMjMxMTA3MTk0OTU1WjCBoTELMAkGA1UEBhMCVVMxEzARBgNVBAgM
Cldhc2hpbmd0b24xEDAOBgNVBAcMB1NlYXR0bGUxFTATBgNVBAoMDHdvbGZTU0wg
SW5jLjEUMBIGA1UECwwLRW5naW5lZXJpbmcxHTAbBgNVBAMMFGNoYWluSC1JQ0E0
LXBhdGhsZW4yMR8wHQYJKoZIhvcNAQkBFhBpbmZvQHdvbGZzc2wuY29tMIIBIjAN
BgkqhkiG9w0BAQEFAAOCAQ8AMIIBCgKCAQEAu/Mvis2eh/EB86TALWY21xEuZAjo
8Zn6ppz0vTtHctIOWJ0+Uufao0N4w8OT5gTTq1GKGiQOemJZqsZCnmbBYV4xsU3c
N6kYdo3+ywlUP0+7X6u6cOm0oV6gaX5FP8DMeOnydGR5wmoW0JgwgkRKs5ksZjCs
mYIEKr8PYIkENvop0whWYWqoM0CaU30gqFFvm6DZPtyaix03nq3J/VOnBNwfNj7T
ZVKEJGHQTuJBYL/7/bIEsz/rFJlevOh96WXRP/4ESeW7oy3j25bf2YGgMtcBubgC
jrmiHwrUJBc6GQ9tOhBfXH24VoLHf0DwLYdjwbHYZMc8JxNKY4IhsfI56QIDAQAB
o4IBDTCCAQkwHQYDVR0OBBYEFBhtRIPuH+y0IvCc61QeShVYAaoTMIHJBgNVHSME
gcEwgb6AFCeOZxF0wyYdP+0zY7Ok2B0w5ejVoYGapIGXMIGUMQswCQYDVQQGEwJV
UzEQMA4GA1UECAwHTW9udGFuYTEQMA4GA1UEBwwHQm96ZW1hbjERMA8GA1UECgwI
U2F3dG9vdGgxEzARBgNVBAsMCkNvbnN1bHRpbmcxGDAWBgNVBAMMD3d3dy53b2xm
c3NsLmNvbTEfMB0GCSqGSIb3DQEJARYQaW5mb0B3b2xmc3NsLmNvbYIJAKrTP6wY
CjdNMA8GA1UdEwQIMAYBAf8CAQIwCwYDVR0PBAQDAgEGMA0GCSqGSIb3DQEBCwUA
A4IBAQBJxt/O/HE+pRsnHOSeuwT6kxdteciP7ghuWVe2+VqiIRo+p6EMDT8wcFcV
VUyV5OE+mc6eSqbDViIdoSO8/CXIWoR0oQ7dcFmoNikUv//OxW4SxC37E2NmKWNj
g/OroH8SqlxYcDqdribs7NMxB0EXzBQVjtVFSdjy7E1G2ytpFcWZI2vcMcfWU7PS
ZfwX9Rmu2ZWqHpsbzxhhyeEX1PrX4aPPtQnO7Zs8QciImaKr8FWGeI0HRCXFIxFu
/tuSbzWWuqEB+ava0inIcNC5/sGNcmfsCtB15QGd0/kB6gYnbyGZ5UbY/GUNnHIl
gh72Q9boCLGP0qnIvwWrXIBybKyk
-----END CERTIFICATE-----
