Certificate:
    Data:
        Version: 3 (0x2)
        Serial Number: 101 (0x65)
        Signature Algorithm: sha256WithRSAEncryption
        Issuer: C=US, ST=Washington, L=Seattle, O=wolfSSL Inc., OU=Engineering, CN=chainD-ICA1-pathlen127, emailAddress=facts@wolfssl.com
        Validity
            Not Before: Jun 11 21:44:38 2026 GMT
            Not After : Mar  7 21:44:38 2029 GMT
        Subject: C=US, ST=Washington, L=Seattle, O=wolfSSL Inc., OU=Engineering, CN=chainD-entity, emailAddress=facts@wolfssl.com
        Subject Public Key Info:
            Public Key Algorithm: rsaEncryption
                Public-Key: (2048 bit)
                Modulus:
                    00:e2:5d:f4:bd:06:b6:a1:21:3a:2d:7f:cc:f2:5a:
                    15:36:28:0a:f2:bb:16:b5:ec:f9:e7:5b:92:ec:17:
                    75:76:89:f4:1b:7c:a9:79:cb:62:4b:55:8a:ca:cc:
                    f9:f0:a9:a2:05:61:ee:d8:8b:d0:5d:c5:49:bc:7d:
                    28:26:7d:3a:22:cc:20:71:55:4c:3a:f7:24:d7:95:
                    ac:ce:18:7d:0d:7b:20:4f:11:a9:7b:02:08:09:e6:
                    85:91:e4:4e:80:b9:a4:76:0f:28:cc:07:f6:f2:be:
                    c1:54:63:d2:b7:81:59:09:0b:c1:bd:0d:27:70:55:
                    c7:5f:bc:54:ee:73:16:7e:d2:b4:4c:df:a8:a9:81:
                    cc:e3:a6:8c:eb:e3:98:49:84:0b:a0:da:f3:e1:5f:
                    32:69:6a:b0:50:69:4f:96:72:04:3f:e7:1c:80:b1:
                    2c:6f:7d:ff:41:f2:bb:0b:17:b7:b5:ce:21:ea:e6:
                    c2:bd:cd:28:08:40:43:04:e5:40:e2:7d:41:35:b5:
                    51:bf:e8:20:01:99:85:a2:38:f1:6e:69:40:da:6e:
                    9f:d3:40:63:89:19:de:4d:49:d2:79:10:b6:2a:bb:
                    6f:66:fa:25:5f:96:c1:e8:38:96:e3:e5:28:28:b4:
                    ca:3c:21:1c:95:cd:b5:5e:50:f1:c9:3e:c2:4c:f2:
                    cb:33
                Exponent: 65537 (0x10001)
        X509v3 extensions:
            X509v3 Subject Key Identifier: 
                58:92:0B:B2:E4:12:D8:A3:31:37:D9:89:F2:9E:6E:62:22:40:42:82
            X509v3 Authority Key Identifier: 
                keyid:67:78:F9:AD:1C:53:41:1F:46:BD:49:9B:73:2E:7C:DC:5C:2D:0B:FB
                DirName:/C=US/ST=Montana/L=Bozeman/O=Sawtooth/OU=Consulting/CN=www.wolfssl.com/emailAddress=facts@wolfssl.com
                serial:64
            X509v3 Basic Constraints: 
                CA:FALSE
    Signature Algorithm: sha256WithRSAEncryption
    Signature Value:
        14:c3:0c:02:b8:06:9c:e8:c6:ff:dc:97:fb:79:0c:28:8c:96:
        df:71:d4:f2:10:9b:a4:9d:79:d9:74:62:8b:0b:62:84:27:59:
        57:2d:f1:d7:96:29:1f:c2:a7:bc:ed:cd:1c:64:a7:16:ad:f6:
        06:2a:97:59:66:d0:cc:45:0c:5c:94:0d:de:e5:f0:2e:bd:6d:
        8a:73:80:00:87:88:31:8f:8b:31:21:d5:ba:a0:c0:93:8c:d8:
        5c:15:db:4d:ba:7c:8e:9b:15:1f:ca:59:56:5f:44:0f:c5:ec:
        51:c8:d7:80:77:60:13:9b:a4:1c:7d:01:7e:2c:4f:a8:6e:60:
        93:d5:21:1e:eb:a5:48:3d:f4:9c:3d:02:4c:9d:7d:e7:1f:6c:
        d0:03:b3:1c:f7:cd:5e:8a:67:93:04:e2:a0:96:b3:50:7e:31:
        aa:43:60:5e:71:a2:3b:80:af:08:39:3c:8d:e0:8d:2a:36:b2:
        3f:b8:c5:fc:c8:7e:86:1b:bd:19:41:cc:ca:64:f7:b1:29:44:
        9b:8e:7f:24:5c:a5:93:27:a3:22:77:5e:ef:bb:5d:b4:f8:f3:
        a4:1e:7d:ac:a2:17:4d:b2:b2:b3:96:f8:28:58:f8:62:5b:58:
        dc:6b:22:3d:f1:28:5c:f9:8f:96:b6:1b:06:b1:bf:0e:76:36:
        f2:a0:e2:08
-----BEGIN CERTIFICATE-----
MIIErzCCA5egAwIBAgIBZTANBgkqhkiG9w0BAQsFADCBpDELMAkGA1UEBhMCVVMx
EzARBgNVBAgMCldhc2hpbmd0b24xEDAOBgNVBAcMB1NlYXR0bGUxFTATBgNVBAoM
DHdvbGZTU0wgSW5jLjEUMBIGA1UECwwLRW5naW5lZXJpbmcxHzAdBgNVBAMMFmNo
YWluRC1JQ0ExLXBhdGhsZW4xMjcxIDAeBgkqhkiG9w0BCQEWEWZhY3RzQHdvbGZz
c2wuY29tMB4XDTI2MDYxMTIxNDQzOFoXDTI5MDMwNzIxNDQzOFowgZsxCzAJBgNV
BAYTAlVTMRMwEQYDVQQIDApXYXNoaW5ndG9uMRAwDgYDVQQHDAdTZWF0dGxlMRUw
EwYDVQQKDAx3b2xmU1NMIEluYy4xFDASBgNVBAsMC0VuZ2luZWVyaW5nMRYwFAYD
VQQDDA1jaGFpbkQtZW50aXR5MSAwHgYJKoZIhvcNAQkBFhFmYWN0c0B3b2xmc3Ns
LmNvbTCCASIwDQYJKoZIhvcNAQEBBQADggEPADCCAQoCggEBAOJd9L0GtqEhOi1/
zPJaFTYoCvK7FrXs+edbkuwXdXaJ9Bt8qXnLYktVisrM+fCpogVh7tiL0F3FSbx9
KCZ9OiLMIHFVTDr3JNeVrM4YfQ17IE8RqXsCCAnmhZHkToC5pHYPKMwH9vK+wVRj
0reBWQkLwb0NJ3BVx1+8VO5zFn7StEzfqKmBzOOmjOvjmEmEC6Da8+FfMmlqsFBp
T5ZyBD/nHICxLG99/0HyuwsXt7XOIermwr3NKAhAQwTlQOJ9QTW1Ub/oIAGZhaI4
8W5pQNpun9NAY4kZ3k1J0nkQtiq7b2b6JV+Wweg4luPlKCi0yjwhHJXNtV5Q8ck+
wkzyyzMCAwEAAaOB8jCB7zAdBgNVHQ4EFgQUWJILsuQS2KMxN9mJ8p5uYiJAQoIw
gcIGA1UdIwSBujCBt4AUZ3j5rRxTQR9GvUmbcy583FwtC/uhgZukgZgwgZUxCzAJ
BgNVBAYTAlVTMRAwDgYDVQQIDAdNb250YW5hMRAwDgYDVQQHDAdCb3plbWFuMREw
DwYDVQQKDAhTYXd0b290aDETMBEGA1UECwwKQ29uc3VsdGluZzEYMBYGA1UEAwwP
d3d3LndvbGZzc2wuY29tMSAwHgYJKoZIhvcNAQkBFhFmYWN0c0B3b2xmc3NsLmNv
bYIBZDAJBgNVHRMEAjAAMA0GCSqGSIb3DQEBCwUAA4IBAQAUwwwCuAac6Mb/3Jf7
eQwojJbfcdTyEJuknXnZdGKLC2KEJ1lXLfHXlikfwqe87c0cZKcWrfYGKpdZZtDM
RQxclA3e5fAuvW2Kc4AAh4gxj4sxIdW6oMCTjNhcFdtNunyOmxUfyllWX0QPxexR
yNeAd2ATm6QcfQF+LE+obmCT1SEe66VIPfScPQJMnX3nH2zQA7Mc981eimeTBOKg
lrNQfjGqQ2BecaI7gK8IOTyN4I0qNrI/uMX8yH6GG70ZQczKZPexKUSbjn8kXKWT
J6Mid17vu120+POkHn2sohdNsrKzlvgoWPhiW1jcayI98Shc+Y+WthsGsb8Odjby
oOII
-----END CERTIFICATE-----
Certificate:
    Data:
        Version: 3 (0x2)
        Serial Number: 100 (0x64)
        Signature Algorithm: sha256WithRSAEncryption
        Issuer: C=US, ST=Montana, L=Bozeman, O=Sawtooth, OU=Consulting, CN=www.wolfssl.com, emailAddress=facts@wolfssl.com
        Validity
            Not Before: Jun 11 21:44:38 2026 GMT
            Not After : Mar  7 21:44:38 2029 GMT
        Subject: C=US, ST=Washington, L=Seattle, O=wolfSSL Inc., OU=Engineering, CN=chainD-ICA1-pathlen127, emailAddress=facts@wolfssl.com
        Subject Public Key Info:
            Public Key Algorithm: rsaEncryption
                Public-Key: (2048 bit)
                Modulus:
                    00:d7:81:78:a9:19:99:12:d1:cf:3d:51:54:1d:d3:
                    14:94:ed:3e:de:ff:e0:23:e4:f7:23:fc:5c:49:24:
                    d8:36:93:e6:2a:ee:a7:ab:c6:8d:c9:ad:40:45:c9:
                    44:06:47:4c:0d:65:09:dd:db:e2:f0:bd:cd:79:1c:
                    ec:d1:8d:de:f2:ff:66:f5:b2:bd:43:cc:58:7f:1d:
                    db:4b:97:a5:83:5c:87:5e:9b:73:87:c8:1d:2b:47:
                    92:55:e4:db:be:51:d5:eb:76:c2:aa:59:72:7b:f6:
                    27:2f:be:c0:db:dc:3c:f2:e2:19:c9:b0:30:bb:2e:
                    a2:95:48:06:bd:8e:9d:bd:8c:6b:5e:c6:9a:73:4b:
                    6c:b0:20:96:47:44:d3:09:6b:6a:2b:fa:86:5f:1d:
                    0b:a7:62:22:72:d5:56:1c:aa:97:8c:ce:57:a3:0f:
                    e6:bc:cd:63:54:55:60:87:50:eb:fa:8c:e9:15:70:
                    b3:5c:4d:0e:27:60:fd:07:6e:8c:ec:3f:a0:25:c5:
                    01:59:a3:fc:2d:80:4b:84:4c:10:b5:c8:a7:6b:b1:
                    e5:c5:c1:9a:b0:d6:4b:30:21:ba:42:65:e0:3f:59:
                    cf:7f:49:4b:3b:cf:62:06:f4:89:ae:5b:81:5d:15:
                    63:fb:7c:29:a6:b5:cf:f3:b5:b5:66:06:4f:a3:da:
                    67:39
                Exponent: 65537 (0x10001)
        X509v3 extensions:
            X509v3 Subject Key Identifier: 
                67:78:F9:AD:1C:53:41:1F:46:BD:49:9B:73:2E:7C:DC:5C:2D:0B:FB
            X509v3 Authority Key Identifier: 
                keyid:27:8E:67:11:74:C3:26:1D:3F:ED:33:63:B3:A4:D8:1D:30:E5:E8:D5
                DirName:/C=US/ST=Montana/L=Bozeman/O=Sawtooth/OU=Consulting/CN=www.wolfssl.com/emailAddress=facts@wolfssl.com
                serial:67:19:D2:A8:7F:E3:2D:FA:75:7A:4F:E7:B2:02:D9:AD:C4:77:5E:F8
            X509v3 Basic Constraints: 
                CA:TRUE, pathlen:127
            X509v3 Key Usage: 
                Certificate Sign, CRL Sign
    Signature Algorithm: sha256WithRSAEncryption
    Signature Value:
        ae:43:b0:0b:64:a3:38:f9:38:ae:30:71:33:14:5d:0d:17:fc:
        f8:47:66:e2:a8:61:8e:03:bb:47:d8:3c:45:4a:3a:cd:73:f4:
        14:82:45:54:d3:8d:1c:34:ed:87:8a:b6:81:20:f9:56:97:9e:
        f7:d1:a6:a3:19:7a:26:ba:7b:17:ca:03:20:50:cc:72:49:2f:
        4b:ba:67:79:50:8b:1c:32:13:5d:e1:6a:3c:0e:f4:cf:cb:e2:
        ff:a7:2b:b2:8f:4f:9d:f3:34:0d:64:4a:91:c5:ed:0f:48:7b:
        92:1c:97:8c:42:cb:46:e8:1f:9b:a2:4b:e5:07:74:f4:08:34:
        e3:71:25:15:48:e2:c9:8f:8d:ff:93:8a:b0:b3:ca:6c:42:9a:
        54:a7:36:92:aa:13:79:de:91:f5:62:06:e8:e6:5d:2d:ab:3e:
        c5:3a:ee:94:a4:32:4e:20:a3:58:21:e5:3b:b1:50:a7:0e:2d:
        22:89:06:34:d3:e9:41:9c:e4:95:2b:bb:03:db:bb:9e:13:21:
        66:2a:06:e2:87:4f:2c:fb:91:87:ea:26:15:fc:68:a2:19:d0:
        86:67:b1:ce:71:3b:d5:42:24:46:92:c3:4a:b5:9a:39:a8:f6:
        52:c4:c1:4e:56:8c:8d:1b:68:61:7f:0a:14:e3:71:04:a1:4d:
        9d:3e:f9:ad
-----BEGIN CERTIFICATE-----
MIIE0TCCA7mgAwIBAgIBZDANBgkqhkiG9w0BAQsFADCBlTELMAkGA1UEBhMCVVMx
EDAOBgNVBAgMB01vbnRhbmExEDAOBgNVBAcMB0JvemVtYW4xETAPBgNVBAoMCFNh
d3Rvb3RoMRMwEQYDVQQLDApDb25zdWx0aW5nMRgwFgYDVQQDDA93d3cud29sZnNz
bC5jb20xIDAeBgkqhkiG9w0BCQEWEWZhY3RzQHdvbGZzc2wuY29tMB4XDTI2MDYx
MTIxNDQzOFoXDTI5MDMwNzIxNDQzOFowgaQxCzAJBgNVBAYTAlVTMRMwEQYDVQQI
DApXYXNoaW5ndG9uMRAwDgYDVQQHDAdTZWF0dGxlMRUwEwYDVQQKDAx3b2xmU1NM
IEluYy4xFDASBgNVBAsMC0VuZ2luZWVyaW5nMR8wHQYDVQQDDBZjaGFpbkQtSUNB
MS1wYXRobGVuMTI3MSAwHgYJKoZIhvcNAQkBFhFmYWN0c0B3b2xmc3NsLmNvbTCC
ASIwDQYJKoZIhvcNAQEBBQADggEPADCCAQoCggEBANeBeKkZmRLRzz1RVB3TFJTt
Pt7/4CPk9yP8XEkk2DaT5irup6vGjcmtQEXJRAZHTA1lCd3b4vC9zXkc7NGN3vL/
ZvWyvUPMWH8d20uXpYNch16bc4fIHStHklXk275R1et2wqpZcnv2Jy++wNvcPPLi
GcmwMLsuopVIBr2Onb2Ma17GmnNLbLAglkdE0wlraiv6hl8dC6diInLVVhyql4zO
V6MP5rzNY1RVYIdQ6/qM6RVws1xNDidg/QdujOw/oCXFAVmj/C2AS4RMELXIp2ux
5cXBmrDWSzAhukJl4D9Zz39JSzvPYgb0ia5bgV0VY/t8Kaa1z/O1tWYGT6PaZzkC
AwEAAaOCARkwggEVMB0GA1UdDgQWBBRnePmtHFNBH0a9SZtzLnzcXC0L+zCB1QYD
VR0jBIHNMIHKgBQnjmcRdMMmHT/tM2OzpNgdMOXo1aGBm6SBmDCBlTELMAkGA1UE
BhMCVVMxEDAOBgNVBAgMB01vbnRhbmExEDAOBgNVBAcMB0JvemVtYW4xETAPBgNV
BAoMCFNhd3Rvb3RoMRMwEQYDVQQLDApDb25zdWx0aW5nMRgwFgYDVQQDDA93d3cu
d29sZnNzbC5jb20xIDAeBgkqhkiG9w0BCQEWEWZhY3RzQHdvbGZzc2wuY29tghRn
GdKof+Mt+nV6T+eyAtmtxHde+DAPBgNVHRMECDAGAQH/AgF/MAsGA1UdDwQEAwIB
BjANBgkqhkiG9w0BAQsFAAOCAQEArkOwC2SjOPk4rjBxMxRdDRf8+Edm4qhhjgO7
R9g8RUo6zXP0FIJFVNONHDTth4q2gSD5Vpee99Gmoxl6Jrp7F8oDIFDMckkvS7pn
eVCLHDITXeFqPA70z8vi/6crso9PnfM0DWRKkcXtD0h7khyXjELLRugfm6JL5Qd0
9Ag043ElFUjiyY+N/5OKsLPKbEKaVKc2kqoTed6R9WIG6OZdLas+xTrulKQyTiCj
WCHlO7FQpw4tIokGNNPpQZzklSu7A9u7nhMhZioG4odPLPuRh+omFfxoohnQhmex
znE71UIkRpLDSrWaOaj2UsTBTlaMjRtoYX8KFONxBKFNnT75rQ==
-----END CERTIFICATE-----
