Certificate:
    Data:
        Version: 3 (0x2)
        Serial Number: 100 (0x64)
        Signature Algorithm: sha256WithRSAEncryption
        Issuer: C = US, ST = Washington, L = Seattle, O = wolfSSL Inc., OU = Engineering, CN = chainH-ICA4-pathlen2, emailAddress = info@wolfssl.com
        Validity
            Not Before: Dec 20 23:07:25 2021 GMT
            Not After : Sep 15 23:07:25 2024 GMT
        Subject: C = US, ST = Washington, L = Seattle, O = wolfSSL Inc., OU = Engineering, CN = chainH-ICA3-pathlen2, emailAddress = info@wolfssl.com
        Subject Public Key Info:
            Public Key Algorithm: rsaEncryption
                RSA Public-Key: (2048 bit)
                Modulus:
                    00:b7:b3:1a:1b:4a:80:1b:a2:e5:95:14:bc:55:e4:
                    77:dc:f3:7b:8a:9f:34:7c:93:db:c9:c9:d0:8b:b8:
                    87:45:65:d3:a1:7d:46:f3:70:92:a9:d7:66:ef:3b:
                    b4:a8:16:b0:f0:be:67:70:aa:45:7b:09:bc:ca:77:
                    db:57:a4:24:54:0b:1a:da:5f:ad:64:a3:f1:49:83:
                    bc:9f:5d:c4:b4:da:43:04:aa:cc:c3:b0:4d:c2:f1:
                    73:c9:38:0d:4c:c9:ab:db:df:09:b3:5c:15:0b:66:
                    79:ad:6c:63:d1:38:cc:a6:2d:46:83:ce:19:1d:c1:
                    0b:6e:fc:38:b7:d8:8c:a2:6f:29:87:9b:21:cd:b0:
                    6b:e0:f8:1f:03:db:82:1d:8d:98:63:16:b6:74:47:
                    43:20:f2:a1:4b:16:8b:67:fd:bc:73:78:9b:f9:dd:
                    ba:49:d9:60:a9:b7:85:66:7f:a4:2a:05:c8:2d:93:
                    a0:9b:aa:bf:a6:31:e1:f2:c8:d3:1b:7b:79:d1:b6:
                    6c:ae:3b:6b:00:2e:6e:ae:10:dc:6c:88:dc:1b:93:
                    e8:56:99:8d:46:7e:49:3a:87:a0:b3:00:cc:2e:3b:
                    83:e1:6b:39:16:71:47:47:30:6d:6b:6c:9c:9f:e6:
                    ce:ec:20:2f:8f:c1:5d:ef:d3:84:32:6c:a5:cc:78:
                    fe:a1
                Exponent: 65537 (0x10001)
        X509v3 extensions:
            X509v3 Subject Key Identifier: 
                56:54:36:BE:23:2F:20:89:6D:A6:BA:9A:45:A4:88:0E:40:35:FD:F5
            X509v3 Authority Key Identifier: 
                keyid:18:6D:44:83:EE:1F:EC:B4:22:F0:9C:EB:54:1E:4A:15:58:01:AA:13
                DirName:/C=US/ST=Montana/L=Bozeman/O=Sawtooth/OU=Consulting/CN=www.wolfssl.com/emailAddress=info@wolfssl.com
                serial:64

            X509v3 Basic Constraints: 
                CA:TRUE, pathlen:2
            X509v3 Key Usage: 
                Certificate Sign, CRL Sign
    Signature Algorithm: sha256WithRSAEncryption
         6b:f3:44:8b:f9:5d:a8:c0:26:49:f1:51:f0:be:72:53:5d:73:
         d7:a2:a2:58:e0:6c:93:68:03:3d:cc:0b:70:27:48:6c:c7:34:
         0e:6b:32:02:d0:c1:65:99:c0:ed:b4:b0:ef:f1:09:0c:8e:5c:
         b0:3b:79:7d:eb:a3:7c:a7:4c:8e:01:b2:b3:f5:53:64:3d:9b:
         2d:35:89:2e:7b:68:df:f2:86:e5:f5:50:f8:e0:57:80:ac:b1:
         96:7d:5f:84:f1:88:07:bb:eb:be:c8:a0:26:9d:88:9b:f5:45:
         2f:e5:75:01:77:55:fd:46:d6:7a:a1:85:26:a2:4c:43:cd:7b:
         30:4a:e2:8f:62:ed:e0:32:0f:21:3c:94:67:89:5c:81:d9:bb:
         9d:d6:c5:ca:95:86:e5:b9:b1:67:94:2e:e7:64:cd:14:65:0e:
         da:13:54:85:53:c4:e8:01:e5:54:e3:52:8c:ac:17:cf:01:02:
         90:c7:92:c0:1a:cb:c4:05:38:08:aa:27:e7:bd:6a:89:28:e4:
         a8:b4:17:30:72:0a:18:a7:20:91:fc:27:74:66:c4:5d:14:6e:
         b1:6c:94:dd:74:67:f8:7e:c2:a2:0e:a6:38:7d:3f:ba:ae:ec:
         e6:b1:81:6c:46:49:2c:06:66:ca:56:9c:a9:27:36:a1:a3:3d:
         ba:4c:7d:d5
-----BEGIN CERTIFICATE-----
MIIExjCCA66gAwIBAgIBZDANBgkqhkiG9w0BAQsFADCBoTELMAkGA1UEBhMCVVMx
EzARBgNVBAgMCldhc2hpbmd0b24xEDAOBgNVBAcMB1NlYXR0bGUxFTATBgNVBAoM
DHdvbGZTU0wgSW5jLjEUMBIGA1UECwwLRW5naW5lZXJpbmcxHTAbBgNVBAMMFGNo
YWluSC1JQ0E0LXBhdGhsZW4yMR8wHQYJKoZIhvcNAQkBFhBpbmZvQHdvbGZzc2wu
Y29tMB4XDTIxMTIyMDIzMDcyNVoXDTI0MDkxNTIzMDcyNVowgaExCzAJBgNVBAYT
AlVTMRMwEQYDVQQIDApXYXNoaW5ndG9uMRAwDgYDVQQHDAdTZWF0dGxlMRUwEwYD
VQQKDAx3b2xmU1NMIEluYy4xFDASBgNVBAsMC0VuZ2luZWVyaW5nMR0wGwYDVQQD
DBRjaGFpbkgtSUNBMy1wYXRobGVuMjEfMB0GCSqGSIb3DQEJARYQaW5mb0B3b2xm
c3NsLmNvbTCCASIwDQYJKoZIhvcNAQEBBQADggEPADCCAQoCggEBALezGhtKgBui
5ZUUvFXkd9zze4qfNHyT28nJ0Iu4h0Vl06F9RvNwkqnXZu87tKgWsPC+Z3CqRXsJ
vMp321ekJFQLGtpfrWSj8UmDvJ9dxLTaQwSqzMOwTcLxc8k4DUzJq9vfCbNcFQtm
ea1sY9E4zKYtRoPOGR3BC278OLfYjKJvKYebIc2wa+D4HwPbgh2NmGMWtnRHQyDy
oUsWi2f9vHN4m/nduknZYKm3hWZ/pCoFyC2ToJuqv6Yx4fLI0xt7edG2bK47awAu
bq4Q3GyI3BuT6FaZjUZ+STqHoLMAzC47g+FrORZxR0cwbWtsnJ/mzuwgL4/BXe/T
hDJspcx4/qECAwEAAaOCAQUwggEBMB0GA1UdDgQWBBRWVDa+Iy8giW2muppFpIgO
QDX99TCBwQYDVR0jBIG5MIG2gBQYbUSD7h/stCLwnOtUHkoVWAGqE6GBmqSBlzCB
lDELMAkGA1UEBhMCVVMxEDAOBgNVBAgMB01vbnRhbmExEDAOBgNVBAcMB0JvemVt
YW4xETAPBgNVBAoMCFNhd3Rvb3RoMRMwEQYDVQQLDApDb25zdWx0aW5nMRgwFgYD
VQQDDA93d3cud29sZnNzbC5jb20xHzAdBgkqhkiG9w0BCQEWEGluZm9Ad29sZnNz
bC5jb22CAWQwDwYDVR0TBAgwBgEB/wIBAjALBgNVHQ8EBAMCAQYwDQYJKoZIhvcN
AQELBQADggEBAGvzRIv5XajAJknxUfC+clNdc9eioljgbJNoAz3MC3AnSGzHNA5r
MgLQwWWZwO20sO/xCQyOXLA7eX3ro3ynTI4BsrP1U2Q9my01iS57aN/yhuX1UPjg
V4CssZZ9X4TxiAe7677IoCadiJv1RS/ldQF3Vf1G1nqhhSaiTEPNezBK4o9i7eAy
DyE8lGeJXIHZu53WxcqVhuW5sWeULudkzRRlDtoTVIVTxOgB5VTjUoysF88BApDH
ksAay8QFOAiqJ+e9aoko5Ki0FzByChinIJH8J3RmxF0UbrFslN10Z/h+wqIOpjh9
P7qu7OaxgWxGSSwGZspWnKknNqGjPbpMfdU=
-----END CERTIFICATE-----
