Certificate:
    Data:
        Version: 3 (0x2)
        Serial Number: 101 (0x65)
        Signature Algorithm: sha256WithRSAEncryption
        Issuer: C=US, ST=Washington, L=Seattle, O=wolfSSL Inc., OU=Engineering, CN=chainC-ICA1-pathlen1, emailAddress=info@wolfssl.com
        Validity
            Not Before: Nov 13 20:41:42 2025 GMT
            Not After : Aug  9 20:41:42 2028 GMT
        Subject: C=US, ST=Washington, L=Seattle, O=wolfSSL Inc., OU=Engineering, CN=chainC-entity, emailAddress=info@wolfssl.com
        Subject Public Key Info:
            Public Key Algorithm: rsaEncryption
                Public-Key: (2048 bit)
                Modulus:
                    00:bf:34:e1:1c:2c:2d:a4:93:b5:c4:fc:65:40:fa:
                    94:68:74:24:ff:52:a4:df:3e:f1:7c:92:14:f0:f0:
                    91:ed:9c:7e:a0:7e:b1:07:20:38:b2:c4:a2:b8:09:
                    d1:06:ee:fa:c6:7e:4d:79:be:dd:83:18:cf:e8:a7:
                    78:88:cd:44:ce:3a:40:05:7a:6e:c5:c9:e4:84:64:
                    e0:01:7d:4f:f9:87:d2:94:91:e9:c8:21:bc:71:2e:
                    ef:f6:61:23:46:6b:da:5f:32:23:a1:86:9c:c6:9a:
                    b4:98:35:6d:36:b8:34:14:fd:9d:63:2f:75:7e:58:
                    f2:08:f9:e3:32:2a:a6:d2:b1:49:05:d3:8c:d4:48:
                    5c:c2:57:07:62:4e:7a:05:23:c2:4f:ca:d5:a8:38:
                    32:92:c2:21:3b:74:3e:2d:b1:6b:57:96:81:a3:2d:
                    ce:6e:9c:d9:ce:1f:e9:42:f8:2c:bb:fe:07:57:c6:
                    c8:93:6e:89:d3:fc:d2:83:4b:c1:2c:ea:5e:41:c9:
                    7c:be:6c:23:01:89:75:1b:1f:57:ac:83:dc:da:e1:
                    63:55:d8:94:fc:2d:a6:99:15:d1:71:88:a5:1b:f5:
                    6f:39:0a:bd:ec:09:02:09:77:a7:5d:da:78:f8:8f:
                    b1:5d:a7:83:12:10:5f:89:ae:72:c2:88:bf:3e:80:
                    98:c3
                Exponent: 65537 (0x10001)
        X509v3 extensions:
            X509v3 Subject Key Identifier: 
                91:79:7C:91:A7:A0:BC:E1:7B:77:9E:51:6E:5C:A7:7A:D9:3F:18:A0
            X509v3 Authority Key Identifier: 
                keyid:94:1D:2E:07:37:C6:2F:52:C1:EC:79:6B:13:CE:09:90:5F:F4:C4:51
                DirName:/C=US/ST=Montana/L=Bozeman/O=Sawtooth/OU=Consulting/CN=www.wolfssl.com/emailAddress=info@wolfssl.com
                serial:64
            X509v3 Basic Constraints: 
                CA:FALSE
    Signature Algorithm: sha256WithRSAEncryption
    Signature Value:
        a8:a5:14:5b:f6:d6:41:3b:04:5e:d8:c6:5d:cc:bb:6b:bb:c5:
        2c:c6:70:36:d7:e1:bc:fc:1e:20:62:9d:2e:2d:f4:5a:63:2d:
        03:a9:15:5f:7c:67:e8:b8:06:5c:04:f7:81:62:a4:02:12:bc:
        d3:42:21:de:09:78:7e:69:92:d2:b7:86:ec:2c:c8:19:9e:06:
        0a:14:ef:6a:11:48:c4:f0:0b:10:c2:a9:1a:f8:81:5b:7f:24:
        e5:a1:6c:d2:a0:35:be:03:28:87:af:cc:c4:2f:9f:e4:e4:3b:
        f7:af:89:bc:2e:02:6a:b2:81:50:33:b8:4b:be:3d:24:5c:12:
        5b:fa:6d:13:eb:7e:6f:88:4b:4a:a9:b8:5e:86:c1:69:a0:a7:
        5f:ec:75:01:37:3d:b1:f3:de:c6:45:84:4c:0f:d8:12:a2:98:
        80:d8:47:68:5a:07:a5:bb:c5:1e:8f:5a:bf:d1:3a:08:1a:4c:
        2d:14:ad:a6:ab:d5:ca:9b:a4:e2:fb:b7:15:09:5b:bb:a8:8e:
        c4:4f:a8:12:f4:4e:2f:0e:6b:47:2f:35:f7:e4:fc:df:8b:cb:
        93:9e:cb:ac:31:f2:eb:ee:d8:36:49:66:ae:4b:01:97:15:0f:
        2a:83:e3:aa:ee:36:7b:e3:66:74:ba:fa:1a:77:84:d1:51:92:
        be:b6:1f:c3
-----BEGIN CERTIFICATE-----
MIIEqjCCA5KgAwIBAgIBZTANBgkqhkiG9w0BAQsFADCBoTELMAkGA1UEBhMCVVMx
EzARBgNVBAgMCldhc2hpbmd0b24xEDAOBgNVBAcMB1NlYXR0bGUxFTATBgNVBAoM
DHdvbGZTU0wgSW5jLjEUMBIGA1UECwwLRW5naW5lZXJpbmcxHTAbBgNVBAMMFGNo
YWluQy1JQ0ExLXBhdGhsZW4xMR8wHQYJKoZIhvcNAQkBFhBpbmZvQHdvbGZzc2wu
Y29tMB4XDTI1MTExMzIwNDE0MloXDTI4MDgwOTIwNDE0MlowgZoxCzAJBgNVBAYT
AlVTMRMwEQYDVQQIDApXYXNoaW5ndG9uMRAwDgYDVQQHDAdTZWF0dGxlMRUwEwYD
VQQKDAx3b2xmU1NMIEluYy4xFDASBgNVBAsMC0VuZ2luZWVyaW5nMRYwFAYDVQQD
DA1jaGFpbkMtZW50aXR5MR8wHQYJKoZIhvcNAQkBFhBpbmZvQHdvbGZzc2wuY29t
MIIBIjANBgkqhkiG9w0BAQEFAAOCAQ8AMIIBCgKCAQEAvzThHCwtpJO1xPxlQPqU
aHQk/1Kk3z7xfJIU8PCR7Zx+oH6xByA4ssSiuAnRBu76xn5Neb7dgxjP6Kd4iM1E
zjpABXpuxcnkhGTgAX1P+YfSlJHpyCG8cS7v9mEjRmvaXzIjoYacxpq0mDVtNrg0
FP2dYy91fljyCPnjMiqm0rFJBdOM1EhcwlcHYk56BSPCT8rVqDgyksIhO3Q+LbFr
V5aBoy3ObpzZzh/pQvgsu/4HV8bIk26J0/zSg0vBLOpeQcl8vmwjAYl1Gx9XrIPc
2uFjVdiU/C2mmRXRcYilG/VvOQq97AkCCXenXdp4+I+xXaeDEhBfia5ywoi/PoCY
wwIDAQABo4HxMIHuMB0GA1UdDgQWBBSReXyRp6C84Xt3nlFuXKd62T8YoDCBwQYD
VR0jBIG5MIG2gBSUHS4HN8YvUsHseWsTzgmQX/TEUaGBmqSBlzCBlDELMAkGA1UE
BhMCVVMxEDAOBgNVBAgMB01vbnRhbmExEDAOBgNVBAcMB0JvemVtYW4xETAPBgNV
BAoMCFNhd3Rvb3RoMRMwEQYDVQQLDApDb25zdWx0aW5nMRgwFgYDVQQDDA93d3cu
d29sZnNzbC5jb20xHzAdBgkqhkiG9w0BCQEWEGluZm9Ad29sZnNzbC5jb22CAWQw
CQYDVR0TBAIwADANBgkqhkiG9w0BAQsFAAOCAQEAqKUUW/bWQTsEXtjGXcy7a7vF
LMZwNtfhvPweIGKdLi30WmMtA6kVX3xn6LgGXAT3gWKkAhK800Ih3gl4fmmS0reG
7CzIGZ4GChTvahFIxPALEMKpGviBW38k5aFs0qA1vgMoh6/MxC+f5OQ796+JvC4C
arKBUDO4S749JFwSW/ptE+t+b4hLSqm4XobBaaCnX+x1ATc9sfPexkWETA/YEqKY
gNhHaFoHpbvFHo9av9E6CBpMLRStpqvVypuk4vu3FQlbu6iOxE+oEvROLw5rRy81
9+T834vLk57LrDHy6+7YNklmrksBlxUPKoPjqu42e+NmdLr6GneE0VGSvrYfww==
-----END CERTIFICATE-----
