Certificate:
    Data:
        Version: 3 (0x2)
        Serial Number: 101 (0x65)
        Signature Algorithm: sha256WithRSAEncryption
        Issuer: C=US, ST=Washington, L=Seattle, O=wolfSSL Inc., OU=Engineering, CN=chainE-ICA1-pathlen128, emailAddress=facts@wolfssl.com
        Validity
            Not Before: Jun 11 21:44:39 2026 GMT
            Not After : Mar  7 21:44:39 2029 GMT
        Subject: C=US, ST=Washington, L=Seattle, O=wolfSSL Inc., OU=Engineering, CN=chainE-entity, emailAddress=facts@wolfssl.com
        Subject Public Key Info:
            Public Key Algorithm: rsaEncryption
                Public-Key: (2048 bit)
                Modulus:
                    00:d8:6f:49:bb:56:ea:34:4c:25:a6:8c:44:f6:c9:
                    75:8f:6b:83:b8:8b:ec:c6:f6:d3:c7:40:e2:d1:b2:
                    d8:77:92:e9:97:c4:b6:57:ad:10:c8:cb:e7:0a:40:
                    ef:3c:a8:38:dc:94:22:08:e7:53:2a:c8:7a:26:90:
                    41:43:6f:7b:8f:4e:58:74:69:20:92:9f:12:aa:6a:
                    c5:cf:7f:24:d1:d0:89:2f:6c:5e:62:31:0a:20:23:
                    6b:07:c2:a0:7d:4d:ed:05:6d:2c:b1:9a:85:e6:41:
                    61:12:6c:85:d3:d4:be:7e:cf:23:d9:79:b1:46:23:
                    d7:1a:f7:d6:f4:97:43:a5:08:03:7a:51:0d:b0:e7:
                    56:62:86:37:07:81:e8:21:f1:10:63:41:b6:82:6d:
                    f2:cd:d9:7f:80:6f:a7:4b:77:10:15:54:02:9c:7a:
                    d0:6e:b8:29:98:72:34:08:7b:ce:d7:24:91:48:a6:
                    c3:f2:9d:77:fc:aa:73:13:70:60:f9:8f:37:4c:d7:
                    34:5c:fa:51:b1:c0:d5:25:e1:75:b2:e2:cd:23:97:
                    c9:a6:bf:d3:5e:21:4b:12:f5:b2:d0:df:92:7f:4c:
                    a8:b2:21:43:2c:f9:3e:fb:14:99:1f:ed:76:2c:87:
                    5a:df:72:d3:85:a3:a8:92:1a:ad:66:19:50:44:8a:
                    05:e1
                Exponent: 65537 (0x10001)
        X509v3 extensions:
            X509v3 Subject Key Identifier: 
                26:FC:70:E0:8F:A1:3D:52:82:76:6B:CB:C7:0F:89:9D:2B:86:69:F5
            X509v3 Authority Key Identifier: 
                keyid:44:7B:00:7C:9C:1C:97:9F:97:AA:6B:F2:5E:E6:81:7C:0E:AE:E6:2B
                DirName:/C=US/ST=Montana/L=Bozeman/O=Sawtooth/OU=Consulting/CN=www.wolfssl.com/emailAddress=facts@wolfssl.com
                serial:64
            X509v3 Basic Constraints: 
                CA:FALSE
    Signature Algorithm: sha256WithRSAEncryption
    Signature Value:
        2e:03:54:30:2b:ff:39:cd:66:06:bf:31:ff:c7:e2:fb:e1:9c:
        76:24:5e:69:d2:c8:75:e1:6e:00:4d:f7:ce:e6:64:91:01:19:
        27:d1:28:63:67:7d:a1:a5:fb:cc:51:bf:fd:56:b6:e1:6d:43:
        05:9d:ed:a9:35:88:84:e2:2e:70:5a:f3:ff:5f:62:2e:6b:17:
        0f:0a:ec:2f:46:af:42:49:11:7d:55:4a:c2:55:2e:c4:7b:02:
        60:ed:e7:26:ea:57:b2:ff:ff:b8:27:57:db:7b:68:02:7f:a6:
        7a:7f:93:9e:dd:84:e0:74:0b:bf:28:9e:27:20:f4:4a:b8:63:
        bd:06:9b:e8:fb:30:09:82:30:f9:38:09:62:f6:3d:87:46:05:
        ee:6e:1f:f4:ed:3f:13:17:a2:c7:c7:49:d7:52:c6:ce:83:69:
        13:df:2b:fc:b2:66:db:dc:b1:aa:61:77:d7:79:2b:29:94:ef:
        9d:bf:c6:86:b9:46:a4:da:53:54:a7:98:63:27:38:0a:57:0d:
        b8:e0:5e:45:1f:14:e4:9b:28:c8:06:59:cb:c9:da:98:66:73:
        6b:fa:6a:28:a1:63:1b:6e:c3:72:e9:fd:96:e9:3c:f5:a7:2c:
        27:96:ac:2b:df:df:d3:07:56:23:1c:f1:ad:c8:b9:c9:9b:f8:
        3a:2a:3d:ba
-----BEGIN CERTIFICATE-----
MIIErzCCA5egAwIBAgIBZTANBgkqhkiG9w0BAQsFADCBpDELMAkGA1UEBhMCVVMx
EzARBgNVBAgMCldhc2hpbmd0b24xEDAOBgNVBAcMB1NlYXR0bGUxFTATBgNVBAoM
DHdvbGZTU0wgSW5jLjEUMBIGA1UECwwLRW5naW5lZXJpbmcxHzAdBgNVBAMMFmNo
YWluRS1JQ0ExLXBhdGhsZW4xMjgxIDAeBgkqhkiG9w0BCQEWEWZhY3RzQHdvbGZz
c2wuY29tMB4XDTI2MDYxMTIxNDQzOVoXDTI5MDMwNzIxNDQzOVowgZsxCzAJBgNV
BAYTAlVTMRMwEQYDVQQIDApXYXNoaW5ndG9uMRAwDgYDVQQHDAdTZWF0dGxlMRUw
EwYDVQQKDAx3b2xmU1NMIEluYy4xFDASBgNVBAsMC0VuZ2luZWVyaW5nMRYwFAYD
VQQDDA1jaGFpbkUtZW50aXR5MSAwHgYJKoZIhvcNAQkBFhFmYWN0c0B3b2xmc3Ns
LmNvbTCCASIwDQYJKoZIhvcNAQEBBQADggEPADCCAQoCggEBANhvSbtW6jRMJaaM
RPbJdY9rg7iL7Mb208dA4tGy2HeS6ZfEtletEMjL5wpA7zyoONyUIgjnUyrIeiaQ
QUNve49OWHRpIJKfEqpqxc9/JNHQiS9sXmIxCiAjawfCoH1N7QVtLLGaheZBYRJs
hdPUvn7PI9l5sUYj1xr31vSXQ6UIA3pRDbDnVmKGNweB6CHxEGNBtoJt8s3Zf4Bv
p0t3EBVUApx60G64KZhyNAh7ztckkUimw/Kdd/yqcxNwYPmPN0zXNFz6UbHA1SXh
dbLizSOXyaa/014hSxL1stDfkn9MqLIhQyz5PvsUmR/tdiyHWt9y04WjqJIarWYZ
UESKBeECAwEAAaOB8jCB7zAdBgNVHQ4EFgQUJvxw4I+hPVKCdmvLxw+JnSuGafUw
gcIGA1UdIwSBujCBt4AURHsAfJwcl5+XqmvyXuaBfA6u5iuhgZukgZgwgZUxCzAJ
BgNVBAYTAlVTMRAwDgYDVQQIDAdNb250YW5hMRAwDgYDVQQHDAdCb3plbWFuMREw
DwYDVQQKDAhTYXd0b290aDETMBEGA1UECwwKQ29uc3VsdGluZzEYMBYGA1UEAwwP
d3d3LndvbGZzc2wuY29tMSAwHgYJKoZIhvcNAQkBFhFmYWN0c0B3b2xmc3NsLmNv
bYIBZDAJBgNVHRMEAjAAMA0GCSqGSIb3DQEBCwUAA4IBAQAuA1QwK/85zWYGvzH/
x+L74Zx2JF5p0sh14W4ATffO5mSRARkn0ShjZ32hpfvMUb/9VrbhbUMFne2pNYiE
4i5wWvP/X2IuaxcPCuwvRq9CSRF9VUrCVS7EewJg7ecm6ley//+4J1fbe2gCf6Z6
f5Oe3YTgdAu/KJ4nIPRKuGO9Bpvo+zAJgjD5OAli9j2HRgXubh/07T8TF6LHx0nX
UsbOg2kT3yv8smbb3LGqYXfXeSsplO+dv8aGuUak2lNUp5hjJzgKVw244F5FHxTk
myjIBlnLydqYZnNr+moooWMbbsNy6f2W6Tz1pywnlqwr39/TB1YjHPGtyLnJm/g6
Kj26
-----END CERTIFICATE-----
Certificate:
    Data:
        Version: 3 (0x2)
        Serial Number: 100 (0x64)
        Signature Algorithm: sha256WithRSAEncryption
        Issuer: C=US, ST=Montana, L=Bozeman, O=Sawtooth, OU=Consulting, CN=www.wolfssl.com, emailAddress=facts@wolfssl.com
        Validity
            Not Before: Jun 11 21:44:39 2026 GMT
            Not After : Mar  7 21:44:39 2029 GMT
        Subject: C=US, ST=Washington, L=Seattle, O=wolfSSL Inc., OU=Engineering, CN=chainE-ICA1-pathlen128, emailAddress=facts@wolfssl.com
        Subject Public Key Info:
            Public Key Algorithm: rsaEncryption
                Public-Key: (2048 bit)
                Modulus:
                    00:d6:f3:6f:b8:db:10:df:89:df:3b:d9:2e:7a:c1:
                    34:1a:56:97:6c:73:04:fc:15:50:04:93:66:cb:17:
                    ba:fb:f9:28:b9:d6:ce:7e:f5:78:bb:b1:4f:aa:4b:
                    f8:80:35:d9:ae:fe:99:75:f7:cd:79:0b:cf:ca:da:
                    cb:58:9a:6e:9b:91:21:f4:17:fd:56:b8:3a:cf:cf:
                    ed:f7:90:6a:73:6c:06:99:ef:0e:8f:65:dc:d0:e8:
                    db:7b:c1:e8:4d:6d:61:9e:cc:5a:20:de:86:3a:58:
                    81:fa:b1:d4:5f:3c:74:43:45:61:36:2c:fe:a4:35:
                    ae:e2:39:c7:fd:dd:b3:83:d6:17:dc:f5:99:3f:67:
                    0e:c1:60:d1:69:8d:3c:f9:62:e9:83:ae:66:10:aa:
                    40:91:63:0b:2a:e5:c1:a8:1f:8e:8a:9b:11:9f:bf:
                    a6:45:fb:16:70:ed:6c:1b:14:98:80:69:04:c3:bd:
                    13:22:e7:d9:33:48:9d:8a:6c:0f:9c:39:08:29:92:
                    83:7b:73:a3:da:86:d6:4a:00:0f:a7:c2:7b:bf:ac:
                    0f:2a:62:96:5b:3b:ef:9f:e1:08:bb:44:ba:c4:99:
                    4f:a0:b9:5e:4d:cb:73:73:fe:ee:82:69:4f:af:c7:
                    59:5a:36:81:44:c6:e3:50:3b:bf:8d:14:ef:7e:96:
                    ef:c1
                Exponent: 65537 (0x10001)
        X509v3 extensions:
            X509v3 Subject Key Identifier: 
                44:7B:00:7C:9C:1C:97:9F:97:AA:6B:F2:5E:E6:81:7C:0E:AE:E6:2B
            X509v3 Authority Key Identifier: 
                keyid:27:8E:67:11:74:C3:26:1D:3F:ED:33:63:B3:A4:D8:1D:30:E5:E8:D5
                DirName:/C=US/ST=Montana/L=Bozeman/O=Sawtooth/OU=Consulting/CN=www.wolfssl.com/emailAddress=facts@wolfssl.com
                serial:67:19:D2:A8:7F:E3:2D:FA:75:7A:4F:E7:B2:02:D9:AD:C4:77:5E:F8
            X509v3 Basic Constraints: 
                CA:TRUE, pathlen:128
            X509v3 Key Usage: 
                Certificate Sign, CRL Sign
    Signature Algorithm: sha256WithRSAEncryption
    Signature Value:
        89:4e:59:27:a3:7e:44:29:1c:41:cb:f4:71:30:95:43:68:cb:
        6f:aa:55:57:b5:70:6b:ce:62:1d:c9:39:75:39:ec:69:41:00:
        b2:35:9f:a0:ee:b8:4b:58:0b:c5:c2:26:0b:70:23:52:f7:b2:
        4a:35:fc:5d:2a:23:36:b6:ac:41:94:df:1b:dd:05:6d:ea:4a:
        da:a2:2a:f6:f7:a8:ef:90:b1:7e:4b:64:df:8f:96:90:12:70:
        98:c7:01:9f:ed:f7:f7:91:98:f2:84:64:e0:24:3a:ba:00:ce:
        f4:a3:37:da:19:5c:4d:7b:4c:45:6f:31:17:58:eb:8c:c0:31:
        27:db:40:fd:eb:62:83:a3:3d:48:78:3d:66:ac:0c:4f:a7:af:
        1d:77:9d:d9:4a:5e:51:c1:34:15:48:8d:57:93:54:07:ad:08:
        52:53:a2:85:56:00:0f:cc:66:74:96:13:6c:ee:3f:b2:bf:05:
        f5:47:4e:a2:ae:d2:eb:ac:94:8e:5b:d7:90:d4:df:2a:4b:90:
        35:58:2f:5f:32:31:0d:1a:1d:d3:84:e9:96:7b:9d:73:07:77:
        7c:4f:4e:fa:06:6a:e0:26:0e:0e:58:a3:2b:45:62:e7:48:92:
        ba:c7:cc:3d:87:00:0d:c5:1f:9a:bf:87:04:12:85:6d:d8:ee:
        cc:36:f4:da
-----BEGIN CERTIFICATE-----
MIIE0jCCA7qgAwIBAgIBZDANBgkqhkiG9w0BAQsFADCBlTELMAkGA1UEBhMCVVMx
EDAOBgNVBAgMB01vbnRhbmExEDAOBgNVBAcMB0JvemVtYW4xETAPBgNVBAoMCFNh
d3Rvb3RoMRMwEQYDVQQLDApDb25zdWx0aW5nMRgwFgYDVQQDDA93d3cud29sZnNz
bC5jb20xIDAeBgkqhkiG9w0BCQEWEWZhY3RzQHdvbGZzc2wuY29tMB4XDTI2MDYx
MTIxNDQzOVoXDTI5MDMwNzIxNDQzOVowgaQxCzAJBgNVBAYTAlVTMRMwEQYDVQQI
DApXYXNoaW5ndG9uMRAwDgYDVQQHDAdTZWF0dGxlMRUwEwYDVQQKDAx3b2xmU1NM
IEluYy4xFDASBgNVBAsMC0VuZ2luZWVyaW5nMR8wHQYDVQQDDBZjaGFpbkUtSUNB
MS1wYXRobGVuMTI4MSAwHgYJKoZIhvcNAQkBFhFmYWN0c0B3b2xmc3NsLmNvbTCC
ASIwDQYJKoZIhvcNAQEBBQADggEPADCCAQoCggEBANbzb7jbEN+J3zvZLnrBNBpW
l2xzBPwVUASTZssXuvv5KLnWzn71eLuxT6pL+IA12a7+mXX3zXkLz8ray1iabpuR
IfQX/Va4Os/P7feQanNsBpnvDo9l3NDo23vB6E1tYZ7MWiDehjpYgfqx1F88dENF
YTYs/qQ1ruI5x/3ds4PWF9z1mT9nDsFg0WmNPPli6YOuZhCqQJFjCyrlwagfjoqb
EZ+/pkX7FnDtbBsUmIBpBMO9EyLn2TNInYpsD5w5CCmSg3tzo9qG1koAD6fCe7+s
Dypills775/hCLtEusSZT6C5Xk3Lc3P+7oJpT6/HWVo2gUTG41A7v40U736W78EC
AwEAAaOCARowggEWMB0GA1UdDgQWBBREewB8nByXn5eqa/Je5oF8Dq7mKzCB1QYD
VR0jBIHNMIHKgBQnjmcRdMMmHT/tM2OzpNgdMOXo1aGBm6SBmDCBlTELMAkGA1UE
BhMCVVMxEDAOBgNVBAgMB01vbnRhbmExEDAOBgNVBAcMB0JvemVtYW4xETAPBgNV
BAoMCFNhd3Rvb3RoMRMwEQYDVQQLDApDb25zdWx0aW5nMRgwFgYDVQQDDA93d3cu
d29sZnNzbC5jb20xIDAeBgkqhkiG9w0BCQEWEWZhY3RzQHdvbGZzc2wuY29tghRn
GdKof+Mt+nV6T+eyAtmtxHde+DAQBgNVHRMECTAHAQH/AgIAgDALBgNVHQ8EBAMC
AQYwDQYJKoZIhvcNAQELBQADggEBAIlOWSejfkQpHEHL9HEwlUNoy2+qVVe1cGvO
Yh3JOXU57GlBALI1n6DuuEtYC8XCJgtwI1L3sko1/F0qIza2rEGU3xvdBW3qStqi
Kvb3qO+QsX5LZN+PlpAScJjHAZ/t9/eRmPKEZOAkOroAzvSjN9oZXE17TEVvMRdY
64zAMSfbQP3rYoOjPUh4PWasDE+nrx13ndlKXlHBNBVIjVeTVAetCFJTooVWAA/M
ZnSWE2zuP7K/BfVHTqKu0uuslI5b15DU3ypLkDVYL18yMQ0aHdOE6ZZ7nXMHd3xP
TvoGauAmDg5YoytFYudIkrrHzD2HAA3FH5q/hwQShW3Y7sw29No=
-----END CERTIFICATE-----
