Certificate:
    Data:
        Version: 3 (0x2)
        Serial Number: 101 (0x65)
        Signature Algorithm: sha256WithRSAEncryption
        Issuer: C = US, ST = Washington, L = Seattle, O = wolfSSL Inc., OU = Engineering, CN = chainB-ICA1-pathlen0, emailAddress = info@wolfssl.com
        Validity
            Not Before: Sep 26 17:22:46 2023 GMT
            Not After : Jun 22 17:22:46 2026 GMT
        Subject: C = US, ST = Washington, L = Seattle, O = wolfSSL Inc., OU = Engineering, CN = chainB-entity, emailAddress = info@wolfssl.com
        Subject Public Key Info:
            Public Key Algorithm: rsaEncryption
                Public-Key: (2048 bit)
                Modulus:
                    00:d7:5f:d9:3d:d7:5b:11:aa:3e:53:31:d0:32:78:
                    87:fb:c0:8e:80:6d:fc:68:73:1f:9c:77:66:16:35:
                    fc:2f:d7:e4:ca:ba:2a:73:5f:14:94:12:f0:48:31:
                    a2:40:ad:b4:e3:07:0c:02:47:b4:0a:07:69:d5:d2:
                    85:bf:c8:bc:14:8c:c7:87:ba:5f:87:c5:07:f4:df:
                    a4:46:1e:b7:13:0f:9d:7e:f6:1a:7b:29:09:55:4c:
                    17:ee:c8:b0:9d:39:0c:89:6e:18:9c:06:7f:5d:95:
                    d2:4c:71:b3:1f:ea:5d:d2:f6:2c:69:a8:16:15:59:
                    e5:7d:03:d7:bd:1a:34:e3:f1:27:e3:b9:7d:68:e0:
                    39:3f:35:62:2f:20:20:fa:19:62:37:1a:30:47:6c:
                    a3:f9:8e:9c:f3:67:2e:bb:38:4c:2e:0a:21:9b:70:
                    b6:97:a2:1b:b3:98:0d:5b:74:97:33:f0:b8:6c:4e:
                    ad:b4:1f:48:62:c9:9a:af:2d:a6:a1:06:ae:98:30:
                    54:5e:cb:dd:23:77:d5:ee:5c:fb:81:f0:2b:ad:6f:
                    fa:e3:b1:0e:98:bd:3e:0b:f4:7c:c5:e3:50:bf:08:
                    9b:bf:be:f8:6a:d9:db:78:36:84:f2:7e:7b:7d:5e:
                    a7:8f:42:81:5f:41:f4:77:5c:30:51:f5:3f:2d:25:
                    95:4d
                Exponent: 65537 (0x10001)
        X509v3 extensions:
            X509v3 Subject Key Identifier: 
                7F:17:7E:8E:A8:2C:AD:9C:C7:22:7E:A6:C6:90:9E:63:C4:5F:33:9E
            X509v3 Authority Key Identifier: 
                keyid:D7:90:E4:86:59:24:F9:2B:B8:06:8E:B1:8F:33:E5:2C:63:F1:03:16
                DirName:/C=US/ST=Washington/L=Seattle/O=wolfSSL Inc./OU=Engineering/CN=chainB-ICA2-pathlen1/emailAddress=info@wolfssl.com
                serial:64
            X509v3 Basic Constraints: 
                CA:FALSE
    Signature Algorithm: sha256WithRSAEncryption
    Signature Value:
        8b:2b:6e:7f:1b:56:5b:75:a7:66:b8:51:4a:0d:ea:0c:01:c3:
        68:dd:81:13:e4:c4:c6:ac:d8:18:5c:43:68:fe:ca:75:14:f7:
        4b:bb:cc:f5:ed:29:fc:02:97:6d:b1:51:71:ea:52:e3:60:60:
        26:11:ba:77:28:15:d3:56:2c:f2:be:74:3f:10:2b:c1:2a:13:
        68:2b:cd:89:8b:67:c7:42:ff:36:1a:ca:a4:64:5c:17:ba:04:
        ad:4e:a9:12:72:5c:98:7a:7f:d9:ce:42:bf:35:76:7d:4c:f9:
        e9:fa:27:b0:c8:2f:5e:82:04:f2:ee:d0:6f:5e:89:4a:0b:ef:
        cd:4d:a2:b5:40:ff:ce:97:9c:2f:75:b9:0e:14:5a:59:f2:f0:
        de:a1:88:41:e4:c7:35:cd:59:d0:8d:21:a2:71:f1:3d:5c:77:
        e0:5a:7f:dd:3f:89:8c:67:8f:71:1c:3d:32:dc:a0:d7:72:3e:
        48:b2:ae:3c:a9:9b:6a:5a:4e:d5:3d:0b:0d:13:39:d7:be:84:
        21:c2:1b:0b:d3:03:b9:60:42:b7:4b:09:ba:50:a3:51:de:4f:
        30:96:fa:11:fa:64:ba:b4:07:05:14:a6:e7:e6:06:f1:54:2e:
        f7:28:cc:44:ec:af:87:90:71:d1:ba:06:6b:d5:4a:28:b3:f6:
        db:3b:c0:8e
-----BEGIN CERTIFICATE-----
MIIEtzCCA5+gAwIBAgIBZTANBgkqhkiG9w0BAQsFADCBoTELMAkGA1UEBhMCVVMx
EzARBgNVBAgMCldhc2hpbmd0b24xEDAOBgNVBAcMB1NlYXR0bGUxFTATBgNVBAoM
DHdvbGZTU0wgSW5jLjEUMBIGA1UECwwLRW5naW5lZXJpbmcxHTAbBgNVBAMMFGNo
YWluQi1JQ0ExLXBhdGhsZW4wMR8wHQYJKoZIhvcNAQkBFhBpbmZvQHdvbGZzc2wu
Y29tMB4XDTIzMDkyNjE3MjI0NloXDTI2MDYyMjE3MjI0NlowgZoxCzAJBgNVBAYT
AlVTMRMwEQYDVQQIDApXYXNoaW5ndG9uMRAwDgYDVQQHDAdTZWF0dGxlMRUwEwYD
VQQKDAx3b2xmU1NMIEluYy4xFDASBgNVBAsMC0VuZ2luZWVyaW5nMRYwFAYDVQQD
DA1jaGFpbkItZW50aXR5MR8wHQYJKoZIhvcNAQkBFhBpbmZvQHdvbGZzc2wuY29t
MIIBIjANBgkqhkiG9w0BAQEFAAOCAQ8AMIIBCgKCAQEA11/ZPddbEao+UzHQMniH
+8COgG38aHMfnHdmFjX8L9fkyroqc18UlBLwSDGiQK204wcMAke0Cgdp1dKFv8i8
FIzHh7pfh8UH9N+kRh63Ew+dfvYaeykJVUwX7siwnTkMiW4YnAZ/XZXSTHGzH+pd
0vYsaagWFVnlfQPXvRo04/En47l9aOA5PzViLyAg+hliNxowR2yj+Y6c82cuuzhM
Lgohm3C2l6Ibs5gNW3SXM/C4bE6ttB9IYsmary2moQaumDBUXsvdI3fV7lz7gfAr
rW/647EOmL0+C/R8xeNQvwibv774atnbeDaE8n57fV6nj0KBX0H0d1wwUfU/LSWV
TQIDAQABo4H+MIH7MB0GA1UdDgQWBBR/F36OqCytnMcifqbGkJ5jxF8znjCBzgYD
VR0jBIHGMIHDgBTXkOSGWST5K7gGjrGPM+UsY/EDFqGBp6SBpDCBoTELMAkGA1UE
BhMCVVMxEzARBgNVBAgMCldhc2hpbmd0b24xEDAOBgNVBAcMB1NlYXR0bGUxFTAT
BgNVBAoMDHdvbGZTU0wgSW5jLjEUMBIGA1UECwwLRW5naW5lZXJpbmcxHTAbBgNV
BAMMFGNoYWluQi1JQ0EyLXBhdGhsZW4xMR8wHQYJKoZIhvcNAQkBFhBpbmZvQHdv
bGZzc2wuY29tggFkMAkGA1UdEwQCMAAwDQYJKoZIhvcNAQELBQADggEBAIsrbn8b
Vlt1p2a4UUoN6gwBw2jdgRPkxMas2BhcQ2j+ynUU90u7zPXtKfwCl22xUXHqUuNg
YCYRuncoFdNWLPK+dD8QK8EqE2grzYmLZ8dC/zYayqRkXBe6BK1OqRJyXJh6f9nO
Qr81dn1M+en6J7DIL16CBPLu0G9eiUoL781NorVA/86XnC91uQ4UWlny8N6hiEHk
xzXNWdCNIaJx8T1cd+Baf90/iYxnj3EcPTLcoNdyPkiyrjypm2paTtU9Cw0TOde+
hCHCGwvTA7lgQrdLCbpQo1HeTzCW+hH6ZLq0BwUUpufmBvFULvcozETsr4eQcdG6
BmvVSiiz9ts7wI4=
-----END CERTIFICATE-----
Certificate:
    Data:
        Version: 3 (0x2)
        Serial Number: 100 (0x64)
        Signature Algorithm: sha256WithRSAEncryption
        Issuer: C = US, ST = Washington, L = Seattle, O = wolfSSL Inc., OU = Engineering, CN = chainB-ICA2-pathlen1, emailAddress = info@wolfssl.com
        Validity
            Not Before: Sep 26 17:22:46 2023 GMT
            Not After : Jun 22 17:22:46 2026 GMT
        Subject: C = US, ST = Washington, L = Seattle, O = wolfSSL Inc., OU = Engineering, CN = chainB-ICA1-pathlen0, emailAddress = info@wolfssl.com
        Subject Public Key Info:
            Public Key Algorithm: rsaEncryption
                Public-Key: (2048 bit)
                Modulus:
                    00:b2:f7:aa:ae:91:d1:24:41:52:a1:22:e0:d3:97:
                    9b:e0:0c:94:9c:4a:e4:b3:85:ae:a9:43:9f:ec:7a:
                    05:dd:88:5c:e5:19:52:53:39:86:8a:b2:e2:86:27:
                    ab:03:9a:be:c4:54:67:af:b9:ac:65:e2:61:97:78:
                    66:60:29:90:62:08:62:91:a0:96:2b:0f:30:6c:da:
                    3d:70:35:52:a8:a7:d5:85:49:25:6a:56:59:bc:6b:
                    45:91:c3:37:fc:06:0d:a2:a9:46:e2:29:82:1b:77:
                    a6:49:35:fb:57:5f:33:02:92:e5:6b:67:c2:61:e2:
                    37:9c:12:5c:b5:2c:9b:2a:a5:85:97:22:73:3d:36:
                    50:55:1a:6a:59:d9:da:ac:2d:3f:e6:6a:b1:1d:60:
                    52:03:05:40:5f:cf:06:68:f0:32:86:5a:6f:b5:02:
                    63:e6:2e:1e:9f:09:82:8c:03:18:19:e4:79:d5:35:
                    6e:d9:17:9f:3c:c1:d9:3b:95:f9:6f:f3:19:d1:d3:
                    b8:5d:7c:93:37:c3:7c:3b:a0:58:c7:fb:e5:2d:f5:
                    58:d3:9b:72:f3:43:7a:29:ec:6b:f4:86:81:c8:e6:
                    60:8b:2b:c5:ad:59:e5:a4:a0:05:97:09:02:00:a7:
                    55:dc:5b:ef:e4:8b:83:1a:ee:c8:1c:b5:b6:e6:61:
                    6b:d1
                Exponent: 65537 (0x10001)
        X509v3 extensions:
            X509v3 Subject Key Identifier: 
                D7:90:E4:86:59:24:F9:2B:B8:06:8E:B1:8F:33:E5:2C:63:F1:03:16
            X509v3 Authority Key Identifier: 
                keyid:EE:59:9D:56:0B:7C:0A:45:44:E3:15:57:E2:B2:F3:1D:64:6F:AF:7A
                DirName:/C=US/ST=Montana/L=Bozeman/O=Sawtooth/OU=Consulting/CN=www.wolfssl.com/emailAddress=info@wolfssl.com
                serial:64
            X509v3 Basic Constraints: 
                CA:TRUE, pathlen:0
            X509v3 Key Usage: 
                Certificate Sign, CRL Sign
    Signature Algorithm: sha256WithRSAEncryption
    Signature Value:
        ca:71:c5:e1:1c:c5:3f:c9:5d:91:13:6a:d8:81:2d:31:19:c3:
        20:89:e2:9d:cf:4b:5e:e0:82:df:12:18:ff:fd:e4:15:39:92:
        cb:76:30:ce:90:cc:5f:77:07:b5:24:7c:8f:a7:34:7e:eb:af:
        a7:07:72:f0:8d:44:89:e3:da:55:2e:82:3d:c1:50:12:96:06:
        71:eb:b7:33:e5:a3:ba:32:ce:eb:30:c4:37:bc:e3:4c:a0:c1:
        49:a9:14:a3:49:bc:65:f0:7c:c8:3d:f4:de:31:33:c3:c6:ea:
        ef:ef:fa:5b:e4:dd:ec:b9:29:5f:59:01:56:76:c7:0f:df:09:
        50:71:58:5b:e9:2d:9e:2e:86:e1:32:ba:74:cc:0f:05:76:4d:
        e3:54:88:d1:ce:1e:d3:6d:99:e2:a9:af:d3:ff:58:26:9f:73:
        1e:0f:87:ed:ab:ea:a0:a7:99:4c:34:b5:ef:6b:83:01:45:7b:
        e6:81:f0:85:59:03:a2:91:21:56:51:c6:fc:46:92:df:66:88:
        d1:62:b5:92:7e:c3:0b:1b:16:7d:66:01:c1:26:49:e3:96:b5:
        7e:92:bc:92:f0:5a:66:90:85:7e:90:af:e7:e6:d5:30:64:67:
        10:71:1f:ea:39:ed:b7:37:e0:e3:64:92:0e:53:a8:58:5a:9d:
        38:8e:11:41
-----BEGIN CERTIFICATE-----
MIIExjCCA66gAwIBAgIBZDANBgkqhkiG9w0BAQsFADCBoTELMAkGA1UEBhMCVVMx
EzARBgNVBAgMCldhc2hpbmd0b24xEDAOBgNVBAcMB1NlYXR0bGUxFTATBgNVBAoM
DHdvbGZTU0wgSW5jLjEUMBIGA1UECwwLRW5naW5lZXJpbmcxHTAbBgNVBAMMFGNo
YWluQi1JQ0EyLXBhdGhsZW4xMR8wHQYJKoZIhvcNAQkBFhBpbmZvQHdvbGZzc2wu
Y29tMB4XDTIzMDkyNjE3MjI0NloXDTI2MDYyMjE3MjI0NlowgaExCzAJBgNVBAYT
AlVTMRMwEQYDVQQIDApXYXNoaW5ndG9uMRAwDgYDVQQHDAdTZWF0dGxlMRUwEwYD
VQQKDAx3b2xmU1NMIEluYy4xFDASBgNVBAsMC0VuZ2luZWVyaW5nMR0wGwYDVQQD
DBRjaGFpbkItSUNBMS1wYXRobGVuMDEfMB0GCSqGSIb3DQEJARYQaW5mb0B3b2xm
c3NsLmNvbTCCASIwDQYJKoZIhvcNAQEBBQADggEPADCCAQoCggEBALL3qq6R0SRB
UqEi4NOXm+AMlJxK5LOFrqlDn+x6Bd2IXOUZUlM5hoqy4oYnqwOavsRUZ6+5rGXi
YZd4ZmApkGIIYpGglisPMGzaPXA1Uqin1YVJJWpWWbxrRZHDN/wGDaKpRuIpght3
pkk1+1dfMwKS5WtnwmHiN5wSXLUsmyqlhZcicz02UFUaalnZ2qwtP+ZqsR1gUgMF
QF/PBmjwMoZab7UCY+YuHp8JgowDGBnkedU1btkXnzzB2TuV+W/zGdHTuF18kzfD
fDugWMf75S31WNObcvNDeinsa/SGgcjmYIsrxa1Z5aSgBZcJAgCnVdxb7+SLgxru
yBy1tuZha9ECAwEAAaOCAQUwggEBMB0GA1UdDgQWBBTXkOSGWST5K7gGjrGPM+Us
Y/EDFjCBwQYDVR0jBIG5MIG2gBTuWZ1WC3wKRUTjFVfisvMdZG+veqGBmqSBlzCB
lDELMAkGA1UEBhMCVVMxEDAOBgNVBAgMB01vbnRhbmExEDAOBgNVBAcMB0JvemVt
YW4xETAPBgNVBAoMCFNhd3Rvb3RoMRMwEQYDVQQLDApDb25zdWx0aW5nMRgwFgYD
VQQDDA93d3cud29sZnNzbC5jb20xHzAdBgkqhkiG9w0BCQEWEGluZm9Ad29sZnNz
bC5jb22CAWQwDwYDVR0TBAgwBgEB/wIBADALBgNVHQ8EBAMCAQYwDQYJKoZIhvcN
AQELBQADggEBAMpxxeEcxT/JXZETatiBLTEZwyCJ4p3PS17ggt8SGP/95BU5kst2
MM6QzF93B7UkfI+nNH7rr6cHcvCNRInj2lUugj3BUBKWBnHrtzPlo7oyzuswxDe8
40ygwUmpFKNJvGXwfMg99N4xM8PG6u/v+lvk3ey5KV9ZAVZ2xw/fCVBxWFvpLZ4u
huEyunTMDwV2TeNUiNHOHtNtmeKpr9P/WCafcx4Ph+2r6qCnmUw0te9rgwFFe+aB
8IVZA6KRIVZRxvxGkt9miNFitZJ+wwsbFn1mAcEmSeOWtX6SvJLwWmaQhX6Qr+fm
1TBkZxBxH+o57bc34ONkkg5TqFhanTiOEUE=
-----END CERTIFICATE-----
Certificate:
    Data:
        Version: 3 (0x2)
        Serial Number: 100 (0x64)
        Signature Algorithm: sha256WithRSAEncryption
        Issuer: C = US, ST = Montana, L = Bozeman, O = Sawtooth, OU = Consulting, CN = www.wolfssl.com, emailAddress = info@wolfssl.com
        Validity
            Not Before: Sep 26 17:22:46 2023 GMT
            Not After : Jun 22 17:22:46 2026 GMT
        Subject: C = US, ST = Washington, L = Seattle, O = wolfSSL Inc., OU = Engineering, CN = chainB-ICA2-pathlen1, emailAddress = info@wolfssl.com
        Subject Public Key Info:
            Public Key Algorithm: rsaEncryption
                Public-Key: (2048 bit)
                Modulus:
                    00:d0:7f:82:05:9d:5b:c4:49:e0:3e:1f:87:6e:17:
                    05:eb:e2:0a:d1:d1:a5:f5:cc:be:1d:46:d8:cd:a8:
                    6e:22:ce:3d:5c:39:71:a4:0d:03:fa:78:7e:bb:6c:
                    e8:51:e5:98:ef:a6:5e:62:d2:30:fa:3b:8f:21:5f:
                    b7:5f:98:b7:9f:a8:56:7a:39:ca:c2:df:a1:56:fe:
                    95:97:56:5e:5b:fe:74:d9:f2:2e:ca:7e:db:50:77:
                    5a:d1:90:dc:22:d6:fe:4b:c0:57:a1:c6:3b:4a:ba:
                    ad:05:14:c9:24:68:76:b5:e2:26:d5:cb:50:fd:d0:
                    77:0e:8c:0c:b9:5e:f7:a4:9a:45:35:6c:62:ca:e9:
                    38:d4:10:9a:5c:30:a5:4f:26:47:03:03:73:56:85:
                    8c:be:f5:d0:c0:09:06:3e:0e:e8:e5:7d:d0:19:54:
                    ed:57:ec:51:cf:bc:95:15:91:cf:d0:9a:84:dd:8a:
                    50:7c:33:c2:1a:61:70:31:9a:19:17:28:b3:8c:da:
                    5f:b8:d2:06:6b:82:3f:b6:6a:28:29:86:b4:20:cb:
                    a5:af:73:66:e4:37:36:81:f0:3f:ad:bf:05:b8:db:
                    2e:c4:22:e2:eb:46:87:f4:60:d1:a6:7f:ee:9c:41:
                    a7:f3:aa:e9:37:dd:da:d6:f0:cd:48:ac:51:d1:77:
                    8d:a1
                Exponent: 65537 (0x10001)
        X509v3 extensions:
            X509v3 Subject Key Identifier: 
                EE:59:9D:56:0B:7C:0A:45:44:E3:15:57:E2:B2:F3:1D:64:6F:AF:7A
            X509v3 Authority Key Identifier: 
                keyid:27:8E:67:11:74:C3:26:1D:3F:ED:33:63:B3:A4:D8:1D:30:E5:E8:D5
                DirName:/C=US/ST=Montana/L=Bozeman/O=Sawtooth/OU=Consulting/CN=www.wolfssl.com/emailAddress=info@wolfssl.com
                serial:4F:1D:F3:64:BA:21:A8:E6:CB:74:3A:4E:44:A5:E6:79:19:E8:5B:81
            X509v3 Basic Constraints: 
                CA:TRUE, pathlen:1
            X509v3 Key Usage: 
                Certificate Sign, CRL Sign
    Signature Algorithm: sha256WithRSAEncryption
    Signature Value:
        a6:95:bb:70:f6:4d:4c:10:b8:b6:95:bb:c5:25:ca:a7:1d:e6:
        8a:f3:88:12:18:29:aa:0b:ac:b2:54:a5:cb:ba:00:e8:41:d5:
        12:ff:0d:b2:05:e5:27:78:e3:f8:a0:92:56:db:7b:5f:ae:37:
        7f:5d:98:0d:ca:c2:a2:71:81:16:fb:07:89:c6:96:30:15:cf:
        82:89:8e:cc:37:0d:21:d0:ba:da:b8:e2:4d:37:7a:37:b8:87:
        50:e4:cb:a3:14:09:d1:f2:13:d0:de:3f:b3:66:17:b3:bb:4f:
        21:78:56:7e:35:11:4c:cc:71:5d:14:e7:e6:e3:d4:44:19:fd:
        98:76:2e:f7:83:62:f6:f6:52:35:bf:8a:9c:e0:6b:99:ce:cf:
        18:b3:00:75:7c:88:14:a7:bc:46:53:e3:82:38:ba:c5:1b:33:
        cd:aa:db:24:d1:65:e6:8b:a7:73:51:e0:15:0a:4a:d5:f2:2a:
        16:f6:8e:48:28:47:36:ca:5f:a1:e8:7a:77:1c:96:d3:b1:6c:
        8e:1e:bb:2d:f4:7c:b8:fa:47:a6:c7:89:ae:be:27:37:8e:a1:
        28:5b:03:63:51:47:eb:99:3c:4a:3f:34:ed:fa:9e:25:f8:96:
        11:5e:8a:de:be:ad:03:bf:60:c6:25:05:4d:d8:f5:4f:40:7c:
        28:16:54:64
-----BEGIN CERTIFICATE-----
MIIEzDCCA7SgAwIBAgIBZDANBgkqhkiG9w0BAQsFADCBlDELMAkGA1UEBhMCVVMx
EDAOBgNVBAgMB01vbnRhbmExEDAOBgNVBAcMB0JvemVtYW4xETAPBgNVBAoMCFNh
d3Rvb3RoMRMwEQYDVQQLDApDb25zdWx0aW5nMRgwFgYDVQQDDA93d3cud29sZnNz
bC5jb20xHzAdBgkqhkiG9w0BCQEWEGluZm9Ad29sZnNzbC5jb20wHhcNMjMwOTI2
MTcyMjQ2WhcNMjYwNjIyMTcyMjQ2WjCBoTELMAkGA1UEBhMCVVMxEzARBgNVBAgM
Cldhc2hpbmd0b24xEDAOBgNVBAcMB1NlYXR0bGUxFTATBgNVBAoMDHdvbGZTU0wg
SW5jLjEUMBIGA1UECwwLRW5naW5lZXJpbmcxHTAbBgNVBAMMFGNoYWluQi1JQ0Ey
LXBhdGhsZW4xMR8wHQYJKoZIhvcNAQkBFhBpbmZvQHdvbGZzc2wuY29tMIIBIjAN
BgkqhkiG9w0BAQEFAAOCAQ8AMIIBCgKCAQEA0H+CBZ1bxEngPh+HbhcF6+IK0dGl
9cy+HUbYzahuIs49XDlxpA0D+nh+u2zoUeWY76ZeYtIw+juPIV+3X5i3n6hWejnK
wt+hVv6Vl1ZeW/502fIuyn7bUHda0ZDcItb+S8BXocY7SrqtBRTJJGh2teIm1ctQ
/dB3DowMuV73pJpFNWxiyuk41BCaXDClTyZHAwNzVoWMvvXQwAkGPg7o5X3QGVTt
V+xRz7yVFZHP0JqE3YpQfDPCGmFwMZoZFyizjNpfuNIGa4I/tmooKYa0IMulr3Nm
5Dc2gfA/rb8FuNsuxCLi60aH9GDRpn/unEGn86rpN93a1vDNSKxR0XeNoQIDAQAB
o4IBGDCCARQwHQYDVR0OBBYEFO5ZnVYLfApFROMVV+Ky8x1kb696MIHUBgNVHSME
gcwwgcmAFCeOZxF0wyYdP+0zY7Ok2B0w5ejVoYGapIGXMIGUMQswCQYDVQQGEwJV
UzEQMA4GA1UECAwHTW9udGFuYTEQMA4GA1UEBwwHQm96ZW1hbjERMA8GA1UECgwI
U2F3dG9vdGgxEzARBgNVBAsMCkNvbnN1bHRpbmcxGDAWBgNVBAMMD3d3dy53b2xm
c3NsLmNvbTEfMB0GCSqGSIb3DQEJARYQaW5mb0B3b2xmc3NsLmNvbYIUTx3zZLoh
qObLdDpORKXmeRnoW4EwDwYDVR0TBAgwBgEB/wIBATALBgNVHQ8EBAMCAQYwDQYJ
KoZIhvcNAQELBQADggEBAKaVu3D2TUwQuLaVu8Ulyqcd5orziBIYKaoLrLJUpcu6
AOhB1RL/DbIF5Sd44/igklbbe1+uN39dmA3KwqJxgRb7B4nGljAVz4KJjsw3DSHQ
utq44k03eje4h1Dky6MUCdHyE9DeP7NmF7O7TyF4Vn41EUzMcV0U5+bj1EQZ/Zh2
LveDYvb2UjW/ipzga5nOzxizAHV8iBSnvEZT44I4usUbM82q2yTRZeaLp3NR4BUK
StXyKhb2jkgoRzbKX6HoenccltOxbI4euy30fLj6R6bHia6+JzeOoShbA2NRR+uZ
PEo/NO36niX4lhFeit6+rQO/YMYlBU3Y9U9AfCgWVGQ=
-----END CERTIFICATE-----
