Certificate:
    Data:
        Version: 3 (0x2)
        Serial Number: 100 (0x64)
        Signature Algorithm: sha256WithRSAEncryption
        Issuer: C = US, ST = Montana, L = Bozeman, O = Sawtooth, OU = Consulting, CN = www.wolfssl.com, emailAddress = info@wolfssl.com
        Validity
            Not Before: Dec 18 21:25:33 2024 GMT
            Not After : Sep 14 21:25:33 2027 GMT
        Subject: C = US, ST = Washington, L = Seattle, O = wolfSSL Inc., OU = Engineering, CN = chainA-ICA1-pathlen0, emailAddress = info@wolfssl.com
        Subject Public Key Info:
            Public Key Algorithm: rsaEncryption
                Public-Key: (2048 bit)
                Modulus:
                    00:b2:2b:a1:3f:be:c0:58:bd:3a:bc:0d:19:ac:ca:
                    7f:b9:3b:f0:8c:30:ff:04:b1:34:7e:26:86:96:36:
                    6b:53:2e:44:1d:a1:f4:bc:51:79:55:05:ca:bb:a0:
                    a7:9d:33:01:93:96:14:67:ec:f4:c3:2e:66:27:d1:
                    41:68:34:ac:8d:64:63:d8:55:86:9d:62:24:99:ed:
                    b7:ff:cb:4d:9d:40:54:d5:e3:aa:45:a6:a6:db:fe:
                    73:42:94:42:c1:d0:32:5c:c4:21:ae:9c:93:00:b7:
                    4a:1f:9e:95:a6:28:6d:4b:d8:c0:65:e7:ed:a3:6d:
                    ca:18:b3:fa:df:c9:67:1a:75:23:60:83:a5:03:5f:
                    61:bd:e5:d6:8d:9d:05:47:23:7e:a0:8d:d1:7f:42:
                    4e:38:ac:ce:70:bc:bf:7b:05:5b:0f:82:02:b0:9a:
                    8d:c0:14:ca:d0:45:5e:97:10:d1:a1:e1:23:da:dc:
                    69:9c:ce:53:cc:68:89:c6:40:4d:69:bc:ab:4f:c7:
                    11:5e:62:a2:df:e2:a5:34:7c:39:36:27:67:34:11:
                    04:2c:2a:b3:16:db:8e:fd:d7:7b:1d:93:5f:33:c2:
                    ca:96:22:2a:43:82:8a:48:46:07:13:ff:6c:1c:b0:
                    ba:0b:f0:cd:3f:4c:dc:34:17:8f:22:70:69:9d:22:
                    d7:c7
                Exponent: 65537 (0x10001)
        X509v3 extensions:
            X509v3 Subject Key Identifier: 
                A8:10:EA:C8:EF:4F:00:CD:E3:79:C3:EB:DF:F6:C8:86:9D:44:6C:26
            X509v3 Authority Key Identifier: 
                keyid:27:8E:67:11:74:C3:26:1D:3F:ED:33:63:B3:A4:D8:1D:30:E5:E8:D5
                DirName:/C=US/ST=Montana/L=Bozeman/O=Sawtooth/OU=Consulting/CN=www.wolfssl.com/emailAddress=info@wolfssl.com
                serial:6B:9B:70:C6:F1:A3:94:65:19:A1:08:58:EF:A7:8D:2B:7A:83:C1:DA
            X509v3 Basic Constraints: 
                CA:TRUE, pathlen:0
            X509v3 Key Usage: 
                Certificate Sign, CRL Sign
    Signature Algorithm: sha256WithRSAEncryption
    Signature Value:
        8a:29:93:a3:95:fc:e7:03:9c:5d:3e:14:f0:d0:ac:de:03:fe:
        43:21:3d:c9:5f:98:42:97:3d:7a:5d:83:fc:73:d1:43:99:67:
        f8:51:99:d6:94:05:91:c7:44:30:43:6d:ff:a0:56:00:dc:c9:
        f0:2e:cd:a6:5a:75:bf:30:ff:a3:01:c7:93:d5:a5:63:39:3f:
        b8:2b:db:76:e9:c9:1b:2a:db:fb:48:3e:3f:87:d9:eb:8e:0e:
        17:52:fb:01:c3:f6:b8:68:8e:d5:07:9e:59:c1:ac:28:3d:fa:
        64:02:c5:08:1a:34:ff:37:7e:1c:ec:2d:de:05:ef:0a:5d:98:
        75:15:6f:19:ce:dd:2a:54:29:54:23:6d:12:f9:39:38:fa:88:
        dd:65:ad:cf:05:1e:f3:8c:77:77:5f:8a:13:5c:89:6a:ff:e9:
        d0:80:11:bd:6f:0d:31:34:41:59:c3:60:54:cf:09:10:5d:c3:
        b2:db:d2:d6:e5:b7:9f:18:f9:d2:42:ef:e7:88:17:31:0a:3a:
        86:a9:70:f3:28:91:04:64:be:59:ad:d6:33:0f:05:14:13:27:
        e3:5d:22:01:a0:c4:29:1c:b1:d7:c1:7a:b8:dc:3d:44:b3:ca:
        81:a4:23:19:c1:59:22:8a:ef:10:54:c0:b2:88:f8:72:e5:9d:
        0b:a7:df:ec
-----BEGIN CERTIFICATE-----
MIIEzDCCA7SgAwIBAgIBZDANBgkqhkiG9w0BAQsFADCBlDELMAkGA1UEBhMCVVMx
EDAOBgNVBAgMB01vbnRhbmExEDAOBgNVBAcMB0JvemVtYW4xETAPBgNVBAoMCFNh
d3Rvb3RoMRMwEQYDVQQLDApDb25zdWx0aW5nMRgwFgYDVQQDDA93d3cud29sZnNz
bC5jb20xHzAdBgkqhkiG9w0BCQEWEGluZm9Ad29sZnNzbC5jb20wHhcNMjQxMjE4
MjEyNTMzWhcNMjcwOTE0MjEyNTMzWjCBoTELMAkGA1UEBhMCVVMxEzARBgNVBAgM
Cldhc2hpbmd0b24xEDAOBgNVBAcMB1NlYXR0bGUxFTATBgNVBAoMDHdvbGZTU0wg
SW5jLjEUMBIGA1UECwwLRW5naW5lZXJpbmcxHTAbBgNVBAMMFGNoYWluQS1JQ0Ex
LXBhdGhsZW4wMR8wHQYJKoZIhvcNAQkBFhBpbmZvQHdvbGZzc2wuY29tMIIBIjAN
BgkqhkiG9w0BAQEFAAOCAQ8AMIIBCgKCAQEAsiuhP77AWL06vA0ZrMp/uTvwjDD/
BLE0fiaGljZrUy5EHaH0vFF5VQXKu6CnnTMBk5YUZ+z0wy5mJ9FBaDSsjWRj2FWG
nWIkme23/8tNnUBU1eOqRaam2/5zQpRCwdAyXMQhrpyTALdKH56VpihtS9jAZeft
o23KGLP638lnGnUjYIOlA19hveXWjZ0FRyN+oI3Rf0JOOKzOcLy/ewVbD4ICsJqN
wBTK0EVelxDRoeEj2txpnM5TzGiJxkBNabyrT8cRXmKi3+KlNHw5NidnNBEELCqz
FtuO/dd7HZNfM8LKliIqQ4KKSEYHE/9sHLC6C/DNP0zcNBePInBpnSLXxwIDAQAB
o4IBGDCCARQwHQYDVR0OBBYEFKgQ6sjvTwDN43nD69/2yIadRGwmMIHUBgNVHSME
gcwwgcmAFCeOZxF0wyYdP+0zY7Ok2B0w5ejVoYGapIGXMIGUMQswCQYDVQQGEwJV
UzEQMA4GA1UECAwHTW9udGFuYTEQMA4GA1UEBwwHQm96ZW1hbjERMA8GA1UECgwI
U2F3dG9vdGgxEzARBgNVBAsMCkNvbnN1bHRpbmcxGDAWBgNVBAMMD3d3dy53b2xm
c3NsLmNvbTEfMB0GCSqGSIb3DQEJARYQaW5mb0B3b2xmc3NsLmNvbYIUa5twxvGj
lGUZoQhY76eNK3qDwdowDwYDVR0TBAgwBgEB/wIBADALBgNVHQ8EBAMCAQYwDQYJ
KoZIhvcNAQELBQADggEBAIopk6OV/OcDnF0+FPDQrN4D/kMhPclfmEKXPXpdg/xz
0UOZZ/hRmdaUBZHHRDBDbf+gVgDcyfAuzaZadb8w/6MBx5PVpWM5P7gr23bpyRsq
2/tIPj+H2euODhdS+wHD9rhojtUHnlnBrCg9+mQCxQgaNP83fhzsLd4F7wpdmHUV
bxnO3SpUKVQjbRL5OTj6iN1lrc8FHvOMd3dfihNciWr/6dCAEb1vDTE0QVnDYFTP
CRBdw7Lb0tblt58Y+dJC7+eIFzEKOoapcPMokQRkvlmt1jMPBRQTJ+NdIgGgxCkc
sdfBerjcPUSzyoGkIxnBWSKK7xBUwLKI+HLlnQun3+w=
-----END CERTIFICATE-----
