Certificate:
    Data:
        Version: 3 (0x2)
        Serial Number: 100 (0x64)
        Signature Algorithm: sha256WithRSAEncryption
        Issuer: C = US, ST = Washington, L = Seattle, O = wolfSSL Inc., OU = Engineering, CN = chainG-ICA6-pathlen10, emailAddress = info@wolfssl.com
        Validity
            Not Before: Dec 13 22:19:32 2023 GMT
            Not After : Sep  8 22:19:32 2026 GMT
        Subject: C = US, ST = Washington, L = Seattle, O = wolfSSL Inc., OU = Engineering, CN = chainG-ICA5-pathlen20, emailAddress = info@wolfssl.com
        Subject Public Key Info:
            Public Key Algorithm: rsaEncryption
                RSA Public-Key: (2048 bit)
                Modulus:
                    00:be:9d:98:a2:41:ca:64:1f:a2:34:dc:51:7d:49:
                    2b:f7:f8:7a:fc:1a:22:8d:3a:17:8e:00:9c:74:06:
                    18:0f:26:d1:e8:1d:55:4b:3e:bb:6e:98:6d:65:cb:
                    6f:be:c5:98:40:65:1d:e1:1d:af:ad:bc:7c:b0:fa:
                    b6:2a:cb:af:df:d5:52:98:e6:01:01:31:01:3f:c7:
                    16:06:44:92:55:43:6f:dd:49:be:aa:52:d2:80:ca:
                    3a:d0:72:f3:0a:7e:59:cb:2c:74:7c:5b:19:3d:75:
                    9d:3e:da:35:45:49:8b:0d:36:84:80:41:b7:ce:70:
                    fc:a8:d0:4d:0b:d4:f3:4e:73:87:db:2e:18:20:45:
                    70:f3:5a:d1:cf:4f:f8:78:ad:7c:4b:97:3c:f1:0f:
                    8a:f6:6c:8f:7a:3a:c9:79:82:2d:bf:ae:80:f8:8b:
                    1d:79:17:9b:76:34:97:b1:79:5d:79:fa:30:73:78:
                    fc:9c:ee:eb:62:20:95:f1:a8:af:1e:4a:91:cc:1e:
                    34:90:c7:89:21:41:41:90:09:10:52:dd:21:75:15:
                    11:aa:cf:d8:e4:6c:7d:96:c8:d6:cd:90:eb:fa:df:
                    86:e7:3d:36:73:18:f3:86:c5:99:0e:0e:f7:e4:09:
                    8f:8c:29:f1:ad:15:e9:82:c9:6c:87:fc:00:7b:4b:
                    2e:f1
                Exponent: 65537 (0x10001)
        X509v3 extensions:
            X509v3 Subject Key Identifier: 
                1D:51:80:B6:9A:A7:AC:DD:80:7B:4B:A2:0B:62:BE:E4:87:30:C7:CA
            X509v3 Authority Key Identifier: 
                keyid:14:07:E8:A7:3A:A2:9C:DD:4C:30:B0:4D:F0:00:C4:88:C4:39:DF:73
                DirName:/C=US/ST=Washington/L=Seattle/O=wolfSSL Inc./OU=Engineering/CN=chainG-ICA7-pathlen100/emailAddress=info@wolfssl.com
                serial:64

            X509v3 Basic Constraints: 
                CA:TRUE, pathlen:20
            X509v3 Key Usage: 
                Certificate Sign, CRL Sign
    Signature Algorithm: sha256WithRSAEncryption
         d9:f9:09:10:86:29:c0:72:a4:93:87:4d:d3:79:ce:fa:f3:8a:
         79:9a:d0:eb:6d:42:06:00:fc:2c:c3:fa:35:c5:b6:6d:a4:7f:
         66:29:d2:ad:ed:50:a5:a8:1e:1b:24:db:f3:52:bf:54:b8:3f:
         67:c2:be:f4:a4:fc:d2:77:74:a4:02:74:0d:fe:c5:e0:42:bd:
         2b:7c:16:ae:a1:68:6f:e5:80:29:07:f3:5e:e4:0e:96:d2:ee:
         cd:d2:82:00:22:a7:72:d7:c5:38:71:a0:ac:2a:38:03:c4:c1:
         23:62:1e:fa:b3:24:32:0f:01:a4:64:a8:ab:79:60:55:77:da:
         ca:76:00:14:2f:e0:e1:74:f9:72:e2:7d:aa:3d:6b:9f:50:ab:
         72:31:40:4b:19:9d:b9:9a:12:de:db:15:c3:36:90:9d:48:6f:
         7a:98:47:7a:65:a2:d5:5b:0c:f3:90:5d:dd:4e:1c:ba:72:b4:
         ac:be:ca:1b:87:16:7f:f2:b0:33:9b:7a:26:37:eb:1f:cb:4d:
         bf:c7:f1:01:80:b7:60:c4:ae:71:bb:ab:cc:bd:8a:ba:c4:23:
         87:15:1e:b9:c7:6d:2d:44:fd:67:25:45:e2:cd:76:4d:87:a1:
         80:e0:a2:e6:60:23:51:4d:17:b0:82:51:ef:0c:88:75:64:c1:
         7b:8e:c2:29
-----BEGIN CERTIFICATE-----
MIIE1zCCA7+gAwIBAgIBZDANBgkqhkiG9w0BAQsFADCBojELMAkGA1UEBhMCVVMx
EzARBgNVBAgMCldhc2hpbmd0b24xEDAOBgNVBAcMB1NlYXR0bGUxFTATBgNVBAoM
DHdvbGZTU0wgSW5jLjEUMBIGA1UECwwLRW5naW5lZXJpbmcxHjAcBgNVBAMMFWNo
YWluRy1JQ0E2LXBhdGhsZW4xMDEfMB0GCSqGSIb3DQEJARYQaW5mb0B3b2xmc3Ns
LmNvbTAeFw0yMzEyMTMyMjE5MzJaFw0yNjA5MDgyMjE5MzJaMIGiMQswCQYDVQQG
EwJVUzETMBEGA1UECAwKV2FzaGluZ3RvbjEQMA4GA1UEBwwHU2VhdHRsZTEVMBMG
A1UECgwMd29sZlNTTCBJbmMuMRQwEgYDVQQLDAtFbmdpbmVlcmluZzEeMBwGA1UE
AwwVY2hhaW5HLUlDQTUtcGF0aGxlbjIwMR8wHQYJKoZIhvcNAQkBFhBpbmZvQHdv
bGZzc2wuY29tMIIBIjANBgkqhkiG9w0BAQEFAAOCAQ8AMIIBCgKCAQEAvp2YokHK
ZB+iNNxRfUkr9/h6/BoijToXjgCcdAYYDybR6B1VSz67bphtZctvvsWYQGUd4R2v
rbx8sPq2Ksuv39VSmOYBATEBP8cWBkSSVUNv3Um+qlLSgMo60HLzCn5Zyyx0fFsZ
PXWdPto1RUmLDTaEgEG3znD8qNBNC9TzTnOH2y4YIEVw81rRz0/4eK18S5c88Q+K
9myPejrJeYItv66A+IsdeRebdjSXsXldefowc3j8nO7rYiCV8aivHkqRzB40kMeJ
IUFBkAkQUt0hdRURqs/Y5Gx9lsjWzZDr+t+G5z02cxjzhsWZDg735AmPjCnxrRXp
gslsh/wAe0su8QIDAQABo4IBFDCCARAwHQYDVR0OBBYEFB1RgLaap6zdgHtLogti
vuSHMMfKMIHQBgNVHSMEgcgwgcWAFBQH6Kc6opzdTDCwTfAAxIjEOd9zoYGppIGm
MIGjMQswCQYDVQQGEwJVUzETMBEGA1UECAwKV2FzaGluZ3RvbjEQMA4GA1UEBwwH
U2VhdHRsZTEVMBMGA1UECgwMd29sZlNTTCBJbmMuMRQwEgYDVQQLDAtFbmdpbmVl
cmluZzEfMB0GA1UEAwwWY2hhaW5HLUlDQTctcGF0aGxlbjEwMDEfMB0GCSqGSIb3
DQEJARYQaW5mb0B3b2xmc3NsLmNvbYIBZDAPBgNVHRMECDAGAQH/AgEUMAsGA1Ud
DwQEAwIBBjANBgkqhkiG9w0BAQsFAAOCAQEA2fkJEIYpwHKkk4dN03nO+vOKeZrQ
621CBgD8LMP6NcW2baR/ZinSre1QpageGyTb81K/VLg/Z8K+9KT80nd0pAJ0Df7F
4EK9K3wWrqFob+WAKQfzXuQOltLuzdKCACKnctfFOHGgrCo4A8TBI2Ie+rMkMg8B
pGSoq3lgVXfaynYAFC/g4XT5cuJ9qj1rn1CrcjFASxmduZoS3tsVwzaQnUhvephH
emWi1VsM85Bd3U4cunK0rL7KG4cWf/KwM5t6JjfrH8tNv8fxAYC3YMSucburzL2K
usQjhxUeucdtLUT9ZyVF4s12TYehgOCi5mAjUU0XsIJR7wyIdWTBe47CKQ==
-----END CERTIFICATE-----
