Certificate:
    Data:
        Version: 3 (0x2)
        Serial Number: 100 (0x64)
        Signature Algorithm: sha256WithRSAEncryption
        Issuer: C=US, ST=Montana, L=Bozeman, O=Sawtooth, OU=Consulting, CN=www.wolfssl.com, emailAddress=facts@wolfssl.com
        Validity
            Not Before: Jun 11 21:44:38 2026 GMT
            Not After : Mar  7 21:44:38 2029 GMT
        Subject: C=US, ST=Washington, L=Seattle, O=wolfSSL Inc., OU=Engineering, CN=chainD-ICA1-pathlen127, emailAddress=facts@wolfssl.com
        Subject Public Key Info:
            Public Key Algorithm: rsaEncryption
                Public-Key: (2048 bit)
                Modulus:
                    00:d7:81:78:a9:19:99:12:d1:cf:3d:51:54:1d:d3:
                    14:94:ed:3e:de:ff:e0:23:e4:f7:23:fc:5c:49:24:
                    d8:36:93:e6:2a:ee:a7:ab:c6:8d:c9:ad:40:45:c9:
                    44:06:47:4c:0d:65:09:dd:db:e2:f0:bd:cd:79:1c:
                    ec:d1:8d:de:f2:ff:66:f5:b2:bd:43:cc:58:7f:1d:
                    db:4b:97:a5:83:5c:87:5e:9b:73:87:c8:1d:2b:47:
                    92:55:e4:db:be:51:d5:eb:76:c2:aa:59:72:7b:f6:
                    27:2f:be:c0:db:dc:3c:f2:e2:19:c9:b0:30:bb:2e:
                    a2:95:48:06:bd:8e:9d:bd:8c:6b:5e:c6:9a:73:4b:
                    6c:b0:20:96:47:44:d3:09:6b:6a:2b:fa:86:5f:1d:
                    0b:a7:62:22:72:d5:56:1c:aa:97:8c:ce:57:a3:0f:
                    e6:bc:cd:63:54:55:60:87:50:eb:fa:8c:e9:15:70:
                    b3:5c:4d:0e:27:60:fd:07:6e:8c:ec:3f:a0:25:c5:
                    01:59:a3:fc:2d:80:4b:84:4c:10:b5:c8:a7:6b:b1:
                    e5:c5:c1:9a:b0:d6:4b:30:21:ba:42:65:e0:3f:59:
                    cf:7f:49:4b:3b:cf:62:06:f4:89:ae:5b:81:5d:15:
                    63:fb:7c:29:a6:b5:cf:f3:b5:b5:66:06:4f:a3:da:
                    67:39
                Exponent: 65537 (0x10001)
        X509v3 extensions:
            X509v3 Subject Key Identifier: 
                67:78:F9:AD:1C:53:41:1F:46:BD:49:9B:73:2E:7C:DC:5C:2D:0B:FB
            X509v3 Authority Key Identifier: 
                keyid:27:8E:67:11:74:C3:26:1D:3F:ED:33:63:B3:A4:D8:1D:30:E5:E8:D5
                DirName:/C=US/ST=Montana/L=Bozeman/O=Sawtooth/OU=Consulting/CN=www.wolfssl.com/emailAddress=facts@wolfssl.com
                serial:67:19:D2:A8:7F:E3:2D:FA:75:7A:4F:E7:B2:02:D9:AD:C4:77:5E:F8
            X509v3 Basic Constraints: 
                CA:TRUE, pathlen:127
            X509v3 Key Usage: 
                Certificate Sign, CRL Sign
    Signature Algorithm: sha256WithRSAEncryption
    Signature Value:
        ae:43:b0:0b:64:a3:38:f9:38:ae:30:71:33:14:5d:0d:17:fc:
        f8:47:66:e2:a8:61:8e:03:bb:47:d8:3c:45:4a:3a:cd:73:f4:
        14:82:45:54:d3:8d:1c:34:ed:87:8a:b6:81:20:f9:56:97:9e:
        f7:d1:a6:a3:19:7a:26:ba:7b:17:ca:03:20:50:cc:72:49:2f:
        4b:ba:67:79:50:8b:1c:32:13:5d:e1:6a:3c:0e:f4:cf:cb:e2:
        ff:a7:2b:b2:8f:4f:9d:f3:34:0d:64:4a:91:c5:ed:0f:48:7b:
        92:1c:97:8c:42:cb:46:e8:1f:9b:a2:4b:e5:07:74:f4:08:34:
        e3:71:25:15:48:e2:c9:8f:8d:ff:93:8a:b0:b3:ca:6c:42:9a:
        54:a7:36:92:aa:13:79:de:91:f5:62:06:e8:e6:5d:2d:ab:3e:
        c5:3a:ee:94:a4:32:4e:20:a3:58:21:e5:3b:b1:50:a7:0e:2d:
        22:89:06:34:d3:e9:41:9c:e4:95:2b:bb:03:db:bb:9e:13:21:
        66:2a:06:e2:87:4f:2c:fb:91:87:ea:26:15:fc:68:a2:19:d0:
        86:67:b1:ce:71:3b:d5:42:24:46:92:c3:4a:b5:9a:39:a8:f6:
        52:c4:c1:4e:56:8c:8d:1b:68:61:7f:0a:14:e3:71:04:a1:4d:
        9d:3e:f9:ad
-----BEGIN CERTIFICATE-----
MIIE0TCCA7mgAwIBAgIBZDANBgkqhkiG9w0BAQsFADCBlTELMAkGA1UEBhMCVVMx
EDAOBgNVBAgMB01vbnRhbmExEDAOBgNVBAcMB0JvemVtYW4xETAPBgNVBAoMCFNh
d3Rvb3RoMRMwEQYDVQQLDApDb25zdWx0aW5nMRgwFgYDVQQDDA93d3cud29sZnNz
bC5jb20xIDAeBgkqhkiG9w0BCQEWEWZhY3RzQHdvbGZzc2wuY29tMB4XDTI2MDYx
MTIxNDQzOFoXDTI5MDMwNzIxNDQzOFowgaQxCzAJBgNVBAYTAlVTMRMwEQYDVQQI
DApXYXNoaW5ndG9uMRAwDgYDVQQHDAdTZWF0dGxlMRUwEwYDVQQKDAx3b2xmU1NM
IEluYy4xFDASBgNVBAsMC0VuZ2luZWVyaW5nMR8wHQYDVQQDDBZjaGFpbkQtSUNB
MS1wYXRobGVuMTI3MSAwHgYJKoZIhvcNAQkBFhFmYWN0c0B3b2xmc3NsLmNvbTCC
ASIwDQYJKoZIhvcNAQEBBQADggEPADCCAQoCggEBANeBeKkZmRLRzz1RVB3TFJTt
Pt7/4CPk9yP8XEkk2DaT5irup6vGjcmtQEXJRAZHTA1lCd3b4vC9zXkc7NGN3vL/
ZvWyvUPMWH8d20uXpYNch16bc4fIHStHklXk275R1et2wqpZcnv2Jy++wNvcPPLi
GcmwMLsuopVIBr2Onb2Ma17GmnNLbLAglkdE0wlraiv6hl8dC6diInLVVhyql4zO
V6MP5rzNY1RVYIdQ6/qM6RVws1xNDidg/QdujOw/oCXFAVmj/C2AS4RMELXIp2ux
5cXBmrDWSzAhukJl4D9Zz39JSzvPYgb0ia5bgV0VY/t8Kaa1z/O1tWYGT6PaZzkC
AwEAAaOCARkwggEVMB0GA1UdDgQWBBRnePmtHFNBH0a9SZtzLnzcXC0L+zCB1QYD
VR0jBIHNMIHKgBQnjmcRdMMmHT/tM2OzpNgdMOXo1aGBm6SBmDCBlTELMAkGA1UE
BhMCVVMxEDAOBgNVBAgMB01vbnRhbmExEDAOBgNVBAcMB0JvemVtYW4xETAPBgNV
BAoMCFNhd3Rvb3RoMRMwEQYDVQQLDApDb25zdWx0aW5nMRgwFgYDVQQDDA93d3cu
d29sZnNzbC5jb20xIDAeBgkqhkiG9w0BCQEWEWZhY3RzQHdvbGZzc2wuY29tghRn
GdKof+Mt+nV6T+eyAtmtxHde+DAPBgNVHRMECDAGAQH/AgF/MAsGA1UdDwQEAwIB
BjANBgkqhkiG9w0BAQsFAAOCAQEArkOwC2SjOPk4rjBxMxRdDRf8+Edm4qhhjgO7
R9g8RUo6zXP0FIJFVNONHDTth4q2gSD5Vpee99Gmoxl6Jrp7F8oDIFDMckkvS7pn
eVCLHDITXeFqPA70z8vi/6crso9PnfM0DWRKkcXtD0h7khyXjELLRugfm6JL5Qd0
9Ag043ElFUjiyY+N/5OKsLPKbEKaVKc2kqoTed6R9WIG6OZdLas+xTrulKQyTiCj
WCHlO7FQpw4tIokGNNPpQZzklSu7A9u7nhMhZioG4odPLPuRh+omFfxoohnQhmex
znE71UIkRpLDSrWaOaj2UsTBTlaMjRtoYX8KFONxBKFNnT75rQ==
-----END CERTIFICATE-----
