Certificate:
    Data:
        Version: 3 (0x2)
        Serial Number: 100 (0x64)
        Signature Algorithm: sha256WithRSAEncryption
        Issuer: C = US, ST = Washington, L = Seattle, O = wolfSSL Inc., OU = Engineering, CN = chainG-ICA2-pathlen1, emailAddress = info@wolfssl.com
        Validity
            Not Before: Feb 15 12:50:26 2022 GMT
            Not After : Nov 11 12:50:26 2024 GMT
        Subject: C = US, ST = Washington, L = Seattle, O = wolfSSL Inc., OU = Engineering, CN = chainG-ICA1-pathlen0, emailAddress = info@wolfssl.com
        Subject Public Key Info:
            Public Key Algorithm: rsaEncryption
                RSA Public-Key: (2048 bit)
                Modulus:
                    00:d2:26:be:51:98:42:e0:1f:ae:fc:c2:cb:ba:d5:
                    0f:44:3b:0b:60:d8:49:ec:03:43:6b:06:ce:f2:28:
                    19:fb:48:9c:0b:5c:7f:00:a3:22:9f:bc:e9:2a:5b:
                    e4:e1:16:d8:9c:b9:c3:0b:30:e3:1c:83:7d:c0:b9:
                    a4:3f:da:38:ec:8b:38:be:45:c4:a7:1d:c1:68:18:
                    28:19:b0:f2:93:06:3a:bd:23:67:aa:05:89:31:3b:
                    c2:b4:5e:b3:12:cb:3b:f3:9c:d6:df:4c:ed:cb:42:
                    1b:25:80:2d:ab:c4:67:8f:a5:ff:da:6c:f1:18:fd:
                    a1:98:8c:d8:1f:67:6c:28:c7:cb:4e:bb:b0:27:ea:
                    25:b1:5d:73:d0:2a:e9:44:50:b9:f5:65:64:e6:cf:
                    3d:92:d8:c0:6d:ed:96:8e:e2:d3:84:70:d0:db:fe:
                    70:63:44:fa:f8:db:35:d1:95:ad:18:95:21:64:ce:
                    e2:23:7e:5e:6c:2f:ef:a7:63:fe:82:4a:cb:cc:23:
                    cf:9d:26:a5:66:ed:9c:06:7e:70:76:03:72:99:db:
                    fa:be:a5:c3:38:8b:40:24:c1:6b:d7:9c:bb:27:86:
                    22:a9:62:e0:b2:bd:e7:b5:e4:81:ea:64:db:18:16:
                    24:62:81:6c:a8:f2:83:3f:af:3b:b5:fd:b0:d8:84:
                    b2:21
                Exponent: 65537 (0x10001)
        X509v3 extensions:
            X509v3 Subject Key Identifier: 
                47:C0:19:4B:ED:C4:DA:97:B1:60:EA:5A:0A:42:6D:A5:D3:D8:25:31
            X509v3 Authority Key Identifier: 
                keyid:E1:E6:9B:28:CF:FD:AB:45:C1:B7:A7:C4:C9:58:FC:41:E3:1A:5C:74
                DirName:/C=US/ST=Washington/L=Seattle/O=wolfSSL Inc./OU=Engineering/CN=chainG-ICA3-pathlen99/emailAddress=info@wolfssl.com
                serial:64

            X509v3 Basic Constraints: 
                CA:TRUE, pathlen:0
            X509v3 Key Usage: 
                Certificate Sign, CRL Sign
    Signature Algorithm: sha256WithRSAEncryption
         a9:76:8f:cc:c6:79:0d:9b:ba:32:f8:70:f7:a8:af:9c:c4:06:
         0e:49:66:5a:a2:dc:77:43:73:37:a4:7f:92:f4:0c:95:2f:a5:
         c6:c8:19:c1:0f:aa:21:7d:62:17:7e:24:57:c7:e7:d7:26:02:
         52:50:b2:04:24:a9:1b:77:1d:47:8a:57:0a:d4:a3:a2:9c:32:
         52:6f:53:a8:d3:5c:81:92:58:3d:0a:e3:d3:04:95:1d:2b:a3:
         35:47:84:c5:8b:e4:0e:c5:32:87:5a:de:bb:f2:14:c7:c4:d4:
         4f:f1:0c:f9:b3:61:18:e3:e9:2d:ed:e9:b8:fb:d3:06:16:23:
         2a:0c:b3:dd:62:a3:52:f8:71:b4:14:f9:c3:61:e3:f2:ab:d1:
         04:c2:5c:00:02:b5:55:dc:82:e0:85:35:5f:c5:bb:d6:9f:78:
         f2:79:e9:c4:37:bd:8a:4b:e6:2a:91:8c:25:4e:69:c7:d5:1b:
         a8:e6:4b:af:54:a1:c3:49:48:ea:f9:a8:2e:30:d3:83:76:a3:
         5f:f8:1d:9d:a7:f0:21:51:e3:3d:1c:26:78:e5:a1:8e:01:7e:
         40:84:95:4e:00:a5:db:5e:13:2d:87:bb:c9:0a:88:d9:3f:9f:
         40:77:f1:ed:13:7a:82:c2:f2:7d:62:3d:a1:95:e7:4a:4f:b4:
         4c:21:cb:61
-----BEGIN CERTIFICATE-----
MIIE1DCCA7ygAwIBAgIBZDANBgkqhkiG9w0BAQsFADCBoTELMAkGA1UEBhMCVVMx
EzARBgNVBAgMCldhc2hpbmd0b24xEDAOBgNVBAcMB1NlYXR0bGUxFTATBgNVBAoM
DHdvbGZTU0wgSW5jLjEUMBIGA1UECwwLRW5naW5lZXJpbmcxHTAbBgNVBAMMFGNo
YWluRy1JQ0EyLXBhdGhsZW4xMR8wHQYJKoZIhvcNAQkBFhBpbmZvQHdvbGZzc2wu
Y29tMB4XDTIyMDIxNTEyNTAyNloXDTI0MTExMTEyNTAyNlowgaExCzAJBgNVBAYT
AlVTMRMwEQYDVQQIDApXYXNoaW5ndG9uMRAwDgYDVQQHDAdTZWF0dGxlMRUwEwYD
VQQKDAx3b2xmU1NMIEluYy4xFDASBgNVBAsMC0VuZ2luZWVyaW5nMR0wGwYDVQQD
DBRjaGFpbkctSUNBMS1wYXRobGVuMDEfMB0GCSqGSIb3DQEJARYQaW5mb0B3b2xm
c3NsLmNvbTCCASIwDQYJKoZIhvcNAQEBBQADggEPADCCAQoCggEBANImvlGYQuAf
rvzCy7rVD0Q7C2DYSewDQ2sGzvIoGftInAtcfwCjIp+86Spb5OEW2Jy5wwsw4xyD
fcC5pD/aOOyLOL5FxKcdwWgYKBmw8pMGOr0jZ6oFiTE7wrResxLLO/Oc1t9M7ctC
GyWALavEZ4+l/9ps8Rj9oZiM2B9nbCjHy067sCfqJbFdc9Aq6URQufVlZObPPZLY
wG3tlo7i04Rw0Nv+cGNE+vjbNdGVrRiVIWTO4iN+Xmwv76dj/oJKy8wjz50mpWbt
nAZ+cHYDcpnb+r6lwziLQCTBa9ecuyeGIqli4LK957Xkgepk2xgWJGKBbKjygz+v
O7X9sNiEsiECAwEAAaOCARMwggEPMB0GA1UdDgQWBBRHwBlL7cTal7Fg6loKQm2l
09glMTCBzwYDVR0jBIHHMIHEgBTh5psoz/2rRcG3p8TJWPxB4xpcdKGBqKSBpTCB
ojELMAkGA1UEBhMCVVMxEzARBgNVBAgMCldhc2hpbmd0b24xEDAOBgNVBAcMB1Nl
YXR0bGUxFTATBgNVBAoMDHdvbGZTU0wgSW5jLjEUMBIGA1UECwwLRW5naW5lZXJp
bmcxHjAcBgNVBAMMFWNoYWluRy1JQ0EzLXBhdGhsZW45OTEfMB0GCSqGSIb3DQEJ
ARYQaW5mb0B3b2xmc3NsLmNvbYIBZDAPBgNVHRMECDAGAQH/AgEAMAsGA1UdDwQE
AwIBBjANBgkqhkiG9w0BAQsFAAOCAQEAqXaPzMZ5DZu6Mvhw96ivnMQGDklmWqLc
d0NzN6R/kvQMlS+lxsgZwQ+qIX1iF34kV8fn1yYCUlCyBCSpG3cdR4pXCtSjopwy
Um9TqNNcgZJYPQrj0wSVHSujNUeExYvkDsUyh1reu/IUx8TUT/EM+bNhGOPpLe3p
uPvTBhYjKgyz3WKjUvhxtBT5w2Hj8qvRBMJcAAK1VdyC4IU1X8W71p948nnpxDe9
ikvmKpGMJU5px9UbqOZLr1Shw0lI6vmoLjDTg3ajX/gdnafwIVHjPRwmeOWhjgF+
QISVTgCl214TLYe7yQqI2T+fQHfx7RN6gsLyfWI9oZXnSk+0TCHLYQ==
-----END CERTIFICATE-----
