Certificate:
    Data:
        Version: 3 (0x2)
        Serial Number: 100 (0x64)
        Signature Algorithm: sha256WithRSAEncryption
        Issuer: C = US, ST = Washington, L = Seattle, O = wolfSSL Inc., OU = Engineering, CN = chainH-ICA3-pathlen2, emailAddress = info@wolfssl.com
        Validity
            Not Before: Jun 19 13:23:42 2020 GMT
            Not After : Mar 16 13:23:42 2023 GMT
        Subject: C = US, ST = Washington, L = Seattle, O = wolfSSL Inc., OU = Engineering, CN = chainH-ICA2-pathlen2, emailAddress = info@wolfssl.com
        Subject Public Key Info:
            Public Key Algorithm: rsaEncryption
                RSA Public-Key: (2048 bit)
                Modulus:
                    00:d9:b5:af:4b:ba:83:03:23:df:50:28:a8:c2:0c:
                    2c:f0:04:cb:2d:04:9b:1e:f5:f4:68:bc:d4:8e:b4:
                    cd:46:04:a2:f5:14:9e:3e:33:d6:76:2d:54:f9:d5:
                    41:b5:7a:47:93:1a:54:80:a4:3d:8b:9d:80:ea:1c:
                    3a:3a:bb:d1:d4:b6:f1:f2:a3:bd:9e:5d:b8:85:01:
                    d7:c8:a0:27:f6:67:41:94:c5:95:91:11:cb:96:fc:
                    95:a9:bc:b5:be:58:77:5c:2b:9b:e9:24:7e:8b:6e:
                    10:a7:d5:3a:fa:05:21:27:14:d8:d2:5f:a2:58:12:
                    b4:d9:bd:88:1a:f1:e7:4c:9d:60:31:0b:1f:3f:8b:
                    af:3a:d9:ca:cf:d4:73:1b:b8:b0:3d:d5:96:5d:4e:
                    a3:62:8f:56:eb:3d:4c:f0:21:4f:f4:8c:c7:55:dd:
                    a6:dc:d9:15:a1:12:db:73:4d:bf:18:89:42:92:0e:
                    83:be:4f:aa:ee:8f:a8:ef:a1:27:01:73:16:29:c0:
                    e8:8c:23:c8:ff:95:68:cd:53:67:49:e5:73:b1:ec:
                    62:60:51:20:e8:a6:49:28:f5:2b:16:30:e8:8b:a6:
                    2f:f4:b7:37:99:8c:32:30:97:5d:16:bf:6b:5e:ba:
                    34:1f:d6:1b:2e:fc:79:f0:00:61:aa:a0:7a:2f:7b:
                    d2:83
                Exponent: 65537 (0x10001)
        X509v3 extensions:
            X509v3 Subject Key Identifier: 
                80:49:61:8C:1D:13:08:56:B5:42:68:D5:B2:EA:89:2C:B4:8B:05:87
            X509v3 Authority Key Identifier: 
                keyid:56:54:36:BE:23:2F:20:89:6D:A6:BA:9A:45:A4:88:0E:40:35:FD:F5
                DirName:/C=US/ST=Washington/L=Seattle/O=wolfSSL Inc./OU=Engineering/CN=chainH-ICA4-pathlen2/emailAddress=info@wolfssl.com
                serial:64

            X509v3 Basic Constraints: 
                CA:TRUE, pathlen:2
            X509v3 Key Usage: 
                Certificate Sign, CRL Sign
    Signature Algorithm: sha256WithRSAEncryption
         59:cc:43:a9:b2:6e:11:b7:8b:c8:66:fa:f4:29:48:1d:e1:da:
         41:4f:13:ff:57:02:56:51:c3:5b:ce:5c:63:03:b6:67:03:0c:
         cd:77:20:c2:0e:61:8f:ce:c6:7e:52:a7:6d:fa:50:78:84:eb:
         7c:d6:f2:c1:22:b3:4d:03:42:eb:58:fb:66:4a:3e:50:32:5b:
         05:d4:08:e7:d9:66:a8:3e:47:eb:b8:75:2c:3b:9a:04:34:f2:
         39:1e:9f:d0:03:65:96:3f:32:bb:80:c8:fd:28:b1:8f:b4:50:
         68:01:3a:18:27:8e:fa:af:9f:91:08:46:ab:5d:55:2f:e2:2b:
         1b:12:b9:d9:81:7e:57:64:05:02:94:9d:14:85:a1:4c:54:5f:
         8c:4a:8a:8f:aa:48:c5:3e:da:b3:d0:9b:e8:43:58:bd:50:5d:
         cf:07:55:0f:2e:fa:68:d0:4b:a7:a3:c6:2a:79:8a:ab:90:83:
         c2:cc:9b:9c:9a:02:0c:d3:f2:6f:be:fd:60:d4:88:8c:8c:f9:
         4f:0c:50:f9:4b:87:ec:9a:da:2c:33:61:8e:07:5a:95:59:41:
         27:6a:9b:35:8f:8e:03:ac:34:80:51:f4:fc:4e:da:b7:c3:c3:
         b8:51:85:2d:90:51:9d:ed:f8:7f:cc:24:0b:4a:6e:d6:6f:ef:
         57:a3:74:f0
-----BEGIN CERTIFICATE-----
MIIE0zCCA7ugAwIBAgIBZDANBgkqhkiG9w0BAQsFADCBoTELMAkGA1UEBhMCVVMx
EzARBgNVBAgMCldhc2hpbmd0b24xEDAOBgNVBAcMB1NlYXR0bGUxFTATBgNVBAoM
DHdvbGZTU0wgSW5jLjEUMBIGA1UECwwLRW5naW5lZXJpbmcxHTAbBgNVBAMMFGNo
YWluSC1JQ0EzLXBhdGhsZW4yMR8wHQYJKoZIhvcNAQkBFhBpbmZvQHdvbGZzc2wu
Y29tMB4XDTIwMDYxOTEzMjM0MloXDTIzMDMxNjEzMjM0MlowgaExCzAJBgNVBAYT
AlVTMRMwEQYDVQQIDApXYXNoaW5ndG9uMRAwDgYDVQQHDAdTZWF0dGxlMRUwEwYD
VQQKDAx3b2xmU1NMIEluYy4xFDASBgNVBAsMC0VuZ2luZWVyaW5nMR0wGwYDVQQD
DBRjaGFpbkgtSUNBMi1wYXRobGVuMjEfMB0GCSqGSIb3DQEJARYQaW5mb0B3b2xm
c3NsLmNvbTCCASIwDQYJKoZIhvcNAQEBBQADggEPADCCAQoCggEBANm1r0u6gwMj
31AoqMIMLPAEyy0Emx719Gi81I60zUYEovUUnj4z1nYtVPnVQbV6R5MaVICkPYud
gOocOjq70dS28fKjvZ5duIUB18igJ/ZnQZTFlZERy5b8lam8tb5Yd1wrm+kkfotu
EKfVOvoFIScU2NJfolgStNm9iBrx50ydYDELHz+LrzrZys/Ucxu4sD3Vll1Oo2KP
Vus9TPAhT/SMx1XdptzZFaES23NNvxiJQpIOg75Pqu6PqO+hJwFzFinA6IwjyP+V
aM1TZ0nlc7HsYmBRIOimSSj1KxYw6IumL/S3N5mMMjCXXRa/a166NB/WGy78efAA
Yaqgei970oMCAwEAAaOCARIwggEOMB0GA1UdDgQWBBSASWGMHRMIVrVCaNWy6oks
tIsFhzCBzgYDVR0jBIHGMIHDgBRWVDa+Iy8giW2muppFpIgOQDX99aGBp6SBpDCB
oTELMAkGA1UEBhMCVVMxEzARBgNVBAgMCldhc2hpbmd0b24xEDAOBgNVBAcMB1Nl
YXR0bGUxFTATBgNVBAoMDHdvbGZTU0wgSW5jLjEUMBIGA1UECwwLRW5naW5lZXJp
bmcxHTAbBgNVBAMMFGNoYWluSC1JQ0E0LXBhdGhsZW4yMR8wHQYJKoZIhvcNAQkB
FhBpbmZvQHdvbGZzc2wuY29tggFkMA8GA1UdEwQIMAYBAf8CAQIwCwYDVR0PBAQD
AgEGMA0GCSqGSIb3DQEBCwUAA4IBAQBZzEOpsm4Rt4vIZvr0KUgd4dpBTxP/VwJW
UcNbzlxjA7ZnAwzNdyDCDmGPzsZ+Uqdt+lB4hOt81vLBIrNNA0LrWPtmSj5QMlsF
1Ajn2WaoPkfruHUsO5oENPI5Hp/QA2WWPzK7gMj9KLGPtFBoAToYJ476r5+RCEar
XVUv4isbErnZgX5XZAUClJ0UhaFMVF+MSoqPqkjFPtqz0JvoQ1i9UF3PB1UPLvpo
0Euno8YqeYqrkIPCzJucmgIM0/Jvvv1g1IiMjPlPDFD5S4fsmtosM2GOB1qVWUEn
aps1j44DrDSAUfT8Ttq3w8O4UYUtkFGd7fh/zCQLSm7Wb+9Xo3Tw
-----END CERTIFICATE-----
