Certificate:
    Data:
        Version: 3 (0x2)
        Serial Number: 100 (0x64)
        Signature Algorithm: sha256WithRSAEncryption
        Issuer: C=US, ST=Montana, L=Bozeman, O=Sawtooth, OU=Consulting, CN=www.wolfssl.com, emailAddress=facts@wolfssl.com
        Validity
            Not Before: Jun 11 21:44:39 2026 GMT
            Not After : Mar  7 21:44:39 2029 GMT
        Subject: C=US, ST=Washington, L=Seattle, O=wolfSSL Inc., OU=Engineering, CN=chainF-ICA2-pathlen0, emailAddress=facts@wolfssl.com
        Subject Public Key Info:
            Public Key Algorithm: rsaEncryption
                Public-Key: (2048 bit)
                Modulus:
                    00:da:3a:22:65:f8:6d:1c:b7:1c:87:dd:27:f4:d7:
                    75:aa:7c:1c:37:31:b4:d6:a5:34:4b:36:40:ea:55:
                    08:72:a0:ff:58:e2:5d:26:11:f5:b8:6e:de:d7:c3:
                    bb:26:51:c8:d0:36:14:00:76:42:4d:03:73:ef:88:
                    b9:37:f4:e8:9d:61:45:96:e1:8e:6c:78:58:e1:f6:
                    cf:46:8a:d6:a5:79:4d:47:88:ca:6c:69:4e:28:d4:
                    8d:84:a8:e1:6c:1d:d3:36:7e:23:e3:64:d5:0a:a3:
                    fc:36:89:90:0a:ff:7e:8b:fa:2e:66:fb:c7:33:44:
                    92:df:0f:43:b2:eb:24:7e:2b:ae:b0:43:a9:ad:53:
                    82:f8:de:17:19:26:5f:ca:8c:ac:0c:1f:24:bd:15:
                    ed:4f:5d:82:ea:10:eb:05:70:4f:03:60:d9:23:6d:
                    21:07:4d:12:9c:f3:64:ee:76:fb:9d:f9:c3:d8:1a:
                    3b:6e:a9:82:7b:2d:2e:b0:74:b7:13:d6:65:8a:06:
                    f2:25:74:c2:26:e9:71:66:54:61:fe:2a:34:27:07:
                    c9:8d:ef:a0:a2:86:93:41:47:73:08:01:07:cc:4d:
                    ec:fe:80:88:93:fb:ae:b4:91:16:fa:83:96:84:66:
                    53:cd:f3:52:da:d4:25:e1:09:15:20:e2:10:ea:dd:
                    39:ef
                Exponent: 65537 (0x10001)
        X509v3 extensions:
            X509v3 Subject Key Identifier: 
                4A:53:4A:B7:30:78:35:91:B4:CB:DD:C8:22:74:89:AF:80:0F:7F:68
            X509v3 Authority Key Identifier: 
                keyid:27:8E:67:11:74:C3:26:1D:3F:ED:33:63:B3:A4:D8:1D:30:E5:E8:D5
                DirName:/C=US/ST=Montana/L=Bozeman/O=Sawtooth/OU=Consulting/CN=www.wolfssl.com/emailAddress=facts@wolfssl.com
                serial:67:19:D2:A8:7F:E3:2D:FA:75:7A:4F:E7:B2:02:D9:AD:C4:77:5E:F8
            X509v3 Basic Constraints: 
                CA:TRUE, pathlen:0
            X509v3 Key Usage: 
                Certificate Sign, CRL Sign
    Signature Algorithm: sha256WithRSAEncryption
    Signature Value:
        0e:0e:83:b1:dd:78:58:84:0c:2c:cb:07:e1:35:22:d9:ae:18:
        f4:ea:79:62:31:6f:3d:04:e2:17:4f:9d:b1:07:6f:63:99:41:
        cd:77:36:51:e1:11:5c:80:b5:b6:59:1c:ac:2f:43:38:da:e8:
        11:1a:92:75:49:ea:03:78:6d:1f:11:53:0d:1f:ff:40:15:75:
        09:d6:0a:4c:39:84:ec:63:ad:a3:d3:35:5a:4e:6a:b5:57:4d:
        5a:ed:fe:0b:7a:21:4e:91:7e:cb:3d:e8:f4:56:91:dd:84:a1:
        68:b5:4c:5f:2f:d2:46:10:05:08:cc:73:9d:87:a3:c5:15:ae:
        ff:7a:a4:8c:5b:bd:93:d2:3e:01:d2:03:84:38:7c:64:a9:0b:
        f5:ee:8c:52:45:86:46:29:54:a3:2c:ba:8b:35:0b:4a:85:b9:
        9b:d4:9c:f6:1f:ba:c9:b8:6c:d7:bf:44:00:7a:02:4d:65:25:
        7b:b0:12:50:dc:cf:71:54:57:de:7d:ec:91:71:a6:5d:dd:ad:
        03:25:f4:9e:e9:95:34:fe:d5:b9:3c:2a:2d:21:4a:fe:fb:99:
        ed:aa:3c:a2:e7:f3:5e:15:82:0a:7d:08:34:bc:c0:21:f1:6a:
        6f:d9:8c:79:68:72:ab:6e:46:3e:ff:1a:98:0d:69:e4:00:14:
        87:3c:1d:3f
-----BEGIN CERTIFICATE-----
MIIEzzCCA7egAwIBAgIBZDANBgkqhkiG9w0BAQsFADCBlTELMAkGA1UEBhMCVVMx
EDAOBgNVBAgMB01vbnRhbmExEDAOBgNVBAcMB0JvemVtYW4xETAPBgNVBAoMCFNh
d3Rvb3RoMRMwEQYDVQQLDApDb25zdWx0aW5nMRgwFgYDVQQDDA93d3cud29sZnNz
bC5jb20xIDAeBgkqhkiG9w0BCQEWEWZhY3RzQHdvbGZzc2wuY29tMB4XDTI2MDYx
MTIxNDQzOVoXDTI5MDMwNzIxNDQzOVowgaIxCzAJBgNVBAYTAlVTMRMwEQYDVQQI
DApXYXNoaW5ndG9uMRAwDgYDVQQHDAdTZWF0dGxlMRUwEwYDVQQKDAx3b2xmU1NM
IEluYy4xFDASBgNVBAsMC0VuZ2luZWVyaW5nMR0wGwYDVQQDDBRjaGFpbkYtSUNB
Mi1wYXRobGVuMDEgMB4GCSqGSIb3DQEJARYRZmFjdHNAd29sZnNzbC5jb20wggEi
MA0GCSqGSIb3DQEBAQUAA4IBDwAwggEKAoIBAQDaOiJl+G0ctxyH3Sf013WqfBw3
MbTWpTRLNkDqVQhyoP9Y4l0mEfW4bt7Xw7smUcjQNhQAdkJNA3PviLk39OidYUWW
4Y5seFjh9s9GitaleU1HiMpsaU4o1I2EqOFsHdM2fiPjZNUKo/w2iZAK/36L+i5m
+8czRJLfD0Oy6yR+K66wQ6mtU4L43hcZJl/KjKwMHyS9Fe1PXYLqEOsFcE8DYNkj
bSEHTRKc82Tudvud+cPYGjtuqYJ7LS6wdLcT1mWKBvIldMIm6XFmVGH+KjQnB8mN
76CihpNBR3MIAQfMTez+gIiT+660kRb6g5aEZlPN81La1CXhCRUg4hDq3TnvAgMB
AAGjggEZMIIBFTAdBgNVHQ4EFgQUSlNKtzB4NZG0y93IInSJr4APf2gwgdUGA1Ud
IwSBzTCByoAUJ45nEXTDJh0/7TNjs6TYHTDl6NWhgZukgZgwgZUxCzAJBgNVBAYT
AlVTMRAwDgYDVQQIDAdNb250YW5hMRAwDgYDVQQHDAdCb3plbWFuMREwDwYDVQQK
DAhTYXd0b290aDETMBEGA1UECwwKQ29uc3VsdGluZzEYMBYGA1UEAwwPd3d3Lndv
bGZzc2wuY29tMSAwHgYJKoZIhvcNAQkBFhFmYWN0c0B3b2xmc3NsLmNvbYIUZxnS
qH/jLfp1ek/nsgLZrcR3XvgwDwYDVR0TBAgwBgEB/wIBADALBgNVHQ8EBAMCAQYw
DQYJKoZIhvcNAQELBQADggEBAA4Og7HdeFiEDCzLB+E1ItmuGPTqeWIxbz0E4hdP
nbEHb2OZQc13NlHhEVyAtbZZHKwvQzja6BEaknVJ6gN4bR8RUw0f/0AVdQnWCkw5
hOxjraPTNVpOarVXTVrt/gt6IU6Rfss96PRWkd2EoWi1TF8v0kYQBQjMc52Ho8UV
rv96pIxbvZPSPgHSA4Q4fGSpC/XujFJFhkYpVKMsuos1C0qFuZvUnPYfusm4bNe/
RAB6Ak1lJXuwElDcz3FUV9597JFxpl3drQMl9J7plTT+1bk8Ki0hSv77me2qPKLn
814Vggp9CDS8wCHxam/ZjHlocqtuRj7/GpgNaeQAFIc8HT8=
-----END CERTIFICATE-----
