Certificate:
    Data:
        Version: 3 (0x2)
        Serial Number: 101 (0x65)
        Signature Algorithm: sha256WithRSAEncryption
        Issuer: C = US, ST = Washington, L = Seattle, O = wolfSSL Inc., OU = Engineering, CN = chainI-ICA1-no_pathlen, emailAddress = info@wolfssl.com
        Validity
            Not Before: Sep 26 17:22:46 2023 GMT
            Not After : Jun 22 17:22:46 2026 GMT
        Subject: C = US, ST = Washington, L = Seattle, O = wolfSSL Inc., OU = Engineering, CN = chainI-entity, emailAddress = info@wolfssl.com
        Subject Public Key Info:
            Public Key Algorithm: rsaEncryption
                Public-Key: (2048 bit)
                Modulus:
                    00:f3:ac:32:8f:52:af:a9:cf:9e:23:a4:96:8e:e9:
                    e8:0a:3a:b7:6a:7b:ba:70:85:68:e2:52:f3:38:39:
                    cf:c8:f1:8a:f6:55:1e:59:fa:97:fe:e7:9b:07:2a:
                    b6:80:2a:92:d9:39:95:9e:0c:1f:d7:ad:1f:74:4d:
                    8e:61:6f:64:24:4c:d4:95:03:8f:d3:f2:3d:6e:d8:
                    d8:d5:aa:64:7d:82:ee:74:07:16:68:fa:95:17:9b:
                    35:8f:c3:6c:47:88:3e:40:de:93:36:ed:62:f4:cc:
                    67:45:ee:ea:45:9f:fc:f1:63:6d:b7:fa:f8:c3:e0:
                    6f:c7:4a:3e:04:49:04:37:8b:3a:99:e8:64:0a:86:
                    43:ab:5b:34:1e:6c:33:a2:a4:26:7c:c7:6c:48:99:
                    7d:85:f5:1f:c1:9c:a9:c7:8f:51:6b:8a:86:8d:1c:
                    b0:d2:82:ba:a4:a7:09:29:8b:0a:20:d1:7c:b1:67:
                    0c:61:cd:88:33:5e:38:ab:08:78:0b:80:0b:ce:63:
                    03:b9:40:7b:67:3e:a8:ac:4e:44:92:09:4c:3f:e0:
                    3d:55:cb:aa:5a:bc:17:9c:4e:9e:40:5c:82:fc:3b:
                    3a:54:40:90:f9:22:3c:f4:00:5f:95:13:72:49:29:
                    ae:5f:31:22:30:04:05:6a:7b:b5:0a:0a:a6:5e:72:
                    4d:5f
                Exponent: 65537 (0x10001)
        X509v3 extensions:
            X509v3 Subject Key Identifier: 
                EB:B5:A2:7B:24:95:03:11:6B:56:CB:13:3E:A8:B2:8F:B1:CF:5D:C4
            X509v3 Authority Key Identifier: 
                keyid:9E:54:B6:95:EA:89:07:A6:C9:E4:82:E8:D0:34:64:5D:08:CD:56:A0
                DirName:/C=US/ST=Washington/L=Seattle/O=wolfSSL Inc./OU=Engineering/CN=chainI-ICA2-no_pathlen/emailAddress=info@wolfssl.com
                serial:64
            X509v3 Basic Constraints: 
                CA:FALSE
    Signature Algorithm: sha256WithRSAEncryption
    Signature Value:
        b1:b9:2a:49:e1:da:74:b9:5f:91:d5:9b:70:d3:67:9a:d5:d8:
        77:2f:1c:4c:a3:59:74:72:61:4e:42:7b:19:bb:94:02:d0:6b:
        17:cc:ad:40:78:76:34:c8:4e:d1:7c:cd:53:76:a4:3a:ef:12:
        31:9d:f2:e2:3f:fa:07:d7:56:b1:c9:14:aa:23:0b:e3:a9:33:
        89:0e:b1:bb:5f:24:19:24:6c:4e:a3:3d:a0:9c:97:1c:0e:1a:
        10:fe:da:7a:a8:0d:cd:63:6b:b6:ff:b0:35:c6:19:cd:be:5f:
        01:aa:04:be:54:94:33:71:90:e3:0a:48:5d:21:6a:bc:b0:40:
        b4:ec:d3:f3:17:87:27:46:88:69:1b:80:a9:6a:a4:7f:9e:cb:
        30:77:ed:83:86:82:81:9d:0b:15:2b:61:ec:1d:11:47:08:d8:
        8e:f0:5e:0d:09:32:2b:5a:f5:32:df:7a:bf:2e:55:93:33:3f:
        e3:dc:c1:9a:f9:7b:3c:83:57:d0:a6:ee:1d:87:f9:fd:91:91:
        88:63:7d:4e:35:44:ea:b0:d5:3f:19:af:6c:aa:60:ea:d4:53:
        b8:3c:78:77:05:97:ca:7b:f2:23:e9:59:a2:ce:43:e0:c4:d0:
        63:2b:55:a5:11:0d:89:bf:27:9e:b3:61:96:4d:ac:73:a6:78:
        b7:62:55:e5
-----BEGIN CERTIFICATE-----
MIIEvDCCA6SgAwIBAgIBZTANBgkqhkiG9w0BAQsFADCBozELMAkGA1UEBhMCVVMx
EzARBgNVBAgMCldhc2hpbmd0b24xEDAOBgNVBAcMB1NlYXR0bGUxFTATBgNVBAoM
DHdvbGZTU0wgSW5jLjEUMBIGA1UECwwLRW5naW5lZXJpbmcxHzAdBgNVBAMMFmNo
YWluSS1JQ0ExLW5vX3BhdGhsZW4xHzAdBgkqhkiG9w0BCQEWEGluZm9Ad29sZnNz
bC5jb20wHhcNMjMwOTI2MTcyMjQ2WhcNMjYwNjIyMTcyMjQ2WjCBmjELMAkGA1UE
BhMCVVMxEzARBgNVBAgMCldhc2hpbmd0b24xEDAOBgNVBAcMB1NlYXR0bGUxFTAT
BgNVBAoMDHdvbGZTU0wgSW5jLjEUMBIGA1UECwwLRW5naW5lZXJpbmcxFjAUBgNV
BAMMDWNoYWluSS1lbnRpdHkxHzAdBgkqhkiG9w0BCQEWEGluZm9Ad29sZnNzbC5j
b20wggEiMA0GCSqGSIb3DQEBAQUAA4IBDwAwggEKAoIBAQDzrDKPUq+pz54jpJaO
6egKOrdqe7pwhWjiUvM4Oc/I8Yr2VR5Z+pf+55sHKraAKpLZOZWeDB/XrR90TY5h
b2QkTNSVA4/T8j1u2NjVqmR9gu50BxZo+pUXmzWPw2xHiD5A3pM27WL0zGdF7upF
n/zxY223+vjD4G/HSj4ESQQ3izqZ6GQKhkOrWzQebDOipCZ8x2xImX2F9R/BnKnH
j1FrioaNHLDSgrqkpwkpiwog0XyxZwxhzYgzXjirCHgLgAvOYwO5QHtnPqisTkSS
CUw/4D1Vy6pavBecTp5AXIL8OzpUQJD5Ijz0AF+VE3JJKa5fMSIwBAVqe7UKCqZe
ck1fAgMBAAGjggEAMIH9MB0GA1UdDgQWBBTrtaJ7JJUDEWtWyxM+qLKPsc9dxDCB
0AYDVR0jBIHIMIHFgBSeVLaV6okHpsnkgujQNGRdCM1WoKGBqaSBpjCBozELMAkG
A1UEBhMCVVMxEzARBgNVBAgMCldhc2hpbmd0b24xEDAOBgNVBAcMB1NlYXR0bGUx
FTATBgNVBAoMDHdvbGZTU0wgSW5jLjEUMBIGA1UECwwLRW5naW5lZXJpbmcxHzAd
BgNVBAMMFmNoYWluSS1JQ0EyLW5vX3BhdGhsZW4xHzAdBgkqhkiG9w0BCQEWEGlu
Zm9Ad29sZnNzbC5jb22CAWQwCQYDVR0TBAIwADANBgkqhkiG9w0BAQsFAAOCAQEA
sbkqSeHadLlfkdWbcNNnmtXYdy8cTKNZdHJhTkJ7GbuUAtBrF8ytQHh2NMhO0XzN
U3akOu8SMZ3y4j/6B9dWsckUqiML46kziQ6xu18kGSRsTqM9oJyXHA4aEP7aeqgN
zWNrtv+wNcYZzb5fAaoEvlSUM3GQ4wpIXSFqvLBAtOzT8xeHJ0aIaRuAqWqkf57L
MHftg4aCgZ0LFSth7B0RRwjYjvBeDQkyK1r1Mt96vy5VkzM/49zBmvl7PINX0Kbu
HYf5/ZGRiGN9TjVE6rDVPxmvbKpg6tRTuDx4dwWXynvyI+lZos5D4MTQYytVpREN
ib8nnrNhlk2sc6Z4t2JV5Q==
-----END CERTIFICATE-----
