Certificate:
    Data:
        Version: 3 (0x2)
        Serial Number: 101 (0x65)
        Signature Algorithm: sha256WithRSAEncryption
        Issuer: C=US, ST=Washington, L=Seattle, O=wolfSSL Inc., OU=Engineering, CN=chainB-ICA1-pathlen0, emailAddress=facts@wolfssl.com
        Validity
            Not Before: Jun 11 21:44:38 2026 GMT
            Not After : Mar  7 21:44:38 2029 GMT
        Subject: C=US, ST=Washington, L=Seattle, O=wolfSSL Inc., OU=Engineering, CN=chainB-entity, emailAddress=facts@wolfssl.com
        Subject Public Key Info:
            Public Key Algorithm: rsaEncryption
                Public-Key: (2048 bit)
                Modulus:
                    00:d7:5f:d9:3d:d7:5b:11:aa:3e:53:31:d0:32:78:
                    87:fb:c0:8e:80:6d:fc:68:73:1f:9c:77:66:16:35:
                    fc:2f:d7:e4:ca:ba:2a:73:5f:14:94:12:f0:48:31:
                    a2:40:ad:b4:e3:07:0c:02:47:b4:0a:07:69:d5:d2:
                    85:bf:c8:bc:14:8c:c7:87:ba:5f:87:c5:07:f4:df:
                    a4:46:1e:b7:13:0f:9d:7e:f6:1a:7b:29:09:55:4c:
                    17:ee:c8:b0:9d:39:0c:89:6e:18:9c:06:7f:5d:95:
                    d2:4c:71:b3:1f:ea:5d:d2:f6:2c:69:a8:16:15:59:
                    e5:7d:03:d7:bd:1a:34:e3:f1:27:e3:b9:7d:68:e0:
                    39:3f:35:62:2f:20:20:fa:19:62:37:1a:30:47:6c:
                    a3:f9:8e:9c:f3:67:2e:bb:38:4c:2e:0a:21:9b:70:
                    b6:97:a2:1b:b3:98:0d:5b:74:97:33:f0:b8:6c:4e:
                    ad:b4:1f:48:62:c9:9a:af:2d:a6:a1:06:ae:98:30:
                    54:5e:cb:dd:23:77:d5:ee:5c:fb:81:f0:2b:ad:6f:
                    fa:e3:b1:0e:98:bd:3e:0b:f4:7c:c5:e3:50:bf:08:
                    9b:bf:be:f8:6a:d9:db:78:36:84:f2:7e:7b:7d:5e:
                    a7:8f:42:81:5f:41:f4:77:5c:30:51:f5:3f:2d:25:
                    95:4d
                Exponent: 65537 (0x10001)
        X509v3 extensions:
            X509v3 Subject Key Identifier: 
                7F:17:7E:8E:A8:2C:AD:9C:C7:22:7E:A6:C6:90:9E:63:C4:5F:33:9E
            X509v3 Authority Key Identifier: 
                keyid:D7:90:E4:86:59:24:F9:2B:B8:06:8E:B1:8F:33:E5:2C:63:F1:03:16
                DirName:/C=US/ST=Washington/L=Seattle/O=wolfSSL Inc./OU=Engineering/CN=chainB-ICA2-pathlen1/emailAddress=facts@wolfssl.com
                serial:64
            X509v3 Basic Constraints: 
                CA:FALSE
    Signature Algorithm: sha256WithRSAEncryption
    Signature Value:
        25:f3:bd:91:41:fd:9b:eb:65:88:17:8e:d5:67:42:07:40:53:
        c7:10:f3:d4:4a:88:a9:50:8c:58:b3:9e:15:7d:13:e5:44:04:
        86:b9:f4:34:38:3f:fc:d8:97:31:d7:0f:1d:a2:56:03:55:84:
        3b:41:13:ce:f0:78:bf:30:ed:b7:f7:51:d9:0d:cb:0a:13:c3:
        c1:93:7d:b0:18:e7:31:a5:97:4e:fb:13:a7:32:c2:7e:1b:38:
        2b:ec:a7:44:66:47:a1:21:56:6b:a1:1b:2c:31:f7:16:9b:cd:
        4c:4a:da:7d:3e:0f:23:84:0d:f5:9d:f2:4b:fd:2d:cc:53:fc:
        d2:5e:de:0e:0f:25:74:b9:60:7a:24:10:15:fe:6f:a0:a1:68:
        53:88:33:ad:80:b6:61:85:59:be:8b:79:b4:57:29:5a:2c:ed:
        b2:a7:ef:d1:72:e0:65:42:cf:90:37:80:72:de:d4:60:71:0f:
        9d:a4:67:4c:14:06:8f:a7:94:f7:a0:41:bc:aa:9c:7a:14:71:
        fb:6d:56:21:74:60:28:70:14:f1:a5:e8:9b:75:6b:43:6b:0d:
        1d:90:28:b0:5e:ad:52:b5:34:5a:89:ef:19:35:dd:5c:e8:d1:
        97:16:d9:9c:b6:65:ac:7f:8a:ca:3b:a1:bc:92:4e:e8:45:3f:
        3e:e7:0c:49
-----BEGIN CERTIFICATE-----
MIIEujCCA6KgAwIBAgIBZTANBgkqhkiG9w0BAQsFADCBojELMAkGA1UEBhMCVVMx
EzARBgNVBAgMCldhc2hpbmd0b24xEDAOBgNVBAcMB1NlYXR0bGUxFTATBgNVBAoM
DHdvbGZTU0wgSW5jLjEUMBIGA1UECwwLRW5naW5lZXJpbmcxHTAbBgNVBAMMFGNo
YWluQi1JQ0ExLXBhdGhsZW4wMSAwHgYJKoZIhvcNAQkBFhFmYWN0c0B3b2xmc3Ns
LmNvbTAeFw0yNjA2MTEyMTQ0MzhaFw0yOTAzMDcyMTQ0MzhaMIGbMQswCQYDVQQG
EwJVUzETMBEGA1UECAwKV2FzaGluZ3RvbjEQMA4GA1UEBwwHU2VhdHRsZTEVMBMG
A1UECgwMd29sZlNTTCBJbmMuMRQwEgYDVQQLDAtFbmdpbmVlcmluZzEWMBQGA1UE
AwwNY2hhaW5CLWVudGl0eTEgMB4GCSqGSIb3DQEJARYRZmFjdHNAd29sZnNzbC5j
b20wggEiMA0GCSqGSIb3DQEBAQUAA4IBDwAwggEKAoIBAQDXX9k911sRqj5TMdAy
eIf7wI6Abfxocx+cd2YWNfwv1+TKuipzXxSUEvBIMaJArbTjBwwCR7QKB2nV0oW/
yLwUjMeHul+HxQf036RGHrcTD51+9hp7KQlVTBfuyLCdOQyJbhicBn9dldJMcbMf
6l3S9ixpqBYVWeV9A9e9GjTj8SfjuX1o4Dk/NWIvICD6GWI3GjBHbKP5jpzzZy67
OEwuCiGbcLaXohuzmA1bdJcz8LhsTq20H0hiyZqvLaahBq6YMFRey90jd9XuXPuB
8Cutb/rjsQ6YvT4L9HzF41C/CJu/vvhq2dt4NoTyfnt9XqePQoFfQfR3XDBR9T8t
JZVNAgMBAAGjgf8wgfwwHQYDVR0OBBYEFH8Xfo6oLK2cxyJ+psaQnmPEXzOeMIHP
BgNVHSMEgccwgcSAFNeQ5IZZJPkruAaOsY8z5Sxj8QMWoYGopIGlMIGiMQswCQYD
VQQGEwJVUzETMBEGA1UECAwKV2FzaGluZ3RvbjEQMA4GA1UEBwwHU2VhdHRsZTEV
MBMGA1UECgwMd29sZlNTTCBJbmMuMRQwEgYDVQQLDAtFbmdpbmVlcmluZzEdMBsG
A1UEAwwUY2hhaW5CLUlDQTItcGF0aGxlbjExIDAeBgkqhkiG9w0BCQEWEWZhY3Rz
QHdvbGZzc2wuY29tggFkMAkGA1UdEwQCMAAwDQYJKoZIhvcNAQELBQADggEBACXz
vZFB/ZvrZYgXjtVnQgdAU8cQ89RKiKlQjFiznhV9E+VEBIa59DQ4P/zYlzHXDx2i
VgNVhDtBE87weL8w7bf3UdkNywoTw8GTfbAY5zGll077E6cywn4bOCvsp0RmR6Eh
VmuhGywx9xabzUxK2n0+DyOEDfWd8kv9LcxT/NJe3g4PJXS5YHokEBX+b6ChaFOI
M62AtmGFWb6LebRXKVos7bKn79Fy4GVCz5A3gHLe1GBxD52kZ0wUBo+nlPegQbyq
nHoUcfttViF0YChwFPGl6Jt1a0NrDR2QKLBerVK1NFqJ7xk13Vzo0ZcW2Zy2Zax/
iso7obySTuhFPz7nDEk=
-----END CERTIFICATE-----
