Certificate:
    Data:
        Version: 3 (0x2)
        Serial Number: 100 (0x64)
        Signature Algorithm: sha256WithRSAEncryption
        Issuer: C=US, ST=Washington, L=Seattle, O=wolfSSL Inc., OU=Engineering, CN=chainH-ICA4-pathlen2, emailAddress=facts@wolfssl.com
        Validity
            Not Before: Jun 11 21:44:39 2026 GMT
            Not After : Mar  7 21:44:39 2029 GMT
        Subject: C=US, ST=Washington, L=Seattle, O=wolfSSL Inc., OU=Engineering, CN=chainH-ICA3-pathlen2, emailAddress=facts@wolfssl.com
        Subject Public Key Info:
            Public Key Algorithm: rsaEncryption
                Public-Key: (2048 bit)
                Modulus:
                    00:b7:b3:1a:1b:4a:80:1b:a2:e5:95:14:bc:55:e4:
                    77:dc:f3:7b:8a:9f:34:7c:93:db:c9:c9:d0:8b:b8:
                    87:45:65:d3:a1:7d:46:f3:70:92:a9:d7:66:ef:3b:
                    b4:a8:16:b0:f0:be:67:70:aa:45:7b:09:bc:ca:77:
                    db:57:a4:24:54:0b:1a:da:5f:ad:64:a3:f1:49:83:
                    bc:9f:5d:c4:b4:da:43:04:aa:cc:c3:b0:4d:c2:f1:
                    73:c9:38:0d:4c:c9:ab:db:df:09:b3:5c:15:0b:66:
                    79:ad:6c:63:d1:38:cc:a6:2d:46:83:ce:19:1d:c1:
                    0b:6e:fc:38:b7:d8:8c:a2:6f:29:87:9b:21:cd:b0:
                    6b:e0:f8:1f:03:db:82:1d:8d:98:63:16:b6:74:47:
                    43:20:f2:a1:4b:16:8b:67:fd:bc:73:78:9b:f9:dd:
                    ba:49:d9:60:a9:b7:85:66:7f:a4:2a:05:c8:2d:93:
                    a0:9b:aa:bf:a6:31:e1:f2:c8:d3:1b:7b:79:d1:b6:
                    6c:ae:3b:6b:00:2e:6e:ae:10:dc:6c:88:dc:1b:93:
                    e8:56:99:8d:46:7e:49:3a:87:a0:b3:00:cc:2e:3b:
                    83:e1:6b:39:16:71:47:47:30:6d:6b:6c:9c:9f:e6:
                    ce:ec:20:2f:8f:c1:5d:ef:d3:84:32:6c:a5:cc:78:
                    fe:a1
                Exponent: 65537 (0x10001)
        X509v3 extensions:
            X509v3 Subject Key Identifier: 
                56:54:36:BE:23:2F:20:89:6D:A6:BA:9A:45:A4:88:0E:40:35:FD:F5
            X509v3 Authority Key Identifier: 
                keyid:18:6D:44:83:EE:1F:EC:B4:22:F0:9C:EB:54:1E:4A:15:58:01:AA:13
                DirName:/C=US/ST=Montana/L=Bozeman/O=Sawtooth/OU=Consulting/CN=www.wolfssl.com/emailAddress=facts@wolfssl.com
                serial:64
            X509v3 Basic Constraints: 
                CA:TRUE, pathlen:2
            X509v3 Key Usage: 
                Certificate Sign, CRL Sign
    Signature Algorithm: sha256WithRSAEncryption
    Signature Value:
        3d:48:73:48:23:35:23:ac:72:9d:8c:df:00:8c:e3:34:1f:02:
        7d:7b:61:0a:14:74:61:4f:90:0c:ec:c1:f9:b7:de:49:57:5f:
        cf:c6:02:b5:2f:51:7a:ef:e1:fa:78:8f:ba:e6:ca:ac:f7:c2:
        b1:d3:51:cf:25:ac:d7:f1:ce:4e:94:ad:67:1e:4c:78:11:ea:
        7b:da:c9:1c:b0:b1:9e:f9:04:87:e5:03:07:03:b5:9f:6a:6d:
        ac:97:0c:32:fb:71:63:3b:dc:e6:9a:1d:00:fe:c5:37:ed:ce:
        8d:3d:71:d2:3a:e3:0f:3a:1a:cc:31:36:58:ac:76:4c:be:df:
        d9:73:24:ca:6d:13:ba:b0:15:fd:00:a8:90:2e:fe:ca:7c:7b:
        0a:12:3c:c9:de:f6:3b:d1:d9:bf:94:9a:20:52:b7:d7:05:13:
        64:f2:0f:e3:e2:db:82:77:f2:61:58:35:b3:a1:6c:c5:8b:ce:
        ec:45:a5:f2:14:e6:bb:8d:9f:52:84:0e:2b:ba:9a:38:c5:29:
        5a:33:80:bd:01:1a:24:f6:50:1f:d1:d4:8a:ae:40:9f:d3:34:
        75:2d:43:e3:21:47:05:a8:97:07:f3:cd:b1:3a:1a:bb:27:81:
        91:ae:85:ee:2f:62:8e:ba:19:07:31:71:a8:06:c8:fd:36:7f:
        ec:05:49:b4
-----BEGIN CERTIFICATE-----
MIIEyTCCA7GgAwIBAgIBZDANBgkqhkiG9w0BAQsFADCBojELMAkGA1UEBhMCVVMx
EzARBgNVBAgMCldhc2hpbmd0b24xEDAOBgNVBAcMB1NlYXR0bGUxFTATBgNVBAoM
DHdvbGZTU0wgSW5jLjEUMBIGA1UECwwLRW5naW5lZXJpbmcxHTAbBgNVBAMMFGNo
YWluSC1JQ0E0LXBhdGhsZW4yMSAwHgYJKoZIhvcNAQkBFhFmYWN0c0B3b2xmc3Ns
LmNvbTAeFw0yNjA2MTEyMTQ0MzlaFw0yOTAzMDcyMTQ0MzlaMIGiMQswCQYDVQQG
EwJVUzETMBEGA1UECAwKV2FzaGluZ3RvbjEQMA4GA1UEBwwHU2VhdHRsZTEVMBMG
A1UECgwMd29sZlNTTCBJbmMuMRQwEgYDVQQLDAtFbmdpbmVlcmluZzEdMBsGA1UE
AwwUY2hhaW5ILUlDQTMtcGF0aGxlbjIxIDAeBgkqhkiG9w0BCQEWEWZhY3RzQHdv
bGZzc2wuY29tMIIBIjANBgkqhkiG9w0BAQEFAAOCAQ8AMIIBCgKCAQEAt7MaG0qA
G6LllRS8VeR33PN7ip80fJPbycnQi7iHRWXToX1G83CSqddm7zu0qBaw8L5ncKpF
ewm8ynfbV6QkVAsa2l+tZKPxSYO8n13EtNpDBKrMw7BNwvFzyTgNTMmr298Js1wV
C2Z5rWxj0TjMpi1Gg84ZHcELbvw4t9iMom8ph5shzbBr4PgfA9uCHY2YYxa2dEdD
IPKhSxaLZ/28c3ib+d26SdlgqbeFZn+kKgXILZOgm6q/pjHh8sjTG3t50bZsrjtr
AC5urhDcbIjcG5PoVpmNRn5JOoegswDMLjuD4Ws5FnFHRzBta2ycn+bO7CAvj8Fd
79OEMmylzHj+oQIDAQABo4IBBjCCAQIwHQYDVR0OBBYEFFZUNr4jLyCJbaa6mkWk
iA5ANf31MIHCBgNVHSMEgbowgbeAFBhtRIPuH+y0IvCc61QeShVYAaoToYGbpIGY
MIGVMQswCQYDVQQGEwJVUzEQMA4GA1UECAwHTW9udGFuYTEQMA4GA1UEBwwHQm96
ZW1hbjERMA8GA1UECgwIU2F3dG9vdGgxEzARBgNVBAsMCkNvbnN1bHRpbmcxGDAW
BgNVBAMMD3d3dy53b2xmc3NsLmNvbTEgMB4GCSqGSIb3DQEJARYRZmFjdHNAd29s
ZnNzbC5jb22CAWQwDwYDVR0TBAgwBgEB/wIBAjALBgNVHQ8EBAMCAQYwDQYJKoZI
hvcNAQELBQADggEBAD1Ic0gjNSOscp2M3wCM4zQfAn17YQoUdGFPkAzswfm33klX
X8/GArUvUXrv4fp4j7rmyqz3wrHTUc8lrNfxzk6UrWceTHgR6nvayRywsZ75BIfl
AwcDtZ9qbayXDDL7cWM73OaaHQD+xTftzo09cdI64w86GswxNlisdky+39lzJMpt
E7qwFf0AqJAu/sp8ewoSPMne9jvR2b+UmiBSt9cFE2TyD+Pi24J38mFYNbOhbMWL
zuxFpfIU5ruNn1KEDiu6mjjFKVozgL0BGiT2UB/R1IquQJ/TNHUtQ+MhRwWolwfz
zbE6GrsngZGuhe4vYo66GQcxcagGyP02f+wFSbQ=
-----END CERTIFICATE-----
