Certificate:
    Data:
        Version: 3 (0x2)
        Serial Number: 101 (0x65)
        Signature Algorithm: sha256WithRSAEncryption
        Issuer: C=US, ST=Washington, L=Seattle, O=wolfSSL Inc., OU=Engineering, CN=chainH-ICA1-pathlen0, emailAddress=facts@wolfssl.com
        Validity
            Not Before: Jun 11 21:44:40 2026 GMT
            Not After : Mar  7 21:44:40 2029 GMT
        Subject: C=US, ST=Washington, L=Seattle, O=wolfSSL Inc., OU=Engineering, CN=chainH-entity, emailAddress=facts@wolfssl.com
        Subject Public Key Info:
            Public Key Algorithm: rsaEncryption
                Public-Key: (2048 bit)
                Modulus:
                    00:ba:ed:ab:c0:0d:92:6c:10:e4:50:9f:7c:98:cc:
                    87:fd:28:34:77:c0:58:28:52:2c:28:97:80:ec:78:
                    02:4f:f4:ca:60:f8:1d:e7:6a:04:52:2e:75:85:42:
                    74:76:00:e4:70:84:b8:51:8e:29:2e:7f:b6:ad:df:
                    6d:09:b4:4f:11:54:1e:88:16:e2:0e:af:30:f0:3d:
                    a7:da:9f:4e:0d:94:5b:05:51:9c:cc:05:65:8d:6b:
                    1e:3c:79:5b:26:7e:cb:ae:e9:9a:71:69:92:41:9b:
                    1a:cd:b4:53:0b:fb:2e:40:c4:e3:b1:5e:b8:8b:f8:
                    cf:0a:ec:5f:07:10:18:54:f8:8a:7d:35:97:7a:7a:
                    98:ea:93:2d:1b:e6:44:16:3f:cc:a7:4c:b9:cf:b5:
                    0b:09:47:b3:b8:8e:02:1a:56:69:37:b7:49:a4:59:
                    90:a3:20:88:f3:87:77:e8:39:0d:39:36:a5:56:b3:
                    ec:4b:f3:5e:8b:c2:cd:47:0c:d9:56:ce:32:f7:71:
                    33:db:7f:7d:c6:1e:7e:71:c1:01:06:98:9e:52:98:
                    9d:d7:9d:4a:32:94:3c:5a:42:66:00:ca:e2:a3:35:
                    db:b7:f3:27:0b:9c:fa:1b:99:4b:51:fa:6c:25:90:
                    f5:76:8c:d9:0d:80:8c:ac:61:eb:4d:92:12:6d:5f:
                    12:e5
                Exponent: 65537 (0x10001)
        X509v3 extensions:
            X509v3 Subject Key Identifier: 
                ED:62:FB:8F:91:CB:DE:B0:C8:89:CE:BA:B5:80:A8:47:F1:72:16:05
            X509v3 Authority Key Identifier: 
                keyid:48:80:87:28:EF:E6:28:0F:03:9B:DF:33:48:10:A0:E5:20:B3:69:50
                DirName:/C=US/ST=Washington/L=Seattle/O=wolfSSL Inc./OU=Engineering/CN=chainH-ICA2-pathlen2/emailAddress=facts@wolfssl.com
                serial:64
            X509v3 Basic Constraints: 
                CA:FALSE
    Signature Algorithm: sha256WithRSAEncryption
    Signature Value:
        3b:cb:b4:87:12:8e:d2:be:c5:b0:49:26:f7:ac:11:1f:89:f3:
        d4:23:a0:15:e6:c3:63:44:c8:62:ec:28:ac:5e:f7:a7:01:a8:
        91:65:21:8f:b0:e8:99:16:bd:a3:74:4d:06:95:6a:a2:88:55:
        ee:92:89:fe:10:b1:b1:e0:aa:04:3c:71:b8:1d:2c:c3:02:57:
        21:df:ef:cb:0c:2b:92:15:e3:d8:e4:10:8f:ea:37:78:23:dc:
        6d:cc:d0:60:2e:eb:b7:26:87:a6:41:ec:6f:78:ba:f8:e5:ca:
        89:16:ac:dc:ef:e1:1e:df:d8:cd:87:08:63:c4:3e:ae:17:da:
        2b:68:8f:44:11:7c:53:c9:96:bf:eb:28:b6:69:a6:65:12:8c:
        d5:d8:ea:ff:35:a1:6d:23:13:3f:63:55:45:89:94:5e:64:ce:
        1e:76:58:42:e4:b1:06:30:e5:af:f2:95:ea:48:d4:66:98:15:
        09:19:22:6d:7b:4d:77:d7:fb:d1:2f:6d:cb:25:09:07:bc:20:
        af:fc:3a:94:dc:90:c0:f1:50:5a:54:c8:3b:22:a9:ee:82:42:
        2e:63:34:c6:9b:58:98:8b:d3:0d:c5:d7:bd:3a:bf:2b:1e:6b:
        e2:7c:dd:a6:87:4e:49:68:28:03:dd:27:10:eb:09:32:af:66:
        d1:7d:7e:a1
-----BEGIN CERTIFICATE-----
MIIEujCCA6KgAwIBAgIBZTANBgkqhkiG9w0BAQsFADCBojELMAkGA1UEBhMCVVMx
EzARBgNVBAgMCldhc2hpbmd0b24xEDAOBgNVBAcMB1NlYXR0bGUxFTATBgNVBAoM
DHdvbGZTU0wgSW5jLjEUMBIGA1UECwwLRW5naW5lZXJpbmcxHTAbBgNVBAMMFGNo
YWluSC1JQ0ExLXBhdGhsZW4wMSAwHgYJKoZIhvcNAQkBFhFmYWN0c0B3b2xmc3Ns
LmNvbTAeFw0yNjA2MTEyMTQ0NDBaFw0yOTAzMDcyMTQ0NDBaMIGbMQswCQYDVQQG
EwJVUzETMBEGA1UECAwKV2FzaGluZ3RvbjEQMA4GA1UEBwwHU2VhdHRsZTEVMBMG
A1UECgwMd29sZlNTTCBJbmMuMRQwEgYDVQQLDAtFbmdpbmVlcmluZzEWMBQGA1UE
AwwNY2hhaW5ILWVudGl0eTEgMB4GCSqGSIb3DQEJARYRZmFjdHNAd29sZnNzbC5j
b20wggEiMA0GCSqGSIb3DQEBAQUAA4IBDwAwggEKAoIBAQC67avADZJsEORQn3yY
zIf9KDR3wFgoUiwol4DseAJP9Mpg+B3nagRSLnWFQnR2AORwhLhRjikuf7at320J
tE8RVB6IFuIOrzDwPafan04NlFsFUZzMBWWNax48eVsmfsuu6ZpxaZJBmxrNtFML
+y5AxOOxXriL+M8K7F8HEBhU+Ip9NZd6epjqky0b5kQWP8ynTLnPtQsJR7O4jgIa
Vmk3t0mkWZCjIIjzh3foOQ05NqVWs+xL816Lws1HDNlWzjL3cTPbf33GHn5xwQEG
mJ5SmJ3XnUoylDxaQmYAyuKjNdu38ycLnPobmUtR+mwlkPV2jNkNgIysYetNkhJt
XxLlAgMBAAGjgf8wgfwwHQYDVR0OBBYEFO1i+4+Ry96wyInOurWAqEfxchYFMIHP
BgNVHSMEgccwgcSAFEiAhyjv5igPA5vfM0gQoOUgs2lQoYGopIGlMIGiMQswCQYD
VQQGEwJVUzETMBEGA1UECAwKV2FzaGluZ3RvbjEQMA4GA1UEBwwHU2VhdHRsZTEV
MBMGA1UECgwMd29sZlNTTCBJbmMuMRQwEgYDVQQLDAtFbmdpbmVlcmluZzEdMBsG
A1UEAwwUY2hhaW5ILUlDQTItcGF0aGxlbjIxIDAeBgkqhkiG9w0BCQEWEWZhY3Rz
QHdvbGZzc2wuY29tggFkMAkGA1UdEwQCMAAwDQYJKoZIhvcNAQELBQADggEBADvL
tIcSjtK+xbBJJvesER+J89QjoBXmw2NEyGLsKKxe96cBqJFlIY+w6JkWvaN0TQaV
aqKIVe6Sif4QsbHgqgQ8cbgdLMMCVyHf78sMK5IV49jkEI/qN3gj3G3M0GAu67cm
h6ZB7G94uvjlyokWrNzv4R7f2M2HCGPEPq4X2itoj0QRfFPJlr/rKLZppmUSjNXY
6v81oW0jEz9jVUWJlF5kzh52WELksQYw5a/ylepI1GaYFQkZIm17TXfX+9Evbcsl
CQe8IK/8OpTckMDxUFpUyDsiqe6CQi5jNMabWJiL0w3F1706vysea+J83aaHTklo
KAPdJxDrCTKvZtF9fqE=
-----END CERTIFICATE-----
Certificate:
    Data:
        Version: 3 (0x2)
        Serial Number: 100 (0x64)
        Signature Algorithm: sha256WithRSAEncryption
        Issuer: C=US, ST=Washington, L=Seattle, O=wolfSSL Inc., OU=Engineering, CN=chainH-ICA2-pathlen2, emailAddress=facts@wolfssl.com
        Validity
            Not Before: Jun 11 21:44:40 2026 GMT
            Not After : Mar  7 21:44:40 2029 GMT
        Subject: C=US, ST=Washington, L=Seattle, O=wolfSSL Inc., OU=Engineering, CN=chainH-ICA1-pathlen0, emailAddress=facts@wolfssl.com
        Subject Public Key Info:
            Public Key Algorithm: rsaEncryption
                Public-Key: (2048 bit)
                Modulus:
                    00:c7:f4:a6:7e:f2:cb:4f:6e:04:18:d3:53:d5:cf:
                    bf:7e:97:d1:74:94:fe:db:ad:61:3f:12:20:67:f3:
                    10:83:7b:51:43:a3:0c:20:b7:35:63:f1:0a:ee:59:
                    74:82:72:fb:d1:d4:12:71:ec:0e:8f:69:c9:fb:af:
                    a7:2f:c4:3b:2c:66:34:ab:ac:80:c2:6d:4a:0e:54:
                    fe:f6:3e:3a:00:25:84:a7:cb:42:d5:e8:47:04:94:
                    e4:68:c3:f5:32:ad:21:89:d8:5e:f9:88:ee:7d:ce:
                    91:a3:16:fc:87:76:1f:2f:1d:4c:b1:2f:3d:4d:f4:
                    0a:6c:04:fd:49:cf:51:88:49:c4:03:65:63:1e:c8:
                    f1:34:1d:44:34:58:af:f5:ec:90:2a:8c:a9:38:7b:
                    dc:fa:5f:ed:00:ed:08:53:4d:f7:36:10:ed:71:41:
                    aa:e3:bf:e8:5d:ee:4e:36:39:57:7e:f4:fd:c3:f7:
                    8a:52:0f:f1:37:72:2b:ae:90:77:00:d6:7c:ec:ec:
                    ee:8d:f8:4b:fb:39:0a:45:49:81:31:41:3f:a9:bb:
                    7b:1c:8a:cf:31:09:c7:94:a7:70:4a:d4:bb:ea:61:
                    3d:9a:a1:8e:1b:8b:02:3b:1f:1f:c4:85:e9:7f:63:
                    0c:ea:e5:91:83:a8:5b:25:34:7c:a8:68:eb:97:6f:
                    74:99
                Exponent: 65537 (0x10001)
        X509v3 extensions:
            X509v3 Subject Key Identifier: 
                48:80:87:28:EF:E6:28:0F:03:9B:DF:33:48:10:A0:E5:20:B3:69:50
            X509v3 Authority Key Identifier: 
                keyid:80:49:61:8C:1D:13:08:56:B5:42:68:D5:B2:EA:89:2C:B4:8B:05:87
                DirName:/C=US/ST=Washington/L=Seattle/O=wolfSSL Inc./OU=Engineering/CN=chainH-ICA3-pathlen2/emailAddress=facts@wolfssl.com
                serial:64
            X509v3 Basic Constraints: 
                CA:TRUE, pathlen:0
            X509v3 Key Usage: 
                Certificate Sign, CRL Sign
    Signature Algorithm: sha256WithRSAEncryption
    Signature Value:
        1d:05:e1:a8:bc:03:58:f8:23:68:01:8a:c6:fb:9c:0f:c7:49:
        00:29:78:cc:bc:bd:3f:11:1b:42:29:26:00:4a:35:78:dd:45:
        50:44:85:d5:ed:bf:df:05:dd:06:7a:ec:24:fc:7f:2b:09:e2:
        5e:a1:0a:da:e8:a0:d3:dc:e4:25:a4:1c:da:3a:22:1e:b9:81:
        89:44:e3:0d:1b:4a:a5:91:cc:ad:30:33:6a:15:7f:52:9b:ef:
        bd:f3:f1:86:23:7b:2e:91:1c:6d:f7:83:4f:dc:3a:a5:c2:b3:
        2c:bf:3c:0b:e3:34:42:ea:88:3d:ae:33:91:a6:dd:26:14:df:
        69:11:4e:9d:f7:56:1c:6a:75:cd:f7:c6:62:62:6a:1f:76:92:
        c3:ed:35:f5:a3:fb:14:dd:6c:7c:bd:45:50:e9:c2:8a:e3:1c:
        5f:c0:ee:a9:b2:b4:ee:1e:65:f7:26:ca:78:c2:82:1d:83:72:
        40:d6:80:ba:ad:90:94:8e:8d:3b:21:28:36:44:9a:66:da:f9:
        c0:75:b5:78:c7:44:a0:f3:f1:24:c8:e9:06:2f:eb:05:55:4d:
        36:52:42:57:a8:2b:28:a0:8b:e7:7d:93:ef:cd:d6:ad:c2:5d:
        f9:0e:f7:2a:8c:47:fb:53:f8:ce:8f:97:a4:2f:de:99:6c:ff:
        a4:db:04:6c
-----BEGIN CERTIFICATE-----
MIIE1jCCA76gAwIBAgIBZDANBgkqhkiG9w0BAQsFADCBojELMAkGA1UEBhMCVVMx
EzARBgNVBAgMCldhc2hpbmd0b24xEDAOBgNVBAcMB1NlYXR0bGUxFTATBgNVBAoM
DHdvbGZTU0wgSW5jLjEUMBIGA1UECwwLRW5naW5lZXJpbmcxHTAbBgNVBAMMFGNo
YWluSC1JQ0EyLXBhdGhsZW4yMSAwHgYJKoZIhvcNAQkBFhFmYWN0c0B3b2xmc3Ns
LmNvbTAeFw0yNjA2MTEyMTQ0NDBaFw0yOTAzMDcyMTQ0NDBaMIGiMQswCQYDVQQG
EwJVUzETMBEGA1UECAwKV2FzaGluZ3RvbjEQMA4GA1UEBwwHU2VhdHRsZTEVMBMG
A1UECgwMd29sZlNTTCBJbmMuMRQwEgYDVQQLDAtFbmdpbmVlcmluZzEdMBsGA1UE
AwwUY2hhaW5ILUlDQTEtcGF0aGxlbjAxIDAeBgkqhkiG9w0BCQEWEWZhY3RzQHdv
bGZzc2wuY29tMIIBIjANBgkqhkiG9w0BAQEFAAOCAQ8AMIIBCgKCAQEAx/SmfvLL
T24EGNNT1c+/fpfRdJT+261hPxIgZ/MQg3tRQ6MMILc1Y/EK7ll0gnL70dQScewO
j2nJ+6+nL8Q7LGY0q6yAwm1KDlT+9j46ACWEp8tC1ehHBJTkaMP1Mq0hidhe+Yju
fc6Roxb8h3YfLx1MsS89TfQKbAT9Sc9RiEnEA2VjHsjxNB1ENFiv9eyQKoypOHvc
+l/tAO0IU033NhDtcUGq47/oXe5ONjlXfvT9w/eKUg/xN3IrrpB3ANZ87OzujfhL
+zkKRUmBMUE/qbt7HIrPMQnHlKdwStS76mE9mqGOG4sCOx8fxIXpf2MM6uWRg6hb
JTR8qGjrl290mQIDAQABo4IBEzCCAQ8wHQYDVR0OBBYEFEiAhyjv5igPA5vfM0gQ
oOUgs2lQMIHPBgNVHSMEgccwgcSAFIBJYYwdEwhWtUJo1bLqiSy0iwWHoYGopIGl
MIGiMQswCQYDVQQGEwJVUzETMBEGA1UECAwKV2FzaGluZ3RvbjEQMA4GA1UEBwwH
U2VhdHRsZTEVMBMGA1UECgwMd29sZlNTTCBJbmMuMRQwEgYDVQQLDAtFbmdpbmVl
cmluZzEdMBsGA1UEAwwUY2hhaW5ILUlDQTMtcGF0aGxlbjIxIDAeBgkqhkiG9w0B
CQEWEWZhY3RzQHdvbGZzc2wuY29tggFkMA8GA1UdEwQIMAYBAf8CAQAwCwYDVR0P
BAQDAgEGMA0GCSqGSIb3DQEBCwUAA4IBAQAdBeGovANY+CNoAYrG+5wPx0kAKXjM
vL0/ERtCKSYASjV43UVQRIXV7b/fBd0Geuwk/H8rCeJeoQra6KDT3OQlpBzaOiIe
uYGJROMNG0qlkcytMDNqFX9Sm++98/GGI3sukRxt94NP3DqlwrMsvzwL4zRC6og9
rjORpt0mFN9pEU6d91YcanXN98ZiYmofdpLD7TX1o/sU3Wx8vUVQ6cKK4xxfwO6p
srTuHmX3Jsp4woIdg3JA1oC6rZCUjo07ISg2RJpm2vnAdbV4x0Sg8/EkyOkGL+sF
VU02UkJXqCsooIvnfZPvzdatwl35DvcqjEf7U/jOj5ekL96ZbP+k2wRs
-----END CERTIFICATE-----
Certificate:
    Data:
        Version: 3 (0x2)
        Serial Number: 100 (0x64)
        Signature Algorithm: sha256WithRSAEncryption
        Issuer: C=US, ST=Washington, L=Seattle, O=wolfSSL Inc., OU=Engineering, CN=chainH-ICA3-pathlen2, emailAddress=facts@wolfssl.com
        Validity
            Not Before: Jun 11 21:44:40 2026 GMT
            Not After : Mar  7 21:44:40 2029 GMT
        Subject: C=US, ST=Washington, L=Seattle, O=wolfSSL Inc., OU=Engineering, CN=chainH-ICA2-pathlen2, emailAddress=facts@wolfssl.com
        Subject Public Key Info:
            Public Key Algorithm: rsaEncryption
                Public-Key: (2048 bit)
                Modulus:
                    00:d9:b5:af:4b:ba:83:03:23:df:50:28:a8:c2:0c:
                    2c:f0:04:cb:2d:04:9b:1e:f5:f4:68:bc:d4:8e:b4:
                    cd:46:04:a2:f5:14:9e:3e:33:d6:76:2d:54:f9:d5:
                    41:b5:7a:47:93:1a:54:80:a4:3d:8b:9d:80:ea:1c:
                    3a:3a:bb:d1:d4:b6:f1:f2:a3:bd:9e:5d:b8:85:01:
                    d7:c8:a0:27:f6:67:41:94:c5:95:91:11:cb:96:fc:
                    95:a9:bc:b5:be:58:77:5c:2b:9b:e9:24:7e:8b:6e:
                    10:a7:d5:3a:fa:05:21:27:14:d8:d2:5f:a2:58:12:
                    b4:d9:bd:88:1a:f1:e7:4c:9d:60:31:0b:1f:3f:8b:
                    af:3a:d9:ca:cf:d4:73:1b:b8:b0:3d:d5:96:5d:4e:
                    a3:62:8f:56:eb:3d:4c:f0:21:4f:f4:8c:c7:55:dd:
                    a6:dc:d9:15:a1:12:db:73:4d:bf:18:89:42:92:0e:
                    83:be:4f:aa:ee:8f:a8:ef:a1:27:01:73:16:29:c0:
                    e8:8c:23:c8:ff:95:68:cd:53:67:49:e5:73:b1:ec:
                    62:60:51:20:e8:a6:49:28:f5:2b:16:30:e8:8b:a6:
                    2f:f4:b7:37:99:8c:32:30:97:5d:16:bf:6b:5e:ba:
                    34:1f:d6:1b:2e:fc:79:f0:00:61:aa:a0:7a:2f:7b:
                    d2:83
                Exponent: 65537 (0x10001)
        X509v3 extensions:
            X509v3 Subject Key Identifier: 
                80:49:61:8C:1D:13:08:56:B5:42:68:D5:B2:EA:89:2C:B4:8B:05:87
            X509v3 Authority Key Identifier: 
                keyid:56:54:36:BE:23:2F:20:89:6D:A6:BA:9A:45:A4:88:0E:40:35:FD:F5
                DirName:/C=US/ST=Washington/L=Seattle/O=wolfSSL Inc./OU=Engineering/CN=chainH-ICA4-pathlen2/emailAddress=facts@wolfssl.com
                serial:64
            X509v3 Basic Constraints: 
                CA:TRUE, pathlen:2
            X509v3 Key Usage: 
                Certificate Sign, CRL Sign
    Signature Algorithm: sha256WithRSAEncryption
    Signature Value:
        71:12:f8:d0:6b:51:ce:25:ff:e8:3a:6a:6a:65:25:af:fc:36:
        5c:f4:07:6d:4a:49:30:c4:16:a8:bc:17:ca:60:c2:6d:31:96:
        ea:17:83:6f:1a:f4:b2:85:d6:d8:b1:52:e2:4f:1f:c4:7a:29:
        4c:07:23:04:a5:77:cc:2c:5a:8e:0a:74:df:28:ce:15:60:5a:
        a6:2f:d0:f8:98:5e:f8:62:1c:03:b0:c5:08:f9:df:a5:92:43:
        98:8d:ec:5b:cf:99:8e:85:8f:ee:b5:8b:b0:1a:02:80:a5:e2:
        70:35:56:4d:34:49:1d:2f:84:58:64:9c:01:9a:2d:0c:87:b4:
        90:29:c3:44:16:b9:ad:18:6d:fb:90:14:53:c1:7a:83:2a:5d:
        aa:e6:47:f6:cf:52:b2:10:1f:fc:c3:8d:92:3d:b8:c0:d6:a5:
        d3:e7:2a:06:42:88:e7:32:bf:65:78:89:fd:02:02:ed:b3:9c:
        6a:86:33:5a:78:d7:d3:df:1e:a4:72:08:45:1a:0a:a0:70:98:
        c6:28:70:7f:f7:9d:e1:8f:f1:15:5e:1e:7f:c9:b0:bb:fa:dc:
        bf:d2:81:ea:c7:9b:4e:28:3e:23:b8:6d:b0:d8:c1:12:0c:e8:
        da:02:4c:ec:80:41:93:15:8a:f4:fe:b5:da:fb:70:e4:14:6d:
        bd:02:94:b4
-----BEGIN CERTIFICATE-----
MIIE1jCCA76gAwIBAgIBZDANBgkqhkiG9w0BAQsFADCBojELMAkGA1UEBhMCVVMx
EzARBgNVBAgMCldhc2hpbmd0b24xEDAOBgNVBAcMB1NlYXR0bGUxFTATBgNVBAoM
DHdvbGZTU0wgSW5jLjEUMBIGA1UECwwLRW5naW5lZXJpbmcxHTAbBgNVBAMMFGNo
YWluSC1JQ0EzLXBhdGhsZW4yMSAwHgYJKoZIhvcNAQkBFhFmYWN0c0B3b2xmc3Ns
LmNvbTAeFw0yNjA2MTEyMTQ0NDBaFw0yOTAzMDcyMTQ0NDBaMIGiMQswCQYDVQQG
EwJVUzETMBEGA1UECAwKV2FzaGluZ3RvbjEQMA4GA1UEBwwHU2VhdHRsZTEVMBMG
A1UECgwMd29sZlNTTCBJbmMuMRQwEgYDVQQLDAtFbmdpbmVlcmluZzEdMBsGA1UE
AwwUY2hhaW5ILUlDQTItcGF0aGxlbjIxIDAeBgkqhkiG9w0BCQEWEWZhY3RzQHdv
bGZzc2wuY29tMIIBIjANBgkqhkiG9w0BAQEFAAOCAQ8AMIIBCgKCAQEA2bWvS7qD
AyPfUCiowgws8ATLLQSbHvX0aLzUjrTNRgSi9RSePjPWdi1U+dVBtXpHkxpUgKQ9
i52A6hw6OrvR1Lbx8qO9nl24hQHXyKAn9mdBlMWVkRHLlvyVqby1vlh3XCub6SR+
i24Qp9U6+gUhJxTY0l+iWBK02b2IGvHnTJ1gMQsfP4uvOtnKz9RzG7iwPdWWXU6j
Yo9W6z1M8CFP9IzHVd2m3NkVoRLbc02/GIlCkg6Dvk+q7o+o76EnAXMWKcDojCPI
/5VozVNnSeVzsexiYFEg6KZJKPUrFjDoi6Yv9Lc3mYwyMJddFr9rXro0H9YbLvx5
8ABhqqB6L3vSgwIDAQABo4IBEzCCAQ8wHQYDVR0OBBYEFIBJYYwdEwhWtUJo1bLq
iSy0iwWHMIHPBgNVHSMEgccwgcSAFFZUNr4jLyCJbaa6mkWkiA5ANf31oYGopIGl
MIGiMQswCQYDVQQGEwJVUzETMBEGA1UECAwKV2FzaGluZ3RvbjEQMA4GA1UEBwwH
U2VhdHRsZTEVMBMGA1UECgwMd29sZlNTTCBJbmMuMRQwEgYDVQQLDAtFbmdpbmVl
cmluZzEdMBsGA1UEAwwUY2hhaW5ILUlDQTQtcGF0aGxlbjIxIDAeBgkqhkiG9w0B
CQEWEWZhY3RzQHdvbGZzc2wuY29tggFkMA8GA1UdEwQIMAYBAf8CAQIwCwYDVR0P
BAQDAgEGMA0GCSqGSIb3DQEBCwUAA4IBAQBxEvjQa1HOJf/oOmpqZSWv/DZc9Adt
SkkwxBaovBfKYMJtMZbqF4NvGvSyhdbYsVLiTx/EeilMByMEpXfMLFqOCnTfKM4V
YFqmL9D4mF74YhwDsMUI+d+lkkOYjexbz5mOhY/utYuwGgKApeJwNVZNNEkdL4RY
ZJwBmi0Mh7SQKcNEFrmtGG37kBRTwXqDKl2q5kf2z1KyEB/8w42SPbjA1qXT5yoG
QojnMr9leIn9AgLts5xqhjNaeNfT3x6kcghFGgqgcJjGKHB/953hj/EVXh5/ybC7
+ty/0oHqx5tOKD4juG2w2MESDOjaAkzsgEGTFYr0/rXa+3DkFG29ApS0
-----END CERTIFICATE-----
Certificate:
    Data:
        Version: 3 (0x2)
        Serial Number: 100 (0x64)
        Signature Algorithm: sha256WithRSAEncryption
        Issuer: C=US, ST=Washington, L=Seattle, O=wolfSSL Inc., OU=Engineering, CN=chainH-ICA4-pathlen2, emailAddress=facts@wolfssl.com
        Validity
            Not Before: Jun 11 21:44:39 2026 GMT
            Not After : Mar  7 21:44:39 2029 GMT
        Subject: C=US, ST=Washington, L=Seattle, O=wolfSSL Inc., OU=Engineering, CN=chainH-ICA3-pathlen2, emailAddress=facts@wolfssl.com
        Subject Public Key Info:
            Public Key Algorithm: rsaEncryption
                Public-Key: (2048 bit)
                Modulus:
                    00:b7:b3:1a:1b:4a:80:1b:a2:e5:95:14:bc:55:e4:
                    77:dc:f3:7b:8a:9f:34:7c:93:db:c9:c9:d0:8b:b8:
                    87:45:65:d3:a1:7d:46:f3:70:92:a9:d7:66:ef:3b:
                    b4:a8:16:b0:f0:be:67:70:aa:45:7b:09:bc:ca:77:
                    db:57:a4:24:54:0b:1a:da:5f:ad:64:a3:f1:49:83:
                    bc:9f:5d:c4:b4:da:43:04:aa:cc:c3:b0:4d:c2:f1:
                    73:c9:38:0d:4c:c9:ab:db:df:09:b3:5c:15:0b:66:
                    79:ad:6c:63:d1:38:cc:a6:2d:46:83:ce:19:1d:c1:
                    0b:6e:fc:38:b7:d8:8c:a2:6f:29:87:9b:21:cd:b0:
                    6b:e0:f8:1f:03:db:82:1d:8d:98:63:16:b6:74:47:
                    43:20:f2:a1:4b:16:8b:67:fd:bc:73:78:9b:f9:dd:
                    ba:49:d9:60:a9:b7:85:66:7f:a4:2a:05:c8:2d:93:
                    a0:9b:aa:bf:a6:31:e1:f2:c8:d3:1b:7b:79:d1:b6:
                    6c:ae:3b:6b:00:2e:6e:ae:10:dc:6c:88:dc:1b:93:
                    e8:56:99:8d:46:7e:49:3a:87:a0:b3:00:cc:2e:3b:
                    83:e1:6b:39:16:71:47:47:30:6d:6b:6c:9c:9f:e6:
                    ce:ec:20:2f:8f:c1:5d:ef:d3:84:32:6c:a5:cc:78:
                    fe:a1
                Exponent: 65537 (0x10001)
        X509v3 extensions:
            X509v3 Subject Key Identifier: 
                56:54:36:BE:23:2F:20:89:6D:A6:BA:9A:45:A4:88:0E:40:35:FD:F5
            X509v3 Authority Key Identifier: 
                keyid:18:6D:44:83:EE:1F:EC:B4:22:F0:9C:EB:54:1E:4A:15:58:01:AA:13
                DirName:/C=US/ST=Montana/L=Bozeman/O=Sawtooth/OU=Consulting/CN=www.wolfssl.com/emailAddress=facts@wolfssl.com
                serial:64
            X509v3 Basic Constraints: 
                CA:TRUE, pathlen:2
            X509v3 Key Usage: 
                Certificate Sign, CRL Sign
    Signature Algorithm: sha256WithRSAEncryption
    Signature Value:
        3d:48:73:48:23:35:23:ac:72:9d:8c:df:00:8c:e3:34:1f:02:
        7d:7b:61:0a:14:74:61:4f:90:0c:ec:c1:f9:b7:de:49:57:5f:
        cf:c6:02:b5:2f:51:7a:ef:e1:fa:78:8f:ba:e6:ca:ac:f7:c2:
        b1:d3:51:cf:25:ac:d7:f1:ce:4e:94:ad:67:1e:4c:78:11:ea:
        7b:da:c9:1c:b0:b1:9e:f9:04:87:e5:03:07:03:b5:9f:6a:6d:
        ac:97:0c:32:fb:71:63:3b:dc:e6:9a:1d:00:fe:c5:37:ed:ce:
        8d:3d:71:d2:3a:e3:0f:3a:1a:cc:31:36:58:ac:76:4c:be:df:
        d9:73:24:ca:6d:13:ba:b0:15:fd:00:a8:90:2e:fe:ca:7c:7b:
        0a:12:3c:c9:de:f6:3b:d1:d9:bf:94:9a:20:52:b7:d7:05:13:
        64:f2:0f:e3:e2:db:82:77:f2:61:58:35:b3:a1:6c:c5:8b:ce:
        ec:45:a5:f2:14:e6:bb:8d:9f:52:84:0e:2b:ba:9a:38:c5:29:
        5a:33:80:bd:01:1a:24:f6:50:1f:d1:d4:8a:ae:40:9f:d3:34:
        75:2d:43:e3:21:47:05:a8:97:07:f3:cd:b1:3a:1a:bb:27:81:
        91:ae:85:ee:2f:62:8e:ba:19:07:31:71:a8:06:c8:fd:36:7f:
        ec:05:49:b4
-----BEGIN CERTIFICATE-----
MIIEyTCCA7GgAwIBAgIBZDANBgkqhkiG9w0BAQsFADCBojELMAkGA1UEBhMCVVMx
EzARBgNVBAgMCldhc2hpbmd0b24xEDAOBgNVBAcMB1NlYXR0bGUxFTATBgNVBAoM
DHdvbGZTU0wgSW5jLjEUMBIGA1UECwwLRW5naW5lZXJpbmcxHTAbBgNVBAMMFGNo
YWluSC1JQ0E0LXBhdGhsZW4yMSAwHgYJKoZIhvcNAQkBFhFmYWN0c0B3b2xmc3Ns
LmNvbTAeFw0yNjA2MTEyMTQ0MzlaFw0yOTAzMDcyMTQ0MzlaMIGiMQswCQYDVQQG
EwJVUzETMBEGA1UECAwKV2FzaGluZ3RvbjEQMA4GA1UEBwwHU2VhdHRsZTEVMBMG
A1UECgwMd29sZlNTTCBJbmMuMRQwEgYDVQQLDAtFbmdpbmVlcmluZzEdMBsGA1UE
AwwUY2hhaW5ILUlDQTMtcGF0aGxlbjIxIDAeBgkqhkiG9w0BCQEWEWZhY3RzQHdv
bGZzc2wuY29tMIIBIjANBgkqhkiG9w0BAQEFAAOCAQ8AMIIBCgKCAQEAt7MaG0qA
G6LllRS8VeR33PN7ip80fJPbycnQi7iHRWXToX1G83CSqddm7zu0qBaw8L5ncKpF
ewm8ynfbV6QkVAsa2l+tZKPxSYO8n13EtNpDBKrMw7BNwvFzyTgNTMmr298Js1wV
C2Z5rWxj0TjMpi1Gg84ZHcELbvw4t9iMom8ph5shzbBr4PgfA9uCHY2YYxa2dEdD
IPKhSxaLZ/28c3ib+d26SdlgqbeFZn+kKgXILZOgm6q/pjHh8sjTG3t50bZsrjtr
AC5urhDcbIjcG5PoVpmNRn5JOoegswDMLjuD4Ws5FnFHRzBta2ycn+bO7CAvj8Fd
79OEMmylzHj+oQIDAQABo4IBBjCCAQIwHQYDVR0OBBYEFFZUNr4jLyCJbaa6mkWk
iA5ANf31MIHCBgNVHSMEgbowgbeAFBhtRIPuH+y0IvCc61QeShVYAaoToYGbpIGY
MIGVMQswCQYDVQQGEwJVUzEQMA4GA1UECAwHTW9udGFuYTEQMA4GA1UEBwwHQm96
ZW1hbjERMA8GA1UECgwIU2F3dG9vdGgxEzARBgNVBAsMCkNvbnN1bHRpbmcxGDAW
BgNVBAMMD3d3dy53b2xmc3NsLmNvbTEgMB4GCSqGSIb3DQEJARYRZmFjdHNAd29s
ZnNzbC5jb22CAWQwDwYDVR0TBAgwBgEB/wIBAjALBgNVHQ8EBAMCAQYwDQYJKoZI
hvcNAQELBQADggEBAD1Ic0gjNSOscp2M3wCM4zQfAn17YQoUdGFPkAzswfm33klX
X8/GArUvUXrv4fp4j7rmyqz3wrHTUc8lrNfxzk6UrWceTHgR6nvayRywsZ75BIfl
AwcDtZ9qbayXDDL7cWM73OaaHQD+xTftzo09cdI64w86GswxNlisdky+39lzJMpt
E7qwFf0AqJAu/sp8ewoSPMne9jvR2b+UmiBSt9cFE2TyD+Pi24J38mFYNbOhbMWL
zuxFpfIU5ruNn1KEDiu6mjjFKVozgL0BGiT2UB/R1IquQJ/TNHUtQ+MhRwWolwfz
zbE6GrsngZGuhe4vYo66GQcxcagGyP02f+wFSbQ=
-----END CERTIFICATE-----
Certificate:
    Data:
        Version: 3 (0x2)
        Serial Number: 100 (0x64)
        Signature Algorithm: sha256WithRSAEncryption
        Issuer: C=US, ST=Montana, L=Bozeman, O=Sawtooth, OU=Consulting, CN=www.wolfssl.com, emailAddress=facts@wolfssl.com
        Validity
            Not Before: Jun 11 21:44:39 2026 GMT
            Not After : Mar  7 21:44:39 2029 GMT
        Subject: C=US, ST=Washington, L=Seattle, O=wolfSSL Inc., OU=Engineering, CN=chainH-ICA4-pathlen2, emailAddress=facts@wolfssl.com
        Subject Public Key Info:
            Public Key Algorithm: rsaEncryption
                Public-Key: (2048 bit)
                Modulus:
                    00:bb:f3:2f:8a:cd:9e:87:f1:01:f3:a4:c0:2d:66:
                    36:d7:11:2e:64:08:e8:f1:99:fa:a6:9c:f4:bd:3b:
                    47:72:d2:0e:58:9d:3e:52:e7:da:a3:43:78:c3:c3:
                    93:e6:04:d3:ab:51:8a:1a:24:0e:7a:62:59:aa:c6:
                    42:9e:66:c1:61:5e:31:b1:4d:dc:37:a9:18:76:8d:
                    fe:cb:09:54:3f:4f:bb:5f:ab:ba:70:e9:b4:a1:5e:
                    a0:69:7e:45:3f:c0:cc:78:e9:f2:74:64:79:c2:6a:
                    16:d0:98:30:82:44:4a:b3:99:2c:66:30:ac:99:82:
                    04:2a:bf:0f:60:89:04:36:fa:29:d3:08:56:61:6a:
                    a8:33:40:9a:53:7d:20:a8:51:6f:9b:a0:d9:3e:dc:
                    9a:8b:1d:37:9e:ad:c9:fd:53:a7:04:dc:1f:36:3e:
                    d3:65:52:84:24:61:d0:4e:e2:41:60:bf:fb:fd:b2:
                    04:b3:3f:eb:14:99:5e:bc:e8:7d:e9:65:d1:3f:fe:
                    04:49:e5:bb:a3:2d:e3:db:96:df:d9:81:a0:32:d7:
                    01:b9:b8:02:8e:b9:a2:1f:0a:d4:24:17:3a:19:0f:
                    6d:3a:10:5f:5c:7d:b8:56:82:c7:7f:40:f0:2d:87:
                    63:c1:b1:d8:64:c7:3c:27:13:4a:63:82:21:b1:f2:
                    39:e9
                Exponent: 65537 (0x10001)
        X509v3 extensions:
            X509v3 Subject Key Identifier: 
                18:6D:44:83:EE:1F:EC:B4:22:F0:9C:EB:54:1E:4A:15:58:01:AA:13
            X509v3 Authority Key Identifier: 
                keyid:27:8E:67:11:74:C3:26:1D:3F:ED:33:63:B3:A4:D8:1D:30:E5:E8:D5
                DirName:/C=US/ST=Montana/L=Bozeman/O=Sawtooth/OU=Consulting/CN=www.wolfssl.com/emailAddress=facts@wolfssl.com
                serial:67:19:D2:A8:7F:E3:2D:FA:75:7A:4F:E7:B2:02:D9:AD:C4:77:5E:F8
            X509v3 Basic Constraints: 
                CA:TRUE, pathlen:2
            X509v3 Key Usage: 
                Certificate Sign, CRL Sign
    Signature Algorithm: sha256WithRSAEncryption
    Signature Value:
        aa:b3:65:03:e4:72:0f:02:74:36:bb:81:0f:d6:07:e2:26:7c:
        58:33:80:a8:cb:06:b0:d8:79:48:5e:e4:db:39:89:eb:42:5e:
        73:12:e6:bc:25:e5:86:4f:c0:4e:8d:d6:71:fa:17:c8:2e:50:
        7f:34:c9:33:ba:ac:c1:9e:bf:bd:46:e0:cb:81:ff:ee:be:72:
        81:e8:c5:d0:01:01:df:f7:3e:7d:aa:be:d2:0f:7f:3c:df:03:
        f2:d4:49:96:f7:d5:f6:f4:ef:12:c3:2f:6e:52:11:b6:1d:1e:
        3c:b3:b5:b7:aa:b9:a4:7f:73:f0:7f:f0:aa:2e:ec:ae:fc:30:
        aa:47:af:18:e5:6a:84:c1:6b:18:33:66:56:15:fa:30:a8:cd:
        f3:a0:b9:87:04:26:71:f2:12:97:b4:1f:30:79:21:4d:1c:73:
        65:e3:38:04:8b:25:be:e9:3e:25:68:0a:3e:d1:a4:e2:56:2e:
        a9:bd:39:b0:3a:5e:93:79:ad:f9:36:a2:22:09:49:78:26:31:
        3b:c7:c4:d0:27:1b:45:7e:12:37:2a:87:76:86:2d:50:e9:8e:
        f5:29:66:a7:e4:d4:02:44:0d:b7:15:20:89:e7:37:70:d5:8e:
        b3:69:92:a4:4d:c7:cd:c9:46:72:66:92:7e:a6:7a:5b:14:d6:
        ec:41:29:7f
-----BEGIN CERTIFICATE-----
MIIEzzCCA7egAwIBAgIBZDANBgkqhkiG9w0BAQsFADCBlTELMAkGA1UEBhMCVVMx
EDAOBgNVBAgMB01vbnRhbmExEDAOBgNVBAcMB0JvemVtYW4xETAPBgNVBAoMCFNh
d3Rvb3RoMRMwEQYDVQQLDApDb25zdWx0aW5nMRgwFgYDVQQDDA93d3cud29sZnNz
bC5jb20xIDAeBgkqhkiG9w0BCQEWEWZhY3RzQHdvbGZzc2wuY29tMB4XDTI2MDYx
MTIxNDQzOVoXDTI5MDMwNzIxNDQzOVowgaIxCzAJBgNVBAYTAlVTMRMwEQYDVQQI
DApXYXNoaW5ndG9uMRAwDgYDVQQHDAdTZWF0dGxlMRUwEwYDVQQKDAx3b2xmU1NM
IEluYy4xFDASBgNVBAsMC0VuZ2luZWVyaW5nMR0wGwYDVQQDDBRjaGFpbkgtSUNB
NC1wYXRobGVuMjEgMB4GCSqGSIb3DQEJARYRZmFjdHNAd29sZnNzbC5jb20wggEi
MA0GCSqGSIb3DQEBAQUAA4IBDwAwggEKAoIBAQC78y+KzZ6H8QHzpMAtZjbXES5k
COjxmfqmnPS9O0dy0g5YnT5S59qjQ3jDw5PmBNOrUYoaJA56YlmqxkKeZsFhXjGx
Tdw3qRh2jf7LCVQ/T7tfq7pw6bShXqBpfkU/wMx46fJ0ZHnCahbQmDCCREqzmSxm
MKyZggQqvw9giQQ2+inTCFZhaqgzQJpTfSCoUW+boNk+3JqLHTeercn9U6cE3B82
PtNlUoQkYdBO4kFgv/v9sgSzP+sUmV686H3pZdE//gRJ5bujLePblt/ZgaAy1wG5
uAKOuaIfCtQkFzoZD206EF9cfbhWgsd/QPAth2PBsdhkxzwnE0pjgiGx8jnpAgMB
AAGjggEZMIIBFTAdBgNVHQ4EFgQUGG1Eg+4f7LQi8JzrVB5KFVgBqhMwgdUGA1Ud
IwSBzTCByoAUJ45nEXTDJh0/7TNjs6TYHTDl6NWhgZukgZgwgZUxCzAJBgNVBAYT
AlVTMRAwDgYDVQQIDAdNb250YW5hMRAwDgYDVQQHDAdCb3plbWFuMREwDwYDVQQK
DAhTYXd0b290aDETMBEGA1UECwwKQ29uc3VsdGluZzEYMBYGA1UEAwwPd3d3Lndv
bGZzc2wuY29tMSAwHgYJKoZIhvcNAQkBFhFmYWN0c0B3b2xmc3NsLmNvbYIUZxnS
qH/jLfp1ek/nsgLZrcR3XvgwDwYDVR0TBAgwBgEB/wIBAjALBgNVHQ8EBAMCAQYw
DQYJKoZIhvcNAQELBQADggEBAKqzZQPkcg8CdDa7gQ/WB+ImfFgzgKjLBrDYeUhe
5Ns5ietCXnMS5rwl5YZPwE6N1nH6F8guUH80yTO6rMGev71G4MuB/+6+coHoxdAB
Ad/3Pn2qvtIPfzzfA/LUSZb31fb07xLDL25SEbYdHjyztbequaR/c/B/8Kou7K78
MKpHrxjlaoTBaxgzZlYV+jCozfOguYcEJnHyEpe0HzB5IU0cc2XjOASLJb7pPiVo
Cj7RpOJWLqm9ObA6XpN5rfk2oiIJSXgmMTvHxNAnG0V+Ejcqh3aGLVDpjvUpZqfk
1AJEDbcVIInnN3DVjrNpkqRNx83JRnJmkn6melsU1uxBKX8=
-----END CERTIFICATE-----
