Certificate:
    Data:
        Version: 3 (0x2)
        Serial Number: 100 (0x64)
        Signature Algorithm: sha256WithRSAEncryption
        Issuer: C = US, ST = Washington, L = Seattle, O = wolfSSL Inc., OU = Engineering, CN = chainG-ICA3-pathlen99, emailAddress = info@wolfssl.com
        Validity
            Not Before: May  7 07:39:05 2020 GMT
            Not After : Feb  1 07:39:05 2023 GMT
        Subject: C = US, ST = Washington, L = Seattle, O = wolfSSL Inc., OU = Engineering, CN = chainG-ICA2-pathlen1, emailAddress = info@wolfssl.com
        Subject Public Key Info:
            Public Key Algorithm: rsaEncryption
                RSA Public-Key: (2048 bit)
                Modulus:
                    00:d7:3e:de:b9:f9:a9:d7:8e:7a:4b:f2:f1:8c:f9:
                    3b:1c:ce:59:31:4c:57:0c:2e:8a:0f:90:f0:dc:27:
                    55:0b:10:c3:a2:e8:b9:39:75:17:d1:9d:99:43:94:
                    b2:f1:56:76:6b:b9:46:a6:b8:35:95:a1:d2:d0:ec:
                    8e:be:95:dc:78:17:0a:41:a1:23:df:cb:b2:87:cb:
                    2e:1d:02:7d:c4:fe:7a:f6:7a:d8:a5:8d:b5:11:1a:
                    e4:6b:d2:66:01:01:03:a7:3b:95:49:92:5d:c1:c7:
                    49:f0:1a:ef:00:71:37:99:5a:87:0a:40:de:55:0e:
                    68:89:dc:e7:a1:14:bf:9d:72:93:7e:48:29:e4:ea:
                    a6:4f:0a:7a:a5:a1:39:6c:21:84:3a:8f:ca:7a:35:
                    0b:0a:cd:12:67:3c:56:06:f5:9d:24:c9:8e:4a:82:
                    23:c8:38:7f:ac:98:b6:b2:57:dc:82:62:84:00:13:
                    7b:ea:73:80:26:4a:9b:c1:b4:0a:f1:fc:ff:46:58:
                    96:a0:21:a1:c9:8f:d9:99:74:41:0b:d0:6d:31:a7:
                    ab:87:92:76:51:42:ef:88:95:cc:2c:f2:9b:cc:d5:
                    29:a0:f7:aa:6b:e1:ab:32:16:cd:55:c4:15:80:69:
                    80:91:d8:78:2c:07:15:fd:c2:02:a4:f4:13:75:50:
                    b8:2b
                Exponent: 65537 (0x10001)
        X509v3 extensions:
            X509v3 Subject Key Identifier: 
                E1:E6:9B:28:CF:FD:AB:45:C1:B7:A7:C4:C9:58:FC:41:E3:1A:5C:74
            X509v3 Authority Key Identifier: 
                keyid:C1:CD:1F:81:13:82:24:3B:CF:64:51:7A:4C:E3:65:2E:75:1E:01:23
                DirName:/C=US/ST=Washington/L=Seattle/O=wolfSSL Inc./OU=Engineering/CN=chainG-ICA4-pathlen5/emailAddress=info@wolfssl.com
                serial:64

            X509v3 Basic Constraints: 
                CA:TRUE, pathlen:1
            X509v3 Key Usage: 
                Certificate Sign, CRL Sign
    Signature Algorithm: sha256WithRSAEncryption
         6f:69:6c:e6:90:b2:20:d6:98:dc:52:e9:49:34:cd:cc:64:78:
         36:18:d8:aa:4f:52:b5:ae:21:07:74:d2:af:06:f8:59:10:29:
         de:6e:75:65:ea:cb:0e:c0:9a:64:77:71:5f:e2:0e:01:9e:70:
         ae:86:c6:c7:f0:47:95:1c:27:b2:ea:13:8f:4d:44:e7:82:17:
         90:58:f1:17:d8:ec:9a:f2:07:03:8a:53:3f:2c:b3:89:ad:46:
         f5:0a:58:29:31:98:6b:af:a2:4b:da:93:6d:4c:1a:49:ea:eb:
         f9:66:00:16:94:c4:08:fa:66:94:d5:eb:4d:fe:26:c9:cb:04:
         da:cf:f3:ca:9a:ce:21:84:7d:ef:14:d9:90:b6:cc:68:ed:9b:
         2a:d7:1b:da:59:f9:ea:89:61:34:c1:5b:aa:94:90:71:f2:ed:
         b2:2b:5a:63:56:71:8a:ce:f7:3e:86:2d:70:9b:8e:d8:e4:f2:
         64:bc:99:53:25:ea:7b:24:d7:0a:97:1b:84:26:5c:d5:d8:f1:
         61:cd:08:6c:58:c2:42:b5:01:66:78:a8:ec:a5:0b:aa:d8:2c:
         f3:08:0d:f3:d7:e0:6a:70:3a:4a:77:51:a7:39:36:48:f7:37:
         06:df:69:ec:80:2c:0b:33:74:72:d3:2f:0a:56:dd:0c:3c:f4:
         25:33:f8:6f
-----BEGIN CERTIFICATE-----
MIIE1DCCA7ygAwIBAgIBZDANBgkqhkiG9w0BAQsFADCBojELMAkGA1UEBhMCVVMx
EzARBgNVBAgMCldhc2hpbmd0b24xEDAOBgNVBAcMB1NlYXR0bGUxFTATBgNVBAoM
DHdvbGZTU0wgSW5jLjEUMBIGA1UECwwLRW5naW5lZXJpbmcxHjAcBgNVBAMMFWNo
YWluRy1JQ0EzLXBhdGhsZW45OTEfMB0GCSqGSIb3DQEJARYQaW5mb0B3b2xmc3Ns
LmNvbTAeFw0yMDA1MDcwNzM5MDVaFw0yMzAyMDEwNzM5MDVaMIGhMQswCQYDVQQG
EwJVUzETMBEGA1UECAwKV2FzaGluZ3RvbjEQMA4GA1UEBwwHU2VhdHRsZTEVMBMG
A1UECgwMd29sZlNTTCBJbmMuMRQwEgYDVQQLDAtFbmdpbmVlcmluZzEdMBsGA1UE
AwwUY2hhaW5HLUlDQTItcGF0aGxlbjExHzAdBgkqhkiG9w0BCQEWEGluZm9Ad29s
ZnNzbC5jb20wggEiMA0GCSqGSIb3DQEBAQUAA4IBDwAwggEKAoIBAQDXPt65+anX
jnpL8vGM+TsczlkxTFcMLooPkPDcJ1ULEMOi6Lk5dRfRnZlDlLLxVnZruUamuDWV
odLQ7I6+ldx4FwpBoSPfy7KHyy4dAn3E/nr2etiljbURGuRr0mYBAQOnO5VJkl3B
x0nwGu8AcTeZWocKQN5VDmiJ3OehFL+dcpN+SCnk6qZPCnqloTlsIYQ6j8p6NQsK
zRJnPFYG9Z0kyY5KgiPIOH+smLayV9yCYoQAE3vqc4AmSpvBtArx/P9GWJagIaHJ
j9mZdEEL0G0xp6uHknZRQu+Ilcws8pvM1Smg96pr4asyFs1VxBWAaYCR2HgsBxX9
wgKk9BN1ULgrAgMBAAGjggESMIIBDjAdBgNVHQ4EFgQU4eabKM/9q0XBt6fEyVj8
QeMaXHQwgc4GA1UdIwSBxjCBw4AUwc0fgROCJDvPZFF6TONlLnUeASOhgaekgaQw
gaExCzAJBgNVBAYTAlVTMRMwEQYDVQQIDApXYXNoaW5ndG9uMRAwDgYDVQQHDAdT
ZWF0dGxlMRUwEwYDVQQKDAx3b2xmU1NMIEluYy4xFDASBgNVBAsMC0VuZ2luZWVy
aW5nMR0wGwYDVQQDDBRjaGFpbkctSUNBNC1wYXRobGVuNTEfMB0GCSqGSIb3DQEJ
ARYQaW5mb0B3b2xmc3NsLmNvbYIBZDAPBgNVHRMECDAGAQH/AgEBMAsGA1UdDwQE
AwIBBjANBgkqhkiG9w0BAQsFAAOCAQEAb2ls5pCyINaY3FLpSTTNzGR4NhjYqk9S
ta4hB3TSrwb4WRAp3m51ZerLDsCaZHdxX+IOAZ5wrobGx/BHlRwnsuoTj01E54IX
kFjxF9jsmvIHA4pTPyyzia1G9QpYKTGYa6+iS9qTbUwaSerr+WYAFpTECPpmlNXr
Tf4mycsE2s/zyprOIYR97xTZkLbMaO2bKtcb2ln56olhNMFbqpSQcfLtsitaY1Zx
is73PoYtcJuO2OTyZLyZUyXqeyTXCpcbhCZc1djxYc0IbFjCQrUBZnio7KULqtgs
8wgN89fganA6SndRpzk2SPc3Bt9p7IAsCzN0ctMvClbdDDz0JTP4bw==
-----END CERTIFICATE-----
