Certificate:
    Data:
        Version: 3 (0x2)
        Serial Number:
            30:21:88:91:43:19:0d:b6:09:47:0a:f9:2a:b1:e0:50:88:4a:99:07
        Signature Algorithm: sha256WithRSAEncryption
        Issuer: CN=wolfssl-sia-timestamping-test
        Validity
            Not Before: Jun 11 21:44:28 2026 GMT
            Not After : Jun  8 21:44:28 2036 GMT
        Subject: CN=wolfssl-sia-timestamping-test
        Subject Public Key Info:
            Public Key Algorithm: rsaEncryption
                Public-Key: (2048 bit)
                Modulus:
                    00:cf:71:b9:ff:b2:3f:38:6e:d1:d8:4f:02:9b:1e:
                    fb:7b:05:4a:fc:64:23:ad:6a:54:58:7a:83:ba:a4:
                    0e:e3:6b:26:cf:9e:d5:87:a3:5d:80:d6:1d:a4:46:
                    d9:cf:f4:e7:cd:9d:bc:b9:da:dc:4a:7e:f4:04:e3:
                    4c:20:8a:8c:95:9b:6b:01:fa:ab:cf:82:20:89:e6:
                    05:34:0d:9c:e2:8f:26:c2:d5:d7:47:56:aa:82:d2:
                    93:ee:7f:3a:41:21:8e:05:b0:f6:eb:02:8c:a2:14:
                    44:c8:c9:27:69:57:75:b0:18:b8:4d:0f:44:5d:2d:
                    b3:dc:6d:39:04:e6:62:51:5f:5e:cd:ef:b1:0f:c5:
                    11:d1:04:65:db:da:26:80:c9:2a:46:b9:c8:d9:4d:
                    7a:13:35:04:8a:7a:3e:fa:e3:48:88:38:10:b5:16:
                    6a:24:f5:5d:85:00:fd:76:a0:22:cc:b5:86:f4:76:
                    e0:08:b3:04:36:d1:a7:df:3c:71:73:5e:5f:a1:52:
                    1f:9f:82:db:26:e8:c2:15:4a:f6:0b:1e:0b:85:7b:
                    f3:dc:36:15:2b:5c:be:6c:06:bb:09:46:25:20:bc:
                    c2:96:e2:32:f9:26:ae:92:79:68:29:6d:54:0a:f7:
                    15:4c:ae:90:38:fd:93:cc:b4:a5:10:cd:ac:7f:b5:
                    1b:a9
                Exponent: 65537 (0x10001)
        X509v3 extensions:
            X509v3 Subject Key Identifier: 
                66:41:85:07:C4:77:A5:B1:0D:3C:33:8C:92:75:03:5A:38:03:EE:C9
            X509v3 Basic Constraints: 
                CA:FALSE
            Subject Information Access: 
                Time Stamping - URI:http://example.com/tsa
    Signature Algorithm: sha256WithRSAEncryption
    Signature Value:
        64:30:80:2e:fc:a8:1f:07:fd:e9:9e:c6:15:5b:f8:d5:d5:15:
        53:9c:e5:4d:20:b8:9a:c1:29:33:38:18:36:83:49:51:7e:92:
        1a:6d:70:de:36:97:c1:b1:80:d6:1c:fb:63:ab:3c:ec:84:cc:
        fa:30:c5:1a:04:fd:97:32:df:02:82:4b:48:9e:d7:3b:e2:2d:
        eb:82:2a:29:d7:6f:b6:d7:71:8b:51:13:c5:65:0e:e1:67:ac:
        8d:a0:c7:eb:1f:8f:05:cc:a7:fb:47:64:83:5b:8d:8c:c4:d7:
        76:39:96:cd:19:3d:81:bb:62:9f:4e:69:bd:0d:b8:b1:23:f7:
        8e:8a:ff:32:da:e7:04:cd:59:34:d1:df:a9:93:63:b0:71:09:
        6a:08:86:f7:72:da:de:72:f4:fc:74:81:c8:73:0f:67:c3:eb:
        a6:92:24:23:10:07:77:22:c7:db:32:cb:0d:62:9c:96:fe:5e:
        08:14:8b:12:8d:cf:f2:9e:ab:73:a3:ee:9b:00:95:9a:f5:5a:
        da:77:32:bc:f1:ae:94:38:97:e1:52:db:bc:24:a7:f7:0e:6e:
        ff:13:16:29:2d:22:3a:46:3f:ca:ec:e9:a0:9e:fb:46:0b:b5:
        ac:cd:30:e0:70:1c:50:43:56:da:f4:4d:d1:45:a7:28:b5:8e:
        33:8f:7e:3c
-----BEGIN CERTIFICATE-----
MIIDPjCCAiagAwIBAgIUMCGIkUMZDbYJRwr5KrHgUIhKmQcwDQYJKoZIhvcNAQEL
BQAwKDEmMCQGA1UEAwwdd29sZnNzbC1zaWEtdGltZXN0YW1waW5nLXRlc3QwHhcN
MjYwNjExMjE0NDI4WhcNMzYwNjA4MjE0NDI4WjAoMSYwJAYDVQQDDB13b2xmc3Ns
LXNpYS10aW1lc3RhbXBpbmctdGVzdDCCASIwDQYJKoZIhvcNAQEBBQADggEPADCC
AQoCggEBAM9xuf+yPzhu0dhPApse+3sFSvxkI61qVFh6g7qkDuNrJs+e1YejXYDW
HaRG2c/0582dvLna3Ep+9ATjTCCKjJWbawH6q8+CIInmBTQNnOKPJsLV10dWqoLS
k+5/OkEhjgWw9usCjKIURMjJJ2lXdbAYuE0PRF0ts9xtOQTmYlFfXs3vsQ/FEdEE
ZdvaJoDJKka5yNlNehM1BIp6PvrjSIg4ELUWaiT1XYUA/XagIsy1hvR24AizBDbR
p988cXNeX6FSH5+C2ybowhVK9gseC4V789w2FStcvmwGuwlGJSC8wpbiMvkmrpJ5
aCltVAr3FUyukDj9k8y0pRDNrH+1G6kCAwEAAaNgMF4wHQYDVR0OBBYEFGZBhQfE
d6WxDTwzjJJ1A1o4A+7JMAkGA1UdEwQCMAAwMgYIKwYBBQUHAQsEJjAkMCIGCCsG
AQUFBwMIhhZodHRwOi8vZXhhbXBsZS5jb20vdHNhMA0GCSqGSIb3DQEBCwUAA4IB
AQBkMIAu/KgfB/3pnsYVW/jV1RVTnOVNILiawSkzOBg2g0lRfpIabXDeNpfBsYDW
HPtjqzzshMz6MMUaBP2XMt8CgktIntc74i3rgiop12+213GLURPFZQ7hZ6yNoMfr
H48FzKf7R2SDW42MxNd2OZbNGT2Bu2KfTmm9DbixI/eOiv8y2ucEzVk00d+pk2Ow
cQlqCIb3ctrecvT8dIHIcw9nw+umkiQjEAd3IsfbMssNYpyW/l4IFIsSjc/ynqtz
o+6bAJWa9VradzK88a6UOJfhUtu8JKf3Dm7/ExYpLSI6Rj/K7OmgnvtGC7WszTDg
cBxQQ1ba9E3RRacotY4zj348
-----END CERTIFICATE-----
