Certificate:
    Data:
        Version: 3 (0x2)
        Serial Number:
            0a:24:55:a0:81:ab:0b:92:b7:e5:59:50:3e:7f:8d:0b:d0:15:0a:75
        Signature Algorithm: ecdsa-with-SHA256
        Issuer: C = US, ST = Washington, L = Seattle, O = Elliptic, OU = ECC256K1-CLI, CN = www.wolfssl.com, emailAddress = info@wolfssl.com
        Validity
            Not Before: Dec 13 22:19:28 2023 GMT
            Not After : Dec 10 22:19:28 2033 GMT
        Subject: C = US, ST = Washington, L = Seattle, O = Elliptic, OU = ECC256K1-CLI, CN = www.wolfssl.com, emailAddress = info@wolfssl.com
        Subject Public Key Info:
            Public Key Algorithm: id-ecPublicKey
                Public-Key: (256 bit)
                pub:
                    04:be:d0:47:66:a6:6a:6c:21:b6:72:71:ce:20:67:
                    61:05:b3:ef:b9:07:2c:31:6a:bb:6f:53:12:50:e9:
                    06:06:64:4b:14:bb:56:61:b3:0c:3f:72:f2:45:f7:
                    3b:96:39:76:57:52:93:e9:12:83:f1:d8:c5:87:11:
                    aa:5e:8e:a5:c9
                ASN1 OID: secp256k1
        X509v3 extensions:
            X509v3 Basic Constraints: 
                CA:FALSE
            Netscape Cert Type: 
                SSL Client, S/MIME
            X509v3 Subject Key Identifier: 
                6D:9A:0A:D6:4C:C9:43:6B:12:29:C4:B0:B5:49:8A:7F:BD:42:4B:87
            X509v3 Authority Key Identifier: 
                keyid:6D:9A:0A:D6:4C:C9:43:6B:12:29:C4:B0:B5:49:8A:7F:BD:42:4B:87

            X509v3 Key Usage: critical
                Digital Signature, Non Repudiation, Key Encipherment
            X509v3 Extended Key Usage: 
                TLS Web Client Authentication, E-mail Protection
    Signature Algorithm: ecdsa-with-SHA256
         30:45:02:21:00:89:22:af:09:dd:58:96:9b:a2:e3:fa:2e:13:
         2c:af:69:55:b3:83:f3:4b:85:14:1a:df:28:74:5f:d9:ed:b3:
         75:02:20:18:13:45:af:82:e7:65:f8:8c:8f:b3:6d:01:25:73:
         6c:8c:c9:ff:e9:43:b8:eb:ef:df:25:9a:62:f8:d7:ac:04
-----BEGIN CERTIFICATE-----
MIICxDCCAmqgAwIBAgIUCiRVoIGrC5K35VlQPn+NC9AVCnUwCgYIKoZIzj0EAwIw
gZkxCzAJBgNVBAYTAlVTMRMwEQYDVQQIDApXYXNoaW5ndG9uMRAwDgYDVQQHDAdT
ZWF0dGxlMREwDwYDVQQKDAhFbGxpcHRpYzEVMBMGA1UECwwMRUNDMjU2SzEtQ0xJ
MRgwFgYDVQQDDA93d3cud29sZnNzbC5jb20xHzAdBgkqhkiG9w0BCQEWEGluZm9A
d29sZnNzbC5jb20wHhcNMjMxMjEzMjIxOTI4WhcNMzMxMjEwMjIxOTI4WjCBmTEL
MAkGA1UEBhMCVVMxEzARBgNVBAgMCldhc2hpbmd0b24xEDAOBgNVBAcMB1NlYXR0
bGUxETAPBgNVBAoMCEVsbGlwdGljMRUwEwYDVQQLDAxFQ0MyNTZLMS1DTEkxGDAW
BgNVBAMMD3d3dy53b2xmc3NsLmNvbTEfMB0GCSqGSIb3DQEJARYQaW5mb0B3b2xm
c3NsLmNvbTBWMBAGByqGSM49AgEGBSuBBAAKA0IABL7QR2amamwhtnJxziBnYQWz
77kHLDFqu29TElDpBgZkSxS7VmGzDD9y8kX3O5Y5dldSk+kSg/HYxYcRql6Opcmj
gZAwgY0wCQYDVR0TBAIwADARBglghkgBhvhCAQEEBAMCBaAwHQYDVR0OBBYEFG2a
CtZMyUNrEinEsLVJin+9QkuHMB8GA1UdIwQYMBaAFG2aCtZMyUNrEinEsLVJin+9
QkuHMA4GA1UdDwEB/wQEAwIF4DAdBgNVHSUEFjAUBggrBgEFBQcDAgYIKwYBBQUH
AwQwCgYIKoZIzj0EAwIDSAAwRQIhAIkirwndWJabouP6LhMsr2lVs4PzS4UUGt8o
dF/Z7bN1AiAYE0Wvgudl+IyPs20BJXNsjMn/6UO46+/fJZpi+NesBA==
-----END CERTIFICATE-----
