Certificate:
    Data:
        Version: 3 (0x2)
        Serial Number:
            56:a2:3a:e2:e1:68:7f:54:91:3d:4a:c5:cb:6b:82:4a:84:9d:d9:25
        Signature Algorithm: ecdsa-with-SHA256
        Issuer: C = US, ST = Washington, L = Seattle, O = Elliptic, OU = ECC256BPR1-CLI, CN = www.wolfssl.com, emailAddress = info@wolfssl.com
        Validity
            Not Before: Sep 26 17:22:42 2023 GMT
            Not After : Sep 23 17:22:42 2033 GMT
        Subject: C = US, ST = Washington, L = Seattle, O = Elliptic, OU = ECC256BPR1-CLI, CN = www.wolfssl.com, emailAddress = info@wolfssl.com
        Subject Public Key Info:
            Public Key Algorithm: id-ecPublicKey
                Public-Key: (256 bit)
                pub:
                    04:8b:fc:31:bc:38:ed:78:d9:ad:d9:2b:c1:19:03:
                    23:29:a0:05:1b:53:e7:32:03:43:b4:09:e6:b4:3d:
                    93:45:4d:52:ca:3c:c9:04:13:23:b0:86:6f:a4:c7:
                    58:e9:21:89:e6:96:6a:81:0c:06:34:9f:c5:09:fa:
                    e0:fb:ed:62:29
                ASN1 OID: brainpoolP256r1
        X509v3 extensions:
            X509v3 Basic Constraints: 
                CA:FALSE
            Netscape Cert Type: 
                SSL Client, S/MIME
            X509v3 Subject Key Identifier: 
                19:91:39:A6:04:72:72:AF:16:14:C0:2B:3C:61:2B:C5:AE:5B:F3:9E
            X509v3 Authority Key Identifier: 
                DirName:/C=US/ST=Washington/L=Seattle/O=Elliptic/OU=ECC256BPR1-CLI/CN=www.wolfssl.com/emailAddress=info@wolfssl.com
                serial:56:A2:3A:E2:E1:68:7F:54:91:3D:4A:C5:CB:6B:82:4A:84:9D:D9:25
            X509v3 Key Usage: critical
                Digital Signature, Non Repudiation, Key Encipherment
            X509v3 Extended Key Usage: 
                TLS Web Client Authentication, E-mail Protection
    Signature Algorithm: ecdsa-with-SHA256
    Signature Value:
        30:44:02:20:20:06:30:5b:30:90:34:dc:99:7e:c0:ac:cd:b1:
        13:7f:30:1c:8c:3b:2a:78:b5:c8:be:d1:20:3c:bf:25:04:0c:
        02:20:0f:09:d6:f6:20:51:d8:e9:73:0a:e5:b5:7d:e5:11:65:
        5d:1c:b9:c5:04:4d:f9:52:6e:7d:a8:02:ae:5a:10:4b
-----BEGIN CERTIFICATE-----
MIIDdDCCAxugAwIBAgIUVqI64uFof1SRPUrFy2uCSoSd2SUwCgYIKoZIzj0EAwIw
gZsxCzAJBgNVBAYTAlVTMRMwEQYDVQQIDApXYXNoaW5ndG9uMRAwDgYDVQQHDAdT
ZWF0dGxlMREwDwYDVQQKDAhFbGxpcHRpYzEXMBUGA1UECwwORUNDMjU2QlBSMS1D
TEkxGDAWBgNVBAMMD3d3dy53b2xmc3NsLmNvbTEfMB0GCSqGSIb3DQEJARYQaW5m
b0B3b2xmc3NsLmNvbTAeFw0yMzA5MjYxNzIyNDJaFw0zMzA5MjMxNzIyNDJaMIGb
MQswCQYDVQQGEwJVUzETMBEGA1UECAwKV2FzaGluZ3RvbjEQMA4GA1UEBwwHU2Vh
dHRsZTERMA8GA1UECgwIRWxsaXB0aWMxFzAVBgNVBAsMDkVDQzI1NkJQUjEtQ0xJ
MRgwFgYDVQQDDA93d3cud29sZnNzbC5jb20xHzAdBgkqhkiG9w0BCQEWEGluZm9A
d29sZnNzbC5jb20wWjAUBgcqhkjOPQIBBgkrJAMDAggBAQcDQgAEi/wxvDjteNmt
2SvBGQMjKaAFG1PnMgNDtAnmtD2TRU1SyjzJBBMjsIZvpMdY6SGJ5pZqgQwGNJ/F
Cfrg++1iKaOCATgwggE0MAkGA1UdEwQCMAAwEQYJYIZIAYb4QgEBBAQDAgWgMB0G
A1UdDgQWBBQZkTmmBHJyrxYUwCs8YSvFrlvznjCBxQYDVR0jBIG9MIG6oYGhpIGe
MIGbMQswCQYDVQQGEwJVUzETMBEGA1UECAwKV2FzaGluZ3RvbjEQMA4GA1UEBwwH
U2VhdHRsZTERMA8GA1UECgwIRWxsaXB0aWMxFzAVBgNVBAsMDkVDQzI1NkJQUjEt
Q0xJMRgwFgYDVQQDDA93d3cud29sZnNzbC5jb20xHzAdBgkqhkiG9w0BCQEWEGlu
Zm9Ad29sZnNzbC5jb22CFFaiOuLhaH9UkT1KxctrgkqEndklMA4GA1UdDwEB/wQE
AwIF4DAdBgNVHSUEFjAUBggrBgEFBQcDAgYIKwYBBQUHAwQwCgYIKoZIzj0EAwID
RwAwRAIgIAYwWzCQNNyZfsCszbETfzAcjDsqeLXIvtEgPL8lBAwCIA8J1vYgUdjp
cwrltX3lEWVdHLnFBE35Um59qAKuWhBL
-----END CERTIFICATE-----
