Certificate:
    Data:
        Version: 3 (0x2)
        Serial Number:
            49:86:77:34:6d:2e:65:c2:12:b1:d7:e1:57:6f:33:ae:e3:3e:1a:46
        Signature Algorithm: ecdsa-with-SHA256
        Issuer: C = US, ST = Washington, L = Seattle, O = Eliptic, OU = ECC256K1-CLI, CN = www.wolfssl.com, emailAddress = info@wolfssl.com
        Validity
            Not Before: Feb 15 12:50:24 2022 GMT
            Not After : Feb 13 12:50:24 2032 GMT
        Subject: C = US, ST = Washington, L = Seattle, O = Eliptic, OU = ECC256K1-CLI, CN = www.wolfssl.com, emailAddress = info@wolfssl.com
        Subject Public Key Info:
            Public Key Algorithm: id-ecPublicKey
                Public-Key: (256 bit)
                pub:
                    04:1d:17:0a:f4:7e:1c:f1:85:8e:86:57:ee:d6:ba:
                    3b:18:59:e3:5d:de:a1:23:ec:c4:fa:76:cf:55:e4:
                    dd:87:0c:5e:c7:3b:54:ba:f9:2e:0d:9a:c5:cc:b8:
                    74:e0:12:4f:26:0f:9a:09:b8:58:8a:c5:a8:45:fe:
                    d5:93:a2:a7:66
                ASN1 OID: secp256k1
        X509v3 extensions:
            X509v3 Basic Constraints: 
                CA:FALSE
            Netscape Cert Type: 
                SSL Client, S/MIME
            X509v3 Subject Key Identifier: 
                1D:7F:31:DF:09:E1:22:E8:B5:CB:A7:7C:7F:D7:5A:23:CF:38:F3:D3
            X509v3 Authority Key Identifier: 
                keyid:1D:7F:31:DF:09:E1:22:E8:B5:CB:A7:7C:7F:D7:5A:23:CF:38:F3:D3

            X509v3 Key Usage: critical
                Digital Signature, Non Repudiation, Key Encipherment
            X509v3 Extended Key Usage: 
                TLS Web Client Authentication, E-mail Protection
    Signature Algorithm: ecdsa-with-SHA256
         30:44:02:20:6f:78:97:9b:f5:4c:c3:9c:f0:04:73:35:d1:40:
         ea:70:d9:29:c8:a0:3b:83:eb:7b:79:42:75:1e:5f:bd:9b:89:
         02:20:77:96:fa:60:f0:ae:0b:cc:2f:5b:35:f9:b9:e6:0e:9a:
         14:ff:d4:63:e7:03:13:b8:ac:f3:aa:14:66:06:b4:e7
-----BEGIN CERTIFICATE-----
MIICwTCCAmigAwIBAgIUSYZ3NG0uZcISsdfhV28zruM+GkYwCgYIKoZIzj0EAwIw
gZgxCzAJBgNVBAYTAlVTMRMwEQYDVQQIDApXYXNoaW5ndG9uMRAwDgYDVQQHDAdT
ZWF0dGxlMRAwDgYDVQQKDAdFbGlwdGljMRUwEwYDVQQLDAxFQ0MyNTZLMS1DTEkx
GDAWBgNVBAMMD3d3dy53b2xmc3NsLmNvbTEfMB0GCSqGSIb3DQEJARYQaW5mb0B3
b2xmc3NsLmNvbTAeFw0yMjAyMTUxMjUwMjRaFw0zMjAyMTMxMjUwMjRaMIGYMQsw
CQYDVQQGEwJVUzETMBEGA1UECAwKV2FzaGluZ3RvbjEQMA4GA1UEBwwHU2VhdHRs
ZTEQMA4GA1UECgwHRWxpcHRpYzEVMBMGA1UECwwMRUNDMjU2SzEtQ0xJMRgwFgYD
VQQDDA93d3cud29sZnNzbC5jb20xHzAdBgkqhkiG9w0BCQEWEGluZm9Ad29sZnNz
bC5jb20wVjAQBgcqhkjOPQIBBgUrgQQACgNCAAQdFwr0fhzxhY6GV+7WujsYWeNd
3qEj7MT6ds9V5N2HDF7HO1S6+S4NmsXMuHTgEk8mD5oJuFiKxahF/tWToqdmo4GQ
MIGNMAkGA1UdEwQCMAAwEQYJYIZIAYb4QgEBBAQDAgWgMB0GA1UdDgQWBBQdfzHf
CeEi6LXLp3x/11ojzzjz0zAfBgNVHSMEGDAWgBQdfzHfCeEi6LXLp3x/11ojzzjz
0zAOBgNVHQ8BAf8EBAMCBeAwHQYDVR0lBBYwFAYIKwYBBQUHAwIGCCsGAQUFBwME
MAoGCCqGSM49BAMCA0cAMEQCIG94l5v1TMOc8ARzNdFA6nDZKcigO4Pre3lCdR5f
vZuJAiB3lvpg8K4LzC9bNfm55g6aFP/UY+cDE7is86oUZga05w==
-----END CERTIFICATE-----
