Certificate:
    Data:
        Version: 3 (0x2)
        Serial Number:
            64:ec:26:cf:46:bb:b0:d3:b8:17:0e:4b:e5:1c:91:23:23:db:34:ae
        Signature Algorithm: ecdsa-with-SHA256
        Issuer: C = US, ST = Washington, L = Seattle, O = Eliptic, OU = ECC256BPR1-CLI, CN = www.wolfssl.com, emailAddress = info@wolfssl.com
        Validity
            Not Before: Feb 15 12:50:24 2022 GMT
            Not After : Feb 13 12:50:24 2032 GMT
        Subject: C = US, ST = Washington, L = Seattle, O = Eliptic, OU = ECC256BPR1-CLI, CN = www.wolfssl.com, emailAddress = info@wolfssl.com
        Subject Public Key Info:
            Public Key Algorithm: id-ecPublicKey
                Public-Key: (256 bit)
                pub:
                    04:93:3b:0a:2a:27:b3:90:43:87:d5:45:77:db:ff:
                    7f:94:69:f8:b8:ac:9b:c6:fa:36:77:22:7b:9b:26:
                    75:39:10:64:29:53:ca:37:c9:91:b6:41:14:b3:f2:
                    b3:26:d6:70:69:ef:ec:c4:89:ff:72:f4:bf:46:ac:
                    42:92:0b:42:1c
                ASN1 OID: brainpoolP256r1
        X509v3 extensions:
            X509v3 Basic Constraints: 
                CA:FALSE
            Netscape Cert Type: 
                SSL Client, S/MIME
            X509v3 Subject Key Identifier: 
                C7:C8:CF:E8:EA:F3:5B:D4:34:B9:D9:C0:44:A3:2A:D7:68:1A:B4:BD
            X509v3 Authority Key Identifier: 
                keyid:C7:C8:CF:E8:EA:F3:5B:D4:34:B9:D9:C0:44:A3:2A:D7:68:1A:B4:BD

            X509v3 Key Usage: critical
                Digital Signature, Non Repudiation, Key Encipherment
            X509v3 Extended Key Usage: 
                TLS Web Client Authentication, E-mail Protection
    Signature Algorithm: ecdsa-with-SHA256
         30:44:02:20:66:d0:fd:96:0c:61:f8:bc:6d:87:47:f5:81:65:
         65:df:22:8b:2e:ee:db:25:8c:31:da:42:86:ce:d7:63:de:5d:
         02:20:60:0c:5f:a5:ac:dd:4a:77:5b:ac:12:d6:c0:82:13:e0:
         f0:8a:18:7d:92:27:7b:9e:47:5e:66:f5:52:6b:b1:1f
-----BEGIN CERTIFICATE-----
MIICyTCCAnCgAwIBAgIUZOwmz0a7sNO4Fw5L5RyRIyPbNK4wCgYIKoZIzj0EAwIw
gZoxCzAJBgNVBAYTAlVTMRMwEQYDVQQIDApXYXNoaW5ndG9uMRAwDgYDVQQHDAdT
ZWF0dGxlMRAwDgYDVQQKDAdFbGlwdGljMRcwFQYDVQQLDA5FQ0MyNTZCUFIxLUNM
STEYMBYGA1UEAwwPd3d3LndvbGZzc2wuY29tMR8wHQYJKoZIhvcNAQkBFhBpbmZv
QHdvbGZzc2wuY29tMB4XDTIyMDIxNTEyNTAyNFoXDTMyMDIxMzEyNTAyNFowgZox
CzAJBgNVBAYTAlVTMRMwEQYDVQQIDApXYXNoaW5ndG9uMRAwDgYDVQQHDAdTZWF0
dGxlMRAwDgYDVQQKDAdFbGlwdGljMRcwFQYDVQQLDA5FQ0MyNTZCUFIxLUNMSTEY
MBYGA1UEAwwPd3d3LndvbGZzc2wuY29tMR8wHQYJKoZIhvcNAQkBFhBpbmZvQHdv
bGZzc2wuY29tMFowFAYHKoZIzj0CAQYJKyQDAwIIAQEHA0IABJM7Cions5BDh9VF
d9v/f5Rp+Lism8b6Nncie5smdTkQZClTyjfJkbZBFLPysybWcGnv7MSJ/3L0v0as
QpILQhyjgZAwgY0wCQYDVR0TBAIwADARBglghkgBhvhCAQEEBAMCBaAwHQYDVR0O
BBYEFMfIz+jq81vUNLnZwESjKtdoGrS9MB8GA1UdIwQYMBaAFMfIz+jq81vUNLnZ
wESjKtdoGrS9MA4GA1UdDwEB/wQEAwIF4DAdBgNVHSUEFjAUBggrBgEFBQcDAgYI
KwYBBQUHAwQwCgYIKoZIzj0EAwIDRwAwRAIgZtD9lgxh+Lxth0f1gWVl3yKLLu7b
JYwx2kKGztdj3l0CIGAMX6Ws3Up3W6wS1sCCE+Dwihh9kid7nkdeZvVSa7Ef
-----END CERTIFICATE-----
