Certificate:
    Data:
        Version: 3 (0x2)
        Serial Number:
            1c:4b:d0:af:bd:e0:72:0f:e1:27:8d:17:cb:a1:d2:c4:a8:06:ad:6a
        Signature Algorithm: ecdsa-with-SHA256
        Issuer: C=US, ST=Washington, L=Seattle, O=Elliptic, OU=ECC256BPR1-CLI, CN=www.wolfssl.com, emailAddress=facts@wolfssl.com
        Validity
            Not Before: Jun 11 21:44:27 2026 GMT
            Not After : Jun  8 21:44:27 2036 GMT
        Subject: C=US, ST=Washington, L=Seattle, O=Elliptic, OU=ECC256BPR1-CLI, CN=www.wolfssl.com, emailAddress=facts@wolfssl.com
        Subject Public Key Info:
            Public Key Algorithm: id-ecPublicKey
                Public-Key: (256 bit)
                pub:
                    04:4d:61:d2:65:c0:9b:ab:3e:fa:cc:9c:3c:a3:7d:
                    4d:af:b6:24:a7:1f:11:d3:d3:30:74:72:49:08:40:
                    14:b7:cc:85:ce:8e:eb:2c:69:0d:14:2d:48:53:13:
                    17:07:d4:86:6c:9c:9d:6d:74:95:68:f8:a7:92:44:
                    7a:be:09:c6:5a
                ASN1 OID: brainpoolP256r1
        X509v3 extensions:
            X509v3 Basic Constraints: 
                CA:FALSE
            Netscape Cert Type: 
                SSL Client, S/MIME
            X509v3 Subject Key Identifier: 
                70:81:68:1D:99:26:27:D0:83:41:89:CB:9E:A1:73:BD:41:C9:0E:EB
            X509v3 Key Usage: critical
                Digital Signature, Non Repudiation, Key Encipherment
            X509v3 Extended Key Usage: 
                TLS Web Client Authentication, E-mail Protection
    Signature Algorithm: ecdsa-with-SHA256
    Signature Value:
        30:44:02:20:4f:e0:3c:b3:c6:2a:2c:ff:a7:a9:7b:5f:46:4a:
        af:3c:7f:b5:ad:38:0a:d7:23:ef:26:c4:68:e0:ab:cd:f0:43:
        02:20:4a:f9:36:22:db:9f:54:ca:e6:9a:ea:2e:fa:d8:ad:93:
        b0:49:9b:34:d7:ee:5a:db:1c:24:4c:ba:cd:da:0a:99
-----BEGIN CERTIFICATE-----
MIICqjCCAlGgAwIBAgIUHEvQr73gcg/hJ40Xy6HSxKgGrWowCgYIKoZIzj0EAwIw
gZwxCzAJBgNVBAYTAlVTMRMwEQYDVQQIDApXYXNoaW5ndG9uMRAwDgYDVQQHDAdT
ZWF0dGxlMREwDwYDVQQKDAhFbGxpcHRpYzEXMBUGA1UECwwORUNDMjU2QlBSMS1D
TEkxGDAWBgNVBAMMD3d3dy53b2xmc3NsLmNvbTEgMB4GCSqGSIb3DQEJARYRZmFj
dHNAd29sZnNzbC5jb20wHhcNMjYwNjExMjE0NDI3WhcNMzYwNjA4MjE0NDI3WjCB
nDELMAkGA1UEBhMCVVMxEzARBgNVBAgMCldhc2hpbmd0b24xEDAOBgNVBAcMB1Nl
YXR0bGUxETAPBgNVBAoMCEVsbGlwdGljMRcwFQYDVQQLDA5FQ0MyNTZCUFIxLUNM
STEYMBYGA1UEAwwPd3d3LndvbGZzc2wuY29tMSAwHgYJKoZIhvcNAQkBFhFmYWN0
c0B3b2xmc3NsLmNvbTBaMBQGByqGSM49AgEGCSskAwMCCAEBBwNCAARNYdJlwJur
PvrMnDyjfU2vtiSnHxHT0zB0ckkIQBS3zIXOjussaQ0ULUhTExcH1IZsnJ1tdJVo
+KeSRHq+CcZao24wbDAJBgNVHRMEAjAAMBEGCWCGSAGG+EIBAQQEAwIFoDAdBgNV
HQ4EFgQUcIFoHZkmJ9CDQYnLnqFzvUHJDuswDgYDVR0PAQH/BAQDAgXgMB0GA1Ud
JQQWMBQGCCsGAQUFBwMCBggrBgEFBQcDBDAKBggqhkjOPQQDAgNHADBEAiBP4Dyz
xios/6epe19GSq88f7WtOArXI+8mxGjgq83wQwIgSvk2ItufVMrmmuou+titk7BJ
mzTX7lrbHCRMus3aCpk=
-----END CERTIFICATE-----
