Certificate:
    Data:
        Version: 3 (0x2)
        Serial Number:
            23:c2:32:32:87:c0:20:35:77:e6:56:4b:ba:d3:ba:19:de:0e:ed:9e
        Signature Algorithm: ecdsa-with-SHA256
        Issuer: C = US, ST = Washington, L = Seattle, O = Eliptic, OU = ECC256BPR1-CLI, CN = www.wolfssl.com, emailAddress = info@wolfssl.com
        Validity
            Not Before: Oct 15 20:13:58 2020 GMT
            Not After : Oct 13 20:13:58 2030 GMT
        Subject: C = US, ST = Washington, L = Seattle, O = Eliptic, OU = ECC256BPR1-CLI, CN = www.wolfssl.com, emailAddress = info@wolfssl.com
        Subject Public Key Info:
            Public Key Algorithm: id-ecPublicKey
                Public-Key: (256 bit)
                pub:
                    04:2e:ef:27:cb:57:3a:dc:62:25:b6:b5:42:5c:ee:
                    29:56:e3:a8:ce:86:6e:44:52:23:15:c8:43:c0:62:
                    10:16:1e:4a:cb:88:d0:75:e0:38:6b:80:84:64:9f:
                    70:aa:d8:bb:33:90:c1:db:81:46:ae:e9:81:c9:03:
                    69:b5:ce:ad:eb
                ASN1 OID: brainpoolP256r1
        X509v3 extensions:
            X509v3 Basic Constraints: 
                CA:FALSE
            Netscape Cert Type: 
                SSL Client, S/MIME
            X509v3 Subject Key Identifier: 
                B4:1B:3B:4F:65:F2:BF:9E:8A:8F:E3:33:96:44:1F:67:EA:B3:34:D5
            X509v3 Authority Key Identifier: 
                keyid:B4:1B:3B:4F:65:F2:BF:9E:8A:8F:E3:33:96:44:1F:67:EA:B3:34:D5

            X509v3 Key Usage: critical
                Digital Signature, Non Repudiation, Key Encipherment
            X509v3 Extended Key Usage: 
                TLS Web Client Authentication, E-mail Protection
    Signature Algorithm: ecdsa-with-SHA256
         30:44:02:20:28:b6:b4:eb:ae:c1:9b:71:0a:15:92:93:d6:2d:
         12:a6:ff:2d:2a:f5:23:a8:e2:df:6c:d9:33:d4:7f:e9:2e:08:
         02:20:33:eb:45:aa:c1:7c:36:c1:60:52:09:0e:2d:e4:2a:49:
         1d:d8:b2:c5:79:3e:be:d4:61:c5:14:d0:b6:f2:42:d4
-----BEGIN CERTIFICATE-----
MIICyTCCAnCgAwIBAgIUI8IyMofAIDV35lZLutO6Gd4O7Z4wCgYIKoZIzj0EAwIw
gZoxCzAJBgNVBAYTAlVTMRMwEQYDVQQIDApXYXNoaW5ndG9uMRAwDgYDVQQHDAdT
ZWF0dGxlMRAwDgYDVQQKDAdFbGlwdGljMRcwFQYDVQQLDA5FQ0MyNTZCUFIxLUNM
STEYMBYGA1UEAwwPd3d3LndvbGZzc2wuY29tMR8wHQYJKoZIhvcNAQkBFhBpbmZv
QHdvbGZzc2wuY29tMB4XDTIwMTAxNTIwMTM1OFoXDTMwMTAxMzIwMTM1OFowgZox
CzAJBgNVBAYTAlVTMRMwEQYDVQQIDApXYXNoaW5ndG9uMRAwDgYDVQQHDAdTZWF0
dGxlMRAwDgYDVQQKDAdFbGlwdGljMRcwFQYDVQQLDA5FQ0MyNTZCUFIxLUNMSTEY
MBYGA1UEAwwPd3d3LndvbGZzc2wuY29tMR8wHQYJKoZIhvcNAQkBFhBpbmZvQHdv
bGZzc2wuY29tMFowFAYHKoZIzj0CAQYJKyQDAwIIAQEHA0IABC7vJ8tXOtxiJba1
QlzuKVbjqM6GbkRSIxXIQ8BiEBYeSsuI0HXgOGuAhGSfcKrYuzOQwduBRq7pgckD
abXOreujgZAwgY0wCQYDVR0TBAIwADARBglghkgBhvhCAQEEBAMCBaAwHQYDVR0O
BBYEFLQbO09l8r+eio/jM5ZEH2fqszTVMB8GA1UdIwQYMBaAFLQbO09l8r+eio/j
M5ZEH2fqszTVMA4GA1UdDwEB/wQEAwIF4DAdBgNVHSUEFjAUBggrBgEFBQcDAgYI
KwYBBQUHAwQwCgYIKoZIzj0EAwIDRwAwRAIgKLa0667Bm3EKFZKT1i0Spv8tKvUj
qOLfbNkz1H/pLggCIDPrRarBfDbBYFIJDi3kKkkd2LLFeT6+1GHFFNC28kLU
-----END CERTIFICATE-----
