Certificate:
    Data:
        Version: 3 (0x2)
        Serial Number:
            31:2e:ed:e8:4e:07:51:aa:45:ce:4e:4d:8b:7d:d9:53:24:cd:c0:ce
        Signature Algorithm: ecdsa-with-SHA256
        Issuer: C = US, ST = Washington, L = Seattle, O = Eliptic, OU = ECC256K1-CLI, CN = www.wolfssl.com, emailAddress = info@wolfssl.com
        Validity
            Not Before: Dec 20 23:07:24 2021 GMT
            Not After : Dec 18 23:07:24 2031 GMT
        Subject: C = US, ST = Washington, L = Seattle, O = Eliptic, OU = ECC256K1-CLI, CN = www.wolfssl.com, emailAddress = info@wolfssl.com
        Subject Public Key Info:
            Public Key Algorithm: id-ecPublicKey
                Public-Key: (256 bit)
                pub:
                    04:80:6c:01:93:26:6f:dd:fe:93:91:a1:4c:b9:df:
                    0c:4b:e9:28:55:36:fc:71:2d:a6:55:65:3f:ac:96:
                    90:67:80:d8:fb:79:f4:c0:7e:0f:3c:fa:15:1e:6e:
                    ac:03:cf:29:50:8d:98:60:21:7d:6d:89:08:11:e2:
                    44:7c:09:0d:e6
                ASN1 OID: secp256k1
        X509v3 extensions:
            X509v3 Basic Constraints: 
                CA:FALSE
            Netscape Cert Type: 
                SSL Client, S/MIME
            X509v3 Subject Key Identifier: 
                8B:F8:C3:8C:D6:A0:F9:D3:DA:85:3B:7E:4B:94:A1:F7:1A:82:E5:AA
            X509v3 Authority Key Identifier: 
                keyid:8B:F8:C3:8C:D6:A0:F9:D3:DA:85:3B:7E:4B:94:A1:F7:1A:82:E5:AA

            X509v3 Key Usage: critical
                Digital Signature, Non Repudiation, Key Encipherment
            X509v3 Extended Key Usage: 
                TLS Web Client Authentication, E-mail Protection
    Signature Algorithm: ecdsa-with-SHA256
         30:46:02:21:00:ec:71:28:64:3a:65:f8:ed:66:d8:21:39:6b:
         6f:d4:83:95:50:06:0b:83:ba:62:9c:2b:77:6f:ae:24:b8:f6:
         7a:02:21:00:e8:ed:3d:7a:2c:64:53:ea:3a:f5:a8:ac:d1:0a:
         6f:01:af:e4:82:fc:8d:90:dd:7c:5c:64:8d:82:60:2e:53:fb
-----BEGIN CERTIFICATE-----
MIICwzCCAmigAwIBAgIUMS7t6E4HUapFzk5Ni33ZUyTNwM4wCgYIKoZIzj0EAwIw
gZgxCzAJBgNVBAYTAlVTMRMwEQYDVQQIDApXYXNoaW5ndG9uMRAwDgYDVQQHDAdT
ZWF0dGxlMRAwDgYDVQQKDAdFbGlwdGljMRUwEwYDVQQLDAxFQ0MyNTZLMS1DTEkx
GDAWBgNVBAMMD3d3dy53b2xmc3NsLmNvbTEfMB0GCSqGSIb3DQEJARYQaW5mb0B3
b2xmc3NsLmNvbTAeFw0yMTEyMjAyMzA3MjRaFw0zMTEyMTgyMzA3MjRaMIGYMQsw
CQYDVQQGEwJVUzETMBEGA1UECAwKV2FzaGluZ3RvbjEQMA4GA1UEBwwHU2VhdHRs
ZTEQMA4GA1UECgwHRWxpcHRpYzEVMBMGA1UECwwMRUNDMjU2SzEtQ0xJMRgwFgYD
VQQDDA93d3cud29sZnNzbC5jb20xHzAdBgkqhkiG9w0BCQEWEGluZm9Ad29sZnNz
bC5jb20wVjAQBgcqhkjOPQIBBgUrgQQACgNCAASAbAGTJm/d/pORoUy53wxL6ShV
NvxxLaZVZT+slpBngNj7efTAfg88+hUebqwDzylQjZhgIX1tiQgR4kR8CQ3mo4GQ
MIGNMAkGA1UdEwQCMAAwEQYJYIZIAYb4QgEBBAQDAgWgMB0GA1UdDgQWBBSL+MOM
1qD509qFO35LlKH3GoLlqjAfBgNVHSMEGDAWgBSL+MOM1qD509qFO35LlKH3GoLl
qjAOBgNVHQ8BAf8EBAMCBeAwHQYDVR0lBBYwFAYIKwYBBQUHAwIGCCsGAQUFBwME
MAoGCCqGSM49BAMCA0kAMEYCIQDscShkOmX47WbYITlrb9SDlVAGC4O6Ypwrd2+u
JLj2egIhAOjtPXosZFPqOvWorNEKbwGv5IL8jZDdfFxkjYJgLlP7
-----END CERTIFICATE-----
