Certificate:
    Data:
        Version: 3 (0x2)
        Serial Number:
            3f:2c:a7:4b:53:b2:91:42:1a:a9:d0:04:e1:e6:16:99:c6:09:9f:dc
        Signature Algorithm: ecdsa-with-SHA256
        Issuer: C=US, ST=Washington, L=Seattle, O=Elliptic, OU=ECC256K1-CLI, CN=www.wolfssl.com, emailAddress=info@wolfssl.com
        Validity
            Not Before: Nov 13 20:41:07 2025 GMT
            Not After : Nov 11 20:41:07 2035 GMT
        Subject: C=US, ST=Washington, L=Seattle, O=Elliptic, OU=ECC256K1-CLI, CN=www.wolfssl.com, emailAddress=info@wolfssl.com
        Subject Public Key Info:
            Public Key Algorithm: id-ecPublicKey
                Public-Key: (256 bit)
                pub:
                    04:ff:f7:c5:db:b9:84:b0:4e:9c:93:8e:73:14:3d:
                    49:bb:60:36:cb:79:c0:6d:11:b6:b6:9d:5a:1a:9d:
                    e9:c5:ab:c4:f0:21:5a:d1:f9:15:0b:17:62:3c:fb:
                    a1:54:df:8f:05:c2:ae:10:b8:20:68:66:3a:ba:50:
                    1d:f2:e4:fb:6e
                ASN1 OID: secp256k1
        X509v3 extensions:
            X509v3 Basic Constraints: 
                CA:FALSE
            Netscape Cert Type: 
                SSL Client, S/MIME
            X509v3 Subject Key Identifier: 
                CA:89:C1:BC:2A:60:74:7F:A0:01:8D:0F:9C:7F:A7:C0:65:FE:2E:16
            X509v3 Key Usage: critical
                Digital Signature, Non Repudiation, Key Encipherment
            X509v3 Extended Key Usage: 
                TLS Web Client Authentication, E-mail Protection
    Signature Algorithm: ecdsa-with-SHA256
    Signature Value:
        30:45:02:20:23:ee:ff:ab:e8:12:ab:b7:9b:eb:f6:25:8a:48:
        7c:93:49:9b:8c:ff:2a:ce:1b:3d:3a:33:36:e4:5a:88:aa:0e:
        02:21:00:e1:78:77:ef:05:f4:53:a4:9b:2a:18:a2:5c:13:e6:
        f4:5d:88:1b:8e:bc:70:c6:eb:a8:1d:b9:bc:c0:5d:9e:6f
-----BEGIN CERTIFICATE-----
MIICoTCCAkegAwIBAgIUPyynS1OykUIaqdAE4eYWmcYJn9wwCgYIKoZIzj0EAwIw
gZkxCzAJBgNVBAYTAlVTMRMwEQYDVQQIDApXYXNoaW5ndG9uMRAwDgYDVQQHDAdT
ZWF0dGxlMREwDwYDVQQKDAhFbGxpcHRpYzEVMBMGA1UECwwMRUNDMjU2SzEtQ0xJ
MRgwFgYDVQQDDA93d3cud29sZnNzbC5jb20xHzAdBgkqhkiG9w0BCQEWEGluZm9A
d29sZnNzbC5jb20wHhcNMjUxMTEzMjA0MTA3WhcNMzUxMTExMjA0MTA3WjCBmTEL
MAkGA1UEBhMCVVMxEzARBgNVBAgMCldhc2hpbmd0b24xEDAOBgNVBAcMB1NlYXR0
bGUxETAPBgNVBAoMCEVsbGlwdGljMRUwEwYDVQQLDAxFQ0MyNTZLMS1DTEkxGDAW
BgNVBAMMD3d3dy53b2xmc3NsLmNvbTEfMB0GCSqGSIb3DQEJARYQaW5mb0B3b2xm
c3NsLmNvbTBWMBAGByqGSM49AgEGBSuBBAAKA0IABP/3xdu5hLBOnJOOcxQ9Sbtg
Nst5wG0RtradWhqd6cWrxPAhWtH5FQsXYjz7oVTfjwXCrhC4IGhmOrpQHfLk+26j
bjBsMAkGA1UdEwQCMAAwEQYJYIZIAYb4QgEBBAQDAgWgMB0GA1UdDgQWBBTKicG8
KmB0f6ABjQ+cf6fAZf4uFjAOBgNVHQ8BAf8EBAMCBeAwHQYDVR0lBBYwFAYIKwYB
BQUHAwIGCCsGAQUFBwMEMAoGCCqGSM49BAMCA0gAMEUCICPu/6voEqu3m+v2JYpI
fJNJm4z/Ks4bPTozNuRaiKoOAiEA4Xh37wX0U6SbKhiiXBPm9F2IG468cMbrqB25
vMBdnm8=
-----END CERTIFICATE-----
