Certificate:
    Data:
        Version: 3 (0x2)
        Serial Number:
            3d:12:fd:a2:a8:15:63:d8:4e:3f:48:81:46:92:ae:65:f3:27:7f:f2
        Signature Algorithm: ecdsa-with-SHA256
        Issuer: C = US, ST = Washington, L = Seattle, O = Eliptic, OU = ECC256K1-CLI, CN = www.wolfssl.com, emailAddress = info@wolfssl.com
        Validity
            Not Before: Oct 15 20:13:49 2020 GMT
            Not After : Oct 13 20:13:49 2030 GMT
        Subject: C = US, ST = Washington, L = Seattle, O = Eliptic, OU = ECC256K1-CLI, CN = www.wolfssl.com, emailAddress = info@wolfssl.com
        Subject Public Key Info:
            Public Key Algorithm: id-ecPublicKey
                Public-Key: (256 bit)
                pub:
                    04:d7:0d:0b:f1:0e:22:88:fe:fb:d5:e5:e1:09:a4:
                    3e:90:76:b3:29:cb:d9:13:60:b7:ea:88:82:d7:8c:
                    b6:db:21:dc:93:0f:e9:58:bb:c5:f2:a2:c2:f5:23:
                    36:c5:d5:eb:24:a6:24:db:ee:02:b0:05:31:a6:33:
                    1f:cd:79:82:10
                ASN1 OID: secp256k1
        X509v3 extensions:
            X509v3 Basic Constraints: 
                CA:FALSE
            Netscape Cert Type: 
                SSL Client, S/MIME
            X509v3 Subject Key Identifier: 
                44:6A:D8:71:6D:AB:62:18:21:02:27:23:90:BF:1D:77:B6:79:4B:77
            X509v3 Authority Key Identifier: 
                keyid:44:6A:D8:71:6D:AB:62:18:21:02:27:23:90:BF:1D:77:B6:79:4B:77

            X509v3 Key Usage: critical
                Digital Signature, Non Repudiation, Key Encipherment
            X509v3 Extended Key Usage: 
                TLS Web Client Authentication, E-mail Protection
    Signature Algorithm: ecdsa-with-SHA256
         30:45:02:20:73:08:4a:18:d1:ad:81:f6:5c:59:27:da:36:9a:
         cd:fb:4e:97:5a:58:b3:61:fe:b0:ec:7e:76:ca:0c:5a:d3:c1:
         02:21:00:a5:05:b4:f5:2f:d3:bf:71:d4:0c:fb:bf:a0:64:0b:
         cd:bb:18:ef:df:92:bc:5c:cc:6c:74:82:c8:52:5a:f6:46
-----BEGIN CERTIFICATE-----
MIICwjCCAmigAwIBAgIUPRL9oqgVY9hOP0iBRpKuZfMnf/IwCgYIKoZIzj0EAwIw
gZgxCzAJBgNVBAYTAlVTMRMwEQYDVQQIDApXYXNoaW5ndG9uMRAwDgYDVQQHDAdT
ZWF0dGxlMRAwDgYDVQQKDAdFbGlwdGljMRUwEwYDVQQLDAxFQ0MyNTZLMS1DTEkx
GDAWBgNVBAMMD3d3dy53b2xmc3NsLmNvbTEfMB0GCSqGSIb3DQEJARYQaW5mb0B3
b2xmc3NsLmNvbTAeFw0yMDEwMTUyMDEzNDlaFw0zMDEwMTMyMDEzNDlaMIGYMQsw
CQYDVQQGEwJVUzETMBEGA1UECAwKV2FzaGluZ3RvbjEQMA4GA1UEBwwHU2VhdHRs
ZTEQMA4GA1UECgwHRWxpcHRpYzEVMBMGA1UECwwMRUNDMjU2SzEtQ0xJMRgwFgYD
VQQDDA93d3cud29sZnNzbC5jb20xHzAdBgkqhkiG9w0BCQEWEGluZm9Ad29sZnNz
bC5jb20wVjAQBgcqhkjOPQIBBgUrgQQACgNCAATXDQvxDiKI/vvV5eEJpD6QdrMp
y9kTYLfqiILXjLbbIdyTD+lYu8XyosL1IzbF1eskpiTb7gKwBTGmMx/NeYIQo4GQ
MIGNMAkGA1UdEwQCMAAwEQYJYIZIAYb4QgEBBAQDAgWgMB0GA1UdDgQWBBREathx
batiGCECJyOQvx13tnlLdzAfBgNVHSMEGDAWgBREathxbatiGCECJyOQvx13tnlL
dzAOBgNVHQ8BAf8EBAMCBeAwHQYDVR0lBBYwFAYIKwYBBQUHAwIGCCsGAQUFBwME
MAoGCCqGSM49BAMCA0gAMEUCIHMIShjRrYH2XFkn2jaazftOl1pYs2H+sOx+dsoM
WtPBAiEApQW09S/Tv3HUDPu/oGQLzbsY79+SvFzMbHSCyFJa9kY=
-----END CERTIFICATE-----
