Certificate:
    Data:
        Version: 3 (0x2)
        Serial Number:
            74:41:b9:37:a8:bf:42:e7:b6:16:1c:4f:7e:8c:24:06:81:78:1a:02
        Signature Algorithm: ecdsa-with-SHA256
        Issuer: C = US, ST = Washington, L = Seattle, O = Elliptic, OU = ECC256BPR1-CLI, CN = www.wolfssl.com, emailAddress = info@wolfssl.com
        Validity
            Not Before: Dec 13 22:19:28 2023 GMT
            Not After : Dec 10 22:19:28 2033 GMT
        Subject: C = US, ST = Washington, L = Seattle, O = Elliptic, OU = ECC256BPR1-CLI, CN = www.wolfssl.com, emailAddress = info@wolfssl.com
        Subject Public Key Info:
            Public Key Algorithm: id-ecPublicKey
                Public-Key: (256 bit)
                pub:
                    04:51:f0:ec:e0:5c:38:82:7a:57:c1:cb:4f:32:a3:
                    d0:dd:a2:7c:d9:22:fe:77:97:05:37:85:fb:41:57:
                    df:fb:96:14:19:7f:79:48:70:f0:78:e8:76:9f:35:
                    e1:ad:74:b1:80:8c:fa:ea:62:8b:69:c7:2b:bb:69:
                    33:17:1a:f3:48
                ASN1 OID: brainpoolP256r1
        X509v3 extensions:
            X509v3 Basic Constraints: 
                CA:FALSE
            Netscape Cert Type: 
                SSL Client, S/MIME
            X509v3 Subject Key Identifier: 
                77:B6:46:96:B9:B7:0D:54:A3:03:E8:21:F5:8D:37:69:3D:89:AD:FA
            X509v3 Authority Key Identifier: 
                keyid:77:B6:46:96:B9:B7:0D:54:A3:03:E8:21:F5:8D:37:69:3D:89:AD:FA

            X509v3 Key Usage: critical
                Digital Signature, Non Repudiation, Key Encipherment
            X509v3 Extended Key Usage: 
                TLS Web Client Authentication, E-mail Protection
    Signature Algorithm: ecdsa-with-SHA256
         30:44:02:20:20:e0:c6:8e:4d:c2:50:c4:7a:a1:6c:02:63:d2:
         cd:2b:30:23:01:1d:51:cd:4b:14:07:45:39:1f:16:1e:0a:3a:
         02:20:6b:a8:42:ac:90:9a:d9:8d:2c:dd:1c:bd:f1:90:d8:4d:
         7b:aa:40:f0:f3:7f:45:83:dc:b9:1c:b5:de:2e:75:a7
-----BEGIN CERTIFICATE-----
MIICyzCCAnKgAwIBAgIUdEG5N6i/Que2FhxPfowkBoF4GgIwCgYIKoZIzj0EAwIw
gZsxCzAJBgNVBAYTAlVTMRMwEQYDVQQIDApXYXNoaW5ndG9uMRAwDgYDVQQHDAdT
ZWF0dGxlMREwDwYDVQQKDAhFbGxpcHRpYzEXMBUGA1UECwwORUNDMjU2QlBSMS1D
TEkxGDAWBgNVBAMMD3d3dy53b2xmc3NsLmNvbTEfMB0GCSqGSIb3DQEJARYQaW5m
b0B3b2xmc3NsLmNvbTAeFw0yMzEyMTMyMjE5MjhaFw0zMzEyMTAyMjE5MjhaMIGb
MQswCQYDVQQGEwJVUzETMBEGA1UECAwKV2FzaGluZ3RvbjEQMA4GA1UEBwwHU2Vh
dHRsZTERMA8GA1UECgwIRWxsaXB0aWMxFzAVBgNVBAsMDkVDQzI1NkJQUjEtQ0xJ
MRgwFgYDVQQDDA93d3cud29sZnNzbC5jb20xHzAdBgkqhkiG9w0BCQEWEGluZm9A
d29sZnNzbC5jb20wWjAUBgcqhkjOPQIBBgkrJAMDAggBAQcDQgAEUfDs4Fw4gnpX
wctPMqPQ3aJ82SL+d5cFN4X7QVff+5YUGX95SHDweOh2nzXhrXSxgIz66mKLaccr
u2kzFxrzSKOBkDCBjTAJBgNVHRMEAjAAMBEGCWCGSAGG+EIBAQQEAwIFoDAdBgNV
HQ4EFgQUd7ZGlrm3DVSjA+gh9Y03aT2JrfowHwYDVR0jBBgwFoAUd7ZGlrm3DVSj
A+gh9Y03aT2JrfowDgYDVR0PAQH/BAQDAgXgMB0GA1UdJQQWMBQGCCsGAQUFBwMC
BggrBgEFBQcDBDAKBggqhkjOPQQDAgNHADBEAiAg4MaOTcJQxHqhbAJj0s0rMCMB
HVHNSxQHRTkfFh4KOgIga6hCrJCa2Y0s3Ry98ZDYTXuqQPDzf0WD3Lkctd4udac=
-----END CERTIFICATE-----
