Certificate:
    Data:
        Version: 3 (0x2)
        Serial Number:
            4a:c0:0d:f1:78:b2:ad:ae:34:4d:9c:17:d2:3e:14:40:53:e1:86:3e
        Signature Algorithm: ecdsa-with-SHA256
        Issuer: C = US, ST = Washington, L = Seattle, O = Elliptic, OU = ECC256BPR1-CLI, CN = www.wolfssl.com, emailAddress = info@wolfssl.com
        Validity
            Not Before: Dec 18 21:25:29 2024 GMT
            Not After : Dec 16 21:25:29 2034 GMT
        Subject: C = US, ST = Washington, L = Seattle, O = Elliptic, OU = ECC256BPR1-CLI, CN = www.wolfssl.com, emailAddress = info@wolfssl.com
        Subject Public Key Info:
            Public Key Algorithm: id-ecPublicKey
                Public-Key: (256 bit)
                pub:
                    04:80:8b:2d:57:af:9d:00:f6:cf:e5:dd:fb:1f:5a:
                    69:c7:d3:1e:d1:16:20:16:e0:53:da:33:70:22:e2:
                    ee:ee:f3:89:d2:a4:e6:77:6a:22:a0:b2:d4:e2:d5:
                    15:09:5f:f1:bd:cd:99:3d:51:e3:ae:5d:96:85:92:
                    bf:5b:1c:2b:66
                ASN1 OID: brainpoolP256r1
        X509v3 extensions:
            X509v3 Basic Constraints: 
                CA:FALSE
            Netscape Cert Type: 
                SSL Client, S/MIME
            X509v3 Subject Key Identifier: 
                BF:13:B7:26:16:A8:18:A2:A9:CC:FC:5E:9E:9E:5B:39:CB:08:CE:68
            X509v3 Authority Key Identifier: 
                DirName:/C=US/ST=Washington/L=Seattle/O=Elliptic/OU=ECC256BPR1-CLI/CN=www.wolfssl.com/emailAddress=info@wolfssl.com
                serial:4A:C0:0D:F1:78:B2:AD:AE:34:4D:9C:17:D2:3E:14:40:53:E1:86:3E
            X509v3 Key Usage: critical
                Digital Signature, Non Repudiation, Key Encipherment
            X509v3 Extended Key Usage: 
                TLS Web Client Authentication, E-mail Protection
    Signature Algorithm: ecdsa-with-SHA256
    Signature Value:
        30:45:02:20:71:25:fb:20:e7:40:f5:a4:51:ac:e6:f4:33:51:
        02:09:36:c7:01:00:ab:fa:50:72:4b:76:9b:5a:2e:07:67:a3:
        02:21:00:9a:a0:c7:dc:94:d0:27:4c:bf:2c:1d:4f:22:48:3d:
        ef:00:18:a9:d7:57:11:2d:72:fd:e3:62:c0:ef:2d:a6:7b
-----BEGIN CERTIFICATE-----
MIIDdTCCAxugAwIBAgIUSsAN8Xiyra40TZwX0j4UQFPhhj4wCgYIKoZIzj0EAwIw
gZsxCzAJBgNVBAYTAlVTMRMwEQYDVQQIDApXYXNoaW5ndG9uMRAwDgYDVQQHDAdT
ZWF0dGxlMREwDwYDVQQKDAhFbGxpcHRpYzEXMBUGA1UECwwORUNDMjU2QlBSMS1D
TEkxGDAWBgNVBAMMD3d3dy53b2xmc3NsLmNvbTEfMB0GCSqGSIb3DQEJARYQaW5m
b0B3b2xmc3NsLmNvbTAeFw0yNDEyMTgyMTI1MjlaFw0zNDEyMTYyMTI1MjlaMIGb
MQswCQYDVQQGEwJVUzETMBEGA1UECAwKV2FzaGluZ3RvbjEQMA4GA1UEBwwHU2Vh
dHRsZTERMA8GA1UECgwIRWxsaXB0aWMxFzAVBgNVBAsMDkVDQzI1NkJQUjEtQ0xJ
MRgwFgYDVQQDDA93d3cud29sZnNzbC5jb20xHzAdBgkqhkiG9w0BCQEWEGluZm9A
d29sZnNzbC5jb20wWjAUBgcqhkjOPQIBBgkrJAMDAggBAQcDQgAEgIstV6+dAPbP
5d37H1ppx9Me0RYgFuBT2jNwIuLu7vOJ0qTmd2oioLLU4tUVCV/xvc2ZPVHjrl2W
hZK/WxwrZqOCATgwggE0MAkGA1UdEwQCMAAwEQYJYIZIAYb4QgEBBAQDAgWgMB0G
A1UdDgQWBBS/E7cmFqgYoqnM/F6enls5ywjOaDCBxQYDVR0jBIG9MIG6oYGhpIGe
MIGbMQswCQYDVQQGEwJVUzETMBEGA1UECAwKV2FzaGluZ3RvbjEQMA4GA1UEBwwH
U2VhdHRsZTERMA8GA1UECgwIRWxsaXB0aWMxFzAVBgNVBAsMDkVDQzI1NkJQUjEt
Q0xJMRgwFgYDVQQDDA93d3cud29sZnNzbC5jb20xHzAdBgkqhkiG9w0BCQEWEGlu
Zm9Ad29sZnNzbC5jb22CFErADfF4sq2uNE2cF9I+FEBT4YY+MA4GA1UdDwEB/wQE
AwIF4DAdBgNVHSUEFjAUBggrBgEFBQcDAgYIKwYBBQUHAwQwCgYIKoZIzj0EAwID
SAAwRQIgcSX7IOdA9aRRrOb0M1ECCTbHAQCr+lByS3abWi4HZ6MCIQCaoMfclNAn
TL8sHU8iSD3vABip11cRLXL942LA7y2mew==
-----END CERTIFICATE-----
