Certificate:
    Data:
        Version: 3 (0x2)
        Serial Number:
            0b:7a:5d:a7:10:43:4b:24:b1:8a:e4:17:ff:2a:dd:b4:ce:32:d9:4f
        Signature Algorithm: ecdsa-with-SHA256
        Issuer: C=US, ST=Washington, L=Seattle, O=Elliptic, OU=ECC256K1-CLI, CN=www.wolfssl.com, emailAddress=facts@wolfssl.com
        Validity
            Not Before: Jun 11 21:44:27 2026 GMT
            Not After : Jun  8 21:44:27 2036 GMT
        Subject: C=US, ST=Washington, L=Seattle, O=Elliptic, OU=ECC256K1-CLI, CN=www.wolfssl.com, emailAddress=facts@wolfssl.com
        Subject Public Key Info:
            Public Key Algorithm: id-ecPublicKey
                Public-Key: (256 bit)
                pub:
                    04:b0:96:62:d3:2b:b6:47:d2:79:9d:f3:99:71:28:
                    16:26:c8:17:ec:1b:1b:b1:90:fa:85:60:ba:49:72:
                    e2:9f:06:51:75:39:fe:11:be:1f:e8:02:ae:9b:16:
                    53:00:6f:16:83:39:f1:52:30:51:03:fe:dd:b3:b1:
                    1f:d2:8d:0a:53
                ASN1 OID: secp256k1
        X509v3 extensions:
            X509v3 Basic Constraints: 
                CA:FALSE
            Netscape Cert Type: 
                SSL Client, S/MIME
            X509v3 Subject Key Identifier: 
                F1:A6:2C:1D:3E:92:4B:A1:E9:50:24:86:6E:85:14:F0:C5:A5:11:26
            X509v3 Key Usage: critical
                Digital Signature, Non Repudiation, Key Encipherment
            X509v3 Extended Key Usage: 
                TLS Web Client Authentication, E-mail Protection
    Signature Algorithm: ecdsa-with-SHA256
    Signature Value:
        30:44:02:20:6e:77:53:89:23:8f:33:43:81:82:5a:7e:3a:3b:
        fa:5d:4a:2e:00:9c:a8:43:cf:66:41:3d:d3:7e:08:5d:4d:fd:
        02:20:2e:b8:89:df:cf:8e:fd:0c:4e:db:fd:bc:f6:ce:09:62:
        58:aa:43:68:6f:c7:18:67:bb:16:92:2a:78:8a:0f:b1
-----BEGIN CERTIFICATE-----
MIICojCCAkmgAwIBAgIUC3pdpxBDSySxiuQX/yrdtM4y2U8wCgYIKoZIzj0EAwIw
gZoxCzAJBgNVBAYTAlVTMRMwEQYDVQQIDApXYXNoaW5ndG9uMRAwDgYDVQQHDAdT
ZWF0dGxlMREwDwYDVQQKDAhFbGxpcHRpYzEVMBMGA1UECwwMRUNDMjU2SzEtQ0xJ
MRgwFgYDVQQDDA93d3cud29sZnNzbC5jb20xIDAeBgkqhkiG9w0BCQEWEWZhY3Rz
QHdvbGZzc2wuY29tMB4XDTI2MDYxMTIxNDQyN1oXDTM2MDYwODIxNDQyN1owgZox
CzAJBgNVBAYTAlVTMRMwEQYDVQQIDApXYXNoaW5ndG9uMRAwDgYDVQQHDAdTZWF0
dGxlMREwDwYDVQQKDAhFbGxpcHRpYzEVMBMGA1UECwwMRUNDMjU2SzEtQ0xJMRgw
FgYDVQQDDA93d3cud29sZnNzbC5jb20xIDAeBgkqhkiG9w0BCQEWEWZhY3RzQHdv
bGZzc2wuY29tMFYwEAYHKoZIzj0CAQYFK4EEAAoDQgAEsJZi0yu2R9J5nfOZcSgW
JsgX7BsbsZD6hWC6SXLinwZRdTn+Eb4f6AKumxZTAG8WgznxUjBRA/7ds7Ef0o0K
U6NuMGwwCQYDVR0TBAIwADARBglghkgBhvhCAQEEBAMCBaAwHQYDVR0OBBYEFPGm
LB0+kkuh6VAkhm6FFPDFpREmMA4GA1UdDwEB/wQEAwIF4DAdBgNVHSUEFjAUBggr
BgEFBQcDAgYIKwYBBQUHAwQwCgYIKoZIzj0EAwIDRwAwRAIgbndTiSOPM0OBglp+
Ojv6XUouAJyoQ89mQT3TfghdTf0CIC64id/Pjv0MTtv9vPbOCWJYqkNob8cYZ7sW
kip4ig+x
-----END CERTIFICATE-----
