Certificate:
    Data:
        Version: 3 (0x2)
        Serial Number:
            4b:ae:8f:e1:8f:ac:3f:f9:1a:69:18:80:b9:84:87:6e:2a:87:c2:43
        Signature Algorithm: ecdsa-with-SHA256
        Issuer: C=US, ST=Washington, L=Seattle, O=Elliptic, OU=ECC256BPR1-CLI, CN=www.wolfssl.com, emailAddress=info@wolfssl.com
        Validity
            Not Before: Nov 13 20:41:08 2025 GMT
            Not After : Nov 11 20:41:08 2035 GMT
        Subject: C=US, ST=Washington, L=Seattle, O=Elliptic, OU=ECC256BPR1-CLI, CN=www.wolfssl.com, emailAddress=info@wolfssl.com
        Subject Public Key Info:
            Public Key Algorithm: id-ecPublicKey
                Public-Key: (256 bit)
                pub:
                    04:25:94:17:79:b7:86:02:87:b1:1e:54:d7:ec:e9:
                    ff:e7:ec:08:f0:29:f4:31:fc:5b:1b:b5:82:ea:56:
                    27:f6:11:57:72:ca:48:39:52:fb:dd:12:d2:7b:9a:
                    1c:f2:79:d1:14:01:b1:ee:a6:a2:75:0d:6b:7a:dd:
                    21:d2:5f:b9:e2
                ASN1 OID: brainpoolP256r1
        X509v3 extensions:
            X509v3 Basic Constraints: 
                CA:FALSE
            Netscape Cert Type: 
                SSL Client, S/MIME
            X509v3 Subject Key Identifier: 
                3B:51:FD:4B:70:B2:7C:29:5D:02:1A:AE:A4:76:EF:47:8A:A9:52:30
            X509v3 Key Usage: critical
                Digital Signature, Non Repudiation, Key Encipherment
            X509v3 Extended Key Usage: 
                TLS Web Client Authentication, E-mail Protection
    Signature Algorithm: ecdsa-with-SHA256
    Signature Value:
        30:45:02:21:00:8c:18:d5:91:df:cf:63:8a:4c:39:82:8b:78:
        57:43:af:59:c1:7d:0a:ed:c2:b1:1e:f9:30:68:37:b1:b4:9f:
        6f:02:20:0c:bf:2a:1b:85:2d:34:9c:f5:65:0b:83:9d:ee:3c:
        32:76:54:4f:2b:7e:50:c5:2d:92:17:71:e6:67:c0:46:36
-----BEGIN CERTIFICATE-----
MIICqTCCAk+gAwIBAgIUS66P4Y+sP/kaaRiAuYSHbiqHwkMwCgYIKoZIzj0EAwIw
gZsxCzAJBgNVBAYTAlVTMRMwEQYDVQQIDApXYXNoaW5ndG9uMRAwDgYDVQQHDAdT
ZWF0dGxlMREwDwYDVQQKDAhFbGxpcHRpYzEXMBUGA1UECwwORUNDMjU2QlBSMS1D
TEkxGDAWBgNVBAMMD3d3dy53b2xmc3NsLmNvbTEfMB0GCSqGSIb3DQEJARYQaW5m
b0B3b2xmc3NsLmNvbTAeFw0yNTExMTMyMDQxMDhaFw0zNTExMTEyMDQxMDhaMIGb
MQswCQYDVQQGEwJVUzETMBEGA1UECAwKV2FzaGluZ3RvbjEQMA4GA1UEBwwHU2Vh
dHRsZTERMA8GA1UECgwIRWxsaXB0aWMxFzAVBgNVBAsMDkVDQzI1NkJQUjEtQ0xJ
MRgwFgYDVQQDDA93d3cud29sZnNzbC5jb20xHzAdBgkqhkiG9w0BCQEWEGluZm9A
d29sZnNzbC5jb20wWjAUBgcqhkjOPQIBBgkrJAMDAggBAQcDQgAEJZQXebeGAoex
HlTX7On/5+wI8Cn0MfxbG7WC6lYn9hFXcspIOVL73RLSe5oc8nnRFAGx7qaidQ1r
et0h0l+54qNuMGwwCQYDVR0TBAIwADARBglghkgBhvhCAQEEBAMCBaAwHQYDVR0O
BBYEFDtR/UtwsnwpXQIarqR270eKqVIwMA4GA1UdDwEB/wQEAwIF4DAdBgNVHSUE
FjAUBggrBgEFBQcDAgYIKwYBBQUHAwQwCgYIKoZIzj0EAwIDSAAwRQIhAIwY1ZHf
z2OKTDmCi3hXQ69ZwX0K7cKxHvkwaDextJ9vAiAMvyobhS00nPVlC4Od7jwydlRP
K35QxS2SF3HmZ8BGNg==
-----END CERTIFICATE-----
