Certificate:
    Data:
        Version: 3 (0x2)
        Serial Number:
            22:f3:d7:b3:fd:e6:36:4e:e2:f0:67:0a:06:8f:86:32:0d:8f:d8:87
        Signature Algorithm: ecdsa-with-SHA256
        Issuer: C = US, ST = Washington, L = Seattle, O = Elliptic, OU = ECC256K1-CLI, CN = www.wolfssl.com, emailAddress = info@wolfssl.com
        Validity
            Not Before: Sep 26 17:22:42 2023 GMT
            Not After : Sep 23 17:22:42 2033 GMT
        Subject: C = US, ST = Washington, L = Seattle, O = Elliptic, OU = ECC256K1-CLI, CN = www.wolfssl.com, emailAddress = info@wolfssl.com
        Subject Public Key Info:
            Public Key Algorithm: id-ecPublicKey
                Public-Key: (256 bit)
                pub:
                    04:ee:6a:90:ab:79:09:bf:58:98:08:57:87:c2:98:
                    2f:c9:31:96:1a:f9:24:60:91:14:4f:44:7c:85:b3:
                    53:5e:b8:72:7a:30:5b:2b:11:90:68:7e:fa:28:9d:
                    e4:35:8c:df:9b:67:dc:e6:11:c1:4d:cd:37:57:52:
                    4b:8d:ff:5b:c7
                ASN1 OID: secp256k1
        X509v3 extensions:
            X509v3 Basic Constraints: 
                CA:FALSE
            Netscape Cert Type: 
                SSL Client, S/MIME
            X509v3 Subject Key Identifier: 
                D6:34:62:FB:0A:9F:DE:77:46:E8:FC:8E:07:6D:74:BC:38:AE:05:6E
            X509v3 Authority Key Identifier: 
                DirName:/C=US/ST=Washington/L=Seattle/O=Elliptic/OU=ECC256K1-CLI/CN=www.wolfssl.com/emailAddress=info@wolfssl.com
                serial:22:F3:D7:B3:FD:E6:36:4E:E2:F0:67:0A:06:8F:86:32:0D:8F:D8:87
            X509v3 Key Usage: critical
                Digital Signature, Non Repudiation, Key Encipherment
            X509v3 Extended Key Usage: 
                TLS Web Client Authentication, E-mail Protection
    Signature Algorithm: ecdsa-with-SHA256
    Signature Value:
        30:45:02:21:00:e5:2d:c2:d5:98:e5:1c:f7:21:e1:b9:31:30:
        75:16:04:91:2b:2e:3e:13:14:9c:87:87:2f:4e:62:55:9c:e4:
        3d:02:20:4f:4a:34:2c:f8:9c:45:f6:d2:81:5b:72:a6:cf:dd:
        ac:15:f0:06:cd:7b:7d:f6:8d:ca:8c:49:7c:9b:8f:a8:c5
-----BEGIN CERTIFICATE-----
MIIDazCCAxGgAwIBAgIUIvPXs/3mNk7i8GcKBo+GMg2P2IcwCgYIKoZIzj0EAwIw
gZkxCzAJBgNVBAYTAlVTMRMwEQYDVQQIDApXYXNoaW5ndG9uMRAwDgYDVQQHDAdT
ZWF0dGxlMREwDwYDVQQKDAhFbGxpcHRpYzEVMBMGA1UECwwMRUNDMjU2SzEtQ0xJ
MRgwFgYDVQQDDA93d3cud29sZnNzbC5jb20xHzAdBgkqhkiG9w0BCQEWEGluZm9A
d29sZnNzbC5jb20wHhcNMjMwOTI2MTcyMjQyWhcNMzMwOTIzMTcyMjQyWjCBmTEL
MAkGA1UEBhMCVVMxEzARBgNVBAgMCldhc2hpbmd0b24xEDAOBgNVBAcMB1NlYXR0
bGUxETAPBgNVBAoMCEVsbGlwdGljMRUwEwYDVQQLDAxFQ0MyNTZLMS1DTEkxGDAW
BgNVBAMMD3d3dy53b2xmc3NsLmNvbTEfMB0GCSqGSIb3DQEJARYQaW5mb0B3b2xm
c3NsLmNvbTBWMBAGByqGSM49AgEGBSuBBAAKA0IABO5qkKt5Cb9YmAhXh8KYL8kx
lhr5JGCRFE9EfIWzU164cnowWysRkGh++iid5DWM35tn3OYRwU3NN1dSS43/W8ej
ggE2MIIBMjAJBgNVHRMEAjAAMBEGCWCGSAGG+EIBAQQEAwIFoDAdBgNVHQ4EFgQU
1jRi+wqf3ndG6PyOB210vDiuBW4wgcMGA1UdIwSBuzCBuKGBn6SBnDCBmTELMAkG
A1UEBhMCVVMxEzARBgNVBAgMCldhc2hpbmd0b24xEDAOBgNVBAcMB1NlYXR0bGUx
ETAPBgNVBAoMCEVsbGlwdGljMRUwEwYDVQQLDAxFQ0MyNTZLMS1DTEkxGDAWBgNV
BAMMD3d3dy53b2xmc3NsLmNvbTEfMB0GCSqGSIb3DQEJARYQaW5mb0B3b2xmc3Ns
LmNvbYIUIvPXs/3mNk7i8GcKBo+GMg2P2IcwDgYDVR0PAQH/BAQDAgXgMB0GA1Ud
JQQWMBQGCCsGAQUFBwMCBggrBgEFBQcDBDAKBggqhkjOPQQDAgNIADBFAiEA5S3C
1ZjlHPch4bkxMHUWBJErLj4TFJyHhy9OYlWc5D0CIE9KNCz4nEX20oFbcqbP3awV
8AbNe332jcqMSXybj6jF
-----END CERTIFICATE-----
