Certificate:
    Data:
        Version: 3 (0x2)
        Serial Number:
            3b:df:ba:29:40:bb:87:11:98:a2:b0:54:45:eb:7a:53:02:3a:89:72
        Signature Algorithm: ecdsa-with-SHA256
        Issuer: C = US, ST = Washington, L = Seattle, O = Eliptic, OU = ECC256BPR1-CLI, CN = www.wolfssl.com, emailAddress = info@wolfssl.com
        Validity
            Not Before: Dec 20 23:07:24 2021 GMT
            Not After : Dec 18 23:07:24 2031 GMT
        Subject: C = US, ST = Washington, L = Seattle, O = Eliptic, OU = ECC256BPR1-CLI, CN = www.wolfssl.com, emailAddress = info@wolfssl.com
        Subject Public Key Info:
            Public Key Algorithm: id-ecPublicKey
                Public-Key: (256 bit)
                pub:
                    04:9d:08:dc:59:b7:10:5d:e4:58:7e:aa:62:dd:7a:
                    89:69:d2:b5:18:28:5d:22:31:7c:6f:a5:bb:31:90:
                    42:20:ed:9c:29:ea:4a:74:33:a1:93:4f:9a:26:72:
                    61:1c:4b:72:39:9f:ac:63:d5:b2:42:df:0e:b4:f2:
                    7e:c7:48:eb:0c
                ASN1 OID: brainpoolP256r1
        X509v3 extensions:
            X509v3 Basic Constraints: 
                CA:FALSE
            Netscape Cert Type: 
                SSL Client, S/MIME
            X509v3 Subject Key Identifier: 
                CF:BD:08:4A:BF:DC:D1:7C:E9:D9:FE:E8:3B:FA:84:63:07:7C:88:DB
            X509v3 Authority Key Identifier: 
                keyid:CF:BD:08:4A:BF:DC:D1:7C:E9:D9:FE:E8:3B:FA:84:63:07:7C:88:DB

            X509v3 Key Usage: critical
                Digital Signature, Non Repudiation, Key Encipherment
            X509v3 Extended Key Usage: 
                TLS Web Client Authentication, E-mail Protection
    Signature Algorithm: ecdsa-with-SHA256
         30:45:02:21:00:81:4c:2c:5d:44:da:ec:e4:9c:df:a8:c6:93:
         ad:fa:45:68:43:6a:c2:63:00:60:e7:a6:3a:01:c4:95:ed:d8:
         dd:02:20:74:94:80:83:97:25:17:6d:8a:28:dd:31:c7:ee:2a:
         d9:13:f8:3b:48:a0:88:15:26:79:df:d4:00:7c:07:58:f8
-----BEGIN CERTIFICATE-----
MIICyjCCAnCgAwIBAgIUO9+6KUC7hxGYorBURet6UwI6iXIwCgYIKoZIzj0EAwIw
gZoxCzAJBgNVBAYTAlVTMRMwEQYDVQQIDApXYXNoaW5ndG9uMRAwDgYDVQQHDAdT
ZWF0dGxlMRAwDgYDVQQKDAdFbGlwdGljMRcwFQYDVQQLDA5FQ0MyNTZCUFIxLUNM
STEYMBYGA1UEAwwPd3d3LndvbGZzc2wuY29tMR8wHQYJKoZIhvcNAQkBFhBpbmZv
QHdvbGZzc2wuY29tMB4XDTIxMTIyMDIzMDcyNFoXDTMxMTIxODIzMDcyNFowgZox
CzAJBgNVBAYTAlVTMRMwEQYDVQQIDApXYXNoaW5ndG9uMRAwDgYDVQQHDAdTZWF0
dGxlMRAwDgYDVQQKDAdFbGlwdGljMRcwFQYDVQQLDA5FQ0MyNTZCUFIxLUNMSTEY
MBYGA1UEAwwPd3d3LndvbGZzc2wuY29tMR8wHQYJKoZIhvcNAQkBFhBpbmZvQHdv
bGZzc2wuY29tMFowFAYHKoZIzj0CAQYJKyQDAwIIAQEHA0IABJ0I3Fm3EF3kWH6q
Yt16iWnStRgoXSIxfG+luzGQQiDtnCnqSnQzoZNPmiZyYRxLcjmfrGPVskLfDrTy
fsdI6wyjgZAwgY0wCQYDVR0TBAIwADARBglghkgBhvhCAQEEBAMCBaAwHQYDVR0O
BBYEFM+9CEq/3NF86dn+6Dv6hGMHfIjbMB8GA1UdIwQYMBaAFM+9CEq/3NF86dn+
6Dv6hGMHfIjbMA4GA1UdDwEB/wQEAwIF4DAdBgNVHSUEFjAUBggrBgEFBQcDAgYI
KwYBBQUHAwQwCgYIKoZIzj0EAwIDSAAwRQIhAIFMLF1E2uzknN+oxpOt+kVoQ2rC
YwBg56Y6AcSV7djdAiB0lICDlyUXbYoo3THH7irZE/g7SKCIFSZ539QAfAdY+A==
-----END CERTIFICATE-----
