Certificate:
    Data:
        Version: 3 (0x2)
        Serial Number:
            32:a0:cb:5f:26:62:a9:d9:14:ec:13:0e:78:b4:a2:0b:86:14:59:ce
        Signature Algorithm: ecdsa-with-SHA256
        Issuer: C = US, ST = Washington, L = Seattle, O = Elliptic, OU = ECC256K1-CLI, CN = www.wolfssl.com, emailAddress = info@wolfssl.com
        Validity
            Not Before: Dec 18 21:25:29 2024 GMT
            Not After : Dec 16 21:25:29 2034 GMT
        Subject: C = US, ST = Washington, L = Seattle, O = Elliptic, OU = ECC256K1-CLI, CN = www.wolfssl.com, emailAddress = info@wolfssl.com
        Subject Public Key Info:
            Public Key Algorithm: id-ecPublicKey
                Public-Key: (256 bit)
                pub:
                    04:02:55:2f:25:90:9d:54:d3:6e:23:b5:95:9e:67:
                    a3:f8:c2:46:3a:ed:67:56:6d:23:87:43:db:6f:38:
                    e6:5b:72:07:8d:1d:f8:5b:ea:b7:47:49:a9:8e:c7:
                    2d:23:99:9e:2e:8c:be:72:de:0b:d3:f0:b4:49:2d:
                    94:ec:6d:c2:3f
                ASN1 OID: secp256k1
        X509v3 extensions:
            X509v3 Basic Constraints: 
                CA:FALSE
            Netscape Cert Type: 
                SSL Client, S/MIME
            X509v3 Subject Key Identifier: 
                96:C4:7F:31:A2:90:B8:68:F1:9C:DD:75:16:52:DB:AC:04:B6:89:85
            X509v3 Authority Key Identifier: 
                DirName:/C=US/ST=Washington/L=Seattle/O=Elliptic/OU=ECC256K1-CLI/CN=www.wolfssl.com/emailAddress=info@wolfssl.com
                serial:32:A0:CB:5F:26:62:A9:D9:14:EC:13:0E:78:B4:A2:0B:86:14:59:CE
            X509v3 Key Usage: critical
                Digital Signature, Non Repudiation, Key Encipherment
            X509v3 Extended Key Usage: 
                TLS Web Client Authentication, E-mail Protection
    Signature Algorithm: ecdsa-with-SHA256
    Signature Value:
        30:44:02:20:6b:33:e9:a6:35:fa:9c:26:06:2a:e8:2d:35:ed:
        72:e3:90:b5:eb:c1:9b:7f:51:bc:ad:66:4a:de:37:c2:92:0c:
        02:20:69:9a:6a:e8:84:8f:2c:51:00:71:37:d9:a3:66:ba:11:
        d2:aa:e7:86:82:99:f5:4b:61:c7:0c:6d:c1:a3:2d:71
-----BEGIN CERTIFICATE-----
MIIDajCCAxGgAwIBAgIUMqDLXyZiqdkU7BMOeLSiC4YUWc4wCgYIKoZIzj0EAwIw
gZkxCzAJBgNVBAYTAlVTMRMwEQYDVQQIDApXYXNoaW5ndG9uMRAwDgYDVQQHDAdT
ZWF0dGxlMREwDwYDVQQKDAhFbGxpcHRpYzEVMBMGA1UECwwMRUNDMjU2SzEtQ0xJ
MRgwFgYDVQQDDA93d3cud29sZnNzbC5jb20xHzAdBgkqhkiG9w0BCQEWEGluZm9A
d29sZnNzbC5jb20wHhcNMjQxMjE4MjEyNTI5WhcNMzQxMjE2MjEyNTI5WjCBmTEL
MAkGA1UEBhMCVVMxEzARBgNVBAgMCldhc2hpbmd0b24xEDAOBgNVBAcMB1NlYXR0
bGUxETAPBgNVBAoMCEVsbGlwdGljMRUwEwYDVQQLDAxFQ0MyNTZLMS1DTEkxGDAW
BgNVBAMMD3d3dy53b2xmc3NsLmNvbTEfMB0GCSqGSIb3DQEJARYQaW5mb0B3b2xm
c3NsLmNvbTBWMBAGByqGSM49AgEGBSuBBAAKA0IABAJVLyWQnVTTbiO1lZ5no/jC
RjrtZ1ZtI4dD22845ltyB40d+Fvqt0dJqY7HLSOZni6MvnLeC9PwtEktlOxtwj+j
ggE2MIIBMjAJBgNVHRMEAjAAMBEGCWCGSAGG+EIBAQQEAwIFoDAdBgNVHQ4EFgQU
lsR/MaKQuGjxnN11FlLbrAS2iYUwgcMGA1UdIwSBuzCBuKGBn6SBnDCBmTELMAkG
A1UEBhMCVVMxEzARBgNVBAgMCldhc2hpbmd0b24xEDAOBgNVBAcMB1NlYXR0bGUx
ETAPBgNVBAoMCEVsbGlwdGljMRUwEwYDVQQLDAxFQ0MyNTZLMS1DTEkxGDAWBgNV
BAMMD3d3dy53b2xmc3NsLmNvbTEfMB0GCSqGSIb3DQEJARYQaW5mb0B3b2xmc3Ns
LmNvbYIUMqDLXyZiqdkU7BMOeLSiC4YUWc4wDgYDVR0PAQH/BAQDAgXgMB0GA1Ud
JQQWMBQGCCsGAQUFBwMCBggrBgEFBQcDBDAKBggqhkjOPQQDAgNHADBEAiBrM+mm
NfqcJgYq6C017XLjkLXrwZt/UbytZkreN8KSDAIgaZpq6ISPLFEAcTfZo2a6EdKq
54aCmfVLYccMbcGjLXE=
-----END CERTIFICATE-----
