Certificate:
    Data:
        Version: 3 (0x2)
        Serial Number:
            09:f3:3f:76:e4:b2:21:b6:a9:9d:ea:41:71:b7:ce:cf:85:37:28:0e
        Signature Algorithm: ecdsa-with-SHA256
        Issuer: C = US, ST = Washington, L = Seattle, O = Eliptic, OU = ECC256BPR1-SRV, CN = www.wolfssl.com, emailAddress = info@wolfssl.com
        Validity
            Not Before: Feb 15 12:50:24 2022 GMT
            Not After : Feb 13 12:50:24 2032 GMT
        Subject: C = US, ST = Washington, L = Seattle, O = Eliptic, OU = ECC256BPR1-SRV, CN = www.wolfssl.com, emailAddress = info@wolfssl.com
        Subject Public Key Info:
            Public Key Algorithm: id-ecPublicKey
                Public-Key: (256 bit)
                pub:
                    04:93:3b:0a:2a:27:b3:90:43:87:d5:45:77:db:ff:
                    7f:94:69:f8:b8:ac:9b:c6:fa:36:77:22:7b:9b:26:
                    75:39:10:64:29:53:ca:37:c9:91:b6:41:14:b3:f2:
                    b3:26:d6:70:69:ef:ec:c4:89:ff:72:f4:bf:46:ac:
                    42:92:0b:42:1c
                ASN1 OID: brainpoolP256r1
        X509v3 extensions:
            X509v3 Basic Constraints: 
                CA:FALSE
            Netscape Cert Type: 
                SSL Server
            X509v3 Subject Key Identifier: 
                C7:C8:CF:E8:EA:F3:5B:D4:34:B9:D9:C0:44:A3:2A:D7:68:1A:B4:BD
            X509v3 Authority Key Identifier: 
                keyid:C7:C8:CF:E8:EA:F3:5B:D4:34:B9:D9:C0:44:A3:2A:D7:68:1A:B4:BD
                DirName:/C=US/ST=Washington/L=Seattle/O=Eliptic/OU=ECC256BPR1-SRV/CN=www.wolfssl.com/emailAddress=info@wolfssl.com
                serial:09:F3:3F:76:E4:B2:21:B6:A9:9D:EA:41:71:B7:CE:CF:85:37:28:0E

            X509v3 Key Usage: critical
                Digital Signature, Key Encipherment, Key Agreement
            X509v3 Extended Key Usage: 
                TLS Web Server Authentication
    Signature Algorithm: ecdsa-with-SHA256
         30:44:02:20:7d:44:47:23:3d:21:a8:75:10:0e:53:37:e6:73:
         f1:0d:4c:da:2e:02:79:3d:db:4f:32:43:a2:5f:bb:dd:27:4c:
         02:20:12:08:0f:2a:d0:1f:30:8a:77:d5:5a:93:98:69:9e:26:
         1b:3d:79:56:ba:30:75:b6:c7:94:b1:f0:0f:93:39:a9
-----BEGIN CERTIFICATE-----
MIIDfTCCAySgAwIBAgIUCfM/duSyIbapnepBcbfOz4U3KA4wCgYIKoZIzj0EAwIw
gZoxCzAJBgNVBAYTAlVTMRMwEQYDVQQIDApXYXNoaW5ndG9uMRAwDgYDVQQHDAdT
ZWF0dGxlMRAwDgYDVQQKDAdFbGlwdGljMRcwFQYDVQQLDA5FQ0MyNTZCUFIxLVNS
VjEYMBYGA1UEAwwPd3d3LndvbGZzc2wuY29tMR8wHQYJKoZIhvcNAQkBFhBpbmZv
QHdvbGZzc2wuY29tMB4XDTIyMDIxNTEyNTAyNFoXDTMyMDIxMzEyNTAyNFowgZox
CzAJBgNVBAYTAlVTMRMwEQYDVQQIDApXYXNoaW5ndG9uMRAwDgYDVQQHDAdTZWF0
dGxlMRAwDgYDVQQKDAdFbGlwdGljMRcwFQYDVQQLDA5FQ0MyNTZCUFIxLVNSVjEY
MBYGA1UEAwwPd3d3LndvbGZzc2wuY29tMR8wHQYJKoZIhvcNAQkBFhBpbmZvQHdv
bGZzc2wuY29tMFowFAYHKoZIzj0CAQYJKyQDAwIIAQEHA0IABJM7Cions5BDh9VF
d9v/f5Rp+Lism8b6Nncie5smdTkQZClTyjfJkbZBFLPysybWcGnv7MSJ/3L0v0as
QpILQhyjggFDMIIBPzAJBgNVHRMEAjAAMBEGCWCGSAGG+EIBAQQEAwIGQDAdBgNV
HQ4EFgQUx8jP6OrzW9Q0udnARKMq12gatL0wgdoGA1UdIwSB0jCBz4AUx8jP6Orz
W9Q0udnARKMq12gatL2hgaCkgZ0wgZoxCzAJBgNVBAYTAlVTMRMwEQYDVQQIDApX
YXNoaW5ndG9uMRAwDgYDVQQHDAdTZWF0dGxlMRAwDgYDVQQKDAdFbGlwdGljMRcw
FQYDVQQLDA5FQ0MyNTZCUFIxLVNSVjEYMBYGA1UEAwwPd3d3LndvbGZzc2wuY29t
MR8wHQYJKoZIhvcNAQkBFhBpbmZvQHdvbGZzc2wuY29tghQJ8z925LIhtqmd6kFx
t87PhTcoDjAOBgNVHQ8BAf8EBAMCA6gwEwYDVR0lBAwwCgYIKwYBBQUHAwEwCgYI
KoZIzj0EAwIDRwAwRAIgfURHIz0hqHUQDlM35nPxDUzaLgJ5PdtPMkOiX7vdJ0wC
IBIIDyrQHzCKd9Vak5hpniYbPXlWujB1tseUsfAPkzmp
-----END CERTIFICATE-----
