Certificate:
    Data:
        Version: 3 (0x2)
        Serial Number:
            08:c3:a6:c3:3e:ba:4d:27:34:46:64:c6:e7:79:6c:68:25:e2:e8:d2
        Signature Algorithm: ecdsa-with-SHA256
        Issuer: C = US, ST = Washington, L = Seattle, O = Elliptic, OU = ECC256BPR1-SRV, CN = www.wolfssl.com, emailAddress = info@wolfssl.com
        Validity
            Not Before: Dec 13 22:19:28 2023 GMT
            Not After : Dec 10 22:19:28 2033 GMT
        Subject: C = US, ST = Washington, L = Seattle, O = Elliptic, OU = ECC256BPR1-SRV, CN = www.wolfssl.com, emailAddress = info@wolfssl.com
        Subject Public Key Info:
            Public Key Algorithm: id-ecPublicKey
                Public-Key: (256 bit)
                pub:
                    04:51:f0:ec:e0:5c:38:82:7a:57:c1:cb:4f:32:a3:
                    d0:dd:a2:7c:d9:22:fe:77:97:05:37:85:fb:41:57:
                    df:fb:96:14:19:7f:79:48:70:f0:78:e8:76:9f:35:
                    e1:ad:74:b1:80:8c:fa:ea:62:8b:69:c7:2b:bb:69:
                    33:17:1a:f3:48
                ASN1 OID: brainpoolP256r1
        X509v3 extensions:
            X509v3 Basic Constraints: 
                CA:FALSE
            Netscape Cert Type: 
                SSL Server
            X509v3 Subject Key Identifier: 
                77:B6:46:96:B9:B7:0D:54:A3:03:E8:21:F5:8D:37:69:3D:89:AD:FA
            X509v3 Authority Key Identifier: 
                keyid:77:B6:46:96:B9:B7:0D:54:A3:03:E8:21:F5:8D:37:69:3D:89:AD:FA
                DirName:/C=US/ST=Washington/L=Seattle/O=Elliptic/OU=ECC256BPR1-SRV/CN=www.wolfssl.com/emailAddress=info@wolfssl.com
                serial:08:C3:A6:C3:3E:BA:4D:27:34:46:64:C6:E7:79:6C:68:25:E2:E8:D2

            X509v3 Key Usage: critical
                Digital Signature, Key Encipherment, Key Agreement
            X509v3 Extended Key Usage: 
                TLS Web Server Authentication
    Signature Algorithm: ecdsa-with-SHA256
         30:44:02:20:69:b5:0e:9a:17:cc:4d:5e:3b:b7:9d:ee:e8:76:
         a6:c0:94:c1:1f:e3:34:3a:cb:6a:9b:09:b1:55:0d:db:3a:c0:
         02:20:5b:8d:09:46:fd:7c:73:ca:c8:18:3c:ed:1a:84:9c:c9:
         02:f4:50:3a:26:8a:eb:76:6b:82:a7:7f:95:18:ba:10
-----BEGIN CERTIFICATE-----
MIIDgDCCAyegAwIBAgIUCMOmwz66TSc0RmTG53lsaCXi6NIwCgYIKoZIzj0EAwIw
gZsxCzAJBgNVBAYTAlVTMRMwEQYDVQQIDApXYXNoaW5ndG9uMRAwDgYDVQQHDAdT
ZWF0dGxlMREwDwYDVQQKDAhFbGxpcHRpYzEXMBUGA1UECwwORUNDMjU2QlBSMS1T
UlYxGDAWBgNVBAMMD3d3dy53b2xmc3NsLmNvbTEfMB0GCSqGSIb3DQEJARYQaW5m
b0B3b2xmc3NsLmNvbTAeFw0yMzEyMTMyMjE5MjhaFw0zMzEyMTAyMjE5MjhaMIGb
MQswCQYDVQQGEwJVUzETMBEGA1UECAwKV2FzaGluZ3RvbjEQMA4GA1UEBwwHU2Vh
dHRsZTERMA8GA1UECgwIRWxsaXB0aWMxFzAVBgNVBAsMDkVDQzI1NkJQUjEtU1JW
MRgwFgYDVQQDDA93d3cud29sZnNzbC5jb20xHzAdBgkqhkiG9w0BCQEWEGluZm9A
d29sZnNzbC5jb20wWjAUBgcqhkjOPQIBBgkrJAMDAggBAQcDQgAEUfDs4Fw4gnpX
wctPMqPQ3aJ82SL+d5cFN4X7QVff+5YUGX95SHDweOh2nzXhrXSxgIz66mKLaccr
u2kzFxrzSKOCAUQwggFAMAkGA1UdEwQCMAAwEQYJYIZIAYb4QgEBBAQDAgZAMB0G
A1UdDgQWBBR3tkaWubcNVKMD6CH1jTdpPYmt+jCB2wYDVR0jBIHTMIHQgBR3tkaW
ubcNVKMD6CH1jTdpPYmt+qGBoaSBnjCBmzELMAkGA1UEBhMCVVMxEzARBgNVBAgM
Cldhc2hpbmd0b24xEDAOBgNVBAcMB1NlYXR0bGUxETAPBgNVBAoMCEVsbGlwdGlj
MRcwFQYDVQQLDA5FQ0MyNTZCUFIxLVNSVjEYMBYGA1UEAwwPd3d3LndvbGZzc2wu
Y29tMR8wHQYJKoZIhvcNAQkBFhBpbmZvQHdvbGZzc2wuY29tghQIw6bDPrpNJzRG
ZMbneWxoJeLo0jAOBgNVHQ8BAf8EBAMCA6gwEwYDVR0lBAwwCgYIKwYBBQUHAwEw
CgYIKoZIzj0EAwIDRwAwRAIgabUOmhfMTV47t53u6HamwJTBH+M0OstqmwmxVQ3b
OsACIFuNCUb9fHPKyBg87RqEnMkC9FA6JorrdmuCp3+VGLoQ
-----END CERTIFICATE-----
