Certificate:
    Data:
        Version: 3 (0x2)
        Serial Number:
            7a:b2:20:95:5b:df:bd:f9:c5:fe:8d:e2:27:d1:b2:58:d3:34:bb:c0
        Signature Algorithm: ecdsa-with-SHA256
        Issuer: C = US, ST = Washington, L = Seattle, O = Elliptic, OU = ECC256K1-SRV, CN = www.wolfssl.com, emailAddress = info@wolfssl.com
        Validity
            Not Before: Sep 26 17:22:42 2023 GMT
            Not After : Sep 23 17:22:42 2033 GMT
        Subject: C = US, ST = Washington, L = Seattle, O = Elliptic, OU = ECC256K1-SRV, CN = www.wolfssl.com, emailAddress = info@wolfssl.com
        Subject Public Key Info:
            Public Key Algorithm: id-ecPublicKey
                Public-Key: (256 bit)
                pub:
                    04:ee:6a:90:ab:79:09:bf:58:98:08:57:87:c2:98:
                    2f:c9:31:96:1a:f9:24:60:91:14:4f:44:7c:85:b3:
                    53:5e:b8:72:7a:30:5b:2b:11:90:68:7e:fa:28:9d:
                    e4:35:8c:df:9b:67:dc:e6:11:c1:4d:cd:37:57:52:
                    4b:8d:ff:5b:c7
                ASN1 OID: secp256k1
        X509v3 extensions:
            X509v3 Basic Constraints: 
                CA:FALSE
            Netscape Cert Type: 
                SSL Server
            X509v3 Subject Key Identifier: 
                D6:34:62:FB:0A:9F:DE:77:46:E8:FC:8E:07:6D:74:BC:38:AE:05:6E
            X509v3 Authority Key Identifier: 
                DirName:/C=US/ST=Washington/L=Seattle/O=Elliptic/OU=ECC256K1-SRV/CN=www.wolfssl.com/emailAddress=info@wolfssl.com
                serial:7A:B2:20:95:5B:DF:BD:F9:C5:FE:8D:E2:27:D1:B2:58:D3:34:BB:C0
            X509v3 Key Usage: critical
                Digital Signature, Key Encipherment, Key Agreement
            X509v3 Extended Key Usage: 
                TLS Web Server Authentication
    Signature Algorithm: ecdsa-with-SHA256
    Signature Value:
        30:46:02:21:00:a8:f0:11:d1:41:51:46:f1:97:f8:d1:80:35:
        27:22:b4:1f:b2:28:ae:26:1f:e5:ab:dc:a7:00:86:2a:82:7e:
        c9:02:21:00:ba:be:b6:52:93:3f:11:a5:c4:ba:f0:97:f1:8a:
        f7:b1:2b:bd:d2:bb:ea:2f:51:03:15:bf:d1:00:eb:f3:c9:0e
-----BEGIN CERTIFICATE-----
MIIDYjCCAwegAwIBAgIUerIglVvfvfnF/o3iJ9GyWNM0u8AwCgYIKoZIzj0EAwIw
gZkxCzAJBgNVBAYTAlVTMRMwEQYDVQQIDApXYXNoaW5ndG9uMRAwDgYDVQQHDAdT
ZWF0dGxlMREwDwYDVQQKDAhFbGxpcHRpYzEVMBMGA1UECwwMRUNDMjU2SzEtU1JW
MRgwFgYDVQQDDA93d3cud29sZnNzbC5jb20xHzAdBgkqhkiG9w0BCQEWEGluZm9A
d29sZnNzbC5jb20wHhcNMjMwOTI2MTcyMjQyWhcNMzMwOTIzMTcyMjQyWjCBmTEL
MAkGA1UEBhMCVVMxEzARBgNVBAgMCldhc2hpbmd0b24xEDAOBgNVBAcMB1NlYXR0
bGUxETAPBgNVBAoMCEVsbGlwdGljMRUwEwYDVQQLDAxFQ0MyNTZLMS1TUlYxGDAW
BgNVBAMMD3d3dy53b2xmc3NsLmNvbTEfMB0GCSqGSIb3DQEJARYQaW5mb0B3b2xm
c3NsLmNvbTBWMBAGByqGSM49AgEGBSuBBAAKA0IABO5qkKt5Cb9YmAhXh8KYL8kx
lhr5JGCRFE9EfIWzU164cnowWysRkGh++iid5DWM35tn3OYRwU3NN1dSS43/W8ej
ggEsMIIBKDAJBgNVHRMEAjAAMBEGCWCGSAGG+EIBAQQEAwIGQDAdBgNVHQ4EFgQU
1jRi+wqf3ndG6PyOB210vDiuBW4wgcMGA1UdIwSBuzCBuKGBn6SBnDCBmTELMAkG
A1UEBhMCVVMxEzARBgNVBAgMCldhc2hpbmd0b24xEDAOBgNVBAcMB1NlYXR0bGUx
ETAPBgNVBAoMCEVsbGlwdGljMRUwEwYDVQQLDAxFQ0MyNTZLMS1TUlYxGDAWBgNV
BAMMD3d3dy53b2xmc3NsLmNvbTEfMB0GCSqGSIb3DQEJARYQaW5mb0B3b2xmc3Ns
LmNvbYIUerIglVvfvfnF/o3iJ9GyWNM0u8AwDgYDVR0PAQH/BAQDAgOoMBMGA1Ud
JQQMMAoGCCsGAQUFBwMBMAoGCCqGSM49BAMCA0kAMEYCIQCo8BHRQVFG8Zf40YA1
JyK0H7IoriYf5avcpwCGKoJ+yQIhALq+tlKTPxGlxLrwl/GK97ErvdK76i9RAxW/
0QDr88kO
-----END CERTIFICATE-----
