Certificate:
    Data:
        Version: 3 (0x2)
        Serial Number:
            75:8b:6b:62:1b:10:fb:a0:c1:e3:79:bf:0a:2e:15:12:89:6f:df:a7
        Signature Algorithm: ecdsa-with-SHA256
        Issuer: C = US, ST = Washington, L = Seattle, O = Eliptic, OU = ECC256BPR1-SRV, CN = www.wolfssl.com, emailAddress = info@wolfssl.com
        Validity
            Not Before: Dec 20 23:07:24 2021 GMT
            Not After : Dec 18 23:07:24 2031 GMT
        Subject: C = US, ST = Washington, L = Seattle, O = Eliptic, OU = ECC256BPR1-SRV, CN = www.wolfssl.com, emailAddress = info@wolfssl.com
        Subject Public Key Info:
            Public Key Algorithm: id-ecPublicKey
                Public-Key: (256 bit)
                pub:
                    04:9d:08:dc:59:b7:10:5d:e4:58:7e:aa:62:dd:7a:
                    89:69:d2:b5:18:28:5d:22:31:7c:6f:a5:bb:31:90:
                    42:20:ed:9c:29:ea:4a:74:33:a1:93:4f:9a:26:72:
                    61:1c:4b:72:39:9f:ac:63:d5:b2:42:df:0e:b4:f2:
                    7e:c7:48:eb:0c
                ASN1 OID: brainpoolP256r1
        X509v3 extensions:
            X509v3 Basic Constraints: 
                CA:FALSE
            Netscape Cert Type: 
                SSL Server
            X509v3 Subject Key Identifier: 
                CF:BD:08:4A:BF:DC:D1:7C:E9:D9:FE:E8:3B:FA:84:63:07:7C:88:DB
            X509v3 Authority Key Identifier: 
                keyid:CF:BD:08:4A:BF:DC:D1:7C:E9:D9:FE:E8:3B:FA:84:63:07:7C:88:DB
                DirName:/C=US/ST=Washington/L=Seattle/O=Eliptic/OU=ECC256BPR1-SRV/CN=www.wolfssl.com/emailAddress=info@wolfssl.com
                serial:75:8B:6B:62:1B:10:FB:A0:C1:E3:79:BF:0A:2E:15:12:89:6F:DF:A7

            X509v3 Key Usage: critical
                Digital Signature, Key Encipherment, Key Agreement
            X509v3 Extended Key Usage: 
                TLS Web Server Authentication
    Signature Algorithm: ecdsa-with-SHA256
         30:44:02:20:1e:54:83:c9:5c:94:38:fe:e8:f4:e6:51:cb:b9:
         af:85:bc:97:e6:c1:09:3d:c7:bc:39:74:4e:b8:aa:ea:53:2c:
         02:20:6e:89:c2:33:5a:13:13:32:0e:51:93:a4:5d:08:b0:14:
         98:42:db:00:80:9e:0a:1f:de:19:8e:6c:80:bb:37:12
-----BEGIN CERTIFICATE-----
MIIDfTCCAySgAwIBAgIUdYtrYhsQ+6DB43m/Ci4VEolv36cwCgYIKoZIzj0EAwIw
gZoxCzAJBgNVBAYTAlVTMRMwEQYDVQQIDApXYXNoaW5ndG9uMRAwDgYDVQQHDAdT
ZWF0dGxlMRAwDgYDVQQKDAdFbGlwdGljMRcwFQYDVQQLDA5FQ0MyNTZCUFIxLVNS
VjEYMBYGA1UEAwwPd3d3LndvbGZzc2wuY29tMR8wHQYJKoZIhvcNAQkBFhBpbmZv
QHdvbGZzc2wuY29tMB4XDTIxMTIyMDIzMDcyNFoXDTMxMTIxODIzMDcyNFowgZox
CzAJBgNVBAYTAlVTMRMwEQYDVQQIDApXYXNoaW5ndG9uMRAwDgYDVQQHDAdTZWF0
dGxlMRAwDgYDVQQKDAdFbGlwdGljMRcwFQYDVQQLDA5FQ0MyNTZCUFIxLVNSVjEY
MBYGA1UEAwwPd3d3LndvbGZzc2wuY29tMR8wHQYJKoZIhvcNAQkBFhBpbmZvQHdv
bGZzc2wuY29tMFowFAYHKoZIzj0CAQYJKyQDAwIIAQEHA0IABJ0I3Fm3EF3kWH6q
Yt16iWnStRgoXSIxfG+luzGQQiDtnCnqSnQzoZNPmiZyYRxLcjmfrGPVskLfDrTy
fsdI6wyjggFDMIIBPzAJBgNVHRMEAjAAMBEGCWCGSAGG+EIBAQQEAwIGQDAdBgNV
HQ4EFgQUz70ISr/c0Xzp2f7oO/qEYwd8iNswgdoGA1UdIwSB0jCBz4AUz70ISr/c
0Xzp2f7oO/qEYwd8iNuhgaCkgZ0wgZoxCzAJBgNVBAYTAlVTMRMwEQYDVQQIDApX
YXNoaW5ndG9uMRAwDgYDVQQHDAdTZWF0dGxlMRAwDgYDVQQKDAdFbGlwdGljMRcw
FQYDVQQLDA5FQ0MyNTZCUFIxLVNSVjEYMBYGA1UEAwwPd3d3LndvbGZzc2wuY29t
MR8wHQYJKoZIhvcNAQkBFhBpbmZvQHdvbGZzc2wuY29tghR1i2tiGxD7oMHjeb8K
LhUSiW/fpzAOBgNVHQ8BAf8EBAMCA6gwEwYDVR0lBAwwCgYIKwYBBQUHAwEwCgYI
KoZIzj0EAwIDRwAwRAIgHlSDyVyUOP7o9OZRy7mvhbyX5sEJPce8OXROuKrqUywC
IG6JwjNaExMyDlGTpF0IsBSYQtsAgJ4KH94ZjmyAuzcS
-----END CERTIFICATE-----
