Certificate:
    Data:
        Version: 3 (0x2)
        Serial Number:
            2f:f8:fa:8b:cf:ec:8f:2c:bc:40:fb:95:a0:3e:04:db:dd:c5:7f:08
        Signature Algorithm: ecdsa-with-SHA256
        Issuer: C = US, ST = Washington, L = Seattle, O = Eliptic, OU = ECC256BPR1-SRV, CN = www.wolfssl.com, emailAddress = info@wolfssl.com
        Validity
            Not Before: Oct 15 20:13:55 2020 GMT
            Not After : Oct 13 20:13:55 2030 GMT
        Subject: C = US, ST = Washington, L = Seattle, O = Eliptic, OU = ECC256BPR1-SRV, CN = www.wolfssl.com, emailAddress = info@wolfssl.com
        Subject Public Key Info:
            Public Key Algorithm: id-ecPublicKey
                Public-Key: (256 bit)
                pub:
                    04:2e:ef:27:cb:57:3a:dc:62:25:b6:b5:42:5c:ee:
                    29:56:e3:a8:ce:86:6e:44:52:23:15:c8:43:c0:62:
                    10:16:1e:4a:cb:88:d0:75:e0:38:6b:80:84:64:9f:
                    70:aa:d8:bb:33:90:c1:db:81:46:ae:e9:81:c9:03:
                    69:b5:ce:ad:eb
                ASN1 OID: brainpoolP256r1
        X509v3 extensions:
            X509v3 Basic Constraints: 
                CA:FALSE
            Netscape Cert Type: 
                SSL Server
            X509v3 Subject Key Identifier: 
                B4:1B:3B:4F:65:F2:BF:9E:8A:8F:E3:33:96:44:1F:67:EA:B3:34:D5
            X509v3 Authority Key Identifier: 
                keyid:B4:1B:3B:4F:65:F2:BF:9E:8A:8F:E3:33:96:44:1F:67:EA:B3:34:D5
                DirName:/C=US/ST=Washington/L=Seattle/O=Eliptic/OU=ECC256BPR1-SRV/CN=www.wolfssl.com/emailAddress=info@wolfssl.com
                serial:2F:F8:FA:8B:CF:EC:8F:2C:BC:40:FB:95:A0:3E:04:DB:DD:C5:7F:08

            X509v3 Key Usage: critical
                Digital Signature, Key Encipherment, Key Agreement
            X509v3 Extended Key Usage: 
                TLS Web Server Authentication
    Signature Algorithm: ecdsa-with-SHA256
         30:45:02:21:00:81:37:b3:f7:a7:e7:9d:1b:62:3f:25:20:02:
         45:93:45:5c:91:23:1b:8b:bc:09:0c:f7:ef:51:29:a4:90:ec:
         91:02:20:74:dd:26:c3:eb:24:e1:33:ce:b4:c6:f8:5f:9f:99:
         6d:2b:9a:ee:ac:33:d8:08:29:19:3c:00:f1:83:de:a6:af
-----BEGIN CERTIFICATE-----
MIIDfjCCAySgAwIBAgIUL/j6i8/sjyy8QPuVoD4E293FfwgwCgYIKoZIzj0EAwIw
gZoxCzAJBgNVBAYTAlVTMRMwEQYDVQQIDApXYXNoaW5ndG9uMRAwDgYDVQQHDAdT
ZWF0dGxlMRAwDgYDVQQKDAdFbGlwdGljMRcwFQYDVQQLDA5FQ0MyNTZCUFIxLVNS
VjEYMBYGA1UEAwwPd3d3LndvbGZzc2wuY29tMR8wHQYJKoZIhvcNAQkBFhBpbmZv
QHdvbGZzc2wuY29tMB4XDTIwMTAxNTIwMTM1NVoXDTMwMTAxMzIwMTM1NVowgZox
CzAJBgNVBAYTAlVTMRMwEQYDVQQIDApXYXNoaW5ndG9uMRAwDgYDVQQHDAdTZWF0
dGxlMRAwDgYDVQQKDAdFbGlwdGljMRcwFQYDVQQLDA5FQ0MyNTZCUFIxLVNSVjEY
MBYGA1UEAwwPd3d3LndvbGZzc2wuY29tMR8wHQYJKoZIhvcNAQkBFhBpbmZvQHdv
bGZzc2wuY29tMFowFAYHKoZIzj0CAQYJKyQDAwIIAQEHA0IABC7vJ8tXOtxiJba1
QlzuKVbjqM6GbkRSIxXIQ8BiEBYeSsuI0HXgOGuAhGSfcKrYuzOQwduBRq7pgckD
abXOreujggFDMIIBPzAJBgNVHRMEAjAAMBEGCWCGSAGG+EIBAQQEAwIGQDAdBgNV
HQ4EFgQUtBs7T2Xyv56Kj+MzlkQfZ+qzNNUwgdoGA1UdIwSB0jCBz4AUtBs7T2Xy
v56Kj+MzlkQfZ+qzNNWhgaCkgZ0wgZoxCzAJBgNVBAYTAlVTMRMwEQYDVQQIDApX
YXNoaW5ndG9uMRAwDgYDVQQHDAdTZWF0dGxlMRAwDgYDVQQKDAdFbGlwdGljMRcw
FQYDVQQLDA5FQ0MyNTZCUFIxLVNSVjEYMBYGA1UEAwwPd3d3LndvbGZzc2wuY29t
MR8wHQYJKoZIhvcNAQkBFhBpbmZvQHdvbGZzc2wuY29tghQv+PqLz+yPLLxA+5Wg
PgTb3cV/CDAOBgNVHQ8BAf8EBAMCA6gwEwYDVR0lBAwwCgYIKwYBBQUHAwEwCgYI
KoZIzj0EAwIDSAAwRQIhAIE3s/en550bYj8lIAJFk0VckSMbi7wJDPfvUSmkkOyR
AiB03SbD6yThM860xvhfn5ltK5rurDPYCCkZPADxg96mrw==
-----END CERTIFICATE-----
