Certificate:
    Data:
        Version: 3 (0x2)
        Serial Number:
            53:b3:3c:3a:8b:78:70:b3:e6:c0:05:5d:7c:3e:55:48:a7:5e:4e:eb
        Signature Algorithm: ecdsa-with-SHA256
        Issuer: C = US, ST = Washington, L = Seattle, O = Elliptic, OU = SECP256K1, CN = www.wolfssl.com, emailAddress = info@wolfssl.com
        Validity
            Not Before: Dec 18 21:25:29 2024 GMT
            Not After : Dec 16 21:25:29 2034 GMT
        Subject: C = US, ST = Washington, L = Seattle, O = Elliptic, OU = SECP256K1-SVR, CN = www.wolfssl.com, emailAddress = info@wolfssl.com
        Subject Public Key Info:
            Public Key Algorithm: id-ecPublicKey
                Public-Key: (256 bit)
                pub:
                    04:6f:7f:d8:ef:92:fe:a4:28:a9:33:85:69:a4:e8:
                    e3:37:46:39:a2:be:8f:26:31:59:20:8a:d7:5b:74:
                    7a:ca:01:5e:54:4f:dc:d2:d2:a5:db:1e:8e:e6:94:
                    f6:4e:39:e8:c4:b2:87:52:93:dc:af:ce:30:00:9c:
                    79:d2:48:04:98
                ASN1 OID: secp256k1
        X509v3 extensions:
            X509v3 Basic Constraints: 
                CA:FALSE
            Netscape Cert Type: 
                SSL Server
            X509v3 Subject Key Identifier: 
                F4:A3:FD:34:57:E6:51:1F:0A:96:2F:F0:87:A9:7C:C7:EB:6B:34:8F
            X509v3 Authority Key Identifier: 
                keyid:7E:69:FB:C0:51:CF:2D:4C:30:CB:D8:D9:58:73:8E:CB:64:34:09:9D
                DirName:/C=US/ST=Washington/L=Seattle/O=Elliptic/OU=SECP256K1/CN=www.wolfssl.com/emailAddress=info@wolfssl.com
                serial:51:CF:51:A4:FE:AF:D5:61:0E:CD:98:C4:B6:BE:07:73:97:9A:44:96
            X509v3 Key Usage: critical
                Digital Signature, Key Encipherment, Key Agreement
            X509v3 Extended Key Usage: 
                TLS Web Server Authentication
    Signature Algorithm: ecdsa-with-SHA256
    Signature Value:
        30:45:02:21:00:b5:91:fd:1b:d2:bf:2c:c4:5c:a7:8b:48:5b:
        88:b3:43:ed:8a:68:48:16:03:51:a2:01:67:42:5f:ad:5b:9c:
        cc:02:20:4f:7a:e1:38:57:5c:c1:83:19:14:57:ad:40:34:70:
        8d:20:ac:e3:eb:f3:d7:b8:57:d1:d1:17:a0:c2:02:bf:49
-----BEGIN CERTIFICATE-----
MIIDcjCCAxigAwIBAgIUU7M8Oot4cLPmwAVdfD5VSKdeTuswCgYIKoZIzj0EAwIw
gZYxCzAJBgNVBAYTAlVTMRMwEQYDVQQIDApXYXNoaW5ndG9uMRAwDgYDVQQHDAdT
ZWF0dGxlMREwDwYDVQQKDAhFbGxpcHRpYzESMBAGA1UECwwJU0VDUDI1NksxMRgw
FgYDVQQDDA93d3cud29sZnNzbC5jb20xHzAdBgkqhkiG9w0BCQEWEGluZm9Ad29s
ZnNzbC5jb20wHhcNMjQxMjE4MjEyNTI5WhcNMzQxMjE2MjEyNTI5WjCBmjELMAkG
A1UEBhMCVVMxEzARBgNVBAgMCldhc2hpbmd0b24xEDAOBgNVBAcMB1NlYXR0bGUx
ETAPBgNVBAoMCEVsbGlwdGljMRYwFAYDVQQLDA1TRUNQMjU2SzEtU1ZSMRgwFgYD
VQQDDA93d3cud29sZnNzbC5jb20xHzAdBgkqhkiG9w0BCQEWEGluZm9Ad29sZnNz
bC5jb20wVjAQBgcqhkjOPQIBBgUrgQQACgNCAARvf9jvkv6kKKkzhWmk6OM3Rjmi
vo8mMVkgitdbdHrKAV5UT9zS0qXbHo7mlPZOOejEsodSk9yvzjAAnHnSSASYo4IB
PzCCATswCQYDVR0TBAIwADARBglghkgBhvhCAQEEBAMCBkAwHQYDVR0OBBYEFPSj
/TRX5lEfCpYv8IepfMfrazSPMIHWBgNVHSMEgc4wgcuAFH5p+8BRzy1MMMvY2Vhz
jstkNAmdoYGcpIGZMIGWMQswCQYDVQQGEwJVUzETMBEGA1UECAwKV2FzaGluZ3Rv
bjEQMA4GA1UEBwwHU2VhdHRsZTERMA8GA1UECgwIRWxsaXB0aWMxEjAQBgNVBAsM
CVNFQ1AyNTZLMTEYMBYGA1UEAwwPd3d3LndvbGZzc2wuY29tMR8wHQYJKoZIhvcN
AQkBFhBpbmZvQHdvbGZzc2wuY29tghRRz1Gk/q/VYQ7NmMS2vgdzl5pEljAOBgNV
HQ8BAf8EBAMCA6gwEwYDVR0lBAwwCgYIKwYBBQUHAwEwCgYIKoZIzj0EAwIDSAAw
RQIhALWR/RvSvyzEXKeLSFuIs0PtimhIFgNRogFnQl+tW5zMAiBPeuE4V1zBgxkU
V61ANHCNIKzj6/PXuFfR0RegwgK/SQ==
-----END CERTIFICATE-----
