Certificate:
    Data:
        Version: 3 (0x2)
        Serial Number:
            3d:7f:18:ec:d5:2b:42:ac:d1:46:a0:dc:1b:ea:72:97:58:c4:b4:24
        Signature Algorithm: ecdsa-with-SHA256
        Issuer: C=US, ST=Washington, L=Seattle, O=Elliptic, OU=ECC256BPR1-SRV, CN=www.wolfssl.com, emailAddress=info@wolfssl.com
        Validity
            Not Before: Nov 13 20:41:07 2025 GMT
            Not After : Nov 11 20:41:07 2035 GMT
        Subject: C=US, ST=Washington, L=Seattle, O=Elliptic, OU=ECC256BPR1-SRV, CN=www.wolfssl.com, emailAddress=info@wolfssl.com
        Subject Public Key Info:
            Public Key Algorithm: id-ecPublicKey
                Public-Key: (256 bit)
                pub:
                    04:25:94:17:79:b7:86:02:87:b1:1e:54:d7:ec:e9:
                    ff:e7:ec:08:f0:29:f4:31:fc:5b:1b:b5:82:ea:56:
                    27:f6:11:57:72:ca:48:39:52:fb:dd:12:d2:7b:9a:
                    1c:f2:79:d1:14:01:b1:ee:a6:a2:75:0d:6b:7a:dd:
                    21:d2:5f:b9:e2
                ASN1 OID: brainpoolP256r1
        X509v3 extensions:
            X509v3 Basic Constraints: 
                CA:FALSE
            Netscape Cert Type: 
                SSL Server
            X509v3 Subject Key Identifier: 
                3B:51:FD:4B:70:B2:7C:29:5D:02:1A:AE:A4:76:EF:47:8A:A9:52:30
            X509v3 Authority Key Identifier: 
                DirName:/C=US/ST=Washington/L=Seattle/O=Elliptic/OU=ECC256BPR1-SRV/CN=www.wolfssl.com/emailAddress=info@wolfssl.com
                serial:3D:7F:18:EC:D5:2B:42:AC:D1:46:A0:DC:1B:EA:72:97:58:C4:B4:24
            X509v3 Key Usage: critical
                Digital Signature, Key Encipherment, Key Agreement
            X509v3 Extended Key Usage: 
                TLS Web Server Authentication
    Signature Algorithm: ecdsa-with-SHA256
    Signature Value:
        30:44:02:20:54:12:76:29:9a:88:25:a4:d9:6e:53:6a:59:86:
        7b:3b:b1:0b:ac:9c:48:e4:f4:f2:c2:5d:c6:d6:b4:39:c4:36:
        02:20:6c:61:78:1a:8d:a2:32:d7:d2:a0:e1:25:5f:2b:ed:0a:
        b8:62:f5:f7:ff:ba:c9:bf:6d:29:b4:0f:06:ff:c2:82
-----BEGIN CERTIFICATE-----
MIIDajCCAxGgAwIBAgIUPX8Y7NUrQqzRRqDcG+pyl1jEtCQwCgYIKoZIzj0EAwIw
gZsxCzAJBgNVBAYTAlVTMRMwEQYDVQQIDApXYXNoaW5ndG9uMRAwDgYDVQQHDAdT
ZWF0dGxlMREwDwYDVQQKDAhFbGxpcHRpYzEXMBUGA1UECwwORUNDMjU2QlBSMS1T
UlYxGDAWBgNVBAMMD3d3dy53b2xmc3NsLmNvbTEfMB0GCSqGSIb3DQEJARYQaW5m
b0B3b2xmc3NsLmNvbTAeFw0yNTExMTMyMDQxMDdaFw0zNTExMTEyMDQxMDdaMIGb
MQswCQYDVQQGEwJVUzETMBEGA1UECAwKV2FzaGluZ3RvbjEQMA4GA1UEBwwHU2Vh
dHRsZTERMA8GA1UECgwIRWxsaXB0aWMxFzAVBgNVBAsMDkVDQzI1NkJQUjEtU1JW
MRgwFgYDVQQDDA93d3cud29sZnNzbC5jb20xHzAdBgkqhkiG9w0BCQEWEGluZm9A
d29sZnNzbC5jb20wWjAUBgcqhkjOPQIBBgkrJAMDAggBAQcDQgAEJZQXebeGAoex
HlTX7On/5+wI8Cn0MfxbG7WC6lYn9hFXcspIOVL73RLSe5oc8nnRFAGx7qaidQ1r
et0h0l+54qOCAS4wggEqMAkGA1UdEwQCMAAwEQYJYIZIAYb4QgEBBAQDAgZAMB0G
A1UdDgQWBBQ7Uf1LcLJ8KV0CGq6kdu9HiqlSMDCBxQYDVR0jBIG9MIG6oYGhpIGe
MIGbMQswCQYDVQQGEwJVUzETMBEGA1UECAwKV2FzaGluZ3RvbjEQMA4GA1UEBwwH
U2VhdHRsZTERMA8GA1UECgwIRWxsaXB0aWMxFzAVBgNVBAsMDkVDQzI1NkJQUjEt
U1JWMRgwFgYDVQQDDA93d3cud29sZnNzbC5jb20xHzAdBgkqhkiG9w0BCQEWEGlu
Zm9Ad29sZnNzbC5jb22CFD1/GOzVK0Ks0Uag3BvqcpdYxLQkMA4GA1UdDwEB/wQE
AwIDqDATBgNVHSUEDDAKBggrBgEFBQcDATAKBggqhkjOPQQDAgNHADBEAiBUEnYp
moglpNluU2pZhns7sQusnEjk9PLCXcbWtDnENgIgbGF4Go2iMtfSoOElXyvtCrhi
9ff/usm/bSm0Dwb/woI=
-----END CERTIFICATE-----
