Certificate:
    Data:
        Version: 3 (0x2)
        Serial Number:
            23:8d:e3:d0:5a:a6:1f:e6:d3:b6:4c:e0:a2:a1:dd:2f:ee:35:b2:bb
        Signature Algorithm: ecdsa-with-SHA256
        Issuer: C=US, ST=Washington, L=Seattle, O=Elliptic, OU=SECP256K1, CN=www.wolfssl.com, emailAddress=info@wolfssl.com
        Validity
            Not Before: Jul 15 05:41:52 2024 GMT
            Not After : Jul 13 05:41:52 2034 GMT
        Subject: C=US, ST=Washington, L=Seattle, O=Elliptic, OU=SECP256K1-SVR, CN=www.wolfssl.com, emailAddress=info@wolfssl.com
        Subject Public Key Info:
            Public Key Algorithm: id-ecPublicKey
                Public-Key: (256 bit)
                pub:
                    04:6f:7f:d8:ef:92:fe:a4:28:a9:33:85:69:a4:e8:
                    e3:37:46:39:a2:be:8f:26:31:59:20:8a:d7:5b:74:
                    7a:ca:01:5e:54:4f:dc:d2:d2:a5:db:1e:8e:e6:94:
                    f6:4e:39:e8:c4:b2:87:52:93:dc:af:ce:30:00:9c:
                    79:d2:48:04:98
                ASN1 OID: secp256k1
        X509v3 extensions:
            X509v3 Basic Constraints: 
                CA:FALSE
            Netscape Cert Type: 
                SSL Server
            X509v3 Subject Key Identifier: 
                F4:A3:FD:34:57:E6:51:1F:0A:96:2F:F0:87:A9:7C:C7:EB:6B:34:8F
            X509v3 Authority Key Identifier: 
                keyid:73:2F:CA:3A:2D:CB:E2:E3:A2:C1:AB:2F:35:CC:64:53:64:8C:06:2D
                DirName:/C=US/ST=Washington/L=Seattle/O=Elliptic/OU=SECP256K1/CN=www.wolfssl.com/emailAddress=info@wolfssl.com
                serial:72:60:48:74:45:22:D1:6B:69:A1:F2:8C:DE:BE:3A:2E:58:6F:F3:A2
            X509v3 Key Usage: critical
                Digital Signature, Key Encipherment, Key Agreement
            X509v3 Extended Key Usage: 
                TLS Web Server Authentication
    Signature Algorithm: ecdsa-with-SHA256
    Signature Value:
        30:44:02:20:3d:12:5a:0c:7a:1b:ff:b5:a6:70:8a:70:33:03:
        6c:d9:9c:98:8b:80:1b:70:3b:15:3a:85:7e:23:8a:85:f0:76:
        02:20:02:ca:71:2c:cc:5a:c2:a8:e2:c5:24:62:06:62:a0:53:
        41:2a:bb:2e:88:9f:f0:b4:bd:dc:23:1c:06:4c:18:a2
-----BEGIN CERTIFICATE-----
MIIDcTCCAxigAwIBAgIUI43j0FqmH+bTtkzgoqHdL+41srswCgYIKoZIzj0EAwIw
gZYxCzAJBgNVBAYTAlVTMRMwEQYDVQQIDApXYXNoaW5ndG9uMRAwDgYDVQQHDAdT
ZWF0dGxlMREwDwYDVQQKDAhFbGxpcHRpYzESMBAGA1UECwwJU0VDUDI1NksxMRgw
FgYDVQQDDA93d3cud29sZnNzbC5jb20xHzAdBgkqhkiG9w0BCQEWEGluZm9Ad29s
ZnNzbC5jb20wHhcNMjQwNzE1MDU0MTUyWhcNMzQwNzEzMDU0MTUyWjCBmjELMAkG
A1UEBhMCVVMxEzARBgNVBAgMCldhc2hpbmd0b24xEDAOBgNVBAcMB1NlYXR0bGUx
ETAPBgNVBAoMCEVsbGlwdGljMRYwFAYDVQQLDA1TRUNQMjU2SzEtU1ZSMRgwFgYD
VQQDDA93d3cud29sZnNzbC5jb20xHzAdBgkqhkiG9w0BCQEWEGluZm9Ad29sZnNz
bC5jb20wVjAQBgcqhkjOPQIBBgUrgQQACgNCAARvf9jvkv6kKKkzhWmk6OM3Rjmi
vo8mMVkgitdbdHrKAV5UT9zS0qXbHo7mlPZOOejEsodSk9yvzjAAnHnSSASYo4IB
PzCCATswCQYDVR0TBAIwADARBglghkgBhvhCAQEEBAMCBkAwHQYDVR0OBBYEFPSj
/TRX5lEfCpYv8IepfMfrazSPMIHWBgNVHSMEgc4wgcuAFHMvyjoty+LjosGrLzXM
ZFNkjAYtoYGcpIGZMIGWMQswCQYDVQQGEwJVUzETMBEGA1UECAwKV2FzaGluZ3Rv
bjEQMA4GA1UEBwwHU2VhdHRsZTERMA8GA1UECgwIRWxsaXB0aWMxEjAQBgNVBAsM
CVNFQ1AyNTZLMTEYMBYGA1UEAwwPd3d3LndvbGZzc2wuY29tMR8wHQYJKoZIhvcN
AQkBFhBpbmZvQHdvbGZzc2wuY29tghRyYEh0RSLRa2mh8ozevjouWG/zojAOBgNV
HQ8BAf8EBAMCA6gwEwYDVR0lBAwwCgYIKwYBBQUHAwEwCgYIKoZIzj0EAwIDRwAw
RAIgPRJaDHob/7WmcIpwMwNs2ZyYi4AbcDsVOoV+I4qF8HYCIALKcSzMWsKo4sUk
YgZioFNBKrsuiJ/wtL3cIxwGTBii
-----END CERTIFICATE-----
