Certificate:
    Data:
        Version: 3 (0x2)
        Serial Number:
            77:c0:65:74:8e:a6:d5:04:7c:9a:d9:85:cc:ce:58:c5:a0:2f:56:62
        Signature Algorithm: ecdsa-with-SHA256
        Issuer: C = US, ST = Washington, L = Seattle, O = Elliptic, OU = ECC256K1-SRV, CN = www.wolfssl.com, emailAddress = info@wolfssl.com
        Validity
            Not Before: Dec 18 21:25:29 2024 GMT
            Not After : Dec 16 21:25:29 2034 GMT
        Subject: C = US, ST = Washington, L = Seattle, O = Elliptic, OU = ECC256K1-SRV, CN = www.wolfssl.com, emailAddress = info@wolfssl.com
        Subject Public Key Info:
            Public Key Algorithm: id-ecPublicKey
                Public-Key: (256 bit)
                pub:
                    04:02:55:2f:25:90:9d:54:d3:6e:23:b5:95:9e:67:
                    a3:f8:c2:46:3a:ed:67:56:6d:23:87:43:db:6f:38:
                    e6:5b:72:07:8d:1d:f8:5b:ea:b7:47:49:a9:8e:c7:
                    2d:23:99:9e:2e:8c:be:72:de:0b:d3:f0:b4:49:2d:
                    94:ec:6d:c2:3f
                ASN1 OID: secp256k1
        X509v3 extensions:
            X509v3 Basic Constraints: 
                CA:FALSE
            Netscape Cert Type: 
                SSL Server
            X509v3 Subject Key Identifier: 
                96:C4:7F:31:A2:90:B8:68:F1:9C:DD:75:16:52:DB:AC:04:B6:89:85
            X509v3 Authority Key Identifier: 
                DirName:/C=US/ST=Washington/L=Seattle/O=Elliptic/OU=ECC256K1-SRV/CN=www.wolfssl.com/emailAddress=info@wolfssl.com
                serial:77:C0:65:74:8E:A6:D5:04:7C:9A:D9:85:CC:CE:58:C5:A0:2F:56:62
            X509v3 Key Usage: critical
                Digital Signature, Key Encipherment, Key Agreement
            X509v3 Extended Key Usage: 
                TLS Web Server Authentication
    Signature Algorithm: ecdsa-with-SHA256
    Signature Value:
        30:44:02:20:4d:6a:2a:ca:e3:0b:08:8b:8d:70:d9:0c:e2:83:
        4e:7e:83:e4:07:f6:3b:68:4e:00:aa:cd:65:c2:12:09:44:af:
        02:20:4a:03:b6:5d:6e:51:2a:42:a0:54:57:a1:07:05:db:c8:
        2a:bf:5b:6c:7c:c6:0f:64:b2:2d:64:9d:25:3b:a3:7a
-----BEGIN CERTIFICATE-----
MIIDYDCCAwegAwIBAgIUd8BldI6m1QR8mtmFzM5YxaAvVmIwCgYIKoZIzj0EAwIw
gZkxCzAJBgNVBAYTAlVTMRMwEQYDVQQIDApXYXNoaW5ndG9uMRAwDgYDVQQHDAdT
ZWF0dGxlMREwDwYDVQQKDAhFbGxpcHRpYzEVMBMGA1UECwwMRUNDMjU2SzEtU1JW
MRgwFgYDVQQDDA93d3cud29sZnNzbC5jb20xHzAdBgkqhkiG9w0BCQEWEGluZm9A
d29sZnNzbC5jb20wHhcNMjQxMjE4MjEyNTI5WhcNMzQxMjE2MjEyNTI5WjCBmTEL
MAkGA1UEBhMCVVMxEzARBgNVBAgMCldhc2hpbmd0b24xEDAOBgNVBAcMB1NlYXR0
bGUxETAPBgNVBAoMCEVsbGlwdGljMRUwEwYDVQQLDAxFQ0MyNTZLMS1TUlYxGDAW
BgNVBAMMD3d3dy53b2xmc3NsLmNvbTEfMB0GCSqGSIb3DQEJARYQaW5mb0B3b2xm
c3NsLmNvbTBWMBAGByqGSM49AgEGBSuBBAAKA0IABAJVLyWQnVTTbiO1lZ5no/jC
RjrtZ1ZtI4dD22845ltyB40d+Fvqt0dJqY7HLSOZni6MvnLeC9PwtEktlOxtwj+j
ggEsMIIBKDAJBgNVHRMEAjAAMBEGCWCGSAGG+EIBAQQEAwIGQDAdBgNVHQ4EFgQU
lsR/MaKQuGjxnN11FlLbrAS2iYUwgcMGA1UdIwSBuzCBuKGBn6SBnDCBmTELMAkG
A1UEBhMCVVMxEzARBgNVBAgMCldhc2hpbmd0b24xEDAOBgNVBAcMB1NlYXR0bGUx
ETAPBgNVBAoMCEVsbGlwdGljMRUwEwYDVQQLDAxFQ0MyNTZLMS1TUlYxGDAWBgNV
BAMMD3d3dy53b2xmc3NsLmNvbTEfMB0GCSqGSIb3DQEJARYQaW5mb0B3b2xmc3Ns
LmNvbYIUd8BldI6m1QR8mtmFzM5YxaAvVmIwDgYDVR0PAQH/BAQDAgOoMBMGA1Ud
JQQMMAoGCCsGAQUFBwMBMAoGCCqGSM49BAMCA0cAMEQCIE1qKsrjCwiLjXDZDOKD
Tn6D5Af2O2hOAKrNZcISCUSvAiBKA7ZdblEqQqBUV6EHBdvIKr9bbHzGD2SyLWSd
JTujeg==
-----END CERTIFICATE-----
