Certificate:
    Data:
        Version: 3 (0x2)
        Serial Number:
            22:41:d4:da:69:e9:67:03:2b:89:01:60:a9:1c:a9:3b:df:ca:ce:64
        Signature Algorithm: ecdsa-with-SHA256
        Issuer: C=US, ST=Washington, L=Seattle, O=Elliptic, OU=SECP256K1, CN=www.wolfssl.com, emailAddress=facts@wolfssl.com
        Validity
            Not Before: Jun 11 21:44:27 2026 GMT
            Not After : Jun  8 21:44:27 2036 GMT
        Subject: C=US, ST=Washington, L=Seattle, O=Elliptic, OU=SECP256K1-SVR, CN=www.wolfssl.com, emailAddress=facts@wolfssl.com
        Subject Public Key Info:
            Public Key Algorithm: id-ecPublicKey
                Public-Key: (256 bit)
                pub:
                    04:6f:7f:d8:ef:92:fe:a4:28:a9:33:85:69:a4:e8:
                    e3:37:46:39:a2:be:8f:26:31:59:20:8a:d7:5b:74:
                    7a:ca:01:5e:54:4f:dc:d2:d2:a5:db:1e:8e:e6:94:
                    f6:4e:39:e8:c4:b2:87:52:93:dc:af:ce:30:00:9c:
                    79:d2:48:04:98
                ASN1 OID: secp256k1
        X509v3 extensions:
            X509v3 Basic Constraints: 
                CA:FALSE
            Netscape Cert Type: 
                SSL Server
            X509v3 Subject Key Identifier: 
                F4:A3:FD:34:57:E6:51:1F:0A:96:2F:F0:87:A9:7C:C7:EB:6B:34:8F
            X509v3 Authority Key Identifier: 
                keyid:2F:AA:62:AB:E0:CC:F1:B9:DD:AA:AD:7D:D3:FD:1B:6D:5E:9F:50:A1
                DirName:/C=US/ST=Washington/L=Seattle/O=Elliptic/OU=SECP256K1/CN=www.wolfssl.com/emailAddress=facts@wolfssl.com
                serial:51:A3:49:7E:90:94:7D:D9:33:71:46:BB:52:83:3B:DA:41:4A:94:65
            X509v3 Key Usage: critical
                Digital Signature, Key Encipherment, Key Agreement
            X509v3 Extended Key Usage: 
                TLS Web Server Authentication
    Signature Algorithm: ecdsa-with-SHA256
    Signature Value:
        30:45:02:20:6c:eb:35:56:89:c1:3c:10:86:91:d4:f7:2b:0b:
        00:0a:0a:76:b6:4c:67:65:c4:80:e5:c3:28:b8:49:76:90:90:
        02:21:00:d0:3a:d1:5b:b8:5e:cc:40:43:0a:1b:1e:b4:4f:6f:
        ac:1f:b5:be:97:e8:c0:06:34:2e:9a:11:3e:15:07:3e:6a
-----BEGIN CERTIFICATE-----
MIIDdTCCAxugAwIBAgIUIkHU2mnpZwMriQFgqRypO9/KzmQwCgYIKoZIzj0EAwIw
gZcxCzAJBgNVBAYTAlVTMRMwEQYDVQQIDApXYXNoaW5ndG9uMRAwDgYDVQQHDAdT
ZWF0dGxlMREwDwYDVQQKDAhFbGxpcHRpYzESMBAGA1UECwwJU0VDUDI1NksxMRgw
FgYDVQQDDA93d3cud29sZnNzbC5jb20xIDAeBgkqhkiG9w0BCQEWEWZhY3RzQHdv
bGZzc2wuY29tMB4XDTI2MDYxMTIxNDQyN1oXDTM2MDYwODIxNDQyN1owgZsxCzAJ
BgNVBAYTAlVTMRMwEQYDVQQIDApXYXNoaW5ndG9uMRAwDgYDVQQHDAdTZWF0dGxl
MREwDwYDVQQKDAhFbGxpcHRpYzEWMBQGA1UECwwNU0VDUDI1NksxLVNWUjEYMBYG
A1UEAwwPd3d3LndvbGZzc2wuY29tMSAwHgYJKoZIhvcNAQkBFhFmYWN0c0B3b2xm
c3NsLmNvbTBWMBAGByqGSM49AgEGBSuBBAAKA0IABG9/2O+S/qQoqTOFaaTo4zdG
OaK+jyYxWSCK11t0esoBXlRP3NLSpdsejuaU9k456MSyh1KT3K/OMACcedJIBJij
ggFAMIIBPDAJBgNVHRMEAjAAMBEGCWCGSAGG+EIBAQQEAwIGQDAdBgNVHQ4EFgQU
9KP9NFfmUR8Kli/wh6l8x+trNI8wgdcGA1UdIwSBzzCBzIAUL6piq+DM8bndqq19
0/0bbV6fUKGhgZ2kgZowgZcxCzAJBgNVBAYTAlVTMRMwEQYDVQQIDApXYXNoaW5n
dG9uMRAwDgYDVQQHDAdTZWF0dGxlMREwDwYDVQQKDAhFbGxpcHRpYzESMBAGA1UE
CwwJU0VDUDI1NksxMRgwFgYDVQQDDA93d3cud29sZnNzbC5jb20xIDAeBgkqhkiG
9w0BCQEWEWZhY3RzQHdvbGZzc2wuY29tghRRo0l+kJR92TNxRrtSgzvaQUqUZTAO
BgNVHQ8BAf8EBAMCA6gwEwYDVR0lBAwwCgYIKwYBBQUHAwEwCgYIKoZIzj0EAwID
SAAwRQIgbOs1VonBPBCGkdT3KwsACgp2tkxnZcSA5cMouEl2kJACIQDQOtFbuF7M
QEMKGx60T2+sH7W+l+jABjQumhE+FQc+ag==
-----END CERTIFICATE-----
