Certificate:
    Data:
        Version: 3 (0x2)
        Serial Number:
            2e:df:46:12:94:ee:71:51:00:dc:bb:41:41:80:ae:1a:f1:11:68:26
        Signature Algorithm: ecdsa-with-SHA256
        Issuer: C = US, ST = Washington, L = Seattle, O = Elliptic, OU = ECC256K1-SRV, CN = www.wolfssl.com, emailAddress = info@wolfssl.com
        Validity
            Not Before: Dec 13 22:19:28 2023 GMT
            Not After : Dec 10 22:19:28 2033 GMT
        Subject: C = US, ST = Washington, L = Seattle, O = Elliptic, OU = ECC256K1-SRV, CN = www.wolfssl.com, emailAddress = info@wolfssl.com
        Subject Public Key Info:
            Public Key Algorithm: id-ecPublicKey
                Public-Key: (256 bit)
                pub:
                    04:be:d0:47:66:a6:6a:6c:21:b6:72:71:ce:20:67:
                    61:05:b3:ef:b9:07:2c:31:6a:bb:6f:53:12:50:e9:
                    06:06:64:4b:14:bb:56:61:b3:0c:3f:72:f2:45:f7:
                    3b:96:39:76:57:52:93:e9:12:83:f1:d8:c5:87:11:
                    aa:5e:8e:a5:c9
                ASN1 OID: secp256k1
        X509v3 extensions:
            X509v3 Basic Constraints: 
                CA:FALSE
            Netscape Cert Type: 
                SSL Server
            X509v3 Subject Key Identifier: 
                6D:9A:0A:D6:4C:C9:43:6B:12:29:C4:B0:B5:49:8A:7F:BD:42:4B:87
            X509v3 Authority Key Identifier: 
                keyid:6D:9A:0A:D6:4C:C9:43:6B:12:29:C4:B0:B5:49:8A:7F:BD:42:4B:87
                DirName:/C=US/ST=Washington/L=Seattle/O=Elliptic/OU=ECC256K1-SRV/CN=www.wolfssl.com/emailAddress=info@wolfssl.com
                serial:2E:DF:46:12:94:EE:71:51:00:DC:BB:41:41:80:AE:1A:F1:11:68:26

            X509v3 Key Usage: critical
                Digital Signature, Key Encipherment, Key Agreement
            X509v3 Extended Key Usage: 
                TLS Web Server Authentication
    Signature Algorithm: ecdsa-with-SHA256
         30:44:02:20:58:e1:97:fe:81:7a:54:8d:d1:46:41:fd:1a:cf:
         1d:c1:d8:f5:cb:00:21:df:66:21:09:eb:ce:a2:cb:db:d0:63:
         02:20:3a:2b:e8:46:e3:1c:c3:23:e8:ee:8c:f9:22:57:30:d5:
         8a:9b:6d:f3:a7:fb:e5:09:aa:38:ba:9a:84:e6:37:7b
-----BEGIN CERTIFICATE-----
MIIDdjCCAx2gAwIBAgIULt9GEpTucVEA3LtBQYCuGvERaCYwCgYIKoZIzj0EAwIw
gZkxCzAJBgNVBAYTAlVTMRMwEQYDVQQIDApXYXNoaW5ndG9uMRAwDgYDVQQHDAdT
ZWF0dGxlMREwDwYDVQQKDAhFbGxpcHRpYzEVMBMGA1UECwwMRUNDMjU2SzEtU1JW
MRgwFgYDVQQDDA93d3cud29sZnNzbC5jb20xHzAdBgkqhkiG9w0BCQEWEGluZm9A
d29sZnNzbC5jb20wHhcNMjMxMjEzMjIxOTI4WhcNMzMxMjEwMjIxOTI4WjCBmTEL
MAkGA1UEBhMCVVMxEzARBgNVBAgMCldhc2hpbmd0b24xEDAOBgNVBAcMB1NlYXR0
bGUxETAPBgNVBAoMCEVsbGlwdGljMRUwEwYDVQQLDAxFQ0MyNTZLMS1TUlYxGDAW
BgNVBAMMD3d3dy53b2xmc3NsLmNvbTEfMB0GCSqGSIb3DQEJARYQaW5mb0B3b2xm
c3NsLmNvbTBWMBAGByqGSM49AgEGBSuBBAAKA0IABL7QR2amamwhtnJxziBnYQWz
77kHLDFqu29TElDpBgZkSxS7VmGzDD9y8kX3O5Y5dldSk+kSg/HYxYcRql6Opcmj
ggFCMIIBPjAJBgNVHRMEAjAAMBEGCWCGSAGG+EIBAQQEAwIGQDAdBgNVHQ4EFgQU
bZoK1kzJQ2sSKcSwtUmKf71CS4cwgdkGA1UdIwSB0TCBzoAUbZoK1kzJQ2sSKcSw
tUmKf71CS4ehgZ+kgZwwgZkxCzAJBgNVBAYTAlVTMRMwEQYDVQQIDApXYXNoaW5n
dG9uMRAwDgYDVQQHDAdTZWF0dGxlMREwDwYDVQQKDAhFbGxpcHRpYzEVMBMGA1UE
CwwMRUNDMjU2SzEtU1JWMRgwFgYDVQQDDA93d3cud29sZnNzbC5jb20xHzAdBgkq
hkiG9w0BCQEWEGluZm9Ad29sZnNzbC5jb22CFC7fRhKU7nFRANy7QUGArhrxEWgm
MA4GA1UdDwEB/wQEAwIDqDATBgNVHSUEDDAKBggrBgEFBQcDATAKBggqhkjOPQQD
AgNHADBEAiBY4Zf+gXpUjdFGQf0azx3B2PXLACHfZiEJ686iy9vQYwIgOivoRuMc
wyPo7oz5Ilcw1YqbbfOn++UJqji6moTmN3s=
-----END CERTIFICATE-----
