Certificate:
    Data:
        Version: 3 (0x2)
        Serial Number:
            60:d5:b7:78:ff:06:14:3b:1e:c5:ba:8b:dd:5e:67:b2:16:aa:b2:c7
        Signature Algorithm: ecdsa-with-SHA256
        Issuer: C = US, ST = Washington, L = Seattle, O = Eliptic, OU = ECC256K1-SRV, CN = www.wolfssl.com, emailAddress = info@wolfssl.com
        Validity
            Not Before: Oct 15 20:13:46 2020 GMT
            Not After : Oct 13 20:13:46 2030 GMT
        Subject: C = US, ST = Washington, L = Seattle, O = Eliptic, OU = ECC256K1-SRV, CN = www.wolfssl.com, emailAddress = info@wolfssl.com
        Subject Public Key Info:
            Public Key Algorithm: id-ecPublicKey
                Public-Key: (256 bit)
                pub:
                    04:d7:0d:0b:f1:0e:22:88:fe:fb:d5:e5:e1:09:a4:
                    3e:90:76:b3:29:cb:d9:13:60:b7:ea:88:82:d7:8c:
                    b6:db:21:dc:93:0f:e9:58:bb:c5:f2:a2:c2:f5:23:
                    36:c5:d5:eb:24:a6:24:db:ee:02:b0:05:31:a6:33:
                    1f:cd:79:82:10
                ASN1 OID: secp256k1
        X509v3 extensions:
            X509v3 Basic Constraints: 
                CA:FALSE
            Netscape Cert Type: 
                SSL Server
            X509v3 Subject Key Identifier: 
                44:6A:D8:71:6D:AB:62:18:21:02:27:23:90:BF:1D:77:B6:79:4B:77
            X509v3 Authority Key Identifier: 
                keyid:44:6A:D8:71:6D:AB:62:18:21:02:27:23:90:BF:1D:77:B6:79:4B:77
                DirName:/C=US/ST=Washington/L=Seattle/O=Eliptic/OU=ECC256K1-SRV/CN=www.wolfssl.com/emailAddress=info@wolfssl.com
                serial:60:D5:B7:78:FF:06:14:3B:1E:C5:BA:8B:DD:5E:67:B2:16:AA:B2:C7

            X509v3 Key Usage: critical
                Digital Signature, Key Encipherment, Key Agreement
            X509v3 Extended Key Usage: 
                TLS Web Server Authentication
    Signature Algorithm: ecdsa-with-SHA256
         30:44:02:20:01:71:b5:5f:e4:5b:b7:95:b4:59:9a:b0:dc:ef:
         64:01:76:ef:04:07:d8:b4:44:e5:db:86:e4:05:8c:c1:22:19:
         02:20:3e:93:fb:30:f9:4c:89:39:35:df:b3:79:d5:29:bb:2b:
         08:84:8a:f8:55:7c:f9:68:d6:2c:11:28:af:a9:33:0f
-----BEGIN CERTIFICATE-----
MIIDczCCAxqgAwIBAgIUYNW3eP8GFDsexbqL3V5nshaqsscwCgYIKoZIzj0EAwIw
gZgxCzAJBgNVBAYTAlVTMRMwEQYDVQQIDApXYXNoaW5ndG9uMRAwDgYDVQQHDAdT
ZWF0dGxlMRAwDgYDVQQKDAdFbGlwdGljMRUwEwYDVQQLDAxFQ0MyNTZLMS1TUlYx
GDAWBgNVBAMMD3d3dy53b2xmc3NsLmNvbTEfMB0GCSqGSIb3DQEJARYQaW5mb0B3
b2xmc3NsLmNvbTAeFw0yMDEwMTUyMDEzNDZaFw0zMDEwMTMyMDEzNDZaMIGYMQsw
CQYDVQQGEwJVUzETMBEGA1UECAwKV2FzaGluZ3RvbjEQMA4GA1UEBwwHU2VhdHRs
ZTEQMA4GA1UECgwHRWxpcHRpYzEVMBMGA1UECwwMRUNDMjU2SzEtU1JWMRgwFgYD
VQQDDA93d3cud29sZnNzbC5jb20xHzAdBgkqhkiG9w0BCQEWEGluZm9Ad29sZnNz
bC5jb20wVjAQBgcqhkjOPQIBBgUrgQQACgNCAATXDQvxDiKI/vvV5eEJpD6QdrMp
y9kTYLfqiILXjLbbIdyTD+lYu8XyosL1IzbF1eskpiTb7gKwBTGmMx/NeYIQo4IB
QTCCAT0wCQYDVR0TBAIwADARBglghkgBhvhCAQEEBAMCBkAwHQYDVR0OBBYEFERq
2HFtq2IYIQInI5C/HXe2eUt3MIHYBgNVHSMEgdAwgc2AFERq2HFtq2IYIQInI5C/
HXe2eUt3oYGepIGbMIGYMQswCQYDVQQGEwJVUzETMBEGA1UECAwKV2FzaGluZ3Rv
bjEQMA4GA1UEBwwHU2VhdHRsZTEQMA4GA1UECgwHRWxpcHRpYzEVMBMGA1UECwwM
RUNDMjU2SzEtU1JWMRgwFgYDVQQDDA93d3cud29sZnNzbC5jb20xHzAdBgkqhkiG
9w0BCQEWEGluZm9Ad29sZnNzbC5jb22CFGDVt3j/BhQ7HsW6i91eZ7IWqrLHMA4G
A1UdDwEB/wQEAwIDqDATBgNVHSUEDDAKBggrBgEFBQcDATAKBggqhkjOPQQDAgNH
ADBEAiABcbVf5Fu3lbRZmrDc72QBdu8EB9i0ROXbhuQFjMEiGQIgPpP7MPlMiTk1
37N51Sm7KwiEivhVfPlo1iwRKK+pMw8=
-----END CERTIFICATE-----
