Certificate:
    Data:
        Version: 3 (0x2)
        Serial Number:
            0f:3b:73:f3:c2:66:14:34:6a:cf:94:32:a0:6c:fd:b4:94:04:ed:15
        Signature Algorithm: ecdsa-with-SHA256
        Issuer: C = US, ST = Washington, L = Seattle, O = Elliptic, OU = ECC256BPR1-SRV, CN = www.wolfssl.com, emailAddress = info@wolfssl.com
        Validity
            Not Before: Sep 26 17:22:42 2023 GMT
            Not After : Sep 23 17:22:42 2033 GMT
        Subject: C = US, ST = Washington, L = Seattle, O = Elliptic, OU = ECC256BPR1-SRV, CN = www.wolfssl.com, emailAddress = info@wolfssl.com
        Subject Public Key Info:
            Public Key Algorithm: id-ecPublicKey
                Public-Key: (256 bit)
                pub:
                    04:8b:fc:31:bc:38:ed:78:d9:ad:d9:2b:c1:19:03:
                    23:29:a0:05:1b:53:e7:32:03:43:b4:09:e6:b4:3d:
                    93:45:4d:52:ca:3c:c9:04:13:23:b0:86:6f:a4:c7:
                    58:e9:21:89:e6:96:6a:81:0c:06:34:9f:c5:09:fa:
                    e0:fb:ed:62:29
                ASN1 OID: brainpoolP256r1
        X509v3 extensions:
            X509v3 Basic Constraints: 
                CA:FALSE
            Netscape Cert Type: 
                SSL Server
            X509v3 Subject Key Identifier: 
                19:91:39:A6:04:72:72:AF:16:14:C0:2B:3C:61:2B:C5:AE:5B:F3:9E
            X509v3 Authority Key Identifier: 
                DirName:/C=US/ST=Washington/L=Seattle/O=Elliptic/OU=ECC256BPR1-SRV/CN=www.wolfssl.com/emailAddress=info@wolfssl.com
                serial:0F:3B:73:F3:C2:66:14:34:6A:CF:94:32:A0:6C:FD:B4:94:04:ED:15
            X509v3 Key Usage: critical
                Digital Signature, Key Encipherment, Key Agreement
            X509v3 Extended Key Usage: 
                TLS Web Server Authentication
    Signature Algorithm: ecdsa-with-SHA256
    Signature Value:
        30:44:02:20:12:f2:38:8a:19:f8:84:ab:81:44:40:ba:ee:81:
        58:49:f0:a5:d0:74:43:c7:27:e8:90:6a:8d:00:74:26:a5:8a:
        02:20:01:5a:fe:21:10:c3:6f:85:5f:cd:6e:2e:23:55:7c:73:
        15:fd:02:ed:95:52:0f:08:14:ed:9b:5c:63:f3:7d:bd
-----BEGIN CERTIFICATE-----
MIIDajCCAxGgAwIBAgIUDztz88JmFDRqz5QyoGz9tJQE7RUwCgYIKoZIzj0EAwIw
gZsxCzAJBgNVBAYTAlVTMRMwEQYDVQQIDApXYXNoaW5ndG9uMRAwDgYDVQQHDAdT
ZWF0dGxlMREwDwYDVQQKDAhFbGxpcHRpYzEXMBUGA1UECwwORUNDMjU2QlBSMS1T
UlYxGDAWBgNVBAMMD3d3dy53b2xmc3NsLmNvbTEfMB0GCSqGSIb3DQEJARYQaW5m
b0B3b2xmc3NsLmNvbTAeFw0yMzA5MjYxNzIyNDJaFw0zMzA5MjMxNzIyNDJaMIGb
MQswCQYDVQQGEwJVUzETMBEGA1UECAwKV2FzaGluZ3RvbjEQMA4GA1UEBwwHU2Vh
dHRsZTERMA8GA1UECgwIRWxsaXB0aWMxFzAVBgNVBAsMDkVDQzI1NkJQUjEtU1JW
MRgwFgYDVQQDDA93d3cud29sZnNzbC5jb20xHzAdBgkqhkiG9w0BCQEWEGluZm9A
d29sZnNzbC5jb20wWjAUBgcqhkjOPQIBBgkrJAMDAggBAQcDQgAEi/wxvDjteNmt
2SvBGQMjKaAFG1PnMgNDtAnmtD2TRU1SyjzJBBMjsIZvpMdY6SGJ5pZqgQwGNJ/F
Cfrg++1iKaOCAS4wggEqMAkGA1UdEwQCMAAwEQYJYIZIAYb4QgEBBAQDAgZAMB0G
A1UdDgQWBBQZkTmmBHJyrxYUwCs8YSvFrlvznjCBxQYDVR0jBIG9MIG6oYGhpIGe
MIGbMQswCQYDVQQGEwJVUzETMBEGA1UECAwKV2FzaGluZ3RvbjEQMA4GA1UEBwwH
U2VhdHRsZTERMA8GA1UECgwIRWxsaXB0aWMxFzAVBgNVBAsMDkVDQzI1NkJQUjEt
U1JWMRgwFgYDVQQDDA93d3cud29sZnNzbC5jb20xHzAdBgkqhkiG9w0BCQEWEGlu
Zm9Ad29sZnNzbC5jb22CFA87c/PCZhQ0as+UMqBs/bSUBO0VMA4GA1UdDwEB/wQE
AwIDqDATBgNVHSUEDDAKBggrBgEFBQcDATAKBggqhkjOPQQDAgNHADBEAiAS8jiK
GfiEq4FEQLrugVhJ8KXQdEPHJ+iQao0AdCaligIgAVr+IRDDb4VfzW4uI1V8cxX9
Au2VUg8IFO2bXGPzfb0=
-----END CERTIFICATE-----
