Certificate:
    Data:
        Version: 3 (0x2)
        Serial Number:
            5e:94:ed:44:ba:a5:6e:cb:83:c1:b4:84:73:b2:2a:59:55:b4:dd:ea
        Signature Algorithm: ecdsa-with-SHA256
        Issuer: C=US, ST=Washington, L=Seattle, O=Elliptic, OU=ECC256K1-SRV, CN=www.wolfssl.com, emailAddress=info@wolfssl.com
        Validity
            Not Before: Nov 13 20:41:07 2025 GMT
            Not After : Nov 11 20:41:07 2035 GMT
        Subject: C=US, ST=Washington, L=Seattle, O=Elliptic, OU=ECC256K1-SRV, CN=www.wolfssl.com, emailAddress=info@wolfssl.com
        Subject Public Key Info:
            Public Key Algorithm: id-ecPublicKey
                Public-Key: (256 bit)
                pub:
                    04:ff:f7:c5:db:b9:84:b0:4e:9c:93:8e:73:14:3d:
                    49:bb:60:36:cb:79:c0:6d:11:b6:b6:9d:5a:1a:9d:
                    e9:c5:ab:c4:f0:21:5a:d1:f9:15:0b:17:62:3c:fb:
                    a1:54:df:8f:05:c2:ae:10:b8:20:68:66:3a:ba:50:
                    1d:f2:e4:fb:6e
                ASN1 OID: secp256k1
        X509v3 extensions:
            X509v3 Basic Constraints: 
                CA:FALSE
            Netscape Cert Type: 
                SSL Server
            X509v3 Subject Key Identifier: 
                CA:89:C1:BC:2A:60:74:7F:A0:01:8D:0F:9C:7F:A7:C0:65:FE:2E:16
            X509v3 Authority Key Identifier: 
                DirName:/C=US/ST=Washington/L=Seattle/O=Elliptic/OU=ECC256K1-SRV/CN=www.wolfssl.com/emailAddress=info@wolfssl.com
                serial:5E:94:ED:44:BA:A5:6E:CB:83:C1:B4:84:73:B2:2A:59:55:B4:DD:EA
            X509v3 Key Usage: critical
                Digital Signature, Key Encipherment, Key Agreement
            X509v3 Extended Key Usage: 
                TLS Web Server Authentication
    Signature Algorithm: ecdsa-with-SHA256
    Signature Value:
        30:45:02:20:24:19:ac:2a:63:39:0b:73:a1:29:71:9c:fd:a9:
        e1:6a:0b:28:f5:ef:a6:9d:f6:3b:95:ef:e8:b7:d3:e1:da:96:
        02:21:00:cc:cc:5c:e7:41:11:40:de:5e:7c:75:47:ab:53:16:
        c4:1a:54:54:66:3e:72:a1:29:82:2a:7f:7c:b9:56:fe:c8
-----BEGIN CERTIFICATE-----
MIIDYTCCAwegAwIBAgIUXpTtRLqlbsuDwbSEc7IqWVW03eowCgYIKoZIzj0EAwIw
gZkxCzAJBgNVBAYTAlVTMRMwEQYDVQQIDApXYXNoaW5ndG9uMRAwDgYDVQQHDAdT
ZWF0dGxlMREwDwYDVQQKDAhFbGxpcHRpYzEVMBMGA1UECwwMRUNDMjU2SzEtU1JW
MRgwFgYDVQQDDA93d3cud29sZnNzbC5jb20xHzAdBgkqhkiG9w0BCQEWEGluZm9A
d29sZnNzbC5jb20wHhcNMjUxMTEzMjA0MTA3WhcNMzUxMTExMjA0MTA3WjCBmTEL
MAkGA1UEBhMCVVMxEzARBgNVBAgMCldhc2hpbmd0b24xEDAOBgNVBAcMB1NlYXR0
bGUxETAPBgNVBAoMCEVsbGlwdGljMRUwEwYDVQQLDAxFQ0MyNTZLMS1TUlYxGDAW
BgNVBAMMD3d3dy53b2xmc3NsLmNvbTEfMB0GCSqGSIb3DQEJARYQaW5mb0B3b2xm
c3NsLmNvbTBWMBAGByqGSM49AgEGBSuBBAAKA0IABP/3xdu5hLBOnJOOcxQ9Sbtg
Nst5wG0RtradWhqd6cWrxPAhWtH5FQsXYjz7oVTfjwXCrhC4IGhmOrpQHfLk+26j
ggEsMIIBKDAJBgNVHRMEAjAAMBEGCWCGSAGG+EIBAQQEAwIGQDAdBgNVHQ4EFgQU
yonBvCpgdH+gAY0PnH+nwGX+LhYwgcMGA1UdIwSBuzCBuKGBn6SBnDCBmTELMAkG
A1UEBhMCVVMxEzARBgNVBAgMCldhc2hpbmd0b24xEDAOBgNVBAcMB1NlYXR0bGUx
ETAPBgNVBAoMCEVsbGlwdGljMRUwEwYDVQQLDAxFQ0MyNTZLMS1TUlYxGDAWBgNV
BAMMD3d3dy53b2xmc3NsLmNvbTEfMB0GCSqGSIb3DQEJARYQaW5mb0B3b2xmc3Ns
LmNvbYIUXpTtRLqlbsuDwbSEc7IqWVW03eowDgYDVR0PAQH/BAQDAgOoMBMGA1Ud
JQQMMAoGCCsGAQUFBwMBMAoGCCqGSM49BAMCA0gAMEUCICQZrCpjOQtzoSlxnP2p
4WoLKPXvpp32O5Xv6LfT4dqWAiEAzMxc50ERQN5efHVHq1MWxBpUVGY+cqEpgip/
fLlW/sg=
-----END CERTIFICATE-----
