Certificate:
    Data:
        Version: 3 (0x2)
        Serial Number:
            2b:02:77:df:09:1d:a1:ce:30:ab:6b:7b:3b:d2:db:ca:1c:aa:5a:b0
        Signature Algorithm: ecdsa-with-SHA256
        Issuer: C=US, ST=Washington, L=Seattle, O=Elliptic, OU=ECC256BPR1-SRV, CN=www.wolfssl.com, emailAddress=facts@wolfssl.com
        Validity
            Not Before: Jun 11 21:44:27 2026 GMT
            Not After : Jun  8 21:44:27 2036 GMT
        Subject: C=US, ST=Washington, L=Seattle, O=Elliptic, OU=ECC256BPR1-SRV, CN=www.wolfssl.com, emailAddress=facts@wolfssl.com
        Subject Public Key Info:
            Public Key Algorithm: id-ecPublicKey
                Public-Key: (256 bit)
                pub:
                    04:4d:61:d2:65:c0:9b:ab:3e:fa:cc:9c:3c:a3:7d:
                    4d:af:b6:24:a7:1f:11:d3:d3:30:74:72:49:08:40:
                    14:b7:cc:85:ce:8e:eb:2c:69:0d:14:2d:48:53:13:
                    17:07:d4:86:6c:9c:9d:6d:74:95:68:f8:a7:92:44:
                    7a:be:09:c6:5a
                ASN1 OID: brainpoolP256r1
        X509v3 extensions:
            X509v3 Basic Constraints: 
                CA:FALSE
            Netscape Cert Type: 
                SSL Server
            X509v3 Subject Key Identifier: 
                70:81:68:1D:99:26:27:D0:83:41:89:CB:9E:A1:73:BD:41:C9:0E:EB
            X509v3 Authority Key Identifier: 
                DirName:/C=US/ST=Washington/L=Seattle/O=Elliptic/OU=ECC256BPR1-SRV/CN=www.wolfssl.com/emailAddress=facts@wolfssl.com
                serial:2B:02:77:DF:09:1D:A1:CE:30:AB:6B:7B:3B:D2:DB:CA:1C:AA:5A:B0
            X509v3 Key Usage: critical
                Digital Signature, Key Encipherment, Key Agreement
            X509v3 Extended Key Usage: 
                TLS Web Server Authentication
    Signature Algorithm: ecdsa-with-SHA256
    Signature Value:
        30:45:02:20:69:f7:05:b5:9d:86:18:9b:2a:d1:40:e5:ec:e2:
        41:75:d8:bc:4c:b9:a0:a6:ce:62:e0:d0:72:8c:3a:3a:8c:a1:
        02:21:00:88:b8:a6:50:87:1a:a3:63:0c:47:b4:d9:a0:b6:e7:
        69:67:68:a7:11:21:51:ec:db:a7:a3:41:0c:31:1a:f3:78
-----BEGIN CERTIFICATE-----
MIIDbjCCAxSgAwIBAgIUKwJ33wkdoc4wq2t7O9LbyhyqWrAwCgYIKoZIzj0EAwIw
gZwxCzAJBgNVBAYTAlVTMRMwEQYDVQQIDApXYXNoaW5ndG9uMRAwDgYDVQQHDAdT
ZWF0dGxlMREwDwYDVQQKDAhFbGxpcHRpYzEXMBUGA1UECwwORUNDMjU2QlBSMS1T
UlYxGDAWBgNVBAMMD3d3dy53b2xmc3NsLmNvbTEgMB4GCSqGSIb3DQEJARYRZmFj
dHNAd29sZnNzbC5jb20wHhcNMjYwNjExMjE0NDI3WhcNMzYwNjA4MjE0NDI3WjCB
nDELMAkGA1UEBhMCVVMxEzARBgNVBAgMCldhc2hpbmd0b24xEDAOBgNVBAcMB1Nl
YXR0bGUxETAPBgNVBAoMCEVsbGlwdGljMRcwFQYDVQQLDA5FQ0MyNTZCUFIxLVNS
VjEYMBYGA1UEAwwPd3d3LndvbGZzc2wuY29tMSAwHgYJKoZIhvcNAQkBFhFmYWN0
c0B3b2xmc3NsLmNvbTBaMBQGByqGSM49AgEGCSskAwMCCAEBBwNCAARNYdJlwJur
PvrMnDyjfU2vtiSnHxHT0zB0ckkIQBS3zIXOjussaQ0ULUhTExcH1IZsnJ1tdJVo
+KeSRHq+CcZao4IBLzCCASswCQYDVR0TBAIwADARBglghkgBhvhCAQEEBAMCBkAw
HQYDVR0OBBYEFHCBaB2ZJifQg0GJy56hc71ByQ7rMIHGBgNVHSMEgb4wgbuhgaKk
gZ8wgZwxCzAJBgNVBAYTAlVTMRMwEQYDVQQIDApXYXNoaW5ndG9uMRAwDgYDVQQH
DAdTZWF0dGxlMREwDwYDVQQKDAhFbGxpcHRpYzEXMBUGA1UECwwORUNDMjU2QlBS
MS1TUlYxGDAWBgNVBAMMD3d3dy53b2xmc3NsLmNvbTEgMB4GCSqGSIb3DQEJARYR
ZmFjdHNAd29sZnNzbC5jb22CFCsCd98JHaHOMKtrezvS28ocqlqwMA4GA1UdDwEB
/wQEAwIDqDATBgNVHSUEDDAKBggrBgEFBQcDATAKBggqhkjOPQQDAgNIADBFAiBp
9wW1nYYYmyrRQOXs4kF12LxMuaCmzmLg0HKMOjqMoQIhAIi4plCHGqNjDEe02aC2
52lnaKcRIVHs26ejQQwxGvN4
-----END CERTIFICATE-----
