Certificate:
    Data:
        Version: 3 (0x2)
        Serial Number:
            6e:c0:a3:69:34:d7:d3:03:63:d1:18:a1:3b:4a:b6:1e:30:b6:11:88
        Signature Algorithm: ecdsa-with-SHA256
        Issuer: C=US, ST=Washington, L=Seattle, O=Elliptic, OU=ECC256K1-SRV, CN=www.wolfssl.com, emailAddress=facts@wolfssl.com
        Validity
            Not Before: Jun 11 21:44:27 2026 GMT
            Not After : Jun  8 21:44:27 2036 GMT
        Subject: C=US, ST=Washington, L=Seattle, O=Elliptic, OU=ECC256K1-SRV, CN=www.wolfssl.com, emailAddress=facts@wolfssl.com
        Subject Public Key Info:
            Public Key Algorithm: id-ecPublicKey
                Public-Key: (256 bit)
                pub:
                    04:b0:96:62:d3:2b:b6:47:d2:79:9d:f3:99:71:28:
                    16:26:c8:17:ec:1b:1b:b1:90:fa:85:60:ba:49:72:
                    e2:9f:06:51:75:39:fe:11:be:1f:e8:02:ae:9b:16:
                    53:00:6f:16:83:39:f1:52:30:51:03:fe:dd:b3:b1:
                    1f:d2:8d:0a:53
                ASN1 OID: secp256k1
        X509v3 extensions:
            X509v3 Basic Constraints: 
                CA:FALSE
            Netscape Cert Type: 
                SSL Server
            X509v3 Subject Key Identifier: 
                F1:A6:2C:1D:3E:92:4B:A1:E9:50:24:86:6E:85:14:F0:C5:A5:11:26
            X509v3 Authority Key Identifier: 
                DirName:/C=US/ST=Washington/L=Seattle/O=Elliptic/OU=ECC256K1-SRV/CN=www.wolfssl.com/emailAddress=facts@wolfssl.com
                serial:6E:C0:A3:69:34:D7:D3:03:63:D1:18:A1:3B:4A:B6:1E:30:B6:11:88
            X509v3 Key Usage: critical
                Digital Signature, Key Encipherment, Key Agreement
            X509v3 Extended Key Usage: 
                TLS Web Server Authentication
    Signature Algorithm: ecdsa-with-SHA256
    Signature Value:
        30:45:02:20:1f:da:c3:5f:b7:da:8b:7b:0c:f2:e3:d5:26:d3:
        8b:3f:52:a1:ef:88:81:21:db:40:60:34:92:ff:66:a3:be:00:
        02:21:00:82:be:ed:eb:00:ee:ad:8a:ca:37:7b:74:e4:70:3d:
        9d:f3:4e:30:52:0d:86:bc:39:fe:b1:ce:7d:9e:1d:a2:19
-----BEGIN CERTIFICATE-----
MIIDZDCCAwqgAwIBAgIUbsCjaTTX0wNj0RihO0q2HjC2EYgwCgYIKoZIzj0EAwIw
gZoxCzAJBgNVBAYTAlVTMRMwEQYDVQQIDApXYXNoaW5ndG9uMRAwDgYDVQQHDAdT
ZWF0dGxlMREwDwYDVQQKDAhFbGxpcHRpYzEVMBMGA1UECwwMRUNDMjU2SzEtU1JW
MRgwFgYDVQQDDA93d3cud29sZnNzbC5jb20xIDAeBgkqhkiG9w0BCQEWEWZhY3Rz
QHdvbGZzc2wuY29tMB4XDTI2MDYxMTIxNDQyN1oXDTM2MDYwODIxNDQyN1owgZox
CzAJBgNVBAYTAlVTMRMwEQYDVQQIDApXYXNoaW5ndG9uMRAwDgYDVQQHDAdTZWF0
dGxlMREwDwYDVQQKDAhFbGxpcHRpYzEVMBMGA1UECwwMRUNDMjU2SzEtU1JWMRgw
FgYDVQQDDA93d3cud29sZnNzbC5jb20xIDAeBgkqhkiG9w0BCQEWEWZhY3RzQHdv
bGZzc2wuY29tMFYwEAYHKoZIzj0CAQYFK4EEAAoDQgAEsJZi0yu2R9J5nfOZcSgW
JsgX7BsbsZD6hWC6SXLinwZRdTn+Eb4f6AKumxZTAG8WgznxUjBRA/7ds7Ef0o0K
U6OCAS0wggEpMAkGA1UdEwQCMAAwEQYJYIZIAYb4QgEBBAQDAgZAMB0GA1UdDgQW
BBTxpiwdPpJLoelQJIZuhRTwxaURJjCBxAYDVR0jBIG8MIG5oYGgpIGdMIGaMQsw
CQYDVQQGEwJVUzETMBEGA1UECAwKV2FzaGluZ3RvbjEQMA4GA1UEBwwHU2VhdHRs
ZTERMA8GA1UECgwIRWxsaXB0aWMxFTATBgNVBAsMDEVDQzI1NksxLVNSVjEYMBYG
A1UEAwwPd3d3LndvbGZzc2wuY29tMSAwHgYJKoZIhvcNAQkBFhFmYWN0c0B3b2xm
c3NsLmNvbYIUbsCjaTTX0wNj0RihO0q2HjC2EYgwDgYDVR0PAQH/BAQDAgOoMBMG
A1UdJQQMMAoGCCsGAQUFBwMBMAoGCCqGSM49BAMCA0gAMEUCIB/aw1+32ot7DPLj
1SbTiz9Soe+IgSHbQGA0kv9mo74AAiEAgr7t6wDurYrKN3t05HA9nfNOMFINhrw5
/rHOfZ4dohk=
-----END CERTIFICATE-----
