Certificate:
    Data:
        Version: 3 (0x2)
        Serial Number:
            22:6c:c8:6f:6c:60:63:40:fd:5c:fd:f5:59:dd:76:ed:b4:fa:48:2b
        Signature Algorithm: ecdsa-with-SHA256
        Issuer: C = US, ST = Washington, L = Seattle, O = Eliptic, OU = ECC256K1-SRV, CN = www.wolfssl.com, emailAddress = info@wolfssl.com
        Validity
            Not Before: Dec 20 23:07:24 2021 GMT
            Not After : Dec 18 23:07:24 2031 GMT
        Subject: C = US, ST = Washington, L = Seattle, O = Eliptic, OU = ECC256K1-SRV, CN = www.wolfssl.com, emailAddress = info@wolfssl.com
        Subject Public Key Info:
            Public Key Algorithm: id-ecPublicKey
                Public-Key: (256 bit)
                pub:
                    04:80:6c:01:93:26:6f:dd:fe:93:91:a1:4c:b9:df:
                    0c:4b:e9:28:55:36:fc:71:2d:a6:55:65:3f:ac:96:
                    90:67:80:d8:fb:79:f4:c0:7e:0f:3c:fa:15:1e:6e:
                    ac:03:cf:29:50:8d:98:60:21:7d:6d:89:08:11:e2:
                    44:7c:09:0d:e6
                ASN1 OID: secp256k1
        X509v3 extensions:
            X509v3 Basic Constraints: 
                CA:FALSE
            Netscape Cert Type: 
                SSL Server
            X509v3 Subject Key Identifier: 
                8B:F8:C3:8C:D6:A0:F9:D3:DA:85:3B:7E:4B:94:A1:F7:1A:82:E5:AA
            X509v3 Authority Key Identifier: 
                keyid:8B:F8:C3:8C:D6:A0:F9:D3:DA:85:3B:7E:4B:94:A1:F7:1A:82:E5:AA
                DirName:/C=US/ST=Washington/L=Seattle/O=Eliptic/OU=ECC256K1-SRV/CN=www.wolfssl.com/emailAddress=info@wolfssl.com
                serial:22:6C:C8:6F:6C:60:63:40:FD:5C:FD:F5:59:DD:76:ED:B4:FA:48:2B

            X509v3 Key Usage: critical
                Digital Signature, Key Encipherment, Key Agreement
            X509v3 Extended Key Usage: 
                TLS Web Server Authentication
    Signature Algorithm: ecdsa-with-SHA256
         30:45:02:20:62:78:c9:93:9b:1b:e3:79:52:4a:e2:73:33:c3:
         40:3d:9b:cf:f4:11:08:57:d5:3d:b4:e5:0b:27:5b:d6:24:68:
         02:21:00:c3:da:cf:12:2b:f6:c1:29:ec:6e:7f:1d:da:8e:4e:
         02:8e:7e:94:73:71:6a:45:76:f0:3b:20:3b:8d:cc:15:cc
-----BEGIN CERTIFICATE-----
MIIDdDCCAxqgAwIBAgIUImzIb2xgY0D9XP31Wd127bT6SCswCgYIKoZIzj0EAwIw
gZgxCzAJBgNVBAYTAlVTMRMwEQYDVQQIDApXYXNoaW5ndG9uMRAwDgYDVQQHDAdT
ZWF0dGxlMRAwDgYDVQQKDAdFbGlwdGljMRUwEwYDVQQLDAxFQ0MyNTZLMS1TUlYx
GDAWBgNVBAMMD3d3dy53b2xmc3NsLmNvbTEfMB0GCSqGSIb3DQEJARYQaW5mb0B3
b2xmc3NsLmNvbTAeFw0yMTEyMjAyMzA3MjRaFw0zMTEyMTgyMzA3MjRaMIGYMQsw
CQYDVQQGEwJVUzETMBEGA1UECAwKV2FzaGluZ3RvbjEQMA4GA1UEBwwHU2VhdHRs
ZTEQMA4GA1UECgwHRWxpcHRpYzEVMBMGA1UECwwMRUNDMjU2SzEtU1JWMRgwFgYD
VQQDDA93d3cud29sZnNzbC5jb20xHzAdBgkqhkiG9w0BCQEWEGluZm9Ad29sZnNz
bC5jb20wVjAQBgcqhkjOPQIBBgUrgQQACgNCAASAbAGTJm/d/pORoUy53wxL6ShV
NvxxLaZVZT+slpBngNj7efTAfg88+hUebqwDzylQjZhgIX1tiQgR4kR8CQ3mo4IB
QTCCAT0wCQYDVR0TBAIwADARBglghkgBhvhCAQEEBAMCBkAwHQYDVR0OBBYEFIv4
w4zWoPnT2oU7fkuUofcaguWqMIHYBgNVHSMEgdAwgc2AFIv4w4zWoPnT2oU7fkuU
ofcaguWqoYGepIGbMIGYMQswCQYDVQQGEwJVUzETMBEGA1UECAwKV2FzaGluZ3Rv
bjEQMA4GA1UEBwwHU2VhdHRsZTEQMA4GA1UECgwHRWxpcHRpYzEVMBMGA1UECwwM
RUNDMjU2SzEtU1JWMRgwFgYDVQQDDA93d3cud29sZnNzbC5jb20xHzAdBgkqhkiG
9w0BCQEWEGluZm9Ad29sZnNzbC5jb22CFCJsyG9sYGNA/Vz99Vnddu20+kgrMA4G
A1UdDwEB/wQEAwIDqDATBgNVHSUEDDAKBggrBgEFBQcDATAKBggqhkjOPQQDAgNI
ADBFAiBieMmTmxvjeVJK4nMzw0A9m8/0EQhX1T205QsnW9YkaAIhAMPazxIr9sEp
7G5/HdqOTgKOfpRzcWpFdvA7IDuNzBXM
-----END CERTIFICATE-----
