Certificate:
    Data:
        Version: 3 (0x2)
        Serial Number:
            6c:c7:a1:38:09:ec:f3:18:37:d4:bc:c6:14:0e:d8:6e:94:ab:9a:07
        Signature Algorithm: ecdsa-with-SHA256
        Issuer: C=US, ST=Washington, L=Seattle, O=Elliptic, OU=SECP256K1, CN=www.wolfssl.com, emailAddress=info@wolfssl.com
        Validity
            Not Before: Nov 13 20:41:08 2025 GMT
            Not After : Nov 11 20:41:08 2035 GMT
        Subject: C=US, ST=Washington, L=Seattle, O=Elliptic, OU=SECP256K1-SVR, CN=www.wolfssl.com, emailAddress=info@wolfssl.com
        Subject Public Key Info:
            Public Key Algorithm: id-ecPublicKey
                Public-Key: (256 bit)
                pub:
                    04:6f:7f:d8:ef:92:fe:a4:28:a9:33:85:69:a4:e8:
                    e3:37:46:39:a2:be:8f:26:31:59:20:8a:d7:5b:74:
                    7a:ca:01:5e:54:4f:dc:d2:d2:a5:db:1e:8e:e6:94:
                    f6:4e:39:e8:c4:b2:87:52:93:dc:af:ce:30:00:9c:
                    79:d2:48:04:98
                ASN1 OID: secp256k1
        X509v3 extensions:
            X509v3 Basic Constraints: 
                CA:FALSE
            Netscape Cert Type: 
                SSL Server
            X509v3 Subject Key Identifier: 
                F4:A3:FD:34:57:E6:51:1F:0A:96:2F:F0:87:A9:7C:C7:EB:6B:34:8F
            X509v3 Authority Key Identifier: 
                keyid:40:E2:00:DB:F0:F8:F7:06:23:50:4D:F9:89:1D:29:72:73:65:76:3B
                DirName:/C=US/ST=Washington/L=Seattle/O=Elliptic/OU=SECP256K1/CN=www.wolfssl.com/emailAddress=info@wolfssl.com
                serial:3E:32:66:BB:6A:91:90:98:9F:D6:7B:80:61:B5:A7:5F:86:84:83:17
            X509v3 Key Usage: critical
                Digital Signature, Key Encipherment, Key Agreement
            X509v3 Extended Key Usage: 
                TLS Web Server Authentication
    Signature Algorithm: ecdsa-with-SHA256
    Signature Value:
        30:44:02:20:77:c4:6e:97:5a:c7:de:1d:fd:89:fe:13:56:14:
        b5:e2:67:f7:e6:4d:f4:d0:4f:ae:9b:83:d4:83:30:88:0c:85:
        02:20:79:27:45:ed:df:0b:e2:e5:36:2c:83:b1:1b:61:61:23:
        02:08:07:46:aa:84:61:65:ad:92:6f:79:56:f7:80:b3
-----BEGIN CERTIFICATE-----
MIIDcTCCAxigAwIBAgIUbMehOAns8xg31LzGFA7YbpSrmgcwCgYIKoZIzj0EAwIw
gZYxCzAJBgNVBAYTAlVTMRMwEQYDVQQIDApXYXNoaW5ndG9uMRAwDgYDVQQHDAdT
ZWF0dGxlMREwDwYDVQQKDAhFbGxpcHRpYzESMBAGA1UECwwJU0VDUDI1NksxMRgw
FgYDVQQDDA93d3cud29sZnNzbC5jb20xHzAdBgkqhkiG9w0BCQEWEGluZm9Ad29s
ZnNzbC5jb20wHhcNMjUxMTEzMjA0MTA4WhcNMzUxMTExMjA0MTA4WjCBmjELMAkG
A1UEBhMCVVMxEzARBgNVBAgMCldhc2hpbmd0b24xEDAOBgNVBAcMB1NlYXR0bGUx
ETAPBgNVBAoMCEVsbGlwdGljMRYwFAYDVQQLDA1TRUNQMjU2SzEtU1ZSMRgwFgYD
VQQDDA93d3cud29sZnNzbC5jb20xHzAdBgkqhkiG9w0BCQEWEGluZm9Ad29sZnNz
bC5jb20wVjAQBgcqhkjOPQIBBgUrgQQACgNCAARvf9jvkv6kKKkzhWmk6OM3Rjmi
vo8mMVkgitdbdHrKAV5UT9zS0qXbHo7mlPZOOejEsodSk9yvzjAAnHnSSASYo4IB
PzCCATswCQYDVR0TBAIwADARBglghkgBhvhCAQEEBAMCBkAwHQYDVR0OBBYEFPSj
/TRX5lEfCpYv8IepfMfrazSPMIHWBgNVHSMEgc4wgcuAFEDiANvw+PcGI1BN+Ykd
KXJzZXY7oYGcpIGZMIGWMQswCQYDVQQGEwJVUzETMBEGA1UECAwKV2FzaGluZ3Rv
bjEQMA4GA1UEBwwHU2VhdHRsZTERMA8GA1UECgwIRWxsaXB0aWMxEjAQBgNVBAsM
CVNFQ1AyNTZLMTEYMBYGA1UEAwwPd3d3LndvbGZzc2wuY29tMR8wHQYJKoZIhvcN
AQkBFhBpbmZvQHdvbGZzc2wuY29tghQ+Mma7apGQmJ/We4BhtadfhoSDFzAOBgNV
HQ8BAf8EBAMCA6gwEwYDVR0lBAwwCgYIKwYBBQUHAwEwCgYIKoZIzj0EAwIDRwAw
RAIgd8Rul1rH3h39if4TVhS14mf35k300E+um4PUgzCIDIUCIHknRe3fC+LlNiyD
sRthYSMCCAdGqoRhZa2Sb3lW94Cz
-----END CERTIFICATE-----
