Certificate:
    Data:
        Version: 3 (0x2)
        Serial Number:
            05:60:d9:7c:ed:e8:47:b8:9e:33:05:7e:63:5c:c6:80:23:17:3d:84
        Signature Algorithm: ecdsa-with-SHA256
        Issuer: C = US, ST = Washington, L = Seattle, O = Eliptic, OU = ECC256K1-SRV, CN = www.wolfssl.com, emailAddress = info@wolfssl.com
        Validity
            Not Before: Feb 15 12:50:24 2022 GMT
            Not After : Feb 13 12:50:24 2032 GMT
        Subject: C = US, ST = Washington, L = Seattle, O = Eliptic, OU = ECC256K1-SRV, CN = www.wolfssl.com, emailAddress = info@wolfssl.com
        Subject Public Key Info:
            Public Key Algorithm: id-ecPublicKey
                Public-Key: (256 bit)
                pub:
                    04:1d:17:0a:f4:7e:1c:f1:85:8e:86:57:ee:d6:ba:
                    3b:18:59:e3:5d:de:a1:23:ec:c4:fa:76:cf:55:e4:
                    dd:87:0c:5e:c7:3b:54:ba:f9:2e:0d:9a:c5:cc:b8:
                    74:e0:12:4f:26:0f:9a:09:b8:58:8a:c5:a8:45:fe:
                    d5:93:a2:a7:66
                ASN1 OID: secp256k1
        X509v3 extensions:
            X509v3 Basic Constraints: 
                CA:FALSE
            Netscape Cert Type: 
                SSL Server
            X509v3 Subject Key Identifier: 
                1D:7F:31:DF:09:E1:22:E8:B5:CB:A7:7C:7F:D7:5A:23:CF:38:F3:D3
            X509v3 Authority Key Identifier: 
                keyid:1D:7F:31:DF:09:E1:22:E8:B5:CB:A7:7C:7F:D7:5A:23:CF:38:F3:D3
                DirName:/C=US/ST=Washington/L=Seattle/O=Eliptic/OU=ECC256K1-SRV/CN=www.wolfssl.com/emailAddress=info@wolfssl.com
                serial:05:60:D9:7C:ED:E8:47:B8:9E:33:05:7E:63:5C:C6:80:23:17:3D:84

            X509v3 Key Usage: critical
                Digital Signature, Key Encipherment, Key Agreement
            X509v3 Extended Key Usage: 
                TLS Web Server Authentication
    Signature Algorithm: ecdsa-with-SHA256
         30:46:02:21:00:e6:9d:b8:e7:cb:d7:ac:23:cd:a0:4d:a3:25:
         ea:79:18:30:ba:3b:83:f8:cd:30:91:50:a7:9c:c2:b6:cb:d9:
         a9:02:21:00:bb:da:07:a7:76:62:72:53:81:e3:64:d5:ea:ca:
         da:73:19:7a:ac:ad:4c:00:2c:b3:7e:84:9b:35:54:a8:fb:51
-----BEGIN CERTIFICATE-----
MIIDdTCCAxqgAwIBAgIUBWDZfO3oR7ieMwV+Y1zGgCMXPYQwCgYIKoZIzj0EAwIw
gZgxCzAJBgNVBAYTAlVTMRMwEQYDVQQIDApXYXNoaW5ndG9uMRAwDgYDVQQHDAdT
ZWF0dGxlMRAwDgYDVQQKDAdFbGlwdGljMRUwEwYDVQQLDAxFQ0MyNTZLMS1TUlYx
GDAWBgNVBAMMD3d3dy53b2xmc3NsLmNvbTEfMB0GCSqGSIb3DQEJARYQaW5mb0B3
b2xmc3NsLmNvbTAeFw0yMjAyMTUxMjUwMjRaFw0zMjAyMTMxMjUwMjRaMIGYMQsw
CQYDVQQGEwJVUzETMBEGA1UECAwKV2FzaGluZ3RvbjEQMA4GA1UEBwwHU2VhdHRs
ZTEQMA4GA1UECgwHRWxpcHRpYzEVMBMGA1UECwwMRUNDMjU2SzEtU1JWMRgwFgYD
VQQDDA93d3cud29sZnNzbC5jb20xHzAdBgkqhkiG9w0BCQEWEGluZm9Ad29sZnNz
bC5jb20wVjAQBgcqhkjOPQIBBgUrgQQACgNCAAQdFwr0fhzxhY6GV+7WujsYWeNd
3qEj7MT6ds9V5N2HDF7HO1S6+S4NmsXMuHTgEk8mD5oJuFiKxahF/tWToqdmo4IB
QTCCAT0wCQYDVR0TBAIwADARBglghkgBhvhCAQEEBAMCBkAwHQYDVR0OBBYEFB1/
Md8J4SLotcunfH/XWiPPOPPTMIHYBgNVHSMEgdAwgc2AFB1/Md8J4SLotcunfH/X
WiPPOPPToYGepIGbMIGYMQswCQYDVQQGEwJVUzETMBEGA1UECAwKV2FzaGluZ3Rv
bjEQMA4GA1UEBwwHU2VhdHRsZTEQMA4GA1UECgwHRWxpcHRpYzEVMBMGA1UECwwM
RUNDMjU2SzEtU1JWMRgwFgYDVQQDDA93d3cud29sZnNzbC5jb20xHzAdBgkqhkiG
9w0BCQEWEGluZm9Ad29sZnNzbC5jb22CFAVg2Xzt6Ee4njMFfmNcxoAjFz2EMA4G
A1UdDwEB/wQEAwIDqDATBgNVHSUEDDAKBggrBgEFBQcDATAKBggqhkjOPQQDAgNJ
ADBGAiEA5p2458vXrCPNoE2jJep5GDC6O4P4zTCRUKecwrbL2akCIQC72gendmJy
U4HjZNXqytpzGXqsrUwALLN+hJs1VKj7UQ==
-----END CERTIFICATE-----
