Certificate:
    Data:
        Version: 3 (0x2)
        Serial Number:
            1e:f4:6e:6b:ab:9b:33:2b:43:38:96:b8:da:52:a8:be:be:01:87:d9
        Signature Algorithm: ecdsa-with-SHA256
        Issuer: C = US, ST = Washington, L = Seattle, O = Elliptic, OU = ECC256BPR1-SRV, CN = www.wolfssl.com, emailAddress = info@wolfssl.com
        Validity
            Not Before: Dec 18 21:25:29 2024 GMT
            Not After : Dec 16 21:25:29 2034 GMT
        Subject: C = US, ST = Washington, L = Seattle, O = Elliptic, OU = ECC256BPR1-SRV, CN = www.wolfssl.com, emailAddress = info@wolfssl.com
        Subject Public Key Info:
            Public Key Algorithm: id-ecPublicKey
                Public-Key: (256 bit)
                pub:
                    04:80:8b:2d:57:af:9d:00:f6:cf:e5:dd:fb:1f:5a:
                    69:c7:d3:1e:d1:16:20:16:e0:53:da:33:70:22:e2:
                    ee:ee:f3:89:d2:a4:e6:77:6a:22:a0:b2:d4:e2:d5:
                    15:09:5f:f1:bd:cd:99:3d:51:e3:ae:5d:96:85:92:
                    bf:5b:1c:2b:66
                ASN1 OID: brainpoolP256r1
        X509v3 extensions:
            X509v3 Basic Constraints: 
                CA:FALSE
            Netscape Cert Type: 
                SSL Server
            X509v3 Subject Key Identifier: 
                BF:13:B7:26:16:A8:18:A2:A9:CC:FC:5E:9E:9E:5B:39:CB:08:CE:68
            X509v3 Authority Key Identifier: 
                DirName:/C=US/ST=Washington/L=Seattle/O=Elliptic/OU=ECC256BPR1-SRV/CN=www.wolfssl.com/emailAddress=info@wolfssl.com
                serial:1E:F4:6E:6B:AB:9B:33:2B:43:38:96:B8:DA:52:A8:BE:BE:01:87:D9
            X509v3 Key Usage: critical
                Digital Signature, Key Encipherment, Key Agreement
            X509v3 Extended Key Usage: 
                TLS Web Server Authentication
    Signature Algorithm: ecdsa-with-SHA256
    Signature Value:
        30:44:02:20:50:28:2b:f6:4a:d1:8d:3c:e8:c7:78:ea:84:47:
        b7:5a:01:2b:64:5b:3a:a1:c0:1d:58:d0:d2:5b:7d:2c:28:ad:
        02:20:23:1a:d7:b1:8a:a8:dd:02:00:b6:ba:e6:16:2b:c8:7d:
        bc:86:ad:30:fe:a6:cf:de:7f:90:90:75:51:25:15:42
-----BEGIN CERTIFICATE-----
MIIDajCCAxGgAwIBAgIUHvRua6ubMytDOJa42lKovr4Bh9kwCgYIKoZIzj0EAwIw
gZsxCzAJBgNVBAYTAlVTMRMwEQYDVQQIDApXYXNoaW5ndG9uMRAwDgYDVQQHDAdT
ZWF0dGxlMREwDwYDVQQKDAhFbGxpcHRpYzEXMBUGA1UECwwORUNDMjU2QlBSMS1T
UlYxGDAWBgNVBAMMD3d3dy53b2xmc3NsLmNvbTEfMB0GCSqGSIb3DQEJARYQaW5m
b0B3b2xmc3NsLmNvbTAeFw0yNDEyMTgyMTI1MjlaFw0zNDEyMTYyMTI1MjlaMIGb
MQswCQYDVQQGEwJVUzETMBEGA1UECAwKV2FzaGluZ3RvbjEQMA4GA1UEBwwHU2Vh
dHRsZTERMA8GA1UECgwIRWxsaXB0aWMxFzAVBgNVBAsMDkVDQzI1NkJQUjEtU1JW
MRgwFgYDVQQDDA93d3cud29sZnNzbC5jb20xHzAdBgkqhkiG9w0BCQEWEGluZm9A
d29sZnNzbC5jb20wWjAUBgcqhkjOPQIBBgkrJAMDAggBAQcDQgAEgIstV6+dAPbP
5d37H1ppx9Me0RYgFuBT2jNwIuLu7vOJ0qTmd2oioLLU4tUVCV/xvc2ZPVHjrl2W
hZK/WxwrZqOCAS4wggEqMAkGA1UdEwQCMAAwEQYJYIZIAYb4QgEBBAQDAgZAMB0G
A1UdDgQWBBS/E7cmFqgYoqnM/F6enls5ywjOaDCBxQYDVR0jBIG9MIG6oYGhpIGe
MIGbMQswCQYDVQQGEwJVUzETMBEGA1UECAwKV2FzaGluZ3RvbjEQMA4GA1UEBwwH
U2VhdHRsZTERMA8GA1UECgwIRWxsaXB0aWMxFzAVBgNVBAsMDkVDQzI1NkJQUjEt
U1JWMRgwFgYDVQQDDA93d3cud29sZnNzbC5jb20xHzAdBgkqhkiG9w0BCQEWEGlu
Zm9Ad29sZnNzbC5jb22CFB70bmurmzMrQziWuNpSqL6+AYfZMA4GA1UdDwEB/wQE
AwIDqDATBgNVHSUEDDAKBggrBgEFBQcDATAKBggqhkjOPQQDAgNHADBEAiBQKCv2
StGNPOjHeOqER7daAStkWzqhwB1Y0NJbfSworQIgIxrXsYqo3QIAtrrmFivIfbyG
rTD+ps/ef5CQdVElFUI=
-----END CERTIFICATE-----
