Certificate:
    Data:
        Version: 3 (0x2)
        Serial Number: 1 (0x1)
        Signature Algorithm: ED25519
        Issuer: C=US, ST=Montana, L=Bozeman, O=wolfSSL_Ed25519, OU=Root-Ed25519, CN=www.wolfssl.com, emailAddress=facts@wolfssl.com
        Validity
            Not Before: Jun 11 21:44:30 2026 GMT
            Not After : Mar  7 21:44:30 2029 GMT
        Subject: C=US, ST=Montana, L=Bozeman, O=wolfSSL_ed25519, OU=CA-ed25519, CN=www.wolfssl.com, emailAddress=facts@wolfssl.com, UID=wolfSSL
        Subject Public Key Info:
            Public Key Algorithm: ED25519
                ED25519 Public-Key:
                pub:
                    42:3b:7a:f9:82:cf:f9:df:19:dd:f3:f0:32:29:6d:
                    fa:fd:76:4f:68:c2:c2:e0:6c:47:ae:c2:55:68:ac:
                    0d:4d
        X509v3 extensions:
            X509v3 Subject Key Identifier: 
                74:D5:38:19:5E:83:B9:03:F8:01:8A:35:35:BB:89:4C:49:B4:23:E9
            X509v3 Authority Key Identifier: 
                FA:BA:5B:76:1D:F1:1D:1D:4D:74:48:D8:98:3B:56:EF:B3:14:F3:DE
            X509v3 Basic Constraints: critical
                CA:TRUE
            X509v3 Key Usage: critical
                Digital Signature, Certificate Sign, CRL Sign
    Signature Algorithm: ED25519
    Signature Value:
        31:63:0a:c4:23:51:70:d8:dd:89:97:8c:36:9c:74:98:3b:b4:
        52:aa:72:aa:5f:11:54:38:d4:fc:6d:ac:88:2f:60:09:04:41:
        54:b7:7c:91:52:19:e8:40:b9:09:c6:6c:a2:e6:2f:5e:1c:f9:
        0f:22:87:e2:40:df:67:f2:9c:06
-----BEGIN CERTIFICATE-----
MIICZzCCAhmgAwIBAgIBATAFBgMrZXAwgZ4xCzAJBgNVBAYTAlVTMRAwDgYDVQQI
DAdNb250YW5hMRAwDgYDVQQHDAdCb3plbWFuMRgwFgYDVQQKDA93b2xmU1NMX0Vk
MjU1MTkxFTATBgNVBAsMDFJvb3QtRWQyNTUxOTEYMBYGA1UEAwwPd3d3LndvbGZz
c2wuY29tMSAwHgYJKoZIhvcNAQkBFhFmYWN0c0B3b2xmc3NsLmNvbTAeFw0yNjA2
MTEyMTQ0MzBaFw0yOTAzMDcyMTQ0MzBaMIG1MQswCQYDVQQGEwJVUzEQMA4GA1UE
CAwHTW9udGFuYTEQMA4GA1UEBwwHQm96ZW1hbjEYMBYGA1UECgwPd29sZlNTTF9l
ZDI1NTE5MRMwEQYDVQQLDApDQS1lZDI1NTE5MRgwFgYDVQQDDA93d3cud29sZnNz
bC5jb20xIDAeBgkqhkiG9w0BCQEWEWZhY3RzQHdvbGZzc2wuY29tMRcwFQYKCZIm
iZPyLGQBAQwHd29sZlNTTDAqMAUGAytlcAMhAEI7evmCz/nfGd3z8DIpbfr9dk9o
wsLgbEeuwlVorA1No2MwYTAdBgNVHQ4EFgQUdNU4GV6DuQP4AYo1NbuJTEm0I+kw
HwYDVR0jBBgwFoAU+rpbdh3xHR1NdEjYmDtW77MU894wDwYDVR0TAQH/BAUwAwEB
/zAOBgNVHQ8BAf8EBAMCAYYwBQYDK2VwA0EAMWMKxCNRcNjdiZeMNpx0mDu0Uqpy
ql8RVDjU/G2siC9gCQRBVLd8kVIZ6EC5CcZsouYvXhz5DyKH4kDfZ/KcBg==
-----END CERTIFICATE-----
