Certificate:
    Data:
        Version: 3 (0x2)
        Serial Number:
            33:8b:57:d5:8e:84:67:6a:e1:ed:f2:b9:11:16:5e:12:e5:0c:78:8a
        Signature Algorithm: ED25519
        Issuer: C = US, ST = Montana, L = Bozeman, O = wolfSSL_ed25519, OU = Client-ed25519, CN = www.wolfssl.com, emailAddress = info@wolfssl.com, UID = wolfSSL
        Validity
            Not Before: Dec 18 21:25:30 2024 GMT
            Not After : Sep 14 21:25:30 2027 GMT
        Subject: C = US, ST = Montana, L = Bozeman, O = wolfSSL_ed25519, OU = Client-ed25519, CN = www.wolfssl.com, emailAddress = info@wolfssl.com, UID = wolfSSL
        Subject Public Key Info:
            Public Key Algorithm: ED25519
                ED25519 Public-Key:
                pub:
                    e6:57:5b:13:1b:c7:51:14:6b:ed:3b:f5:d1:fa:ab:
                    9e:6c:b6:eb:02:09:a3:99:f5:6e:bf:9d:3c:fe:54:
                    39:e6
        X509v3 extensions:
            X509v3 Subject Key Identifier: 
                FE:41:5E:3E:81:E2:2E:46:B3:3E:47:89:90:D4:C2:B4:8E:11:D6:8A
            X509v3 Authority Key Identifier: 
                keyid:FE:41:5E:3E:81:E2:2E:46:B3:3E:47:89:90:D4:C2:B4:8E:11:D6:8A
                DirName:/C=US/ST=Montana/L=Bozeman/O=wolfSSL_ed25519/OU=Client-ed25519/CN=www.wolfssl.com/emailAddress=info@wolfssl.com/UID=wolfSSL
                serial:33:8B:57:D5:8E:84:67:6A:E1:ED:F2:B9:11:16:5E:12:E5:0C:78:8A
            X509v3 Basic Constraints: 
                CA:TRUE
            X509v3 Subject Alternative Name: 
                DNS:example.com, IP Address:127.0.0.1
            X509v3 Extended Key Usage: 
                TLS Web Server Authentication, TLS Web Client Authentication
    Signature Algorithm: ED25519
    Signature Value:
        aa:c7:bd:8e:56:40:ab:7d:9c:55:f0:4d:1d:97:e9:03:62:11:
        ca:51:ad:80:cf:1a:2c:2c:5b:2d:71:fe:db:1d:4b:cd:4b:8b:
        2d:12:f7:01:ee:fb:7d:2e:21:fc:81:de:84:59:c8:a5:1e:92:
        e3:21:58:d1:3e:8a:71:91:2d:0e
-----BEGIN CERTIFICATE-----
MIIDnzCCA1GgAwIBAgIUM4tX1Y6EZ2rh7fK5ERZeEuUMeIowBQYDK2VwMIG4MQsw
CQYDVQQGEwJVUzEQMA4GA1UECAwHTW9udGFuYTEQMA4GA1UEBwwHQm96ZW1hbjEY
MBYGA1UECgwPd29sZlNTTF9lZDI1NTE5MRcwFQYDVQQLDA5DbGllbnQtZWQyNTUx
OTEYMBYGA1UEAwwPd3d3LndvbGZzc2wuY29tMR8wHQYJKoZIhvcNAQkBFhBpbmZv
QHdvbGZzc2wuY29tMRcwFQYKCZImiZPyLGQBAQwHd29sZlNTTDAeFw0yNDEyMTgy
MTI1MzBaFw0yNzA5MTQyMTI1MzBaMIG4MQswCQYDVQQGEwJVUzEQMA4GA1UECAwH
TW9udGFuYTEQMA4GA1UEBwwHQm96ZW1hbjEYMBYGA1UECgwPd29sZlNTTF9lZDI1
NTE5MRcwFQYDVQQLDA5DbGllbnQtZWQyNTUxOTEYMBYGA1UEAwwPd3d3LndvbGZz
c2wuY29tMR8wHQYJKoZIhvcNAQkBFhBpbmZvQHdvbGZzc2wuY29tMRcwFQYKCZIm
iZPyLGQBAQwHd29sZlNTTDAqMAUGAytlcAMhAOZXWxMbx1EUa+079dH6q55stusC
CaOZ9W6/nTz+VDnmo4IBaTCCAWUwHQYDVR0OBBYEFP5BXj6B4i5Gsz5HiZDUwrSO
EdaKMIH4BgNVHSMEgfAwge2AFP5BXj6B4i5Gsz5HiZDUwrSOEdaKoYG+pIG7MIG4
MQswCQYDVQQGEwJVUzEQMA4GA1UECAwHTW9udGFuYTEQMA4GA1UEBwwHQm96ZW1h
bjEYMBYGA1UECgwPd29sZlNTTF9lZDI1NTE5MRcwFQYDVQQLDA5DbGllbnQtZWQy
NTUxOTEYMBYGA1UEAwwPd3d3LndvbGZzc2wuY29tMR8wHQYJKoZIhvcNAQkBFhBp
bmZvQHdvbGZzc2wuY29tMRcwFQYKCZImiZPyLGQBAQwHd29sZlNTTIIUM4tX1Y6E
Z2rh7fK5ERZeEuUMeIowDAYDVR0TBAUwAwEB/zAcBgNVHREEFTATggtleGFtcGxl
LmNvbYcEfwAAATAdBgNVHSUEFjAUBggrBgEFBQcDAQYIKwYBBQUHAwIwBQYDK2Vw
A0EAqse9jlZAq32cVfBNHZfpA2IRylGtgM8aLCxbLXH+2x1LzUuLLRL3Ae77fS4h
/IHehFnIpR6S4yFY0T6KcZEtDg==
-----END CERTIFICATE-----
