Certificate:
    Data:
        Version: 3 (0x2)
        Serial Number:
            6f:46:f6:fd:19:1d:61:aa:0e:30:9a:97:8d:52:40:67:b8:8c:8c:ac
        Signature Algorithm: ED25519
        Issuer: C = US, ST = Montana, L = Bozeman, O = wolfSSL_ed25519, OU = Client-ed25519, CN = www.wolfssl.com, emailAddress = info@wolfssl.com, UID = wolfSSL
        Validity
            Not Before: Feb 15 12:50:24 2022 GMT
            Not After : Nov 11 12:50:24 2024 GMT
        Subject: C = US, ST = Montana, L = Bozeman, O = wolfSSL_ed25519, OU = Client-ed25519, CN = www.wolfssl.com, emailAddress = info@wolfssl.com, UID = wolfSSL
        Subject Public Key Info:
            Public Key Algorithm: ED25519
                ED25519 Public-Key:
                pub:
                    e6:57:5b:13:1b:c7:51:14:6b:ed:3b:f5:d1:fa:ab:
                    9e:6c:b6:eb:02:09:a3:99:f5:6e:bf:9d:3c:fe:54:
                    39:e6
        X509v3 extensions:
            X509v3 Subject Key Identifier: 
                FE:41:5E:3E:81:E2:2E:46:B3:3E:47:89:90:D4:C2:B4:8E:11:D6:8A
            X509v3 Authority Key Identifier: 
                keyid:FE:41:5E:3E:81:E2:2E:46:B3:3E:47:89:90:D4:C2:B4:8E:11:D6:8A
                DirName:/C=US/ST=Montana/L=Bozeman/O=wolfSSL_ed25519/OU=Client-ed25519/CN=www.wolfssl.com/emailAddress=info@wolfssl.com/UID=wolfSSL
                serial:6F:46:F6:FD:19:1D:61:AA:0E:30:9A:97:8D:52:40:67:B8:8C:8C:AC

            X509v3 Basic Constraints: 
                CA:TRUE
            X509v3 Subject Alternative Name: 
                DNS:example.com, IP Address:127.0.0.1
            X509v3 Extended Key Usage: 
                TLS Web Server Authentication, TLS Web Client Authentication
    Signature Algorithm: ED25519
         31:f6:00:bc:7d:2e:3c:5a:ba:f1:fc:f6:94:ce:b5:ea:7d:fd:
         18:6d:d8:22:15:2d:48:fc:36:cb:d8:dd:7f:43:c5:23:cb:4d:
         cb:70:db:08:a5:66:ba:e5:de:48:cd:7e:86:05:7a:ac:6f:9c:
         05:76:34:24:b8:1f:e8:e3:b1:0c
-----BEGIN CERTIFICATE-----
MIIDnzCCA1GgAwIBAgIUb0b2/RkdYaoOMJqXjVJAZ7iMjKwwBQYDK2VwMIG4MQsw
CQYDVQQGEwJVUzEQMA4GA1UECAwHTW9udGFuYTEQMA4GA1UEBwwHQm96ZW1hbjEY
MBYGA1UECgwPd29sZlNTTF9lZDI1NTE5MRcwFQYDVQQLDA5DbGllbnQtZWQyNTUx
OTEYMBYGA1UEAwwPd3d3LndvbGZzc2wuY29tMR8wHQYJKoZIhvcNAQkBFhBpbmZv
QHdvbGZzc2wuY29tMRcwFQYKCZImiZPyLGQBAQwHd29sZlNTTDAeFw0yMjAyMTUx
MjUwMjRaFw0yNDExMTExMjUwMjRaMIG4MQswCQYDVQQGEwJVUzEQMA4GA1UECAwH
TW9udGFuYTEQMA4GA1UEBwwHQm96ZW1hbjEYMBYGA1UECgwPd29sZlNTTF9lZDI1
NTE5MRcwFQYDVQQLDA5DbGllbnQtZWQyNTUxOTEYMBYGA1UEAwwPd3d3LndvbGZz
c2wuY29tMR8wHQYJKoZIhvcNAQkBFhBpbmZvQHdvbGZzc2wuY29tMRcwFQYKCZIm
iZPyLGQBAQwHd29sZlNTTDAqMAUGAytlcAMhAOZXWxMbx1EUa+079dH6q55stusC
CaOZ9W6/nTz+VDnmo4IBaTCCAWUwHQYDVR0OBBYEFP5BXj6B4i5Gsz5HiZDUwrSO
EdaKMIH4BgNVHSMEgfAwge2AFP5BXj6B4i5Gsz5HiZDUwrSOEdaKoYG+pIG7MIG4
MQswCQYDVQQGEwJVUzEQMA4GA1UECAwHTW9udGFuYTEQMA4GA1UEBwwHQm96ZW1h
bjEYMBYGA1UECgwPd29sZlNTTF9lZDI1NTE5MRcwFQYDVQQLDA5DbGllbnQtZWQy
NTUxOTEYMBYGA1UEAwwPd3d3LndvbGZzc2wuY29tMR8wHQYJKoZIhvcNAQkBFhBp
bmZvQHdvbGZzc2wuY29tMRcwFQYKCZImiZPyLGQBAQwHd29sZlNTTIIUb0b2/Rkd
YaoOMJqXjVJAZ7iMjKwwDAYDVR0TBAUwAwEB/zAcBgNVHREEFTATggtleGFtcGxl
LmNvbYcEfwAAATAdBgNVHSUEFjAUBggrBgEFBQcDAQYIKwYBBQUHAwIwBQYDK2Vw
A0EAMfYAvH0uPFq68fz2lM616n39GG3YIhUtSPw2y9jdf0PFI8tNy3DbCKVmuuXe
SM1+hgV6rG+cBXY0JLgf6OOxDA==
-----END CERTIFICATE-----
