Certificate:
    Data:
        Version: 3 (0x2)
        Serial Number:
            40:66:c6:11:bc:00:f8:51:f9:e4:4b:bb:0b:ad:c1:09:38:b0:4a:e4
        Signature Algorithm: ED25519
        Issuer: C = US, ST = Montana, L = Bozeman, O = wolfSSL_ed25519, OU = Client-ed25519, CN = www.wolfssl.com, emailAddress = info@wolfssl.com
        Validity
            Not Before: Mar 10 06:49:03 2021 GMT
            Not After : Dec  5 06:49:03 2023 GMT
        Subject: C = US, ST = Montana, L = Bozeman, O = wolfSSL_ed25519, OU = Client-ed25519, CN = www.wolfssl.com, emailAddress = info@wolfssl.com
        Subject Public Key Info:
            Public Key Algorithm: ED25519
                ED25519 Public-Key:
                pub:
                    e6:57:5b:13:1b:c7:51:14:6b:ed:3b:f5:d1:fa:ab:
                    9e:6c:b6:eb:02:09:a3:99:f5:6e:bf:9d:3c:fe:54:
                    39:e6
        X509v3 extensions:
            X509v3 Subject Key Identifier: 
                FE:41:5E:3E:81:E2:2E:46:B3:3E:47:89:90:D4:C2:B4:8E:11:D6:8A
            X509v3 Authority Key Identifier: 
                keyid:FE:41:5E:3E:81:E2:2E:46:B3:3E:47:89:90:D4:C2:B4:8E:11:D6:8A
                DirName:/C=US/ST=Montana/L=Bozeman/O=wolfSSL_ed25519/OU=Client-ed25519/CN=www.wolfssl.com/emailAddress=info@wolfssl.com
                serial:40:66:C6:11:BC:00:F8:51:F9:E4:4B:BB:0B:AD:C1:09:38:B0:4A:E4

            X509v3 Basic Constraints: 
                CA:TRUE
            X509v3 Subject Alternative Name: 
                DNS:example.com, IP Address:127.0.0.1
            X509v3 Extended Key Usage: 
                TLS Web Server Authentication, TLS Web Client Authentication
    Signature Algorithm: ED25519
         e0:87:e2:ce:d3:87:77:9d:f7:44:c0:73:00:ff:07:6d:2e:90:
         90:5c:bf:30:46:9c:75:a9:48:50:8a:da:09:0f:a8:a8:04:b4:
         33:c8:f4:28:61:9e:c2:a5:19:b7:70:1e:69:cd:49:5c:9a:f3:
         81:e0:de:38:b3:37:ff:33:bb:07
-----BEGIN CERTIFICATE-----
MIIDVDCCAwagAwIBAgIUQGbGEbwA+FH55Eu7C63BCTiwSuQwBQYDK2VwMIGfMQsw
CQYDVQQGEwJVUzEQMA4GA1UECAwHTW9udGFuYTEQMA4GA1UEBwwHQm96ZW1hbjEY
MBYGA1UECgwPd29sZlNTTF9lZDI1NTE5MRcwFQYDVQQLDA5DbGllbnQtZWQyNTUx
OTEYMBYGA1UEAwwPd3d3LndvbGZzc2wuY29tMR8wHQYJKoZIhvcNAQkBFhBpbmZv
QHdvbGZzc2wuY29tMB4XDTIxMDMxMDA2NDkwM1oXDTIzMTIwNTA2NDkwM1owgZ8x
CzAJBgNVBAYTAlVTMRAwDgYDVQQIDAdNb250YW5hMRAwDgYDVQQHDAdCb3plbWFu
MRgwFgYDVQQKDA93b2xmU1NMX2VkMjU1MTkxFzAVBgNVBAsMDkNsaWVudC1lZDI1
NTE5MRgwFgYDVQQDDA93d3cud29sZnNzbC5jb20xHzAdBgkqhkiG9w0BCQEWEGlu
Zm9Ad29sZnNzbC5jb20wKjAFBgMrZXADIQDmV1sTG8dRFGvtO/XR+quebLbrAgmj
mfVuv508/lQ55qOCAVAwggFMMB0GA1UdDgQWBBT+QV4+geIuRrM+R4mQ1MK0jhHW
ijCB3wYDVR0jBIHXMIHUgBT+QV4+geIuRrM+R4mQ1MK0jhHWiqGBpaSBojCBnzEL
MAkGA1UEBhMCVVMxEDAOBgNVBAgMB01vbnRhbmExEDAOBgNVBAcMB0JvemVtYW4x
GDAWBgNVBAoMD3dvbGZTU0xfZWQyNTUxOTEXMBUGA1UECwwOQ2xpZW50LWVkMjU1
MTkxGDAWBgNVBAMMD3d3dy53b2xmc3NsLmNvbTEfMB0GCSqGSIb3DQEJARYQaW5m
b0B3b2xmc3NsLmNvbYIUQGbGEbwA+FH55Eu7C63BCTiwSuQwDAYDVR0TBAUwAwEB
/zAcBgNVHREEFTATggtleGFtcGxlLmNvbYcEfwAAATAdBgNVHSUEFjAUBggrBgEF
BQcDAQYIKwYBBQUHAwIwBQYDK2VwA0EA4IfiztOHd533RMBzAP8HbS6QkFy/MEac
dalIUIraCQ+oqAS0M8j0KGGewqUZt3Aeac1JXJrzgeDeOLM3/zO7Bw==
-----END CERTIFICATE-----
