Certificate:
    Data:
        Version: 3 (0x2)
        Serial Number:
            13:34:b7:bb:3e:10:c0:b4:58:14:b6:80:c2:49:8d:8c:23:90:1c:53
        Signature Algorithm: ED25519
        Issuer: C = US, ST = Montana, L = Bozeman, O = wolfSSL_ed25519, OU = Client-ed25519, CN = www.wolfssl.com, emailAddress = info@wolfssl.com, UID = wolfSSL
        Validity
            Not Before: Sep 26 17:22:43 2023 GMT
            Not After : Jun 22 17:22:43 2026 GMT
        Subject: C = US, ST = Montana, L = Bozeman, O = wolfSSL_ed25519, OU = Client-ed25519, CN = www.wolfssl.com, emailAddress = info@wolfssl.com, UID = wolfSSL
        Subject Public Key Info:
            Public Key Algorithm: ED25519
                ED25519 Public-Key:
                pub:
                    e6:57:5b:13:1b:c7:51:14:6b:ed:3b:f5:d1:fa:ab:
                    9e:6c:b6:eb:02:09:a3:99:f5:6e:bf:9d:3c:fe:54:
                    39:e6
        X509v3 extensions:
            X509v3 Subject Key Identifier: 
                FE:41:5E:3E:81:E2:2E:46:B3:3E:47:89:90:D4:C2:B4:8E:11:D6:8A
            X509v3 Authority Key Identifier: 
                keyid:FE:41:5E:3E:81:E2:2E:46:B3:3E:47:89:90:D4:C2:B4:8E:11:D6:8A
                DirName:/C=US/ST=Montana/L=Bozeman/O=wolfSSL_ed25519/OU=Client-ed25519/CN=www.wolfssl.com/emailAddress=info@wolfssl.com/UID=wolfSSL
                serial:13:34:B7:BB:3E:10:C0:B4:58:14:B6:80:C2:49:8D:8C:23:90:1C:53
            X509v3 Basic Constraints: 
                CA:TRUE
            X509v3 Subject Alternative Name: 
                DNS:example.com, IP Address:127.0.0.1
            X509v3 Extended Key Usage: 
                TLS Web Server Authentication, TLS Web Client Authentication
    Signature Algorithm: ED25519
    Signature Value:
        5c:b9:07:f1:d2:aa:1d:3e:c1:5b:91:c9:2b:ca:e7:38:bc:d3:
        dc:14:02:f4:09:f4:0c:99:75:de:f9:be:96:bb:6b:81:c6:2d:
        b8:0b:8f:fc:21:db:0e:3e:8b:a8:a4:1e:c7:b4:e1:74:4c:cf:
        ff:c6:60:0a:c9:b3:ed:5b:9c:03
-----BEGIN CERTIFICATE-----
MIIDnzCCA1GgAwIBAgIUEzS3uz4QwLRYFLaAwkmNjCOQHFMwBQYDK2VwMIG4MQsw
CQYDVQQGEwJVUzEQMA4GA1UECAwHTW9udGFuYTEQMA4GA1UEBwwHQm96ZW1hbjEY
MBYGA1UECgwPd29sZlNTTF9lZDI1NTE5MRcwFQYDVQQLDA5DbGllbnQtZWQyNTUx
OTEYMBYGA1UEAwwPd3d3LndvbGZzc2wuY29tMR8wHQYJKoZIhvcNAQkBFhBpbmZv
QHdvbGZzc2wuY29tMRcwFQYKCZImiZPyLGQBAQwHd29sZlNTTDAeFw0yMzA5MjYx
NzIyNDNaFw0yNjA2MjIxNzIyNDNaMIG4MQswCQYDVQQGEwJVUzEQMA4GA1UECAwH
TW9udGFuYTEQMA4GA1UEBwwHQm96ZW1hbjEYMBYGA1UECgwPd29sZlNTTF9lZDI1
NTE5MRcwFQYDVQQLDA5DbGllbnQtZWQyNTUxOTEYMBYGA1UEAwwPd3d3LndvbGZz
c2wuY29tMR8wHQYJKoZIhvcNAQkBFhBpbmZvQHdvbGZzc2wuY29tMRcwFQYKCZIm
iZPyLGQBAQwHd29sZlNTTDAqMAUGAytlcAMhAOZXWxMbx1EUa+079dH6q55stusC
CaOZ9W6/nTz+VDnmo4IBaTCCAWUwHQYDVR0OBBYEFP5BXj6B4i5Gsz5HiZDUwrSO
EdaKMIH4BgNVHSMEgfAwge2AFP5BXj6B4i5Gsz5HiZDUwrSOEdaKoYG+pIG7MIG4
MQswCQYDVQQGEwJVUzEQMA4GA1UECAwHTW9udGFuYTEQMA4GA1UEBwwHQm96ZW1h
bjEYMBYGA1UECgwPd29sZlNTTF9lZDI1NTE5MRcwFQYDVQQLDA5DbGllbnQtZWQy
NTUxOTEYMBYGA1UEAwwPd3d3LndvbGZzc2wuY29tMR8wHQYJKoZIhvcNAQkBFhBp
bmZvQHdvbGZzc2wuY29tMRcwFQYKCZImiZPyLGQBAQwHd29sZlNTTIIUEzS3uz4Q
wLRYFLaAwkmNjCOQHFMwDAYDVR0TBAUwAwEB/zAcBgNVHREEFTATggtleGFtcGxl
LmNvbYcEfwAAATAdBgNVHSUEFjAUBggrBgEFBQcDAQYIKwYBBQUHAwIwBQYDK2Vw
A0EAXLkH8dKqHT7BW5HJK8rnOLzT3BQC9An0DJl13vm+lrtrgcYtuAuP/CHbDj6L
qKQex7ThdEzP/8ZgCsmz7VucAw==
-----END CERTIFICATE-----
