Certificate:
    Data:
        Version: 3 (0x2)
        Serial Number:
            07:ff:95:e7:9e:2d:2d:16:1a:5d:bc:8e:44:4c:1e:0f:7c:c1:1b:73
        Signature Algorithm: ED25519
        Issuer: C = US, ST = Montana, L = Bozeman, O = wolfSSL_ed25519, OU = Client-ed25519, CN = www.wolfssl.com, emailAddress = info@wolfssl.com
        Validity
            Not Before: Dec 21 16:49:35 2021 GMT
            Not After : Sep 16 16:49:35 2024 GMT
        Subject: C = US, ST = Montana, L = Bozeman, O = wolfSSL_ed25519, OU = Client-ed25519, CN = www.wolfssl.com, emailAddress = info@wolfssl.com
        Subject Public Key Info:
            Public Key Algorithm: ED25519
                ED25519 Public-Key:
                pub:
                    e6:57:5b:13:1b:c7:51:14:6b:ed:3b:f5:d1:fa:ab:
                    9e:6c:b6:eb:02:09:a3:99:f5:6e:bf:9d:3c:fe:54:
                    39:e6
        X509v3 extensions:
            X509v3 Subject Key Identifier: 
                FE:41:5E:3E:81:E2:2E:46:B3:3E:47:89:90:D4:C2:B4:8E:11:D6:8A
            X509v3 Authority Key Identifier: 
                keyid:FE:41:5E:3E:81:E2:2E:46:B3:3E:47:89:90:D4:C2:B4:8E:11:D6:8A
                DirName:/C=US/ST=Montana/L=Bozeman/O=wolfSSL_ed25519/OU=Client-ed25519/CN=www.wolfssl.com/emailAddress=info@wolfssl.com
                serial:07:FF:95:E7:9E:2D:2D:16:1A:5D:BC:8E:44:4C:1E:0F:7C:C1:1B:73

            X509v3 Basic Constraints: 
                CA:TRUE
            X509v3 Subject Alternative Name: 
                DNS:example.com, IP Address:127.0.0.1
            X509v3 Extended Key Usage: 
                TLS Web Server Authentication, TLS Web Client Authentication
    Signature Algorithm: ED25519
         56:16:bb:d9:a4:39:84:64:21:ad:ca:36:aa:3f:01:97:7d:6d:
         9b:49:8b:5b:ce:f0:f1:66:81:fb:f2:3f:86:02:f3:da:ea:20:
         76:ed:5b:08:28:c9:a9:c1:af:82:3f:bb:fe:24:04:6e:5d:f7:
         bd:b7:bb:52:cd:79:a3:ed:aa:01
-----BEGIN CERTIFICATE-----
MIIDVDCCAwagAwIBAgIUB/+V554tLRYaXbyOREweD3zBG3MwBQYDK2VwMIGfMQsw
CQYDVQQGEwJVUzEQMA4GA1UECAwHTW9udGFuYTEQMA4GA1UEBwwHQm96ZW1hbjEY
MBYGA1UECgwPd29sZlNTTF9lZDI1NTE5MRcwFQYDVQQLDA5DbGllbnQtZWQyNTUx
OTEYMBYGA1UEAwwPd3d3LndvbGZzc2wuY29tMR8wHQYJKoZIhvcNAQkBFhBpbmZv
QHdvbGZzc2wuY29tMB4XDTIxMTIyMTE2NDkzNVoXDTI0MDkxNjE2NDkzNVowgZ8x
CzAJBgNVBAYTAlVTMRAwDgYDVQQIDAdNb250YW5hMRAwDgYDVQQHDAdCb3plbWFu
MRgwFgYDVQQKDA93b2xmU1NMX2VkMjU1MTkxFzAVBgNVBAsMDkNsaWVudC1lZDI1
NTE5MRgwFgYDVQQDDA93d3cud29sZnNzbC5jb20xHzAdBgkqhkiG9w0BCQEWEGlu
Zm9Ad29sZnNzbC5jb20wKjAFBgMrZXADIQDmV1sTG8dRFGvtO/XR+quebLbrAgmj
mfVuv508/lQ55qOCAVAwggFMMB0GA1UdDgQWBBT+QV4+geIuRrM+R4mQ1MK0jhHW
ijCB3wYDVR0jBIHXMIHUgBT+QV4+geIuRrM+R4mQ1MK0jhHWiqGBpaSBojCBnzEL
MAkGA1UEBhMCVVMxEDAOBgNVBAgMB01vbnRhbmExEDAOBgNVBAcMB0JvemVtYW4x
GDAWBgNVBAoMD3dvbGZTU0xfZWQyNTUxOTEXMBUGA1UECwwOQ2xpZW50LWVkMjU1
MTkxGDAWBgNVBAMMD3d3dy53b2xmc3NsLmNvbTEfMB0GCSqGSIb3DQEJARYQaW5m
b0B3b2xmc3NsLmNvbYIUB/+V554tLRYaXbyOREweD3zBG3MwDAYDVR0TBAUwAwEB
/zAcBgNVHREEFTATggtleGFtcGxlLmNvbYcEfwAAATAdBgNVHSUEFjAUBggrBgEF
BQcDAQYIKwYBBQUHAwIwBQYDK2VwA0EAVha72aQ5hGQhrco2qj8Bl31tm0mLW87w
8WaB+/I/hgLz2uogdu1bCCjJqcGvgj+7/iQEbl33vbe7Us15o+2qAQ==
-----END CERTIFICATE-----
