Certificate:
    Data:
        Version: 3 (0x2)
        Serial Number:
            2f:d3:07:63:92:9a:cc:e9:6a:f8:70:f9:49:58:e5:dc:cc:29:d0:c0
        Signature Algorithm: ED25519
        Issuer: C=US, ST=Montana, L=Bozeman, O=wolfSSL_ed25519, OU=Client-ed25519, CN=www.wolfssl.com, emailAddress=info@wolfssl.com, UID=wolfSSL
        Validity
            Not Before: Nov 13 20:41:21 2025 GMT
            Not After : Aug  9 20:41:21 2028 GMT
        Subject: C=US, ST=Montana, L=Bozeman, O=wolfSSL_ed25519, OU=Client-ed25519, CN=www.wolfssl.com, emailAddress=info@wolfssl.com, UID=wolfSSL
        Subject Public Key Info:
            Public Key Algorithm: ED25519
                ED25519 Public-Key:
                pub:
                    e6:57:5b:13:1b:c7:51:14:6b:ed:3b:f5:d1:fa:ab:
                    9e:6c:b6:eb:02:09:a3:99:f5:6e:bf:9d:3c:fe:54:
                    39:e6
        X509v3 extensions:
            X509v3 Subject Key Identifier: 
                FE:41:5E:3E:81:E2:2E:46:B3:3E:47:89:90:D4:C2:B4:8E:11:D6:8A
            X509v3 Authority Key Identifier: 
                keyid:FE:41:5E:3E:81:E2:2E:46:B3:3E:47:89:90:D4:C2:B4:8E:11:D6:8A
                DirName:/C=US/ST=Montana/L=Bozeman/O=wolfSSL_ed25519/OU=Client-ed25519/CN=www.wolfssl.com/emailAddress=info@wolfssl.com/UID=wolfSSL
                serial:2F:D3:07:63:92:9A:CC:E9:6A:F8:70:F9:49:58:E5:DC:CC:29:D0:C0
            X509v3 Basic Constraints: 
                CA:TRUE
            X509v3 Subject Alternative Name: 
                DNS:example.com, IP Address:127.0.0.1
            X509v3 Extended Key Usage: 
                TLS Web Server Authentication, TLS Web Client Authentication
    Signature Algorithm: ED25519
    Signature Value:
        70:a6:6f:42:d3:08:af:7f:29:25:9c:e2:70:a0:ae:1c:07:05:
        bc:47:5f:9a:14:e0:c5:fa:10:2a:86:45:36:e2:0f:55:fa:d0:
        ea:92:cd:44:be:8c:df:95:fe:5c:34:32:a9:da:d3:92:0d:24:
        28:b4:3a:c5:eb:1a:c3:42:43:00
-----BEGIN CERTIFICATE-----
MIIDnzCCA1GgAwIBAgIUL9MHY5KazOlq+HD5SVjl3Mwp0MAwBQYDK2VwMIG4MQsw
CQYDVQQGEwJVUzEQMA4GA1UECAwHTW9udGFuYTEQMA4GA1UEBwwHQm96ZW1hbjEY
MBYGA1UECgwPd29sZlNTTF9lZDI1NTE5MRcwFQYDVQQLDA5DbGllbnQtZWQyNTUx
OTEYMBYGA1UEAwwPd3d3LndvbGZzc2wuY29tMR8wHQYJKoZIhvcNAQkBFhBpbmZv
QHdvbGZzc2wuY29tMRcwFQYKCZImiZPyLGQBAQwHd29sZlNTTDAeFw0yNTExMTMy
MDQxMjFaFw0yODA4MDkyMDQxMjFaMIG4MQswCQYDVQQGEwJVUzEQMA4GA1UECAwH
TW9udGFuYTEQMA4GA1UEBwwHQm96ZW1hbjEYMBYGA1UECgwPd29sZlNTTF9lZDI1
NTE5MRcwFQYDVQQLDA5DbGllbnQtZWQyNTUxOTEYMBYGA1UEAwwPd3d3LndvbGZz
c2wuY29tMR8wHQYJKoZIhvcNAQkBFhBpbmZvQHdvbGZzc2wuY29tMRcwFQYKCZIm
iZPyLGQBAQwHd29sZlNTTDAqMAUGAytlcAMhAOZXWxMbx1EUa+079dH6q55stusC
CaOZ9W6/nTz+VDnmo4IBaTCCAWUwHQYDVR0OBBYEFP5BXj6B4i5Gsz5HiZDUwrSO
EdaKMIH4BgNVHSMEgfAwge2AFP5BXj6B4i5Gsz5HiZDUwrSOEdaKoYG+pIG7MIG4
MQswCQYDVQQGEwJVUzEQMA4GA1UECAwHTW9udGFuYTEQMA4GA1UEBwwHQm96ZW1h
bjEYMBYGA1UECgwPd29sZlNTTF9lZDI1NTE5MRcwFQYDVQQLDA5DbGllbnQtZWQy
NTUxOTEYMBYGA1UEAwwPd3d3LndvbGZzc2wuY29tMR8wHQYJKoZIhvcNAQkBFhBp
bmZvQHdvbGZzc2wuY29tMRcwFQYKCZImiZPyLGQBAQwHd29sZlNTTIIUL9MHY5Ka
zOlq+HD5SVjl3Mwp0MAwDAYDVR0TBAUwAwEB/zAcBgNVHREEFTATggtleGFtcGxl
LmNvbYcEfwAAATAdBgNVHSUEFjAUBggrBgEFBQcDAQYIKwYBBQUHAwIwBQYDK2Vw
A0EAcKZvQtMIr38pJZzicKCuHAcFvEdfmhTgxfoQKoZFNuIPVfrQ6pLNRL6M35X+
XDQyqdrTkg0kKLQ6xesaw0JDAA==
-----END CERTIFICATE-----
