Certificate:
    Data:
        Version: 3 (0x2)
        Serial Number:
            12:30:a7:c1:cf:95:31:fe:4e:f8:c1:48:e0:a2:c3:8f:aa:ac:08:ee
        Signature Algorithm: ED25519
        Issuer: C=US, ST=Montana, L=Bozeman, O=wolfSSL_ed25519, OU=Client-ed25519, CN=www.wolfssl.com, emailAddress=facts@wolfssl.com, UID=wolfSSL
        Validity
            Not Before: Jun 11 21:44:31 2026 GMT
            Not After : Mar  7 21:44:31 2029 GMT
        Subject: C=US, ST=Montana, L=Bozeman, O=wolfSSL_ed25519, OU=Client-ed25519, CN=www.wolfssl.com, emailAddress=facts@wolfssl.com, UID=wolfSSL
        Subject Public Key Info:
            Public Key Algorithm: ED25519
                ED25519 Public-Key:
                pub:
                    e6:57:5b:13:1b:c7:51:14:6b:ed:3b:f5:d1:fa:ab:
                    9e:6c:b6:eb:02:09:a3:99:f5:6e:bf:9d:3c:fe:54:
                    39:e6
        X509v3 extensions:
            X509v3 Subject Key Identifier: 
                FE:41:5E:3E:81:E2:2E:46:B3:3E:47:89:90:D4:C2:B4:8E:11:D6:8A
            X509v3 Authority Key Identifier: 
                keyid:FE:41:5E:3E:81:E2:2E:46:B3:3E:47:89:90:D4:C2:B4:8E:11:D6:8A
                DirName:/C=US/ST=Montana/L=Bozeman/O=wolfSSL_ed25519/OU=Client-ed25519/CN=www.wolfssl.com/emailAddress=facts@wolfssl.com/UID=wolfSSL
                serial:12:30:A7:C1:CF:95:31:FE:4E:F8:C1:48:E0:A2:C3:8F:AA:AC:08:EE
            X509v3 Basic Constraints: 
                CA:TRUE
            X509v3 Subject Alternative Name: 
                DNS:example.com, IP Address:127.0.0.1
            X509v3 Extended Key Usage: 
                TLS Web Server Authentication, TLS Web Client Authentication
    Signature Algorithm: ED25519
    Signature Value:
        1b:ea:49:52:ab:83:74:39:05:4d:a4:39:71:b2:fc:d7:66:7e:
        1a:92:53:96:ed:fc:37:f5:c6:74:d7:19:2a:bc:34:86:20:b6:
        8e:ed:55:4c:ef:c2:fd:5a:d2:3c:45:a6:66:cd:dc:2c:61:5d:
        1f:96:e8:c7:13:00:f6:0b:c4:0b
-----BEGIN CERTIFICATE-----
MIIDojCCA1SgAwIBAgIUEjCnwc+VMf5O+MFI4KLDj6qsCO4wBQYDK2VwMIG5MQsw
CQYDVQQGEwJVUzEQMA4GA1UECAwHTW9udGFuYTEQMA4GA1UEBwwHQm96ZW1hbjEY
MBYGA1UECgwPd29sZlNTTF9lZDI1NTE5MRcwFQYDVQQLDA5DbGllbnQtZWQyNTUx
OTEYMBYGA1UEAwwPd3d3LndvbGZzc2wuY29tMSAwHgYJKoZIhvcNAQkBFhFmYWN0
c0B3b2xmc3NsLmNvbTEXMBUGCgmSJomT8ixkAQEMB3dvbGZTU0wwHhcNMjYwNjEx
MjE0NDMxWhcNMjkwMzA3MjE0NDMxWjCBuTELMAkGA1UEBhMCVVMxEDAOBgNVBAgM
B01vbnRhbmExEDAOBgNVBAcMB0JvemVtYW4xGDAWBgNVBAoMD3dvbGZTU0xfZWQy
NTUxOTEXMBUGA1UECwwOQ2xpZW50LWVkMjU1MTkxGDAWBgNVBAMMD3d3dy53b2xm
c3NsLmNvbTEgMB4GCSqGSIb3DQEJARYRZmFjdHNAd29sZnNzbC5jb20xFzAVBgoJ
kiaJk/IsZAEBDAd3b2xmU1NMMCowBQYDK2VwAyEA5ldbExvHURRr7Tv10fqrnmy2
6wIJo5n1br+dPP5UOeajggFqMIIBZjAdBgNVHQ4EFgQU/kFePoHiLkazPkeJkNTC
tI4R1oowgfkGA1UdIwSB8TCB7oAU/kFePoHiLkazPkeJkNTCtI4R1oqhgb+kgbww
gbkxCzAJBgNVBAYTAlVTMRAwDgYDVQQIDAdNb250YW5hMRAwDgYDVQQHDAdCb3pl
bWFuMRgwFgYDVQQKDA93b2xmU1NMX2VkMjU1MTkxFzAVBgNVBAsMDkNsaWVudC1l
ZDI1NTE5MRgwFgYDVQQDDA93d3cud29sZnNzbC5jb20xIDAeBgkqhkiG9w0BCQEW
EWZhY3RzQHdvbGZzc2wuY29tMRcwFQYKCZImiZPyLGQBAQwHd29sZlNTTIIUEjCn
wc+VMf5O+MFI4KLDj6qsCO4wDAYDVR0TBAUwAwEB/zAcBgNVHREEFTATggtleGFt
cGxlLmNvbYcEfwAAATAdBgNVHSUEFjAUBggrBgEFBQcDAQYIKwYBBQUHAwIwBQYD
K2VwA0EAG+pJUquDdDkFTaQ5cbL812Z+GpJTlu38N/XGdNcZKrw0hiC2ju1VTO/C
/VrSPEWmZs3cLGFdH5boxxMA9gvECw==
-----END CERTIFICATE-----
