Certificate:
    Data:
        Version: 3 (0x2)
        Serial Number:
            78:e3:17:f6:7f:7e:41:85:76:f8:9f:3e:9d:db:7e:dd:b9:52:8b:39
        Signature Algorithm: ED25519
        Issuer: C = US, ST = Montana, L = Bozeman, O = wolfSSL_ed25519, OU = Client-ed25519, CN = www.wolfssl.com, emailAddress = info@wolfssl.com
        Validity
            Not Before: Dec 20 23:07:25 2021 GMT
            Not After : Sep 15 23:07:25 2024 GMT
        Subject: C = US, ST = Montana, L = Bozeman, O = wolfSSL_ed25519, OU = Client-ed25519, CN = www.wolfssl.com, emailAddress = info@wolfssl.com
        Subject Public Key Info:
            Public Key Algorithm: ED25519
                ED25519 Public-Key:
                pub:
                    e6:57:5b:13:1b:c7:51:14:6b:ed:3b:f5:d1:fa:ab:
                    9e:6c:b6:eb:02:09:a3:99:f5:6e:bf:9d:3c:fe:54:
                    39:e6
        X509v3 extensions:
            X509v3 Subject Key Identifier: 
                FE:41:5E:3E:81:E2:2E:46:B3:3E:47:89:90:D4:C2:B4:8E:11:D6:8A
            X509v3 Authority Key Identifier: 
                keyid:FE:41:5E:3E:81:E2:2E:46:B3:3E:47:89:90:D4:C2:B4:8E:11:D6:8A

            X509v3 Basic Constraints: critical
                CA:FALSE
            X509v3 Key Usage: critical
                Digital Signature, Key Encipherment, Key Agreement
            X509v3 Extended Key Usage: 
                TLS Web Client Authentication
    Signature Algorithm: ED25519
         5f:e1:69:78:55:ca:61:76:a6:ec:10:29:da:dc:a9:31:23:c7:
         3b:91:5f:94:e8:2a:6d:e6:f5:5a:5c:16:60:9d:e7:ac:97:3d:
         30:41:23:76:0c:4a:f2:82:31:f2:70:85:bd:7a:e7:19:77:b3:
         6f:88:0f:96:ad:af:2d:a8:d2:09
-----BEGIN CERTIFICATE-----
MIICdzCCAimgAwIBAgIUeOMX9n9+QYV2+J8+ndt+3blSizkwBQYDK2VwMIGfMQsw
CQYDVQQGEwJVUzEQMA4GA1UECAwHTW9udGFuYTEQMA4GA1UEBwwHQm96ZW1hbjEY
MBYGA1UECgwPd29sZlNTTF9lZDI1NTE5MRcwFQYDVQQLDA5DbGllbnQtZWQyNTUx
OTEYMBYGA1UEAwwPd3d3LndvbGZzc2wuY29tMR8wHQYJKoZIhvcNAQkBFhBpbmZv
QHdvbGZzc2wuY29tMB4XDTIxMTIyMDIzMDcyNVoXDTI0MDkxNTIzMDcyNVowgZ8x
CzAJBgNVBAYTAlVTMRAwDgYDVQQIDAdNb250YW5hMRAwDgYDVQQHDAdCb3plbWFu
MRgwFgYDVQQKDA93b2xmU1NMX2VkMjU1MTkxFzAVBgNVBAsMDkNsaWVudC1lZDI1
NTE5MRgwFgYDVQQDDA93d3cud29sZnNzbC5jb20xHzAdBgkqhkiG9w0BCQEWEGlu
Zm9Ad29sZnNzbC5jb20wKjAFBgMrZXADIQDmV1sTG8dRFGvtO/XR+quebLbrAgmj
mfVuv508/lQ55qN1MHMwHQYDVR0OBBYEFP5BXj6B4i5Gsz5HiZDUwrSOEdaKMB8G
A1UdIwQYMBaAFP5BXj6B4i5Gsz5HiZDUwrSOEdaKMAwGA1UdEwEB/wQCMAAwDgYD
VR0PAQH/BAQDAgOoMBMGA1UdJQQMMAoGCCsGAQUFBwMCMAUGAytlcANBAF/haXhV
ymF2puwQKdrcqTEjxzuRX5ToKm3m9VpcFmCd56yXPTBBI3YMSvKCMfJwhb165xl3
s2+ID5atry2o0gk=
-----END CERTIFICATE-----
