Certificate:
    Data:
        Version: 3 (0x2)
        Serial Number:
            24:49:82:ee:d6:ad:c6:2d:77:b7:10:9e:f9:64:56:16:d3:04:0f:16
        Signature Algorithm: ED25519
        Issuer: C = US, ST = Montana, L = Bozeman, O = wolfSSL_Ed25519, OU = Root-Ed25519, CN = www.wolfssl.com, emailAddress = info@wolfssl.com
        Validity
            Not Before: Dec 18 21:25:30 2024 GMT
            Not After : Sep 14 21:25:30 2027 GMT
        Subject: C = US, ST = Montana, L = Bozeman, O = wolfSSL_Ed25519, OU = Root-Ed25519, CN = www.wolfssl.com, emailAddress = info@wolfssl.com
        Subject Public Key Info:
            Public Key Algorithm: ED25519
                ED25519 Public-Key:
                pub:
                    e9:b3:6f:7c:70:8a:ab:ca:54:20:4e:64:76:3c:1a:
                    4f:f7:fa:5e:4a:ff:f3:db:b9:64:2d:10:a5:0c:5a:
                    3f:da
        X509v3 extensions:
            X509v3 Subject Key Identifier: 
                FA:BA:5B:76:1D:F1:1D:1D:4D:74:48:D8:98:3B:56:EF:B3:14:F3:DE
            X509v3 Authority Key Identifier: 
                FA:BA:5B:76:1D:F1:1D:1D:4D:74:48:D8:98:3B:56:EF:B3:14:F3:DE
            X509v3 Basic Constraints: critical
                CA:TRUE
            X509v3 Key Usage: critical
                Digital Signature, Certificate Sign, CRL Sign
    Signature Algorithm: ED25519
    Signature Value:
        99:de:96:76:e3:07:21:03:11:a3:e6:98:77:3d:cc:e6:db:a2:
        96:67:26:f0:2b:26:eb:54:d5:11:e3:9e:a7:e6:aa:73:1e:c5:
        58:92:72:7d:ac:1b:e0:99:2a:46:ea:a2:55:d5:4f:92:a2:32:
        1d:fc:fc:5c:07:3c:0c:0d:79:0a
-----BEGIN CERTIFICATE-----
MIICYTCCAhOgAwIBAgIUJEmC7tatxi13txCe+WRWFtMEDxYwBQYDK2VwMIGdMQsw
CQYDVQQGEwJVUzEQMA4GA1UECAwHTW9udGFuYTEQMA4GA1UEBwwHQm96ZW1hbjEY
MBYGA1UECgwPd29sZlNTTF9FZDI1NTE5MRUwEwYDVQQLDAxSb290LUVkMjU1MTkx
GDAWBgNVBAMMD3d3dy53b2xmc3NsLmNvbTEfMB0GCSqGSIb3DQEJARYQaW5mb0B3
b2xmc3NsLmNvbTAeFw0yNDEyMTgyMTI1MzBaFw0yNzA5MTQyMTI1MzBaMIGdMQsw
CQYDVQQGEwJVUzEQMA4GA1UECAwHTW9udGFuYTEQMA4GA1UEBwwHQm96ZW1hbjEY
MBYGA1UECgwPd29sZlNTTF9FZDI1NTE5MRUwEwYDVQQLDAxSb290LUVkMjU1MTkx
GDAWBgNVBAMMD3d3dy53b2xmc3NsLmNvbTEfMB0GCSqGSIb3DQEJARYQaW5mb0B3
b2xmc3NsLmNvbTAqMAUGAytlcAMhAOmzb3xwiqvKVCBOZHY8Gk/3+l5K//PbuWQt
EKUMWj/ao2MwYTAdBgNVHQ4EFgQU+rpbdh3xHR1NdEjYmDtW77MU894wHwYDVR0j
BBgwFoAU+rpbdh3xHR1NdEjYmDtW77MU894wDwYDVR0TAQH/BAUwAwEB/zAOBgNV
HQ8BAf8EBAMCAYYwBQYDK2VwA0EAmd6WduMHIQMRo+aYdz3M5tuilmcm8Csm61TV
EeOep+aqcx7FWJJyfawb4JkqRuqiVdVPkqIyHfz8XAc8DA15Cg==
-----END CERTIFICATE-----
