Certificate:
    Data:
        Version: 3 (0x2)
        Serial Number:
            3c:8f:b8:f9:5c:f1:81:97:76:e0:cc:04:c6:f6:77:7b:4f:92:4c:c6
        Signature Algorithm: ED25519
        Issuer: C = US, ST = Montana, L = Bozeman, O = wolfSSL_Ed25519, OU = Root-Ed25519, CN = www.wolfssl.com, emailAddress = info@wolfssl.com
        Validity
            Not Before: Mar 10 06:49:03 2021 GMT
            Not After : Dec  5 06:49:03 2023 GMT
        Subject: C = US, ST = Montana, L = Bozeman, O = wolfSSL_Ed25519, OU = Root-Ed25519, CN = www.wolfssl.com, emailAddress = info@wolfssl.com
        Subject Public Key Info:
            Public Key Algorithm: ED25519
                ED25519 Public-Key:
                pub:
                    e9:b3:6f:7c:70:8a:ab:ca:54:20:4e:64:76:3c:1a:
                    4f:f7:fa:5e:4a:ff:f3:db:b9:64:2d:10:a5:0c:5a:
                    3f:da
        X509v3 extensions:
            X509v3 Subject Key Identifier: 
                FA:BA:5B:76:1D:F1:1D:1D:4D:74:48:D8:98:3B:56:EF:B3:14:F3:DE
            X509v3 Authority Key Identifier: 
                keyid:FA:BA:5B:76:1D:F1:1D:1D:4D:74:48:D8:98:3B:56:EF:B3:14:F3:DE

            X509v3 Basic Constraints: critical
                CA:TRUE
            X509v3 Key Usage: critical
                Digital Signature, Certificate Sign, CRL Sign
    Signature Algorithm: ED25519
         44:f7:5d:ad:c0:68:5e:0c:af:c5:dd:da:a4:f9:34:4f:33:4f:
         b3:db:bb:b6:36:67:f4:4d:63:a5:61:e8:b8:98:b7:e7:d3:52:
         8b:fb:ca:61:97:db:34:55:63:a8:27:e8:22:16:b6:a9:f1:8d:
         0e:f8:d1:56:08:45:b6:40:d9:09
-----BEGIN CERTIFICATE-----
MIICYTCCAhOgAwIBAgIUPI+4+VzxgZd24MwExvZ3e0+STMYwBQYDK2VwMIGdMQsw
CQYDVQQGEwJVUzEQMA4GA1UECAwHTW9udGFuYTEQMA4GA1UEBwwHQm96ZW1hbjEY
MBYGA1UECgwPd29sZlNTTF9FZDI1NTE5MRUwEwYDVQQLDAxSb290LUVkMjU1MTkx
GDAWBgNVBAMMD3d3dy53b2xmc3NsLmNvbTEfMB0GCSqGSIb3DQEJARYQaW5mb0B3
b2xmc3NsLmNvbTAeFw0yMTAzMTAwNjQ5MDNaFw0yMzEyMDUwNjQ5MDNaMIGdMQsw
CQYDVQQGEwJVUzEQMA4GA1UECAwHTW9udGFuYTEQMA4GA1UEBwwHQm96ZW1hbjEY
MBYGA1UECgwPd29sZlNTTF9FZDI1NTE5MRUwEwYDVQQLDAxSb290LUVkMjU1MTkx
GDAWBgNVBAMMD3d3dy53b2xmc3NsLmNvbTEfMB0GCSqGSIb3DQEJARYQaW5mb0B3
b2xmc3NsLmNvbTAqMAUGAytlcAMhAOmzb3xwiqvKVCBOZHY8Gk/3+l5K//PbuWQt
EKUMWj/ao2MwYTAdBgNVHQ4EFgQU+rpbdh3xHR1NdEjYmDtW77MU894wHwYDVR0j
BBgwFoAU+rpbdh3xHR1NdEjYmDtW77MU894wDwYDVR0TAQH/BAUwAwEB/zAOBgNV
HQ8BAf8EBAMCAYYwBQYDK2VwA0EARPddrcBoXgyvxd3apPk0TzNPs9u7tjZn9E1j
pWHouJi359NSi/vKYZfbNFVjqCfoIha2qfGNDvjRVghFtkDZCQ==
-----END CERTIFICATE-----
