Certificate:
    Data:
        Version: 3 (0x2)
        Serial Number:
            5b:37:3a:03:b1:08:e4:08:48:25:f4:b3:3e:59:b4:43:00:73:67:e4
        Signature Algorithm: ED25519
        Issuer: C = US, ST = Montana, L = Bozeman, O = wolfSSL_Ed25519, OU = Root-Ed25519, CN = www.wolfssl.com, emailAddress = info@wolfssl.com
        Validity
            Not Before: Feb 15 12:50:24 2022 GMT
            Not After : Nov 11 12:50:24 2024 GMT
        Subject: C = US, ST = Montana, L = Bozeman, O = wolfSSL_Ed25519, OU = Root-Ed25519, CN = www.wolfssl.com, emailAddress = info@wolfssl.com
        Subject Public Key Info:
            Public Key Algorithm: ED25519
                ED25519 Public-Key:
                pub:
                    e9:b3:6f:7c:70:8a:ab:ca:54:20:4e:64:76:3c:1a:
                    4f:f7:fa:5e:4a:ff:f3:db:b9:64:2d:10:a5:0c:5a:
                    3f:da
        X509v3 extensions:
            X509v3 Subject Key Identifier: 
                FA:BA:5B:76:1D:F1:1D:1D:4D:74:48:D8:98:3B:56:EF:B3:14:F3:DE
            X509v3 Authority Key Identifier: 
                keyid:FA:BA:5B:76:1D:F1:1D:1D:4D:74:48:D8:98:3B:56:EF:B3:14:F3:DE

            X509v3 Basic Constraints: critical
                CA:TRUE
            X509v3 Key Usage: critical
                Digital Signature, Certificate Sign, CRL Sign
    Signature Algorithm: ED25519
         f1:10:af:24:4a:f1:63:b2:39:6a:85:0b:78:b6:71:cc:3c:d4:
         b4:81:dd:80:bf:c6:fe:a7:c0:c0:a3:6a:91:6b:7f:0f:e4:1d:
         af:e4:6c:ff:8a:ca:68:3f:5e:7b:3b:be:c5:74:d3:f1:5a:c7:
         a9:4a:a4:dd:25:37:96:b1:9e:09
-----BEGIN CERTIFICATE-----
MIICYTCCAhOgAwIBAgIUWzc6A7EI5AhIJfSzPlm0QwBzZ+QwBQYDK2VwMIGdMQsw
CQYDVQQGEwJVUzEQMA4GA1UECAwHTW9udGFuYTEQMA4GA1UEBwwHQm96ZW1hbjEY
MBYGA1UECgwPd29sZlNTTF9FZDI1NTE5MRUwEwYDVQQLDAxSb290LUVkMjU1MTkx
GDAWBgNVBAMMD3d3dy53b2xmc3NsLmNvbTEfMB0GCSqGSIb3DQEJARYQaW5mb0B3
b2xmc3NsLmNvbTAeFw0yMjAyMTUxMjUwMjRaFw0yNDExMTExMjUwMjRaMIGdMQsw
CQYDVQQGEwJVUzEQMA4GA1UECAwHTW9udGFuYTEQMA4GA1UEBwwHQm96ZW1hbjEY
MBYGA1UECgwPd29sZlNTTF9FZDI1NTE5MRUwEwYDVQQLDAxSb290LUVkMjU1MTkx
GDAWBgNVBAMMD3d3dy53b2xmc3NsLmNvbTEfMB0GCSqGSIb3DQEJARYQaW5mb0B3
b2xmc3NsLmNvbTAqMAUGAytlcAMhAOmzb3xwiqvKVCBOZHY8Gk/3+l5K//PbuWQt
EKUMWj/ao2MwYTAdBgNVHQ4EFgQU+rpbdh3xHR1NdEjYmDtW77MU894wHwYDVR0j
BBgwFoAU+rpbdh3xHR1NdEjYmDtW77MU894wDwYDVR0TAQH/BAUwAwEB/zAOBgNV
HQ8BAf8EBAMCAYYwBQYDK2VwA0EA8RCvJErxY7I5aoULeLZxzDzUtIHdgL/G/qfA
wKNqkWt/D+Qdr+Rs/4rKaD9eezu+xXTT8VrHqUqk3SU3lrGeCQ==
-----END CERTIFICATE-----
