Certificate:
    Data:
        Version: 3 (0x2)
        Serial Number:
            77:4a:83:05:a3:0d:1c:97:29:60:a1:93:d1:8d:ee:70:22:92:af:a0
        Signature Algorithm: ED25519
        Issuer: C=US, ST=Montana, L=Bozeman, O=wolfSSL_Ed25519, OU=Root-Ed25519, CN=www.wolfssl.com, emailAddress=info@wolfssl.com
        Validity
            Not Before: Nov 13 20:41:20 2025 GMT
            Not After : Aug  9 20:41:20 2028 GMT
        Subject: C=US, ST=Montana, L=Bozeman, O=wolfSSL_Ed25519, OU=Root-Ed25519, CN=www.wolfssl.com, emailAddress=info@wolfssl.com
        Subject Public Key Info:
            Public Key Algorithm: ED25519
                ED25519 Public-Key:
                pub:
                    e9:b3:6f:7c:70:8a:ab:ca:54:20:4e:64:76:3c:1a:
                    4f:f7:fa:5e:4a:ff:f3:db:b9:64:2d:10:a5:0c:5a:
                    3f:da
        X509v3 extensions:
            X509v3 Subject Key Identifier: 
                FA:BA:5B:76:1D:F1:1D:1D:4D:74:48:D8:98:3B:56:EF:B3:14:F3:DE
            X509v3 Authority Key Identifier: 
                FA:BA:5B:76:1D:F1:1D:1D:4D:74:48:D8:98:3B:56:EF:B3:14:F3:DE
            X509v3 Basic Constraints: critical
                CA:TRUE
            X509v3 Key Usage: critical
                Digital Signature, Certificate Sign, CRL Sign
    Signature Algorithm: ED25519
    Signature Value:
        91:6c:ff:30:71:76:08:48:9f:8b:1f:98:66:d9:fa:47:3e:d0:
        65:65:ac:7c:ff:41:97:38:b5:09:f6:f9:81:19:57:51:15:df:
        da:d5:65:c5:2d:91:7c:32:da:ee:ef:5f:f8:9c:cf:f5:b1:34:
        b5:bd:ef:f7:8b:74:26:f4:e8:0f
-----BEGIN CERTIFICATE-----
MIICYTCCAhOgAwIBAgIUd0qDBaMNHJcpYKGT0Y3ucCKSr6AwBQYDK2VwMIGdMQsw
CQYDVQQGEwJVUzEQMA4GA1UECAwHTW9udGFuYTEQMA4GA1UEBwwHQm96ZW1hbjEY
MBYGA1UECgwPd29sZlNTTF9FZDI1NTE5MRUwEwYDVQQLDAxSb290LUVkMjU1MTkx
GDAWBgNVBAMMD3d3dy53b2xmc3NsLmNvbTEfMB0GCSqGSIb3DQEJARYQaW5mb0B3
b2xmc3NsLmNvbTAeFw0yNTExMTMyMDQxMjBaFw0yODA4MDkyMDQxMjBaMIGdMQsw
CQYDVQQGEwJVUzEQMA4GA1UECAwHTW9udGFuYTEQMA4GA1UEBwwHQm96ZW1hbjEY
MBYGA1UECgwPd29sZlNTTF9FZDI1NTE5MRUwEwYDVQQLDAxSb290LUVkMjU1MTkx
GDAWBgNVBAMMD3d3dy53b2xmc3NsLmNvbTEfMB0GCSqGSIb3DQEJARYQaW5mb0B3
b2xmc3NsLmNvbTAqMAUGAytlcAMhAOmzb3xwiqvKVCBOZHY8Gk/3+l5K//PbuWQt
EKUMWj/ao2MwYTAdBgNVHQ4EFgQU+rpbdh3xHR1NdEjYmDtW77MU894wHwYDVR0j
BBgwFoAU+rpbdh3xHR1NdEjYmDtW77MU894wDwYDVR0TAQH/BAUwAwEB/zAOBgNV
HQ8BAf8EBAMCAYYwBQYDK2VwA0EAkWz/MHF2CEifix+YZtn6Rz7QZWWsfP9Blzi1
Cfb5gRlXURXf2tVlxS2RfDLa7u9f+JzP9bE0tb3v94t0JvToDw==
-----END CERTIFICATE-----
