Certificate:
    Data:
        Version: 3 (0x2)
        Serial Number:
            48:99:05:65:a6:02:5b:73:45:4c:6b:a0:0a:18:57:5d:b0:30:69:62
        Signature Algorithm: ED25519
        Issuer: C = US, ST = Montana, L = Bozeman, O = wolfSSL_Ed25519, OU = Root-Ed25519, CN = www.wolfssl.com, emailAddress = info@wolfssl.com
        Validity
            Not Before: Dec 21 16:49:35 2021 GMT
            Not After : Sep 16 16:49:35 2024 GMT
        Subject: C = US, ST = Montana, L = Bozeman, O = wolfSSL_Ed25519, OU = Root-Ed25519, CN = www.wolfssl.com, emailAddress = info@wolfssl.com
        Subject Public Key Info:
            Public Key Algorithm: ED25519
                ED25519 Public-Key:
                pub:
                    e9:b3:6f:7c:70:8a:ab:ca:54:20:4e:64:76:3c:1a:
                    4f:f7:fa:5e:4a:ff:f3:db:b9:64:2d:10:a5:0c:5a:
                    3f:da
        X509v3 extensions:
            X509v3 Subject Key Identifier: 
                FA:BA:5B:76:1D:F1:1D:1D:4D:74:48:D8:98:3B:56:EF:B3:14:F3:DE
            X509v3 Authority Key Identifier: 
                keyid:FA:BA:5B:76:1D:F1:1D:1D:4D:74:48:D8:98:3B:56:EF:B3:14:F3:DE

            X509v3 Basic Constraints: critical
                CA:TRUE
            X509v3 Key Usage: critical
                Digital Signature, Certificate Sign, CRL Sign
    Signature Algorithm: ED25519
         9c:34:61:81:c1:f4:69:a7:f7:5f:da:3d:d4:14:52:38:65:50:
         78:80:74:e7:ca:28:4b:d1:69:11:b7:c1:b7:2b:8b:6d:09:44:
         fe:a1:a4:71:0a:03:23:38:a8:18:b5:2e:8a:0f:c3:8a:d2:42:
         72:96:18:64:3d:b7:80:68:50:08
-----BEGIN CERTIFICATE-----
MIICYTCCAhOgAwIBAgIUSJkFZaYCW3NFTGugChhXXbAwaWIwBQYDK2VwMIGdMQsw
CQYDVQQGEwJVUzEQMA4GA1UECAwHTW9udGFuYTEQMA4GA1UEBwwHQm96ZW1hbjEY
MBYGA1UECgwPd29sZlNTTF9FZDI1NTE5MRUwEwYDVQQLDAxSb290LUVkMjU1MTkx
GDAWBgNVBAMMD3d3dy53b2xmc3NsLmNvbTEfMB0GCSqGSIb3DQEJARYQaW5mb0B3
b2xmc3NsLmNvbTAeFw0yMTEyMjExNjQ5MzVaFw0yNDA5MTYxNjQ5MzVaMIGdMQsw
CQYDVQQGEwJVUzEQMA4GA1UECAwHTW9udGFuYTEQMA4GA1UEBwwHQm96ZW1hbjEY
MBYGA1UECgwPd29sZlNTTF9FZDI1NTE5MRUwEwYDVQQLDAxSb290LUVkMjU1MTkx
GDAWBgNVBAMMD3d3dy53b2xmc3NsLmNvbTEfMB0GCSqGSIb3DQEJARYQaW5mb0B3
b2xmc3NsLmNvbTAqMAUGAytlcAMhAOmzb3xwiqvKVCBOZHY8Gk/3+l5K//PbuWQt
EKUMWj/ao2MwYTAdBgNVHQ4EFgQU+rpbdh3xHR1NdEjYmDtW77MU894wHwYDVR0j
BBgwFoAU+rpbdh3xHR1NdEjYmDtW77MU894wDwYDVR0TAQH/BAUwAwEB/zAOBgNV
HQ8BAf8EBAMCAYYwBQYDK2VwA0EAnDRhgcH0aaf3X9o91BRSOGVQeIB058ooS9Fp
EbfBtyuLbQlE/qGkcQoDIzioGLUuig/DitJCcpYYZD23gGhQCA==
-----END CERTIFICATE-----
