Certificate:
    Data:
        Version: 3 (0x2)
        Serial Number:
            5b:5f:41:99:a2:28:8f:48:87:2e:49:f1:a3:a1:dd:f2:e2:33:24:3d
        Signature Algorithm: ED25519
        Issuer: C=US, ST=Montana, L=Bozeman, O=wolfSSL_Ed25519, OU=Root-Ed25519, CN=www.wolfssl.com, emailAddress=facts@wolfssl.com
        Validity
            Not Before: Jun 11 21:44:30 2026 GMT
            Not After : Mar  7 21:44:30 2029 GMT
        Subject: C=US, ST=Montana, L=Bozeman, O=wolfSSL_Ed25519, OU=Root-Ed25519, CN=www.wolfssl.com, emailAddress=facts@wolfssl.com
        Subject Public Key Info:
            Public Key Algorithm: ED25519
                ED25519 Public-Key:
                pub:
                    e9:b3:6f:7c:70:8a:ab:ca:54:20:4e:64:76:3c:1a:
                    4f:f7:fa:5e:4a:ff:f3:db:b9:64:2d:10:a5:0c:5a:
                    3f:da
        X509v3 extensions:
            X509v3 Subject Key Identifier: 
                FA:BA:5B:76:1D:F1:1D:1D:4D:74:48:D8:98:3B:56:EF:B3:14:F3:DE
            X509v3 Authority Key Identifier: 
                FA:BA:5B:76:1D:F1:1D:1D:4D:74:48:D8:98:3B:56:EF:B3:14:F3:DE
            X509v3 Basic Constraints: critical
                CA:TRUE
            X509v3 Key Usage: critical
                Digital Signature, Certificate Sign, CRL Sign
    Signature Algorithm: ED25519
    Signature Value:
        8d:c8:dc:21:65:37:54:38:a9:14:fd:e3:ed:aa:f3:de:11:86:
        5f:57:1e:f0:9e:24:6b:5a:5b:70:6e:9d:07:46:ed:10:74:53:
        92:ad:5f:d9:ae:f4:51:e5:55:94:f3:16:55:58:4f:6b:d5:76:
        56:0a:ff:dc:0f:3a:9a:f1:5f:0f
-----BEGIN CERTIFICATE-----
MIICYzCCAhWgAwIBAgIUW19BmaIoj0iHLknxo6Hd8uIzJD0wBQYDK2VwMIGeMQsw
CQYDVQQGEwJVUzEQMA4GA1UECAwHTW9udGFuYTEQMA4GA1UEBwwHQm96ZW1hbjEY
MBYGA1UECgwPd29sZlNTTF9FZDI1NTE5MRUwEwYDVQQLDAxSb290LUVkMjU1MTkx
GDAWBgNVBAMMD3d3dy53b2xmc3NsLmNvbTEgMB4GCSqGSIb3DQEJARYRZmFjdHNA
d29sZnNzbC5jb20wHhcNMjYwNjExMjE0NDMwWhcNMjkwMzA3MjE0NDMwWjCBnjEL
MAkGA1UEBhMCVVMxEDAOBgNVBAgMB01vbnRhbmExEDAOBgNVBAcMB0JvemVtYW4x
GDAWBgNVBAoMD3dvbGZTU0xfRWQyNTUxOTEVMBMGA1UECwwMUm9vdC1FZDI1NTE5
MRgwFgYDVQQDDA93d3cud29sZnNzbC5jb20xIDAeBgkqhkiG9w0BCQEWEWZhY3Rz
QHdvbGZzc2wuY29tMCowBQYDK2VwAyEA6bNvfHCKq8pUIE5kdjwaT/f6Xkr/89u5
ZC0QpQxaP9qjYzBhMB0GA1UdDgQWBBT6ult2HfEdHU10SNiYO1bvsxTz3jAfBgNV
HSMEGDAWgBT6ult2HfEdHU10SNiYO1bvsxTz3jAPBgNVHRMBAf8EBTADAQH/MA4G
A1UdDwEB/wQEAwIBhjAFBgMrZXADQQCNyNwhZTdUOKkU/ePtqvPeEYZfVx7wniRr
Wltwbp0HRu0QdFOSrV/ZrvRR5VWU8xZVWE9r1XZWCv/cDzqa8V8P
-----END CERTIFICATE-----
