Certificate:
    Data:
        Version: 3 (0x2)
        Serial Number: 1 (0x1)
        Signature Algorithm: ED25519
        Issuer: C = US, ST = Montana, L = Bozeman, O = wolfSSL_ed25519, OU = CA-ed25519, CN = www.wolfssl.com, emailAddress = info@wolfssl.com, UID = wolfSSL
        Validity
            Not Before: Sep 26 17:22:43 2023 GMT
            Not After : Jun 22 17:22:43 2026 GMT
        Subject: C = US, ST = Montana, L = Bozeman, O = wolfSSL_ed25519, OU = Server-ed25519, CN = www.wolfssl.com, emailAddress = info@wolfssl.com, UID = wolfSSL
        Subject Public Key Info:
            Public Key Algorithm: ED25519
                ED25519 Public-Key:
                pub:
                    23:aa:4d:60:50:e0:13:d3:3a:ed:ab:f6:a9:cc:4a:
                    fe:d7:4d:2f:d2:5b:1a:10:05:ef:5a:41:25:ce:1b:
                    53:78
        X509v3 extensions:
            X509v3 Subject Key Identifier: 
                A3:29:81:E7:90:6F:B9:60:F8:AF:CC:15:7A:AE:D7:A1:F4:B4:86:BA
            X509v3 Authority Key Identifier: 
                74:D5:38:19:5E:83:B9:03:F8:01:8A:35:35:BB:89:4C:49:B4:23:E9
            X509v3 Basic Constraints: critical
                CA:FALSE
            X509v3 Key Usage: critical
                Digital Signature, Key Encipherment, Key Agreement
            X509v3 Extended Key Usage: 
                TLS Web Server Authentication
            Netscape Cert Type: 
                SSL Server
    Signature Algorithm: ED25519
    Signature Value:
        57:c8:eb:dc:e5:a5:54:82:23:48:81:eb:2e:30:3d:85:d9:45:
        cb:36:0b:81:17:8a:5f:3e:0a:bb:c6:f7:3a:8e:32:03:1f:b4:
        b1:25:e5:26:86:55:66:cf:3e:89:ca:1e:bf:f8:ba:9e:8f:fe:
        24:2c:29:a4:89:31:64:59:72:03
-----BEGIN CERTIFICATE-----
MIICpzCCAlmgAwIBAgIBATAFBgMrZXAwgbQxCzAJBgNVBAYTAlVTMRAwDgYDVQQI
DAdNb250YW5hMRAwDgYDVQQHDAdCb3plbWFuMRgwFgYDVQQKDA93b2xmU1NMX2Vk
MjU1MTkxEzARBgNVBAsMCkNBLWVkMjU1MTkxGDAWBgNVBAMMD3d3dy53b2xmc3Ns
LmNvbTEfMB0GCSqGSIb3DQEJARYQaW5mb0B3b2xmc3NsLmNvbTEXMBUGCgmSJomT
8ixkAQEMB3dvbGZTU0wwHhcNMjMwOTI2MTcyMjQzWhcNMjYwNjIyMTcyMjQzWjCB
uDELMAkGA1UEBhMCVVMxEDAOBgNVBAgMB01vbnRhbmExEDAOBgNVBAcMB0JvemVt
YW4xGDAWBgNVBAoMD3dvbGZTU0xfZWQyNTUxOTEXMBUGA1UECwwOU2VydmVyLWVk
MjU1MTkxGDAWBgNVBAMMD3d3dy53b2xmc3NsLmNvbTEfMB0GCSqGSIb3DQEJARYQ
aW5mb0B3b2xmc3NsLmNvbTEXMBUGCgmSJomT8ixkAQEMB3dvbGZTU0wwKjAFBgMr
ZXADIQAjqk1gUOAT0zrtq/apzEr+100v0lsaEAXvWkElzhtTeKOBiTCBhjAdBgNV
HQ4EFgQUoymB55BvuWD4r8wVeq7XofS0hrowHwYDVR0jBBgwFoAUdNU4GV6DuQP4
AYo1NbuJTEm0I+kwDAYDVR0TAQH/BAIwADAOBgNVHQ8BAf8EBAMCA6gwEwYDVR0l
BAwwCgYIKwYBBQUHAwEwEQYJYIZIAYb4QgEBBAQDAgZAMAUGAytlcANBAFfI69zl
pVSCI0iB6y4wPYXZRcs2C4EXil8+CrvG9zqOMgMftLEl5SaGVWbPPonKHr/4up6P
/iQsKaSJMWRZcgM=
-----END CERTIFICATE-----
Certificate:
    Data:
        Version: 3 (0x2)
        Serial Number: 1 (0x1)
        Signature Algorithm: ED25519
        Issuer: C = US, ST = Montana, L = Bozeman, O = wolfSSL_Ed25519, OU = Root-Ed25519, CN = www.wolfssl.com, emailAddress = info@wolfssl.com
        Validity
            Not Before: Sep 26 17:22:43 2023 GMT
            Not After : Jun 22 17:22:43 2026 GMT
        Subject: C = US, ST = Montana, L = Bozeman, O = wolfSSL_ed25519, OU = CA-ed25519, CN = www.wolfssl.com, emailAddress = info@wolfssl.com, UID = wolfSSL
        Subject Public Key Info:
            Public Key Algorithm: ED25519
                ED25519 Public-Key:
                pub:
                    42:3b:7a:f9:82:cf:f9:df:19:dd:f3:f0:32:29:6d:
                    fa:fd:76:4f:68:c2:c2:e0:6c:47:ae:c2:55:68:ac:
                    0d:4d
        X509v3 extensions:
            X509v3 Subject Key Identifier: 
                74:D5:38:19:5E:83:B9:03:F8:01:8A:35:35:BB:89:4C:49:B4:23:E9
            X509v3 Authority Key Identifier: 
                FA:BA:5B:76:1D:F1:1D:1D:4D:74:48:D8:98:3B:56:EF:B3:14:F3:DE
            X509v3 Basic Constraints: critical
                CA:TRUE
            X509v3 Key Usage: critical
                Digital Signature, Certificate Sign, CRL Sign
    Signature Algorithm: ED25519
    Signature Value:
        09:ce:3a:40:19:70:ff:2b:f4:4c:02:ff:82:fa:f4:b6:87:85:
        6f:ba:15:f2:5a:5e:13:9d:ba:65:2d:ef:27:39:41:70:11:15:
        ee:54:9f:18:be:4a:70:d0:e0:6b:e4:11:72:7e:ac:15:5a:f1:
        25:f2:19:33:2d:e4:f1:40:4c:02
-----BEGIN CERTIFICATE-----
MIICZTCCAhegAwIBAgIBATAFBgMrZXAwgZ0xCzAJBgNVBAYTAlVTMRAwDgYDVQQI
DAdNb250YW5hMRAwDgYDVQQHDAdCb3plbWFuMRgwFgYDVQQKDA93b2xmU1NMX0Vk
MjU1MTkxFTATBgNVBAsMDFJvb3QtRWQyNTUxOTEYMBYGA1UEAwwPd3d3LndvbGZz
c2wuY29tMR8wHQYJKoZIhvcNAQkBFhBpbmZvQHdvbGZzc2wuY29tMB4XDTIzMDky
NjE3MjI0M1oXDTI2MDYyMjE3MjI0M1owgbQxCzAJBgNVBAYTAlVTMRAwDgYDVQQI
DAdNb250YW5hMRAwDgYDVQQHDAdCb3plbWFuMRgwFgYDVQQKDA93b2xmU1NMX2Vk
MjU1MTkxEzARBgNVBAsMCkNBLWVkMjU1MTkxGDAWBgNVBAMMD3d3dy53b2xmc3Ns
LmNvbTEfMB0GCSqGSIb3DQEJARYQaW5mb0B3b2xmc3NsLmNvbTEXMBUGCgmSJomT
8ixkAQEMB3dvbGZTU0wwKjAFBgMrZXADIQBCO3r5gs/53xnd8/AyKW36/XZPaMLC
4GxHrsJVaKwNTaNjMGEwHQYDVR0OBBYEFHTVOBleg7kD+AGKNTW7iUxJtCPpMB8G
A1UdIwQYMBaAFPq6W3Yd8R0dTXRI2Jg7Vu+zFPPeMA8GA1UdEwEB/wQFMAMBAf8w
DgYDVR0PAQH/BAQDAgGGMAUGAytlcANBAAnOOkAZcP8r9EwC/4L69LaHhW+6FfJa
XhOdumUt7yc5QXARFe5Unxi+SnDQ4GvkEXJ+rBVa8SXyGTMt5PFATAI=
-----END CERTIFICATE-----
