Certificate:
    Data:
        Version: 3 (0x2)
        Serial Number: 1 (0x1)
        Signature Algorithm: ED25519
        Issuer: C = US, ST = Montana, L = Bozeman, O = wolfSSL_ed25519, OU = CA-ed25519, CN = www.wolfssl.com, emailAddress = info@wolfssl.com, UID = wolfSSL
        Validity
            Not Before: Feb 15 12:50:24 2022 GMT
            Not After : Nov 11 12:50:24 2024 GMT
        Subject: C = US, ST = Montana, L = Bozeman, O = wolfSSL_ed25519, OU = Server-ed25519, CN = www.wolfssl.com, emailAddress = info@wolfssl.com, UID = wolfSSL
        Subject Public Key Info:
            Public Key Algorithm: ED25519
                ED25519 Public-Key:
                pub:
                    23:aa:4d:60:50:e0:13:d3:3a:ed:ab:f6:a9:cc:4a:
                    fe:d7:4d:2f:d2:5b:1a:10:05:ef:5a:41:25:ce:1b:
                    53:78
        X509v3 extensions:
            X509v3 Subject Key Identifier: 
                A3:29:81:E7:90:6F:B9:60:F8:AF:CC:15:7A:AE:D7:A1:F4:B4:86:BA
            X509v3 Authority Key Identifier: 
                keyid:74:D5:38:19:5E:83:B9:03:F8:01:8A:35:35:BB:89:4C:49:B4:23:E9

            X509v3 Basic Constraints: critical
                CA:FALSE
            X509v3 Key Usage: critical
                Digital Signature, Key Encipherment, Key Agreement
            X509v3 Extended Key Usage: 
                TLS Web Server Authentication
            Netscape Cert Type: 
                SSL Server
    Signature Algorithm: ED25519
         40:4c:3e:cd:8f:c0:27:99:9d:3d:83:42:d0:2f:d3:05:c5:82:
         f4:f2:07:35:b9:df:ba:d9:d2:c6:69:52:01:57:c9:e7:ae:80:
         70:3d:a1:cf:fd:6a:9c:dd:44:e0:a3:26:31:ed:2c:0a:af:26:
         ca:90:6f:23:5e:5d:d4:14:e4:06
-----BEGIN CERTIFICATE-----
MIICpzCCAlmgAwIBAgIBATAFBgMrZXAwgbQxCzAJBgNVBAYTAlVTMRAwDgYDVQQI
DAdNb250YW5hMRAwDgYDVQQHDAdCb3plbWFuMRgwFgYDVQQKDA93b2xmU1NMX2Vk
MjU1MTkxEzARBgNVBAsMCkNBLWVkMjU1MTkxGDAWBgNVBAMMD3d3dy53b2xmc3Ns
LmNvbTEfMB0GCSqGSIb3DQEJARYQaW5mb0B3b2xmc3NsLmNvbTEXMBUGCgmSJomT
8ixkAQEMB3dvbGZTU0wwHhcNMjIwMjE1MTI1MDI0WhcNMjQxMTExMTI1MDI0WjCB
uDELMAkGA1UEBhMCVVMxEDAOBgNVBAgMB01vbnRhbmExEDAOBgNVBAcMB0JvemVt
YW4xGDAWBgNVBAoMD3dvbGZTU0xfZWQyNTUxOTEXMBUGA1UECwwOU2VydmVyLWVk
MjU1MTkxGDAWBgNVBAMMD3d3dy53b2xmc3NsLmNvbTEfMB0GCSqGSIb3DQEJARYQ
aW5mb0B3b2xmc3NsLmNvbTEXMBUGCgmSJomT8ixkAQEMB3dvbGZTU0wwKjAFBgMr
ZXADIQAjqk1gUOAT0zrtq/apzEr+100v0lsaEAXvWkElzhtTeKOBiTCBhjAdBgNV
HQ4EFgQUoymB55BvuWD4r8wVeq7XofS0hrowHwYDVR0jBBgwFoAUdNU4GV6DuQP4
AYo1NbuJTEm0I+kwDAYDVR0TAQH/BAIwADAOBgNVHQ8BAf8EBAMCA6gwEwYDVR0l
BAwwCgYIKwYBBQUHAwEwEQYJYIZIAYb4QgEBBAQDAgZAMAUGAytlcANBAEBMPs2P
wCeZnT2DQtAv0wXFgvTyBzW537rZ0sZpUgFXyeeugHA9oc/9apzdROCjJjHtLAqv
JsqQbyNeXdQU5AY=
-----END CERTIFICATE-----
Certificate:
    Data:
        Version: 3 (0x2)
        Serial Number: 1 (0x1)
        Signature Algorithm: ED25519
        Issuer: C = US, ST = Montana, L = Bozeman, O = wolfSSL_Ed25519, OU = Root-Ed25519, CN = www.wolfssl.com, emailAddress = info@wolfssl.com
        Validity
            Not Before: Feb 15 12:50:24 2022 GMT
            Not After : Nov 11 12:50:24 2024 GMT
        Subject: C = US, ST = Montana, L = Bozeman, O = wolfSSL_ed25519, OU = CA-ed25519, CN = www.wolfssl.com, emailAddress = info@wolfssl.com, UID = wolfSSL
        Subject Public Key Info:
            Public Key Algorithm: ED25519
                ED25519 Public-Key:
                pub:
                    42:3b:7a:f9:82:cf:f9:df:19:dd:f3:f0:32:29:6d:
                    fa:fd:76:4f:68:c2:c2:e0:6c:47:ae:c2:55:68:ac:
                    0d:4d
        X509v3 extensions:
            X509v3 Subject Key Identifier: 
                74:D5:38:19:5E:83:B9:03:F8:01:8A:35:35:BB:89:4C:49:B4:23:E9
            X509v3 Authority Key Identifier: 
                keyid:FA:BA:5B:76:1D:F1:1D:1D:4D:74:48:D8:98:3B:56:EF:B3:14:F3:DE

            X509v3 Basic Constraints: critical
                CA:TRUE
            X509v3 Key Usage: critical
                Digital Signature, Certificate Sign, CRL Sign
    Signature Algorithm: ED25519
         d6:a6:f7:c6:62:cb:2a:3e:18:0d:88:58:00:b0:95:0a:ac:3a:
         d6:6f:69:dd:1c:91:1c:50:77:9c:18:d4:6e:2b:26:7c:5c:6c:
         04:03:df:3e:7d:68:95:5e:74:34:e6:3b:43:31:0c:86:dc:23:
         1f:4a:9f:02:23:17:02:0e:91:08
-----BEGIN CERTIFICATE-----
MIICZTCCAhegAwIBAgIBATAFBgMrZXAwgZ0xCzAJBgNVBAYTAlVTMRAwDgYDVQQI
DAdNb250YW5hMRAwDgYDVQQHDAdCb3plbWFuMRgwFgYDVQQKDA93b2xmU1NMX0Vk
MjU1MTkxFTATBgNVBAsMDFJvb3QtRWQyNTUxOTEYMBYGA1UEAwwPd3d3LndvbGZz
c2wuY29tMR8wHQYJKoZIhvcNAQkBFhBpbmZvQHdvbGZzc2wuY29tMB4XDTIyMDIx
NTEyNTAyNFoXDTI0MTExMTEyNTAyNFowgbQxCzAJBgNVBAYTAlVTMRAwDgYDVQQI
DAdNb250YW5hMRAwDgYDVQQHDAdCb3plbWFuMRgwFgYDVQQKDA93b2xmU1NMX2Vk
MjU1MTkxEzARBgNVBAsMCkNBLWVkMjU1MTkxGDAWBgNVBAMMD3d3dy53b2xmc3Ns
LmNvbTEfMB0GCSqGSIb3DQEJARYQaW5mb0B3b2xmc3NsLmNvbTEXMBUGCgmSJomT
8ixkAQEMB3dvbGZTU0wwKjAFBgMrZXADIQBCO3r5gs/53xnd8/AyKW36/XZPaMLC
4GxHrsJVaKwNTaNjMGEwHQYDVR0OBBYEFHTVOBleg7kD+AGKNTW7iUxJtCPpMB8G
A1UdIwQYMBaAFPq6W3Yd8R0dTXRI2Jg7Vu+zFPPeMA8GA1UdEwEB/wQFMAMBAf8w
DgYDVR0PAQH/BAQDAgGGMAUGAytlcANBANam98Ziyyo+GA2IWACwlQqsOtZvad0c
kRxQd5wY1G4rJnxcbAQD3z59aJVedDTmO0MxDIbcIx9KnwIjFwIOkQg=
-----END CERTIFICATE-----
