Certificate:
    Data:
        Version: 3 (0x2)
        Serial Number: 1 (0x1)
        Signature Algorithm: ED25519
        Issuer: C = US, ST = Montana, L = Bozeman, O = wolfSSL_ed25519, OU = CA-ed25519, CN = www.wolfssl.com, emailAddress = info@wolfssl.com
        Validity
            Not Before: Dec 20 23:07:25 2021 GMT
            Not After : Sep 15 23:07:25 2024 GMT
        Subject: C = US, ST = Montana, L = Bozeman, O = wolfSSL_ed25519, OU = Server-ed25519, CN = www.wolfssl.com, emailAddress = info@wolfssl.com
        Subject Public Key Info:
            Public Key Algorithm: ED25519
                ED25519 Public-Key:
                pub:
                    23:aa:4d:60:50:e0:13:d3:3a:ed:ab:f6:a9:cc:4a:
                    fe:d7:4d:2f:d2:5b:1a:10:05:ef:5a:41:25:ce:1b:
                    53:78
        X509v3 extensions:
            X509v3 Subject Key Identifier: 
                A3:29:81:E7:90:6F:B9:60:F8:AF:CC:15:7A:AE:D7:A1:F4:B4:86:BA
            X509v3 Authority Key Identifier: 
                keyid:74:D5:38:19:5E:83:B9:03:F8:01:8A:35:35:BB:89:4C:49:B4:23:E9

            X509v3 Basic Constraints: critical
                CA:FALSE
            X509v3 Key Usage: critical
                Digital Signature, Key Encipherment, Key Agreement
            X509v3 Extended Key Usage: 
                TLS Web Server Authentication
            Netscape Cert Type: 
                SSL Server
    Signature Algorithm: ED25519
         2a:c7:33:f1:ed:51:63:7b:38:4d:df:45:3d:b1:6a:8a:6e:3e:
         cc:78:93:cf:84:5d:61:23:62:31:c1:c9:4d:11:6a:83:d5:38:
         e8:b2:40:a1:62:c9:7b:a4:11:91:04:52:65:86:ab:82:38:20:
         36:fe:93:59:60:16:65:be:8f:06
-----BEGIN CERTIFICATE-----
MIICdTCCAiegAwIBAgIBATAFBgMrZXAwgZsxCzAJBgNVBAYTAlVTMRAwDgYDVQQI
DAdNb250YW5hMRAwDgYDVQQHDAdCb3plbWFuMRgwFgYDVQQKDA93b2xmU1NMX2Vk
MjU1MTkxEzARBgNVBAsMCkNBLWVkMjU1MTkxGDAWBgNVBAMMD3d3dy53b2xmc3Ns
LmNvbTEfMB0GCSqGSIb3DQEJARYQaW5mb0B3b2xmc3NsLmNvbTAeFw0yMTEyMjAy
MzA3MjVaFw0yNDA5MTUyMzA3MjVaMIGfMQswCQYDVQQGEwJVUzEQMA4GA1UECAwH
TW9udGFuYTEQMA4GA1UEBwwHQm96ZW1hbjEYMBYGA1UECgwPd29sZlNTTF9lZDI1
NTE5MRcwFQYDVQQLDA5TZXJ2ZXItZWQyNTUxOTEYMBYGA1UEAwwPd3d3LndvbGZz
c2wuY29tMR8wHQYJKoZIhvcNAQkBFhBpbmZvQHdvbGZzc2wuY29tMCowBQYDK2Vw
AyEAI6pNYFDgE9M67av2qcxK/tdNL9JbGhAF71pBJc4bU3ijgYkwgYYwHQYDVR0O
BBYEFKMpgeeQb7lg+K/MFXqu16H0tIa6MB8GA1UdIwQYMBaAFHTVOBleg7kD+AGK
NTW7iUxJtCPpMAwGA1UdEwEB/wQCMAAwDgYDVR0PAQH/BAQDAgOoMBMGA1UdJQQM
MAoGCCsGAQUFBwMBMBEGCWCGSAGG+EIBAQQEAwIGQDAFBgMrZXADQQAqxzPx7VFj
ezhN30U9sWqKbj7MeJPPhF1hI2IxwclNEWqD1TjoskChYsl7pBGRBFJlhquCOCA2
/pNZYBZlvo8G
-----END CERTIFICATE-----
