Certificate:
    Data:
        Version: 3 (0x2)
        Serial Number: 1 (0x1)
        Signature Algorithm: ED25519
        Issuer: C = US, ST = Montana, L = Bozeman, O = wolfSSL_ed25519, OU = CA-ed25519, CN = www.wolfssl.com, emailAddress = info@wolfssl.com
        Validity
            Not Before: Mar 10 06:49:03 2021 GMT
            Not After : Dec  5 06:49:03 2023 GMT
        Subject: C = US, ST = Montana, L = Bozeman, O = wolfSSL_ed25519, OU = Server-ed25519, CN = www.wolfssl.com, emailAddress = info@wolfssl.com
        Subject Public Key Info:
            Public Key Algorithm: ED25519
                ED25519 Public-Key:
                pub:
                    23:aa:4d:60:50:e0:13:d3:3a:ed:ab:f6:a9:cc:4a:
                    fe:d7:4d:2f:d2:5b:1a:10:05:ef:5a:41:25:ce:1b:
                    53:78
        X509v3 extensions:
            X509v3 Subject Key Identifier: 
                A3:29:81:E7:90:6F:B9:60:F8:AF:CC:15:7A:AE:D7:A1:F4:B4:86:BA
            X509v3 Authority Key Identifier: 
                keyid:74:D5:38:19:5E:83:B9:03:F8:01:8A:35:35:BB:89:4C:49:B4:23:E9

            X509v3 Basic Constraints: critical
                CA:FALSE
            X509v3 Key Usage: critical
                Digital Signature, Key Encipherment, Key Agreement
            X509v3 Extended Key Usage: 
                TLS Web Server Authentication
            Netscape Cert Type: 
                SSL Server
    Signature Algorithm: ED25519
         f3:c2:ef:8b:55:65:4f:bc:e3:df:fc:d8:a1:ad:8e:43:07:73:
         c8:58:c3:46:0a:c1:f1:4d:3f:fb:3d:78:e6:76:58:26:ce:d7:
         59:55:ec:c5:b5:b4:05:ed:f9:d4:97:69:66:d6:2c:1b:43:5a:
         51:5c:be:10:28:95:c4:96:af:00
-----BEGIN CERTIFICATE-----
MIICdTCCAiegAwIBAgIBATAFBgMrZXAwgZsxCzAJBgNVBAYTAlVTMRAwDgYDVQQI
DAdNb250YW5hMRAwDgYDVQQHDAdCb3plbWFuMRgwFgYDVQQKDA93b2xmU1NMX2Vk
MjU1MTkxEzARBgNVBAsMCkNBLWVkMjU1MTkxGDAWBgNVBAMMD3d3dy53b2xmc3Ns
LmNvbTEfMB0GCSqGSIb3DQEJARYQaW5mb0B3b2xmc3NsLmNvbTAeFw0yMTAzMTAw
NjQ5MDNaFw0yMzEyMDUwNjQ5MDNaMIGfMQswCQYDVQQGEwJVUzEQMA4GA1UECAwH
TW9udGFuYTEQMA4GA1UEBwwHQm96ZW1hbjEYMBYGA1UECgwPd29sZlNTTF9lZDI1
NTE5MRcwFQYDVQQLDA5TZXJ2ZXItZWQyNTUxOTEYMBYGA1UEAwwPd3d3LndvbGZz
c2wuY29tMR8wHQYJKoZIhvcNAQkBFhBpbmZvQHdvbGZzc2wuY29tMCowBQYDK2Vw
AyEAI6pNYFDgE9M67av2qcxK/tdNL9JbGhAF71pBJc4bU3ijgYkwgYYwHQYDVR0O
BBYEFKMpgeeQb7lg+K/MFXqu16H0tIa6MB8GA1UdIwQYMBaAFHTVOBleg7kD+AGK
NTW7iUxJtCPpMAwGA1UdEwEB/wQCMAAwDgYDVR0PAQH/BAQDAgOoMBMGA1UdJQQM
MAoGCCsGAQUFBwMBMBEGCWCGSAGG+EIBAQQEAwIGQDAFBgMrZXADQQDzwu+LVWVP
vOPf/NihrY5DB3PIWMNGCsHxTT/7PXjmdlgmztdZVezFtbQF7fnUl2lm1iwbQ1pR
XL4QKJXElq8A
-----END CERTIFICATE-----
