Certificate:
    Data:
        Version: 3 (0x2)
        Serial Number: 1 (0x1)
        Signature Algorithm: ED25519
        Issuer: C=US, ST=Montana, L=Bozeman, O=wolfSSL_ed25519, OU=CA-ed25519, CN=www.wolfssl.com, emailAddress=facts@wolfssl.com, UID=wolfSSL
        Validity
            Not Before: Jun 11 21:44:31 2026 GMT
            Not After : Mar  7 21:44:31 2029 GMT
        Subject: C=US, ST=Montana, L=Bozeman, O=wolfSSL_ed25519, OU=Server-ed25519, CN=www.wolfssl.com, emailAddress=facts@wolfssl.com, UID=wolfSSL
        Subject Public Key Info:
            Public Key Algorithm: ED25519
                ED25519 Public-Key:
                pub:
                    23:aa:4d:60:50:e0:13:d3:3a:ed:ab:f6:a9:cc:4a:
                    fe:d7:4d:2f:d2:5b:1a:10:05:ef:5a:41:25:ce:1b:
                    53:78
        X509v3 extensions:
            X509v3 Subject Key Identifier: 
                A3:29:81:E7:90:6F:B9:60:F8:AF:CC:15:7A:AE:D7:A1:F4:B4:86:BA
            X509v3 Authority Key Identifier: 
                74:D5:38:19:5E:83:B9:03:F8:01:8A:35:35:BB:89:4C:49:B4:23:E9
            X509v3 Basic Constraints: critical
                CA:FALSE
            X509v3 Key Usage: critical
                Digital Signature, Key Encipherment, Key Agreement
            X509v3 Extended Key Usage: 
                TLS Web Server Authentication
            Netscape Cert Type: 
                SSL Server
    Signature Algorithm: ED25519
    Signature Value:
        d3:61:3d:bb:cf:85:cd:9b:34:16:ef:a9:34:e0:1f:b5:ec:ad:
        5f:63:d4:0c:21:49:55:3a:a8:e1:40:f9:e3:77:ee:73:77:ec:
        8d:e5:06:f3:d1:7c:33:d0:43:96:62:f4:f0:d7:3f:c6:d6:b1:
        6e:65:00:f0:03:29:a6:65:ec:09
-----BEGIN CERTIFICATE-----
MIICqTCCAlugAwIBAgIBATAFBgMrZXAwgbUxCzAJBgNVBAYTAlVTMRAwDgYDVQQI
DAdNb250YW5hMRAwDgYDVQQHDAdCb3plbWFuMRgwFgYDVQQKDA93b2xmU1NMX2Vk
MjU1MTkxEzARBgNVBAsMCkNBLWVkMjU1MTkxGDAWBgNVBAMMD3d3dy53b2xmc3Ns
LmNvbTEgMB4GCSqGSIb3DQEJARYRZmFjdHNAd29sZnNzbC5jb20xFzAVBgoJkiaJ
k/IsZAEBDAd3b2xmU1NMMB4XDTI2MDYxMTIxNDQzMVoXDTI5MDMwNzIxNDQzMVow
gbkxCzAJBgNVBAYTAlVTMRAwDgYDVQQIDAdNb250YW5hMRAwDgYDVQQHDAdCb3pl
bWFuMRgwFgYDVQQKDA93b2xmU1NMX2VkMjU1MTkxFzAVBgNVBAsMDlNlcnZlci1l
ZDI1NTE5MRgwFgYDVQQDDA93d3cud29sZnNzbC5jb20xIDAeBgkqhkiG9w0BCQEW
EWZhY3RzQHdvbGZzc2wuY29tMRcwFQYKCZImiZPyLGQBAQwHd29sZlNTTDAqMAUG
AytlcAMhACOqTWBQ4BPTOu2r9qnMSv7XTS/SWxoQBe9aQSXOG1N4o4GJMIGGMB0G
A1UdDgQWBBSjKYHnkG+5YPivzBV6rteh9LSGujAfBgNVHSMEGDAWgBR01TgZXoO5
A/gBijU1u4lMSbQj6TAMBgNVHRMBAf8EAjAAMA4GA1UdDwEB/wQEAwIDqDATBgNV
HSUEDDAKBggrBgEFBQcDATARBglghkgBhvhCAQEEBAMCBkAwBQYDK2VwA0EA02E9
u8+FzZs0Fu+pNOAfteytX2PUDCFJVTqo4UD543fuc3fsjeUG89F8M9BDlmL08Nc/
xtaxbmUA8AMppmXsCQ==
-----END CERTIFICATE-----
