Certificate:
    Data:
        Version: 3 (0x2)
        Serial Number: 1 (0x1)
        Signature Algorithm: ED25519
        Issuer: C = US, ST = Montana, L = Bozeman, O = wolfSSL_ed25519, OU = CA-ed25519, CN = www.wolfssl.com, emailAddress = info@wolfssl.com, UID = wolfSSL
        Validity
            Not Before: Dec 13 22:19:29 2023 GMT
            Not After : Sep  8 22:19:29 2026 GMT
        Subject: C = US, ST = Montana, L = Bozeman, O = wolfSSL_ed25519, OU = Server-ed25519, CN = www.wolfssl.com, emailAddress = info@wolfssl.com, UID = wolfSSL
        Subject Public Key Info:
            Public Key Algorithm: ED25519
                ED25519 Public-Key:
                pub:
                    23:aa:4d:60:50:e0:13:d3:3a:ed:ab:f6:a9:cc:4a:
                    fe:d7:4d:2f:d2:5b:1a:10:05:ef:5a:41:25:ce:1b:
                    53:78
        X509v3 extensions:
            X509v3 Subject Key Identifier: 
                A3:29:81:E7:90:6F:B9:60:F8:AF:CC:15:7A:AE:D7:A1:F4:B4:86:BA
            X509v3 Authority Key Identifier: 
                keyid:74:D5:38:19:5E:83:B9:03:F8:01:8A:35:35:BB:89:4C:49:B4:23:E9

            X509v3 Basic Constraints: critical
                CA:FALSE
            X509v3 Key Usage: critical
                Digital Signature, Key Encipherment, Key Agreement
            X509v3 Extended Key Usage: 
                TLS Web Server Authentication
            Netscape Cert Type: 
                SSL Server
    Signature Algorithm: ED25519
         22:d7:34:ac:33:65:8b:18:a4:34:f9:3a:e6:ce:c1:77:a6:3d:
         2a:2a:ee:22:ad:6e:fc:36:fc:98:8d:8a:fd:3f:cb:a9:74:01:
         25:96:05:e1:39:13:8b:d9:05:6d:c9:ba:0e:5d:36:bf:39:03:
         57:2a:55:fc:e3:53:c3:1b:e1:0b
-----BEGIN CERTIFICATE-----
MIICpzCCAlmgAwIBAgIBATAFBgMrZXAwgbQxCzAJBgNVBAYTAlVTMRAwDgYDVQQI
DAdNb250YW5hMRAwDgYDVQQHDAdCb3plbWFuMRgwFgYDVQQKDA93b2xmU1NMX2Vk
MjU1MTkxEzARBgNVBAsMCkNBLWVkMjU1MTkxGDAWBgNVBAMMD3d3dy53b2xmc3Ns
LmNvbTEfMB0GCSqGSIb3DQEJARYQaW5mb0B3b2xmc3NsLmNvbTEXMBUGCgmSJomT
8ixkAQEMB3dvbGZTU0wwHhcNMjMxMjEzMjIxOTI5WhcNMjYwOTA4MjIxOTI5WjCB
uDELMAkGA1UEBhMCVVMxEDAOBgNVBAgMB01vbnRhbmExEDAOBgNVBAcMB0JvemVt
YW4xGDAWBgNVBAoMD3dvbGZTU0xfZWQyNTUxOTEXMBUGA1UECwwOU2VydmVyLWVk
MjU1MTkxGDAWBgNVBAMMD3d3dy53b2xmc3NsLmNvbTEfMB0GCSqGSIb3DQEJARYQ
aW5mb0B3b2xmc3NsLmNvbTEXMBUGCgmSJomT8ixkAQEMB3dvbGZTU0wwKjAFBgMr
ZXADIQAjqk1gUOAT0zrtq/apzEr+100v0lsaEAXvWkElzhtTeKOBiTCBhjAdBgNV
HQ4EFgQUoymB55BvuWD4r8wVeq7XofS0hrowHwYDVR0jBBgwFoAUdNU4GV6DuQP4
AYo1NbuJTEm0I+kwDAYDVR0TAQH/BAIwADAOBgNVHQ8BAf8EBAMCA6gwEwYDVR0l
BAwwCgYIKwYBBQUHAwEwEQYJYIZIAYb4QgEBBAQDAgZAMAUGAytlcANBACLXNKwz
ZYsYpDT5OubOwXemPSoq7iKtbvw2/JiNiv0/y6l0ASWWBeE5E4vZBW3Jug5dNr85
A1cqVfzjU8Mb4Qs=
-----END CERTIFICATE-----
Certificate:
    Data:
        Version: 3 (0x2)
        Serial Number: 1 (0x1)
        Signature Algorithm: ED25519
        Issuer: C = US, ST = Montana, L = Bozeman, O = wolfSSL_Ed25519, OU = Root-Ed25519, CN = www.wolfssl.com, emailAddress = info@wolfssl.com
        Validity
            Not Before: Dec 13 22:19:29 2023 GMT
            Not After : Sep  8 22:19:29 2026 GMT
        Subject: C = US, ST = Montana, L = Bozeman, O = wolfSSL_ed25519, OU = CA-ed25519, CN = www.wolfssl.com, emailAddress = info@wolfssl.com, UID = wolfSSL
        Subject Public Key Info:
            Public Key Algorithm: ED25519
                ED25519 Public-Key:
                pub:
                    42:3b:7a:f9:82:cf:f9:df:19:dd:f3:f0:32:29:6d:
                    fa:fd:76:4f:68:c2:c2:e0:6c:47:ae:c2:55:68:ac:
                    0d:4d
        X509v3 extensions:
            X509v3 Subject Key Identifier: 
                74:D5:38:19:5E:83:B9:03:F8:01:8A:35:35:BB:89:4C:49:B4:23:E9
            X509v3 Authority Key Identifier: 
                keyid:FA:BA:5B:76:1D:F1:1D:1D:4D:74:48:D8:98:3B:56:EF:B3:14:F3:DE

            X509v3 Basic Constraints: critical
                CA:TRUE
            X509v3 Key Usage: critical
                Digital Signature, Certificate Sign, CRL Sign
    Signature Algorithm: ED25519
         e6:71:a0:59:63:b4:31:31:1f:75:06:ce:f1:89:f0:e7:a2:db:
         a8:c1:e4:c8:61:38:0c:e6:e9:e7:b9:9f:ce:e2:f5:49:a3:f5:
         04:1e:85:f7:7d:10:fb:1d:ee:b6:dc:5e:51:f1:82:33:a4:ed:
         e0:0a:65:09:2b:0e:1e:b2:af:0b
-----BEGIN CERTIFICATE-----
MIICZTCCAhegAwIBAgIBATAFBgMrZXAwgZ0xCzAJBgNVBAYTAlVTMRAwDgYDVQQI
DAdNb250YW5hMRAwDgYDVQQHDAdCb3plbWFuMRgwFgYDVQQKDA93b2xmU1NMX0Vk
MjU1MTkxFTATBgNVBAsMDFJvb3QtRWQyNTUxOTEYMBYGA1UEAwwPd3d3LndvbGZz
c2wuY29tMR8wHQYJKoZIhvcNAQkBFhBpbmZvQHdvbGZzc2wuY29tMB4XDTIzMTIx
MzIyMTkyOVoXDTI2MDkwODIyMTkyOVowgbQxCzAJBgNVBAYTAlVTMRAwDgYDVQQI
DAdNb250YW5hMRAwDgYDVQQHDAdCb3plbWFuMRgwFgYDVQQKDA93b2xmU1NMX2Vk
MjU1MTkxEzARBgNVBAsMCkNBLWVkMjU1MTkxGDAWBgNVBAMMD3d3dy53b2xmc3Ns
LmNvbTEfMB0GCSqGSIb3DQEJARYQaW5mb0B3b2xmc3NsLmNvbTEXMBUGCgmSJomT
8ixkAQEMB3dvbGZTU0wwKjAFBgMrZXADIQBCO3r5gs/53xnd8/AyKW36/XZPaMLC
4GxHrsJVaKwNTaNjMGEwHQYDVR0OBBYEFHTVOBleg7kD+AGKNTW7iUxJtCPpMB8G
A1UdIwQYMBaAFPq6W3Yd8R0dTXRI2Jg7Vu+zFPPeMA8GA1UdEwEB/wQFMAMBAf8w
DgYDVR0PAQH/BAQDAgGGMAUGAytlcANBAOZxoFljtDExH3UGzvGJ8Oei26jB5Mhh
OAzm6ee5n87i9Umj9QQehfd9EPsd7rbcXlHxgjOk7eAKZQkrDh6yrws=
-----END CERTIFICATE-----
