Certificate:
    Data:
        Version: 3 (0x2)
        Serial Number: 16629652120256878762 (0xe6c8647ee63b98aa)
    Signature Algorithm: sha256WithRSAEncryption
        Issuer: C=US, ST=Montana, L=Bozeman, O=Sawtooth, OU=Consulting_1024, CN=www.wolfssl.com/emailAddress=info@wolfssl.com
        Validity
            Not Before: Nov 23 12:49:37 2015 GMT
            Not After : Aug 19 12:49:37 2018 GMT
        Subject: C=US, ST=Montana, L=Bozeman, O=Sawtooth, OU=Consulting_1024, CN=www.wolfssl.com/emailAddress=info@wolfssl.com
        Subject Public Key Info:
            Public Key Algorithm: rsaEncryption
                Public-Key: (1024 bit)
                Modulus:
                    00:cd:ac:dd:47:ec:be:b7:24:c3:63:1b:54:98:79:
                    e1:c7:31:16:59:d6:9d:77:9d:8d:e2:8b:ed:04:17:
                    b2:c6:eb:e4:9b:91:be:31:50:62:97:58:b5:7f:29:
                    de:b3:71:24:0b:bf:97:09:7f:26:dc:2d:ec:a8:2e:
                    b2:64:2b:7a:2b:35:19:2d:a2:80:cb:99:fd:94:71:
                    1b:23:8d:54:db:2e:62:8d:81:08:2d:f4:24:72:27:
                    6c:f9:c9:8e:db:4c:75:ba:9b:01:f8:3f:18:f4:e6:
                    7f:fb:57:94:92:cc:88:c4:b4:00:c2:aa:d4:e5:88:
                    18:b3:11:2f:73:c0:d6:29:09
                Exponent: 65537 (0x10001)
        X509v3 extensions:
            X509v3 Subject Key Identifier: 
                D3:22:8F:28:2C:E0:05:EE:D3:ED:C3:71:3D:C9:B2:36:3A:1D:BF:A8
            X509v3 Authority Key Identifier: 
                keyid:D3:22:8F:28:2C:E0:05:EE:D3:ED:C3:71:3D:C9:B2:36:3A:1D:BF:A8
                DirName:/C=US/ST=Montana/L=Bozeman/O=Sawtooth/OU=Consulting_1024/CN=www.wolfssl.com/emailAddress=info@wolfssl.com
                serial:E6:C8:64:7E:E6:3B:98:AA

            X509v3 Basic Constraints: 
                CA:TRUE
            Authority Information Access: 
                OCSP - URI:http://localhost:22222

    Signature Algorithm: sha256WithRSAEncryption
         82:53:ec:89:0a:6a:1b:ae:c3:69:fc:22:b5:d7:d2:f4:0b:6d:
         18:72:f5:64:7f:bb:80:57:e3:f3:b2:af:e1:89:47:03:19:dd:
         6f:62:ed:2b:24:d3:a2:77:c0:83:6a:fb:0f:55:93:78:15:4a:
         c1:e0:13:f2:65:9c:7a:8c:6c:98:57:f0:44:9d:3a:9e:6a:30:
         08:9f:33:ce:0d:7e:86:6f:ef:0e:34:41:b9:c6:1d:34:c6:28:
         1e:f9:81:be:68:3d:77:92:50:c5:f8:2f:4c:aa:db:5f:72:93:
         42:eb:8a:cf:24:a0:d9:25:44:46:8b:ed:de:46:d5:1a:90:e9:
         d6:d8
-----BEGIN CERTIFICATE-----
MIID6jCCA1OgAwIBAgIJAObIZH7mO5iqMA0GCSqGSIb3DQEBCwUAMIGZMQswCQYD
VQQGEwJVUzEQMA4GA1UECAwHTW9udGFuYTEQMA4GA1UEBwwHQm96ZW1hbjERMA8G
A1UECgwIU2F3dG9vdGgxGDAWBgNVBAsMD0NvbnN1bHRpbmdfMTAyNDEYMBYGA1UE
AwwPd3d3LndvbGZzc2wuY29tMR8wHQYJKoZIhvcNAQkBFhBpbmZvQHdvbGZzc2wu
Y29tMB4XDTE1MTEyMzEyNDkzN1oXDTE4MDgxOTEyNDkzN1owgZkxCzAJBgNVBAYT
AlVTMRAwDgYDVQQIDAdNb250YW5hMRAwDgYDVQQHDAdCb3plbWFuMREwDwYDVQQK
DAhTYXd0b290aDEYMBYGA1UECwwPQ29uc3VsdGluZ18xMDI0MRgwFgYDVQQDDA93
d3cud29sZnNzbC5jb20xHzAdBgkqhkiG9w0BCQEWEGluZm9Ad29sZnNzbC5jb20w
gZ8wDQYJKoZIhvcNAQEBBQADgY0AMIGJAoGBAM2s3Ufsvrckw2MbVJh54ccxFlnW
nXedjeKL7QQXssbr5JuRvjFQYpdYtX8p3rNxJAu/lwl/Jtwt7KgusmQreis1GS2i
gMuZ/ZRxGyONVNsuYo2BCC30JHInbPnJjttMdbqbAfg/GPTmf/tXlJLMiMS0AMKq
1OWIGLMRL3PA1ikJAgMBAAGjggE2MIIBMjAdBgNVHQ4EFgQU0yKPKCzgBe7T7cNx
PcmyNjodv6gwgc4GA1UdIwSBxjCBw4AU0yKPKCzgBe7T7cNxPcmyNjodv6ihgZ+k
gZwwgZkxCzAJBgNVBAYTAlVTMRAwDgYDVQQIDAdNb250YW5hMRAwDgYDVQQHDAdC
b3plbWFuMREwDwYDVQQKDAhTYXd0b290aDEYMBYGA1UECwwPQ29uc3VsdGluZ18x
MDI0MRgwFgYDVQQDDA93d3cud29sZnNzbC5jb20xHzAdBgkqhkiG9w0BCQEWEGlu
Zm9Ad29sZnNzbC5jb22CCQDmyGR+5juYqjAMBgNVHRMEBTADAQH/MDIGCCsGAQUF
BwEBBCYwJDAiBggrBgEFBQcwAYYWaHR0cDovL2xvY2FsaG9zdDoyMjIyMjANBgkq
hkiG9w0BAQsFAAOBgQCCU+yJCmobrsNp/CK119L0C20YcvVkf7uAV+Pzsq/hiUcD
Gd1vYu0rJNOid8CDavsPVZN4FUrB4BPyZZx6jGyYV/BEnTqeajAInzPODX6Gb+8O
NEG5xh00xige+YG+aD13klDF+C9MqttfcpNC64rPJKDZJURGi+3eRtUakOnW2A==
-----END CERTIFICATE-----
