Certificate:
    Data:
        Version: 3 (0x2)
        Serial Number: 10323419125573214618 (0x8f4426ffb743e19a)
    Signature Algorithm: sha1WithRSAEncryption
        Issuer: C=US, ST=Montana, L=Bozeman, O=Sawtooth, OU=Consulting_1024, CN=www.wolfssl.com/emailAddress=info@wolfssl.com
        Validity
            Not Before: Sep 23 19:23:38 2015 GMT
            Not After : Jun 19 19:23:38 2018 GMT
        Subject: C=US, ST=Montana, L=Bozeman, O=Sawtooth, OU=Consulting_1024, CN=www.wolfssl.com/emailAddress=info@wolfssl.com
        Subject Public Key Info:
            Public Key Algorithm: rsaEncryption
                Public-Key: (1024 bit)
                Modulus:
                    00:cd:ac:dd:47:ec:be:b7:24:c3:63:1b:54:98:79:
                    e1:c7:31:16:59:d6:9d:77:9d:8d:e2:8b:ed:04:17:
                    b2:c6:eb:e4:9b:91:be:31:50:62:97:58:b5:7f:29:
                    de:b3:71:24:0b:bf:97:09:7f:26:dc:2d:ec:a8:2e:
                    b2:64:2b:7a:2b:35:19:2d:a2:80:cb:99:fd:94:71:
                    1b:23:8d:54:db:2e:62:8d:81:08:2d:f4:24:72:27:
                    6c:f9:c9:8e:db:4c:75:ba:9b:01:f8:3f:18:f4:e6:
                    7f:fb:57:94:92:cc:88:c4:b4:00:c2:aa:d4:e5:88:
                    18:b3:11:2f:73:c0:d6:29:09
                Exponent: 65537 (0x10001)
        X509v3 extensions:
            X509v3 Subject Key Identifier: 
                D3:22:8F:28:2C:E0:05:EE:D3:ED:C3:71:3D:C9:B2:36:3A:1D:BF:A8
            X509v3 Authority Key Identifier: 
                keyid:D3:22:8F:28:2C:E0:05:EE:D3:ED:C3:71:3D:C9:B2:36:3A:1D:BF:A8
                DirName:/C=US/ST=Montana/L=Bozeman/O=Sawtooth/OU=Consulting_1024/CN=www.wolfssl.com/emailAddress=info@wolfssl.com
                serial:8F:44:26:FF:B7:43:E1:9A

            X509v3 Basic Constraints: 
                CA:TRUE
    Signature Algorithm: sha1WithRSAEncryption
         0e:46:ac:d8:29:1d:12:12:06:0c:d3:3f:7d:58:2e:0d:11:5e:
         5d:0d:dd:17:c0:0f:aa:01:4d:a4:c4:84:81:6e:64:ae:d1:5d:
         58:cd:19:6a:74:a4:46:2f:c8:43:79:39:c0:91:4b:7c:71:ea:
         4e:63:44:66:15:41:15:de:50:82:e3:e9:d1:55:55:cc:5a:38:
         1e:3a:59:b3:0e:ee:0e:54:4d:93:e7:e0:8e:27:a5:6e:08:b8:
         6a:39:da:2d:47:62:c4:5b:89:c0:48:48:2a:d5:f0:55:74:fd:
         a6:b1:68:3c:70:a4:52:24:81:ec:4c:57:e0:e8:18:73:9d:0a:
         4d:d8
-----BEGIN CERTIFICATE-----
MIIDtTCCAx6gAwIBAgIJAI9EJv+3Q+GaMA0GCSqGSIb3DQEBBQUAMIGZMQswCQYD
VQQGEwJVUzEQMA4GA1UECAwHTW9udGFuYTEQMA4GA1UEBwwHQm96ZW1hbjERMA8G
A1UECgwIU2F3dG9vdGgxGDAWBgNVBAsMD0NvbnN1bHRpbmdfMTAyNDEYMBYGA1UE
AwwPd3d3LndvbGZzc2wuY29tMR8wHQYJKoZIhvcNAQkBFhBpbmZvQHdvbGZzc2wu
Y29tMB4XDTE1MDkyMzE5MjMzOFoXDTE4MDYxOTE5MjMzOFowgZkxCzAJBgNVBAYT
AlVTMRAwDgYDVQQIDAdNb250YW5hMRAwDgYDVQQHDAdCb3plbWFuMREwDwYDVQQK
DAhTYXd0b290aDEYMBYGA1UECwwPQ29uc3VsdGluZ18xMDI0MRgwFgYDVQQDDA93
d3cud29sZnNzbC5jb20xHzAdBgkqhkiG9w0BCQEWEGluZm9Ad29sZnNzbC5jb20w
gZ8wDQYJKoZIhvcNAQEBBQADgY0AMIGJAoGBAM2s3Ufsvrckw2MbVJh54ccxFlnW
nXedjeKL7QQXssbr5JuRvjFQYpdYtX8p3rNxJAu/lwl/Jtwt7KgusmQreis1GS2i
gMuZ/ZRxGyONVNsuYo2BCC30JHInbPnJjttMdbqbAfg/GPTmf/tXlJLMiMS0AMKq
1OWIGLMRL3PA1ikJAgMBAAGjggEBMIH+MB0GA1UdDgQWBBTTIo8oLOAF7tPtw3E9
ybI2Oh2/qDCBzgYDVR0jBIHGMIHDgBTTIo8oLOAF7tPtw3E9ybI2Oh2/qKGBn6SB
nDCBmTELMAkGA1UEBhMCVVMxEDAOBgNVBAgMB01vbnRhbmExEDAOBgNVBAcMB0Jv
emVtYW4xETAPBgNVBAoMCFNhd3Rvb3RoMRgwFgYDVQQLDA9Db25zdWx0aW5nXzEw
MjQxGDAWBgNVBAMMD3d3dy53b2xmc3NsLmNvbTEfMB0GCSqGSIb3DQEJARYQaW5m
b0B3b2xmc3NsLmNvbYIJAI9EJv+3Q+GaMAwGA1UdEwQFMAMBAf8wDQYJKoZIhvcN
AQEFBQADgYEADkas2CkdEhIGDNM/fVguDRFeXQ3dF8APqgFNpMSEgW5krtFdWM0Z
anSkRi/IQ3k5wJFLfHHqTmNEZhVBFd5QguPp0VVVzFo4HjpZsw7uDlRNk+fgjiel
bgi4ajnaLUdixFuJwEhIKtXwVXT9prFoPHCkUiSB7ExX4OgYc50KTdg=
-----END CERTIFICATE-----
