Certificate:
    Data:
        Version: 3 (0x2)
        Serial Number:
            16:7b:fe:aa:6c:be:20:b9:b5:d7:cf:f8:2c:2c:b3:e8:cf:ba:77:a7
        Signature Algorithm: sha256WithRSAEncryption
        Issuer: C=US, ST=Montana, L=Bozeman, O=Sawtooth, OU=Consulting_1024, CN=www.wolfssl.com, emailAddress=facts@wolfssl.com
        Validity
            Not Before: Jun 11 21:44:29 2026 GMT
            Not After : Mar  7 21:44:29 2029 GMT
        Subject: C=US, ST=Montana, L=Bozeman, O=Sawtooth, OU=Consulting_1024, CN=www.wolfssl.com, emailAddress=facts@wolfssl.com
        Subject Public Key Info:
            Public Key Algorithm: rsaEncryption
                Public-Key: (1024 bit)
                Modulus:
                    00:cd:ac:dd:47:ec:be:b7:24:c3:63:1b:54:98:79:
                    e1:c7:31:16:59:d6:9d:77:9d:8d:e2:8b:ed:04:17:
                    b2:c6:eb:e4:9b:91:be:31:50:62:97:58:b5:7f:29:
                    de:b3:71:24:0b:bf:97:09:7f:26:dc:2d:ec:a8:2e:
                    b2:64:2b:7a:2b:35:19:2d:a2:80:cb:99:fd:94:71:
                    1b:23:8d:54:db:2e:62:8d:81:08:2d:f4:24:72:27:
                    6c:f9:c9:8e:db:4c:75:ba:9b:01:f8:3f:18:f4:e6:
                    7f:fb:57:94:92:cc:88:c4:b4:00:c2:aa:d4:e5:88:
                    18:b3:11:2f:73:c0:d6:29:09
                Exponent: 65537 (0x10001)
        X509v3 extensions:
            X509v3 Subject Key Identifier: 
                D3:22:8F:28:2C:E0:05:EE:D3:ED:C3:71:3D:C9:B2:36:3A:1D:BF:A8
            X509v3 Authority Key Identifier: 
                keyid:D3:22:8F:28:2C:E0:05:EE:D3:ED:C3:71:3D:C9:B2:36:3A:1D:BF:A8
                DirName:/C=US/ST=Montana/L=Bozeman/O=Sawtooth/OU=Consulting_1024/CN=www.wolfssl.com/emailAddress=facts@wolfssl.com
                serial:16:7B:FE:AA:6C:BE:20:B9:B5:D7:CF:F8:2C:2C:B3:E8:CF:BA:77:A7
            X509v3 Basic Constraints: 
                CA:TRUE
            X509v3 Subject Alternative Name: 
                DNS:example.com, IP Address:127.0.0.1
            X509v3 Extended Key Usage: 
                TLS Web Server Authentication, TLS Web Client Authentication
    Signature Algorithm: sha256WithRSAEncryption
    Signature Value:
        71:d3:a0:f2:13:f9:b4:c0:4e:95:f6:81:42:74:aa:2e:f8:a2:
        59:1e:35:0e:d7:cf:9b:3a:92:8d:29:fe:7a:bf:20:87:86:af:
        0a:c9:c8:33:30:59:21:b2:32:39:fb:5b:8b:68:18:1e:a1:72:
        25:9f:e4:3d:ca:78:9c:43:1a:01:cc:57:8e:e0:71:a7:a5:ef:
        bc:90:32:a1:1f:8e:d5:f8:4b:53:0b:e1:af:c1:19:01:d3:bc:
        50:30:8a:7f:14:8b:7b:23:0e:da:cb:5f:b1:30:de:3c:a1:1a:
        ee:cc:b9:01:f2:18:3e:22:33:dc:8c:c6:f2:4a:72:ae:90:77:
        c7:4f
-----BEGIN CERTIFICATE-----
MIIEDDCCA3WgAwIBAgIUFnv+qmy+ILm118/4LCyz6M+6d6cwDQYJKoZIhvcNAQEL
BQAwgZoxCzAJBgNVBAYTAlVTMRAwDgYDVQQIDAdNb250YW5hMRAwDgYDVQQHDAdC
b3plbWFuMREwDwYDVQQKDAhTYXd0b290aDEYMBYGA1UECwwPQ29uc3VsdGluZ18x
MDI0MRgwFgYDVQQDDA93d3cud29sZnNzbC5jb20xIDAeBgkqhkiG9w0BCQEWEWZh
Y3RzQHdvbGZzc2wuY29tMB4XDTI2MDYxMTIxNDQyOVoXDTI5MDMwNzIxNDQyOVow
gZoxCzAJBgNVBAYTAlVTMRAwDgYDVQQIDAdNb250YW5hMRAwDgYDVQQHDAdCb3pl
bWFuMREwDwYDVQQKDAhTYXd0b290aDEYMBYGA1UECwwPQ29uc3VsdGluZ18xMDI0
MRgwFgYDVQQDDA93d3cud29sZnNzbC5jb20xIDAeBgkqhkiG9w0BCQEWEWZhY3Rz
QHdvbGZzc2wuY29tMIGfMA0GCSqGSIb3DQEBAQUAA4GNADCBiQKBgQDNrN1H7L63
JMNjG1SYeeHHMRZZ1p13nY3ii+0EF7LG6+Sbkb4xUGKXWLV/Kd6zcSQLv5cJfybc
LeyoLrJkK3orNRktooDLmf2UcRsjjVTbLmKNgQgt9CRyJ2z5yY7bTHW6mwH4Pxj0
5n/7V5SSzIjEtADCqtTliBizES9zwNYpCQIDAQABo4IBSzCCAUcwHQYDVR0OBBYE
FNMijygs4AXu0+3DcT3JsjY6Hb+oMIHaBgNVHSMEgdIwgc+AFNMijygs4AXu0+3D
cT3JsjY6Hb+ooYGgpIGdMIGaMQswCQYDVQQGEwJVUzEQMA4GA1UECAwHTW9udGFu
YTEQMA4GA1UEBwwHQm96ZW1hbjERMA8GA1UECgwIU2F3dG9vdGgxGDAWBgNVBAsM
D0NvbnN1bHRpbmdfMTAyNDEYMBYGA1UEAwwPd3d3LndvbGZzc2wuY29tMSAwHgYJ
KoZIhvcNAQkBFhFmYWN0c0B3b2xmc3NsLmNvbYIUFnv+qmy+ILm118/4LCyz6M+6
d6cwDAYDVR0TBAUwAwEB/zAcBgNVHREEFTATggtleGFtcGxlLmNvbYcEfwAAATAd
BgNVHSUEFjAUBggrBgEFBQcDAQYIKwYBBQUHAwIwDQYJKoZIhvcNAQELBQADgYEA
cdOg8hP5tMBOlfaBQnSqLviiWR41DtfPmzqSjSn+er8gh4avCsnIMzBZIbIyOftb
i2gYHqFyJZ/kPcp4nEMaAcxXjuBxp6XvvJAyoR+O1fhLUwvhr8EZAdO8UDCKfxSL
eyMO2stfsTDePKEa7sy5AfIYPiIz3IzG8kpyrpB3x08=
-----END CERTIFICATE-----
