Certificate:
    Data:
        Version: 3 (0x2)
        Serial Number:
            28:91:57:80:6f:78:1e:99:86:3b:fd:1b:95:fc:06:e2:1d:62:b2:14
        Signature Algorithm: sha256WithRSAEncryption
        Issuer: C = US, ST = Montana, L = Bozeman, O = Sawtooth, OU = Consulting_1024, CN = www.wolfssl.com, emailAddress = info@wolfssl.com
        Validity
            Not Before: Dec 20 23:07:25 2021 GMT
            Not After : Sep 15 23:07:25 2024 GMT
        Subject: C = US, ST = Montana, L = Bozeman, O = Sawtooth, OU = Consulting_1024, CN = www.wolfssl.com, emailAddress = info@wolfssl.com
        Subject Public Key Info:
            Public Key Algorithm: rsaEncryption
                RSA Public-Key: (1024 bit)
                Modulus:
                    00:cd:ac:dd:47:ec:be:b7:24:c3:63:1b:54:98:79:
                    e1:c7:31:16:59:d6:9d:77:9d:8d:e2:8b:ed:04:17:
                    b2:c6:eb:e4:9b:91:be:31:50:62:97:58:b5:7f:29:
                    de:b3:71:24:0b:bf:97:09:7f:26:dc:2d:ec:a8:2e:
                    b2:64:2b:7a:2b:35:19:2d:a2:80:cb:99:fd:94:71:
                    1b:23:8d:54:db:2e:62:8d:81:08:2d:f4:24:72:27:
                    6c:f9:c9:8e:db:4c:75:ba:9b:01:f8:3f:18:f4:e6:
                    7f:fb:57:94:92:cc:88:c4:b4:00:c2:aa:d4:e5:88:
                    18:b3:11:2f:73:c0:d6:29:09
                Exponent: 65537 (0x10001)
        X509v3 extensions:
            X509v3 Subject Key Identifier: 
                D3:22:8F:28:2C:E0:05:EE:D3:ED:C3:71:3D:C9:B2:36:3A:1D:BF:A8
            X509v3 Authority Key Identifier: 
                keyid:D3:22:8F:28:2C:E0:05:EE:D3:ED:C3:71:3D:C9:B2:36:3A:1D:BF:A8
                DirName:/C=US/ST=Montana/L=Bozeman/O=Sawtooth/OU=Consulting_1024/CN=www.wolfssl.com/emailAddress=info@wolfssl.com
                serial:28:91:57:80:6F:78:1E:99:86:3B:FD:1B:95:FC:06:E2:1D:62:B2:14

            X509v3 Basic Constraints: 
                CA:TRUE
            X509v3 Subject Alternative Name: 
                DNS:example.com, IP Address:127.0.0.1
            X509v3 Extended Key Usage: 
                TLS Web Server Authentication, TLS Web Client Authentication
    Signature Algorithm: sha256WithRSAEncryption
         0e:9f:a6:c0:6f:cf:a4:5f:ec:4a:18:4d:67:1a:8e:37:cc:9d:
         97:dc:31:9c:d8:c5:08:70:fc:55:67:24:3f:ef:47:80:03:54:
         5e:6c:91:fa:ba:71:1f:12:91:8f:f9:51:df:51:cd:ff:59:bc:
         ed:b7:ac:e3:7c:53:48:73:cd:85:88:f2:23:aa:a9:6c:09:30:
         6a:7b:a2:66:2e:1a:ad:12:5e:a8:ef:1e:a9:3f:f0:f9:44:64:
         24:1e:0e:80:92:20:37:f9:e2:4f:d6:65:e3:ba:b3:55:99:ad:
         0e:ca:7a:4c:3d:42:f6:7f:c7:23:6a:15:ae:b2:88:6e:45:a0:
         a8:8e
-----BEGIN CERTIFICATE-----
MIIECTCCA3KgAwIBAgIUKJFXgG94HpmGO/0blfwG4h1ishQwDQYJKoZIhvcNAQEL
BQAwgZkxCzAJBgNVBAYTAlVTMRAwDgYDVQQIDAdNb250YW5hMRAwDgYDVQQHDAdC
b3plbWFuMREwDwYDVQQKDAhTYXd0b290aDEYMBYGA1UECwwPQ29uc3VsdGluZ18x
MDI0MRgwFgYDVQQDDA93d3cud29sZnNzbC5jb20xHzAdBgkqhkiG9w0BCQEWEGlu
Zm9Ad29sZnNzbC5jb20wHhcNMjExMjIwMjMwNzI1WhcNMjQwOTE1MjMwNzI1WjCB
mTELMAkGA1UEBhMCVVMxEDAOBgNVBAgMB01vbnRhbmExEDAOBgNVBAcMB0JvemVt
YW4xETAPBgNVBAoMCFNhd3Rvb3RoMRgwFgYDVQQLDA9Db25zdWx0aW5nXzEwMjQx
GDAWBgNVBAMMD3d3dy53b2xmc3NsLmNvbTEfMB0GCSqGSIb3DQEJARYQaW5mb0B3
b2xmc3NsLmNvbTCBnzANBgkqhkiG9w0BAQEFAAOBjQAwgYkCgYEAzazdR+y+tyTD
YxtUmHnhxzEWWdadd52N4ovtBBeyxuvkm5G+MVBil1i1fynes3EkC7+XCX8m3C3s
qC6yZCt6KzUZLaKAy5n9lHEbI41U2y5ijYEILfQkcids+cmO20x1upsB+D8Y9OZ/
+1eUksyIxLQAwqrU5YgYsxEvc8DWKQkCAwEAAaOCAUowggFGMB0GA1UdDgQWBBTT
Io8oLOAF7tPtw3E9ybI2Oh2/qDCB2QYDVR0jBIHRMIHOgBTTIo8oLOAF7tPtw3E9
ybI2Oh2/qKGBn6SBnDCBmTELMAkGA1UEBhMCVVMxEDAOBgNVBAgMB01vbnRhbmEx
EDAOBgNVBAcMB0JvemVtYW4xETAPBgNVBAoMCFNhd3Rvb3RoMRgwFgYDVQQLDA9D
b25zdWx0aW5nXzEwMjQxGDAWBgNVBAMMD3d3dy53b2xmc3NsLmNvbTEfMB0GCSqG
SIb3DQEJARYQaW5mb0B3b2xmc3NsLmNvbYIUKJFXgG94HpmGO/0blfwG4h1ishQw
DAYDVR0TBAUwAwEB/zAcBgNVHREEFTATggtleGFtcGxlLmNvbYcEfwAAATAdBgNV
HSUEFjAUBggrBgEFBQcDAQYIKwYBBQUHAwIwDQYJKoZIhvcNAQELBQADgYEADp+m
wG/PpF/sShhNZxqON8ydl9wxnNjFCHD8VWckP+9HgANUXmyR+rpxHxKRj/lR31HN
/1m87bes43xTSHPNhYjyI6qpbAkwanuiZi4arRJeqO8eqT/w+URkJB4OgJIgN/ni
T9Zl47qzVZmtDsp6TD1C9n/HI2oVrrKIbkWgqI4=
-----END CERTIFICATE-----
