Certificate:
    Data:
        Version: 3 (0x2)
        Serial Number:
            61:8c:af:82:14:94:51:c0:98:d3:a8:3b:a3:90:85:20:97:ba:62:18
        Signature Algorithm: sha256WithRSAEncryption
        Issuer: C = US, ST = Montana, L = Bozeman, O = wolfSSL_1024, OU = Programming-1024, CN = www.wolfssl.com, emailAddress = info@wolfssl.com
        Validity
            Not Before: Dec 20 23:07:24 2021 GMT
            Not After : Sep 15 23:07:24 2024 GMT
        Subject: C = US, ST = Montana, L = Bozeman, O = wolfSSL_1024, OU = Programming-1024, CN = www.wolfssl.com, emailAddress = info@wolfssl.com
        Subject Public Key Info:
            Public Key Algorithm: rsaEncryption
                RSA Public-Key: (1024 bit)
                Modulus:
                    00:bc:73:0e:a8:49:f3:74:a2:a9:ef:18:a5:da:55:
                    99:21:f9:c8:ec:b3:6d:48:e5:35:35:75:77:37:ec:
                    d1:61:90:5f:3e:d9:e4:d5:df:94:ca:c1:a9:d7:19:
                    da:86:c9:e8:4d:c4:61:36:82:fe:ab:ad:7e:77:25:
                    bb:8d:11:a5:bc:62:3a:a8:38:cc:39:a2:04:66:b4:
                    f7:f7:f3:aa:da:4d:02:0e:bb:5e:8d:69:48:dc:77:
                    c9:28:0e:22:e9:6b:a4:26:ba:4c:e8:c1:fd:4a:6f:
                    2b:1f:ef:8a:ae:f6:90:62:e5:64:1e:eb:2b:3c:67:
                    c8:dc:27:00:f6:91:68:65:a9
                Exponent: 65537 (0x10001)
        X509v3 extensions:
            X509v3 Subject Key Identifier: 
                81:69:0F:F8:DF:DD:CF:34:29:D5:67:75:71:85:C7:75:10:69:59:EC
            X509v3 Authority Key Identifier: 
                keyid:81:69:0F:F8:DF:DD:CF:34:29:D5:67:75:71:85:C7:75:10:69:59:EC
                DirName:/C=US/ST=Montana/L=Bozeman/O=wolfSSL_1024/OU=Programming-1024/CN=www.wolfssl.com/emailAddress=info@wolfssl.com
                serial:61:8C:AF:82:14:94:51:C0:98:D3:A8:3B:A3:90:85:20:97:BA:62:18

            X509v3 Basic Constraints: 
                CA:TRUE
            X509v3 Subject Alternative Name: 
                DNS:example.com, IP Address:127.0.0.1
            X509v3 Extended Key Usage: 
                TLS Web Server Authentication, TLS Web Client Authentication
    Signature Algorithm: sha256WithRSAEncryption
         a4:2f:c5:53:22:35:f9:c3:21:b9:85:3b:7d:a4:8e:a0:f3:9c:
         2b:2a:e3:35:7a:62:4f:1c:73:61:f6:fe:85:05:af:55:17:c0:
         13:ea:4d:8e:0b:20:dd:29:7c:fc:48:9b:47:3d:6e:05:f9:9f:
         1f:fc:70:af:0a:5c:30:58:6e:4d:51:2d:93:de:7e:1b:10:b2:
         ed:a2:5e:be:a1:8c:69:60:37:e8:b0:c9:35:4f:4e:2a:cd:9e:
         e9:de:35:f0:85:98:41:c9:39:64:0e:52:21:6e:45:df:58:e9:
         e0:95:51:22:4d:e1:ee:e5:58:57:7b:71:89:31:89:5f:e0:84:
         db:4b
-----BEGIN CERTIFICATE-----
MIIEGDCCA4GgAwIBAgIUYYyvghSUUcCY06g7o5CFIJe6YhgwDQYJKoZIhvcNAQEL
BQAwgZ4xCzAJBgNVBAYTAlVTMRAwDgYDVQQIDAdNb250YW5hMRAwDgYDVQQHDAdC
b3plbWFuMRUwEwYDVQQKDAx3b2xmU1NMXzEwMjQxGTAXBgNVBAsMEFByb2dyYW1t
aW5nLTEwMjQxGDAWBgNVBAMMD3d3dy53b2xmc3NsLmNvbTEfMB0GCSqGSIb3DQEJ
ARYQaW5mb0B3b2xmc3NsLmNvbTAeFw0yMTEyMjAyMzA3MjRaFw0yNDA5MTUyMzA3
MjRaMIGeMQswCQYDVQQGEwJVUzEQMA4GA1UECAwHTW9udGFuYTEQMA4GA1UEBwwH
Qm96ZW1hbjEVMBMGA1UECgwMd29sZlNTTF8xMDI0MRkwFwYDVQQLDBBQcm9ncmFt
bWluZy0xMDI0MRgwFgYDVQQDDA93d3cud29sZnNzbC5jb20xHzAdBgkqhkiG9w0B
CQEWEGluZm9Ad29sZnNzbC5jb20wgZ8wDQYJKoZIhvcNAQEBBQADgY0AMIGJAoGB
ALxzDqhJ83Siqe8YpdpVmSH5yOyzbUjlNTV1dzfs0WGQXz7Z5NXflMrBqdcZ2obJ
6E3EYTaC/qutfnclu40RpbxiOqg4zDmiBGa09/fzqtpNAg67Xo1pSNx3ySgOIulr
pCa6TOjB/UpvKx/viq72kGLlZB7rKzxnyNwnAPaRaGWpAgMBAAGjggFPMIIBSzAd
BgNVHQ4EFgQUgWkP+N/dzzQp1Wd1cYXHdRBpWewwgd4GA1UdIwSB1jCB04AUgWkP
+N/dzzQp1Wd1cYXHdRBpWeyhgaSkgaEwgZ4xCzAJBgNVBAYTAlVTMRAwDgYDVQQI
DAdNb250YW5hMRAwDgYDVQQHDAdCb3plbWFuMRUwEwYDVQQKDAx3b2xmU1NMXzEw
MjQxGTAXBgNVBAsMEFByb2dyYW1taW5nLTEwMjQxGDAWBgNVBAMMD3d3dy53b2xm
c3NsLmNvbTEfMB0GCSqGSIb3DQEJARYQaW5mb0B3b2xmc3NsLmNvbYIUYYyvghSU
UcCY06g7o5CFIJe6YhgwDAYDVR0TBAUwAwEB/zAcBgNVHREEFTATggtleGFtcGxl
LmNvbYcEfwAAATAdBgNVHSUEFjAUBggrBgEFBQcDAQYIKwYBBQUHAwIwDQYJKoZI
hvcNAQELBQADgYEApC/FUyI1+cMhuYU7faSOoPOcKyrjNXpiTxxzYfb+hQWvVRfA
E+pNjgsg3Sl8/EibRz1uBfmfH/xwrwpcMFhuTVEtk95+GxCy7aJevqGMaWA36LDJ
NU9OKs2e6d418IWYQck5ZA5SIW5F31jp4JVRIk3h7uVYV3txiTGJX+CE20s=
-----END CERTIFICATE-----
