Certificate:
    Data:
        Version: 3 (0x2)
        Serial Number: 14202541924425994169 (0xc51990a1c9010fb9)
    Signature Algorithm: sha256WithRSAEncryption
        Issuer: C=US, ST=Montana, L=Bozeman, O=wolfSSL_1024, OU=Programming-1024, CN=www.wolfssl.com/emailAddress=info@wolfssl.com
        Validity
            Not Before: Feb 10 19:49:52 2021 GMT
            Not After : Nov  7 19:49:52 2023 GMT
        Subject: C=US, ST=Montana, L=Bozeman, O=wolfSSL_1024, OU=Programming-1024, CN=www.wolfssl.com/emailAddress=info@wolfssl.com
        Subject Public Key Info:
            Public Key Algorithm: rsaEncryption
                Public-Key: (1024 bit)
                Modulus:
                    00:bc:73:0e:a8:49:f3:74:a2:a9:ef:18:a5:da:55:
                    99:21:f9:c8:ec:b3:6d:48:e5:35:35:75:77:37:ec:
                    d1:61:90:5f:3e:d9:e4:d5:df:94:ca:c1:a9:d7:19:
                    da:86:c9:e8:4d:c4:61:36:82:fe:ab:ad:7e:77:25:
                    bb:8d:11:a5:bc:62:3a:a8:38:cc:39:a2:04:66:b4:
                    f7:f7:f3:aa:da:4d:02:0e:bb:5e:8d:69:48:dc:77:
                    c9:28:0e:22:e9:6b:a4:26:ba:4c:e8:c1:fd:4a:6f:
                    2b:1f:ef:8a:ae:f6:90:62:e5:64:1e:eb:2b:3c:67:
                    c8:dc:27:00:f6:91:68:65:a9
                Exponent: 65537 (0x10001)
        X509v3 extensions:
            X509v3 Subject Key Identifier: 
                81:69:0F:F8:DF:DD:CF:34:29:D5:67:75:71:85:C7:75:10:69:59:EC
            X509v3 Authority Key Identifier: 
                keyid:81:69:0F:F8:DF:DD:CF:34:29:D5:67:75:71:85:C7:75:10:69:59:EC
                DirName:/C=US/ST=Montana/L=Bozeman/O=wolfSSL_1024/OU=Programming-1024/CN=www.wolfssl.com/emailAddress=info@wolfssl.com
                serial:C5:19:90:A1:C9:01:0F:B9

            X509v3 Basic Constraints: 
                CA:TRUE
            X509v3 Subject Alternative Name: 
                DNS:example.com, IP Address:127.0.0.1
            X509v3 Extended Key Usage: 
                TLS Web Server Authentication, TLS Web Client Authentication
    Signature Algorithm: sha256WithRSAEncryption
         30:ce:46:43:6d:70:e1:6d:bb:8f:4a:05:64:f7:2c:8d:0e:d6:
         f9:1e:b6:2a:8e:ed:52:e1:7c:44:bf:59:54:da:2d:31:4d:e6:
         79:d2:d0:d8:b4:cf:5b:16:0a:16:a1:be:62:9f:6c:24:46:7b:
         b8:dd:b8:8d:7f:fe:f1:ac:62:94:e0:34:ce:4c:59:3a:c5:5a:
         e6:40:d5:60:7e:20:5d:ed:43:92:d3:f3:ea:e0:d1:57:c8:ce:
         41:79:db:81:41:c6:f0:0e:35:d4:6f:92:58:2d:d6:b2:ec:f1:
         88:ff:6d:ca:63:d6:4a:8d:10:a6:23:06:77:9a:d5:ab:9d:64:
         46:02
-----BEGIN CERTIFICATE-----
MIIEAjCCA2ugAwIBAgIJAMUZkKHJAQ+5MA0GCSqGSIb3DQEBCwUAMIGeMQswCQYD
VQQGEwJVUzEQMA4GA1UECAwHTW9udGFuYTEQMA4GA1UEBwwHQm96ZW1hbjEVMBMG
A1UECgwMd29sZlNTTF8xMDI0MRkwFwYDVQQLDBBQcm9ncmFtbWluZy0xMDI0MRgw
FgYDVQQDDA93d3cud29sZnNzbC5jb20xHzAdBgkqhkiG9w0BCQEWEGluZm9Ad29s
ZnNzbC5jb20wHhcNMjEwMjEwMTk0OTUyWhcNMjMxMTA3MTk0OTUyWjCBnjELMAkG
A1UEBhMCVVMxEDAOBgNVBAgMB01vbnRhbmExEDAOBgNVBAcMB0JvemVtYW4xFTAT
BgNVBAoMDHdvbGZTU0xfMTAyNDEZMBcGA1UECwwQUHJvZ3JhbW1pbmctMTAyNDEY
MBYGA1UEAwwPd3d3LndvbGZzc2wuY29tMR8wHQYJKoZIhvcNAQkBFhBpbmZvQHdv
bGZzc2wuY29tMIGfMA0GCSqGSIb3DQEBAQUAA4GNADCBiQKBgQC8cw6oSfN0oqnv
GKXaVZkh+cjss21I5TU1dXc37NFhkF8+2eTV35TKwanXGdqGyehNxGE2gv6rrX53
JbuNEaW8YjqoOMw5ogRmtPf386raTQIOu16NaUjcd8koDiLpa6Qmukzowf1Kbysf
74qu9pBi5WQe6ys8Z8jcJwD2kWhlqQIDAQABo4IBRDCCAUAwHQYDVR0OBBYEFIFp
D/jf3c80KdVndXGFx3UQaVnsMIHTBgNVHSMEgcswgciAFIFpD/jf3c80KdVndXGF
x3UQaVnsoYGkpIGhMIGeMQswCQYDVQQGEwJVUzEQMA4GA1UECAwHTW9udGFuYTEQ
MA4GA1UEBwwHQm96ZW1hbjEVMBMGA1UECgwMd29sZlNTTF8xMDI0MRkwFwYDVQQL
DBBQcm9ncmFtbWluZy0xMDI0MRgwFgYDVQQDDA93d3cud29sZnNzbC5jb20xHzAd
BgkqhkiG9w0BCQEWEGluZm9Ad29sZnNzbC5jb22CCQDFGZChyQEPuTAMBgNVHRME
BTADAQH/MBwGA1UdEQQVMBOCC2V4YW1wbGUuY29thwR/AAABMB0GA1UdJQQWMBQG
CCsGAQUFBwMBBggrBgEFBQcDAjANBgkqhkiG9w0BAQsFAAOBgQAwzkZDbXDhbbuP
SgVk9yyNDtb5HrYqju1S4XxEv1lU2i0xTeZ50tDYtM9bFgoWob5in2wkRnu43biN
f/7xrGKU4DTOTFk6xVrmQNVgfiBd7UOS0/Pq4NFXyM5BeduBQcbwDjXUb5JYLday
7PGI/23KY9ZKjRCmIwZ3mtWrnWRGAg==
-----END CERTIFICATE-----
