Certificate:
    Data:
        Version: 3 (0x2)
        Serial Number:
            b1:21:19:7d:16:7a:6d:e5
    Signature Algorithm: sha256WithRSAEncryption
        Issuer: C=US, ST=Montana, L=Bozeman, O=wolfSSL_1024, OU=Programming-1024, CN=www.wolfssl.com/emailAddress=info@wolfssl.com
        Validity
            Not Before: Jul 25 18:56:34 2016 GMT
            Not After : Apr 21 18:56:34 2019 GMT
        Subject: C=US, ST=Montana, L=Bozeman, O=wolfSSL_1024, OU=Programming-1024, CN=www.wolfssl.com/emailAddress=info@wolfssl.com
        Subject Public Key Info:
            Public Key Algorithm: rsaEncryption
                Public-Key: (1024 bit)
                Modulus:
                    00:bc:73:0e:a8:49:f3:74:a2:a9:ef:18:a5:da:55:
                    99:21:f9:c8:ec:b3:6d:48:e5:35:35:75:77:37:ec:
                    d1:61:90:5f:3e:d9:e4:d5:df:94:ca:c1:a9:d7:19:
                    da:86:c9:e8:4d:c4:61:36:82:fe:ab:ad:7e:77:25:
                    bb:8d:11:a5:bc:62:3a:a8:38:cc:39:a2:04:66:b4:
                    f7:f7:f3:aa:da:4d:02:0e:bb:5e:8d:69:48:dc:77:
                    c9:28:0e:22:e9:6b:a4:26:ba:4c:e8:c1:fd:4a:6f:
                    2b:1f:ef:8a:ae:f6:90:62:e5:64:1e:eb:2b:3c:67:
                    c8:dc:27:00:f6:91:68:65:a9
                Exponent: 65537 (0x10001)
        X509v3 extensions:
            X509v3 Subject Key Identifier: 
                81:69:0F:F8:DF:DD:CF:34:29:D5:67:75:71:85:C7:75:10:69:59:EC
            X509v3 Authority Key Identifier: 
                keyid:81:69:0F:F8:DF:DD:CF:34:29:D5:67:75:71:85:C7:75:10:69:59:EC
                DirName:/C=US/ST=Montana/L=Bozeman/O=wolfSSL_1024/OU=Programming-1024/CN=www.wolfssl.com/emailAddress=info@wolfssl.com
                serial:B1:21:19:7D:16:7A:6D:E5

            X509v3 Basic Constraints: 
                CA:TRUE
    Signature Algorithm: sha256WithRSAEncryption
         18:ad:2f:70:0b:3b:01:d1:85:e9:5f:be:f6:89:44:9d:06:36:
         9d:e1:57:7d:73:02:10:bc:5a:8e:94:15:78:35:d4:98:2e:f9:
         ae:df:67:97:6c:f6:89:e7:6e:e7:fb:a2:97:c7:71:a3:d9:03:
         68:d2:a1:5b:5a:5b:f7:f3:78:23:fc:ac:71:6f:0b:96:de:e6:
         71:9f:90:fd:2a:f9:98:39:ff:87:6a:d2:17:2a:af:e4:d2:b5:
         2c:90:fb:cc:76:c0:05:65:09:97:a3:e8:30:7a:75:5f:b9:5d:
         5e:c5:c5:ad:aa:66:36:26:d9:67:79:1e:1b:99:d6:f5:aa:d7:
         ee:61
-----BEGIN CERTIFICATE-----
MIIDxTCCAy6gAwIBAgIJALEhGX0Wem3lMA0GCSqGSIb3DQEBCwUAMIGeMQswCQYD
VQQGEwJVUzEQMA4GA1UECAwHTW9udGFuYTEQMA4GA1UEBwwHQm96ZW1hbjEVMBMG
A1UECgwMd29sZlNTTF8xMDI0MRkwFwYDVQQLDBBQcm9ncmFtbWluZy0xMDI0MRgw
FgYDVQQDDA93d3cud29sZnNzbC5jb20xHzAdBgkqhkiG9w0BCQEWEGluZm9Ad29s
ZnNzbC5jb20wHhcNMTYwNzI1MTg1NjM0WhcNMTkwNDIxMTg1NjM0WjCBnjELMAkG
A1UEBhMCVVMxEDAOBgNVBAgMB01vbnRhbmExEDAOBgNVBAcMB0JvemVtYW4xFTAT
BgNVBAoMDHdvbGZTU0xfMTAyNDEZMBcGA1UECwwQUHJvZ3JhbW1pbmctMTAyNDEY
MBYGA1UEAwwPd3d3LndvbGZzc2wuY29tMR8wHQYJKoZIhvcNAQkBFhBpbmZvQHdv
bGZzc2wuY29tMIGfMA0GCSqGSIb3DQEBAQUAA4GNADCBiQKBgQC8cw6oSfN0oqnv
GKXaVZkh+cjss21I5TU1dXc37NFhkF8+2eTV35TKwanXGdqGyehNxGE2gv6rrX53
JbuNEaW8YjqoOMw5ogRmtPf386raTQIOu16NaUjcd8koDiLpa6Qmukzowf1Kbysf
74qu9pBi5WQe6ys8Z8jcJwD2kWhlqQIDAQABo4IBBzCCAQMwHQYDVR0OBBYEFIFp
D/jf3c80KdVndXGFx3UQaVnsMIHTBgNVHSMEgcswgciAFIFpD/jf3c80KdVndXGF
x3UQaVnsoYGkpIGhMIGeMQswCQYDVQQGEwJVUzEQMA4GA1UECAwHTW9udGFuYTEQ
MA4GA1UEBwwHQm96ZW1hbjEVMBMGA1UECgwMd29sZlNTTF8xMDI0MRkwFwYDVQQL
DBBQcm9ncmFtbWluZy0xMDI0MRgwFgYDVQQDDA93d3cud29sZnNzbC5jb20xHzAd
BgkqhkiG9w0BCQEWEGluZm9Ad29sZnNzbC5jb22CCQCxIRl9Fnpt5TAMBgNVHRME
BTADAQH/MA0GCSqGSIb3DQEBCwUAA4GBABitL3ALOwHRhelfvvaJRJ0GNp3hV31z
AhC8Wo6UFXg11Jgu+a7fZ5ds9onnbuf7opfHcaPZA2jSoVtaW/fzeCP8rHFvC5be
5nGfkP0q+Zg5/4dq0hcqr+TStSyQ+8x2wAVlCZej6DB6dV+5XV7Fxa2qZjYm2Wd5
HhuZ1vWq1+5h
-----END CERTIFICATE-----
