Certificate:
    Data:
        Version: 3 (0x2)
        Serial Number:
            7a:26:08:99:ac:d2:ef:f4:df:f9:4c:f6:71:db:5d:7d:26:5d:9d:a8
        Signature Algorithm: sha256WithRSAEncryption
        Issuer: C=US, ST=Montana, L=Bozeman, O=wolfSSL_1024, OU=Programming-1024, CN=www.wolfssl.com, emailAddress=facts@wolfssl.com
        Validity
            Not Before: Jun 11 21:44:28 2026 GMT
            Not After : Mar  7 21:44:28 2029 GMT
        Subject: C=US, ST=Montana, L=Bozeman, O=wolfSSL_1024, OU=Programming-1024, CN=www.wolfssl.com, emailAddress=facts@wolfssl.com
        Subject Public Key Info:
            Public Key Algorithm: rsaEncryption
                Public-Key: (1024 bit)
                Modulus:
                    00:bc:73:0e:a8:49:f3:74:a2:a9:ef:18:a5:da:55:
                    99:21:f9:c8:ec:b3:6d:48:e5:35:35:75:77:37:ec:
                    d1:61:90:5f:3e:d9:e4:d5:df:94:ca:c1:a9:d7:19:
                    da:86:c9:e8:4d:c4:61:36:82:fe:ab:ad:7e:77:25:
                    bb:8d:11:a5:bc:62:3a:a8:38:cc:39:a2:04:66:b4:
                    f7:f7:f3:aa:da:4d:02:0e:bb:5e:8d:69:48:dc:77:
                    c9:28:0e:22:e9:6b:a4:26:ba:4c:e8:c1:fd:4a:6f:
                    2b:1f:ef:8a:ae:f6:90:62:e5:64:1e:eb:2b:3c:67:
                    c8:dc:27:00:f6:91:68:65:a9
                Exponent: 65537 (0x10001)
        X509v3 extensions:
            X509v3 Subject Key Identifier: 
                81:69:0F:F8:DF:DD:CF:34:29:D5:67:75:71:85:C7:75:10:69:59:EC
            X509v3 Authority Key Identifier: 
                keyid:81:69:0F:F8:DF:DD:CF:34:29:D5:67:75:71:85:C7:75:10:69:59:EC
                DirName:/C=US/ST=Montana/L=Bozeman/O=wolfSSL_1024/OU=Programming-1024/CN=www.wolfssl.com/emailAddress=facts@wolfssl.com
                serial:7A:26:08:99:AC:D2:EF:F4:DF:F9:4C:F6:71:DB:5D:7D:26:5D:9D:A8
            X509v3 Basic Constraints: 
                CA:TRUE
            X509v3 Subject Alternative Name: 
                DNS:example.com, IP Address:127.0.0.1
            X509v3 Extended Key Usage: 
                TLS Web Server Authentication, TLS Web Client Authentication
    Signature Algorithm: sha256WithRSAEncryption
    Signature Value:
        23:27:64:9f:0a:ef:0e:05:d7:a6:ed:b2:cc:e1:cf:9f:17:52:
        66:aa:0e:f1:64:57:07:f7:48:eb:c8:bd:c5:a9:98:8b:2a:d0:
        42:b2:2d:04:9e:26:72:1c:5d:6f:62:6d:6f:5e:f5:70:d3:77:
        a7:a3:a6:a9:49:1b:84:76:89:ab:5a:d3:ef:c9:4d:24:ee:6e:
        cd:51:87:58:cf:0c:2e:d7:bf:3b:42:04:8f:01:cf:a9:89:43:
        b9:6d:3b:68:44:b1:bf:86:b6:a1:61:45:84:e2:ee:ab:4f:8b:
        74:e7:0e:56:8c:dd:5e:e6:9a:27:24:11:03:40:34:3c:7b:45:
        da:35
-----BEGIN CERTIFICATE-----
MIIEGzCCA4SgAwIBAgIUeiYImazS7/Tf+Uz2cdtdfSZdnagwDQYJKoZIhvcNAQEL
BQAwgZ8xCzAJBgNVBAYTAlVTMRAwDgYDVQQIDAdNb250YW5hMRAwDgYDVQQHDAdC
b3plbWFuMRUwEwYDVQQKDAx3b2xmU1NMXzEwMjQxGTAXBgNVBAsMEFByb2dyYW1t
aW5nLTEwMjQxGDAWBgNVBAMMD3d3dy53b2xmc3NsLmNvbTEgMB4GCSqGSIb3DQEJ
ARYRZmFjdHNAd29sZnNzbC5jb20wHhcNMjYwNjExMjE0NDI4WhcNMjkwMzA3MjE0
NDI4WjCBnzELMAkGA1UEBhMCVVMxEDAOBgNVBAgMB01vbnRhbmExEDAOBgNVBAcM
B0JvemVtYW4xFTATBgNVBAoMDHdvbGZTU0xfMTAyNDEZMBcGA1UECwwQUHJvZ3Jh
bW1pbmctMTAyNDEYMBYGA1UEAwwPd3d3LndvbGZzc2wuY29tMSAwHgYJKoZIhvcN
AQkBFhFmYWN0c0B3b2xmc3NsLmNvbTCBnzANBgkqhkiG9w0BAQEFAAOBjQAwgYkC
gYEAvHMOqEnzdKKp7xil2lWZIfnI7LNtSOU1NXV3N+zRYZBfPtnk1d+UysGp1xna
hsnoTcRhNoL+q61+dyW7jRGlvGI6qDjMOaIEZrT39/Oq2k0CDrtejWlI3HfJKA4i
6WukJrpM6MH9Sm8rH++KrvaQYuVkHusrPGfI3CcA9pFoZakCAwEAAaOCAVAwggFM
MB0GA1UdDgQWBBSBaQ/4393PNCnVZ3Vxhcd1EGlZ7DCB3wYDVR0jBIHXMIHUgBSB
aQ/4393PNCnVZ3Vxhcd1EGlZ7KGBpaSBojCBnzELMAkGA1UEBhMCVVMxEDAOBgNV
BAgMB01vbnRhbmExEDAOBgNVBAcMB0JvemVtYW4xFTATBgNVBAoMDHdvbGZTU0xf
MTAyNDEZMBcGA1UECwwQUHJvZ3JhbW1pbmctMTAyNDEYMBYGA1UEAwwPd3d3Lndv
bGZzc2wuY29tMSAwHgYJKoZIhvcNAQkBFhFmYWN0c0B3b2xmc3NsLmNvbYIUeiYI
mazS7/Tf+Uz2cdtdfSZdnagwDAYDVR0TBAUwAwEB/zAcBgNVHREEFTATggtleGFt
cGxlLmNvbYcEfwAAATAdBgNVHSUEFjAUBggrBgEFBQcDAQYIKwYBBQUHAwIwDQYJ
KoZIhvcNAQELBQADgYEAIydknwrvDgXXpu2yzOHPnxdSZqoO8WRXB/dI68i9xamY
iyrQQrItBJ4mchxdb2Jtb171cNN3p6OmqUkbhHaJq1rT78lNJO5uzVGHWM8MLte/
O0IEjwHPqYlDuW07aESxv4a2oWFFhOLuq0+LdOcOVozdXuaaJyQRA0A0PHtF2jU=
-----END CERTIFICATE-----
