Certificate:
    Data:
        Version: 3 (0x2)
        Serial Number:
            14:9b:51:15:b7:04:28:ce:13:3d:90:2b:85:bd:24:d7:a3:e9:bb:b6
        Signature Algorithm: sha256WithRSAEncryption
        Issuer: C = US, ST = Montana, L = Bozeman, O = wolfSSL_1024, OU = Programming-1024, CN = www.wolfssl.com, emailAddress = info@wolfssl.com
        Validity
            Not Before: Feb 15 12:50:24 2022 GMT
            Not After : Nov 11 12:50:24 2024 GMT
        Subject: C = US, ST = Montana, L = Bozeman, O = wolfSSL_1024, OU = Programming-1024, CN = www.wolfssl.com, emailAddress = info@wolfssl.com
        Subject Public Key Info:
            Public Key Algorithm: rsaEncryption
                RSA Public-Key: (1024 bit)
                Modulus:
                    00:bc:73:0e:a8:49:f3:74:a2:a9:ef:18:a5:da:55:
                    99:21:f9:c8:ec:b3:6d:48:e5:35:35:75:77:37:ec:
                    d1:61:90:5f:3e:d9:e4:d5:df:94:ca:c1:a9:d7:19:
                    da:86:c9:e8:4d:c4:61:36:82:fe:ab:ad:7e:77:25:
                    bb:8d:11:a5:bc:62:3a:a8:38:cc:39:a2:04:66:b4:
                    f7:f7:f3:aa:da:4d:02:0e:bb:5e:8d:69:48:dc:77:
                    c9:28:0e:22:e9:6b:a4:26:ba:4c:e8:c1:fd:4a:6f:
                    2b:1f:ef:8a:ae:f6:90:62:e5:64:1e:eb:2b:3c:67:
                    c8:dc:27:00:f6:91:68:65:a9
                Exponent: 65537 (0x10001)
        X509v3 extensions:
            X509v3 Subject Key Identifier: 
                81:69:0F:F8:DF:DD:CF:34:29:D5:67:75:71:85:C7:75:10:69:59:EC
            X509v3 Authority Key Identifier: 
                keyid:81:69:0F:F8:DF:DD:CF:34:29:D5:67:75:71:85:C7:75:10:69:59:EC
                DirName:/C=US/ST=Montana/L=Bozeman/O=wolfSSL_1024/OU=Programming-1024/CN=www.wolfssl.com/emailAddress=info@wolfssl.com
                serial:14:9B:51:15:B7:04:28:CE:13:3D:90:2B:85:BD:24:D7:A3:E9:BB:B6

            X509v3 Basic Constraints: 
                CA:TRUE
            X509v3 Subject Alternative Name: 
                DNS:example.com, IP Address:127.0.0.1
            X509v3 Extended Key Usage: 
                TLS Web Server Authentication, TLS Web Client Authentication
    Signature Algorithm: sha256WithRSAEncryption
         08:c4:3b:1a:e6:71:72:54:01:5b:9a:1f:00:a7:d2:57:6c:a1:
         61:31:b3:92:72:69:e3:a2:7c:32:88:77:40:2e:8f:64:07:45:
         f0:09:0b:e9:de:8e:a1:6f:e8:9e:f1:cc:b0:95:86:9b:b2:95:
         73:cf:ee:2c:c6:55:ae:1f:95:a8:64:4a:1d:30:3f:b6:a6:ee:
         56:49:2b:0d:06:79:27:13:77:75:61:a8:b1:50:00:b6:d9:c8:
         a7:1e:04:a0:9e:5d:17:ae:43:bd:c5:12:40:df:d2:4d:c6:98:
         bd:41:10:08:cd:6f:54:b9:d6:db:df:d2:1a:e7:a4:5f:16:f9:
         e7:22
-----BEGIN CERTIFICATE-----
MIIEGDCCA4GgAwIBAgIUFJtRFbcEKM4TPZArhb0k16Ppu7YwDQYJKoZIhvcNAQEL
BQAwgZ4xCzAJBgNVBAYTAlVTMRAwDgYDVQQIDAdNb250YW5hMRAwDgYDVQQHDAdC
b3plbWFuMRUwEwYDVQQKDAx3b2xmU1NMXzEwMjQxGTAXBgNVBAsMEFByb2dyYW1t
aW5nLTEwMjQxGDAWBgNVBAMMD3d3dy53b2xmc3NsLmNvbTEfMB0GCSqGSIb3DQEJ
ARYQaW5mb0B3b2xmc3NsLmNvbTAeFw0yMjAyMTUxMjUwMjRaFw0yNDExMTExMjUw
MjRaMIGeMQswCQYDVQQGEwJVUzEQMA4GA1UECAwHTW9udGFuYTEQMA4GA1UEBwwH
Qm96ZW1hbjEVMBMGA1UECgwMd29sZlNTTF8xMDI0MRkwFwYDVQQLDBBQcm9ncmFt
bWluZy0xMDI0MRgwFgYDVQQDDA93d3cud29sZnNzbC5jb20xHzAdBgkqhkiG9w0B
CQEWEGluZm9Ad29sZnNzbC5jb20wgZ8wDQYJKoZIhvcNAQEBBQADgY0AMIGJAoGB
ALxzDqhJ83Siqe8YpdpVmSH5yOyzbUjlNTV1dzfs0WGQXz7Z5NXflMrBqdcZ2obJ
6E3EYTaC/qutfnclu40RpbxiOqg4zDmiBGa09/fzqtpNAg67Xo1pSNx3ySgOIulr
pCa6TOjB/UpvKx/viq72kGLlZB7rKzxnyNwnAPaRaGWpAgMBAAGjggFPMIIBSzAd
BgNVHQ4EFgQUgWkP+N/dzzQp1Wd1cYXHdRBpWewwgd4GA1UdIwSB1jCB04AUgWkP
+N/dzzQp1Wd1cYXHdRBpWeyhgaSkgaEwgZ4xCzAJBgNVBAYTAlVTMRAwDgYDVQQI
DAdNb250YW5hMRAwDgYDVQQHDAdCb3plbWFuMRUwEwYDVQQKDAx3b2xmU1NMXzEw
MjQxGTAXBgNVBAsMEFByb2dyYW1taW5nLTEwMjQxGDAWBgNVBAMMD3d3dy53b2xm
c3NsLmNvbTEfMB0GCSqGSIb3DQEJARYQaW5mb0B3b2xmc3NsLmNvbYIUFJtRFbcE
KM4TPZArhb0k16Ppu7YwDAYDVR0TBAUwAwEB/zAcBgNVHREEFTATggtleGFtcGxl
LmNvbYcEfwAAATAdBgNVHSUEFjAUBggrBgEFBQcDAQYIKwYBBQUHAwIwDQYJKoZI
hvcNAQELBQADgYEACMQ7GuZxclQBW5ofAKfSV2yhYTGzknJp46J8Moh3QC6PZAdF
8AkL6d6OoW/onvHMsJWGm7KVc8/uLMZVrh+VqGRKHTA/tqbuVkkrDQZ5JxN3dWGo
sVAAttnIpx4EoJ5dF65DvcUSQN/STcaYvUEQCM1vVLnW29/SGuekXxb55yI=
-----END CERTIFICATE-----
