Certificate:
    Data:
        Version: 3 (0x2)
        Serial Number:
            4e:1e:9d:76:46:6d:c3:f9:57:88:c7:f4:98:6f:3d:ca:63:50:4f:65
        Signature Algorithm: sha256WithRSAEncryption
        Issuer: C=US, ST=Montana, L=Bozeman, O=wolfSSL_1024, OU=Programming-1024, CN=www.wolfssl.com, emailAddress=info@wolfssl.com
        Validity
            Not Before: Nov 13 20:41:10 2025 GMT
            Not After : Aug  9 20:41:10 2028 GMT
        Subject: C=US, ST=Montana, L=Bozeman, O=wolfSSL_1024, OU=Programming-1024, CN=www.wolfssl.com, emailAddress=info@wolfssl.com
        Subject Public Key Info:
            Public Key Algorithm: rsaEncryption
                Public-Key: (1024 bit)
                Modulus:
                    00:bc:73:0e:a8:49:f3:74:a2:a9:ef:18:a5:da:55:
                    99:21:f9:c8:ec:b3:6d:48:e5:35:35:75:77:37:ec:
                    d1:61:90:5f:3e:d9:e4:d5:df:94:ca:c1:a9:d7:19:
                    da:86:c9:e8:4d:c4:61:36:82:fe:ab:ad:7e:77:25:
                    bb:8d:11:a5:bc:62:3a:a8:38:cc:39:a2:04:66:b4:
                    f7:f7:f3:aa:da:4d:02:0e:bb:5e:8d:69:48:dc:77:
                    c9:28:0e:22:e9:6b:a4:26:ba:4c:e8:c1:fd:4a:6f:
                    2b:1f:ef:8a:ae:f6:90:62:e5:64:1e:eb:2b:3c:67:
                    c8:dc:27:00:f6:91:68:65:a9
                Exponent: 65537 (0x10001)
        X509v3 extensions:
            X509v3 Subject Key Identifier: 
                81:69:0F:F8:DF:DD:CF:34:29:D5:67:75:71:85:C7:75:10:69:59:EC
            X509v3 Authority Key Identifier: 
                keyid:81:69:0F:F8:DF:DD:CF:34:29:D5:67:75:71:85:C7:75:10:69:59:EC
                DirName:/C=US/ST=Montana/L=Bozeman/O=wolfSSL_1024/OU=Programming-1024/CN=www.wolfssl.com/emailAddress=info@wolfssl.com
                serial:4E:1E:9D:76:46:6D:C3:F9:57:88:C7:F4:98:6F:3D:CA:63:50:4F:65
            X509v3 Basic Constraints: 
                CA:TRUE
            X509v3 Subject Alternative Name: 
                DNS:example.com, IP Address:127.0.0.1
            X509v3 Extended Key Usage: 
                TLS Web Server Authentication, TLS Web Client Authentication
    Signature Algorithm: sha256WithRSAEncryption
    Signature Value:
        53:e1:86:58:08:ad:05:42:39:e9:47:0e:1c:47:3b:f9:33:dc:
        ef:2c:bc:99:7b:ef:f8:42:4e:6b:47:4a:17:3b:d7:72:e0:c0:
        02:fc:35:60:c2:73:78:c3:50:81:9d:91:61:4b:a3:db:ce:54:
        25:1f:ed:b4:b7:42:33:23:4e:03:25:b6:c1:7b:ba:6e:03:fb:
        7d:66:6e:95:05:e5:57:0c:85:1d:66:57:48:5d:96:02:0c:b5:
        f9:b2:f0:51:08:51:02:55:e5:ab:39:b3:ed:92:65:fd:ee:36:
        2d:4b:6b:74:8d:88:49:59:eb:86:5e:ff:df:90:19:7f:f2:e4:
        af:ca
-----BEGIN CERTIFICATE-----
MIIEGDCCA4GgAwIBAgIUTh6ddkZtw/lXiMf0mG89ymNQT2UwDQYJKoZIhvcNAQEL
BQAwgZ4xCzAJBgNVBAYTAlVTMRAwDgYDVQQIDAdNb250YW5hMRAwDgYDVQQHDAdC
b3plbWFuMRUwEwYDVQQKDAx3b2xmU1NMXzEwMjQxGTAXBgNVBAsMEFByb2dyYW1t
aW5nLTEwMjQxGDAWBgNVBAMMD3d3dy53b2xmc3NsLmNvbTEfMB0GCSqGSIb3DQEJ
ARYQaW5mb0B3b2xmc3NsLmNvbTAeFw0yNTExMTMyMDQxMTBaFw0yODA4MDkyMDQx
MTBaMIGeMQswCQYDVQQGEwJVUzEQMA4GA1UECAwHTW9udGFuYTEQMA4GA1UEBwwH
Qm96ZW1hbjEVMBMGA1UECgwMd29sZlNTTF8xMDI0MRkwFwYDVQQLDBBQcm9ncmFt
bWluZy0xMDI0MRgwFgYDVQQDDA93d3cud29sZnNzbC5jb20xHzAdBgkqhkiG9w0B
CQEWEGluZm9Ad29sZnNzbC5jb20wgZ8wDQYJKoZIhvcNAQEBBQADgY0AMIGJAoGB
ALxzDqhJ83Siqe8YpdpVmSH5yOyzbUjlNTV1dzfs0WGQXz7Z5NXflMrBqdcZ2obJ
6E3EYTaC/qutfnclu40RpbxiOqg4zDmiBGa09/fzqtpNAg67Xo1pSNx3ySgOIulr
pCa6TOjB/UpvKx/viq72kGLlZB7rKzxnyNwnAPaRaGWpAgMBAAGjggFPMIIBSzAd
BgNVHQ4EFgQUgWkP+N/dzzQp1Wd1cYXHdRBpWewwgd4GA1UdIwSB1jCB04AUgWkP
+N/dzzQp1Wd1cYXHdRBpWeyhgaSkgaEwgZ4xCzAJBgNVBAYTAlVTMRAwDgYDVQQI
DAdNb250YW5hMRAwDgYDVQQHDAdCb3plbWFuMRUwEwYDVQQKDAx3b2xmU1NMXzEw
MjQxGTAXBgNVBAsMEFByb2dyYW1taW5nLTEwMjQxGDAWBgNVBAMMD3d3dy53b2xm
c3NsLmNvbTEfMB0GCSqGSIb3DQEJARYQaW5mb0B3b2xmc3NsLmNvbYIUTh6ddkZt
w/lXiMf0mG89ymNQT2UwDAYDVR0TBAUwAwEB/zAcBgNVHREEFTATggtleGFtcGxl
LmNvbYcEfwAAATAdBgNVHSUEFjAUBggrBgEFBQcDAQYIKwYBBQUHAwIwDQYJKoZI
hvcNAQELBQADgYEAU+GGWAitBUI56UcOHEc7+TPc7yy8mXvv+EJOa0dKFzvXcuDA
Avw1YMJzeMNQgZ2RYUuj285UJR/ttLdCMyNOAyW2wXu6bgP7fWZulQXlVwyFHWZX
SF2WAgy1+bLwUQhRAlXlqzmz7ZJl/e42LUtrdI2ISVnrhl7/35AZf/Lkr8o=
-----END CERTIFICATE-----
