Certificate:
    Data:
        Version: 3 (0x2)
        Serial Number:
            58:fd:62:33:fa:e4:df:f6:55:14:85:98:3a:3c:7b:28:96:ed:08:0f
        Signature Algorithm: sha256WithRSAEncryption
        Issuer: C = US, ST = Montana, L = Bozeman, O = wolfSSL_1024, OU = Programming-1024, CN = www.wolfssl.com, emailAddress = info@wolfssl.com
        Validity
            Not Before: Sep 26 17:22:42 2023 GMT
            Not After : Jun 22 17:22:42 2026 GMT
        Subject: C = US, ST = Montana, L = Bozeman, O = wolfSSL_1024, OU = Programming-1024, CN = www.wolfssl.com, emailAddress = info@wolfssl.com
        Subject Public Key Info:
            Public Key Algorithm: rsaEncryption
                Public-Key: (1024 bit)
                Modulus:
                    00:bc:73:0e:a8:49:f3:74:a2:a9:ef:18:a5:da:55:
                    99:21:f9:c8:ec:b3:6d:48:e5:35:35:75:77:37:ec:
                    d1:61:90:5f:3e:d9:e4:d5:df:94:ca:c1:a9:d7:19:
                    da:86:c9:e8:4d:c4:61:36:82:fe:ab:ad:7e:77:25:
                    bb:8d:11:a5:bc:62:3a:a8:38:cc:39:a2:04:66:b4:
                    f7:f7:f3:aa:da:4d:02:0e:bb:5e:8d:69:48:dc:77:
                    c9:28:0e:22:e9:6b:a4:26:ba:4c:e8:c1:fd:4a:6f:
                    2b:1f:ef:8a:ae:f6:90:62:e5:64:1e:eb:2b:3c:67:
                    c8:dc:27:00:f6:91:68:65:a9
                Exponent: 65537 (0x10001)
        X509v3 extensions:
            X509v3 Subject Key Identifier: 
                81:69:0F:F8:DF:DD:CF:34:29:D5:67:75:71:85:C7:75:10:69:59:EC
            X509v3 Authority Key Identifier: 
                keyid:81:69:0F:F8:DF:DD:CF:34:29:D5:67:75:71:85:C7:75:10:69:59:EC
                DirName:/C=US/ST=Montana/L=Bozeman/O=wolfSSL_1024/OU=Programming-1024/CN=www.wolfssl.com/emailAddress=info@wolfssl.com
                serial:58:FD:62:33:FA:E4:DF:F6:55:14:85:98:3A:3C:7B:28:96:ED:08:0F
            X509v3 Basic Constraints: 
                CA:TRUE
            X509v3 Subject Alternative Name: 
                DNS:example.com, IP Address:127.0.0.1
            X509v3 Extended Key Usage: 
                TLS Web Server Authentication, TLS Web Client Authentication
    Signature Algorithm: sha256WithRSAEncryption
    Signature Value:
        af:f8:c8:b1:6d:b9:05:3c:cd:32:59:a0:05:96:1e:80:5a:4d:
        8a:42:11:f4:55:3b:67:42:e3:db:55:0f:fa:e0:9a:97:dd:3d:
        9f:5e:29:06:c7:8c:62:b4:27:84:84:d6:53:8c:94:d8:04:e3:
        e7:b2:3d:75:79:51:f2:0e:5d:39:76:8d:0d:76:0c:bd:aa:ce:
        5e:8a:3b:ed:c2:d6:82:3d:d9:ef:92:2d:1b:d7:bf:db:53:4e:
        a8:92:65:19:1d:d1:db:c5:b8:c9:42:b3:70:21:df:36:78:35:
        19:96:31:92:e6:83:ed:58:43:61:29:c4:b2:20:65:1e:b4:7f:
        9d:ff
-----BEGIN CERTIFICATE-----
MIIEGDCCA4GgAwIBAgIUWP1iM/rk3/ZVFIWYOjx7KJbtCA8wDQYJKoZIhvcNAQEL
BQAwgZ4xCzAJBgNVBAYTAlVTMRAwDgYDVQQIDAdNb250YW5hMRAwDgYDVQQHDAdC
b3plbWFuMRUwEwYDVQQKDAx3b2xmU1NMXzEwMjQxGTAXBgNVBAsMEFByb2dyYW1t
aW5nLTEwMjQxGDAWBgNVBAMMD3d3dy53b2xmc3NsLmNvbTEfMB0GCSqGSIb3DQEJ
ARYQaW5mb0B3b2xmc3NsLmNvbTAeFw0yMzA5MjYxNzIyNDJaFw0yNjA2MjIxNzIy
NDJaMIGeMQswCQYDVQQGEwJVUzEQMA4GA1UECAwHTW9udGFuYTEQMA4GA1UEBwwH
Qm96ZW1hbjEVMBMGA1UECgwMd29sZlNTTF8xMDI0MRkwFwYDVQQLDBBQcm9ncmFt
bWluZy0xMDI0MRgwFgYDVQQDDA93d3cud29sZnNzbC5jb20xHzAdBgkqhkiG9w0B
CQEWEGluZm9Ad29sZnNzbC5jb20wgZ8wDQYJKoZIhvcNAQEBBQADgY0AMIGJAoGB
ALxzDqhJ83Siqe8YpdpVmSH5yOyzbUjlNTV1dzfs0WGQXz7Z5NXflMrBqdcZ2obJ
6E3EYTaC/qutfnclu40RpbxiOqg4zDmiBGa09/fzqtpNAg67Xo1pSNx3ySgOIulr
pCa6TOjB/UpvKx/viq72kGLlZB7rKzxnyNwnAPaRaGWpAgMBAAGjggFPMIIBSzAd
BgNVHQ4EFgQUgWkP+N/dzzQp1Wd1cYXHdRBpWewwgd4GA1UdIwSB1jCB04AUgWkP
+N/dzzQp1Wd1cYXHdRBpWeyhgaSkgaEwgZ4xCzAJBgNVBAYTAlVTMRAwDgYDVQQI
DAdNb250YW5hMRAwDgYDVQQHDAdCb3plbWFuMRUwEwYDVQQKDAx3b2xmU1NMXzEw
MjQxGTAXBgNVBAsMEFByb2dyYW1taW5nLTEwMjQxGDAWBgNVBAMMD3d3dy53b2xm
c3NsLmNvbTEfMB0GCSqGSIb3DQEJARYQaW5mb0B3b2xmc3NsLmNvbYIUWP1iM/rk
3/ZVFIWYOjx7KJbtCA8wDAYDVR0TBAUwAwEB/zAcBgNVHREEFTATggtleGFtcGxl
LmNvbYcEfwAAATAdBgNVHSUEFjAUBggrBgEFBQcDAQYIKwYBBQUHAwIwDQYJKoZI
hvcNAQELBQADgYEAr/jIsW25BTzNMlmgBZYegFpNikIR9FU7Z0Lj21UP+uCal909
n14pBseMYrQnhITWU4yU2ATj57I9dXlR8g5dOXaNDXYMvarOXoo77cLWgj3Z75It
G9e/21NOqJJlGR3R28W4yUKzcCHfNng1GZYxkuaD7VhDYSnEsiBlHrR/nf8=
-----END CERTIFICATE-----
