Certificate:
    Data:
        Version: 3 (0x2)
        Serial Number:
            09:1d:03:41:8b:92:bd:2a:2a:1c:77:e0:13:a8:3d:f0:33:da:7f:72
        Signature Algorithm: sha256WithRSAEncryption
        Issuer: C = US, ST = Montana, L = Bozeman, O = wolfSSL_1024, OU = Programming-1024, CN = www.wolfssl.com, emailAddress = info@wolfssl.com
        Validity
            Not Before: Dec 18 21:25:29 2024 GMT
            Not After : Sep 14 21:25:29 2027 GMT
        Subject: C = US, ST = Montana, L = Bozeman, O = wolfSSL_1024, OU = Programming-1024, CN = www.wolfssl.com, emailAddress = info@wolfssl.com
        Subject Public Key Info:
            Public Key Algorithm: rsaEncryption
                Public-Key: (1024 bit)
                Modulus:
                    00:bc:73:0e:a8:49:f3:74:a2:a9:ef:18:a5:da:55:
                    99:21:f9:c8:ec:b3:6d:48:e5:35:35:75:77:37:ec:
                    d1:61:90:5f:3e:d9:e4:d5:df:94:ca:c1:a9:d7:19:
                    da:86:c9:e8:4d:c4:61:36:82:fe:ab:ad:7e:77:25:
                    bb:8d:11:a5:bc:62:3a:a8:38:cc:39:a2:04:66:b4:
                    f7:f7:f3:aa:da:4d:02:0e:bb:5e:8d:69:48:dc:77:
                    c9:28:0e:22:e9:6b:a4:26:ba:4c:e8:c1:fd:4a:6f:
                    2b:1f:ef:8a:ae:f6:90:62:e5:64:1e:eb:2b:3c:67:
                    c8:dc:27:00:f6:91:68:65:a9
                Exponent: 65537 (0x10001)
        X509v3 extensions:
            X509v3 Subject Key Identifier: 
                81:69:0F:F8:DF:DD:CF:34:29:D5:67:75:71:85:C7:75:10:69:59:EC
            X509v3 Authority Key Identifier: 
                keyid:81:69:0F:F8:DF:DD:CF:34:29:D5:67:75:71:85:C7:75:10:69:59:EC
                DirName:/C=US/ST=Montana/L=Bozeman/O=wolfSSL_1024/OU=Programming-1024/CN=www.wolfssl.com/emailAddress=info@wolfssl.com
                serial:09:1D:03:41:8B:92:BD:2A:2A:1C:77:E0:13:A8:3D:F0:33:DA:7F:72
            X509v3 Basic Constraints: 
                CA:TRUE
            X509v3 Subject Alternative Name: 
                DNS:example.com, IP Address:127.0.0.1
            X509v3 Extended Key Usage: 
                TLS Web Server Authentication, TLS Web Client Authentication
    Signature Algorithm: sha256WithRSAEncryption
    Signature Value:
        9a:1c:8f:c4:bd:54:da:63:a7:f8:ba:39:b6:64:60:9d:ba:a5:
        fc:43:f5:57:28:31:43:09:4c:03:4c:b8:c3:49:2b:4e:bf:f2:
        9b:13:4e:37:1e:a1:57:c6:0c:7b:2c:25:19:37:9f:06:53:ef:
        8d:d1:ba:c0:73:6e:7f:c2:0b:46:5f:9b:56:bb:59:19:5c:c9:
        ee:ea:02:da:03:2c:fb:29:b6:07:dd:55:b7:e9:ce:60:47:e0:
        6b:44:5a:61:74:5c:96:f6:30:d8:1b:a4:15:5e:06:c5:73:4b:
        8a:4d:94:23:13:1b:3f:db:67:ca:a7:a6:41:c5:28:0f:fd:2e:
        0e:f0
-----BEGIN CERTIFICATE-----
MIIEGDCCA4GgAwIBAgIUCR0DQYuSvSoqHHfgE6g98DPaf3IwDQYJKoZIhvcNAQEL
BQAwgZ4xCzAJBgNVBAYTAlVTMRAwDgYDVQQIDAdNb250YW5hMRAwDgYDVQQHDAdC
b3plbWFuMRUwEwYDVQQKDAx3b2xmU1NMXzEwMjQxGTAXBgNVBAsMEFByb2dyYW1t
aW5nLTEwMjQxGDAWBgNVBAMMD3d3dy53b2xmc3NsLmNvbTEfMB0GCSqGSIb3DQEJ
ARYQaW5mb0B3b2xmc3NsLmNvbTAeFw0yNDEyMTgyMTI1MjlaFw0yNzA5MTQyMTI1
MjlaMIGeMQswCQYDVQQGEwJVUzEQMA4GA1UECAwHTW9udGFuYTEQMA4GA1UEBwwH
Qm96ZW1hbjEVMBMGA1UECgwMd29sZlNTTF8xMDI0MRkwFwYDVQQLDBBQcm9ncmFt
bWluZy0xMDI0MRgwFgYDVQQDDA93d3cud29sZnNzbC5jb20xHzAdBgkqhkiG9w0B
CQEWEGluZm9Ad29sZnNzbC5jb20wgZ8wDQYJKoZIhvcNAQEBBQADgY0AMIGJAoGB
ALxzDqhJ83Siqe8YpdpVmSH5yOyzbUjlNTV1dzfs0WGQXz7Z5NXflMrBqdcZ2obJ
6E3EYTaC/qutfnclu40RpbxiOqg4zDmiBGa09/fzqtpNAg67Xo1pSNx3ySgOIulr
pCa6TOjB/UpvKx/viq72kGLlZB7rKzxnyNwnAPaRaGWpAgMBAAGjggFPMIIBSzAd
BgNVHQ4EFgQUgWkP+N/dzzQp1Wd1cYXHdRBpWewwgd4GA1UdIwSB1jCB04AUgWkP
+N/dzzQp1Wd1cYXHdRBpWeyhgaSkgaEwgZ4xCzAJBgNVBAYTAlVTMRAwDgYDVQQI
DAdNb250YW5hMRAwDgYDVQQHDAdCb3plbWFuMRUwEwYDVQQKDAx3b2xmU1NMXzEw
MjQxGTAXBgNVBAsMEFByb2dyYW1taW5nLTEwMjQxGDAWBgNVBAMMD3d3dy53b2xm
c3NsLmNvbTEfMB0GCSqGSIb3DQEJARYQaW5mb0B3b2xmc3NsLmNvbYIUCR0DQYuS
vSoqHHfgE6g98DPaf3IwDAYDVR0TBAUwAwEB/zAcBgNVHREEFTATggtleGFtcGxl
LmNvbYcEfwAAATAdBgNVHSUEFjAUBggrBgEFBQcDAQYIKwYBBQUHAwIwDQYJKoZI
hvcNAQELBQADgYEAmhyPxL1U2mOn+Lo5tmRgnbql/EP1VygxQwlMA0y4w0krTr/y
mxNONx6hV8YMeywlGTefBlPvjdG6wHNuf8ILRl+bVrtZGVzJ7uoC2gMs+ym2B91V
t+nOYEfga0RaYXRclvYw2BukFV4GxXNLik2UIxMbP9tnyqemQcUoD/0uDvA=
-----END CERTIFICATE-----
