Certificate:
    Data:
        Version: 3 (0x2)
        Serial Number: 16789358970865666130 (0xe8ffc907b8f74852)
    Signature Algorithm: sha1WithRSAEncryption
        Issuer: C=US, ST=Montana, L=Bozeman, O=wolfSSL, OU=Programming, CN=www.wolfssl.com/emailAddress=info@wolfssl.com
        Validity
            Not Before: Feb  5 06:33:30 2015 GMT
            Not After : Nov  1 06:33:30 2017 GMT
        Subject: C=US, ST=Montana, L=Bozeman, O=wolfSSL, OU=Programming, CN=www.wolfssl.com/emailAddress=info@wolfssl.com
        Subject Public Key Info:
            Public Key Algorithm: rsaEncryption
                Public-Key: (1024 bit)
                Modulus:
                    00:bc:73:0e:a8:49:f3:74:a2:a9:ef:18:a5:da:55:
                    99:21:f9:c8:ec:b3:6d:48:e5:35:35:75:77:37:ec:
                    d1:61:90:5f:3e:d9:e4:d5:df:94:ca:c1:a9:d7:19:
                    da:86:c9:e8:4d:c4:61:36:82:fe:ab:ad:7e:77:25:
                    bb:8d:11:a5:bc:62:3a:a8:38:cc:39:a2:04:66:b4:
                    f7:f7:f3:aa:da:4d:02:0e:bb:5e:8d:69:48:dc:77:
                    c9:28:0e:22:e9:6b:a4:26:ba:4c:e8:c1:fd:4a:6f:
                    2b:1f:ef:8a:ae:f6:90:62:e5:64:1e:eb:2b:3c:67:
                    c8:dc:27:00:f6:91:68:65:a9
                Exponent: 65537 (0x10001)
        X509v3 extensions:
            X509v3 Subject Key Identifier: 
                81:69:0F:F8:DF:DD:CF:34:29:D5:67:75:71:85:C7:75:10:69:59:EC
            X509v3 Authority Key Identifier: 
                keyid:81:69:0F:F8:DF:DD:CF:34:29:D5:67:75:71:85:C7:75:10:69:59:EC
                DirName:/C=US/ST=Montana/L=Bozeman/O=wolfSSL/OU=Programming/CN=www.wolfssl.com/emailAddress=info@wolfssl.com
                serial:E8:FF:C9:07:B8:F7:48:52

            X509v3 Basic Constraints: 
                CA:TRUE
    Signature Algorithm: sha1WithRSAEncryption
         70:be:fb:3c:29:5d:53:ba:96:bc:cb:7e:82:a9:2c:ef:ee:3b:
         f0:e8:f4:01:78:50:51:55:1b:47:9b:dc:5a:10:e6:39:84:9a:
         a1:2d:03:cc:b3:16:e9:32:26:97:3d:0f:ec:c9:4f:11:08:31:
         a3:1c:1f:37:d3:00:04:42:cc:c9:34:14:3a:e1:f2:f9:be:2e:
         bf:64:47:3e:46:95:09:a5:3b:4c:4a:7b:23:0e:3c:54:01:d4:
         55:fa:53:f0:65:6e:68:4b:cc:e3:83:5f:fe:9e:c8:e7:f6:e1:
         c8:88:bb:b9:24:f6:0a:18:20:44:cb:78:2e:77:3f:bf:22:ef:
         bc:b4
-----BEGIN CERTIFICATE-----
MIIDpTCCAw6gAwIBAgIJAOj/yQe490hSMA0GCSqGSIb3DQEBBQUAMIGUMQswCQYD
VQQGEwJVUzEQMA4GA1UECAwHTW9udGFuYTEQMA4GA1UEBwwHQm96ZW1hbjEQMA4G
A1UECgwHd29sZlNTTDEUMBIGA1UECwwLUHJvZ3JhbW1pbmcxGDAWBgNVBAMMD3d3
dy53b2xmc3NsLmNvbTEfMB0GCSqGSIb3DQEJARYQaW5mb0B3b2xmc3NsLmNvbTAe
Fw0xNTAyMDUwNjMzMzBaFw0xNzExMDEwNjMzMzBaMIGUMQswCQYDVQQGEwJVUzEQ
MA4GA1UECAwHTW9udGFuYTEQMA4GA1UEBwwHQm96ZW1hbjEQMA4GA1UECgwHd29s
ZlNTTDEUMBIGA1UECwwLUHJvZ3JhbW1pbmcxGDAWBgNVBAMMD3d3dy53b2xmc3Ns
LmNvbTEfMB0GCSqGSIb3DQEJARYQaW5mb0B3b2xmc3NsLmNvbTCBnzANBgkqhkiG
9w0BAQEFAAOBjQAwgYkCgYEAvHMOqEnzdKKp7xil2lWZIfnI7LNtSOU1NXV3N+zR
YZBfPtnk1d+UysGp1xnahsnoTcRhNoL+q61+dyW7jRGlvGI6qDjMOaIEZrT39/Oq
2k0CDrtejWlI3HfJKA4i6WukJrpM6MH9Sm8rH++KrvaQYuVkHusrPGfI3CcA9pFo
ZakCAwEAAaOB/DCB+TAdBgNVHQ4EFgQUgWkP+N/dzzQp1Wd1cYXHdRBpWewwgckG
A1UdIwSBwTCBvoAUgWkP+N/dzzQp1Wd1cYXHdRBpWeyhgZqkgZcwgZQxCzAJBgNV
BAYTAlVTMRAwDgYDVQQIDAdNb250YW5hMRAwDgYDVQQHDAdCb3plbWFuMRAwDgYD
VQQKDAd3b2xmU1NMMRQwEgYDVQQLDAtQcm9ncmFtbWluZzEYMBYGA1UEAwwPd3d3
LndvbGZzc2wuY29tMR8wHQYJKoZIhvcNAQkBFhBpbmZvQHdvbGZzc2wuY29tggkA
6P/JB7j3SFIwDAYDVR0TBAUwAwEB/zANBgkqhkiG9w0BAQUFAAOBgQBwvvs8KV1T
upa8y36CqSzv7jvw6PQBeFBRVRtHm9xaEOY5hJqhLQPMsxbpMiaXPQ/syU8RCDGj
HB830wAEQszJNBQ64fL5vi6/ZEc+RpUJpTtMSnsjDjxUAdRV+lPwZW5oS8zjg1/+
nsjn9uHIiLu5JPYKGCBEy3gudz+/Iu+8tA==
-----END CERTIFICATE-----
