Certificate:
    Data:
        Version: 3 (0x2)
        Serial Number: 1 (0x1)
    Signature Algorithm: sha256WithRSAEncryption
        Issuer: C=US, ST=Montana, L=Bozeman, O=Sawtooth, OU=Consulting_1024, CN=www.wolfssl.com/emailAddress=info@wolfssl.com
        Validity
            Not Before: Feb 10 19:49:53 2021 GMT
            Not After : Nov  7 19:49:53 2023 GMT
        Subject: C=US, ST=Montana, L=Bozeman, O=wolfSSL, OU=Support_1024, CN=www.wolfssl.com/emailAddress=info@wolfssl.com
        Subject Public Key Info:
            Public Key Algorithm: rsaEncryption
                Public-Key: (1024 bit)
                Modulus:
                    00:aa:3e:a5:9c:d3:17:49:65:43:de:d0:f3:4b:1c:
                    db:49:0c:fc:7a:65:05:6d:de:6a:c4:e4:73:2c:8a:
                    96:82:8f:23:a5:06:71:1c:06:3e:2f:92:8d:0b:29:
                    34:45:59:e9:a9:bc:61:d7:24:37:5d:b5:c4:37:8d:
                    ba:67:b2:ef:03:27:fa:c1:b4:cd:6b:00:66:b4:d6:
                    73:70:1f:08:3a:cc:77:ad:e9:f9:34:d4:f3:a0:2d:
                    a9:e7:58:a9:c0:61:84:b6:ec:3d:0a:ad:fd:5c:86:
                    73:aa:6b:47:d8:8b:2e:58:4b:69:12:82:26:55:e6:
                    14:bf:55:70:88:fe:f9:75:e1
                Exponent: 65537 (0x10001)
        X509v3 extensions:
            X509v3 Subject Key Identifier: 
                D9:3C:35:EA:74:0E:23:BE:9C:FC:FA:29:90:09:C1:E7:84:16:9F:7C
            X509v3 Authority Key Identifier: 
                keyid:D3:22:8F:28:2C:E0:05:EE:D3:ED:C3:71:3D:C9:B2:36:3A:1D:BF:A8
                DirName:/C=US/ST=Montana/L=Bozeman/O=Sawtooth/OU=Consulting_1024/CN=www.wolfssl.com/emailAddress=info@wolfssl.com
                serial:97:1D:33:11:E8:40:6E:95

            X509v3 Basic Constraints: 
                CA:TRUE
            X509v3 Subject Alternative Name: 
                DNS:example.com, IP Address:127.0.0.1
            X509v3 Extended Key Usage: 
                TLS Web Server Authentication, TLS Web Client Authentication
    Signature Algorithm: sha256WithRSAEncryption
         27:0a:4e:08:8c:ba:73:d0:05:f2:ea:f9:51:8c:7e:29:14:23:
         8e:9e:9a:fc:46:6f:10:68:59:d9:a0:ea:53:19:bd:28:89:e1:
         97:1e:4c:b8:1e:be:0f:4d:9d:1d:76:57:17:31:95:c2:80:be:
         04:d0:c2:e9:5c:e0:f4:81:3f:c4:b0:c5:86:ae:58:68:b9:ae:
         0f:88:e8:63:6f:b9:08:f1:1b:56:90:fb:1f:2e:cc:e5:69:1f:
         7c:02:4f:ed:b0:45:7c:2d:a8:59:11:a5:95:51:c7:50:d8:89:
         c2:90:63:68:a8:41:6f:d0:37:26:6f:c8:0e:b5:a0:15:9d:a5:
         e6:d2
-----BEGIN CERTIFICATE-----
MIID5zCCA1CgAwIBAgIBATANBgkqhkiG9w0BAQsFADCBmTELMAkGA1UEBhMCVVMx
EDAOBgNVBAgMB01vbnRhbmExEDAOBgNVBAcMB0JvemVtYW4xETAPBgNVBAoMCFNh
d3Rvb3RoMRgwFgYDVQQLDA9Db25zdWx0aW5nXzEwMjQxGDAWBgNVBAMMD3d3dy53
b2xmc3NsLmNvbTEfMB0GCSqGSIb3DQEJARYQaW5mb0B3b2xmc3NsLmNvbTAeFw0y
MTAyMTAxOTQ5NTNaFw0yMzExMDcxOTQ5NTNaMIGVMQswCQYDVQQGEwJVUzEQMA4G
A1UECAwHTW9udGFuYTEQMA4GA1UEBwwHQm96ZW1hbjEQMA4GA1UECgwHd29sZlNT
TDEVMBMGA1UECwwMU3VwcG9ydF8xMDI0MRgwFgYDVQQDDA93d3cud29sZnNzbC5j
b20xHzAdBgkqhkiG9w0BCQEWEGluZm9Ad29sZnNzbC5jb20wgZ8wDQYJKoZIhvcN
AQEBBQADgY0AMIGJAoGBAKo+pZzTF0llQ97Q80sc20kM/HplBW3easTkcyyKloKP
I6UGcRwGPi+SjQspNEVZ6am8YdckN121xDeNumey7wMn+sG0zWsAZrTWc3AfCDrM
d63p+TTU86AtqedYqcBhhLbsPQqt/VyGc6prR9iLLlhLaRKCJlXmFL9VcIj++XXh
AgMBAAGjggE/MIIBOzAdBgNVHQ4EFgQU2Tw16nQOI76c/PopkAnB54QWn3wwgc4G
A1UdIwSBxjCBw4AU0yKPKCzgBe7T7cNxPcmyNjodv6ihgZ+kgZwwgZkxCzAJBgNV
BAYTAlVTMRAwDgYDVQQIDAdNb250YW5hMRAwDgYDVQQHDAdCb3plbWFuMREwDwYD
VQQKDAhTYXd0b290aDEYMBYGA1UECwwPQ29uc3VsdGluZ18xMDI0MRgwFgYDVQQD
DA93d3cud29sZnNzbC5jb20xHzAdBgkqhkiG9w0BCQEWEGluZm9Ad29sZnNzbC5j
b22CCQCXHTMR6EBulTAMBgNVHRMEBTADAQH/MBwGA1UdEQQVMBOCC2V4YW1wbGUu
Y29thwR/AAABMB0GA1UdJQQWMBQGCCsGAQUFBwMBBggrBgEFBQcDAjANBgkqhkiG
9w0BAQsFAAOBgQAnCk4IjLpz0AXy6vlRjH4pFCOOnpr8Rm8QaFnZoOpTGb0oieGX
Hky4Hr4PTZ0ddlcXMZXCgL4E0MLpXOD0gT/EsMWGrlhoua4PiOhjb7kI8RtWkPsf
LszlaR98Ak/tsEV8LahZEaWVUcdQ2InCkGNoqEFv0Dcmb8gOtaAVnaXm0g==
-----END CERTIFICATE-----
Certificate:
    Data:
        Version: 3 (0x2)
        Serial Number: 10888915626055724693 (0x971d3311e8406e95)
    Signature Algorithm: sha256WithRSAEncryption
        Issuer: C=US, ST=Montana, L=Bozeman, O=Sawtooth, OU=Consulting_1024, CN=www.wolfssl.com/emailAddress=info@wolfssl.com
        Validity
            Not Before: Feb 10 19:49:53 2021 GMT
            Not After : Nov  7 19:49:53 2023 GMT
        Subject: C=US, ST=Montana, L=Bozeman, O=Sawtooth, OU=Consulting_1024, CN=www.wolfssl.com/emailAddress=info@wolfssl.com
        Subject Public Key Info:
            Public Key Algorithm: rsaEncryption
                Public-Key: (1024 bit)
                Modulus:
                    00:cd:ac:dd:47:ec:be:b7:24:c3:63:1b:54:98:79:
                    e1:c7:31:16:59:d6:9d:77:9d:8d:e2:8b:ed:04:17:
                    b2:c6:eb:e4:9b:91:be:31:50:62:97:58:b5:7f:29:
                    de:b3:71:24:0b:bf:97:09:7f:26:dc:2d:ec:a8:2e:
                    b2:64:2b:7a:2b:35:19:2d:a2:80:cb:99:fd:94:71:
                    1b:23:8d:54:db:2e:62:8d:81:08:2d:f4:24:72:27:
                    6c:f9:c9:8e:db:4c:75:ba:9b:01:f8:3f:18:f4:e6:
                    7f:fb:57:94:92:cc:88:c4:b4:00:c2:aa:d4:e5:88:
                    18:b3:11:2f:73:c0:d6:29:09
                Exponent: 65537 (0x10001)
        X509v3 extensions:
            X509v3 Subject Key Identifier: 
                D3:22:8F:28:2C:E0:05:EE:D3:ED:C3:71:3D:C9:B2:36:3A:1D:BF:A8
            X509v3 Authority Key Identifier: 
                keyid:D3:22:8F:28:2C:E0:05:EE:D3:ED:C3:71:3D:C9:B2:36:3A:1D:BF:A8
                DirName:/C=US/ST=Montana/L=Bozeman/O=Sawtooth/OU=Consulting_1024/CN=www.wolfssl.com/emailAddress=info@wolfssl.com
                serial:97:1D:33:11:E8:40:6E:95

            X509v3 Basic Constraints: 
                CA:TRUE
            X509v3 Subject Alternative Name: 
                DNS:example.com, IP Address:127.0.0.1
            X509v3 Extended Key Usage: 
                TLS Web Server Authentication, TLS Web Client Authentication
    Signature Algorithm: sha256WithRSAEncryption
         4e:b1:39:6a:23:a3:65:17:14:b6:52:2e:86:46:d5:4f:7c:d5:
         6c:bb:fa:66:b1:71:54:a1:ad:0e:a2:b7:ba:59:65:8b:d5:87:
         5d:51:d0:65:de:74:04:80:7c:da:3a:52:57:7a:1d:5d:46:7a:
         06:79:75:e5:31:dd:1d:f6:54:77:fc:40:13:a1:5b:fd:9e:7d:
         1c:fd:04:4f:7c:ee:92:a2:80:55:3c:3f:2a:1c:bd:3a:37:12:
         0e:fd:52:60:66:19:d5:4b:f6:35:50:a3:59:d3:7f:6d:95:d7:
         56:10:c6:86:28:f4:6e:6d:da:4e:1c:b4:e9:0b:4c:ed:62:0f:
         64:06
-----BEGIN CERTIFICATE-----
MIID8zCCA1ygAwIBAgIJAJcdMxHoQG6VMA0GCSqGSIb3DQEBCwUAMIGZMQswCQYD
VQQGEwJVUzEQMA4GA1UECAwHTW9udGFuYTEQMA4GA1UEBwwHQm96ZW1hbjERMA8G
A1UECgwIU2F3dG9vdGgxGDAWBgNVBAsMD0NvbnN1bHRpbmdfMTAyNDEYMBYGA1UE
AwwPd3d3LndvbGZzc2wuY29tMR8wHQYJKoZIhvcNAQkBFhBpbmZvQHdvbGZzc2wu
Y29tMB4XDTIxMDIxMDE5NDk1M1oXDTIzMTEwNzE5NDk1M1owgZkxCzAJBgNVBAYT
AlVTMRAwDgYDVQQIDAdNb250YW5hMRAwDgYDVQQHDAdCb3plbWFuMREwDwYDVQQK
DAhTYXd0b290aDEYMBYGA1UECwwPQ29uc3VsdGluZ18xMDI0MRgwFgYDVQQDDA93
d3cud29sZnNzbC5jb20xHzAdBgkqhkiG9w0BCQEWEGluZm9Ad29sZnNzbC5jb20w
gZ8wDQYJKoZIhvcNAQEBBQADgY0AMIGJAoGBAM2s3Ufsvrckw2MbVJh54ccxFlnW
nXedjeKL7QQXssbr5JuRvjFQYpdYtX8p3rNxJAu/lwl/Jtwt7KgusmQreis1GS2i
gMuZ/ZRxGyONVNsuYo2BCC30JHInbPnJjttMdbqbAfg/GPTmf/tXlJLMiMS0AMKq
1OWIGLMRL3PA1ikJAgMBAAGjggE/MIIBOzAdBgNVHQ4EFgQU0yKPKCzgBe7T7cNx
PcmyNjodv6gwgc4GA1UdIwSBxjCBw4AU0yKPKCzgBe7T7cNxPcmyNjodv6ihgZ+k
gZwwgZkxCzAJBgNVBAYTAlVTMRAwDgYDVQQIDAdNb250YW5hMRAwDgYDVQQHDAdC
b3plbWFuMREwDwYDVQQKDAhTYXd0b290aDEYMBYGA1UECwwPQ29uc3VsdGluZ18x
MDI0MRgwFgYDVQQDDA93d3cud29sZnNzbC5jb20xHzAdBgkqhkiG9w0BCQEWEGlu
Zm9Ad29sZnNzbC5jb22CCQCXHTMR6EBulTAMBgNVHRMEBTADAQH/MBwGA1UdEQQV
MBOCC2V4YW1wbGUuY29thwR/AAABMB0GA1UdJQQWMBQGCCsGAQUFBwMBBggrBgEF
BQcDAjANBgkqhkiG9w0BAQsFAAOBgQBOsTlqI6NlFxS2Ui6GRtVPfNVsu/pmsXFU
oa0Oore6WWWL1YddUdBl3nQEgHzaOlJXeh1dRnoGeXXlMd0d9lR3/EAToVv9nn0c
/QRPfO6SooBVPD8qHL06NxIO/VJgZhnVS/Y1UKNZ039tlddWEMaGKPRubdpOHLTp
C0ztYg9kBg==
-----END CERTIFICATE-----
