Certificate:
    Data:
        Version: 3 (0x2)
        Serial Number: 1 (0x1)
    Signature Algorithm: sha256WithRSAEncryption
        Issuer: C=US, ST=Montana, L=Bozeman, O=Sawtooth, OU=Consulting_1024, CN=www.wolfssl.com/emailAddress=info@wolfssl.com
        Validity
            Not Before: Nov 23 12:49:37 2015 GMT
            Not After : Aug 19 12:49:37 2018 GMT
        Subject: C=US, ST=Montana, L=Bozeman, O=wolfSSL, OU=Support_1024, CN=www.wolfssl.com/emailAddress=info@wolfssl.com
        Subject Public Key Info:
            Public Key Algorithm: rsaEncryption
                Public-Key: (1024 bit)
                Modulus:
                    00:aa:3e:a5:9c:d3:17:49:65:43:de:d0:f3:4b:1c:
                    db:49:0c:fc:7a:65:05:6d:de:6a:c4:e4:73:2c:8a:
                    96:82:8f:23:a5:06:71:1c:06:3e:2f:92:8d:0b:29:
                    34:45:59:e9:a9:bc:61:d7:24:37:5d:b5:c4:37:8d:
                    ba:67:b2:ef:03:27:fa:c1:b4:cd:6b:00:66:b4:d6:
                    73:70:1f:08:3a:cc:77:ad:e9:f9:34:d4:f3:a0:2d:
                    a9:e7:58:a9:c0:61:84:b6:ec:3d:0a:ad:fd:5c:86:
                    73:aa:6b:47:d8:8b:2e:58:4b:69:12:82:26:55:e6:
                    14:bf:55:70:88:fe:f9:75:e1
                Exponent: 65537 (0x10001)
        X509v3 extensions:
            X509v3 Subject Key Identifier: 
                D9:3C:35:EA:74:0E:23:BE:9C:FC:FA:29:90:09:C1:E7:84:16:9F:7C
            X509v3 Authority Key Identifier: 
                keyid:D3:22:8F:28:2C:E0:05:EE:D3:ED:C3:71:3D:C9:B2:36:3A:1D:BF:A8
                DirName:/C=US/ST=Montana/L=Bozeman/O=Sawtooth/OU=Consulting_1024/CN=www.wolfssl.com/emailAddress=info@wolfssl.com
                serial:E6:C8:64:7E:E6:3B:98:AA

            X509v3 Basic Constraints: 
                CA:TRUE
            Authority Information Access: 
                OCSP - URI:http://localhost:22222

    Signature Algorithm: sha256WithRSAEncryption
         cb:33:02:ab:da:33:24:83:8f:e8:2b:29:13:94:58:f2:df:69:
         69:0c:2f:79:79:4f:fc:35:fd:a5:75:59:a5:18:74:02:79:50:
         49:2e:3b:16:28:4b:b5:0f:2a:a4:e7:b9:2a:33:50:eb:c4:7c:
         b4:a2:af:8d:24:f3:27:48:58:01:ac:c0:5d:7a:90:6a:5b:f7:
         4f:d3:a5:96:24:24:96:47:2c:81:97:3c:03:1c:ad:90:c7:22:
         90:91:67:03:7f:81:51:c7:97:d7:76:85:82:66:1b:f8:03:d9:
         ae:1d:b0:a1:20:05:55:68:2b:d7:eb:92:dc:ec:cd:be:c6:c8:
         53:df
-----BEGIN CERTIFICATE-----
MIID3jCCA0egAwIBAgIBATANBgkqhkiG9w0BAQsFADCBmTELMAkGA1UEBhMCVVMx
EDAOBgNVBAgMB01vbnRhbmExEDAOBgNVBAcMB0JvemVtYW4xETAPBgNVBAoMCFNh
d3Rvb3RoMRgwFgYDVQQLDA9Db25zdWx0aW5nXzEwMjQxGDAWBgNVBAMMD3d3dy53
b2xmc3NsLmNvbTEfMB0GCSqGSIb3DQEJARYQaW5mb0B3b2xmc3NsLmNvbTAeFw0x
NTExMjMxMjQ5MzdaFw0xODA4MTkxMjQ5MzdaMIGVMQswCQYDVQQGEwJVUzEQMA4G
A1UECAwHTW9udGFuYTEQMA4GA1UEBwwHQm96ZW1hbjEQMA4GA1UECgwHd29sZlNT
TDEVMBMGA1UECwwMU3VwcG9ydF8xMDI0MRgwFgYDVQQDDA93d3cud29sZnNzbC5j
b20xHzAdBgkqhkiG9w0BCQEWEGluZm9Ad29sZnNzbC5jb20wgZ8wDQYJKoZIhvcN
AQEBBQADgY0AMIGJAoGBAKo+pZzTF0llQ97Q80sc20kM/HplBW3easTkcyyKloKP
I6UGcRwGPi+SjQspNEVZ6am8YdckN121xDeNumey7wMn+sG0zWsAZrTWc3AfCDrM
d63p+TTU86AtqedYqcBhhLbsPQqt/VyGc6prR9iLLlhLaRKCJlXmFL9VcIj++XXh
AgMBAAGjggE2MIIBMjAdBgNVHQ4EFgQU2Tw16nQOI76c/PopkAnB54QWn3wwgc4G
A1UdIwSBxjCBw4AU0yKPKCzgBe7T7cNxPcmyNjodv6ihgZ+kgZwwgZkxCzAJBgNV
BAYTAlVTMRAwDgYDVQQIDAdNb250YW5hMRAwDgYDVQQHDAdCb3plbWFuMREwDwYD
VQQKDAhTYXd0b290aDEYMBYGA1UECwwPQ29uc3VsdGluZ18xMDI0MRgwFgYDVQQD
DA93d3cud29sZnNzbC5jb20xHzAdBgkqhkiG9w0BCQEWEGluZm9Ad29sZnNzbC5j
b22CCQDmyGR+5juYqjAMBgNVHRMEBTADAQH/MDIGCCsGAQUFBwEBBCYwJDAiBggr
BgEFBQcwAYYWaHR0cDovL2xvY2FsaG9zdDoyMjIyMjANBgkqhkiG9w0BAQsFAAOB
gQDLMwKr2jMkg4/oKykTlFjy32lpDC95eU/8Nf2ldVmlGHQCeVBJLjsWKEu1Dyqk
57kqM1DrxHy0oq+NJPMnSFgBrMBdepBqW/dP06WWJCSWRyyBlzwDHK2QxyKQkWcD
f4FRx5fXdoWCZhv4A9muHbChIAVVaCvX65Lc7M2+xshT3w==
-----END CERTIFICATE-----
Certificate:
    Data:
        Version: 3 (0x2)
        Serial Number: 16629652120256878762 (0xe6c8647ee63b98aa)
    Signature Algorithm: sha256WithRSAEncryption
        Issuer: C=US, ST=Montana, L=Bozeman, O=Sawtooth, OU=Consulting_1024, CN=www.wolfssl.com/emailAddress=info@wolfssl.com
        Validity
            Not Before: Nov 23 12:49:37 2015 GMT
            Not After : Aug 19 12:49:37 2018 GMT
        Subject: C=US, ST=Montana, L=Bozeman, O=Sawtooth, OU=Consulting_1024, CN=www.wolfssl.com/emailAddress=info@wolfssl.com
        Subject Public Key Info:
            Public Key Algorithm: rsaEncryption
                Public-Key: (1024 bit)
                Modulus:
                    00:cd:ac:dd:47:ec:be:b7:24:c3:63:1b:54:98:79:
                    e1:c7:31:16:59:d6:9d:77:9d:8d:e2:8b:ed:04:17:
                    b2:c6:eb:e4:9b:91:be:31:50:62:97:58:b5:7f:29:
                    de:b3:71:24:0b:bf:97:09:7f:26:dc:2d:ec:a8:2e:
                    b2:64:2b:7a:2b:35:19:2d:a2:80:cb:99:fd:94:71:
                    1b:23:8d:54:db:2e:62:8d:81:08:2d:f4:24:72:27:
                    6c:f9:c9:8e:db:4c:75:ba:9b:01:f8:3f:18:f4:e6:
                    7f:fb:57:94:92:cc:88:c4:b4:00:c2:aa:d4:e5:88:
                    18:b3:11:2f:73:c0:d6:29:09
                Exponent: 65537 (0x10001)
        X509v3 extensions:
            X509v3 Subject Key Identifier: 
                D3:22:8F:28:2C:E0:05:EE:D3:ED:C3:71:3D:C9:B2:36:3A:1D:BF:A8
            X509v3 Authority Key Identifier: 
                keyid:D3:22:8F:28:2C:E0:05:EE:D3:ED:C3:71:3D:C9:B2:36:3A:1D:BF:A8
                DirName:/C=US/ST=Montana/L=Bozeman/O=Sawtooth/OU=Consulting_1024/CN=www.wolfssl.com/emailAddress=info@wolfssl.com
                serial:E6:C8:64:7E:E6:3B:98:AA

            X509v3 Basic Constraints: 
                CA:TRUE
            Authority Information Access: 
                OCSP - URI:http://localhost:22222

    Signature Algorithm: sha256WithRSAEncryption
         82:53:ec:89:0a:6a:1b:ae:c3:69:fc:22:b5:d7:d2:f4:0b:6d:
         18:72:f5:64:7f:bb:80:57:e3:f3:b2:af:e1:89:47:03:19:dd:
         6f:62:ed:2b:24:d3:a2:77:c0:83:6a:fb:0f:55:93:78:15:4a:
         c1:e0:13:f2:65:9c:7a:8c:6c:98:57:f0:44:9d:3a:9e:6a:30:
         08:9f:33:ce:0d:7e:86:6f:ef:0e:34:41:b9:c6:1d:34:c6:28:
         1e:f9:81:be:68:3d:77:92:50:c5:f8:2f:4c:aa:db:5f:72:93:
         42:eb:8a:cf:24:a0:d9:25:44:46:8b:ed:de:46:d5:1a:90:e9:
         d6:d8
-----BEGIN CERTIFICATE-----
MIID6jCCA1OgAwIBAgIJAObIZH7mO5iqMA0GCSqGSIb3DQEBCwUAMIGZMQswCQYD
VQQGEwJVUzEQMA4GA1UECAwHTW9udGFuYTEQMA4GA1UEBwwHQm96ZW1hbjERMA8G
A1UECgwIU2F3dG9vdGgxGDAWBgNVBAsMD0NvbnN1bHRpbmdfMTAyNDEYMBYGA1UE
AwwPd3d3LndvbGZzc2wuY29tMR8wHQYJKoZIhvcNAQkBFhBpbmZvQHdvbGZzc2wu
Y29tMB4XDTE1MTEyMzEyNDkzN1oXDTE4MDgxOTEyNDkzN1owgZkxCzAJBgNVBAYT
AlVTMRAwDgYDVQQIDAdNb250YW5hMRAwDgYDVQQHDAdCb3plbWFuMREwDwYDVQQK
DAhTYXd0b290aDEYMBYGA1UECwwPQ29uc3VsdGluZ18xMDI0MRgwFgYDVQQDDA93
d3cud29sZnNzbC5jb20xHzAdBgkqhkiG9w0BCQEWEGluZm9Ad29sZnNzbC5jb20w
gZ8wDQYJKoZIhvcNAQEBBQADgY0AMIGJAoGBAM2s3Ufsvrckw2MbVJh54ccxFlnW
nXedjeKL7QQXssbr5JuRvjFQYpdYtX8p3rNxJAu/lwl/Jtwt7KgusmQreis1GS2i
gMuZ/ZRxGyONVNsuYo2BCC30JHInbPnJjttMdbqbAfg/GPTmf/tXlJLMiMS0AMKq
1OWIGLMRL3PA1ikJAgMBAAGjggE2MIIBMjAdBgNVHQ4EFgQU0yKPKCzgBe7T7cNx
PcmyNjodv6gwgc4GA1UdIwSBxjCBw4AU0yKPKCzgBe7T7cNxPcmyNjodv6ihgZ+k
gZwwgZkxCzAJBgNVBAYTAlVTMRAwDgYDVQQIDAdNb250YW5hMRAwDgYDVQQHDAdC
b3plbWFuMREwDwYDVQQKDAhTYXd0b290aDEYMBYGA1UECwwPQ29uc3VsdGluZ18x
MDI0MRgwFgYDVQQDDA93d3cud29sZnNzbC5jb20xHzAdBgkqhkiG9w0BCQEWEGlu
Zm9Ad29sZnNzbC5jb22CCQDmyGR+5juYqjAMBgNVHRMEBTADAQH/MDIGCCsGAQUF
BwEBBCYwJDAiBggrBgEFBQcwAYYWaHR0cDovL2xvY2FsaG9zdDoyMjIyMjANBgkq
hkiG9w0BAQsFAAOBgQCCU+yJCmobrsNp/CK119L0C20YcvVkf7uAV+Pzsq/hiUcD
Gd1vYu0rJNOid8CDavsPVZN4FUrB4BPyZZx6jGyYV/BEnTqeajAInzPODX6Gb+8O
NEG5xh00xige+YG+aD13klDF+C9MqttfcpNC64rPJKDZJURGi+3eRtUakOnW2A==
-----END CERTIFICATE-----
