Certificate:
    Data:
        Version: 3 (0x2)
        Serial Number: 1 (0x1)
        Signature Algorithm: sha256WithRSAEncryption
        Issuer: C = US, ST = Montana, L = Bozeman, O = Sawtooth, OU = Consulting_1024, CN = www.wolfssl.com, emailAddress = info@wolfssl.com
        Validity
            Not Before: Dec 13 22:19:28 2023 GMT
            Not After : Sep  8 22:19:28 2026 GMT
        Subject: C = US, ST = Montana, L = Bozeman, O = wolfSSL, OU = Support_1024, CN = www.wolfssl.com, emailAddress = info@wolfssl.com
        Subject Public Key Info:
            Public Key Algorithm: rsaEncryption
                RSA Public-Key: (1024 bit)
                Modulus:
                    00:aa:3e:a5:9c:d3:17:49:65:43:de:d0:f3:4b:1c:
                    db:49:0c:fc:7a:65:05:6d:de:6a:c4:e4:73:2c:8a:
                    96:82:8f:23:a5:06:71:1c:06:3e:2f:92:8d:0b:29:
                    34:45:59:e9:a9:bc:61:d7:24:37:5d:b5:c4:37:8d:
                    ba:67:b2:ef:03:27:fa:c1:b4:cd:6b:00:66:b4:d6:
                    73:70:1f:08:3a:cc:77:ad:e9:f9:34:d4:f3:a0:2d:
                    a9:e7:58:a9:c0:61:84:b6:ec:3d:0a:ad:fd:5c:86:
                    73:aa:6b:47:d8:8b:2e:58:4b:69:12:82:26:55:e6:
                    14:bf:55:70:88:fe:f9:75:e1
                Exponent: 65537 (0x10001)
        X509v3 extensions:
            X509v3 Subject Key Identifier: 
                D9:3C:35:EA:74:0E:23:BE:9C:FC:FA:29:90:09:C1:E7:84:16:9F:7C
            X509v3 Authority Key Identifier: 
                keyid:D3:22:8F:28:2C:E0:05:EE:D3:ED:C3:71:3D:C9:B2:36:3A:1D:BF:A8
                DirName:/C=US/ST=Montana/L=Bozeman/O=Sawtooth/OU=Consulting_1024/CN=www.wolfssl.com/emailAddress=info@wolfssl.com
                serial:5C:44:2B:BF:D3:A8:2A:D8:FD:54:C9:CD:AA:7F:F7:D4:59:07:AA:DD

            X509v3 Basic Constraints: 
                CA:TRUE
            X509v3 Subject Alternative Name: 
                DNS:example.com, IP Address:127.0.0.1
            X509v3 Extended Key Usage: 
                TLS Web Server Authentication, TLS Web Client Authentication
    Signature Algorithm: sha256WithRSAEncryption
         35:2e:7b:57:7b:64:70:53:e0:81:ed:f4:ac:b3:3a:3b:ba:82:
         8d:a2:31:d9:d4:ac:d1:8a:6d:35:41:15:b3:e8:06:91:ca:2a:
         f7:ff:28:0e:3d:cd:e7:28:f0:07:c0:78:62:9e:88:3d:dc:98:
         f0:8c:89:a7:1c:5b:77:37:b2:55:38:b2:60:42:e8:02:81:bf:
         7c:c3:54:86:7e:e4:2f:7d:74:74:27:f7:9a:e2:8d:a9:2f:7c:
         82:31:41:f1:cb:48:a0:05:00:26:3d:a4:6b:27:43:4c:3f:6f:
         2f:41:2e:ee:ba:0d:8f:39:42:0d:2d:76:00:12:4c:f9:49:2d:
         7f:ed
-----BEGIN CERTIFICATE-----
MIID8jCCA1ugAwIBAgIBATANBgkqhkiG9w0BAQsFADCBmTELMAkGA1UEBhMCVVMx
EDAOBgNVBAgMB01vbnRhbmExEDAOBgNVBAcMB0JvemVtYW4xETAPBgNVBAoMCFNh
d3Rvb3RoMRgwFgYDVQQLDA9Db25zdWx0aW5nXzEwMjQxGDAWBgNVBAMMD3d3dy53
b2xmc3NsLmNvbTEfMB0GCSqGSIb3DQEJARYQaW5mb0B3b2xmc3NsLmNvbTAeFw0y
MzEyMTMyMjE5MjhaFw0yNjA5MDgyMjE5MjhaMIGVMQswCQYDVQQGEwJVUzEQMA4G
A1UECAwHTW9udGFuYTEQMA4GA1UEBwwHQm96ZW1hbjEQMA4GA1UECgwHd29sZlNT
TDEVMBMGA1UECwwMU3VwcG9ydF8xMDI0MRgwFgYDVQQDDA93d3cud29sZnNzbC5j
b20xHzAdBgkqhkiG9w0BCQEWEGluZm9Ad29sZnNzbC5jb20wgZ8wDQYJKoZIhvcN
AQEBBQADgY0AMIGJAoGBAKo+pZzTF0llQ97Q80sc20kM/HplBW3easTkcyyKloKP
I6UGcRwGPi+SjQspNEVZ6am8YdckN121xDeNumey7wMn+sG0zWsAZrTWc3AfCDrM
d63p+TTU86AtqedYqcBhhLbsPQqt/VyGc6prR9iLLlhLaRKCJlXmFL9VcIj++XXh
AgMBAAGjggFKMIIBRjAdBgNVHQ4EFgQU2Tw16nQOI76c/PopkAnB54QWn3wwgdkG
A1UdIwSB0TCBzoAU0yKPKCzgBe7T7cNxPcmyNjodv6ihgZ+kgZwwgZkxCzAJBgNV
BAYTAlVTMRAwDgYDVQQIDAdNb250YW5hMRAwDgYDVQQHDAdCb3plbWFuMREwDwYD
VQQKDAhTYXd0b290aDEYMBYGA1UECwwPQ29uc3VsdGluZ18xMDI0MRgwFgYDVQQD
DA93d3cud29sZnNzbC5jb20xHzAdBgkqhkiG9w0BCQEWEGluZm9Ad29sZnNzbC5j
b22CFFxEK7/TqCrY/VTJzap/99RZB6rdMAwGA1UdEwQFMAMBAf8wHAYDVR0RBBUw
E4ILZXhhbXBsZS5jb22HBH8AAAEwHQYDVR0lBBYwFAYIKwYBBQUHAwEGCCsGAQUF
BwMCMA0GCSqGSIb3DQEBCwUAA4GBADUue1d7ZHBT4IHt9KyzOju6go2iMdnUrNGK
bTVBFbPoBpHKKvf/KA49zeco8AfAeGKeiD3cmPCMiaccW3c3slU4smBC6AKBv3zD
VIZ+5C99dHQn95rijakvfIIxQfHLSKAFACY9pGsnQ0w/by9BLu66DY85Qg0tdgAS
TPlJLX/t
-----END CERTIFICATE-----
Certificate:
    Data:
        Version: 3 (0x2)
        Serial Number:
            5c:44:2b:bf:d3:a8:2a:d8:fd:54:c9:cd:aa:7f:f7:d4:59:07:aa:dd
        Signature Algorithm: sha256WithRSAEncryption
        Issuer: C = US, ST = Montana, L = Bozeman, O = Sawtooth, OU = Consulting_1024, CN = www.wolfssl.com, emailAddress = info@wolfssl.com
        Validity
            Not Before: Dec 13 22:19:28 2023 GMT
            Not After : Sep  8 22:19:28 2026 GMT
        Subject: C = US, ST = Montana, L = Bozeman, O = Sawtooth, OU = Consulting_1024, CN = www.wolfssl.com, emailAddress = info@wolfssl.com
        Subject Public Key Info:
            Public Key Algorithm: rsaEncryption
                RSA Public-Key: (1024 bit)
                Modulus:
                    00:cd:ac:dd:47:ec:be:b7:24:c3:63:1b:54:98:79:
                    e1:c7:31:16:59:d6:9d:77:9d:8d:e2:8b:ed:04:17:
                    b2:c6:eb:e4:9b:91:be:31:50:62:97:58:b5:7f:29:
                    de:b3:71:24:0b:bf:97:09:7f:26:dc:2d:ec:a8:2e:
                    b2:64:2b:7a:2b:35:19:2d:a2:80:cb:99:fd:94:71:
                    1b:23:8d:54:db:2e:62:8d:81:08:2d:f4:24:72:27:
                    6c:f9:c9:8e:db:4c:75:ba:9b:01:f8:3f:18:f4:e6:
                    7f:fb:57:94:92:cc:88:c4:b4:00:c2:aa:d4:e5:88:
                    18:b3:11:2f:73:c0:d6:29:09
                Exponent: 65537 (0x10001)
        X509v3 extensions:
            X509v3 Subject Key Identifier: 
                D3:22:8F:28:2C:E0:05:EE:D3:ED:C3:71:3D:C9:B2:36:3A:1D:BF:A8
            X509v3 Authority Key Identifier: 
                keyid:D3:22:8F:28:2C:E0:05:EE:D3:ED:C3:71:3D:C9:B2:36:3A:1D:BF:A8
                DirName:/C=US/ST=Montana/L=Bozeman/O=Sawtooth/OU=Consulting_1024/CN=www.wolfssl.com/emailAddress=info@wolfssl.com
                serial:5C:44:2B:BF:D3:A8:2A:D8:FD:54:C9:CD:AA:7F:F7:D4:59:07:AA:DD

            X509v3 Basic Constraints: 
                CA:TRUE
            X509v3 Subject Alternative Name: 
                DNS:example.com, IP Address:127.0.0.1
            X509v3 Extended Key Usage: 
                TLS Web Server Authentication, TLS Web Client Authentication
    Signature Algorithm: sha256WithRSAEncryption
         70:7d:83:94:d0:ee:e1:19:8b:17:ca:79:87:12:5b:7f:70:a3:
         51:20:4f:21:99:71:69:21:28:55:61:70:85:54:21:a9:70:a2:
         a9:12:db:44:11:44:e7:41:00:70:80:b5:37:0c:7e:78:8f:88:
         64:bc:e5:c0:44:a7:a5:3d:db:62:c4:d6:cd:aa:4b:ac:fb:01:
         46:bb:ec:cb:6f:01:67:b4:65:f3:5e:53:39:64:99:9b:68:80:
         14:91:a4:a4:eb:04:f3:76:9a:7d:b4:38:05:9c:a5:e0:bc:7e:
         d9:d2:d3:d4:e8:c3:9f:38:4b:6c:29:94:be:35:bd:30:1f:b5:
         b7:3d
-----BEGIN CERTIFICATE-----
MIIECTCCA3KgAwIBAgIUXEQrv9OoKtj9VMnNqn/31FkHqt0wDQYJKoZIhvcNAQEL
BQAwgZkxCzAJBgNVBAYTAlVTMRAwDgYDVQQIDAdNb250YW5hMRAwDgYDVQQHDAdC
b3plbWFuMREwDwYDVQQKDAhTYXd0b290aDEYMBYGA1UECwwPQ29uc3VsdGluZ18x
MDI0MRgwFgYDVQQDDA93d3cud29sZnNzbC5jb20xHzAdBgkqhkiG9w0BCQEWEGlu
Zm9Ad29sZnNzbC5jb20wHhcNMjMxMjEzMjIxOTI4WhcNMjYwOTA4MjIxOTI4WjCB
mTELMAkGA1UEBhMCVVMxEDAOBgNVBAgMB01vbnRhbmExEDAOBgNVBAcMB0JvemVt
YW4xETAPBgNVBAoMCFNhd3Rvb3RoMRgwFgYDVQQLDA9Db25zdWx0aW5nXzEwMjQx
GDAWBgNVBAMMD3d3dy53b2xmc3NsLmNvbTEfMB0GCSqGSIb3DQEJARYQaW5mb0B3
b2xmc3NsLmNvbTCBnzANBgkqhkiG9w0BAQEFAAOBjQAwgYkCgYEAzazdR+y+tyTD
YxtUmHnhxzEWWdadd52N4ovtBBeyxuvkm5G+MVBil1i1fynes3EkC7+XCX8m3C3s
qC6yZCt6KzUZLaKAy5n9lHEbI41U2y5ijYEILfQkcids+cmO20x1upsB+D8Y9OZ/
+1eUksyIxLQAwqrU5YgYsxEvc8DWKQkCAwEAAaOCAUowggFGMB0GA1UdDgQWBBTT
Io8oLOAF7tPtw3E9ybI2Oh2/qDCB2QYDVR0jBIHRMIHOgBTTIo8oLOAF7tPtw3E9
ybI2Oh2/qKGBn6SBnDCBmTELMAkGA1UEBhMCVVMxEDAOBgNVBAgMB01vbnRhbmEx
EDAOBgNVBAcMB0JvemVtYW4xETAPBgNVBAoMCFNhd3Rvb3RoMRgwFgYDVQQLDA9D
b25zdWx0aW5nXzEwMjQxGDAWBgNVBAMMD3d3dy53b2xmc3NsLmNvbTEfMB0GCSqG
SIb3DQEJARYQaW5mb0B3b2xmc3NsLmNvbYIUXEQrv9OoKtj9VMnNqn/31FkHqt0w
DAYDVR0TBAUwAwEB/zAcBgNVHREEFTATggtleGFtcGxlLmNvbYcEfwAAATAdBgNV
HSUEFjAUBggrBgEFBQcDAQYIKwYBBQUHAwIwDQYJKoZIhvcNAQELBQADgYEAcH2D
lNDu4RmLF8p5hxJbf3CjUSBPIZlxaSEoVWFwhVQhqXCiqRLbRBFE50EAcIC1Nwx+
eI+IZLzlwESnpT3bYsTWzapLrPsBRrvsy28BZ7Rl815TOWSZm2iAFJGkpOsE83aa
fbQ4BZyl4Lx+2dLT1OjDnzhLbCmUvjW9MB+1tz0=
-----END CERTIFICATE-----
