Certificate:
    Data:
        Version: 3 (0x2)
        Serial Number: 1 (0x1)
        Signature Algorithm: sha256WithRSAEncryption
        Issuer: C=US, ST=Montana, L=Bozeman, O=Sawtooth, OU=Consulting_1024, CN=www.wolfssl.com, emailAddress=facts@wolfssl.com
        Validity
            Not Before: Jun 11 21:44:29 2026 GMT
            Not After : Mar  7 21:44:29 2029 GMT
        Subject: C=US, ST=Montana, L=Bozeman, O=wolfSSL, OU=Support_1024, CN=www.wolfssl.com, emailAddress=facts@wolfssl.com
        Subject Public Key Info:
            Public Key Algorithm: rsaEncryption
                Public-Key: (1024 bit)
                Modulus:
                    00:aa:3e:a5:9c:d3:17:49:65:43:de:d0:f3:4b:1c:
                    db:49:0c:fc:7a:65:05:6d:de:6a:c4:e4:73:2c:8a:
                    96:82:8f:23:a5:06:71:1c:06:3e:2f:92:8d:0b:29:
                    34:45:59:e9:a9:bc:61:d7:24:37:5d:b5:c4:37:8d:
                    ba:67:b2:ef:03:27:fa:c1:b4:cd:6b:00:66:b4:d6:
                    73:70:1f:08:3a:cc:77:ad:e9:f9:34:d4:f3:a0:2d:
                    a9:e7:58:a9:c0:61:84:b6:ec:3d:0a:ad:fd:5c:86:
                    73:aa:6b:47:d8:8b:2e:58:4b:69:12:82:26:55:e6:
                    14:bf:55:70:88:fe:f9:75:e1
                Exponent: 65537 (0x10001)
        X509v3 extensions:
            X509v3 Subject Key Identifier: 
                D9:3C:35:EA:74:0E:23:BE:9C:FC:FA:29:90:09:C1:E7:84:16:9F:7C
            X509v3 Authority Key Identifier: 
                keyid:D3:22:8F:28:2C:E0:05:EE:D3:ED:C3:71:3D:C9:B2:36:3A:1D:BF:A8
                DirName:/C=US/ST=Montana/L=Bozeman/O=Sawtooth/OU=Consulting_1024/CN=www.wolfssl.com/emailAddress=facts@wolfssl.com
                serial:16:7B:FE:AA:6C:BE:20:B9:B5:D7:CF:F8:2C:2C:B3:E8:CF:BA:77:A7
            X509v3 Basic Constraints: 
                CA:TRUE
            X509v3 Subject Alternative Name: 
                DNS:example.com, IP Address:127.0.0.1
            X509v3 Extended Key Usage: 
                TLS Web Server Authentication, TLS Web Client Authentication
    Signature Algorithm: sha256WithRSAEncryption
    Signature Value:
        92:af:84:d6:29:46:95:c8:9b:17:9c:9d:c3:4e:27:47:0d:6d:
        7f:5c:f9:62:06:d5:ba:ae:b8:d5:a8:85:7e:88:1d:4a:f7:c9:
        4f:a0:cf:ff:ca:09:57:d4:48:f8:cf:84:2d:29:62:27:b0:06:
        41:ff:38:c1:ba:d8:5b:60:02:f7:1f:2a:92:e7:f5:7f:57:97:
        88:6a:91:36:9d:a3:cb:32:f6:05:03:b8:ab:3a:42:a0:b6:b7:
        d6:d1:ae:66:8b:90:47:eb:0a:dc:95:bf:f3:d5:f6:25:9f:ac:
        65:57:ae:d7:b2:8b:b5:4e:60:a1:cb:8e:fe:f4:00:f1:68:d5:
        b8:bf
-----BEGIN CERTIFICATE-----
MIID9TCCA16gAwIBAgIBATANBgkqhkiG9w0BAQsFADCBmjELMAkGA1UEBhMCVVMx
EDAOBgNVBAgMB01vbnRhbmExEDAOBgNVBAcMB0JvemVtYW4xETAPBgNVBAoMCFNh
d3Rvb3RoMRgwFgYDVQQLDA9Db25zdWx0aW5nXzEwMjQxGDAWBgNVBAMMD3d3dy53
b2xmc3NsLmNvbTEgMB4GCSqGSIb3DQEJARYRZmFjdHNAd29sZnNzbC5jb20wHhcN
MjYwNjExMjE0NDI5WhcNMjkwMzA3MjE0NDI5WjCBljELMAkGA1UEBhMCVVMxEDAO
BgNVBAgMB01vbnRhbmExEDAOBgNVBAcMB0JvemVtYW4xEDAOBgNVBAoMB3dvbGZT
U0wxFTATBgNVBAsMDFN1cHBvcnRfMTAyNDEYMBYGA1UEAwwPd3d3LndvbGZzc2wu
Y29tMSAwHgYJKoZIhvcNAQkBFhFmYWN0c0B3b2xmc3NsLmNvbTCBnzANBgkqhkiG
9w0BAQEFAAOBjQAwgYkCgYEAqj6lnNMXSWVD3tDzSxzbSQz8emUFbd5qxORzLIqW
go8jpQZxHAY+L5KNCyk0RVnpqbxh1yQ3XbXEN426Z7LvAyf6wbTNawBmtNZzcB8I
Osx3ren5NNTzoC2p51ipwGGEtuw9Cq39XIZzqmtH2IsuWEtpEoImVeYUv1VwiP75
deECAwEAAaOCAUswggFHMB0GA1UdDgQWBBTZPDXqdA4jvpz8+imQCcHnhBaffDCB
2gYDVR0jBIHSMIHPgBTTIo8oLOAF7tPtw3E9ybI2Oh2/qKGBoKSBnTCBmjELMAkG
A1UEBhMCVVMxEDAOBgNVBAgMB01vbnRhbmExEDAOBgNVBAcMB0JvemVtYW4xETAP
BgNVBAoMCFNhd3Rvb3RoMRgwFgYDVQQLDA9Db25zdWx0aW5nXzEwMjQxGDAWBgNV
BAMMD3d3dy53b2xmc3NsLmNvbTEgMB4GCSqGSIb3DQEJARYRZmFjdHNAd29sZnNz
bC5jb22CFBZ7/qpsviC5tdfP+Cwss+jPunenMAwGA1UdEwQFMAMBAf8wHAYDVR0R
BBUwE4ILZXhhbXBsZS5jb22HBH8AAAEwHQYDVR0lBBYwFAYIKwYBBQUHAwEGCCsG
AQUFBwMCMA0GCSqGSIb3DQEBCwUAA4GBAJKvhNYpRpXImxecncNOJ0cNbX9c+WIG
1bquuNWohX6IHUr3yU+gz//KCVfUSPjPhC0pYiewBkH/OMG62FtgAvcfKpLn9X9X
l4hqkTado8sy9gUDuKs6QqC2t9bRrmaLkEfrCtyVv/PV9iWfrGVXrteyi7VOYKHL
jv70APFo1bi/
-----END CERTIFICATE-----
Certificate:
    Data:
        Version: 3 (0x2)
        Serial Number:
            16:7b:fe:aa:6c:be:20:b9:b5:d7:cf:f8:2c:2c:b3:e8:cf:ba:77:a7
        Signature Algorithm: sha256WithRSAEncryption
        Issuer: C=US, ST=Montana, L=Bozeman, O=Sawtooth, OU=Consulting_1024, CN=www.wolfssl.com, emailAddress=facts@wolfssl.com
        Validity
            Not Before: Jun 11 21:44:29 2026 GMT
            Not After : Mar  7 21:44:29 2029 GMT
        Subject: C=US, ST=Montana, L=Bozeman, O=Sawtooth, OU=Consulting_1024, CN=www.wolfssl.com, emailAddress=facts@wolfssl.com
        Subject Public Key Info:
            Public Key Algorithm: rsaEncryption
                Public-Key: (1024 bit)
                Modulus:
                    00:cd:ac:dd:47:ec:be:b7:24:c3:63:1b:54:98:79:
                    e1:c7:31:16:59:d6:9d:77:9d:8d:e2:8b:ed:04:17:
                    b2:c6:eb:e4:9b:91:be:31:50:62:97:58:b5:7f:29:
                    de:b3:71:24:0b:bf:97:09:7f:26:dc:2d:ec:a8:2e:
                    b2:64:2b:7a:2b:35:19:2d:a2:80:cb:99:fd:94:71:
                    1b:23:8d:54:db:2e:62:8d:81:08:2d:f4:24:72:27:
                    6c:f9:c9:8e:db:4c:75:ba:9b:01:f8:3f:18:f4:e6:
                    7f:fb:57:94:92:cc:88:c4:b4:00:c2:aa:d4:e5:88:
                    18:b3:11:2f:73:c0:d6:29:09
                Exponent: 65537 (0x10001)
        X509v3 extensions:
            X509v3 Subject Key Identifier: 
                D3:22:8F:28:2C:E0:05:EE:D3:ED:C3:71:3D:C9:B2:36:3A:1D:BF:A8
            X509v3 Authority Key Identifier: 
                keyid:D3:22:8F:28:2C:E0:05:EE:D3:ED:C3:71:3D:C9:B2:36:3A:1D:BF:A8
                DirName:/C=US/ST=Montana/L=Bozeman/O=Sawtooth/OU=Consulting_1024/CN=www.wolfssl.com/emailAddress=facts@wolfssl.com
                serial:16:7B:FE:AA:6C:BE:20:B9:B5:D7:CF:F8:2C:2C:B3:E8:CF:BA:77:A7
            X509v3 Basic Constraints: 
                CA:TRUE
            X509v3 Subject Alternative Name: 
                DNS:example.com, IP Address:127.0.0.1
            X509v3 Extended Key Usage: 
                TLS Web Server Authentication, TLS Web Client Authentication
    Signature Algorithm: sha256WithRSAEncryption
    Signature Value:
        71:d3:a0:f2:13:f9:b4:c0:4e:95:f6:81:42:74:aa:2e:f8:a2:
        59:1e:35:0e:d7:cf:9b:3a:92:8d:29:fe:7a:bf:20:87:86:af:
        0a:c9:c8:33:30:59:21:b2:32:39:fb:5b:8b:68:18:1e:a1:72:
        25:9f:e4:3d:ca:78:9c:43:1a:01:cc:57:8e:e0:71:a7:a5:ef:
        bc:90:32:a1:1f:8e:d5:f8:4b:53:0b:e1:af:c1:19:01:d3:bc:
        50:30:8a:7f:14:8b:7b:23:0e:da:cb:5f:b1:30:de:3c:a1:1a:
        ee:cc:b9:01:f2:18:3e:22:33:dc:8c:c6:f2:4a:72:ae:90:77:
        c7:4f
-----BEGIN CERTIFICATE-----
MIIEDDCCA3WgAwIBAgIUFnv+qmy+ILm118/4LCyz6M+6d6cwDQYJKoZIhvcNAQEL
BQAwgZoxCzAJBgNVBAYTAlVTMRAwDgYDVQQIDAdNb250YW5hMRAwDgYDVQQHDAdC
b3plbWFuMREwDwYDVQQKDAhTYXd0b290aDEYMBYGA1UECwwPQ29uc3VsdGluZ18x
MDI0MRgwFgYDVQQDDA93d3cud29sZnNzbC5jb20xIDAeBgkqhkiG9w0BCQEWEWZh
Y3RzQHdvbGZzc2wuY29tMB4XDTI2MDYxMTIxNDQyOVoXDTI5MDMwNzIxNDQyOVow
gZoxCzAJBgNVBAYTAlVTMRAwDgYDVQQIDAdNb250YW5hMRAwDgYDVQQHDAdCb3pl
bWFuMREwDwYDVQQKDAhTYXd0b290aDEYMBYGA1UECwwPQ29uc3VsdGluZ18xMDI0
MRgwFgYDVQQDDA93d3cud29sZnNzbC5jb20xIDAeBgkqhkiG9w0BCQEWEWZhY3Rz
QHdvbGZzc2wuY29tMIGfMA0GCSqGSIb3DQEBAQUAA4GNADCBiQKBgQDNrN1H7L63
JMNjG1SYeeHHMRZZ1p13nY3ii+0EF7LG6+Sbkb4xUGKXWLV/Kd6zcSQLv5cJfybc
LeyoLrJkK3orNRktooDLmf2UcRsjjVTbLmKNgQgt9CRyJ2z5yY7bTHW6mwH4Pxj0
5n/7V5SSzIjEtADCqtTliBizES9zwNYpCQIDAQABo4IBSzCCAUcwHQYDVR0OBBYE
FNMijygs4AXu0+3DcT3JsjY6Hb+oMIHaBgNVHSMEgdIwgc+AFNMijygs4AXu0+3D
cT3JsjY6Hb+ooYGgpIGdMIGaMQswCQYDVQQGEwJVUzEQMA4GA1UECAwHTW9udGFu
YTEQMA4GA1UEBwwHQm96ZW1hbjERMA8GA1UECgwIU2F3dG9vdGgxGDAWBgNVBAsM
D0NvbnN1bHRpbmdfMTAyNDEYMBYGA1UEAwwPd3d3LndvbGZzc2wuY29tMSAwHgYJ
KoZIhvcNAQkBFhFmYWN0c0B3b2xmc3NsLmNvbYIUFnv+qmy+ILm118/4LCyz6M+6
d6cwDAYDVR0TBAUwAwEB/zAcBgNVHREEFTATggtleGFtcGxlLmNvbYcEfwAAATAd
BgNVHSUEFjAUBggrBgEFBQcDAQYIKwYBBQUHAwIwDQYJKoZIhvcNAQELBQADgYEA
cdOg8hP5tMBOlfaBQnSqLviiWR41DtfPmzqSjSn+er8gh4avCsnIMzBZIbIyOftb
i2gYHqFyJZ/kPcp4nEMaAcxXjuBxp6XvvJAyoR+O1fhLUwvhr8EZAdO8UDCKfxSL
eyMO2stfsTDePKEa7sy5AfIYPiIz3IzG8kpyrpB3x08=
-----END CERTIFICATE-----
