Certificate:
    Data:
        Version: 3 (0x2)
        Serial Number: 1 (0x1)
        Signature Algorithm: sha256WithRSAEncryption
        Issuer: C = US, ST = Montana, L = Bozeman, O = Sawtooth, OU = Consulting_1024, CN = www.wolfssl.com, emailAddress = info@wolfssl.com
        Validity
            Not Before: May  7 07:39:04 2020 GMT
            Not After : Feb  1 07:39:04 2023 GMT
        Subject: C = US, ST = Montana, L = Bozeman, O = wolfSSL, OU = Support_1024, CN = www.wolfssl.com, emailAddress = info@wolfssl.com
        Subject Public Key Info:
            Public Key Algorithm: rsaEncryption
                RSA Public-Key: (1024 bit)
                Modulus:
                    00:aa:3e:a5:9c:d3:17:49:65:43:de:d0:f3:4b:1c:
                    db:49:0c:fc:7a:65:05:6d:de:6a:c4:e4:73:2c:8a:
                    96:82:8f:23:a5:06:71:1c:06:3e:2f:92:8d:0b:29:
                    34:45:59:e9:a9:bc:61:d7:24:37:5d:b5:c4:37:8d:
                    ba:67:b2:ef:03:27:fa:c1:b4:cd:6b:00:66:b4:d6:
                    73:70:1f:08:3a:cc:77:ad:e9:f9:34:d4:f3:a0:2d:
                    a9:e7:58:a9:c0:61:84:b6:ec:3d:0a:ad:fd:5c:86:
                    73:aa:6b:47:d8:8b:2e:58:4b:69:12:82:26:55:e6:
                    14:bf:55:70:88:fe:f9:75:e1
                Exponent: 65537 (0x10001)
        X509v3 extensions:
            X509v3 Subject Key Identifier: 
                D9:3C:35:EA:74:0E:23:BE:9C:FC:FA:29:90:09:C1:E7:84:16:9F:7C
            X509v3 Authority Key Identifier: 
                keyid:D3:22:8F:28:2C:E0:05:EE:D3:ED:C3:71:3D:C9:B2:36:3A:1D:BF:A8
                DirName:/C=US/ST=Montana/L=Bozeman/O=Sawtooth/OU=Consulting_1024/CN=www.wolfssl.com/emailAddress=info@wolfssl.com
                serial:51:08:0E:66:59:26:E1:9B:EC:B2:C8:61:15:35:41:9D:4D:E9:8A:EA

            X509v3 Basic Constraints: 
                CA:TRUE
            X509v3 Subject Alternative Name: 
                DNS:example.com, IP Address:127.0.0.1
    Signature Algorithm: sha256WithRSAEncryption
         89:cd:fc:5f:7b:99:2c:cd:83:9d:c9:a5:dd:c8:7c:66:1d:05:
         9d:a6:fa:01:d7:20:25:6a:a8:22:6b:16:74:21:c4:8f:32:36:
         df:e3:08:be:8f:a4:1d:45:fe:1b:80:7f:39:b3:ce:7f:df:d9:
         04:2e:83:b7:18:9d:5d:d9:6c:23:fa:cd:0d:0f:98:7b:53:8a:
         c1:a7:a4:90:d5:2a:b7:44:29:83:74:ca:b5:b9:41:a5:43:d7:
         22:a6:02:6a:a8:28:5c:be:9a:6e:83:38:08:b6:5a:2f:48:5f:
         4e:67:bf:da:f3:5f:ef:0e:f6:53:0b:80:43:48:bc:4a:4a:89:
         a6:37
-----BEGIN CERTIFICATE-----
MIID0zCCAzygAwIBAgIBATANBgkqhkiG9w0BAQsFADCBmTELMAkGA1UEBhMCVVMx
EDAOBgNVBAgMB01vbnRhbmExEDAOBgNVBAcMB0JvemVtYW4xETAPBgNVBAoMCFNh
d3Rvb3RoMRgwFgYDVQQLDA9Db25zdWx0aW5nXzEwMjQxGDAWBgNVBAMMD3d3dy53
b2xmc3NsLmNvbTEfMB0GCSqGSIb3DQEJARYQaW5mb0B3b2xmc3NsLmNvbTAeFw0y
MDA1MDcwNzM5MDRaFw0yMzAyMDEwNzM5MDRaMIGVMQswCQYDVQQGEwJVUzEQMA4G
A1UECAwHTW9udGFuYTEQMA4GA1UEBwwHQm96ZW1hbjEQMA4GA1UECgwHd29sZlNT
TDEVMBMGA1UECwwMU3VwcG9ydF8xMDI0MRgwFgYDVQQDDA93d3cud29sZnNzbC5j
b20xHzAdBgkqhkiG9w0BCQEWEGluZm9Ad29sZnNzbC5jb20wgZ8wDQYJKoZIhvcN
AQEBBQADgY0AMIGJAoGBAKo+pZzTF0llQ97Q80sc20kM/HplBW3easTkcyyKloKP
I6UGcRwGPi+SjQspNEVZ6am8YdckN121xDeNumey7wMn+sG0zWsAZrTWc3AfCDrM
d63p+TTU86AtqedYqcBhhLbsPQqt/VyGc6prR9iLLlhLaRKCJlXmFL9VcIj++XXh
AgMBAAGjggErMIIBJzAdBgNVHQ4EFgQU2Tw16nQOI76c/PopkAnB54QWn3wwgdkG
A1UdIwSB0TCBzoAU0yKPKCzgBe7T7cNxPcmyNjodv6ihgZ+kgZwwgZkxCzAJBgNV
BAYTAlVTMRAwDgYDVQQIDAdNb250YW5hMRAwDgYDVQQHDAdCb3plbWFuMREwDwYD
VQQKDAhTYXd0b290aDEYMBYGA1UECwwPQ29uc3VsdGluZ18xMDI0MRgwFgYDVQQD
DA93d3cud29sZnNzbC5jb20xHzAdBgkqhkiG9w0BCQEWEGluZm9Ad29sZnNzbC5j
b22CFFEIDmZZJuGb7LLIYRU1QZ1N6YrqMAwGA1UdEwQFMAMBAf8wHAYDVR0RBBUw
E4ILZXhhbXBsZS5jb22HBH8AAAEwDQYJKoZIhvcNAQELBQADgYEAic38X3uZLM2D
ncml3ch8Zh0Fnab6AdcgJWqoImsWdCHEjzI23+MIvo+kHUX+G4B/ObPOf9/ZBC6D
txidXdlsI/rNDQ+Ye1OKwaekkNUqt0Qpg3TKtblBpUPXIqYCaqgoXL6aboM4CLZa
L0hfTme/2vNf7w72UwuAQ0i8SkqJpjc=
-----END CERTIFICATE-----
Certificate:
    Data:
        Version: 3 (0x2)
        Serial Number:
            51:08:0e:66:59:26:e1:9b:ec:b2:c8:61:15:35:41:9d:4d:e9:8a:ea
        Signature Algorithm: sha256WithRSAEncryption
        Issuer: C = US, ST = Montana, L = Bozeman, O = Sawtooth, OU = Consulting_1024, CN = www.wolfssl.com, emailAddress = info@wolfssl.com
        Validity
            Not Before: May  7 07:39:04 2020 GMT
            Not After : Feb  1 07:39:04 2023 GMT
        Subject: C = US, ST = Montana, L = Bozeman, O = Sawtooth, OU = Consulting_1024, CN = www.wolfssl.com, emailAddress = info@wolfssl.com
        Subject Public Key Info:
            Public Key Algorithm: rsaEncryption
                RSA Public-Key: (1024 bit)
                Modulus:
                    00:cd:ac:dd:47:ec:be:b7:24:c3:63:1b:54:98:79:
                    e1:c7:31:16:59:d6:9d:77:9d:8d:e2:8b:ed:04:17:
                    b2:c6:eb:e4:9b:91:be:31:50:62:97:58:b5:7f:29:
                    de:b3:71:24:0b:bf:97:09:7f:26:dc:2d:ec:a8:2e:
                    b2:64:2b:7a:2b:35:19:2d:a2:80:cb:99:fd:94:71:
                    1b:23:8d:54:db:2e:62:8d:81:08:2d:f4:24:72:27:
                    6c:f9:c9:8e:db:4c:75:ba:9b:01:f8:3f:18:f4:e6:
                    7f:fb:57:94:92:cc:88:c4:b4:00:c2:aa:d4:e5:88:
                    18:b3:11:2f:73:c0:d6:29:09
                Exponent: 65537 (0x10001)
        X509v3 extensions:
            X509v3 Subject Key Identifier: 
                D3:22:8F:28:2C:E0:05:EE:D3:ED:C3:71:3D:C9:B2:36:3A:1D:BF:A8
            X509v3 Authority Key Identifier: 
                keyid:D3:22:8F:28:2C:E0:05:EE:D3:ED:C3:71:3D:C9:B2:36:3A:1D:BF:A8
                DirName:/C=US/ST=Montana/L=Bozeman/O=Sawtooth/OU=Consulting_1024/CN=www.wolfssl.com/emailAddress=info@wolfssl.com
                serial:51:08:0E:66:59:26:E1:9B:EC:B2:C8:61:15:35:41:9D:4D:E9:8A:EA

            X509v3 Basic Constraints: 
                CA:TRUE
            X509v3 Subject Alternative Name: 
                DNS:example.com, IP Address:127.0.0.1
    Signature Algorithm: sha256WithRSAEncryption
         bb:85:81:52:e4:7e:d9:40:36:97:7f:e1:db:fe:8e:1f:e5:f4:
         d8:05:8e:25:43:6a:f2:6f:5f:d2:5c:b8:f0:a2:71:16:b7:87:
         0c:53:d5:50:94:4a:89:ca:d7:a3:f1:db:bc:03:44:34:84:f9:
         cb:98:a8:3c:cd:a1:1c:95:19:d0:48:ae:b3:59:70:52:2b:19:
         02:05:35:b5:5c:7a:a9:1e:5e:53:74:1d:70:ee:fc:eb:0e:64:
         6a:5c:50:7e:87:9e:85:8f:21:c3:39:83:e2:ce:62:88:7b:72:
         74:50:09:7b:c6:1d:8f:33:82:ae:3f:6f:11:11:42:dc:c5:bd:
         b8:3f
-----BEGIN CERTIFICATE-----
MIID6jCCA1OgAwIBAgIUUQgOZlkm4ZvssshhFTVBnU3piuowDQYJKoZIhvcNAQEL
BQAwgZkxCzAJBgNVBAYTAlVTMRAwDgYDVQQIDAdNb250YW5hMRAwDgYDVQQHDAdC
b3plbWFuMREwDwYDVQQKDAhTYXd0b290aDEYMBYGA1UECwwPQ29uc3VsdGluZ18x
MDI0MRgwFgYDVQQDDA93d3cud29sZnNzbC5jb20xHzAdBgkqhkiG9w0BCQEWEGlu
Zm9Ad29sZnNzbC5jb20wHhcNMjAwNTA3MDczOTA0WhcNMjMwMjAxMDczOTA0WjCB
mTELMAkGA1UEBhMCVVMxEDAOBgNVBAgMB01vbnRhbmExEDAOBgNVBAcMB0JvemVt
YW4xETAPBgNVBAoMCFNhd3Rvb3RoMRgwFgYDVQQLDA9Db25zdWx0aW5nXzEwMjQx
GDAWBgNVBAMMD3d3dy53b2xmc3NsLmNvbTEfMB0GCSqGSIb3DQEJARYQaW5mb0B3
b2xmc3NsLmNvbTCBnzANBgkqhkiG9w0BAQEFAAOBjQAwgYkCgYEAzazdR+y+tyTD
YxtUmHnhxzEWWdadd52N4ovtBBeyxuvkm5G+MVBil1i1fynes3EkC7+XCX8m3C3s
qC6yZCt6KzUZLaKAy5n9lHEbI41U2y5ijYEILfQkcids+cmO20x1upsB+D8Y9OZ/
+1eUksyIxLQAwqrU5YgYsxEvc8DWKQkCAwEAAaOCASswggEnMB0GA1UdDgQWBBTT
Io8oLOAF7tPtw3E9ybI2Oh2/qDCB2QYDVR0jBIHRMIHOgBTTIo8oLOAF7tPtw3E9
ybI2Oh2/qKGBn6SBnDCBmTELMAkGA1UEBhMCVVMxEDAOBgNVBAgMB01vbnRhbmEx
EDAOBgNVBAcMB0JvemVtYW4xETAPBgNVBAoMCFNhd3Rvb3RoMRgwFgYDVQQLDA9D
b25zdWx0aW5nXzEwMjQxGDAWBgNVBAMMD3d3dy53b2xmc3NsLmNvbTEfMB0GCSqG
SIb3DQEJARYQaW5mb0B3b2xmc3NsLmNvbYIUUQgOZlkm4ZvssshhFTVBnU3piuow
DAYDVR0TBAUwAwEB/zAcBgNVHREEFTATggtleGFtcGxlLmNvbYcEfwAAATANBgkq
hkiG9w0BAQsFAAOBgQC7hYFS5H7ZQDaXf+Hb/o4f5fTYBY4lQ2ryb1/SXLjwonEW
t4cMU9VQlEqJytej8du8A0Q0hPnLmKg8zaEclRnQSK6zWXBSKxkCBTW1XHqpHl5T
dB1w7vzrDmRqXFB+h56FjyHDOYPizmKIe3J0UAl7xh2PM4KuP28REULcxb24Pw==
-----END CERTIFICATE-----
