Certificate:
    Data:
        Version: 3 (0x2)
        Serial Number: 1 (0x1)
    Signature Algorithm: sha256WithRSAEncryption
        Issuer: C=US, ST=Montana, L=Bozeman, O=Sawtooth, OU=Consulting_1024, CN=www.wolfssl.com/emailAddress=info@wolfssl.com
        Validity
            Not Before: Jul 25 18:56:34 2016 GMT
            Not After : Apr 21 18:56:34 2019 GMT
        Subject: C=US, ST=Montana, L=Bozeman, O=wolfSSL, OU=Support_1024, CN=www.wolfssl.com/emailAddress=info@wolfssl.com
        Subject Public Key Info:
            Public Key Algorithm: rsaEncryption
                Public-Key: (1024 bit)
                Modulus:
                    00:aa:3e:a5:9c:d3:17:49:65:43:de:d0:f3:4b:1c:
                    db:49:0c:fc:7a:65:05:6d:de:6a:c4:e4:73:2c:8a:
                    96:82:8f:23:a5:06:71:1c:06:3e:2f:92:8d:0b:29:
                    34:45:59:e9:a9:bc:61:d7:24:37:5d:b5:c4:37:8d:
                    ba:67:b2:ef:03:27:fa:c1:b4:cd:6b:00:66:b4:d6:
                    73:70:1f:08:3a:cc:77:ad:e9:f9:34:d4:f3:a0:2d:
                    a9:e7:58:a9:c0:61:84:b6:ec:3d:0a:ad:fd:5c:86:
                    73:aa:6b:47:d8:8b:2e:58:4b:69:12:82:26:55:e6:
                    14:bf:55:70:88:fe:f9:75:e1
                Exponent: 65537 (0x10001)
        X509v3 extensions:
            X509v3 Subject Key Identifier: 
                D9:3C:35:EA:74:0E:23:BE:9C:FC:FA:29:90:09:C1:E7:84:16:9F:7C
            X509v3 Authority Key Identifier: 
                keyid:D3:22:8F:28:2C:E0:05:EE:D3:ED:C3:71:3D:C9:B2:36:3A:1D:BF:A8
                DirName:/C=US/ST=Montana/L=Bozeman/O=Sawtooth/OU=Consulting_1024/CN=www.wolfssl.com/emailAddress=info@wolfssl.com
                serial:CE:E3:FF:31:10:46:D2:76

            X509v3 Basic Constraints: 
                CA:TRUE
    Signature Algorithm: sha256WithRSAEncryption
         01:b4:45:a2:b5:7f:2e:76:60:89:2e:a4:9b:c3:06:38:90:68:
         7a:6e:98:a8:ad:40:30:32:78:cf:4f:0c:e0:72:51:9a:21:b9:
         92:26:36:94:e2:c9:dd:9a:61:0d:a5:b8:cf:06:91:46:82:d2:
         7a:57:de:59:48:71:68:79:cc:d8:99:43:2a:af:30:b0:88:76:
         ad:1a:40:4e:f8:ab:07:f0:64:c8:77:b0:e3:4e:ad:3e:3f:e0:
         71:a0:a2:96:08:8f:6f:a4:e0:6e:49:7d:e7:35:41:e9:da:1f:
         c7:f5:97:01:81:3d:64:68:ad:f5:d3:fa:1a:e5:ba:15:d3:ce:
         d0:8f
-----BEGIN CERTIFICATE-----
MIIDqTCCAxKgAwIBAgIBATANBgkqhkiG9w0BAQsFADCBmTELMAkGA1UEBhMCVVMx
EDAOBgNVBAgMB01vbnRhbmExEDAOBgNVBAcMB0JvemVtYW4xETAPBgNVBAoMCFNh
d3Rvb3RoMRgwFgYDVQQLDA9Db25zdWx0aW5nXzEwMjQxGDAWBgNVBAMMD3d3dy53
b2xmc3NsLmNvbTEfMB0GCSqGSIb3DQEJARYQaW5mb0B3b2xmc3NsLmNvbTAeFw0x
NjA3MjUxODU2MzRaFw0xOTA0MjExODU2MzRaMIGVMQswCQYDVQQGEwJVUzEQMA4G
A1UECAwHTW9udGFuYTEQMA4GA1UEBwwHQm96ZW1hbjEQMA4GA1UECgwHd29sZlNT
TDEVMBMGA1UECwwMU3VwcG9ydF8xMDI0MRgwFgYDVQQDDA93d3cud29sZnNzbC5j
b20xHzAdBgkqhkiG9w0BCQEWEGluZm9Ad29sZnNzbC5jb20wgZ8wDQYJKoZIhvcN
AQEBBQADgY0AMIGJAoGBAKo+pZzTF0llQ97Q80sc20kM/HplBW3easTkcyyKloKP
I6UGcRwGPi+SjQspNEVZ6am8YdckN121xDeNumey7wMn+sG0zWsAZrTWc3AfCDrM
d63p+TTU86AtqedYqcBhhLbsPQqt/VyGc6prR9iLLlhLaRKCJlXmFL9VcIj++XXh
AgMBAAGjggEBMIH+MB0GA1UdDgQWBBTZPDXqdA4jvpz8+imQCcHnhBaffDCBzgYD
VR0jBIHGMIHDgBTTIo8oLOAF7tPtw3E9ybI2Oh2/qKGBn6SBnDCBmTELMAkGA1UE
BhMCVVMxEDAOBgNVBAgMB01vbnRhbmExEDAOBgNVBAcMB0JvemVtYW4xETAPBgNV
BAoMCFNhd3Rvb3RoMRgwFgYDVQQLDA9Db25zdWx0aW5nXzEwMjQxGDAWBgNVBAMM
D3d3dy53b2xmc3NsLmNvbTEfMB0GCSqGSIb3DQEJARYQaW5mb0B3b2xmc3NsLmNv
bYIJAM7j/zEQRtJ2MAwGA1UdEwQFMAMBAf8wDQYJKoZIhvcNAQELBQADgYEAAbRF
orV/LnZgiS6km8MGOJBoem6YqK1AMDJ4z08M4HJRmiG5kiY2lOLJ3ZphDaW4zwaR
RoLSelfeWUhxaHnM2JlDKq8wsIh2rRpATvirB/BkyHew406tPj/gcaCilgiPb6Tg
bkl95zVB6dofx/WXAYE9ZGit9dP6GuW6FdPO0I8=
-----END CERTIFICATE-----
Certificate:
    Data:
        Version: 3 (0x2)
        Serial Number:
            ce:e3:ff:31:10:46:d2:76
    Signature Algorithm: sha256WithRSAEncryption
        Issuer: C=US, ST=Montana, L=Bozeman, O=Sawtooth, OU=Consulting_1024, CN=www.wolfssl.com/emailAddress=info@wolfssl.com
        Validity
            Not Before: Jul 25 18:56:34 2016 GMT
            Not After : Apr 21 18:56:34 2019 GMT
        Subject: C=US, ST=Montana, L=Bozeman, O=Sawtooth, OU=Consulting_1024, CN=www.wolfssl.com/emailAddress=info@wolfssl.com
        Subject Public Key Info:
            Public Key Algorithm: rsaEncryption
                Public-Key: (1024 bit)
                Modulus:
                    00:cd:ac:dd:47:ec:be:b7:24:c3:63:1b:54:98:79:
                    e1:c7:31:16:59:d6:9d:77:9d:8d:e2:8b:ed:04:17:
                    b2:c6:eb:e4:9b:91:be:31:50:62:97:58:b5:7f:29:
                    de:b3:71:24:0b:bf:97:09:7f:26:dc:2d:ec:a8:2e:
                    b2:64:2b:7a:2b:35:19:2d:a2:80:cb:99:fd:94:71:
                    1b:23:8d:54:db:2e:62:8d:81:08:2d:f4:24:72:27:
                    6c:f9:c9:8e:db:4c:75:ba:9b:01:f8:3f:18:f4:e6:
                    7f:fb:57:94:92:cc:88:c4:b4:00:c2:aa:d4:e5:88:
                    18:b3:11:2f:73:c0:d6:29:09
                Exponent: 65537 (0x10001)
        X509v3 extensions:
            X509v3 Subject Key Identifier: 
                D3:22:8F:28:2C:E0:05:EE:D3:ED:C3:71:3D:C9:B2:36:3A:1D:BF:A8
            X509v3 Authority Key Identifier: 
                keyid:D3:22:8F:28:2C:E0:05:EE:D3:ED:C3:71:3D:C9:B2:36:3A:1D:BF:A8
                DirName:/C=US/ST=Montana/L=Bozeman/O=Sawtooth/OU=Consulting_1024/CN=www.wolfssl.com/emailAddress=info@wolfssl.com
                serial:CE:E3:FF:31:10:46:D2:76

            X509v3 Basic Constraints: 
                CA:TRUE
    Signature Algorithm: sha256WithRSAEncryption
         95:09:cc:95:d1:ff:84:5b:1e:b4:96:51:58:40:7a:68:c7:7d:
         5e:5c:27:f7:15:65:50:ce:02:29:13:6c:5e:2d:68:c7:f2:bd:
         eb:6d:ae:fe:5e:8f:05:32:e4:26:f0:f7:f9:64:92:e5:cf:f5:
         60:65:71:fa:47:74:dd:2b:c1:c7:e0:e3:a5:6e:97:c6:d8:c0:
         90:ff:9d:94:65:85:73:b2:c7:35:ec:d3:44:b5:8f:53:fb:c9:
         21:ee:93:5f:1c:d6:0d:d9:b4:c3:0d:74:87:ae:c7:b1:42:be:
         69:67:db:1c:79:09:c0:69:ac:4a:7d:ea:24:aa:48:99:3e:32:
         76:cb
-----BEGIN CERTIFICATE-----
MIIDtTCCAx6gAwIBAgIJAM7j/zEQRtJ2MA0GCSqGSIb3DQEBCwUAMIGZMQswCQYD
VQQGEwJVUzEQMA4GA1UECAwHTW9udGFuYTEQMA4GA1UEBwwHQm96ZW1hbjERMA8G
A1UECgwIU2F3dG9vdGgxGDAWBgNVBAsMD0NvbnN1bHRpbmdfMTAyNDEYMBYGA1UE
AwwPd3d3LndvbGZzc2wuY29tMR8wHQYJKoZIhvcNAQkBFhBpbmZvQHdvbGZzc2wu
Y29tMB4XDTE2MDcyNTE4NTYzNFoXDTE5MDQyMTE4NTYzNFowgZkxCzAJBgNVBAYT
AlVTMRAwDgYDVQQIDAdNb250YW5hMRAwDgYDVQQHDAdCb3plbWFuMREwDwYDVQQK
DAhTYXd0b290aDEYMBYGA1UECwwPQ29uc3VsdGluZ18xMDI0MRgwFgYDVQQDDA93
d3cud29sZnNzbC5jb20xHzAdBgkqhkiG9w0BCQEWEGluZm9Ad29sZnNzbC5jb20w
gZ8wDQYJKoZIhvcNAQEBBQADgY0AMIGJAoGBAM2s3Ufsvrckw2MbVJh54ccxFlnW
nXedjeKL7QQXssbr5JuRvjFQYpdYtX8p3rNxJAu/lwl/Jtwt7KgusmQreis1GS2i
gMuZ/ZRxGyONVNsuYo2BCC30JHInbPnJjttMdbqbAfg/GPTmf/tXlJLMiMS0AMKq
1OWIGLMRL3PA1ikJAgMBAAGjggEBMIH+MB0GA1UdDgQWBBTTIo8oLOAF7tPtw3E9
ybI2Oh2/qDCBzgYDVR0jBIHGMIHDgBTTIo8oLOAF7tPtw3E9ybI2Oh2/qKGBn6SB
nDCBmTELMAkGA1UEBhMCVVMxEDAOBgNVBAgMB01vbnRhbmExEDAOBgNVBAcMB0Jv
emVtYW4xETAPBgNVBAoMCFNhd3Rvb3RoMRgwFgYDVQQLDA9Db25zdWx0aW5nXzEw
MjQxGDAWBgNVBAMMD3d3dy53b2xmc3NsLmNvbTEfMB0GCSqGSIb3DQEJARYQaW5m
b0B3b2xmc3NsLmNvbYIJAM7j/zEQRtJ2MAwGA1UdEwQFMAMBAf8wDQYJKoZIhvcN
AQELBQADgYEAlQnMldH/hFsetJZRWEB6aMd9Xlwn9xVlUM4CKRNsXi1ox/K9622u
/l6PBTLkJvD3+WSS5c/1YGVx+kd03SvBx+DjpW6XxtjAkP+dlGWFc7LHNezTRLWP
U/vJIe6TXxzWDdm0ww10h67HsUK+aWfbHHkJwGmsSn3qJKpImT4ydss=
-----END CERTIFICATE-----
