Certificate:
    Data:
        Version: 3 (0x2)
        Serial Number: 1 (0x1)
        Signature Algorithm: sha256WithRSAEncryption
        Issuer: C = US, ST = Montana, L = Bozeman, O = Sawtooth, OU = Consulting_1024, CN = www.wolfssl.com, emailAddress = info@wolfssl.com
        Validity
            Not Before: Feb 15 12:50:24 2022 GMT
            Not After : Nov 11 12:50:24 2024 GMT
        Subject: C = US, ST = Montana, L = Bozeman, O = wolfSSL, OU = Support_1024, CN = www.wolfssl.com, emailAddress = info@wolfssl.com
        Subject Public Key Info:
            Public Key Algorithm: rsaEncryption
                RSA Public-Key: (1024 bit)
                Modulus:
                    00:aa:3e:a5:9c:d3:17:49:65:43:de:d0:f3:4b:1c:
                    db:49:0c:fc:7a:65:05:6d:de:6a:c4:e4:73:2c:8a:
                    96:82:8f:23:a5:06:71:1c:06:3e:2f:92:8d:0b:29:
                    34:45:59:e9:a9:bc:61:d7:24:37:5d:b5:c4:37:8d:
                    ba:67:b2:ef:03:27:fa:c1:b4:cd:6b:00:66:b4:d6:
                    73:70:1f:08:3a:cc:77:ad:e9:f9:34:d4:f3:a0:2d:
                    a9:e7:58:a9:c0:61:84:b6:ec:3d:0a:ad:fd:5c:86:
                    73:aa:6b:47:d8:8b:2e:58:4b:69:12:82:26:55:e6:
                    14:bf:55:70:88:fe:f9:75:e1
                Exponent: 65537 (0x10001)
        X509v3 extensions:
            X509v3 Subject Key Identifier: 
                D9:3C:35:EA:74:0E:23:BE:9C:FC:FA:29:90:09:C1:E7:84:16:9F:7C
            X509v3 Authority Key Identifier: 
                keyid:D3:22:8F:28:2C:E0:05:EE:D3:ED:C3:71:3D:C9:B2:36:3A:1D:BF:A8
                DirName:/C=US/ST=Montana/L=Bozeman/O=Sawtooth/OU=Consulting_1024/CN=www.wolfssl.com/emailAddress=info@wolfssl.com
                serial:24:68:39:B1:3A:A2:29:1C:7C:95:9A:41:32:E9:A9:B3:B3:AA:87:39

            X509v3 Basic Constraints: 
                CA:TRUE
            X509v3 Subject Alternative Name: 
                DNS:example.com, IP Address:127.0.0.1
            X509v3 Extended Key Usage: 
                TLS Web Server Authentication, TLS Web Client Authentication
    Signature Algorithm: sha256WithRSAEncryption
         8f:42:fd:7a:d5:67:3f:c4:f5:7b:0f:31:c9:77:3f:4f:e7:40:
         70:87:81:b6:8d:cd:88:79:2c:1f:53:a1:e5:89:a2:73:ca:53:
         6b:b8:fb:6b:a8:db:62:fe:7d:49:4c:32:c1:f9:cc:dd:60:92:
         4b:cc:6d:82:56:c6:88:34:96:f7:ff:23:a4:67:f0:89:c4:1e:
         db:dc:65:88:44:b1:d9:eb:5a:69:05:c0:d5:db:b9:d3:2f:6d:
         64:e3:0f:98:b0:17:52:70:bb:49:1b:d4:84:0e:ec:4f:4c:97:
         26:a0:8c:72:a1:ae:bf:a9:3a:76:7c:cb:e7:0d:05:1a:5c:0c:
         15:e7
-----BEGIN CERTIFICATE-----
MIID8jCCA1ugAwIBAgIBATANBgkqhkiG9w0BAQsFADCBmTELMAkGA1UEBhMCVVMx
EDAOBgNVBAgMB01vbnRhbmExEDAOBgNVBAcMB0JvemVtYW4xETAPBgNVBAoMCFNh
d3Rvb3RoMRgwFgYDVQQLDA9Db25zdWx0aW5nXzEwMjQxGDAWBgNVBAMMD3d3dy53
b2xmc3NsLmNvbTEfMB0GCSqGSIb3DQEJARYQaW5mb0B3b2xmc3NsLmNvbTAeFw0y
MjAyMTUxMjUwMjRaFw0yNDExMTExMjUwMjRaMIGVMQswCQYDVQQGEwJVUzEQMA4G
A1UECAwHTW9udGFuYTEQMA4GA1UEBwwHQm96ZW1hbjEQMA4GA1UECgwHd29sZlNT
TDEVMBMGA1UECwwMU3VwcG9ydF8xMDI0MRgwFgYDVQQDDA93d3cud29sZnNzbC5j
b20xHzAdBgkqhkiG9w0BCQEWEGluZm9Ad29sZnNzbC5jb20wgZ8wDQYJKoZIhvcN
AQEBBQADgY0AMIGJAoGBAKo+pZzTF0llQ97Q80sc20kM/HplBW3easTkcyyKloKP
I6UGcRwGPi+SjQspNEVZ6am8YdckN121xDeNumey7wMn+sG0zWsAZrTWc3AfCDrM
d63p+TTU86AtqedYqcBhhLbsPQqt/VyGc6prR9iLLlhLaRKCJlXmFL9VcIj++XXh
AgMBAAGjggFKMIIBRjAdBgNVHQ4EFgQU2Tw16nQOI76c/PopkAnB54QWn3wwgdkG
A1UdIwSB0TCBzoAU0yKPKCzgBe7T7cNxPcmyNjodv6ihgZ+kgZwwgZkxCzAJBgNV
BAYTAlVTMRAwDgYDVQQIDAdNb250YW5hMRAwDgYDVQQHDAdCb3plbWFuMREwDwYD
VQQKDAhTYXd0b290aDEYMBYGA1UECwwPQ29uc3VsdGluZ18xMDI0MRgwFgYDVQQD
DA93d3cud29sZnNzbC5jb20xHzAdBgkqhkiG9w0BCQEWEGluZm9Ad29sZnNzbC5j
b22CFCRoObE6oikcfJWaQTLpqbOzqoc5MAwGA1UdEwQFMAMBAf8wHAYDVR0RBBUw
E4ILZXhhbXBsZS5jb22HBH8AAAEwHQYDVR0lBBYwFAYIKwYBBQUHAwEGCCsGAQUF
BwMCMA0GCSqGSIb3DQEBCwUAA4GBAI9C/XrVZz/E9XsPMcl3P0/nQHCHgbaNzYh5
LB9ToeWJonPKU2u4+2uo22L+fUlMMsH5zN1gkkvMbYJWxog0lvf/I6Rn8InEHtvc
ZYhEsdnrWmkFwNXbudMvbWTjD5iwF1Jwu0kb1IQO7E9MlyagjHKhrr+pOnZ8y+cN
BRpcDBXn
-----END CERTIFICATE-----
Certificate:
    Data:
        Version: 3 (0x2)
        Serial Number:
            24:68:39:b1:3a:a2:29:1c:7c:95:9a:41:32:e9:a9:b3:b3:aa:87:39
        Signature Algorithm: sha256WithRSAEncryption
        Issuer: C = US, ST = Montana, L = Bozeman, O = Sawtooth, OU = Consulting_1024, CN = www.wolfssl.com, emailAddress = info@wolfssl.com
        Validity
            Not Before: Feb 15 12:50:24 2022 GMT
            Not After : Nov 11 12:50:24 2024 GMT
        Subject: C = US, ST = Montana, L = Bozeman, O = Sawtooth, OU = Consulting_1024, CN = www.wolfssl.com, emailAddress = info@wolfssl.com
        Subject Public Key Info:
            Public Key Algorithm: rsaEncryption
                RSA Public-Key: (1024 bit)
                Modulus:
                    00:cd:ac:dd:47:ec:be:b7:24:c3:63:1b:54:98:79:
                    e1:c7:31:16:59:d6:9d:77:9d:8d:e2:8b:ed:04:17:
                    b2:c6:eb:e4:9b:91:be:31:50:62:97:58:b5:7f:29:
                    de:b3:71:24:0b:bf:97:09:7f:26:dc:2d:ec:a8:2e:
                    b2:64:2b:7a:2b:35:19:2d:a2:80:cb:99:fd:94:71:
                    1b:23:8d:54:db:2e:62:8d:81:08:2d:f4:24:72:27:
                    6c:f9:c9:8e:db:4c:75:ba:9b:01:f8:3f:18:f4:e6:
                    7f:fb:57:94:92:cc:88:c4:b4:00:c2:aa:d4:e5:88:
                    18:b3:11:2f:73:c0:d6:29:09
                Exponent: 65537 (0x10001)
        X509v3 extensions:
            X509v3 Subject Key Identifier: 
                D3:22:8F:28:2C:E0:05:EE:D3:ED:C3:71:3D:C9:B2:36:3A:1D:BF:A8
            X509v3 Authority Key Identifier: 
                keyid:D3:22:8F:28:2C:E0:05:EE:D3:ED:C3:71:3D:C9:B2:36:3A:1D:BF:A8
                DirName:/C=US/ST=Montana/L=Bozeman/O=Sawtooth/OU=Consulting_1024/CN=www.wolfssl.com/emailAddress=info@wolfssl.com
                serial:24:68:39:B1:3A:A2:29:1C:7C:95:9A:41:32:E9:A9:B3:B3:AA:87:39

            X509v3 Basic Constraints: 
                CA:TRUE
            X509v3 Subject Alternative Name: 
                DNS:example.com, IP Address:127.0.0.1
            X509v3 Extended Key Usage: 
                TLS Web Server Authentication, TLS Web Client Authentication
    Signature Algorithm: sha256WithRSAEncryption
         5b:33:ee:3a:51:8f:c7:b1:bc:d9:d6:16:b6:1a:99:78:93:2d:
         13:f0:a7:f8:5d:a9:78:e0:2a:dd:f1:2e:a0:31:04:25:84:b2:
         5c:37:a6:fd:20:92:a3:88:63:9f:04:3d:f2:3b:1e:0d:8c:c4:
         b8:d1:49:e6:8e:56:8d:c6:ac:00:fa:ab:8b:64:79:90:62:fe:
         7f:41:3b:77:ae:5b:4e:f7:b3:a2:68:38:80:ed:42:54:b8:3e:
         94:63:a6:45:eb:cd:6e:8d:7d:d5:5e:ff:1f:5d:ef:52:2e:ce:
         e1:70:7e:0d:0b:39:20:b1:f3:d3:55:bc:1f:95:3b:1e:f6:51:
         0b:ba
-----BEGIN CERTIFICATE-----
MIIECTCCA3KgAwIBAgIUJGg5sTqiKRx8lZpBMumps7OqhzkwDQYJKoZIhvcNAQEL
BQAwgZkxCzAJBgNVBAYTAlVTMRAwDgYDVQQIDAdNb250YW5hMRAwDgYDVQQHDAdC
b3plbWFuMREwDwYDVQQKDAhTYXd0b290aDEYMBYGA1UECwwPQ29uc3VsdGluZ18x
MDI0MRgwFgYDVQQDDA93d3cud29sZnNzbC5jb20xHzAdBgkqhkiG9w0BCQEWEGlu
Zm9Ad29sZnNzbC5jb20wHhcNMjIwMjE1MTI1MDI0WhcNMjQxMTExMTI1MDI0WjCB
mTELMAkGA1UEBhMCVVMxEDAOBgNVBAgMB01vbnRhbmExEDAOBgNVBAcMB0JvemVt
YW4xETAPBgNVBAoMCFNhd3Rvb3RoMRgwFgYDVQQLDA9Db25zdWx0aW5nXzEwMjQx
GDAWBgNVBAMMD3d3dy53b2xmc3NsLmNvbTEfMB0GCSqGSIb3DQEJARYQaW5mb0B3
b2xmc3NsLmNvbTCBnzANBgkqhkiG9w0BAQEFAAOBjQAwgYkCgYEAzazdR+y+tyTD
YxtUmHnhxzEWWdadd52N4ovtBBeyxuvkm5G+MVBil1i1fynes3EkC7+XCX8m3C3s
qC6yZCt6KzUZLaKAy5n9lHEbI41U2y5ijYEILfQkcids+cmO20x1upsB+D8Y9OZ/
+1eUksyIxLQAwqrU5YgYsxEvc8DWKQkCAwEAAaOCAUowggFGMB0GA1UdDgQWBBTT
Io8oLOAF7tPtw3E9ybI2Oh2/qDCB2QYDVR0jBIHRMIHOgBTTIo8oLOAF7tPtw3E9
ybI2Oh2/qKGBn6SBnDCBmTELMAkGA1UEBhMCVVMxEDAOBgNVBAgMB01vbnRhbmEx
EDAOBgNVBAcMB0JvemVtYW4xETAPBgNVBAoMCFNhd3Rvb3RoMRgwFgYDVQQLDA9D
b25zdWx0aW5nXzEwMjQxGDAWBgNVBAMMD3d3dy53b2xmc3NsLmNvbTEfMB0GCSqG
SIb3DQEJARYQaW5mb0B3b2xmc3NsLmNvbYIUJGg5sTqiKRx8lZpBMumps7Oqhzkw
DAYDVR0TBAUwAwEB/zAcBgNVHREEFTATggtleGFtcGxlLmNvbYcEfwAAATAdBgNV
HSUEFjAUBggrBgEFBQcDAQYIKwYBBQUHAwIwDQYJKoZIhvcNAQELBQADgYEAWzPu
OlGPx7G82dYWthqZeJMtE/Cn+F2peOAq3fEuoDEEJYSyXDem/SCSo4hjnwQ98jse
DYzEuNFJ5o5WjcasAPqri2R5kGL+f0E7d65bTvezomg4gO1CVLg+lGOmRevNbo19
1V7/H13vUi7O4XB+DQs5ILHz01W8H5U7HvZRC7o=
-----END CERTIFICATE-----
