Certificate:
    Data:
        Version: 3 (0x2)
        Serial Number:
            50:1c:b0:48:9d:77:d5:1e:2e:50:f9:e8:3c:c4:09:ba:e2:0a:e8:d2
        Signature Algorithm: sha256WithRSAEncryption
        Issuer: C=US, ST=Montana, L=Bozeman, O=wolfSSL_3072, OU=Programming-3072, CN=www.wolfssl.com, emailAddress=facts@wolfssl.com
        Validity
            Not Before: Jun 11 21:44:28 2026 GMT
            Not After : Mar  7 21:44:28 2029 GMT
        Subject: C=US, ST=Montana, L=Bozeman, O=wolfSSL_3072, OU=Programming-3072, CN=www.wolfssl.com, emailAddress=facts@wolfssl.com
        Subject Public Key Info:
            Public Key Algorithm: rsaEncryption
                Public-Key: (3072 bit)
                Modulus:
                    00:ac:39:50:68:8f:78:f8:10:9b:68:96:d3:e1:9c:
                    56:68:5a:41:62:e3:b3:41:b0:55:80:17:b0:88:16:
                    9b:e0:97:74:5f:42:79:73:42:df:93:f3:aa:9d:ee:
                    2d:6f:aa:bc:27:90:84:c0:5d:c7:ec:49:ea:5c:66:
                    1d:70:9c:53:5c:ba:a1:b3:58:c9:3e:8e:9b:72:3d:
                    6e:02:02:00:9c:65:56:82:a3:22:b4:08:5f:2a:ef:
                    df:9a:d0:e7:31:59:26:5b:0b:1c:63:61:ff:d5:69:
                    32:19:06:7e:0f:40:3c:7a:1e:c8:fc:58:6c:64:ae:
                    10:3d:a8:23:ff:8e:1a:ca:6a:82:e2:f9:01:64:2c:
                    97:a0:1a:89:a0:74:d3:b6:05:11:f2:62:06:48:2a:
                    f7:66:ce:c1:85:e1:d2:27:ea:ca:12:a5:91:97:3e:
                    fc:94:06:59:51:c0:e7:13:b6:87:7b:5f:d2:c0:56:
                    2f:5e:1d:02:c3:11:2c:df:f7:01:da:bd:85:54:35:
                    32:5f:c5:c8:f9:7a:9f:89:f7:03:0e:7e:79:5d:04:
                    82:35:10:fe:6d:9b:bf:b8:ee:e2:62:87:26:5e:2f:
                    50:2f:78:0c:e8:73:4f:88:6a:d6:26:a4:c9:fc:fa:
                    1e:8a:b0:f4:32:cf:57:cd:a1:58:8a:49:0f:bb:a9:
                    1d:86:ab:b9:8f:8d:57:19:b2:5a:7e:a4:ea:cc:b7:
                    96:7a:3b:38:cd:de:e0:61:fc:c9:06:8f:93:5a:ce:
                    ad:2a:e3:2d:3e:39:5d:41:83:01:1f:0f:e1:7f:76:
                    c7:28:da:56:ef:bf:dc:26:35:40:be:ad:c7:38:ad:
                    a4:06:ac:ca:e8:51:eb:c0:f8:68:02:2c:9b:a1:14:
                    bc:f8:61:86:d7:56:d7:73:f4:ab:bb:6a:21:d3:88:
                    22:b4:e7:6f:7f:91:e5:0e:c6:08:49:de:ea:13:58:
                    72:a0:aa:3a:f9:36:03:45:57:5e:87:d2:73:65:c4:
                    8c:a3:ee:c9:d6:73:7c:96:41:93
                Exponent: 65537 (0x10001)
        X509v3 extensions:
            X509v3 Subject Key Identifier: 
                3D:D1:84:C2:AF:B0:20:49:BC:74:87:41:38:AB:BA:D2:D4:0C:A3:A8
            X509v3 Authority Key Identifier: 
                keyid:3D:D1:84:C2:AF:B0:20:49:BC:74:87:41:38:AB:BA:D2:D4:0C:A3:A8
                DirName:/C=US/ST=Montana/L=Bozeman/O=wolfSSL_3072/OU=Programming-3072/CN=www.wolfssl.com/emailAddress=facts@wolfssl.com
                serial:50:1C:B0:48:9D:77:D5:1E:2E:50:F9:E8:3C:C4:09:BA:E2:0A:E8:D2
            X509v3 Basic Constraints: 
                CA:TRUE
            X509v3 Subject Alternative Name: 
                DNS:example.com, IP Address:127.0.0.1
            X509v3 Extended Key Usage: 
                TLS Web Server Authentication, TLS Web Client Authentication
    Signature Algorithm: sha256WithRSAEncryption
    Signature Value:
        3b:92:32:d2:d8:02:63:fd:d6:12:0a:0d:5c:9f:c4:b1:81:78:
        ca:7a:6b:e1:4b:91:d2:49:50:8f:06:8c:13:39:e0:1c:8a:d0:
        45:80:e5:4d:05:4c:49:67:c9:c2:57:4d:26:05:f3:c9:5c:19:
        6c:4f:f8:83:62:ee:75:90:0b:3e:18:f9:e9:40:7e:eb:f0:02:
        3c:05:8e:f9:62:3d:bd:6c:5b:e5:68:ed:25:72:d4:0d:7a:a2:
        09:e5:91:f2:ef:d0:2b:d6:e9:08:9b:87:d7:90:f9:ca:7e:7d:
        1d:8f:f4:c9:3d:eb:97:f3:fa:25:4c:3d:9f:5d:22:f9:f8:0f:
        2c:a7:41:78:5d:66:0a:8a:37:4d:e3:21:1c:f4:4e:27:ed:9b:
        dc:3a:33:2c:ae:d0:cf:26:d2:1b:34:e9:c1:d8:5f:4c:15:21:
        d9:d3:3d:7a:3f:e4:31:6f:b5:05:cd:1a:cf:aa:bd:fb:05:ec:
        91:f7:56:89:f0:c1:a8:2b:bc:97:6e:d3:5c:69:c2:ba:69:54:
        69:b2:ef:20:6f:30:b2:73:58:85:c0:83:13:14:4c:10:2f:44:
        c0:22:ed:da:0c:25:d1:84:a8:3c:c9:bc:c4:e5:dc:1f:fe:f4:
        d2:fd:e5:61:e7:e7:5f:4e:46:03:73:fb:0f:04:98:f1:bf:c0:
        a5:76:3d:45:ad:30:2d:28:2a:38:ac:a7:94:c5:3b:7c:5a:09:
        d5:ea:cd:13:05:cd:84:06:23:5c:a7:01:8e:da:a9:0a:8e:bb:
        80:a9:5a:68:b0:d8:71:f2:f0:f1:0d:00:e6:ee:f4:94:f5:2e:
        51:f2:93:db:a7:5d:f8:82:7d:dd:72:27:40:b7:86:2b:2b:d4:
        0c:43:17:0c:70:9c:55:c4:7b:28:1f:39:01:26:ff:c1:b4:5e:
        6a:17:90:ea:b6:b6:5d:18:d4:87:f4:ea:e5:74:1c:a2:5f:9c:
        13:5c:43:ed:a4:9d:2d:90:7c:e4:1d:80:1b:89:39:a4:9e:84:
        fa:f2:48:d6:82:d3
-----BEGIN CERTIFICATE-----
MIIGIDCCBIigAwIBAgIUUBywSJ131R4uUPnoPMQJuuIK6NIwDQYJKoZIhvcNAQEL
BQAwgZ8xCzAJBgNVBAYTAlVTMRAwDgYDVQQIDAdNb250YW5hMRAwDgYDVQQHDAdC
b3plbWFuMRUwEwYDVQQKDAx3b2xmU1NMXzMwNzIxGTAXBgNVBAsMEFByb2dyYW1t
aW5nLTMwNzIxGDAWBgNVBAMMD3d3dy53b2xmc3NsLmNvbTEgMB4GCSqGSIb3DQEJ
ARYRZmFjdHNAd29sZnNzbC5jb20wHhcNMjYwNjExMjE0NDI4WhcNMjkwMzA3MjE0
NDI4WjCBnzELMAkGA1UEBhMCVVMxEDAOBgNVBAgMB01vbnRhbmExEDAOBgNVBAcM
B0JvemVtYW4xFTATBgNVBAoMDHdvbGZTU0xfMzA3MjEZMBcGA1UECwwQUHJvZ3Jh
bW1pbmctMzA3MjEYMBYGA1UEAwwPd3d3LndvbGZzc2wuY29tMSAwHgYJKoZIhvcN
AQkBFhFmYWN0c0B3b2xmc3NsLmNvbTCCAaIwDQYJKoZIhvcNAQEBBQADggGPADCC
AYoCggGBAKw5UGiPePgQm2iW0+GcVmhaQWLjs0GwVYAXsIgWm+CXdF9CeXNC35Pz
qp3uLW+qvCeQhMBdx+xJ6lxmHXCcU1y6obNYyT6Om3I9bgICAJxlVoKjIrQIXyrv
35rQ5zFZJlsLHGNh/9VpMhkGfg9APHoeyPxYbGSuED2oI/+OGspqguL5AWQsl6Aa
iaB007YFEfJiBkgq92bOwYXh0ifqyhKlkZc+/JQGWVHA5xO2h3tf0sBWL14dAsMR
LN/3Adq9hVQ1Ml/FyPl6n4n3Aw5+eV0EgjUQ/m2bv7ju4mKHJl4vUC94DOhzT4hq
1iakyfz6Hoqw9DLPV82hWIpJD7upHYaruY+NVxmyWn6k6sy3lno7OM3e4GH8yQaP
k1rOrSrjLT45XUGDAR8P4X92xyjaVu+/3CY1QL6txzitpAasyuhR68D4aAIsm6EU
vPhhhtdW13P0q7tqIdOIIrTnb3+R5Q7GCEne6hNYcqCqOvk2A0VXXofSc2XEjKPu
ydZzfJZBkwIDAQABo4IBUDCCAUwwHQYDVR0OBBYEFD3RhMKvsCBJvHSHQTirutLU
DKOoMIHfBgNVHSMEgdcwgdSAFD3RhMKvsCBJvHSHQTirutLUDKOooYGlpIGiMIGf
MQswCQYDVQQGEwJVUzEQMA4GA1UECAwHTW9udGFuYTEQMA4GA1UEBwwHQm96ZW1h
bjEVMBMGA1UECgwMd29sZlNTTF8zMDcyMRkwFwYDVQQLDBBQcm9ncmFtbWluZy0z
MDcyMRgwFgYDVQQDDA93d3cud29sZnNzbC5jb20xIDAeBgkqhkiG9w0BCQEWEWZh
Y3RzQHdvbGZzc2wuY29tghRQHLBInXfVHi5Q+eg8xAm64gro0jAMBgNVHRMEBTAD
AQH/MBwGA1UdEQQVMBOCC2V4YW1wbGUuY29thwR/AAABMB0GA1UdJQQWMBQGCCsG
AQUFBwMBBggrBgEFBQcDAjANBgkqhkiG9w0BAQsFAAOCAYEAO5Iy0tgCY/3WEgoN
XJ/EsYF4ynpr4UuR0klQjwaMEzngHIrQRYDlTQVMSWfJwldNJgXzyVwZbE/4g2Lu
dZALPhj56UB+6/ACPAWO+WI9vWxb5WjtJXLUDXqiCeWR8u/QK9bpCJuH15D5yn59
HY/0yT3rl/P6JUw9n10i+fgPLKdBeF1mCoo3TeMhHPROJ+2b3DozLK7QzybSGzTp
wdhfTBUh2dM9ej/kMW+1Bc0az6q9+wXskfdWifDBqCu8l27TXGnCumlUabLvIG8w
snNYhcCDExRMEC9EwCLt2gwl0YSoPMm8xOXcH/700v3lYefnX05GA3P7DwSY8b/A
pXY9Ra0wLSgqOKynlMU7fFoJ1erNEwXNhAYjXKcBjtqpCo67gKlaaLDYcfLw8Q0A
5u70lPUuUfKT26dd+IJ93XInQLeGKyvUDEMXDHCcVcR7KB85ASb/wbReaheQ6ra2
XRjUh/Tq5XQcol+cE1xD7aSdLZB85B2AG4k5pJ6E+vJI1oLT
-----END CERTIFICATE-----
