Certificate:
    Data:
        Version: 3 (0x2)
        Serial Number:
            53:82:30:49:e8:be:64:59:2e:35:41:ac:31:0d:4d:25:21:54:90:a4
        Signature Algorithm: sha256WithRSAEncryption
        Issuer: C = US, ST = Montana, L = Bozeman, O = wolfSSL_3072, OU = Programming-3072, CN = www.wolfssl.com, emailAddress = info@wolfssl.com
        Validity
            Not Before: Jun 19 13:23:41 2020 GMT
            Not After : Mar 16 13:23:41 2023 GMT
        Subject: C = US, ST = Montana, L = Bozeman, O = wolfSSL_3072, OU = Programming-3072, CN = www.wolfssl.com, emailAddress = info@wolfssl.com
        Subject Public Key Info:
            Public Key Algorithm: rsaEncryption
                RSA Public-Key: (3072 bit)
                Modulus:
                    00:ac:39:50:68:8f:78:f8:10:9b:68:96:d3:e1:9c:
                    56:68:5a:41:62:e3:b3:41:b0:55:80:17:b0:88:16:
                    9b:e0:97:74:5f:42:79:73:42:df:93:f3:aa:9d:ee:
                    2d:6f:aa:bc:27:90:84:c0:5d:c7:ec:49:ea:5c:66:
                    1d:70:9c:53:5c:ba:a1:b3:58:c9:3e:8e:9b:72:3d:
                    6e:02:02:00:9c:65:56:82:a3:22:b4:08:5f:2a:ef:
                    df:9a:d0:e7:31:59:26:5b:0b:1c:63:61:ff:d5:69:
                    32:19:06:7e:0f:40:3c:7a:1e:c8:fc:58:6c:64:ae:
                    10:3d:a8:23:ff:8e:1a:ca:6a:82:e2:f9:01:64:2c:
                    97:a0:1a:89:a0:74:d3:b6:05:11:f2:62:06:48:2a:
                    f7:66:ce:c1:85:e1:d2:27:ea:ca:12:a5:91:97:3e:
                    fc:94:06:59:51:c0:e7:13:b6:87:7b:5f:d2:c0:56:
                    2f:5e:1d:02:c3:11:2c:df:f7:01:da:bd:85:54:35:
                    32:5f:c5:c8:f9:7a:9f:89:f7:03:0e:7e:79:5d:04:
                    82:35:10:fe:6d:9b:bf:b8:ee:e2:62:87:26:5e:2f:
                    50:2f:78:0c:e8:73:4f:88:6a:d6:26:a4:c9:fc:fa:
                    1e:8a:b0:f4:32:cf:57:cd:a1:58:8a:49:0f:bb:a9:
                    1d:86:ab:b9:8f:8d:57:19:b2:5a:7e:a4:ea:cc:b7:
                    96:7a:3b:38:cd:de:e0:61:fc:c9:06:8f:93:5a:ce:
                    ad:2a:e3:2d:3e:39:5d:41:83:01:1f:0f:e1:7f:76:
                    c7:28:da:56:ef:bf:dc:26:35:40:be:ad:c7:38:ad:
                    a4:06:ac:ca:e8:51:eb:c0:f8:68:02:2c:9b:a1:14:
                    bc:f8:61:86:d7:56:d7:73:f4:ab:bb:6a:21:d3:88:
                    22:b4:e7:6f:7f:91:e5:0e:c6:08:49:de:ea:13:58:
                    72:a0:aa:3a:f9:36:03:45:57:5e:87:d2:73:65:c4:
                    8c:a3:ee:c9:d6:73:7c:96:41:93
                Exponent: 65537 (0x10001)
        X509v3 extensions:
            X509v3 Subject Key Identifier: 
                3D:D1:84:C2:AF:B0:20:49:BC:74:87:41:38:AB:BA:D2:D4:0C:A3:A8
            X509v3 Authority Key Identifier: 
                keyid:3D:D1:84:C2:AF:B0:20:49:BC:74:87:41:38:AB:BA:D2:D4:0C:A3:A8
                DirName:/C=US/ST=Montana/L=Bozeman/O=wolfSSL_3072/OU=Programming-3072/CN=www.wolfssl.com/emailAddress=info@wolfssl.com
                serial:53:82:30:49:E8:BE:64:59:2E:35:41:AC:31:0D:4D:25:21:54:90:A4

            X509v3 Basic Constraints: 
                CA:TRUE
            X509v3 Subject Alternative Name: 
                DNS:example.com, IP Address:127.0.0.1
            X509v3 Extended Key Usage: 
                TLS Web Server Authentication, TLS Web Client Authentication
    Signature Algorithm: sha256WithRSAEncryption
         9e:c9:99:b8:8c:c1:a2:db:cb:78:73:5a:8a:8d:3b:f3:0a:2a:
         2f:ef:30:09:18:49:e1:f7:9f:8a:a2:33:ce:7c:ec:88:a3:3d:
         81:50:76:4b:2c:20:82:bc:99:30:82:7f:0e:33:9c:c8:02:9b:
         3c:de:3e:65:78:2d:6e:27:39:4f:c4:18:d3:96:23:a3:2d:91:
         57:90:52:bd:7d:12:3d:bf:7d:b1:35:2e:a6:be:26:95:3c:04:
         5c:20:6c:d8:e5:36:b2:e1:7b:0f:a1:2c:1f:28:3c:19:cb:c4:
         69:bb:59:b4:99:13:f2:e5:f5:6c:23:d3:69:3b:01:b7:5a:a1:
         be:f6:70:00:6c:9c:2e:2f:22:ea:4c:7c:72:e3:99:21:a9:dd:
         ba:8d:16:5c:88:f7:c0:99:c2:8e:83:10:3d:ea:c8:11:77:6a:
         e5:78:47:92:33:ec:aa:35:8c:13:f0:4c:9d:dd:35:56:42:35:
         36:ce:d8:46:d8:d7:d4:84:a1:17:bc:57:09:cb:da:56:d2:76:
         ac:6a:c0:b3:71:a3:1c:d3:2c:ea:f6:4c:9a:4d:dd:3a:ce:10:
         33:f0:82:34:70:71:5d:6f:77:8f:ec:a2:77:7d:1c:9e:7f:55:
         6b:e5:d3:29:49:3d:77:fd:5f:bb:ca:7a:b9:80:b5:81:69:a3:
         38:a3:c6:96:d2:21:1d:85:08:47:59:a9:d4:92:8e:94:3f:5a:
         a1:36:d7:92:b7:2f:ce:f0:a8:40:50:ae:3f:d0:20:39:86:a6:
         a1:7c:4f:23:5c:9c:5f:da:93:75:d6:93:b1:5f:30:25:76:6c:
         77:8f:f8:8e:15:ae:66:5b:7d:ee:d3:49:ae:c6:1c:b0:90:96:
         5d:36:9e:12:4c:98:4a:f1:d1:6b:a4:7f:76:cb:51:f9:f2:52:
         07:e4:60:6f:67:6f:e3:a3:84:c0:43:0d:fd:f6:25:9e:3c:d3:
         41:e9:44:c5:f7:b9:11:3b:0f:dc:9c:e3:dd:f2:ac:06:b3:20:
         14:2d:6c:db:8e:78
-----BEGIN CERTIFICATE-----
MIIGHTCCBIWgAwIBAgIUU4IwSei+ZFkuNUGsMQ1NJSFUkKQwDQYJKoZIhvcNAQEL
BQAwgZ4xCzAJBgNVBAYTAlVTMRAwDgYDVQQIDAdNb250YW5hMRAwDgYDVQQHDAdC
b3plbWFuMRUwEwYDVQQKDAx3b2xmU1NMXzMwNzIxGTAXBgNVBAsMEFByb2dyYW1t
aW5nLTMwNzIxGDAWBgNVBAMMD3d3dy53b2xmc3NsLmNvbTEfMB0GCSqGSIb3DQEJ
ARYQaW5mb0B3b2xmc3NsLmNvbTAeFw0yMDA2MTkxMzIzNDFaFw0yMzAzMTYxMzIz
NDFaMIGeMQswCQYDVQQGEwJVUzEQMA4GA1UECAwHTW9udGFuYTEQMA4GA1UEBwwH
Qm96ZW1hbjEVMBMGA1UECgwMd29sZlNTTF8zMDcyMRkwFwYDVQQLDBBQcm9ncmFt
bWluZy0zMDcyMRgwFgYDVQQDDA93d3cud29sZnNzbC5jb20xHzAdBgkqhkiG9w0B
CQEWEGluZm9Ad29sZnNzbC5jb20wggGiMA0GCSqGSIb3DQEBAQUAA4IBjwAwggGK
AoIBgQCsOVBoj3j4EJtoltPhnFZoWkFi47NBsFWAF7CIFpvgl3RfQnlzQt+T86qd
7i1vqrwnkITAXcfsSepcZh1wnFNcuqGzWMk+jptyPW4CAgCcZVaCoyK0CF8q79+a
0OcxWSZbCxxjYf/VaTIZBn4PQDx6Hsj8WGxkrhA9qCP/jhrKaoLi+QFkLJegGomg
dNO2BRHyYgZIKvdmzsGF4dIn6soSpZGXPvyUBllRwOcTtod7X9LAVi9eHQLDESzf
9wHavYVUNTJfxcj5ep+J9wMOfnldBII1EP5tm7+47uJihyZeL1AveAzoc0+IatYm
pMn8+h6KsPQyz1fNoViKSQ+7qR2Gq7mPjVcZslp+pOrMt5Z6OzjN3uBh/MkGj5Na
zq0q4y0+OV1BgwEfD+F/dsco2lbvv9wmNUC+rcc4raQGrMroUevA+GgCLJuhFLz4
YYbXVtdz9Ku7aiHTiCK0529/keUOxghJ3uoTWHKgqjr5NgNFV16H0nNlxIyj7snW
c3yWQZMCAwEAAaOCAU8wggFLMB0GA1UdDgQWBBQ90YTCr7AgSbx0h0E4q7rS1Ayj
qDCB3gYDVR0jBIHWMIHTgBQ90YTCr7AgSbx0h0E4q7rS1AyjqKGBpKSBoTCBnjEL
MAkGA1UEBhMCVVMxEDAOBgNVBAgMB01vbnRhbmExEDAOBgNVBAcMB0JvemVtYW4x
FTATBgNVBAoMDHdvbGZTU0xfMzA3MjEZMBcGA1UECwwQUHJvZ3JhbW1pbmctMzA3
MjEYMBYGA1UEAwwPd3d3LndvbGZzc2wuY29tMR8wHQYJKoZIhvcNAQkBFhBpbmZv
QHdvbGZzc2wuY29tghRTgjBJ6L5kWS41QawxDU0lIVSQpDAMBgNVHRMEBTADAQH/
MBwGA1UdEQQVMBOCC2V4YW1wbGUuY29thwR/AAABMB0GA1UdJQQWMBQGCCsGAQUF
BwMBBggrBgEFBQcDAjANBgkqhkiG9w0BAQsFAAOCAYEAnsmZuIzBotvLeHNaio07
8woqL+8wCRhJ4fefiqIzznzsiKM9gVB2SywggryZMIJ/DjOcyAKbPN4+ZXgtbic5
T8QY05Yjoy2RV5BSvX0SPb99sTUupr4mlTwEXCBs2OU2suF7D6EsHyg8GcvEabtZ
tJkT8uX1bCPTaTsBt1qhvvZwAGycLi8i6kx8cuOZIanduo0WXIj3wJnCjoMQPerI
EXdq5XhHkjPsqjWME/BMnd01VkI1Ns7YRtjX1IShF7xXCcvaVtJ2rGrAs3GjHNMs
6vZMmk3dOs4QM/CCNHBxXW93j+yid30cnn9Va+XTKUk9d/1fu8p6uYC1gWmjOKPG
ltIhHYUIR1mp1JKOlD9aoTbXkrcvzvCoQFCuP9AgOYamoXxPI1ycX9qTddaTsV8w
JXZsd4/4jhWuZlt97tNJrsYcsJCWXTaeEkyYSvHRa6R/dstR+fJSB+Rgb2dv46OE
wEMN/fYlnjzTQelExfe5ETsP3Jzj3fKsBrMgFC1s2454
-----END CERTIFICATE-----
