Certificate:
    Data:
        Version: 3 (0x2)
        Serial Number:
            1e:d5:b7:66:40:3a:e9:9b:dd:58:e4:e4:9a:c0:da:1e:d7:b9:5a:1f
        Signature Algorithm: sha256WithRSAEncryption
        Issuer: C = US, ST = Montana, L = Bozeman, O = wolfSSL_3072, OU = Programming-3072, CN = www.wolfssl.com, emailAddress = info@wolfssl.com
        Validity
            Not Before: Dec 18 21:25:29 2024 GMT
            Not After : Sep 14 21:25:29 2027 GMT
        Subject: C = US, ST = Montana, L = Bozeman, O = wolfSSL_3072, OU = Programming-3072, CN = www.wolfssl.com, emailAddress = info@wolfssl.com
        Subject Public Key Info:
            Public Key Algorithm: rsaEncryption
                Public-Key: (3072 bit)
                Modulus:
                    00:ac:39:50:68:8f:78:f8:10:9b:68:96:d3:e1:9c:
                    56:68:5a:41:62:e3:b3:41:b0:55:80:17:b0:88:16:
                    9b:e0:97:74:5f:42:79:73:42:df:93:f3:aa:9d:ee:
                    2d:6f:aa:bc:27:90:84:c0:5d:c7:ec:49:ea:5c:66:
                    1d:70:9c:53:5c:ba:a1:b3:58:c9:3e:8e:9b:72:3d:
                    6e:02:02:00:9c:65:56:82:a3:22:b4:08:5f:2a:ef:
                    df:9a:d0:e7:31:59:26:5b:0b:1c:63:61:ff:d5:69:
                    32:19:06:7e:0f:40:3c:7a:1e:c8:fc:58:6c:64:ae:
                    10:3d:a8:23:ff:8e:1a:ca:6a:82:e2:f9:01:64:2c:
                    97:a0:1a:89:a0:74:d3:b6:05:11:f2:62:06:48:2a:
                    f7:66:ce:c1:85:e1:d2:27:ea:ca:12:a5:91:97:3e:
                    fc:94:06:59:51:c0:e7:13:b6:87:7b:5f:d2:c0:56:
                    2f:5e:1d:02:c3:11:2c:df:f7:01:da:bd:85:54:35:
                    32:5f:c5:c8:f9:7a:9f:89:f7:03:0e:7e:79:5d:04:
                    82:35:10:fe:6d:9b:bf:b8:ee:e2:62:87:26:5e:2f:
                    50:2f:78:0c:e8:73:4f:88:6a:d6:26:a4:c9:fc:fa:
                    1e:8a:b0:f4:32:cf:57:cd:a1:58:8a:49:0f:bb:a9:
                    1d:86:ab:b9:8f:8d:57:19:b2:5a:7e:a4:ea:cc:b7:
                    96:7a:3b:38:cd:de:e0:61:fc:c9:06:8f:93:5a:ce:
                    ad:2a:e3:2d:3e:39:5d:41:83:01:1f:0f:e1:7f:76:
                    c7:28:da:56:ef:bf:dc:26:35:40:be:ad:c7:38:ad:
                    a4:06:ac:ca:e8:51:eb:c0:f8:68:02:2c:9b:a1:14:
                    bc:f8:61:86:d7:56:d7:73:f4:ab:bb:6a:21:d3:88:
                    22:b4:e7:6f:7f:91:e5:0e:c6:08:49:de:ea:13:58:
                    72:a0:aa:3a:f9:36:03:45:57:5e:87:d2:73:65:c4:
                    8c:a3:ee:c9:d6:73:7c:96:41:93
                Exponent: 65537 (0x10001)
        X509v3 extensions:
            X509v3 Subject Key Identifier: 
                3D:D1:84:C2:AF:B0:20:49:BC:74:87:41:38:AB:BA:D2:D4:0C:A3:A8
            X509v3 Authority Key Identifier: 
                keyid:3D:D1:84:C2:AF:B0:20:49:BC:74:87:41:38:AB:BA:D2:D4:0C:A3:A8
                DirName:/C=US/ST=Montana/L=Bozeman/O=wolfSSL_3072/OU=Programming-3072/CN=www.wolfssl.com/emailAddress=info@wolfssl.com
                serial:1E:D5:B7:66:40:3A:E9:9B:DD:58:E4:E4:9A:C0:DA:1E:D7:B9:5A:1F
            X509v3 Basic Constraints: 
                CA:TRUE
            X509v3 Subject Alternative Name: 
                DNS:example.com, IP Address:127.0.0.1
            X509v3 Extended Key Usage: 
                TLS Web Server Authentication, TLS Web Client Authentication
    Signature Algorithm: sha256WithRSAEncryption
    Signature Value:
        5e:b0:ed:38:36:b8:f7:e4:0c:b0:c3:6a:bb:7a:b9:61:05:9d:
        b9:82:12:2d:9c:9e:91:7b:ec:d0:9b:81:ca:51:e8:d4:55:2d:
        1a:ff:88:5a:c3:e1:d8:82:17:c5:4a:7a:d4:17:c8:a2:1c:97:
        61:a7:cf:de:12:f9:5a:d8:b0:63:63:84:d4:7b:b9:81:37:a0:
        49:f3:68:30:0c:84:f8:6c:18:54:34:6f:8d:a3:22:d3:d2:3b:
        42:bc:3b:28:0f:95:35:f4:9f:dc:18:9d:4f:c5:5f:0d:d2:bd:
        88:b8:a7:88:82:d3:74:5b:a6:ad:b0:2b:70:33:c9:08:7e:5f:
        9b:99:3c:61:f0:1b:3c:1c:4a:2a:05:84:f1:47:17:a2:ea:06:
        3a:dc:f6:b3:83:30:9c:12:b1:4c:e9:be:40:86:3e:72:58:4e:
        44:b8:99:59:c3:58:0f:d7:cf:02:60:77:ad:6f:9c:41:58:ef:
        78:63:c0:f7:7d:a7:ed:67:c2:49:ae:06:fc:46:f7:70:53:88:
        eb:53:2f:25:8d:7a:ac:ab:c4:b5:b0:27:90:57:d0:31:79:2f:
        ad:da:20:c1:6a:00:cc:d9:b4:36:5a:90:99:3d:e3:e2:f4:b6:
        e7:85:16:77:3d:69:bb:42:6c:a5:83:45:9f:53:c4:43:78:17:
        43:bd:27:c0:6e:4b:40:0f:64:0b:ac:38:1e:09:6d:62:5a:54:
        8a:2c:96:99:23:db:f5:4b:4a:aa:69:be:6e:8a:9a:3e:d5:e6:
        a3:a9:a9:e9:e8:a9:28:28:3b:f9:9d:d9:5f:e3:cb:2b:2b:38:
        ba:f1:bc:45:d8:4a:5a:b1:b3:8a:48:64:78:33:21:55:cd:04:
        14:e7:7b:73:c2:b6:f2:de:81:01:d8:8d:c6:cf:f2:85:0f:32:
        72:0f:6c:60:be:f5:31:75:39:4b:e3:ae:ed:0c:1e:15:83:ac:
        f9:4c:86:cf:df:54:b0:7c:6f:f5:de:26:66:c0:ba:85:38:d0:
        25:fe:b9:bf:12:98
-----BEGIN CERTIFICATE-----
MIIGHTCCBIWgAwIBAgIUHtW3ZkA66ZvdWOTkmsDaHte5Wh8wDQYJKoZIhvcNAQEL
BQAwgZ4xCzAJBgNVBAYTAlVTMRAwDgYDVQQIDAdNb250YW5hMRAwDgYDVQQHDAdC
b3plbWFuMRUwEwYDVQQKDAx3b2xmU1NMXzMwNzIxGTAXBgNVBAsMEFByb2dyYW1t
aW5nLTMwNzIxGDAWBgNVBAMMD3d3dy53b2xmc3NsLmNvbTEfMB0GCSqGSIb3DQEJ
ARYQaW5mb0B3b2xmc3NsLmNvbTAeFw0yNDEyMTgyMTI1MjlaFw0yNzA5MTQyMTI1
MjlaMIGeMQswCQYDVQQGEwJVUzEQMA4GA1UECAwHTW9udGFuYTEQMA4GA1UEBwwH
Qm96ZW1hbjEVMBMGA1UECgwMd29sZlNTTF8zMDcyMRkwFwYDVQQLDBBQcm9ncmFt
bWluZy0zMDcyMRgwFgYDVQQDDA93d3cud29sZnNzbC5jb20xHzAdBgkqhkiG9w0B
CQEWEGluZm9Ad29sZnNzbC5jb20wggGiMA0GCSqGSIb3DQEBAQUAA4IBjwAwggGK
AoIBgQCsOVBoj3j4EJtoltPhnFZoWkFi47NBsFWAF7CIFpvgl3RfQnlzQt+T86qd
7i1vqrwnkITAXcfsSepcZh1wnFNcuqGzWMk+jptyPW4CAgCcZVaCoyK0CF8q79+a
0OcxWSZbCxxjYf/VaTIZBn4PQDx6Hsj8WGxkrhA9qCP/jhrKaoLi+QFkLJegGomg
dNO2BRHyYgZIKvdmzsGF4dIn6soSpZGXPvyUBllRwOcTtod7X9LAVi9eHQLDESzf
9wHavYVUNTJfxcj5ep+J9wMOfnldBII1EP5tm7+47uJihyZeL1AveAzoc0+IatYm
pMn8+h6KsPQyz1fNoViKSQ+7qR2Gq7mPjVcZslp+pOrMt5Z6OzjN3uBh/MkGj5Na
zq0q4y0+OV1BgwEfD+F/dsco2lbvv9wmNUC+rcc4raQGrMroUevA+GgCLJuhFLz4
YYbXVtdz9Ku7aiHTiCK0529/keUOxghJ3uoTWHKgqjr5NgNFV16H0nNlxIyj7snW
c3yWQZMCAwEAAaOCAU8wggFLMB0GA1UdDgQWBBQ90YTCr7AgSbx0h0E4q7rS1Ayj
qDCB3gYDVR0jBIHWMIHTgBQ90YTCr7AgSbx0h0E4q7rS1AyjqKGBpKSBoTCBnjEL
MAkGA1UEBhMCVVMxEDAOBgNVBAgMB01vbnRhbmExEDAOBgNVBAcMB0JvemVtYW4x
FTATBgNVBAoMDHdvbGZTU0xfMzA3MjEZMBcGA1UECwwQUHJvZ3JhbW1pbmctMzA3
MjEYMBYGA1UEAwwPd3d3LndvbGZzc2wuY29tMR8wHQYJKoZIhvcNAQkBFhBpbmZv
QHdvbGZzc2wuY29tghQe1bdmQDrpm91Y5OSawNoe17laHzAMBgNVHRMEBTADAQH/
MBwGA1UdEQQVMBOCC2V4YW1wbGUuY29thwR/AAABMB0GA1UdJQQWMBQGCCsGAQUF
BwMBBggrBgEFBQcDAjANBgkqhkiG9w0BAQsFAAOCAYEAXrDtODa49+QMsMNqu3q5
YQWduYISLZyekXvs0JuBylHo1FUtGv+IWsPh2IIXxUp61BfIohyXYafP3hL5Wtiw
Y2OE1Hu5gTegSfNoMAyE+GwYVDRvjaMi09I7Qrw7KA+VNfSf3BidT8VfDdK9iLin
iILTdFumrbArcDPJCH5fm5k8YfAbPBxKKgWE8UcXouoGOtz2s4MwnBKxTOm+QIY+
clhORLiZWcNYD9fPAmB3rW+cQVjveGPA932n7WfCSa4G/Eb3cFOI61MvJY16rKvE
tbAnkFfQMXkvrdogwWoAzNm0NlqQmT3j4vS254UWdz1pu0JspYNFn1PEQ3gXQ70n
wG5LQA9kC6w4HgltYlpUiiyWmSPb9UtKqmm+boqaPtXmo6mp6eipKCg7+Z3ZX+PL
Kys4uvG8RdhKWrGzikhkeDMhVc0EFOd7c8K28t6BAdiNxs/yhQ8ycg9sYL71MXU5
S+Ou7QweFYOs+UyGz99UsHxv9d4mZsC6hTjQJf65vxKY
-----END CERTIFICATE-----
