Certificate:
    Data:
        Version: 3 (0x2)
        Serial Number:
            0b:5c:9f:12:25:90:aa:52:c0:df:e1:e1:1f:ed:a9:31:01:0a:09:8b
        Signature Algorithm: sha256WithRSAEncryption
        Issuer: C = US, ST = Montana, L = Bozeman, O = wolfSSL_3072, OU = Programming-3072, CN = www.wolfssl.com, emailAddress = info@wolfssl.com
        Validity
            Not Before: Dec 13 22:19:28 2023 GMT
            Not After : Sep  8 22:19:28 2026 GMT
        Subject: C = US, ST = Montana, L = Bozeman, O = wolfSSL_3072, OU = Programming-3072, CN = www.wolfssl.com, emailAddress = info@wolfssl.com
        Subject Public Key Info:
            Public Key Algorithm: rsaEncryption
                RSA Public-Key: (3072 bit)
                Modulus:
                    00:ac:39:50:68:8f:78:f8:10:9b:68:96:d3:e1:9c:
                    56:68:5a:41:62:e3:b3:41:b0:55:80:17:b0:88:16:
                    9b:e0:97:74:5f:42:79:73:42:df:93:f3:aa:9d:ee:
                    2d:6f:aa:bc:27:90:84:c0:5d:c7:ec:49:ea:5c:66:
                    1d:70:9c:53:5c:ba:a1:b3:58:c9:3e:8e:9b:72:3d:
                    6e:02:02:00:9c:65:56:82:a3:22:b4:08:5f:2a:ef:
                    df:9a:d0:e7:31:59:26:5b:0b:1c:63:61:ff:d5:69:
                    32:19:06:7e:0f:40:3c:7a:1e:c8:fc:58:6c:64:ae:
                    10:3d:a8:23:ff:8e:1a:ca:6a:82:e2:f9:01:64:2c:
                    97:a0:1a:89:a0:74:d3:b6:05:11:f2:62:06:48:2a:
                    f7:66:ce:c1:85:e1:d2:27:ea:ca:12:a5:91:97:3e:
                    fc:94:06:59:51:c0:e7:13:b6:87:7b:5f:d2:c0:56:
                    2f:5e:1d:02:c3:11:2c:df:f7:01:da:bd:85:54:35:
                    32:5f:c5:c8:f9:7a:9f:89:f7:03:0e:7e:79:5d:04:
                    82:35:10:fe:6d:9b:bf:b8:ee:e2:62:87:26:5e:2f:
                    50:2f:78:0c:e8:73:4f:88:6a:d6:26:a4:c9:fc:fa:
                    1e:8a:b0:f4:32:cf:57:cd:a1:58:8a:49:0f:bb:a9:
                    1d:86:ab:b9:8f:8d:57:19:b2:5a:7e:a4:ea:cc:b7:
                    96:7a:3b:38:cd:de:e0:61:fc:c9:06:8f:93:5a:ce:
                    ad:2a:e3:2d:3e:39:5d:41:83:01:1f:0f:e1:7f:76:
                    c7:28:da:56:ef:bf:dc:26:35:40:be:ad:c7:38:ad:
                    a4:06:ac:ca:e8:51:eb:c0:f8:68:02:2c:9b:a1:14:
                    bc:f8:61:86:d7:56:d7:73:f4:ab:bb:6a:21:d3:88:
                    22:b4:e7:6f:7f:91:e5:0e:c6:08:49:de:ea:13:58:
                    72:a0:aa:3a:f9:36:03:45:57:5e:87:d2:73:65:c4:
                    8c:a3:ee:c9:d6:73:7c:96:41:93
                Exponent: 65537 (0x10001)
        X509v3 extensions:
            X509v3 Subject Key Identifier: 
                3D:D1:84:C2:AF:B0:20:49:BC:74:87:41:38:AB:BA:D2:D4:0C:A3:A8
            X509v3 Authority Key Identifier: 
                keyid:3D:D1:84:C2:AF:B0:20:49:BC:74:87:41:38:AB:BA:D2:D4:0C:A3:A8
                DirName:/C=US/ST=Montana/L=Bozeman/O=wolfSSL_3072/OU=Programming-3072/CN=www.wolfssl.com/emailAddress=info@wolfssl.com
                serial:0B:5C:9F:12:25:90:AA:52:C0:DF:E1:E1:1F:ED:A9:31:01:0A:09:8B

            X509v3 Basic Constraints: 
                CA:TRUE
            X509v3 Subject Alternative Name: 
                DNS:example.com, IP Address:127.0.0.1
            X509v3 Extended Key Usage: 
                TLS Web Server Authentication, TLS Web Client Authentication
    Signature Algorithm: sha256WithRSAEncryption
         14:27:57:47:12:a4:78:a2:c9:dc:93:f8:47:ee:f4:fd:66:80:
         13:43:9e:de:23:8c:f7:3f:fe:46:9c:85:58:2a:6f:8d:22:92:
         8c:d6:36:ca:90:4f:45:c3:ab:78:ca:3c:fe:d0:f5:0f:6d:00:
         fe:3b:42:b0:86:0b:75:f2:7c:d3:c7:db:0b:70:e8:ec:b7:bf:
         26:30:a8:19:67:bd:74:03:cf:d1:08:8e:9c:d5:1b:45:28:b2:
         67:8e:3a:a5:27:c9:1b:6a:e9:93:ce:94:c0:00:0c:e8:f1:76:
         02:a4:30:72:a8:fd:55:1c:d1:b8:25:f1:62:f6:ba:28:fd:30:
         b1:11:63:f7:b3:78:54:09:04:c1:66:12:c7:01:ae:99:e3:55:
         c4:29:bd:1b:1a:da:b9:77:fd:04:db:b1:68:56:35:65:e1:aa:
         67:c8:ac:be:e5:f8:27:fb:b4:51:4f:38:e5:de:09:a6:81:a9:
         ef:dc:d6:4a:96:47:b8:38:14:f8:25:5d:ac:f3:e5:3b:f2:1b:
         70:32:3b:2d:fa:20:ca:2e:a5:ca:13:9d:84:d2:d4:35:16:58:
         6e:52:5e:09:61:83:c2:e2:56:2c:ab:52:bf:54:dc:bd:f3:bf:
         a7:16:6e:0e:ca:68:54:d1:5c:4d:06:7a:93:47:1c:cc:a9:66:
         da:69:0f:f9:1f:25:64:29:40:97:50:3b:cf:0c:50:9b:4d:ff:
         60:bc:d3:e4:a0:b7:64:c6:66:2a:f6:02:e2:3f:92:31:3b:d7:
         ea:1a:c3:1a:0c:19:88:ab:5f:74:b7:9d:7b:8d:4d:3a:84:43:
         f2:67:b1:be:a0:9e:fd:3d:aa:c1:38:1a:df:ac:30:fe:63:69:
         af:d6:f2:21:63:11:63:29:ac:63:9e:9f:9f:c4:53:b3:db:78:
         c0:2d:79:68:1f:d2:d1:36:d1:fb:e3:c0:a7:31:eb:15:63:99:
         0b:93:9d:87:c7:fe:56:5d:fc:e7:29:2a:9e:15:be:ef:54:e7:
         0f:6d:9b:36:b6:17
-----BEGIN CERTIFICATE-----
MIIGHTCCBIWgAwIBAgIUC1yfEiWQqlLA3+HhH+2pMQEKCYswDQYJKoZIhvcNAQEL
BQAwgZ4xCzAJBgNVBAYTAlVTMRAwDgYDVQQIDAdNb250YW5hMRAwDgYDVQQHDAdC
b3plbWFuMRUwEwYDVQQKDAx3b2xmU1NMXzMwNzIxGTAXBgNVBAsMEFByb2dyYW1t
aW5nLTMwNzIxGDAWBgNVBAMMD3d3dy53b2xmc3NsLmNvbTEfMB0GCSqGSIb3DQEJ
ARYQaW5mb0B3b2xmc3NsLmNvbTAeFw0yMzEyMTMyMjE5MjhaFw0yNjA5MDgyMjE5
MjhaMIGeMQswCQYDVQQGEwJVUzEQMA4GA1UECAwHTW9udGFuYTEQMA4GA1UEBwwH
Qm96ZW1hbjEVMBMGA1UECgwMd29sZlNTTF8zMDcyMRkwFwYDVQQLDBBQcm9ncmFt
bWluZy0zMDcyMRgwFgYDVQQDDA93d3cud29sZnNzbC5jb20xHzAdBgkqhkiG9w0B
CQEWEGluZm9Ad29sZnNzbC5jb20wggGiMA0GCSqGSIb3DQEBAQUAA4IBjwAwggGK
AoIBgQCsOVBoj3j4EJtoltPhnFZoWkFi47NBsFWAF7CIFpvgl3RfQnlzQt+T86qd
7i1vqrwnkITAXcfsSepcZh1wnFNcuqGzWMk+jptyPW4CAgCcZVaCoyK0CF8q79+a
0OcxWSZbCxxjYf/VaTIZBn4PQDx6Hsj8WGxkrhA9qCP/jhrKaoLi+QFkLJegGomg
dNO2BRHyYgZIKvdmzsGF4dIn6soSpZGXPvyUBllRwOcTtod7X9LAVi9eHQLDESzf
9wHavYVUNTJfxcj5ep+J9wMOfnldBII1EP5tm7+47uJihyZeL1AveAzoc0+IatYm
pMn8+h6KsPQyz1fNoViKSQ+7qR2Gq7mPjVcZslp+pOrMt5Z6OzjN3uBh/MkGj5Na
zq0q4y0+OV1BgwEfD+F/dsco2lbvv9wmNUC+rcc4raQGrMroUevA+GgCLJuhFLz4
YYbXVtdz9Ku7aiHTiCK0529/keUOxghJ3uoTWHKgqjr5NgNFV16H0nNlxIyj7snW
c3yWQZMCAwEAAaOCAU8wggFLMB0GA1UdDgQWBBQ90YTCr7AgSbx0h0E4q7rS1Ayj
qDCB3gYDVR0jBIHWMIHTgBQ90YTCr7AgSbx0h0E4q7rS1AyjqKGBpKSBoTCBnjEL
MAkGA1UEBhMCVVMxEDAOBgNVBAgMB01vbnRhbmExEDAOBgNVBAcMB0JvemVtYW4x
FTATBgNVBAoMDHdvbGZTU0xfMzA3MjEZMBcGA1UECwwQUHJvZ3JhbW1pbmctMzA3
MjEYMBYGA1UEAwwPd3d3LndvbGZzc2wuY29tMR8wHQYJKoZIhvcNAQkBFhBpbmZv
QHdvbGZzc2wuY29tghQLXJ8SJZCqUsDf4eEf7akxAQoJizAMBgNVHRMEBTADAQH/
MBwGA1UdEQQVMBOCC2V4YW1wbGUuY29thwR/AAABMB0GA1UdJQQWMBQGCCsGAQUF
BwMBBggrBgEFBQcDAjANBgkqhkiG9w0BAQsFAAOCAYEAFCdXRxKkeKLJ3JP4R+70
/WaAE0Oe3iOM9z/+RpyFWCpvjSKSjNY2ypBPRcOreMo8/tD1D20A/jtCsIYLdfJ8
08fbC3Do7Le/JjCoGWe9dAPP0QiOnNUbRSiyZ446pSfJG2rpk86UwAAM6PF2AqQw
cqj9VRzRuCXxYva6KP0wsRFj97N4VAkEwWYSxwGumeNVxCm9GxrauXf9BNuxaFY1
ZeGqZ8isvuX4J/u0UU845d4JpoGp79zWSpZHuDgU+CVdrPPlO/IbcDI7Lfogyi6l
yhOdhNLUNRZYblJeCWGDwuJWLKtSv1TcvfO/pxZuDspoVNFcTQZ6k0cczKlm2mkP
+R8lZClAl1A7zwxQm03/YLzT5KC3ZMZmKvYC4j+SMTvX6hrDGgwZiKtfdLede41N
OoRD8mexvqCe/T2qwTga36ww/mNpr9byIWMRYymsY56fn8RTs9t4wC15aB/S0TbR
++PApzHrFWOZC5Odh8f+Vl385ykqnhW+71TnD22bNrYX
-----END CERTIFICATE-----
