Certificate:
    Data:
        Version: 3 (0x2)
        Serial Number: 11880683778350266762 (0xa4e0aaf32950398a)
    Signature Algorithm: sha256WithRSAEncryption
        Issuer: C=US, ST=Montana, L=Bozeman, O=wolfSSL_3072, OU=Programming-3072, CN=www.wolfssl.com/emailAddress=info@wolfssl.com
        Validity
            Not Before: Feb 10 19:49:52 2021 GMT
            Not After : Nov  7 19:49:52 2023 GMT
        Subject: C=US, ST=Montana, L=Bozeman, O=wolfSSL_3072, OU=Programming-3072, CN=www.wolfssl.com/emailAddress=info@wolfssl.com
        Subject Public Key Info:
            Public Key Algorithm: rsaEncryption
                Public-Key: (3072 bit)
                Modulus:
                    00:ac:39:50:68:8f:78:f8:10:9b:68:96:d3:e1:9c:
                    56:68:5a:41:62:e3:b3:41:b0:55:80:17:b0:88:16:
                    9b:e0:97:74:5f:42:79:73:42:df:93:f3:aa:9d:ee:
                    2d:6f:aa:bc:27:90:84:c0:5d:c7:ec:49:ea:5c:66:
                    1d:70:9c:53:5c:ba:a1:b3:58:c9:3e:8e:9b:72:3d:
                    6e:02:02:00:9c:65:56:82:a3:22:b4:08:5f:2a:ef:
                    df:9a:d0:e7:31:59:26:5b:0b:1c:63:61:ff:d5:69:
                    32:19:06:7e:0f:40:3c:7a:1e:c8:fc:58:6c:64:ae:
                    10:3d:a8:23:ff:8e:1a:ca:6a:82:e2:f9:01:64:2c:
                    97:a0:1a:89:a0:74:d3:b6:05:11:f2:62:06:48:2a:
                    f7:66:ce:c1:85:e1:d2:27:ea:ca:12:a5:91:97:3e:
                    fc:94:06:59:51:c0:e7:13:b6:87:7b:5f:d2:c0:56:
                    2f:5e:1d:02:c3:11:2c:df:f7:01:da:bd:85:54:35:
                    32:5f:c5:c8:f9:7a:9f:89:f7:03:0e:7e:79:5d:04:
                    82:35:10:fe:6d:9b:bf:b8:ee:e2:62:87:26:5e:2f:
                    50:2f:78:0c:e8:73:4f:88:6a:d6:26:a4:c9:fc:fa:
                    1e:8a:b0:f4:32:cf:57:cd:a1:58:8a:49:0f:bb:a9:
                    1d:86:ab:b9:8f:8d:57:19:b2:5a:7e:a4:ea:cc:b7:
                    96:7a:3b:38:cd:de:e0:61:fc:c9:06:8f:93:5a:ce:
                    ad:2a:e3:2d:3e:39:5d:41:83:01:1f:0f:e1:7f:76:
                    c7:28:da:56:ef:bf:dc:26:35:40:be:ad:c7:38:ad:
                    a4:06:ac:ca:e8:51:eb:c0:f8:68:02:2c:9b:a1:14:
                    bc:f8:61:86:d7:56:d7:73:f4:ab:bb:6a:21:d3:88:
                    22:b4:e7:6f:7f:91:e5:0e:c6:08:49:de:ea:13:58:
                    72:a0:aa:3a:f9:36:03:45:57:5e:87:d2:73:65:c4:
                    8c:a3:ee:c9:d6:73:7c:96:41:93
                Exponent: 65537 (0x10001)
        X509v3 extensions:
            X509v3 Subject Key Identifier: 
                3D:D1:84:C2:AF:B0:20:49:BC:74:87:41:38:AB:BA:D2:D4:0C:A3:A8
            X509v3 Authority Key Identifier: 
                keyid:3D:D1:84:C2:AF:B0:20:49:BC:74:87:41:38:AB:BA:D2:D4:0C:A3:A8
                DirName:/C=US/ST=Montana/L=Bozeman/O=wolfSSL_3072/OU=Programming-3072/CN=www.wolfssl.com/emailAddress=info@wolfssl.com
                serial:A4:E0:AA:F3:29:50:39:8A

            X509v3 Basic Constraints: 
                CA:TRUE
            X509v3 Subject Alternative Name: 
                DNS:example.com, IP Address:127.0.0.1
            X509v3 Extended Key Usage: 
                TLS Web Server Authentication, TLS Web Client Authentication
    Signature Algorithm: sha256WithRSAEncryption
         57:21:c0:ad:6e:16:74:d5:b1:8b:19:55:49:7a:a4:5e:d6:18:
         f9:03:80:4b:c2:71:d1:04:47:9c:b3:73:9c:4f:62:4a:3a:9a:
         d4:48:e4:81:db:8d:15:df:5d:0f:08:13:28:28:d7:05:44:c1:
         b9:6d:f1:75:60:74:d0:44:ae:91:0f:3a:7c:f4:ee:ea:6f:06:
         3a:41:ae:6b:5c:8a:0d:85:6b:b3:fb:b1:5f:70:f7:9b:32:57:
         fb:c4:6b:ce:90:86:0c:96:8a:41:4e:61:f3:a1:3f:55:e8:94:
         56:12:6d:9e:46:2c:31:bd:3f:8a:70:c8:20:a4:fb:fa:c6:53:
         58:bb:05:28:ba:89:0c:b1:5f:21:ac:1e:f1:35:fd:6b:14:c1:
         69:08:e9:37:14:d8:76:50:2a:fc:aa:94:7f:39:52:3a:a7:3c:
         0a:53:5e:e0:13:1a:00:ca:ac:aa:7e:f7:09:68:78:60:11:73:
         ab:7d:58:fe:03:9f:e6:84:ea:51:58:40:82:a5:ff:a7:2c:ea:
         42:a5:4c:b6:3b:5c:6b:ab:cf:56:8a:8c:ec:3c:f0:ae:d3:ca:
         0e:09:71:cf:79:96:72:63:4b:24:7a:f3:79:ca:69:75:c9:b2:
         a4:54:b8:84:40:2b:8f:24:27:6a:ed:8f:53:e0:55:9b:35:91:
         18:11:cf:b0:3b:b8:65:3c:c6:ef:b0:78:7c:43:26:f1:12:84:
         6b:2b:f0:7d:3c:7f:dc:67:a4:17:89:75:00:86:1a:ea:cd:1a:
         cf:da:11:64:cc:bd:10:26:ef:6b:1b:93:b3:37:14:7f:12:80:
         81:b6:fd:8a:8a:d8:95:5f:f9:1e:a5:1e:65:5f:75:8d:90:2a:
         0d:b1:ab:26:16:31:b2:06:64:6f:2b:7e:4a:f4:de:e9:7a:ec:
         67:35:f3:40:71:75:37:b3:e1:1d:ef:7d:e2:92:ec:d5:e5:bb:
         99:79:50:11:b2:8a:57:1b:30:2e:b7:16:4c:c8:a6:99:b1:01:
         34:08:9d:d8:df:af
-----BEGIN CERTIFICATE-----
MIIGBzCCBG+gAwIBAgIJAKTgqvMpUDmKMA0GCSqGSIb3DQEBCwUAMIGeMQswCQYD
VQQGEwJVUzEQMA4GA1UECAwHTW9udGFuYTEQMA4GA1UEBwwHQm96ZW1hbjEVMBMG
A1UECgwMd29sZlNTTF8zMDcyMRkwFwYDVQQLDBBQcm9ncmFtbWluZy0zMDcyMRgw
FgYDVQQDDA93d3cud29sZnNzbC5jb20xHzAdBgkqhkiG9w0BCQEWEGluZm9Ad29s
ZnNzbC5jb20wHhcNMjEwMjEwMTk0OTUyWhcNMjMxMTA3MTk0OTUyWjCBnjELMAkG
A1UEBhMCVVMxEDAOBgNVBAgMB01vbnRhbmExEDAOBgNVBAcMB0JvemVtYW4xFTAT
BgNVBAoMDHdvbGZTU0xfMzA3MjEZMBcGA1UECwwQUHJvZ3JhbW1pbmctMzA3MjEY
MBYGA1UEAwwPd3d3LndvbGZzc2wuY29tMR8wHQYJKoZIhvcNAQkBFhBpbmZvQHdv
bGZzc2wuY29tMIIBojANBgkqhkiG9w0BAQEFAAOCAY8AMIIBigKCAYEArDlQaI94
+BCbaJbT4ZxWaFpBYuOzQbBVgBewiBab4Jd0X0J5c0Lfk/Oqne4tb6q8J5CEwF3H
7EnqXGYdcJxTXLqhs1jJPo6bcj1uAgIAnGVWgqMitAhfKu/fmtDnMVkmWwscY2H/
1WkyGQZ+D0A8eh7I/FhsZK4QPagj/44aymqC4vkBZCyXoBqJoHTTtgUR8mIGSCr3
Zs7BheHSJ+rKEqWRlz78lAZZUcDnE7aHe1/SwFYvXh0CwxEs3/cB2r2FVDUyX8XI
+XqfifcDDn55XQSCNRD+bZu/uO7iYocmXi9QL3gM6HNPiGrWJqTJ/PoeirD0Ms9X
zaFYikkPu6kdhqu5j41XGbJafqTqzLeWejs4zd7gYfzJBo+TWs6tKuMtPjldQYMB
Hw/hf3bHKNpW77/cJjVAvq3HOK2kBqzK6FHrwPhoAiyboRS8+GGG11bXc/Sru2oh
04gitOdvf5HlDsYISd7qE1hyoKo6+TYDRVdeh9JzZcSMo+7J1nN8lkGTAgMBAAGj
ggFEMIIBQDAdBgNVHQ4EFgQUPdGEwq+wIEm8dIdBOKu60tQMo6gwgdMGA1UdIwSB
yzCByIAUPdGEwq+wIEm8dIdBOKu60tQMo6ihgaSkgaEwgZ4xCzAJBgNVBAYTAlVT
MRAwDgYDVQQIDAdNb250YW5hMRAwDgYDVQQHDAdCb3plbWFuMRUwEwYDVQQKDAx3
b2xmU1NMXzMwNzIxGTAXBgNVBAsMEFByb2dyYW1taW5nLTMwNzIxGDAWBgNVBAMM
D3d3dy53b2xmc3NsLmNvbTEfMB0GCSqGSIb3DQEJARYQaW5mb0B3b2xmc3NsLmNv
bYIJAKTgqvMpUDmKMAwGA1UdEwQFMAMBAf8wHAYDVR0RBBUwE4ILZXhhbXBsZS5j
b22HBH8AAAEwHQYDVR0lBBYwFAYIKwYBBQUHAwEGCCsGAQUFBwMCMA0GCSqGSIb3
DQEBCwUAA4IBgQBXIcCtbhZ01bGLGVVJeqRe1hj5A4BLwnHRBEecs3OcT2JKOprU
SOSB240V310PCBMoKNcFRMG5bfF1YHTQRK6RDzp89O7qbwY6Qa5rXIoNhWuz+7Ff
cPebMlf7xGvOkIYMlopBTmHzoT9V6JRWEm2eRiwxvT+KcMggpPv6xlNYuwUouokM
sV8hrB7xNf1rFMFpCOk3FNh2UCr8qpR/OVI6pzwKU17gExoAyqyqfvcJaHhgEXOr
fVj+A5/mhOpRWECCpf+nLOpCpUy2O1xrq89WiozsPPCu08oOCXHPeZZyY0skevN5
yml1ybKkVLiEQCuPJCdq7Y9T4FWbNZEYEc+wO7hlPMbvsHh8QybxEoRrK/B9PH/c
Z6QXiXUAhhrqzRrP2hFkzL0QJu9rG5OzNxR/EoCBtv2KitiVX/kepR5lX3WNkCoN
sasmFjGyBmRvK35K9N7peuxnNfNAcXU3s+Ed733ikuzV5buZeVARsopXGzAutxZM
yKaZsQE0CJ3Y368=
-----END CERTIFICATE-----
