Certificate:
    Data:
        Version: 3 (0x2)
        Serial Number:
            16:65:10:ff:e8:9a:35:33:57:0c:4b:37:e1:21:fe:8e:ca:70:54:e8
        Signature Algorithm: sha256WithRSAEncryption
        Issuer: C = US, ST = Montana, L = Bozeman, O = wolfSSL_3072, OU = Programming-3072, CN = www.wolfssl.com, emailAddress = info@wolfssl.com
        Validity
            Not Before: May  7 07:39:04 2020 GMT
            Not After : Feb  1 07:39:04 2023 GMT
        Subject: C = US, ST = Montana, L = Bozeman, O = wolfSSL_3072, OU = Programming-3072, CN = www.wolfssl.com, emailAddress = info@wolfssl.com
        Subject Public Key Info:
            Public Key Algorithm: rsaEncryption
                RSA Public-Key: (3072 bit)
                Modulus:
                    00:ac:39:50:68:8f:78:f8:10:9b:68:96:d3:e1:9c:
                    56:68:5a:41:62:e3:b3:41:b0:55:80:17:b0:88:16:
                    9b:e0:97:74:5f:42:79:73:42:df:93:f3:aa:9d:ee:
                    2d:6f:aa:bc:27:90:84:c0:5d:c7:ec:49:ea:5c:66:
                    1d:70:9c:53:5c:ba:a1:b3:58:c9:3e:8e:9b:72:3d:
                    6e:02:02:00:9c:65:56:82:a3:22:b4:08:5f:2a:ef:
                    df:9a:d0:e7:31:59:26:5b:0b:1c:63:61:ff:d5:69:
                    32:19:06:7e:0f:40:3c:7a:1e:c8:fc:58:6c:64:ae:
                    10:3d:a8:23:ff:8e:1a:ca:6a:82:e2:f9:01:64:2c:
                    97:a0:1a:89:a0:74:d3:b6:05:11:f2:62:06:48:2a:
                    f7:66:ce:c1:85:e1:d2:27:ea:ca:12:a5:91:97:3e:
                    fc:94:06:59:51:c0:e7:13:b6:87:7b:5f:d2:c0:56:
                    2f:5e:1d:02:c3:11:2c:df:f7:01:da:bd:85:54:35:
                    32:5f:c5:c8:f9:7a:9f:89:f7:03:0e:7e:79:5d:04:
                    82:35:10:fe:6d:9b:bf:b8:ee:e2:62:87:26:5e:2f:
                    50:2f:78:0c:e8:73:4f:88:6a:d6:26:a4:c9:fc:fa:
                    1e:8a:b0:f4:32:cf:57:cd:a1:58:8a:49:0f:bb:a9:
                    1d:86:ab:b9:8f:8d:57:19:b2:5a:7e:a4:ea:cc:b7:
                    96:7a:3b:38:cd:de:e0:61:fc:c9:06:8f:93:5a:ce:
                    ad:2a:e3:2d:3e:39:5d:41:83:01:1f:0f:e1:7f:76:
                    c7:28:da:56:ef:bf:dc:26:35:40:be:ad:c7:38:ad:
                    a4:06:ac:ca:e8:51:eb:c0:f8:68:02:2c:9b:a1:14:
                    bc:f8:61:86:d7:56:d7:73:f4:ab:bb:6a:21:d3:88:
                    22:b4:e7:6f:7f:91:e5:0e:c6:08:49:de:ea:13:58:
                    72:a0:aa:3a:f9:36:03:45:57:5e:87:d2:73:65:c4:
                    8c:a3:ee:c9:d6:73:7c:96:41:93
                Exponent: 65537 (0x10001)
        X509v3 extensions:
            X509v3 Subject Key Identifier: 
                3D:D1:84:C2:AF:B0:20:49:BC:74:87:41:38:AB:BA:D2:D4:0C:A3:A8
            X509v3 Authority Key Identifier: 
                keyid:3D:D1:84:C2:AF:B0:20:49:BC:74:87:41:38:AB:BA:D2:D4:0C:A3:A8
                DirName:/C=US/ST=Montana/L=Bozeman/O=wolfSSL_3072/OU=Programming-3072/CN=www.wolfssl.com/emailAddress=info@wolfssl.com
                serial:16:65:10:FF:E8:9A:35:33:57:0C:4B:37:E1:21:FE:8E:CA:70:54:E8

            X509v3 Basic Constraints: 
                CA:TRUE
            X509v3 Subject Alternative Name: 
                DNS:example.com, IP Address:127.0.0.1
    Signature Algorithm: sha256WithRSAEncryption
         0f:ca:1c:23:d1:38:62:9d:6e:0c:d8:2d:d8:4a:c7:b5:b4:50:
         ac:d7:4b:84:99:47:fb:d5:eb:71:86:30:2a:46:e2:0d:6e:12:
         1d:16:40:f4:53:5c:80:a3:f6:03:75:9c:d9:54:89:1c:51:78:
         6d:03:40:88:bb:66:03:f7:f7:20:c2:b1:57:58:9f:89:ee:e4:
         c7:6a:98:0a:a5:04:4e:7e:2e:b2:9d:e7:1d:84:a2:27:50:f9:
         29:29:bd:40:8f:24:03:ae:b4:0c:48:9e:a8:14:1f:59:3d:fc:
         2c:7e:a8:e3:8d:f0:78:96:16:b9:87:45:16:44:b8:13:24:b8:
         41:bf:b1:1c:cb:da:56:9f:d7:dd:b7:0c:06:4d:5e:90:50:2d:
         25:2d:88:32:82:ec:0f:12:af:57:95:4e:71:21:29:dd:d5:ed:
         48:fd:ed:e3:94:a2:80:61:03:e4:13:ed:9b:87:05:7f:d0:4f:
         1b:36:36:bd:c4:4d:19:b7:df:89:a0:d8:89:6b:90:e5:86:7c:
         f4:e4:12:cb:e7:86:c9:c7:f8:79:d7:51:4a:09:69:09:6d:a4:
         17:5f:46:48:f7:41:31:33:dc:5e:f7:ef:b1:4b:be:04:3a:78:
         e3:bf:61:9a:d4:6d:d1:53:ef:3d:64:bc:b8:4b:75:c4:0a:a9:
         e6:09:e3:02:fc:86:a8:28:1e:01:7a:57:38:a8:93:dc:ef:92:
         e5:a3:15:ec:77:b8:96:43:32:e0:e3:7f:7d:c6:2b:36:3e:63:
         31:1f:1f:69:c8:7e:16:83:f8:19:d5:98:5e:ad:d7:e4:b1:a2:
         ef:d9:2e:f3:89:34:f1:91:74:f8:6d:b9:d1:cc:e0:b4:b4:31:
         67:18:0a:2d:26:51:32:4a:08:32:37:08:2e:76:6f:97:49:b0:
         23:a2:0d:af:89:17:72:9d:a7:24:7f:07:07:67:f4:7e:d6:1c:
         5b:59:88:15:03:81:b1:7d:0d:c7:ce:1a:95:c8:71:b8:1d:8f:
         17:91:c1:21:83:f3
-----BEGIN CERTIFICATE-----
MIIF/jCCBGagAwIBAgIUFmUQ/+iaNTNXDEs34SH+jspwVOgwDQYJKoZIhvcNAQEL
BQAwgZ4xCzAJBgNVBAYTAlVTMRAwDgYDVQQIDAdNb250YW5hMRAwDgYDVQQHDAdC
b3plbWFuMRUwEwYDVQQKDAx3b2xmU1NMXzMwNzIxGTAXBgNVBAsMEFByb2dyYW1t
aW5nLTMwNzIxGDAWBgNVBAMMD3d3dy53b2xmc3NsLmNvbTEfMB0GCSqGSIb3DQEJ
ARYQaW5mb0B3b2xmc3NsLmNvbTAeFw0yMDA1MDcwNzM5MDRaFw0yMzAyMDEwNzM5
MDRaMIGeMQswCQYDVQQGEwJVUzEQMA4GA1UECAwHTW9udGFuYTEQMA4GA1UEBwwH
Qm96ZW1hbjEVMBMGA1UECgwMd29sZlNTTF8zMDcyMRkwFwYDVQQLDBBQcm9ncmFt
bWluZy0zMDcyMRgwFgYDVQQDDA93d3cud29sZnNzbC5jb20xHzAdBgkqhkiG9w0B
CQEWEGluZm9Ad29sZnNzbC5jb20wggGiMA0GCSqGSIb3DQEBAQUAA4IBjwAwggGK
AoIBgQCsOVBoj3j4EJtoltPhnFZoWkFi47NBsFWAF7CIFpvgl3RfQnlzQt+T86qd
7i1vqrwnkITAXcfsSepcZh1wnFNcuqGzWMk+jptyPW4CAgCcZVaCoyK0CF8q79+a
0OcxWSZbCxxjYf/VaTIZBn4PQDx6Hsj8WGxkrhA9qCP/jhrKaoLi+QFkLJegGomg
dNO2BRHyYgZIKvdmzsGF4dIn6soSpZGXPvyUBllRwOcTtod7X9LAVi9eHQLDESzf
9wHavYVUNTJfxcj5ep+J9wMOfnldBII1EP5tm7+47uJihyZeL1AveAzoc0+IatYm
pMn8+h6KsPQyz1fNoViKSQ+7qR2Gq7mPjVcZslp+pOrMt5Z6OzjN3uBh/MkGj5Na
zq0q4y0+OV1BgwEfD+F/dsco2lbvv9wmNUC+rcc4raQGrMroUevA+GgCLJuhFLz4
YYbXVtdz9Ku7aiHTiCK0529/keUOxghJ3uoTWHKgqjr5NgNFV16H0nNlxIyj7snW
c3yWQZMCAwEAAaOCATAwggEsMB0GA1UdDgQWBBQ90YTCr7AgSbx0h0E4q7rS1Ayj
qDCB3gYDVR0jBIHWMIHTgBQ90YTCr7AgSbx0h0E4q7rS1AyjqKGBpKSBoTCBnjEL
MAkGA1UEBhMCVVMxEDAOBgNVBAgMB01vbnRhbmExEDAOBgNVBAcMB0JvemVtYW4x
FTATBgNVBAoMDHdvbGZTU0xfMzA3MjEZMBcGA1UECwwQUHJvZ3JhbW1pbmctMzA3
MjEYMBYGA1UEAwwPd3d3LndvbGZzc2wuY29tMR8wHQYJKoZIhvcNAQkBFhBpbmZv
QHdvbGZzc2wuY29tghQWZRD/6Jo1M1cMSzfhIf6OynBU6DAMBgNVHRMEBTADAQH/
MBwGA1UdEQQVMBOCC2V4YW1wbGUuY29thwR/AAABMA0GCSqGSIb3DQEBCwUAA4IB
gQAPyhwj0ThinW4M2C3YSse1tFCs10uEmUf71etxhjAqRuINbhIdFkD0U1yAo/YD
dZzZVIkcUXhtA0CIu2YD9/cgwrFXWJ+J7uTHapgKpQROfi6ynecdhKInUPkpKb1A
jyQDrrQMSJ6oFB9ZPfwsfqjjjfB4lha5h0UWRLgTJLhBv7Ecy9pWn9fdtwwGTV6Q
UC0lLYgyguwPEq9XlU5xISnd1e1I/e3jlKKAYQPkE+2bhwV/0E8bNja9xE0Zt9+J
oNiJa5Dlhnz05BLL54bJx/h511FKCWkJbaQXX0ZI90ExM9xe9++xS74EOnjjv2Ga
1G3RU+89ZLy4S3XECqnmCeMC/IaoKB4Belc4qJPc75LloxXsd7iWQzLg4399xis2
PmMxHx9pyH4Wg/gZ1ZherdfksaLv2S7ziTTxkXT4bbnRzOC0tDFnGAotJlEySggy
Nwgudm+XSbAjog2viRdynackfwcHZ/R+1hxbWYgVA4GxfQ3HzhqVyHG4HY8XkcEh
g/M=
-----END CERTIFICATE-----
