Certificate:
    Data:
        Version: 3 (0x2)
        Serial Number:
            7f:8b:fd:1a:02:4e:04:53:8c:0d:42:cc:8d:e9:bc:de:23:18:35:4b
        Signature Algorithm: sha256WithRSAEncryption
        Issuer: C = US, ST = Montana, L = Bozeman, O = wolfSSL_3072, OU = Programming-3072, CN = www.wolfssl.com, emailAddress = info@wolfssl.com
        Validity
            Not Before: Dec 20 23:07:24 2021 GMT
            Not After : Sep 15 23:07:24 2024 GMT
        Subject: C = US, ST = Montana, L = Bozeman, O = wolfSSL_3072, OU = Programming-3072, CN = www.wolfssl.com, emailAddress = info@wolfssl.com
        Subject Public Key Info:
            Public Key Algorithm: rsaEncryption
                RSA Public-Key: (3072 bit)
                Modulus:
                    00:ac:39:50:68:8f:78:f8:10:9b:68:96:d3:e1:9c:
                    56:68:5a:41:62:e3:b3:41:b0:55:80:17:b0:88:16:
                    9b:e0:97:74:5f:42:79:73:42:df:93:f3:aa:9d:ee:
                    2d:6f:aa:bc:27:90:84:c0:5d:c7:ec:49:ea:5c:66:
                    1d:70:9c:53:5c:ba:a1:b3:58:c9:3e:8e:9b:72:3d:
                    6e:02:02:00:9c:65:56:82:a3:22:b4:08:5f:2a:ef:
                    df:9a:d0:e7:31:59:26:5b:0b:1c:63:61:ff:d5:69:
                    32:19:06:7e:0f:40:3c:7a:1e:c8:fc:58:6c:64:ae:
                    10:3d:a8:23:ff:8e:1a:ca:6a:82:e2:f9:01:64:2c:
                    97:a0:1a:89:a0:74:d3:b6:05:11:f2:62:06:48:2a:
                    f7:66:ce:c1:85:e1:d2:27:ea:ca:12:a5:91:97:3e:
                    fc:94:06:59:51:c0:e7:13:b6:87:7b:5f:d2:c0:56:
                    2f:5e:1d:02:c3:11:2c:df:f7:01:da:bd:85:54:35:
                    32:5f:c5:c8:f9:7a:9f:89:f7:03:0e:7e:79:5d:04:
                    82:35:10:fe:6d:9b:bf:b8:ee:e2:62:87:26:5e:2f:
                    50:2f:78:0c:e8:73:4f:88:6a:d6:26:a4:c9:fc:fa:
                    1e:8a:b0:f4:32:cf:57:cd:a1:58:8a:49:0f:bb:a9:
                    1d:86:ab:b9:8f:8d:57:19:b2:5a:7e:a4:ea:cc:b7:
                    96:7a:3b:38:cd:de:e0:61:fc:c9:06:8f:93:5a:ce:
                    ad:2a:e3:2d:3e:39:5d:41:83:01:1f:0f:e1:7f:76:
                    c7:28:da:56:ef:bf:dc:26:35:40:be:ad:c7:38:ad:
                    a4:06:ac:ca:e8:51:eb:c0:f8:68:02:2c:9b:a1:14:
                    bc:f8:61:86:d7:56:d7:73:f4:ab:bb:6a:21:d3:88:
                    22:b4:e7:6f:7f:91:e5:0e:c6:08:49:de:ea:13:58:
                    72:a0:aa:3a:f9:36:03:45:57:5e:87:d2:73:65:c4:
                    8c:a3:ee:c9:d6:73:7c:96:41:93
                Exponent: 65537 (0x10001)
        X509v3 extensions:
            X509v3 Subject Key Identifier: 
                3D:D1:84:C2:AF:B0:20:49:BC:74:87:41:38:AB:BA:D2:D4:0C:A3:A8
            X509v3 Authority Key Identifier: 
                keyid:3D:D1:84:C2:AF:B0:20:49:BC:74:87:41:38:AB:BA:D2:D4:0C:A3:A8
                DirName:/C=US/ST=Montana/L=Bozeman/O=wolfSSL_3072/OU=Programming-3072/CN=www.wolfssl.com/emailAddress=info@wolfssl.com
                serial:7F:8B:FD:1A:02:4E:04:53:8C:0D:42:CC:8D:E9:BC:DE:23:18:35:4B

            X509v3 Basic Constraints: 
                CA:TRUE
            X509v3 Subject Alternative Name: 
                DNS:example.com, IP Address:127.0.0.1
            X509v3 Extended Key Usage: 
                TLS Web Server Authentication, TLS Web Client Authentication
    Signature Algorithm: sha256WithRSAEncryption
         43:dc:b3:5c:82:c4:77:4b:e0:d9:2b:bb:c5:4a:cc:7a:0b:9c:
         da:44:5e:c5:42:dc:bc:6f:fe:75:fc:12:18:01:61:3c:6d:5d:
         30:4d:67:24:94:3e:4a:d3:da:a8:ba:b7:db:3c:e9:bd:bf:8f:
         e8:be:81:9a:e4:bf:94:a2:ae:4d:3e:90:45:27:f2:22:bb:6a:
         9b:04:91:db:fd:61:0c:ca:6d:f1:78:94:9e:57:ab:2e:f6:99:
         da:9a:55:e7:07:87:01:8c:9a:7c:90:ad:f2:bc:2c:2f:5a:a3:
         cc:c9:e2:ec:67:a9:1f:b7:2c:7b:b5:b4:ae:56:f3:86:f3:21:
         06:71:3c:5f:3c:16:44:24:f1:f7:dd:78:c2:fd:b6:ef:90:c1:
         fd:b2:a5:57:15:04:b6:90:3f:53:a8:4e:e0:49:22:09:08:35:
         da:af:2c:8c:d1:4b:28:26:9e:d1:03:07:28:95:b6:4b:b1:41:
         f2:94:2f:4c:3b:b3:0d:94:6b:cc:25:fc:5a:47:57:e5:6d:bd:
         8e:02:e9:19:3f:e4:51:08:5a:c8:fb:6c:01:e0:7d:8a:95:9e:
         1b:a6:e1:0e:da:3c:1e:69:f2:31:c8:f5:aa:72:a4:b5:01:5d:
         ff:a4:2b:2d:1c:34:72:80:a8:73:5f:98:a6:8d:69:2f:5f:7b:
         e8:7f:91:87:87:c5:61:cd:c7:c3:78:0c:aa:53:3e:fa:5d:8e:
         2f:05:11:36:fb:c0:b0:87:df:8a:be:5b:ad:43:4b:0f:77:ea:
         69:cd:ed:31:f7:48:96:09:d7:91:64:63:88:22:e3:b8:2c:72:
         98:92:34:2a:0a:fe:06:47:f6:ad:25:49:12:19:1d:4d:6f:e7:
         ad:94:08:2b:3b:6a:d2:d7:99:5e:2f:77:11:91:46:37:7b:5d:
         54:81:3c:6e:09:dc:95:22:88:24:dd:84:f7:89:40:76:51:52:
         81:c6:41:1f:ce:66:47:54:3f:fd:79:f9:af:16:42:a2:39:c5:
         a6:3b:6e:00:5d:81
-----BEGIN CERTIFICATE-----
MIIGHTCCBIWgAwIBAgIUf4v9GgJOBFOMDULMjem83iMYNUswDQYJKoZIhvcNAQEL
BQAwgZ4xCzAJBgNVBAYTAlVTMRAwDgYDVQQIDAdNb250YW5hMRAwDgYDVQQHDAdC
b3plbWFuMRUwEwYDVQQKDAx3b2xmU1NMXzMwNzIxGTAXBgNVBAsMEFByb2dyYW1t
aW5nLTMwNzIxGDAWBgNVBAMMD3d3dy53b2xmc3NsLmNvbTEfMB0GCSqGSIb3DQEJ
ARYQaW5mb0B3b2xmc3NsLmNvbTAeFw0yMTEyMjAyMzA3MjRaFw0yNDA5MTUyMzA3
MjRaMIGeMQswCQYDVQQGEwJVUzEQMA4GA1UECAwHTW9udGFuYTEQMA4GA1UEBwwH
Qm96ZW1hbjEVMBMGA1UECgwMd29sZlNTTF8zMDcyMRkwFwYDVQQLDBBQcm9ncmFt
bWluZy0zMDcyMRgwFgYDVQQDDA93d3cud29sZnNzbC5jb20xHzAdBgkqhkiG9w0B
CQEWEGluZm9Ad29sZnNzbC5jb20wggGiMA0GCSqGSIb3DQEBAQUAA4IBjwAwggGK
AoIBgQCsOVBoj3j4EJtoltPhnFZoWkFi47NBsFWAF7CIFpvgl3RfQnlzQt+T86qd
7i1vqrwnkITAXcfsSepcZh1wnFNcuqGzWMk+jptyPW4CAgCcZVaCoyK0CF8q79+a
0OcxWSZbCxxjYf/VaTIZBn4PQDx6Hsj8WGxkrhA9qCP/jhrKaoLi+QFkLJegGomg
dNO2BRHyYgZIKvdmzsGF4dIn6soSpZGXPvyUBllRwOcTtod7X9LAVi9eHQLDESzf
9wHavYVUNTJfxcj5ep+J9wMOfnldBII1EP5tm7+47uJihyZeL1AveAzoc0+IatYm
pMn8+h6KsPQyz1fNoViKSQ+7qR2Gq7mPjVcZslp+pOrMt5Z6OzjN3uBh/MkGj5Na
zq0q4y0+OV1BgwEfD+F/dsco2lbvv9wmNUC+rcc4raQGrMroUevA+GgCLJuhFLz4
YYbXVtdz9Ku7aiHTiCK0529/keUOxghJ3uoTWHKgqjr5NgNFV16H0nNlxIyj7snW
c3yWQZMCAwEAAaOCAU8wggFLMB0GA1UdDgQWBBQ90YTCr7AgSbx0h0E4q7rS1Ayj
qDCB3gYDVR0jBIHWMIHTgBQ90YTCr7AgSbx0h0E4q7rS1AyjqKGBpKSBoTCBnjEL
MAkGA1UEBhMCVVMxEDAOBgNVBAgMB01vbnRhbmExEDAOBgNVBAcMB0JvemVtYW4x
FTATBgNVBAoMDHdvbGZTU0xfMzA3MjEZMBcGA1UECwwQUHJvZ3JhbW1pbmctMzA3
MjEYMBYGA1UEAwwPd3d3LndvbGZzc2wuY29tMR8wHQYJKoZIhvcNAQkBFhBpbmZv
QHdvbGZzc2wuY29tghR/i/0aAk4EU4wNQsyN6bzeIxg1SzAMBgNVHRMEBTADAQH/
MBwGA1UdEQQVMBOCC2V4YW1wbGUuY29thwR/AAABMB0GA1UdJQQWMBQGCCsGAQUF
BwMBBggrBgEFBQcDAjANBgkqhkiG9w0BAQsFAAOCAYEAQ9yzXILEd0vg2Su7xUrM
eguc2kRexULcvG/+dfwSGAFhPG1dME1nJJQ+StPaqLq32zzpvb+P6L6BmuS/lKKu
TT6QRSfyIrtqmwSR2/1hDMpt8XiUnlerLvaZ2ppV5weHAYyafJCt8rwsL1qjzMni
7GepH7cse7W0rlbzhvMhBnE8XzwWRCTx9914wv2275DB/bKlVxUEtpA/U6hO4Eki
CQg12q8sjNFLKCae0QMHKJW2S7FB8pQvTDuzDZRrzCX8WkdX5W29jgLpGT/kUQha
yPtsAeB9ipWeG6bhDto8HmnyMcj1qnKktQFd/6QrLRw0coCoc1+Ypo1pL1976H+R
h4fFYc3Hw3gMqlM++l2OLwURNvvAsIffir5brUNLD3fqac3tMfdIlgnXkWRjiCLj
uCxymJI0Kgr+Bkf2rSVJEhkdTW/nrZQIKztq0teZXi93EZFGN3tdVIE8bgnclSKI
JN2E94lAdlFSgcZBH85mR1Q//Xn5rxZCojnFpjtuAF2B
-----END CERTIFICATE-----
