Certificate:
    Data:
        Version: 3 (0x2)
        Serial Number:
            56:00:73:e4:fd:16:65:63:5e:de:08:f8:2b:19:06:8d:b4:51:33:61
        Signature Algorithm: sha256WithRSAEncryption
        Issuer: C = US, ST = Montana, L = Bozeman, O = wolfSSL_3072, OU = Programming-3072, CN = www.wolfssl.com, emailAddress = info@wolfssl.com
        Validity
            Not Before: Feb 15 12:50:24 2022 GMT
            Not After : Nov 11 12:50:24 2024 GMT
        Subject: C = US, ST = Montana, L = Bozeman, O = wolfSSL_3072, OU = Programming-3072, CN = www.wolfssl.com, emailAddress = info@wolfssl.com
        Subject Public Key Info:
            Public Key Algorithm: rsaEncryption
                RSA Public-Key: (3072 bit)
                Modulus:
                    00:ac:39:50:68:8f:78:f8:10:9b:68:96:d3:e1:9c:
                    56:68:5a:41:62:e3:b3:41:b0:55:80:17:b0:88:16:
                    9b:e0:97:74:5f:42:79:73:42:df:93:f3:aa:9d:ee:
                    2d:6f:aa:bc:27:90:84:c0:5d:c7:ec:49:ea:5c:66:
                    1d:70:9c:53:5c:ba:a1:b3:58:c9:3e:8e:9b:72:3d:
                    6e:02:02:00:9c:65:56:82:a3:22:b4:08:5f:2a:ef:
                    df:9a:d0:e7:31:59:26:5b:0b:1c:63:61:ff:d5:69:
                    32:19:06:7e:0f:40:3c:7a:1e:c8:fc:58:6c:64:ae:
                    10:3d:a8:23:ff:8e:1a:ca:6a:82:e2:f9:01:64:2c:
                    97:a0:1a:89:a0:74:d3:b6:05:11:f2:62:06:48:2a:
                    f7:66:ce:c1:85:e1:d2:27:ea:ca:12:a5:91:97:3e:
                    fc:94:06:59:51:c0:e7:13:b6:87:7b:5f:d2:c0:56:
                    2f:5e:1d:02:c3:11:2c:df:f7:01:da:bd:85:54:35:
                    32:5f:c5:c8:f9:7a:9f:89:f7:03:0e:7e:79:5d:04:
                    82:35:10:fe:6d:9b:bf:b8:ee:e2:62:87:26:5e:2f:
                    50:2f:78:0c:e8:73:4f:88:6a:d6:26:a4:c9:fc:fa:
                    1e:8a:b0:f4:32:cf:57:cd:a1:58:8a:49:0f:bb:a9:
                    1d:86:ab:b9:8f:8d:57:19:b2:5a:7e:a4:ea:cc:b7:
                    96:7a:3b:38:cd:de:e0:61:fc:c9:06:8f:93:5a:ce:
                    ad:2a:e3:2d:3e:39:5d:41:83:01:1f:0f:e1:7f:76:
                    c7:28:da:56:ef:bf:dc:26:35:40:be:ad:c7:38:ad:
                    a4:06:ac:ca:e8:51:eb:c0:f8:68:02:2c:9b:a1:14:
                    bc:f8:61:86:d7:56:d7:73:f4:ab:bb:6a:21:d3:88:
                    22:b4:e7:6f:7f:91:e5:0e:c6:08:49:de:ea:13:58:
                    72:a0:aa:3a:f9:36:03:45:57:5e:87:d2:73:65:c4:
                    8c:a3:ee:c9:d6:73:7c:96:41:93
                Exponent: 65537 (0x10001)
        X509v3 extensions:
            X509v3 Subject Key Identifier: 
                3D:D1:84:C2:AF:B0:20:49:BC:74:87:41:38:AB:BA:D2:D4:0C:A3:A8
            X509v3 Authority Key Identifier: 
                keyid:3D:D1:84:C2:AF:B0:20:49:BC:74:87:41:38:AB:BA:D2:D4:0C:A3:A8
                DirName:/C=US/ST=Montana/L=Bozeman/O=wolfSSL_3072/OU=Programming-3072/CN=www.wolfssl.com/emailAddress=info@wolfssl.com
                serial:56:00:73:E4:FD:16:65:63:5E:DE:08:F8:2B:19:06:8D:B4:51:33:61

            X509v3 Basic Constraints: 
                CA:TRUE
            X509v3 Subject Alternative Name: 
                DNS:example.com, IP Address:127.0.0.1
            X509v3 Extended Key Usage: 
                TLS Web Server Authentication, TLS Web Client Authentication
    Signature Algorithm: sha256WithRSAEncryption
         4c:a2:6c:fd:0b:7c:96:1b:79:e6:bb:8c:ec:41:8d:a5:f1:23:
         fe:5d:04:96:29:3d:77:41:a2:66:c2:cb:3f:1b:da:8f:48:49:
         f8:5c:34:d4:66:2d:7a:9e:a3:55:7f:7b:a5:08:fa:04:f9:93:
         1d:36:9c:56:0e:4f:3e:c8:73:72:71:64:8a:dd:95:9f:85:8a:
         7d:3e:07:a4:50:3b:5c:fa:de:56:66:8d:5b:8f:af:ce:fa:2d:
         51:99:d5:77:3b:ae:92:0b:88:69:09:29:cd:08:11:24:35:82:
         9e:4b:da:c0:7d:41:4c:9f:8a:c7:56:cf:60:92:05:18:eb:95:
         5d:e5:64:24:26:d1:52:cc:c0:24:13:d1:6a:69:b3:c1:b6:17:
         0f:89:ff:2e:41:0e:27:be:32:e5:98:9f:72:a6:88:ae:4b:e7:
         d4:ba:06:81:4a:88:ee:39:45:7a:ce:b7:f6:bc:aa:d6:44:ef:
         01:e1:d4:aa:24:64:de:4e:a4:08:d2:b7:8c:da:fc:a1:95:d1:
         5b:44:0e:af:b0:fc:53:3c:80:3f:40:05:b1:18:49:a8:fe:bc:
         fb:74:25:4a:30:b3:f0:83:ba:fc:95:9c:4d:c1:01:94:94:5a:
         0c:03:d8:98:b3:95:e0:70:1a:1e:f4:12:74:b5:8c:13:2f:93:
         8f:5e:0e:70:3f:75:ed:52:6f:86:b3:b8:ca:7c:f2:e9:1d:83:
         bb:a1:90:e7:81:01:48:47:67:6f:ec:e4:6d:8b:90:b8:ee:4d:
         59:82:0c:b6:7b:4c:d2:3b:70:8e:e5:10:76:88:8e:76:55:dd:
         bb:39:c3:af:3e:b5:fb:c7:fb:5e:9b:55:e3:9b:10:f1:91:05:
         1e:72:8d:f0:51:33:7f:9e:4d:fb:ea:91:27:45:0c:aa:94:94:
         9e:4e:09:f2:06:17:74:dc:8d:6d:b0:53:13:3f:b3:4e:34:c8:
         0a:93:b9:cf:22:c3:e2:c9:ad:31:c1:e4:45:58:f4:40:2b:a9:
         d5:b0:c3:68:74:81
-----BEGIN CERTIFICATE-----
MIIGHTCCBIWgAwIBAgIUVgBz5P0WZWNe3gj4KxkGjbRRM2EwDQYJKoZIhvcNAQEL
BQAwgZ4xCzAJBgNVBAYTAlVTMRAwDgYDVQQIDAdNb250YW5hMRAwDgYDVQQHDAdC
b3plbWFuMRUwEwYDVQQKDAx3b2xmU1NMXzMwNzIxGTAXBgNVBAsMEFByb2dyYW1t
aW5nLTMwNzIxGDAWBgNVBAMMD3d3dy53b2xmc3NsLmNvbTEfMB0GCSqGSIb3DQEJ
ARYQaW5mb0B3b2xmc3NsLmNvbTAeFw0yMjAyMTUxMjUwMjRaFw0yNDExMTExMjUw
MjRaMIGeMQswCQYDVQQGEwJVUzEQMA4GA1UECAwHTW9udGFuYTEQMA4GA1UEBwwH
Qm96ZW1hbjEVMBMGA1UECgwMd29sZlNTTF8zMDcyMRkwFwYDVQQLDBBQcm9ncmFt
bWluZy0zMDcyMRgwFgYDVQQDDA93d3cud29sZnNzbC5jb20xHzAdBgkqhkiG9w0B
CQEWEGluZm9Ad29sZnNzbC5jb20wggGiMA0GCSqGSIb3DQEBAQUAA4IBjwAwggGK
AoIBgQCsOVBoj3j4EJtoltPhnFZoWkFi47NBsFWAF7CIFpvgl3RfQnlzQt+T86qd
7i1vqrwnkITAXcfsSepcZh1wnFNcuqGzWMk+jptyPW4CAgCcZVaCoyK0CF8q79+a
0OcxWSZbCxxjYf/VaTIZBn4PQDx6Hsj8WGxkrhA9qCP/jhrKaoLi+QFkLJegGomg
dNO2BRHyYgZIKvdmzsGF4dIn6soSpZGXPvyUBllRwOcTtod7X9LAVi9eHQLDESzf
9wHavYVUNTJfxcj5ep+J9wMOfnldBII1EP5tm7+47uJihyZeL1AveAzoc0+IatYm
pMn8+h6KsPQyz1fNoViKSQ+7qR2Gq7mPjVcZslp+pOrMt5Z6OzjN3uBh/MkGj5Na
zq0q4y0+OV1BgwEfD+F/dsco2lbvv9wmNUC+rcc4raQGrMroUevA+GgCLJuhFLz4
YYbXVtdz9Ku7aiHTiCK0529/keUOxghJ3uoTWHKgqjr5NgNFV16H0nNlxIyj7snW
c3yWQZMCAwEAAaOCAU8wggFLMB0GA1UdDgQWBBQ90YTCr7AgSbx0h0E4q7rS1Ayj
qDCB3gYDVR0jBIHWMIHTgBQ90YTCr7AgSbx0h0E4q7rS1AyjqKGBpKSBoTCBnjEL
MAkGA1UEBhMCVVMxEDAOBgNVBAgMB01vbnRhbmExEDAOBgNVBAcMB0JvemVtYW4x
FTATBgNVBAoMDHdvbGZTU0xfMzA3MjEZMBcGA1UECwwQUHJvZ3JhbW1pbmctMzA3
MjEYMBYGA1UEAwwPd3d3LndvbGZzc2wuY29tMR8wHQYJKoZIhvcNAQkBFhBpbmZv
QHdvbGZzc2wuY29tghRWAHPk/RZlY17eCPgrGQaNtFEzYTAMBgNVHRMEBTADAQH/
MBwGA1UdEQQVMBOCC2V4YW1wbGUuY29thwR/AAABMB0GA1UdJQQWMBQGCCsGAQUF
BwMBBggrBgEFBQcDAjANBgkqhkiG9w0BAQsFAAOCAYEATKJs/Qt8lht55ruM7EGN
pfEj/l0Elik9d0GiZsLLPxvaj0hJ+Fw01GYtep6jVX97pQj6BPmTHTacVg5PPshz
cnFkit2Vn4WKfT4HpFA7XPreVmaNW4+vzvotUZnVdzuukguIaQkpzQgRJDWCnkva
wH1BTJ+Kx1bPYJIFGOuVXeVkJCbRUszAJBPRammzwbYXD4n/LkEOJ74y5ZifcqaI
rkvn1LoGgUqI7jlFes639ryq1kTvAeHUqiRk3k6kCNK3jNr8oZXRW0QOr7D8UzyA
P0AFsRhJqP68+3QlSjCz8IO6/JWcTcEBlJRaDAPYmLOV4HAaHvQSdLWMEy+Tj14O
cD917VJvhrO4ynzy6R2Du6GQ54EBSEdnb+zkbYuQuO5NWYIMtntM0jtwjuUQdoiO
dlXduznDrz61+8f7XptV45sQ8ZEFHnKN8FEzf55N++qRJ0UMqpSUnk4J8gYXdNyN
bbBTEz+zTjTICpO5zyLD4smtMcHkRVj0QCup1bDDaHSB
-----END CERTIFICATE-----
