Certificate:
    Data:
        Version: 3 (0x2)
        Serial Number:
            59:ad:e7:11:e0:48:d8:24:69:27:68:09:8d:35:95:23:1b:29:78:6e
        Signature Algorithm: sha256WithRSAEncryption
        Issuer: C = US, ST = Montana, L = Bozeman, O = wolfSSL_3072, OU = Programming-3072, CN = www.wolfssl.com, emailAddress = info@wolfssl.com
        Validity
            Not Before: Sep 26 17:22:42 2023 GMT
            Not After : Jun 22 17:22:42 2026 GMT
        Subject: C = US, ST = Montana, L = Bozeman, O = wolfSSL_3072, OU = Programming-3072, CN = www.wolfssl.com, emailAddress = info@wolfssl.com
        Subject Public Key Info:
            Public Key Algorithm: rsaEncryption
                Public-Key: (3072 bit)
                Modulus:
                    00:ac:39:50:68:8f:78:f8:10:9b:68:96:d3:e1:9c:
                    56:68:5a:41:62:e3:b3:41:b0:55:80:17:b0:88:16:
                    9b:e0:97:74:5f:42:79:73:42:df:93:f3:aa:9d:ee:
                    2d:6f:aa:bc:27:90:84:c0:5d:c7:ec:49:ea:5c:66:
                    1d:70:9c:53:5c:ba:a1:b3:58:c9:3e:8e:9b:72:3d:
                    6e:02:02:00:9c:65:56:82:a3:22:b4:08:5f:2a:ef:
                    df:9a:d0:e7:31:59:26:5b:0b:1c:63:61:ff:d5:69:
                    32:19:06:7e:0f:40:3c:7a:1e:c8:fc:58:6c:64:ae:
                    10:3d:a8:23:ff:8e:1a:ca:6a:82:e2:f9:01:64:2c:
                    97:a0:1a:89:a0:74:d3:b6:05:11:f2:62:06:48:2a:
                    f7:66:ce:c1:85:e1:d2:27:ea:ca:12:a5:91:97:3e:
                    fc:94:06:59:51:c0:e7:13:b6:87:7b:5f:d2:c0:56:
                    2f:5e:1d:02:c3:11:2c:df:f7:01:da:bd:85:54:35:
                    32:5f:c5:c8:f9:7a:9f:89:f7:03:0e:7e:79:5d:04:
                    82:35:10:fe:6d:9b:bf:b8:ee:e2:62:87:26:5e:2f:
                    50:2f:78:0c:e8:73:4f:88:6a:d6:26:a4:c9:fc:fa:
                    1e:8a:b0:f4:32:cf:57:cd:a1:58:8a:49:0f:bb:a9:
                    1d:86:ab:b9:8f:8d:57:19:b2:5a:7e:a4:ea:cc:b7:
                    96:7a:3b:38:cd:de:e0:61:fc:c9:06:8f:93:5a:ce:
                    ad:2a:e3:2d:3e:39:5d:41:83:01:1f:0f:e1:7f:76:
                    c7:28:da:56:ef:bf:dc:26:35:40:be:ad:c7:38:ad:
                    a4:06:ac:ca:e8:51:eb:c0:f8:68:02:2c:9b:a1:14:
                    bc:f8:61:86:d7:56:d7:73:f4:ab:bb:6a:21:d3:88:
                    22:b4:e7:6f:7f:91:e5:0e:c6:08:49:de:ea:13:58:
                    72:a0:aa:3a:f9:36:03:45:57:5e:87:d2:73:65:c4:
                    8c:a3:ee:c9:d6:73:7c:96:41:93
                Exponent: 65537 (0x10001)
        X509v3 extensions:
            X509v3 Subject Key Identifier: 
                3D:D1:84:C2:AF:B0:20:49:BC:74:87:41:38:AB:BA:D2:D4:0C:A3:A8
            X509v3 Authority Key Identifier: 
                keyid:3D:D1:84:C2:AF:B0:20:49:BC:74:87:41:38:AB:BA:D2:D4:0C:A3:A8
                DirName:/C=US/ST=Montana/L=Bozeman/O=wolfSSL_3072/OU=Programming-3072/CN=www.wolfssl.com/emailAddress=info@wolfssl.com
                serial:59:AD:E7:11:E0:48:D8:24:69:27:68:09:8D:35:95:23:1B:29:78:6E
            X509v3 Basic Constraints: 
                CA:TRUE
            X509v3 Subject Alternative Name: 
                DNS:example.com, IP Address:127.0.0.1
            X509v3 Extended Key Usage: 
                TLS Web Server Authentication, TLS Web Client Authentication
    Signature Algorithm: sha256WithRSAEncryption
    Signature Value:
        6b:30:67:b7:b6:77:76:b0:2e:aa:f8:97:47:f6:86:89:67:f4:
        72:0d:23:66:8f:a2:6e:9d:cc:c6:e6:4f:30:bd:05:18:7f:d4:
        66:aa:57:c1:1c:3c:62:1d:1b:d5:e6:0b:6d:cd:97:6b:f8:29:
        81:b5:79:4d:2e:68:79:fe:dd:80:aa:e9:33:22:37:51:f1:8e:
        bd:0f:b6:cb:67:8a:44:d7:c5:2d:4a:49:ed:1f:6d:de:cb:77:
        2c:0c:71:98:7b:11:05:26:d1:41:11:af:4f:52:9b:01:bb:7b:
        69:bb:18:75:dc:f2:5c:4e:64:33:3e:d2:28:20:75:05:e9:b8:
        47:08:15:8c:ef:6b:9b:96:6d:2a:6d:2c:0c:54:21:af:8f:63:
        72:a9:4e:14:2b:a9:42:cc:42:28:de:14:b3:1c:f8:4f:2f:65:
        b1:2a:5e:f9:56:35:77:06:fc:ce:04:2e:c7:c1:0f:2b:66:f2:
        90:64:9c:97:5f:62:3a:a8:0c:87:cd:b6:04:60:50:3e:23:ca:
        87:cf:19:ce:45:53:dd:d6:2e:09:e5:38:a6:57:31:db:8e:e3:
        b9:8b:7d:b4:6c:a9:cd:c8:55:1d:43:a3:71:c0:cb:08:b3:f4:
        e4:25:b2:78:64:2e:32:89:a3:ce:2a:c4:aa:33:54:25:f9:f1:
        a9:3a:9b:de:f8:41:64:79:2d:e3:69:93:36:10:81:80:4f:26:
        f6:12:f6:87:b3:4c:49:ad:ea:de:f6:5c:89:29:4a:4a:7e:fb:
        05:40:e8:5f:e6:0c:6e:5a:cc:f0:60:7b:9a:70:60:b9:70:98:
        3c:e2:24:a4:f4:37:b9:a1:4e:9f:ac:00:50:7f:c3:9e:8b:92:
        00:80:a4:6e:a6:7c:23:3c:51:0f:82:1d:ae:7f:dc:d2:08:ab:
        d7:9a:b4:c7:fd:5e:97:17:8c:47:5c:dd:45:41:b5:85:c9:c5:
        a4:64:e2:01:6c:f0:48:4a:fa:84:65:23:a4:34:94:f5:81:6c:
        37:c0:62:02:49:5b
-----BEGIN CERTIFICATE-----
MIIGHTCCBIWgAwIBAgIUWa3nEeBI2CRpJ2gJjTWVIxspeG4wDQYJKoZIhvcNAQEL
BQAwgZ4xCzAJBgNVBAYTAlVTMRAwDgYDVQQIDAdNb250YW5hMRAwDgYDVQQHDAdC
b3plbWFuMRUwEwYDVQQKDAx3b2xmU1NMXzMwNzIxGTAXBgNVBAsMEFByb2dyYW1t
aW5nLTMwNzIxGDAWBgNVBAMMD3d3dy53b2xmc3NsLmNvbTEfMB0GCSqGSIb3DQEJ
ARYQaW5mb0B3b2xmc3NsLmNvbTAeFw0yMzA5MjYxNzIyNDJaFw0yNjA2MjIxNzIy
NDJaMIGeMQswCQYDVQQGEwJVUzEQMA4GA1UECAwHTW9udGFuYTEQMA4GA1UEBwwH
Qm96ZW1hbjEVMBMGA1UECgwMd29sZlNTTF8zMDcyMRkwFwYDVQQLDBBQcm9ncmFt
bWluZy0zMDcyMRgwFgYDVQQDDA93d3cud29sZnNzbC5jb20xHzAdBgkqhkiG9w0B
CQEWEGluZm9Ad29sZnNzbC5jb20wggGiMA0GCSqGSIb3DQEBAQUAA4IBjwAwggGK
AoIBgQCsOVBoj3j4EJtoltPhnFZoWkFi47NBsFWAF7CIFpvgl3RfQnlzQt+T86qd
7i1vqrwnkITAXcfsSepcZh1wnFNcuqGzWMk+jptyPW4CAgCcZVaCoyK0CF8q79+a
0OcxWSZbCxxjYf/VaTIZBn4PQDx6Hsj8WGxkrhA9qCP/jhrKaoLi+QFkLJegGomg
dNO2BRHyYgZIKvdmzsGF4dIn6soSpZGXPvyUBllRwOcTtod7X9LAVi9eHQLDESzf
9wHavYVUNTJfxcj5ep+J9wMOfnldBII1EP5tm7+47uJihyZeL1AveAzoc0+IatYm
pMn8+h6KsPQyz1fNoViKSQ+7qR2Gq7mPjVcZslp+pOrMt5Z6OzjN3uBh/MkGj5Na
zq0q4y0+OV1BgwEfD+F/dsco2lbvv9wmNUC+rcc4raQGrMroUevA+GgCLJuhFLz4
YYbXVtdz9Ku7aiHTiCK0529/keUOxghJ3uoTWHKgqjr5NgNFV16H0nNlxIyj7snW
c3yWQZMCAwEAAaOCAU8wggFLMB0GA1UdDgQWBBQ90YTCr7AgSbx0h0E4q7rS1Ayj
qDCB3gYDVR0jBIHWMIHTgBQ90YTCr7AgSbx0h0E4q7rS1AyjqKGBpKSBoTCBnjEL
MAkGA1UEBhMCVVMxEDAOBgNVBAgMB01vbnRhbmExEDAOBgNVBAcMB0JvemVtYW4x
FTATBgNVBAoMDHdvbGZTU0xfMzA3MjEZMBcGA1UECwwQUHJvZ3JhbW1pbmctMzA3
MjEYMBYGA1UEAwwPd3d3LndvbGZzc2wuY29tMR8wHQYJKoZIhvcNAQkBFhBpbmZv
QHdvbGZzc2wuY29tghRZrecR4EjYJGknaAmNNZUjGyl4bjAMBgNVHRMEBTADAQH/
MBwGA1UdEQQVMBOCC2V4YW1wbGUuY29thwR/AAABMB0GA1UdJQQWMBQGCCsGAQUF
BwMBBggrBgEFBQcDAjANBgkqhkiG9w0BAQsFAAOCAYEAazBnt7Z3drAuqviXR/aG
iWf0cg0jZo+ibp3MxuZPML0FGH/UZqpXwRw8Yh0b1eYLbc2Xa/gpgbV5TS5oef7d
gKrpMyI3UfGOvQ+2y2eKRNfFLUpJ7R9t3st3LAxxmHsRBSbRQRGvT1KbAbt7absY
ddzyXE5kMz7SKCB1Bem4RwgVjO9rm5ZtKm0sDFQhr49jcqlOFCupQsxCKN4Usxz4
Ty9lsSpe+VY1dwb8zgQux8EPK2bykGScl19iOqgMh822BGBQPiPKh88ZzkVT3dYu
CeU4plcx247juYt9tGypzchVHUOjccDLCLP05CWyeGQuMomjzirEqjNUJfnxqTqb
3vhBZHkt42mTNhCBgE8m9hL2h7NMSa3q3vZciSlKSn77BUDoX+YMblrM8GB7mnBg
uXCYPOIkpPQ3uaFOn6wAUH/DnouSAICkbqZ8IzxRD4Idrn/c0gir15q0x/1elxeM
R1zdRUG1hcnFpGTiAWzwSEr6hGUjpDSU9YFsN8BiAklb
-----END CERTIFICATE-----
