Certificate:
    Data:
        Version: 3 (0x2)
        Serial Number:
            3f:e2:ac:14:db:a0:27:6d:92:d8:e9:2a:23:c6:60:c0:1f:b9:a2:47
        Signature Algorithm: sha256WithRSAEncryption
        Issuer: C=US, ST=Montana, L=Bozeman, O=wolfSSL_3072, OU=Programming-3072, CN=www.wolfssl.com, emailAddress=info@wolfssl.com
        Validity
            Not Before: Nov 13 20:41:10 2025 GMT
            Not After : Aug  9 20:41:10 2028 GMT
        Subject: C=US, ST=Montana, L=Bozeman, O=wolfSSL_3072, OU=Programming-3072, CN=www.wolfssl.com, emailAddress=info@wolfssl.com
        Subject Public Key Info:
            Public Key Algorithm: rsaEncryption
                Public-Key: (3072 bit)
                Modulus:
                    00:ac:39:50:68:8f:78:f8:10:9b:68:96:d3:e1:9c:
                    56:68:5a:41:62:e3:b3:41:b0:55:80:17:b0:88:16:
                    9b:e0:97:74:5f:42:79:73:42:df:93:f3:aa:9d:ee:
                    2d:6f:aa:bc:27:90:84:c0:5d:c7:ec:49:ea:5c:66:
                    1d:70:9c:53:5c:ba:a1:b3:58:c9:3e:8e:9b:72:3d:
                    6e:02:02:00:9c:65:56:82:a3:22:b4:08:5f:2a:ef:
                    df:9a:d0:e7:31:59:26:5b:0b:1c:63:61:ff:d5:69:
                    32:19:06:7e:0f:40:3c:7a:1e:c8:fc:58:6c:64:ae:
                    10:3d:a8:23:ff:8e:1a:ca:6a:82:e2:f9:01:64:2c:
                    97:a0:1a:89:a0:74:d3:b6:05:11:f2:62:06:48:2a:
                    f7:66:ce:c1:85:e1:d2:27:ea:ca:12:a5:91:97:3e:
                    fc:94:06:59:51:c0:e7:13:b6:87:7b:5f:d2:c0:56:
                    2f:5e:1d:02:c3:11:2c:df:f7:01:da:bd:85:54:35:
                    32:5f:c5:c8:f9:7a:9f:89:f7:03:0e:7e:79:5d:04:
                    82:35:10:fe:6d:9b:bf:b8:ee:e2:62:87:26:5e:2f:
                    50:2f:78:0c:e8:73:4f:88:6a:d6:26:a4:c9:fc:fa:
                    1e:8a:b0:f4:32:cf:57:cd:a1:58:8a:49:0f:bb:a9:
                    1d:86:ab:b9:8f:8d:57:19:b2:5a:7e:a4:ea:cc:b7:
                    96:7a:3b:38:cd:de:e0:61:fc:c9:06:8f:93:5a:ce:
                    ad:2a:e3:2d:3e:39:5d:41:83:01:1f:0f:e1:7f:76:
                    c7:28:da:56:ef:bf:dc:26:35:40:be:ad:c7:38:ad:
                    a4:06:ac:ca:e8:51:eb:c0:f8:68:02:2c:9b:a1:14:
                    bc:f8:61:86:d7:56:d7:73:f4:ab:bb:6a:21:d3:88:
                    22:b4:e7:6f:7f:91:e5:0e:c6:08:49:de:ea:13:58:
                    72:a0:aa:3a:f9:36:03:45:57:5e:87:d2:73:65:c4:
                    8c:a3:ee:c9:d6:73:7c:96:41:93
                Exponent: 65537 (0x10001)
        X509v3 extensions:
            X509v3 Subject Key Identifier: 
                3D:D1:84:C2:AF:B0:20:49:BC:74:87:41:38:AB:BA:D2:D4:0C:A3:A8
            X509v3 Authority Key Identifier: 
                keyid:3D:D1:84:C2:AF:B0:20:49:BC:74:87:41:38:AB:BA:D2:D4:0C:A3:A8
                DirName:/C=US/ST=Montana/L=Bozeman/O=wolfSSL_3072/OU=Programming-3072/CN=www.wolfssl.com/emailAddress=info@wolfssl.com
                serial:3F:E2:AC:14:DB:A0:27:6D:92:D8:E9:2A:23:C6:60:C0:1F:B9:A2:47
            X509v3 Basic Constraints: 
                CA:TRUE
            X509v3 Subject Alternative Name: 
                DNS:example.com, IP Address:127.0.0.1
            X509v3 Extended Key Usage: 
                TLS Web Server Authentication, TLS Web Client Authentication
    Signature Algorithm: sha256WithRSAEncryption
    Signature Value:
        65:e1:4d:a2:13:4f:6e:c3:68:9b:02:2b:af:1e:cb:b9:1c:47:
        e3:d5:6d:1c:b7:ea:6f:58:6b:68:59:f9:ec:87:55:6a:c3:2c:
        ef:1c:d5:1c:a8:4b:73:4f:2b:a9:29:ad:c1:d9:b5:fa:b8:3a:
        2c:a8:b3:6c:50:21:47:3b:f5:98:ea:bd:a3:c5:74:86:15:1a:
        6e:37:60:62:06:17:11:b3:ff:0f:2d:f0:9a:21:bf:74:74:f1:
        dd:ef:9f:b0:8e:9a:4a:28:09:54:f8:f6:83:61:21:40:c6:d1:
        72:14:61:2c:ad:b0:38:7a:0c:54:c4:fc:6e:18:1a:1c:31:a3:
        70:22:a8:18:fb:f0:6a:84:69:cb:fc:40:1a:64:d9:8e:8c:54:
        a0:23:c1:dc:7c:9a:b6:82:ea:ed:a3:79:64:50:df:3b:b9:76:
        23:48:06:3a:2d:47:04:25:56:e6:7e:b6:c8:ad:1f:87:69:42:
        e3:fa:ab:18:22:40:20:88:57:4e:9f:e5:30:bd:99:71:0d:d4:
        1c:95:22:49:7b:85:38:62:ef:d4:7e:d7:87:a5:59:79:c6:4b:
        51:e8:b5:9e:32:3e:4c:03:b7:b5:ae:8e:6f:c6:0b:52:dd:66:
        24:48:01:aa:8d:1a:26:f6:19:04:54:98:27:05:47:00:49:b8:
        7a:30:8e:27:a1:e6:31:fb:8b:21:eb:cd:c3:4d:4d:09:a6:6e:
        24:42:9b:de:4a:f2:37:73:69:9a:36:e2:37:fc:2e:86:d6:47:
        7d:9a:0d:37:a2:b4:f0:44:ad:d0:7b:c2:f0:e3:5f:bb:76:62:
        93:0f:b2:11:f3:10:88:0b:f1:4a:d9:9b:d9:cc:71:46:81:55:
        e9:79:02:27:c5:36:42:b7:10:bf:f1:04:1c:18:ac:d7:03:8b:
        f3:35:f4:12:18:10:58:f3:6b:59:50:6a:0e:c6:df:7c:61:c0:
        fd:38:a7:0c:f1:a7:fe:59:75:7c:20:75:ec:76:ce:cb:ff:9f:
        9f:aa:a5:97:bb:d4
-----BEGIN CERTIFICATE-----
MIIGHTCCBIWgAwIBAgIUP+KsFNugJ22S2OkqI8ZgwB+5okcwDQYJKoZIhvcNAQEL
BQAwgZ4xCzAJBgNVBAYTAlVTMRAwDgYDVQQIDAdNb250YW5hMRAwDgYDVQQHDAdC
b3plbWFuMRUwEwYDVQQKDAx3b2xmU1NMXzMwNzIxGTAXBgNVBAsMEFByb2dyYW1t
aW5nLTMwNzIxGDAWBgNVBAMMD3d3dy53b2xmc3NsLmNvbTEfMB0GCSqGSIb3DQEJ
ARYQaW5mb0B3b2xmc3NsLmNvbTAeFw0yNTExMTMyMDQxMTBaFw0yODA4MDkyMDQx
MTBaMIGeMQswCQYDVQQGEwJVUzEQMA4GA1UECAwHTW9udGFuYTEQMA4GA1UEBwwH
Qm96ZW1hbjEVMBMGA1UECgwMd29sZlNTTF8zMDcyMRkwFwYDVQQLDBBQcm9ncmFt
bWluZy0zMDcyMRgwFgYDVQQDDA93d3cud29sZnNzbC5jb20xHzAdBgkqhkiG9w0B
CQEWEGluZm9Ad29sZnNzbC5jb20wggGiMA0GCSqGSIb3DQEBAQUAA4IBjwAwggGK
AoIBgQCsOVBoj3j4EJtoltPhnFZoWkFi47NBsFWAF7CIFpvgl3RfQnlzQt+T86qd
7i1vqrwnkITAXcfsSepcZh1wnFNcuqGzWMk+jptyPW4CAgCcZVaCoyK0CF8q79+a
0OcxWSZbCxxjYf/VaTIZBn4PQDx6Hsj8WGxkrhA9qCP/jhrKaoLi+QFkLJegGomg
dNO2BRHyYgZIKvdmzsGF4dIn6soSpZGXPvyUBllRwOcTtod7X9LAVi9eHQLDESzf
9wHavYVUNTJfxcj5ep+J9wMOfnldBII1EP5tm7+47uJihyZeL1AveAzoc0+IatYm
pMn8+h6KsPQyz1fNoViKSQ+7qR2Gq7mPjVcZslp+pOrMt5Z6OzjN3uBh/MkGj5Na
zq0q4y0+OV1BgwEfD+F/dsco2lbvv9wmNUC+rcc4raQGrMroUevA+GgCLJuhFLz4
YYbXVtdz9Ku7aiHTiCK0529/keUOxghJ3uoTWHKgqjr5NgNFV16H0nNlxIyj7snW
c3yWQZMCAwEAAaOCAU8wggFLMB0GA1UdDgQWBBQ90YTCr7AgSbx0h0E4q7rS1Ayj
qDCB3gYDVR0jBIHWMIHTgBQ90YTCr7AgSbx0h0E4q7rS1AyjqKGBpKSBoTCBnjEL
MAkGA1UEBhMCVVMxEDAOBgNVBAgMB01vbnRhbmExEDAOBgNVBAcMB0JvemVtYW4x
FTATBgNVBAoMDHdvbGZTU0xfMzA3MjEZMBcGA1UECwwQUHJvZ3JhbW1pbmctMzA3
MjEYMBYGA1UEAwwPd3d3LndvbGZzc2wuY29tMR8wHQYJKoZIhvcNAQkBFhBpbmZv
QHdvbGZzc2wuY29tghQ/4qwU26AnbZLY6SojxmDAH7miRzAMBgNVHRMEBTADAQH/
MBwGA1UdEQQVMBOCC2V4YW1wbGUuY29thwR/AAABMB0GA1UdJQQWMBQGCCsGAQUF
BwMBBggrBgEFBQcDAjANBgkqhkiG9w0BAQsFAAOCAYEAZeFNohNPbsNomwIrrx7L
uRxH49VtHLfqb1hraFn57IdVasMs7xzVHKhLc08rqSmtwdm1+rg6LKizbFAhRzv1
mOq9o8V0hhUabjdgYgYXEbP/Dy3wmiG/dHTx3e+fsI6aSigJVPj2g2EhQMbRchRh
LK2wOHoMVMT8bhgaHDGjcCKoGPvwaoRpy/xAGmTZjoxUoCPB3HyatoLq7aN5ZFDf
O7l2I0gGOi1HBCVW5n62yK0fh2lC4/qrGCJAIIhXTp/lML2ZcQ3UHJUiSXuFOGLv
1H7Xh6VZecZLUei1njI+TAO3ta6Ob8YLUt1mJEgBqo0aJvYZBFSYJwVHAEm4ejCO
J6HmMfuLIevNw01NCaZuJEKb3kryN3NpmjbiN/wuhtZHfZoNN6K08ESt0HvC8ONf
u3Zikw+yEfMQiAvxStmb2cxxRoFV6XkCJ8U2QrcQv/EEHBis1wOL8zX0EhgQWPNr
WVBqDsbffGHA/TinDPGn/ll1fCB17HbOy/+fn6qll7vU
-----END CERTIFICATE-----
