Certificate:
    Data:
        Version: 3 (0x2)
        Serial Number: 1 (0x1)
        Signature Algorithm: ED448
        Issuer: C = US, ST = Montana, L = Bozeman, O = wolfSSL_Ed448, OU = Root-Ed448, CN = www.wolfssl.com, emailAddress = info@wolfssl.com
        Validity
            Not Before: Sep 26 17:22:43 2023 GMT
            Not After : Jun 22 17:22:43 2026 GMT
        Subject: C = US, ST = Montana, L = Bozeman, O = wolfSSL_ed448, OU = CA-ed448, CN = www.wolfssl.com, emailAddress = info@wolfssl.com, UID = wolfSSL
        Subject Public Key Info:
            Public Key Algorithm: ED448
                ED448 Public-Key:
                pub:
                    0e:e2:b4:76:e5:d2:cc:c2:4b:7b:b0:29:be:92:fb:
                    c3:af:69:a5:94:ba:70:24:e8:a3:ef:c8:63:9a:dd:
                    a6:af:58:43:38:04:24:f0:10:91:be:a7:01:91:54:
                    f3:cf:69:85:4c:b9:97:8c:a4:37:aa:00
        X509v3 extensions:
            X509v3 Subject Key Identifier: 
                38:59:45:E8:DD:44:2C:B5:7D:A5:25:D6:0B:CC:39:F0:72:C0:94:63
            X509v3 Authority Key Identifier: 
                DA:69:98:C9:26:4A:75:FB:59:5E:53:9A:63:4B:0C:B8:88:0B:0F:1E
            X509v3 Basic Constraints: critical
                CA:TRUE
            X509v3 Key Usage: critical
                Digital Signature, Certificate Sign, CRL Sign
    Signature Algorithm: ED448
    Signature Value:
        6e:e8:f2:22:99:f5:93:e6:2f:e0:be:b7:d9:97:25:a9:96:8c:
        29:f7:a9:ff:a9:88:da:63:a6:d2:2b:87:3e:e1:96:3e:28:60:
        dd:fb:34:15:18:f3:95:2f:ea:f1:52:61:63:d7:c3:a0:eb:a6:
        4c:54:80:0f:d3:48:61:23:ea:b1:fd:67:3c:2b:10:4e:bb:1c:
        8b:97:e1:6a:34:8b:bd:c3:cd:b1:18:87:39:2c:40:56:fc:6b:
        68:1d:65:af:fe:34:10:96:99:8a:53:45:c7:fc:81:aa:83:2c:
        7a:5b:11:ce:0f:00
-----BEGIN CERTIFICATE-----
MIICqDCCAiigAwIBAgIBATAFBgMrZXEwgZkxCzAJBgNVBAYTAlVTMRAwDgYDVQQI
DAdNb250YW5hMRAwDgYDVQQHDAdCb3plbWFuMRYwFAYDVQQKDA13b2xmU1NMX0Vk
NDQ4MRMwEQYDVQQLDApSb290LUVkNDQ4MRgwFgYDVQQDDA93d3cud29sZnNzbC5j
b20xHzAdBgkqhkiG9w0BCQEWEGluZm9Ad29sZnNzbC5jb20wHhcNMjMwOTI2MTcy
MjQzWhcNMjYwNjIyMTcyMjQzWjCBsDELMAkGA1UEBhMCVVMxEDAOBgNVBAgMB01v
bnRhbmExEDAOBgNVBAcMB0JvemVtYW4xFjAUBgNVBAoMDXdvbGZTU0xfZWQ0NDgx
ETAPBgNVBAsMCENBLWVkNDQ4MRgwFgYDVQQDDA93d3cud29sZnNzbC5jb20xHzAd
BgkqhkiG9w0BCQEWEGluZm9Ad29sZnNzbC5jb20xFzAVBgoJkiaJk/IsZAEBDAd3
b2xmU1NMMEMwBQYDK2VxAzoADuK0duXSzMJLe7ApvpL7w69ppZS6cCToo+/IY5rd
pq9YQzgEJPAQkb6nAZFU889phUy5l4ykN6oAo2MwYTAdBgNVHQ4EFgQUOFlF6N1E
LLV9pSXWC8w58HLAlGMwHwYDVR0jBBgwFoAU2mmYySZKdftZXlOaY0sMuIgLDx4w
DwYDVR0TAQH/BAUwAwEB/zAOBgNVHQ8BAf8EBAMCAYYwBQYDK2VxA3MAbujyIpn1
k+Yv4L632ZclqZaMKfep/6mI2mOm0iuHPuGWPihg3fs0FRjzlS/q8VJhY9fDoOum
TFSAD9NIYSPqsf1nPCsQTrsci5fhajSLvcPNsRiHOSxAVvxraB1lr/40EJaZilNF
x/yBqoMselsRzg8A
-----END CERTIFICATE-----
