Certificate:
    Data:
        Version: 3 (0x2)
        Serial Number: 1 (0x1)
        Signature Algorithm: ED448
        Issuer: C = US, ST = Montana, L = Bozeman, O = wolfSSL_Ed448, OU = Root-Ed448, CN = www.wolfssl.com, emailAddress = info@wolfssl.com
        Validity
            Not Before: May  7 07:39:04 2020 GMT
            Not After : Feb  1 07:39:04 2023 GMT
        Subject: C = US, ST = Montana, L = Bozeman, O = wolfSSL_ed448, OU = CA-ed448, CN = www.wolfssl.com, emailAddress = info@wolfssl.com
        Subject Public Key Info:
            Public Key Algorithm: ED448
                ED448 Public-Key:
                pub:
                    0e:e2:b4:76:e5:d2:cc:c2:4b:7b:b0:29:be:92:fb:
                    c3:af:69:a5:94:ba:70:24:e8:a3:ef:c8:63:9a:dd:
                    a6:af:58:43:38:04:24:f0:10:91:be:a7:01:91:54:
                    f3:cf:69:85:4c:b9:97:8c:a4:37:aa:00
        X509v3 extensions:
            X509v3 Subject Key Identifier: 
                38:59:45:E8:DD:44:2C:B5:7D:A5:25:D6:0B:CC:39:F0:72:C0:94:63
            X509v3 Authority Key Identifier: 
                keyid:DA:69:98:C9:26:4A:75:FB:59:5E:53:9A:63:4B:0C:B8:88:0B:0F:1E

            X509v3 Basic Constraints: critical
                CA:TRUE
            X509v3 Key Usage: critical
                Digital Signature, Certificate Sign, CRL Sign
    Signature Algorithm: ED448
         b9:75:55:89:7d:cb:d7:35:7a:21:3c:be:43:be:2b:c1:5c:95:
         98:2b:74:f3:0c:27:da:1d:dc:f9:5e:2f:cd:5d:53:18:24:c5:
         b3:f7:54:44:8d:fc:d0:d2:32:58:15:29:62:3f:d2:88:43:96:
         a9:26:80:1a:ec:a8:17:c3:c2:79:30:06:6c:cb:27:9b:a3:b9:
         71:70:1e:73:34:ec:2b:50:9b:34:39:da:cc:e7:bf:6c:64:47:
         84:c3:e9:73:95:ac:a6:ab:ee:f4:6b:d4:b8:2b:38:7c:62:0e:
         b4:24:74:50:03:00
-----BEGIN CERTIFICATE-----
MIICjzCCAg+gAwIBAgIBATAFBgMrZXEwgZkxCzAJBgNVBAYTAlVTMRAwDgYDVQQI
DAdNb250YW5hMRAwDgYDVQQHDAdCb3plbWFuMRYwFAYDVQQKDA13b2xmU1NMX0Vk
NDQ4MRMwEQYDVQQLDApSb290LUVkNDQ4MRgwFgYDVQQDDA93d3cud29sZnNzbC5j
b20xHzAdBgkqhkiG9w0BCQEWEGluZm9Ad29sZnNzbC5jb20wHhcNMjAwNTA3MDcz
OTA0WhcNMjMwMjAxMDczOTA0WjCBlzELMAkGA1UEBhMCVVMxEDAOBgNVBAgMB01v
bnRhbmExEDAOBgNVBAcMB0JvemVtYW4xFjAUBgNVBAoMDXdvbGZTU0xfZWQ0NDgx
ETAPBgNVBAsMCENBLWVkNDQ4MRgwFgYDVQQDDA93d3cud29sZnNzbC5jb20xHzAd
BgkqhkiG9w0BCQEWEGluZm9Ad29sZnNzbC5jb20wQzAFBgMrZXEDOgAO4rR25dLM
wkt7sCm+kvvDr2mllLpwJOij78hjmt2mr1hDOAQk8BCRvqcBkVTzz2mFTLmXjKQ3
qgCjYzBhMB0GA1UdDgQWBBQ4WUXo3UQstX2lJdYLzDnwcsCUYzAfBgNVHSMEGDAW
gBTaaZjJJkp1+1leU5pjSwy4iAsPHjAPBgNVHRMBAf8EBTADAQH/MA4GA1UdDwEB
/wQEAwIBhjAFBgMrZXEDcwC5dVWJfcvXNXohPL5DvivBXJWYK3TzDCfaHdz5Xi/N
XVMYJMWz91REjfzQ0jJYFSliP9KIQ5apJoAa7KgXw8J5MAZsyyebo7lxcB5zNOwr
UJs0OdrM579sZEeEw+lzlaymq+70a9S4Kzh8Yg60JHRQAwA=
-----END CERTIFICATE-----
