Certificate:
    Data:
        Version: 3 (0x2)
        Serial Number: 1 (0x1)
        Signature Algorithm: ED448
        Issuer: C = US, ST = Montana, L = Bozeman, O = wolfSSL_Ed448, OU = Root-Ed448, CN = www.wolfssl.com, emailAddress = info@wolfssl.com
        Validity
            Not Before: Jun 19 13:23:41 2020 GMT
            Not After : Mar 16 13:23:41 2023 GMT
        Subject: C = US, ST = Montana, L = Bozeman, O = wolfSSL_ed448, OU = CA-ed448, CN = www.wolfssl.com, emailAddress = info@wolfssl.com
        Subject Public Key Info:
            Public Key Algorithm: ED448
                ED448 Public-Key:
                pub:
                    0e:e2:b4:76:e5:d2:cc:c2:4b:7b:b0:29:be:92:fb:
                    c3:af:69:a5:94:ba:70:24:e8:a3:ef:c8:63:9a:dd:
                    a6:af:58:43:38:04:24:f0:10:91:be:a7:01:91:54:
                    f3:cf:69:85:4c:b9:97:8c:a4:37:aa:00
        X509v3 extensions:
            X509v3 Subject Key Identifier: 
                38:59:45:E8:DD:44:2C:B5:7D:A5:25:D6:0B:CC:39:F0:72:C0:94:63
            X509v3 Authority Key Identifier: 
                keyid:DA:69:98:C9:26:4A:75:FB:59:5E:53:9A:63:4B:0C:B8:88:0B:0F:1E

            X509v3 Basic Constraints: critical
                CA:TRUE
            X509v3 Key Usage: critical
                Digital Signature, Certificate Sign, CRL Sign
    Signature Algorithm: ED448
         12:5e:bc:a0:86:7e:26:a1:a8:5f:05:4a:ec:5e:3c:3b:9e:14:
         9c:75:63:ce:33:3a:ac:2d:2e:18:72:46:0a:1d:87:e8:51:0c:
         2e:1b:fb:8b:f0:36:f5:23:bc:77:f9:09:7d:39:fd:d8:08:0c:
         34:4e:00:4f:2b:f9:9d:48:3e:0f:74:7a:52:b0:44:86:86:21:
         a1:53:10:48:21:51:37:76:d3:f3:f0:42:f1:c6:8e:6a:9e:a2:
         42:90:db:b2:a2:4f:c1:06:09:e9:ff:f3:a2:14:a9:12:43:40:
         00:9e:78:1c:13:00
-----BEGIN CERTIFICATE-----
MIICjzCCAg+gAwIBAgIBATAFBgMrZXEwgZkxCzAJBgNVBAYTAlVTMRAwDgYDVQQI
DAdNb250YW5hMRAwDgYDVQQHDAdCb3plbWFuMRYwFAYDVQQKDA13b2xmU1NMX0Vk
NDQ4MRMwEQYDVQQLDApSb290LUVkNDQ4MRgwFgYDVQQDDA93d3cud29sZnNzbC5j
b20xHzAdBgkqhkiG9w0BCQEWEGluZm9Ad29sZnNzbC5jb20wHhcNMjAwNjE5MTMy
MzQxWhcNMjMwMzE2MTMyMzQxWjCBlzELMAkGA1UEBhMCVVMxEDAOBgNVBAgMB01v
bnRhbmExEDAOBgNVBAcMB0JvemVtYW4xFjAUBgNVBAoMDXdvbGZTU0xfZWQ0NDgx
ETAPBgNVBAsMCENBLWVkNDQ4MRgwFgYDVQQDDA93d3cud29sZnNzbC5jb20xHzAd
BgkqhkiG9w0BCQEWEGluZm9Ad29sZnNzbC5jb20wQzAFBgMrZXEDOgAO4rR25dLM
wkt7sCm+kvvDr2mllLpwJOij78hjmt2mr1hDOAQk8BCRvqcBkVTzz2mFTLmXjKQ3
qgCjYzBhMB0GA1UdDgQWBBQ4WUXo3UQstX2lJdYLzDnwcsCUYzAfBgNVHSMEGDAW
gBTaaZjJJkp1+1leU5pjSwy4iAsPHjAPBgNVHRMBAf8EBTADAQH/MA4GA1UdDwEB
/wQEAwIBhjAFBgMrZXEDcwASXryghn4moahfBUrsXjw7nhScdWPOMzqsLS4YckYK
HYfoUQwuG/uL8Db1I7x3+Ql9Of3YCAw0TgBPK/mdSD4PdHpSsESGhiGhUxBIIVE3
dtPz8ELxxo5qnqJCkNuyok/BBgnp//OiFKkSQ0AAnngcEwA=
-----END CERTIFICATE-----
