Certificate:
    Data:
        Version: 3 (0x2)
        Serial Number: 1 (0x1)
        Signature Algorithm: ED448
        Issuer: C = US, ST = Montana, L = Bozeman, O = wolfSSL_Ed448, OU = Root-Ed448, CN = www.wolfssl.com, emailAddress = info@wolfssl.com
        Validity
            Not Before: Dec 13 22:19:29 2023 GMT
            Not After : Sep  8 22:19:29 2026 GMT
        Subject: C = US, ST = Montana, L = Bozeman, O = wolfSSL_ed448, OU = CA-ed448, CN = www.wolfssl.com, emailAddress = info@wolfssl.com, UID = wolfSSL
        Subject Public Key Info:
            Public Key Algorithm: ED448
                ED448 Public-Key:
                pub:
                    0e:e2:b4:76:e5:d2:cc:c2:4b:7b:b0:29:be:92:fb:
                    c3:af:69:a5:94:ba:70:24:e8:a3:ef:c8:63:9a:dd:
                    a6:af:58:43:38:04:24:f0:10:91:be:a7:01:91:54:
                    f3:cf:69:85:4c:b9:97:8c:a4:37:aa:00
        X509v3 extensions:
            X509v3 Subject Key Identifier: 
                38:59:45:E8:DD:44:2C:B5:7D:A5:25:D6:0B:CC:39:F0:72:C0:94:63
            X509v3 Authority Key Identifier: 
                keyid:DA:69:98:C9:26:4A:75:FB:59:5E:53:9A:63:4B:0C:B8:88:0B:0F:1E

            X509v3 Basic Constraints: critical
                CA:TRUE
            X509v3 Key Usage: critical
                Digital Signature, Certificate Sign, CRL Sign
    Signature Algorithm: ED448
         24:d8:26:28:60:11:09:c1:a5:f9:a9:7f:a7:40:ed:a5:07:cb:
         cb:3e:a1:6a:d3:45:6d:4c:e1:66:36:37:57:6a:34:5d:33:45:
         b3:17:e1:18:76:57:df:fe:44:b4:ec:04:16:74:52:82:24:52:
         1f:99:00:2d:42:a9:5c:45:1b:8d:b8:95:ce:0d:82:cb:52:8f:
         e2:bd:20:19:6a:8a:79:29:f6:20:d3:e6:35:8c:27:1a:a4:64:
         b7:ff:91:09:21:57:c6:11:c5:01:9a:98:54:31:37:7a:7b:ed:
         35:a9:4d:13:19:00
-----BEGIN CERTIFICATE-----
MIICqDCCAiigAwIBAgIBATAFBgMrZXEwgZkxCzAJBgNVBAYTAlVTMRAwDgYDVQQI
DAdNb250YW5hMRAwDgYDVQQHDAdCb3plbWFuMRYwFAYDVQQKDA13b2xmU1NMX0Vk
NDQ4MRMwEQYDVQQLDApSb290LUVkNDQ4MRgwFgYDVQQDDA93d3cud29sZnNzbC5j
b20xHzAdBgkqhkiG9w0BCQEWEGluZm9Ad29sZnNzbC5jb20wHhcNMjMxMjEzMjIx
OTI5WhcNMjYwOTA4MjIxOTI5WjCBsDELMAkGA1UEBhMCVVMxEDAOBgNVBAgMB01v
bnRhbmExEDAOBgNVBAcMB0JvemVtYW4xFjAUBgNVBAoMDXdvbGZTU0xfZWQ0NDgx
ETAPBgNVBAsMCENBLWVkNDQ4MRgwFgYDVQQDDA93d3cud29sZnNzbC5jb20xHzAd
BgkqhkiG9w0BCQEWEGluZm9Ad29sZnNzbC5jb20xFzAVBgoJkiaJk/IsZAEBDAd3
b2xmU1NMMEMwBQYDK2VxAzoADuK0duXSzMJLe7ApvpL7w69ppZS6cCToo+/IY5rd
pq9YQzgEJPAQkb6nAZFU889phUy5l4ykN6oAo2MwYTAdBgNVHQ4EFgQUOFlF6N1E
LLV9pSXWC8w58HLAlGMwHwYDVR0jBBgwFoAU2mmYySZKdftZXlOaY0sMuIgLDx4w
DwYDVR0TAQH/BAUwAwEB/zAOBgNVHQ8BAf8EBAMCAYYwBQYDK2VxA3MAJNgmKGAR
CcGl+al/p0DtpQfLyz6hatNFbUzhZjY3V2o0XTNFsxfhGHZX3/5EtOwEFnRSgiRS
H5kALUKpXEUbjbiVzg2Cy1KP4r0gGWqKeSn2INPmNYwnGqRkt/+RCSFXxhHFAZqY
VDE3envtNalNExkA
-----END CERTIFICATE-----
