Certificate:
    Data:
        Version: 3 (0x2)
        Serial Number: 1 (0x1)
        Signature Algorithm: ED448
        Issuer: C = US, ST = Montana, L = Bozeman, O = wolfSSL_Ed448, OU = Root-Ed448, CN = www.wolfssl.com, emailAddress = info@wolfssl.com
        Validity
            Not Before: Dec 20 23:07:25 2021 GMT
            Not After : Sep 15 23:07:25 2024 GMT
        Subject: C = US, ST = Montana, L = Bozeman, O = wolfSSL_ed448, OU = CA-ed448, CN = www.wolfssl.com, emailAddress = info@wolfssl.com
        Subject Public Key Info:
            Public Key Algorithm: ED448
                ED448 Public-Key:
                pub:
                    0e:e2:b4:76:e5:d2:cc:c2:4b:7b:b0:29:be:92:fb:
                    c3:af:69:a5:94:ba:70:24:e8:a3:ef:c8:63:9a:dd:
                    a6:af:58:43:38:04:24:f0:10:91:be:a7:01:91:54:
                    f3:cf:69:85:4c:b9:97:8c:a4:37:aa:00
        X509v3 extensions:
            X509v3 Subject Key Identifier: 
                38:59:45:E8:DD:44:2C:B5:7D:A5:25:D6:0B:CC:39:F0:72:C0:94:63
            X509v3 Authority Key Identifier: 
                keyid:DA:69:98:C9:26:4A:75:FB:59:5E:53:9A:63:4B:0C:B8:88:0B:0F:1E

            X509v3 Basic Constraints: critical
                CA:TRUE
            X509v3 Key Usage: critical
                Digital Signature, Certificate Sign, CRL Sign
    Signature Algorithm: ED448
         de:27:87:c7:7b:e8:c1:e5:1d:58:3e:5e:1e:51:4e:03:91:6a:
         98:b3:87:13:0f:28:3c:69:c5:67:93:d2:c6:d6:39:3d:3d:66:
         64:25:04:a1:80:5b:65:26:79:e8:39:78:d6:a2:d9:72:35:95:
         70:86:00:6e:62:57:42:b3:a9:11:85:24:f7:29:e7:d3:99:7b:
         61:00:84:c3:08:ee:34:be:ad:a5:7b:eb:52:4f:4d:ec:05:3e:
         d5:d7:99:6f:70:ba:f2:01:5b:d6:43:39:28:e2:0e:79:f0:1e:
         e8:16:3a:33:37:00
-----BEGIN CERTIFICATE-----
MIICjzCCAg+gAwIBAgIBATAFBgMrZXEwgZkxCzAJBgNVBAYTAlVTMRAwDgYDVQQI
DAdNb250YW5hMRAwDgYDVQQHDAdCb3plbWFuMRYwFAYDVQQKDA13b2xmU1NMX0Vk
NDQ4MRMwEQYDVQQLDApSb290LUVkNDQ4MRgwFgYDVQQDDA93d3cud29sZnNzbC5j
b20xHzAdBgkqhkiG9w0BCQEWEGluZm9Ad29sZnNzbC5jb20wHhcNMjExMjIwMjMw
NzI1WhcNMjQwOTE1MjMwNzI1WjCBlzELMAkGA1UEBhMCVVMxEDAOBgNVBAgMB01v
bnRhbmExEDAOBgNVBAcMB0JvemVtYW4xFjAUBgNVBAoMDXdvbGZTU0xfZWQ0NDgx
ETAPBgNVBAsMCENBLWVkNDQ4MRgwFgYDVQQDDA93d3cud29sZnNzbC5jb20xHzAd
BgkqhkiG9w0BCQEWEGluZm9Ad29sZnNzbC5jb20wQzAFBgMrZXEDOgAO4rR25dLM
wkt7sCm+kvvDr2mllLpwJOij78hjmt2mr1hDOAQk8BCRvqcBkVTzz2mFTLmXjKQ3
qgCjYzBhMB0GA1UdDgQWBBQ4WUXo3UQstX2lJdYLzDnwcsCUYzAfBgNVHSMEGDAW
gBTaaZjJJkp1+1leU5pjSwy4iAsPHjAPBgNVHRMBAf8EBTADAQH/MA4GA1UdDwEB
/wQEAwIBhjAFBgMrZXEDcwDeJ4fHe+jB5R1YPl4eUU4DkWqYs4cTDyg8acVnk9LG
1jk9PWZkJQShgFtlJnnoOXjWotlyNZVwhgBuYldCs6kRhST3KefTmXthAITDCO40
vq2le+tST03sBT7V15lvcLryAVvWQzko4g558B7oFjozNwA=
-----END CERTIFICATE-----
