Certificate:
    Data:
        Version: 3 (0x2)
        Serial Number: 1 (0x1)
        Signature Algorithm: ED448
        Issuer: C = US, ST = Montana, L = Bozeman, O = wolfSSL_Ed448, OU = Root-Ed448, CN = www.wolfssl.com, emailAddress = info@wolfssl.com
        Validity
            Not Before: Feb 15 12:50:24 2022 GMT
            Not After : Nov 11 12:50:24 2024 GMT
        Subject: C = US, ST = Montana, L = Bozeman, O = wolfSSL_ed448, OU = CA-ed448, CN = www.wolfssl.com, emailAddress = info@wolfssl.com, UID = wolfSSL
        Subject Public Key Info:
            Public Key Algorithm: ED448
                ED448 Public-Key:
                pub:
                    0e:e2:b4:76:e5:d2:cc:c2:4b:7b:b0:29:be:92:fb:
                    c3:af:69:a5:94:ba:70:24:e8:a3:ef:c8:63:9a:dd:
                    a6:af:58:43:38:04:24:f0:10:91:be:a7:01:91:54:
                    f3:cf:69:85:4c:b9:97:8c:a4:37:aa:00
        X509v3 extensions:
            X509v3 Subject Key Identifier: 
                38:59:45:E8:DD:44:2C:B5:7D:A5:25:D6:0B:CC:39:F0:72:C0:94:63
            X509v3 Authority Key Identifier: 
                keyid:DA:69:98:C9:26:4A:75:FB:59:5E:53:9A:63:4B:0C:B8:88:0B:0F:1E

            X509v3 Basic Constraints: critical
                CA:TRUE
            X509v3 Key Usage: critical
                Digital Signature, Certificate Sign, CRL Sign
    Signature Algorithm: ED448
         e7:79:af:52:f3:e0:b2:e7:c9:cb:a9:98:fe:da:74:19:df:68:
         39:4d:56:75:b6:28:78:c6:bc:e5:fe:c5:2c:93:b8:76:1e:6b:
         f8:89:3c:e4:19:b0:79:f8:30:9f:ad:4e:97:07:bd:d8:c7:54:
         05:64:80:7c:b3:a3:73:3e:29:a7:22:25:08:25:07:73:27:8f:
         e2:f9:1a:d9:2f:89:00:0a:38:46:d5:c0:a9:28:28:e5:08:71:
         11:25:16:3c:22:96:34:57:55:07:a2:85:c9:22:4c:c6:cb:14:
         cc:62:ba:8f:13:00
-----BEGIN CERTIFICATE-----
MIICqDCCAiigAwIBAgIBATAFBgMrZXEwgZkxCzAJBgNVBAYTAlVTMRAwDgYDVQQI
DAdNb250YW5hMRAwDgYDVQQHDAdCb3plbWFuMRYwFAYDVQQKDA13b2xmU1NMX0Vk
NDQ4MRMwEQYDVQQLDApSb290LUVkNDQ4MRgwFgYDVQQDDA93d3cud29sZnNzbC5j
b20xHzAdBgkqhkiG9w0BCQEWEGluZm9Ad29sZnNzbC5jb20wHhcNMjIwMjE1MTI1
MDI0WhcNMjQxMTExMTI1MDI0WjCBsDELMAkGA1UEBhMCVVMxEDAOBgNVBAgMB01v
bnRhbmExEDAOBgNVBAcMB0JvemVtYW4xFjAUBgNVBAoMDXdvbGZTU0xfZWQ0NDgx
ETAPBgNVBAsMCENBLWVkNDQ4MRgwFgYDVQQDDA93d3cud29sZnNzbC5jb20xHzAd
BgkqhkiG9w0BCQEWEGluZm9Ad29sZnNzbC5jb20xFzAVBgoJkiaJk/IsZAEBDAd3
b2xmU1NMMEMwBQYDK2VxAzoADuK0duXSzMJLe7ApvpL7w69ppZS6cCToo+/IY5rd
pq9YQzgEJPAQkb6nAZFU889phUy5l4ykN6oAo2MwYTAdBgNVHQ4EFgQUOFlF6N1E
LLV9pSXWC8w58HLAlGMwHwYDVR0jBBgwFoAU2mmYySZKdftZXlOaY0sMuIgLDx4w
DwYDVR0TAQH/BAUwAwEB/zAOBgNVHQ8BAf8EBAMCAYYwBQYDK2VxA3MA53mvUvPg
sufJy6mY/tp0Gd9oOU1WdbYoeMa85f7FLJO4dh5r+Ik85Bmwefgwn61Olwe92MdU
BWSAfLOjcz4ppyIlCCUHcyeP4vka2S+JAAo4RtXAqSgo5QhxESUWPCKWNFdVB6KF
ySJMxssUzGK6jxMA
-----END CERTIFICATE-----
