Certificate:
    Data:
        Version: 3 (0x2)
        Serial Number:
            17:c7:9c:00:f7:a8:b8:26:66:e8:32:25:ec:29:11:e8:cd:eb:9c:e8
        Signature Algorithm: ED448
        Issuer: C=US, ST=Montana, L=Bozeman, O=wolfSSL_ed448, OU=Client-ed448, CN=www.wolfssl.com, emailAddress=facts@wolfssl.com, UID=wolfSSL
        Validity
            Not Before: Jun 11 21:44:31 2026 GMT
            Not After : Mar  7 21:44:31 2029 GMT
        Subject: C=US, ST=Montana, L=Bozeman, O=wolfSSL_ed448, OU=Client-ed448, CN=www.wolfssl.com, emailAddress=facts@wolfssl.com, UID=wolfSSL
        Subject Public Key Info:
            Public Key Algorithm: ED448
                ED448 Public-Key:
                pub:
                    10:c0:82:2f:8d:0a:ec:65:12:52:40:39:aa:7a:60:
                    68:8e:31:22:49:ad:9b:c1:fc:71:e5:3e:78:57:35:
                    c8:76:b3:b3:30:8f:87:78:e6:26:5a:27:d8:0c:38:
                    9e:7b:3c:13:2f:cc:a4:29:6c:80:ef:80
        X509v3 extensions:
            X509v3 Subject Key Identifier: 
                F3:C7:66:93:0D:CB:0E:1B:80:08:00:CF:E3:4E:11:4D:58:2B:4B:D4
            X509v3 Authority Key Identifier: 
                keyid:F3:C7:66:93:0D:CB:0E:1B:80:08:00:CF:E3:4E:11:4D:58:2B:4B:D4
                DirName:/C=US/ST=Montana/L=Bozeman/O=wolfSSL_ed448/OU=Client-ed448/CN=www.wolfssl.com/emailAddress=facts@wolfssl.com/UID=wolfSSL
                serial:17:C7:9C:00:F7:A8:B8:26:66:E8:32:25:EC:29:11:E8:CD:EB:9C:E8
            X509v3 Basic Constraints: 
                CA:TRUE
            X509v3 Subject Alternative Name: 
                DNS:example.com, IP Address:127.0.0.1
            X509v3 Extended Key Usage: 
                TLS Web Server Authentication, TLS Web Client Authentication
    Signature Algorithm: ED448
    Signature Value:
        4b:8c:72:89:5f:23:33:fe:54:08:ff:f3:76:b1:98:4e:66:7f:
        01:c5:cc:4a:76:22:20:d1:0f:a3:a0:74:19:92:e7:88:be:7d:
        6f:8a:41:d2:8e:33:c7:bd:8c:1c:c1:ee:77:af:ef:4d:5f:82:
        cd:8c:00:3c:15:00:b1:cf:ac:a7:15:25:a6:ef:3e:2b:9e:d0:
        a5:9a:18:d7:94:24:27:42:27:d5:a4:f5:ba:2b:ba:b4:96:94:
        c1:3d:13:fe:70:da:2f:61:b6:01:7a:29:7a:77:2c:9b:6b:c6:
        95:40:8c:f6:39:00
-----BEGIN CERTIFICATE-----
MIID4TCCA2GgAwIBAgIUF8ecAPeouCZm6DIl7CkR6M3rnOgwBQYDK2VxMIG1MQsw
CQYDVQQGEwJVUzEQMA4GA1UECAwHTW9udGFuYTEQMA4GA1UEBwwHQm96ZW1hbjEW
MBQGA1UECgwNd29sZlNTTF9lZDQ0ODEVMBMGA1UECwwMQ2xpZW50LWVkNDQ4MRgw
FgYDVQQDDA93d3cud29sZnNzbC5jb20xIDAeBgkqhkiG9w0BCQEWEWZhY3RzQHdv
bGZzc2wuY29tMRcwFQYKCZImiZPyLGQBAQwHd29sZlNTTDAeFw0yNjA2MTEyMTQ0
MzFaFw0yOTAzMDcyMTQ0MzFaMIG1MQswCQYDVQQGEwJVUzEQMA4GA1UECAwHTW9u
dGFuYTEQMA4GA1UEBwwHQm96ZW1hbjEWMBQGA1UECgwNd29sZlNTTF9lZDQ0ODEV
MBMGA1UECwwMQ2xpZW50LWVkNDQ4MRgwFgYDVQQDDA93d3cud29sZnNzbC5jb20x
IDAeBgkqhkiG9w0BCQEWEWZhY3RzQHdvbGZzc2wuY29tMRcwFQYKCZImiZPyLGQB
AQwHd29sZlNTTDBDMAUGAytlcQM6ABDAgi+NCuxlElJAOap6YGiOMSJJrZvB/HHl
PnhXNch2s7Mwj4d45iZaJ9gMOJ57PBMvzKQpbIDvgKOCAWYwggFiMB0GA1UdDgQW
BBTzx2aTDcsOG4AIAM/jThFNWCtL1DCB9QYDVR0jBIHtMIHqgBTzx2aTDcsOG4AI
AM/jThFNWCtL1KGBu6SBuDCBtTELMAkGA1UEBhMCVVMxEDAOBgNVBAgMB01vbnRh
bmExEDAOBgNVBAcMB0JvemVtYW4xFjAUBgNVBAoMDXdvbGZTU0xfZWQ0NDgxFTAT
BgNVBAsMDENsaWVudC1lZDQ0ODEYMBYGA1UEAwwPd3d3LndvbGZzc2wuY29tMSAw
HgYJKoZIhvcNAQkBFhFmYWN0c0B3b2xmc3NsLmNvbTEXMBUGCgmSJomT8ixkAQEM
B3dvbGZTU0yCFBfHnAD3qLgmZugyJewpEejN65zoMAwGA1UdEwQFMAMBAf8wHAYD
VR0RBBUwE4ILZXhhbXBsZS5jb22HBH8AAAEwHQYDVR0lBBYwFAYIKwYBBQUHAwEG
CCsGAQUFBwMCMAUGAytlcQNzAEuMcolfIzP+VAj/83axmE5mfwHFzEp2IiDRD6Og
dBmS54i+fW+KQdKOM8e9jBzB7nev701fgs2MADwVALHPrKcVJabvPiue0KWaGNeU
JCdCJ9Wk9borurSWlME9E/5w2i9htgF6KXp3LJtrxpVAjPY5AA==
-----END CERTIFICATE-----
