Certificate:
    Data:
        Version: 3 (0x2)
        Serial Number:
            69:47:d8:49:67:32:0f:c6:79:0f:3a:82:df:ef:c5:08:94:d4:77:6c
        Signature Algorithm: ED448
        Issuer: C = US, ST = Montana, L = Bozeman, O = wolfSSL_ed448, OU = Client-ed448, CN = www.wolfssl.com, emailAddress = info@wolfssl.com, UID = wolfSSL
        Validity
            Not Before: Sep 26 17:22:43 2023 GMT
            Not After : Jun 22 17:22:43 2026 GMT
        Subject: C = US, ST = Montana, L = Bozeman, O = wolfSSL_ed448, OU = Client-ed448, CN = www.wolfssl.com, emailAddress = info@wolfssl.com, UID = wolfSSL
        Subject Public Key Info:
            Public Key Algorithm: ED448
                ED448 Public-Key:
                pub:
                    10:c0:82:2f:8d:0a:ec:65:12:52:40:39:aa:7a:60:
                    68:8e:31:22:49:ad:9b:c1:fc:71:e5:3e:78:57:35:
                    c8:76:b3:b3:30:8f:87:78:e6:26:5a:27:d8:0c:38:
                    9e:7b:3c:13:2f:cc:a4:29:6c:80:ef:80
        X509v3 extensions:
            X509v3 Subject Key Identifier: 
                F3:C7:66:93:0D:CB:0E:1B:80:08:00:CF:E3:4E:11:4D:58:2B:4B:D4
            X509v3 Authority Key Identifier: 
                keyid:F3:C7:66:93:0D:CB:0E:1B:80:08:00:CF:E3:4E:11:4D:58:2B:4B:D4
                DirName:/C=US/ST=Montana/L=Bozeman/O=wolfSSL_ed448/OU=Client-ed448/CN=www.wolfssl.com/emailAddress=info@wolfssl.com/UID=wolfSSL
                serial:69:47:D8:49:67:32:0F:C6:79:0F:3A:82:DF:EF:C5:08:94:D4:77:6C
            X509v3 Basic Constraints: 
                CA:TRUE
            X509v3 Subject Alternative Name: 
                DNS:example.com, IP Address:127.0.0.1
            X509v3 Extended Key Usage: 
                TLS Web Server Authentication, TLS Web Client Authentication
    Signature Algorithm: ED448
    Signature Value:
        4b:e7:2b:63:29:40:fb:4e:33:21:d4:bf:80:4c:4d:9e:b1:f7:
        3e:c5:3c:a6:32:18:ba:e6:bd:34:08:2c:14:37:68:cb:14:21:
        77:e3:8c:20:0f:fb:2c:59:29:4a:e4:a5:20:dc:b8:1b:39:ea:
        bc:05:00:d6:62:37:dd:0f:df:7a:f0:b1:07:1a:c8:d7:00:a6:
        8d:e1:fe:b1:f6:a7:58:66:ba:ac:a6:ff:c5:44:7e:88:26:55:
        7d:31:96:43:a1:32:77:75:7e:8b:9c:1a:51:74:5a:e4:08:8a:
        25:23:99:b6:1b:00
-----BEGIN CERTIFICATE-----
MIID3jCCA16gAwIBAgIUaUfYSWcyD8Z5DzqC3+/FCJTUd2wwBQYDK2VxMIG0MQsw
CQYDVQQGEwJVUzEQMA4GA1UECAwHTW9udGFuYTEQMA4GA1UEBwwHQm96ZW1hbjEW
MBQGA1UECgwNd29sZlNTTF9lZDQ0ODEVMBMGA1UECwwMQ2xpZW50LWVkNDQ4MRgw
FgYDVQQDDA93d3cud29sZnNzbC5jb20xHzAdBgkqhkiG9w0BCQEWEGluZm9Ad29s
ZnNzbC5jb20xFzAVBgoJkiaJk/IsZAEBDAd3b2xmU1NMMB4XDTIzMDkyNjE3MjI0
M1oXDTI2MDYyMjE3MjI0M1owgbQxCzAJBgNVBAYTAlVTMRAwDgYDVQQIDAdNb250
YW5hMRAwDgYDVQQHDAdCb3plbWFuMRYwFAYDVQQKDA13b2xmU1NMX2VkNDQ4MRUw
EwYDVQQLDAxDbGllbnQtZWQ0NDgxGDAWBgNVBAMMD3d3dy53b2xmc3NsLmNvbTEf
MB0GCSqGSIb3DQEJARYQaW5mb0B3b2xmc3NsLmNvbTEXMBUGCgmSJomT8ixkAQEM
B3dvbGZTU0wwQzAFBgMrZXEDOgAQwIIvjQrsZRJSQDmqemBojjEiSa2bwfxx5T54
VzXIdrOzMI+HeOYmWifYDDieezwTL8ykKWyA74CjggFlMIIBYTAdBgNVHQ4EFgQU
88dmkw3LDhuACADP404RTVgrS9QwgfQGA1UdIwSB7DCB6YAU88dmkw3LDhuACADP
404RTVgrS9ShgbqkgbcwgbQxCzAJBgNVBAYTAlVTMRAwDgYDVQQIDAdNb250YW5h
MRAwDgYDVQQHDAdCb3plbWFuMRYwFAYDVQQKDA13b2xmU1NMX2VkNDQ4MRUwEwYD
VQQLDAxDbGllbnQtZWQ0NDgxGDAWBgNVBAMMD3d3dy53b2xmc3NsLmNvbTEfMB0G
CSqGSIb3DQEJARYQaW5mb0B3b2xmc3NsLmNvbTEXMBUGCgmSJomT8ixkAQEMB3dv
bGZTU0yCFGlH2ElnMg/GeQ86gt/vxQiU1HdsMAwGA1UdEwQFMAMBAf8wHAYDVR0R
BBUwE4ILZXhhbXBsZS5jb22HBH8AAAEwHQYDVR0lBBYwFAYIKwYBBQUHAwEGCCsG
AQUFBwMCMAUGAytlcQNzAEvnK2MpQPtOMyHUv4BMTZ6x9z7FPKYyGLrmvTQILBQ3
aMsUIXfjjCAP+yxZKUrkpSDcuBs56rwFANZiN90P33rwsQcayNcApo3h/rH2p1hm
uqym/8VEfogmVX0xlkOhMnd1foucGlF0WuQIiiUjmbYbAA==
-----END CERTIFICATE-----
