Certificate:
    Data:
        Version: 3 (0x2)
        Serial Number:
            73:8f:b3:50:d4:5c:05:36:fc:af:03:ad:08:30:9a:a6:be:3e:b3:02
        Signature Algorithm: ED448
        Issuer: C = US, ST = Montana, L = Bozeman, O = wolfSSL_ed448, OU = Client-ed448, CN = www.wolfssl.com, emailAddress = info@wolfssl.com, UID = wolfSSL
        Validity
            Not Before: Dec 18 21:25:30 2024 GMT
            Not After : Sep 14 21:25:30 2027 GMT
        Subject: C = US, ST = Montana, L = Bozeman, O = wolfSSL_ed448, OU = Client-ed448, CN = www.wolfssl.com, emailAddress = info@wolfssl.com, UID = wolfSSL
        Subject Public Key Info:
            Public Key Algorithm: ED448
                ED448 Public-Key:
                pub:
                    10:c0:82:2f:8d:0a:ec:65:12:52:40:39:aa:7a:60:
                    68:8e:31:22:49:ad:9b:c1:fc:71:e5:3e:78:57:35:
                    c8:76:b3:b3:30:8f:87:78:e6:26:5a:27:d8:0c:38:
                    9e:7b:3c:13:2f:cc:a4:29:6c:80:ef:80
        X509v3 extensions:
            X509v3 Subject Key Identifier: 
                F3:C7:66:93:0D:CB:0E:1B:80:08:00:CF:E3:4E:11:4D:58:2B:4B:D4
            X509v3 Authority Key Identifier: 
                keyid:F3:C7:66:93:0D:CB:0E:1B:80:08:00:CF:E3:4E:11:4D:58:2B:4B:D4
                DirName:/C=US/ST=Montana/L=Bozeman/O=wolfSSL_ed448/OU=Client-ed448/CN=www.wolfssl.com/emailAddress=info@wolfssl.com/UID=wolfSSL
                serial:73:8F:B3:50:D4:5C:05:36:FC:AF:03:AD:08:30:9A:A6:BE:3E:B3:02
            X509v3 Basic Constraints: 
                CA:TRUE
            X509v3 Subject Alternative Name: 
                DNS:example.com, IP Address:127.0.0.1
            X509v3 Extended Key Usage: 
                TLS Web Server Authentication, TLS Web Client Authentication
    Signature Algorithm: ED448
    Signature Value:
        02:3d:3e:a4:b8:6d:d3:ba:4c:d2:e4:07:44:92:c6:94:94:ea:
        b5:d7:6a:40:e8:d5:6f:f7:67:51:e9:50:b1:66:96:36:3b:5d:
        3a:6c:99:3c:8f:24:1c:d1:c4:e5:0a:50:98:7b:41:be:d5:8b:
        a3:28:00:95:87:a2:a8:d8:85:50:0d:3c:5b:9c:fb:96:62:60:
        ab:c0:a8:23:c3:5f:6b:e6:c5:27:e7:e4:ad:fa:3d:d9:ee:3a:
        d1:f5:09:28:19:2e:85:57:b1:01:32:e3:61:3f:bc:2f:00:3a:
        d8:bf:77:d9:03:00
-----BEGIN CERTIFICATE-----
MIID3jCCA16gAwIBAgIUc4+zUNRcBTb8rwOtCDCapr4+swIwBQYDK2VxMIG0MQsw
CQYDVQQGEwJVUzEQMA4GA1UECAwHTW9udGFuYTEQMA4GA1UEBwwHQm96ZW1hbjEW
MBQGA1UECgwNd29sZlNTTF9lZDQ0ODEVMBMGA1UECwwMQ2xpZW50LWVkNDQ4MRgw
FgYDVQQDDA93d3cud29sZnNzbC5jb20xHzAdBgkqhkiG9w0BCQEWEGluZm9Ad29s
ZnNzbC5jb20xFzAVBgoJkiaJk/IsZAEBDAd3b2xmU1NMMB4XDTI0MTIxODIxMjUz
MFoXDTI3MDkxNDIxMjUzMFowgbQxCzAJBgNVBAYTAlVTMRAwDgYDVQQIDAdNb250
YW5hMRAwDgYDVQQHDAdCb3plbWFuMRYwFAYDVQQKDA13b2xmU1NMX2VkNDQ4MRUw
EwYDVQQLDAxDbGllbnQtZWQ0NDgxGDAWBgNVBAMMD3d3dy53b2xmc3NsLmNvbTEf
MB0GCSqGSIb3DQEJARYQaW5mb0B3b2xmc3NsLmNvbTEXMBUGCgmSJomT8ixkAQEM
B3dvbGZTU0wwQzAFBgMrZXEDOgAQwIIvjQrsZRJSQDmqemBojjEiSa2bwfxx5T54
VzXIdrOzMI+HeOYmWifYDDieezwTL8ykKWyA74CjggFlMIIBYTAdBgNVHQ4EFgQU
88dmkw3LDhuACADP404RTVgrS9QwgfQGA1UdIwSB7DCB6YAU88dmkw3LDhuACADP
404RTVgrS9ShgbqkgbcwgbQxCzAJBgNVBAYTAlVTMRAwDgYDVQQIDAdNb250YW5h
MRAwDgYDVQQHDAdCb3plbWFuMRYwFAYDVQQKDA13b2xmU1NMX2VkNDQ4MRUwEwYD
VQQLDAxDbGllbnQtZWQ0NDgxGDAWBgNVBAMMD3d3dy53b2xmc3NsLmNvbTEfMB0G
CSqGSIb3DQEJARYQaW5mb0B3b2xmc3NsLmNvbTEXMBUGCgmSJomT8ixkAQEMB3dv
bGZTU0yCFHOPs1DUXAU2/K8DrQgwmqa+PrMCMAwGA1UdEwQFMAMBAf8wHAYDVR0R
BBUwE4ILZXhhbXBsZS5jb22HBH8AAAEwHQYDVR0lBBYwFAYIKwYBBQUHAwEGCCsG
AQUFBwMCMAUGAytlcQNzAAI9PqS4bdO6TNLkB0SSxpSU6rXXakDo1W/3Z1HpULFm
ljY7XTpsmTyPJBzRxOUKUJh7Qb7Vi6MoAJWHoqjYhVANPFuc+5ZiYKvAqCPDX2vm
xSfn5K36PdnuOtH1CSgZLoVXsQEy42E/vC8AOti/d9kDAA==
-----END CERTIFICATE-----
