Certificate:
    Data:
        Version: 3 (0x2)
        Serial Number:
            31:26:1a:ec:1b:b4:ac:dc:fc:40:67:e4:6f:03:64:1c:58:f4:30:e5
        Signature Algorithm: ED448
        Issuer: C = US, ST = Montana, L = Bozeman, O = wolfSSL_ed448, OU = Client-ed448, CN = www.wolfssl.com, emailAddress = info@wolfssl.com
        Validity
            Not Before: Dec 20 23:07:25 2021 GMT
            Not After : Sep 15 23:07:25 2024 GMT
        Subject: C = US, ST = Montana, L = Bozeman, O = wolfSSL_ed448, OU = Client-ed448, CN = www.wolfssl.com, emailAddress = info@wolfssl.com
        Subject Public Key Info:
            Public Key Algorithm: ED448
                ED448 Public-Key:
                pub:
                    10:c0:82:2f:8d:0a:ec:65:12:52:40:39:aa:7a:60:
                    68:8e:31:22:49:ad:9b:c1:fc:71:e5:3e:78:57:35:
                    c8:76:b3:b3:30:8f:87:78:e6:26:5a:27:d8:0c:38:
                    9e:7b:3c:13:2f:cc:a4:29:6c:80:ef:80
        X509v3 extensions:
            X509v3 Subject Key Identifier: 
                F3:C7:66:93:0D:CB:0E:1B:80:08:00:CF:E3:4E:11:4D:58:2B:4B:D4
            X509v3 Authority Key Identifier: 
                keyid:F3:C7:66:93:0D:CB:0E:1B:80:08:00:CF:E3:4E:11:4D:58:2B:4B:D4
                DirName:/C=US/ST=Montana/L=Bozeman/O=wolfSSL_ed448/OU=Client-ed448/CN=www.wolfssl.com/emailAddress=info@wolfssl.com
                serial:31:26:1A:EC:1B:B4:AC:DC:FC:40:67:E4:6F:03:64:1C:58:F4:30:E5

            X509v3 Basic Constraints: 
                CA:TRUE
            X509v3 Subject Alternative Name: 
                DNS:example.com, IP Address:127.0.0.1
            X509v3 Extended Key Usage: 
                TLS Web Server Authentication, TLS Web Client Authentication
    Signature Algorithm: ED448
         9c:5f:2a:91:dc:42:4c:43:1d:ec:a9:d3:68:5f:35:15:db:e2:
         0b:c8:7c:c8:a2:9e:01:b0:1a:d7:c6:b2:00:90:4e:a6:c3:45:
         0f:42:00:a7:53:67:f9:cb:0b:a5:d8:ac:63:d0:40:33:eb:6b:
         bf:fd:00:1f:b9:78:62:ca:48:54:0f:35:0a:7e:af:69:f2:d6:
         f9:ee:54:fe:71:a2:9b:55:0c:53:9b:18:1d:ed:74:74:67:aa:
         8b:66:db:2b:71:49:38:d5:34:fb:f5:cf:55:8e:65:c1:09:d4:
         05:8b:43:b7:25:00
-----BEGIN CERTIFICATE-----
MIIDkzCCAxOgAwIBAgIUMSYa7Bu0rNz8QGfkbwNkHFj0MOUwBQYDK2VxMIGbMQsw
CQYDVQQGEwJVUzEQMA4GA1UECAwHTW9udGFuYTEQMA4GA1UEBwwHQm96ZW1hbjEW
MBQGA1UECgwNd29sZlNTTF9lZDQ0ODEVMBMGA1UECwwMQ2xpZW50LWVkNDQ4MRgw
FgYDVQQDDA93d3cud29sZnNzbC5jb20xHzAdBgkqhkiG9w0BCQEWEGluZm9Ad29s
ZnNzbC5jb20wHhcNMjExMjIwMjMwNzI1WhcNMjQwOTE1MjMwNzI1WjCBmzELMAkG
A1UEBhMCVVMxEDAOBgNVBAgMB01vbnRhbmExEDAOBgNVBAcMB0JvemVtYW4xFjAU
BgNVBAoMDXdvbGZTU0xfZWQ0NDgxFTATBgNVBAsMDENsaWVudC1lZDQ0ODEYMBYG
A1UEAwwPd3d3LndvbGZzc2wuY29tMR8wHQYJKoZIhvcNAQkBFhBpbmZvQHdvbGZz
c2wuY29tMEMwBQYDK2VxAzoAEMCCL40K7GUSUkA5qnpgaI4xIkmtm8H8ceU+eFc1
yHazszCPh3jmJlon2Aw4nns8Ey/MpClsgO+Ao4IBTDCCAUgwHQYDVR0OBBYEFPPH
ZpMNyw4bgAgAz+NOEU1YK0vUMIHbBgNVHSMEgdMwgdCAFPPHZpMNyw4bgAgAz+NO
EU1YK0vUoYGhpIGeMIGbMQswCQYDVQQGEwJVUzEQMA4GA1UECAwHTW9udGFuYTEQ
MA4GA1UEBwwHQm96ZW1hbjEWMBQGA1UECgwNd29sZlNTTF9lZDQ0ODEVMBMGA1UE
CwwMQ2xpZW50LWVkNDQ4MRgwFgYDVQQDDA93d3cud29sZnNzbC5jb20xHzAdBgkq
hkiG9w0BCQEWEGluZm9Ad29sZnNzbC5jb22CFDEmGuwbtKzc/EBn5G8DZBxY9DDl
MAwGA1UdEwQFMAMBAf8wHAYDVR0RBBUwE4ILZXhhbXBsZS5jb22HBH8AAAEwHQYD
VR0lBBYwFAYIKwYBBQUHAwEGCCsGAQUFBwMCMAUGAytlcQNzAJxfKpHcQkxDHeyp
02hfNRXb4gvIfMiingGwGtfGsgCQTqbDRQ9CAKdTZ/nLC6XYrGPQQDPra7/9AB+5
eGLKSFQPNQp+r2ny1vnuVP5xoptVDFObGB3tdHRnqotm2ytxSTjVNPv1z1WOZcEJ
1AWLQ7clAA==
-----END CERTIFICATE-----
