Certificate:
    Data:
        Version: 3 (0x2)
        Serial Number:
            26:2c:dc:83:c8:d9:9a:ea:83:7a:08:3c:55:f1:73:ac:6f:02:57:4b
        Signature Algorithm: ED448
        Issuer: C=US, ST=Montana, L=Bozeman, O=wolfSSL_ed448, OU=Client-ed448, CN=www.wolfssl.com, emailAddress=info@wolfssl.com, UID=wolfSSL
        Validity
            Not Before: Nov 13 20:41:23 2025 GMT
            Not After : Aug  9 20:41:23 2028 GMT
        Subject: C=US, ST=Montana, L=Bozeman, O=wolfSSL_ed448, OU=Client-ed448, CN=www.wolfssl.com, emailAddress=info@wolfssl.com, UID=wolfSSL
        Subject Public Key Info:
            Public Key Algorithm: ED448
                ED448 Public-Key:
                pub:
                    10:c0:82:2f:8d:0a:ec:65:12:52:40:39:aa:7a:60:
                    68:8e:31:22:49:ad:9b:c1:fc:71:e5:3e:78:57:35:
                    c8:76:b3:b3:30:8f:87:78:e6:26:5a:27:d8:0c:38:
                    9e:7b:3c:13:2f:cc:a4:29:6c:80:ef:80
        X509v3 extensions:
            X509v3 Subject Key Identifier: 
                F3:C7:66:93:0D:CB:0E:1B:80:08:00:CF:E3:4E:11:4D:58:2B:4B:D4
            X509v3 Authority Key Identifier: 
                keyid:F3:C7:66:93:0D:CB:0E:1B:80:08:00:CF:E3:4E:11:4D:58:2B:4B:D4
                DirName:/C=US/ST=Montana/L=Bozeman/O=wolfSSL_ed448/OU=Client-ed448/CN=www.wolfssl.com/emailAddress=info@wolfssl.com/UID=wolfSSL
                serial:26:2C:DC:83:C8:D9:9A:EA:83:7A:08:3C:55:F1:73:AC:6F:02:57:4B
            X509v3 Basic Constraints: 
                CA:TRUE
            X509v3 Subject Alternative Name: 
                DNS:example.com, IP Address:127.0.0.1
            X509v3 Extended Key Usage: 
                TLS Web Server Authentication, TLS Web Client Authentication
    Signature Algorithm: ED448
    Signature Value:
        d2:25:1a:34:d8:5a:5b:f8:c9:6b:37:82:e7:3b:e9:1b:3c:5a:
        df:42:7b:0d:03:a3:98:3d:9c:09:80:c0:ae:8e:92:00:c7:6d:
        95:1e:4f:57:bd:66:8a:a4:e1:ef:4f:99:db:6f:3e:6c:9f:d2:
        97:5b:00:e3:cd:63:34:19:68:c5:b7:26:a0:fd:86:f8:91:67:
        3d:33:af:24:cd:37:1a:bf:38:06:2c:23:90:59:5b:08:0b:c0:
        e4:94:f9:fe:8b:b4:b4:86:75:a9:8e:36:5b:79:cd:c1:ec:d0:
        5f:5c:d5:86:3c:00
-----BEGIN CERTIFICATE-----
MIID3jCCA16gAwIBAgIUJizcg8jZmuqDegg8VfFzrG8CV0swBQYDK2VxMIG0MQsw
CQYDVQQGEwJVUzEQMA4GA1UECAwHTW9udGFuYTEQMA4GA1UEBwwHQm96ZW1hbjEW
MBQGA1UECgwNd29sZlNTTF9lZDQ0ODEVMBMGA1UECwwMQ2xpZW50LWVkNDQ4MRgw
FgYDVQQDDA93d3cud29sZnNzbC5jb20xHzAdBgkqhkiG9w0BCQEWEGluZm9Ad29s
ZnNzbC5jb20xFzAVBgoJkiaJk/IsZAEBDAd3b2xmU1NMMB4XDTI1MTExMzIwNDEy
M1oXDTI4MDgwOTIwNDEyM1owgbQxCzAJBgNVBAYTAlVTMRAwDgYDVQQIDAdNb250
YW5hMRAwDgYDVQQHDAdCb3plbWFuMRYwFAYDVQQKDA13b2xmU1NMX2VkNDQ4MRUw
EwYDVQQLDAxDbGllbnQtZWQ0NDgxGDAWBgNVBAMMD3d3dy53b2xmc3NsLmNvbTEf
MB0GCSqGSIb3DQEJARYQaW5mb0B3b2xmc3NsLmNvbTEXMBUGCgmSJomT8ixkAQEM
B3dvbGZTU0wwQzAFBgMrZXEDOgAQwIIvjQrsZRJSQDmqemBojjEiSa2bwfxx5T54
VzXIdrOzMI+HeOYmWifYDDieezwTL8ykKWyA74CjggFlMIIBYTAdBgNVHQ4EFgQU
88dmkw3LDhuACADP404RTVgrS9QwgfQGA1UdIwSB7DCB6YAU88dmkw3LDhuACADP
404RTVgrS9ShgbqkgbcwgbQxCzAJBgNVBAYTAlVTMRAwDgYDVQQIDAdNb250YW5h
MRAwDgYDVQQHDAdCb3plbWFuMRYwFAYDVQQKDA13b2xmU1NMX2VkNDQ4MRUwEwYD
VQQLDAxDbGllbnQtZWQ0NDgxGDAWBgNVBAMMD3d3dy53b2xmc3NsLmNvbTEfMB0G
CSqGSIb3DQEJARYQaW5mb0B3b2xmc3NsLmNvbTEXMBUGCgmSJomT8ixkAQEMB3dv
bGZTU0yCFCYs3IPI2Zrqg3oIPFXxc6xvAldLMAwGA1UdEwQFMAMBAf8wHAYDVR0R
BBUwE4ILZXhhbXBsZS5jb22HBH8AAAEwHQYDVR0lBBYwFAYIKwYBBQUHAwEGCCsG
AQUFBwMCMAUGAytlcQNzANIlGjTYWlv4yWs3guc76Rs8Wt9Cew0Do5g9nAmAwK6O
kgDHbZUeT1e9Zoqk4e9PmdtvPmyf0pdbAOPNYzQZaMW3JqD9hviRZz0zryTNNxq/
OAYsI5BZWwgLwOSU+f6LtLSGdamONlt5zcHs0F9c1YY8AA==
-----END CERTIFICATE-----
