Certificate:
    Data:
        Version: 3 (0x2)
        Serial Number:
            74:e0:2f:55:75:06:b8:1f:8f:30:20:cb:0d:c7:15:73:d8:d0:32:27
        Signature Algorithm: ED448
        Issuer: C = US, ST = Montana, L = Bozeman, O = wolfSSL_ed448, OU = Client-ed448, CN = www.wolfssl.com, emailAddress = info@wolfssl.com
        Validity
            Not Before: Jun 19 13:23:41 2020 GMT
            Not After : Mar 16 13:23:41 2023 GMT
        Subject: C = US, ST = Montana, L = Bozeman, O = wolfSSL_ed448, OU = Client-ed448, CN = www.wolfssl.com, emailAddress = info@wolfssl.com
        Subject Public Key Info:
            Public Key Algorithm: ED448
                ED448 Public-Key:
                pub:
                    10:c0:82:2f:8d:0a:ec:65:12:52:40:39:aa:7a:60:
                    68:8e:31:22:49:ad:9b:c1:fc:71:e5:3e:78:57:35:
                    c8:76:b3:b3:30:8f:87:78:e6:26:5a:27:d8:0c:38:
                    9e:7b:3c:13:2f:cc:a4:29:6c:80:ef:80
        X509v3 extensions:
            X509v3 Subject Key Identifier: 
                F3:C7:66:93:0D:CB:0E:1B:80:08:00:CF:E3:4E:11:4D:58:2B:4B:D4
            X509v3 Authority Key Identifier: 
                keyid:F3:C7:66:93:0D:CB:0E:1B:80:08:00:CF:E3:4E:11:4D:58:2B:4B:D4
                DirName:/C=US/ST=Montana/L=Bozeman/O=wolfSSL_ed448/OU=Client-ed448/CN=www.wolfssl.com/emailAddress=info@wolfssl.com
                serial:74:E0:2F:55:75:06:B8:1F:8F:30:20:CB:0D:C7:15:73:D8:D0:32:27

            X509v3 Basic Constraints: 
                CA:TRUE
            X509v3 Subject Alternative Name: 
                DNS:example.com, IP Address:127.0.0.1
            X509v3 Extended Key Usage: 
                TLS Web Server Authentication, TLS Web Client Authentication
    Signature Algorithm: ED448
         ee:19:f6:b7:bf:b8:7e:2b:74:77:f2:89:b2:eb:a0:45:5d:42:
         18:f7:f3:aa:ba:7d:82:83:a0:70:b9:28:97:2d:9b:59:78:25:
         ec:6b:1a:b6:4d:08:1f:52:10:3c:73:5c:71:40:b9:47:f9:cb:
         e6:84:00:81:6c:c2:90:5c:16:3e:9c:ef:f7:34:b4:3b:98:55:
         cc:85:47:b1:73:24:f4:90:1c:05:c5:fc:54:d7:73:5d:b3:e8:
         18:d5:89:a6:b1:e2:6d:4b:09:06:35:ee:2e:82:6d:98:d4:da:
         87:aa:6c:20:14:00
-----BEGIN CERTIFICATE-----
MIIDkzCCAxOgAwIBAgIUdOAvVXUGuB+PMCDLDccVc9jQMicwBQYDK2VxMIGbMQsw
CQYDVQQGEwJVUzEQMA4GA1UECAwHTW9udGFuYTEQMA4GA1UEBwwHQm96ZW1hbjEW
MBQGA1UECgwNd29sZlNTTF9lZDQ0ODEVMBMGA1UECwwMQ2xpZW50LWVkNDQ4MRgw
FgYDVQQDDA93d3cud29sZnNzbC5jb20xHzAdBgkqhkiG9w0BCQEWEGluZm9Ad29s
ZnNzbC5jb20wHhcNMjAwNjE5MTMyMzQxWhcNMjMwMzE2MTMyMzQxWjCBmzELMAkG
A1UEBhMCVVMxEDAOBgNVBAgMB01vbnRhbmExEDAOBgNVBAcMB0JvemVtYW4xFjAU
BgNVBAoMDXdvbGZTU0xfZWQ0NDgxFTATBgNVBAsMDENsaWVudC1lZDQ0ODEYMBYG
A1UEAwwPd3d3LndvbGZzc2wuY29tMR8wHQYJKoZIhvcNAQkBFhBpbmZvQHdvbGZz
c2wuY29tMEMwBQYDK2VxAzoAEMCCL40K7GUSUkA5qnpgaI4xIkmtm8H8ceU+eFc1
yHazszCPh3jmJlon2Aw4nns8Ey/MpClsgO+Ao4IBTDCCAUgwHQYDVR0OBBYEFPPH
ZpMNyw4bgAgAz+NOEU1YK0vUMIHbBgNVHSMEgdMwgdCAFPPHZpMNyw4bgAgAz+NO
EU1YK0vUoYGhpIGeMIGbMQswCQYDVQQGEwJVUzEQMA4GA1UECAwHTW9udGFuYTEQ
MA4GA1UEBwwHQm96ZW1hbjEWMBQGA1UECgwNd29sZlNTTF9lZDQ0ODEVMBMGA1UE
CwwMQ2xpZW50LWVkNDQ4MRgwFgYDVQQDDA93d3cud29sZnNzbC5jb20xHzAdBgkq
hkiG9w0BCQEWEGluZm9Ad29sZnNzbC5jb22CFHTgL1V1BrgfjzAgyw3HFXPY0DIn
MAwGA1UdEwQFMAMBAf8wHAYDVR0RBBUwE4ILZXhhbXBsZS5jb22HBH8AAAEwHQYD
VR0lBBYwFAYIKwYBBQUHAwEGCCsGAQUFBwMCMAUGAytlcQNzAO4Z9re/uH4rdHfy
ibLroEVdQhj386q6fYKDoHC5KJctm1l4JexrGrZNCB9SEDxzXHFAuUf5y+aEAIFs
wpBcFj6c7/c0tDuYVcyFR7FzJPSQHAXF/FTXc12z6BjViaax4m1LCQY17i6CbZjU
2oeqbCAUAA==
-----END CERTIFICATE-----
