Certificate:
    Data:
        Version: 3 (0x2)
        Serial Number:
            3b:e1:d2:50:11:c5:bd:5f:cf:5c:4e:20:0f:90:e5:c1:d0:9d:09:26
        Signature Algorithm: ED448
        Issuer: C = US, ST = Montana, L = Bozeman, O = wolfSSL_ed448, OU = Client-ed448, CN = www.wolfssl.com, emailAddress = info@wolfssl.com, UID = wolfSSL
        Validity
            Not Before: Feb 15 12:50:25 2022 GMT
            Not After : Nov 11 12:50:25 2024 GMT
        Subject: C = US, ST = Montana, L = Bozeman, O = wolfSSL_ed448, OU = Client-ed448, CN = www.wolfssl.com, emailAddress = info@wolfssl.com, UID = wolfSSL
        Subject Public Key Info:
            Public Key Algorithm: ED448
                ED448 Public-Key:
                pub:
                    10:c0:82:2f:8d:0a:ec:65:12:52:40:39:aa:7a:60:
                    68:8e:31:22:49:ad:9b:c1:fc:71:e5:3e:78:57:35:
                    c8:76:b3:b3:30:8f:87:78:e6:26:5a:27:d8:0c:38:
                    9e:7b:3c:13:2f:cc:a4:29:6c:80:ef:80
        X509v3 extensions:
            X509v3 Subject Key Identifier: 
                F3:C7:66:93:0D:CB:0E:1B:80:08:00:CF:E3:4E:11:4D:58:2B:4B:D4
            X509v3 Authority Key Identifier: 
                keyid:F3:C7:66:93:0D:CB:0E:1B:80:08:00:CF:E3:4E:11:4D:58:2B:4B:D4
                DirName:/C=US/ST=Montana/L=Bozeman/O=wolfSSL_ed448/OU=Client-ed448/CN=www.wolfssl.com/emailAddress=info@wolfssl.com/UID=wolfSSL
                serial:3B:E1:D2:50:11:C5:BD:5F:CF:5C:4E:20:0F:90:E5:C1:D0:9D:09:26

            X509v3 Basic Constraints: 
                CA:TRUE
            X509v3 Subject Alternative Name: 
                DNS:example.com, IP Address:127.0.0.1
            X509v3 Extended Key Usage: 
                TLS Web Server Authentication, TLS Web Client Authentication
    Signature Algorithm: ED448
         35:3f:bf:1d:c4:fc:54:52:a0:47:6c:f9:4d:e6:54:47:3d:f2:
         ec:f0:b1:d6:0a:a8:29:72:da:7c:e6:a3:cd:e6:2a:96:6b:87:
         16:b2:cc:42:19:43:d4:6d:fb:3c:90:71:5c:a1:5e:75:6c:ab:
         fd:7f:80:28:55:e6:e3:82:21:c4:ad:54:7b:f6:90:4a:20:40:
         1d:7f:fa:8a:1f:ed:c4:46:51:b3:9f:d0:34:b2:0f:7e:b4:6e:
         f5:92:bc:98:fa:4f:40:0d:8e:91:7b:af:44:4b:57:b5:4f:7f:
         9f:7f:43:35:3a:00
-----BEGIN CERTIFICATE-----
MIID3jCCA16gAwIBAgIUO+HSUBHFvV/PXE4gD5DlwdCdCSYwBQYDK2VxMIG0MQsw
CQYDVQQGEwJVUzEQMA4GA1UECAwHTW9udGFuYTEQMA4GA1UEBwwHQm96ZW1hbjEW
MBQGA1UECgwNd29sZlNTTF9lZDQ0ODEVMBMGA1UECwwMQ2xpZW50LWVkNDQ4MRgw
FgYDVQQDDA93d3cud29sZnNzbC5jb20xHzAdBgkqhkiG9w0BCQEWEGluZm9Ad29s
ZnNzbC5jb20xFzAVBgoJkiaJk/IsZAEBDAd3b2xmU1NMMB4XDTIyMDIxNTEyNTAy
NVoXDTI0MTExMTEyNTAyNVowgbQxCzAJBgNVBAYTAlVTMRAwDgYDVQQIDAdNb250
YW5hMRAwDgYDVQQHDAdCb3plbWFuMRYwFAYDVQQKDA13b2xmU1NMX2VkNDQ4MRUw
EwYDVQQLDAxDbGllbnQtZWQ0NDgxGDAWBgNVBAMMD3d3dy53b2xmc3NsLmNvbTEf
MB0GCSqGSIb3DQEJARYQaW5mb0B3b2xmc3NsLmNvbTEXMBUGCgmSJomT8ixkAQEM
B3dvbGZTU0wwQzAFBgMrZXEDOgAQwIIvjQrsZRJSQDmqemBojjEiSa2bwfxx5T54
VzXIdrOzMI+HeOYmWifYDDieezwTL8ykKWyA74CjggFlMIIBYTAdBgNVHQ4EFgQU
88dmkw3LDhuACADP404RTVgrS9QwgfQGA1UdIwSB7DCB6YAU88dmkw3LDhuACADP
404RTVgrS9ShgbqkgbcwgbQxCzAJBgNVBAYTAlVTMRAwDgYDVQQIDAdNb250YW5h
MRAwDgYDVQQHDAdCb3plbWFuMRYwFAYDVQQKDA13b2xmU1NMX2VkNDQ4MRUwEwYD
VQQLDAxDbGllbnQtZWQ0NDgxGDAWBgNVBAMMD3d3dy53b2xmc3NsLmNvbTEfMB0G
CSqGSIb3DQEJARYQaW5mb0B3b2xmc3NsLmNvbTEXMBUGCgmSJomT8ixkAQEMB3dv
bGZTU0yCFDvh0lARxb1fz1xOIA+Q5cHQnQkmMAwGA1UdEwQFMAMBAf8wHAYDVR0R
BBUwE4ILZXhhbXBsZS5jb22HBH8AAAEwHQYDVR0lBBYwFAYIKwYBBQUHAwEGCCsG
AQUFBwMCMAUGAytlcQNzADU/vx3E/FRSoEds+U3mVEc98uzwsdYKqCly2nzmo83m
KpZrhxayzEIZQ9Rt+zyQcVyhXnVsq/1/gChV5uOCIcStVHv2kEogQB1/+oof7cRG
UbOf0DSyD360bvWSvJj6T0ANjpF7r0RLV7VPf59/QzU6AA==
-----END CERTIFICATE-----
