Certificate:
    Data:
        Version: 3 (0x2)
        Serial Number:
            12:21:df:72:ca:f4:72:49:14:09:c8:5c:66:30:97:0a:bb:c7:cd:72
        Signature Algorithm: ED448
        Issuer: C = US, ST = Montana, L = Bozeman, O = wolfSSL_ed448, OU = Client-ed448, CN = www.wolfssl.com, emailAddress = info@wolfssl.com
        Validity
            Not Before: May  7 07:39:04 2020 GMT
            Not After : Feb  1 07:39:04 2023 GMT
        Subject: C = US, ST = Montana, L = Bozeman, O = wolfSSL_ed448, OU = Client-ed448, CN = www.wolfssl.com, emailAddress = info@wolfssl.com
        Subject Public Key Info:
            Public Key Algorithm: ED448
                ED448 Public-Key:
                pub:
                    10:c0:82:2f:8d:0a:ec:65:12:52:40:39:aa:7a:60:
                    68:8e:31:22:49:ad:9b:c1:fc:71:e5:3e:78:57:35:
                    c8:76:b3:b3:30:8f:87:78:e6:26:5a:27:d8:0c:38:
                    9e:7b:3c:13:2f:cc:a4:29:6c:80:ef:80
        X509v3 extensions:
            X509v3 Subject Key Identifier: 
                F3:C7:66:93:0D:CB:0E:1B:80:08:00:CF:E3:4E:11:4D:58:2B:4B:D4
            X509v3 Authority Key Identifier: 
                keyid:F3:C7:66:93:0D:CB:0E:1B:80:08:00:CF:E3:4E:11:4D:58:2B:4B:D4
                DirName:/C=US/ST=Montana/L=Bozeman/O=wolfSSL_ed448/OU=Client-ed448/CN=www.wolfssl.com/emailAddress=info@wolfssl.com
                serial:12:21:DF:72:CA:F4:72:49:14:09:C8:5C:66:30:97:0A:BB:C7:CD:72

            X509v3 Basic Constraints: 
                CA:TRUE
            X509v3 Subject Alternative Name: 
                DNS:example.com, IP Address:127.0.0.1
    Signature Algorithm: ED448
         2e:f6:1e:5d:ee:4d:ea:0f:12:5c:af:5a:87:87:88:c8:a6:bd:
         31:3d:9f:8f:07:03:d2:e6:02:36:df:0e:ea:b7:be:b8:2c:48:
         f9:c9:1b:99:2e:90:48:bc:af:f6:24:06:e9:94:47:07:31:8e:
         b0:e4:80:6e:78:06:a8:68:20:38:1c:cb:e1:65:a8:fe:c1:e9:
         70:5b:58:d7:3a:3b:34:c1:55:9e:86:7f:61:5a:69:84:18:7f:
         75:56:0a:df:1a:d5:0e:35:3f:1d:5f:34:ce:1a:c3:ed:2d:8d:
         cd:bd:22:f0:01:00
-----BEGIN CERTIFICATE-----
MIIDdDCCAvSgAwIBAgIUEiHfcsr0ckkUCchcZjCXCrvHzXIwBQYDK2VxMIGbMQsw
CQYDVQQGEwJVUzEQMA4GA1UECAwHTW9udGFuYTEQMA4GA1UEBwwHQm96ZW1hbjEW
MBQGA1UECgwNd29sZlNTTF9lZDQ0ODEVMBMGA1UECwwMQ2xpZW50LWVkNDQ4MRgw
FgYDVQQDDA93d3cud29sZnNzbC5jb20xHzAdBgkqhkiG9w0BCQEWEGluZm9Ad29s
ZnNzbC5jb20wHhcNMjAwNTA3MDczOTA0WhcNMjMwMjAxMDczOTA0WjCBmzELMAkG
A1UEBhMCVVMxEDAOBgNVBAgMB01vbnRhbmExEDAOBgNVBAcMB0JvemVtYW4xFjAU
BgNVBAoMDXdvbGZTU0xfZWQ0NDgxFTATBgNVBAsMDENsaWVudC1lZDQ0ODEYMBYG
A1UEAwwPd3d3LndvbGZzc2wuY29tMR8wHQYJKoZIhvcNAQkBFhBpbmZvQHdvbGZz
c2wuY29tMEMwBQYDK2VxAzoAEMCCL40K7GUSUkA5qnpgaI4xIkmtm8H8ceU+eFc1
yHazszCPh3jmJlon2Aw4nns8Ey/MpClsgO+Ao4IBLTCCASkwHQYDVR0OBBYEFPPH
ZpMNyw4bgAgAz+NOEU1YK0vUMIHbBgNVHSMEgdMwgdCAFPPHZpMNyw4bgAgAz+NO
EU1YK0vUoYGhpIGeMIGbMQswCQYDVQQGEwJVUzEQMA4GA1UECAwHTW9udGFuYTEQ
MA4GA1UEBwwHQm96ZW1hbjEWMBQGA1UECgwNd29sZlNTTF9lZDQ0ODEVMBMGA1UE
CwwMQ2xpZW50LWVkNDQ4MRgwFgYDVQQDDA93d3cud29sZnNzbC5jb20xHzAdBgkq
hkiG9w0BCQEWEGluZm9Ad29sZnNzbC5jb22CFBIh33LK9HJJFAnIXGYwlwq7x81y
MAwGA1UdEwQFMAMBAf8wHAYDVR0RBBUwE4ILZXhhbXBsZS5jb22HBH8AAAEwBQYD
K2VxA3MALvYeXe5N6g8SXK9ah4eIyKa9MT2fjwcD0uYCNt8O6re+uCxI+ckbmS6Q
SLyv9iQG6ZRHBzGOsOSAbngGqGggOBzL4WWo/sHpcFtY1zo7NMFVnoZ/YVpphBh/
dVYK3xrVDjU/HV80zhrD7S2Nzb0i8AEA
-----END CERTIFICATE-----
