Certificate:
    Data:
        Version: 3 (0x2)
        Serial Number:
            3f:91:2f:53:56:29:ef:34:b6:0a:94:7a:3e:0e:08:b1:f7:0d:7e:f2
        Signature Algorithm: ED448
        Issuer: C = US, ST = Montana, L = Bozeman, O = wolfSSL_Ed448, OU = Root-Ed448, CN = www.wolfssl.com, emailAddress = info@wolfssl.com
        Validity
            Not Before: Dec 20 23:07:25 2021 GMT
            Not After : Sep 15 23:07:25 2024 GMT
        Subject: C = US, ST = Montana, L = Bozeman, O = wolfSSL_Ed448, OU = Root-Ed448, CN = www.wolfssl.com, emailAddress = info@wolfssl.com
        Subject Public Key Info:
            Public Key Algorithm: ED448
                ED448 Public-Key:
                pub:
                    0b:64:26:28:cf:b5:46:9b:ee:3f:ea:3b:f5:66:7a:
                    32:d4:fe:7d:f8:80:5f:58:57:6c:d7:79:ee:66:a2:
                    3d:54:8f:8d:08:af:cb:b8:43:94:50:5d:e5:53:62:
                    69:c8:75:82:a6:5e:44:ca:4b:5b:0b:00
        X509v3 extensions:
            X509v3 Subject Key Identifier: 
                DA:69:98:C9:26:4A:75:FB:59:5E:53:9A:63:4B:0C:B8:88:0B:0F:1E
            X509v3 Authority Key Identifier: 
                keyid:DA:69:98:C9:26:4A:75:FB:59:5E:53:9A:63:4B:0C:B8:88:0B:0F:1E

            X509v3 Basic Constraints: critical
                CA:TRUE
            X509v3 Key Usage: critical
                Digital Signature, Certificate Sign, CRL Sign
    Signature Algorithm: ED448
         f5:c4:aa:7d:41:bd:e4:53:3d:03:c7:d2:c9:6d:93:0f:d2:3b:
         c9:3e:5e:ef:f7:db:e3:a2:41:1b:22:30:e4:49:3d:88:bb:bd:
         40:25:1a:f0:61:85:69:47:45:87:a8:11:00:31:41:28:b0:93:
         c0:28:00:0d:40:0a:fb:e4:cb:dc:d9:cb:64:1a:04:a5:2c:5c:
         9c:c9:93:a4:64:01:8e:09:77:c9:e2:b4:fb:a6:b2:cb:4f:4e:
         07:62:94:44:ec:21:13:f1:de:3a:f9:0d:e9:18:9c:cb:2f:68:
         25:80:ea:79:09:00
-----BEGIN CERTIFICATE-----
MIICpDCCAiSgAwIBAgIUP5EvU1Yp7zS2CpR6Pg4IsfcNfvIwBQYDK2VxMIGZMQsw
CQYDVQQGEwJVUzEQMA4GA1UECAwHTW9udGFuYTEQMA4GA1UEBwwHQm96ZW1hbjEW
MBQGA1UECgwNd29sZlNTTF9FZDQ0ODETMBEGA1UECwwKUm9vdC1FZDQ0ODEYMBYG
A1UEAwwPd3d3LndvbGZzc2wuY29tMR8wHQYJKoZIhvcNAQkBFhBpbmZvQHdvbGZz
c2wuY29tMB4XDTIxMTIyMDIzMDcyNVoXDTI0MDkxNTIzMDcyNVowgZkxCzAJBgNV
BAYTAlVTMRAwDgYDVQQIDAdNb250YW5hMRAwDgYDVQQHDAdCb3plbWFuMRYwFAYD
VQQKDA13b2xmU1NMX0VkNDQ4MRMwEQYDVQQLDApSb290LUVkNDQ4MRgwFgYDVQQD
DA93d3cud29sZnNzbC5jb20xHzAdBgkqhkiG9w0BCQEWEGluZm9Ad29sZnNzbC5j
b20wQzAFBgMrZXEDOgALZCYoz7VGm+4/6jv1Znoy1P59+IBfWFds13nuZqI9VI+N
CK/LuEOUUF3lU2JpyHWCpl5EyktbCwCjYzBhMB0GA1UdDgQWBBTaaZjJJkp1+1le
U5pjSwy4iAsPHjAfBgNVHSMEGDAWgBTaaZjJJkp1+1leU5pjSwy4iAsPHjAPBgNV
HRMBAf8EBTADAQH/MA4GA1UdDwEB/wQEAwIBhjAFBgMrZXEDcwD1xKp9Qb3kUz0D
x9LJbZMP0jvJPl7v99vjokEbIjDkST2Iu71AJRrwYYVpR0WHqBEAMUEosJPAKAAN
QAr75Mvc2ctkGgSlLFycyZOkZAGOCXfJ4rT7prLLT04HYpRE7CET8d46+Q3pGJzL
L2glgOp5CQA=
-----END CERTIFICATE-----
