Certificate:
    Data:
        Version: 3 (0x2)
        Serial Number:
            12:9b:09:d8:ee:4e:ca:7d:44:09:45:97:27:26:cc:d7:0a:28:71:b3
        Signature Algorithm: ED448
        Issuer: C=US, ST=Montana, L=Bozeman, O=wolfSSL_Ed448, OU=Root-Ed448, CN=www.wolfssl.com, emailAddress=info@wolfssl.com
        Validity
            Not Before: Nov 13 20:41:22 2025 GMT
            Not After : Aug  9 20:41:22 2028 GMT
        Subject: C=US, ST=Montana, L=Bozeman, O=wolfSSL_Ed448, OU=Root-Ed448, CN=www.wolfssl.com, emailAddress=info@wolfssl.com
        Subject Public Key Info:
            Public Key Algorithm: ED448
                ED448 Public-Key:
                pub:
                    0b:64:26:28:cf:b5:46:9b:ee:3f:ea:3b:f5:66:7a:
                    32:d4:fe:7d:f8:80:5f:58:57:6c:d7:79:ee:66:a2:
                    3d:54:8f:8d:08:af:cb:b8:43:94:50:5d:e5:53:62:
                    69:c8:75:82:a6:5e:44:ca:4b:5b:0b:00
        X509v3 extensions:
            X509v3 Subject Key Identifier: 
                DA:69:98:C9:26:4A:75:FB:59:5E:53:9A:63:4B:0C:B8:88:0B:0F:1E
            X509v3 Authority Key Identifier: 
                DA:69:98:C9:26:4A:75:FB:59:5E:53:9A:63:4B:0C:B8:88:0B:0F:1E
            X509v3 Basic Constraints: critical
                CA:TRUE
            X509v3 Key Usage: critical
                Digital Signature, Certificate Sign, CRL Sign
    Signature Algorithm: ED448
    Signature Value:
        e2:10:9b:d6:03:2e:1f:13:2d:99:c2:cf:66:20:8d:2a:06:70:
        a3:3d:8f:1e:97:d6:9b:32:03:0e:bb:b3:3c:4a:87:67:74:42:
        0f:68:62:63:8b:4e:b5:0b:46:1b:c6:96:00:95:d4:53:0b:0b:
        7f:00:00:dd:b6:66:b2:f0:86:91:b6:42:42:82:35:83:29:4d:
        ec:cb:84:de:82:23:3a:95:c0:ff:f2:eb:f0:d7:39:59:34:0f:
        4e:22:97:97:25:33:83:94:51:ac:50:23:05:69:8d:fe:41:e9:
        38:5b:af:93:22:00
-----BEGIN CERTIFICATE-----
MIICpDCCAiSgAwIBAgIUEpsJ2O5Oyn1ECUWXJybM1woocbMwBQYDK2VxMIGZMQsw
CQYDVQQGEwJVUzEQMA4GA1UECAwHTW9udGFuYTEQMA4GA1UEBwwHQm96ZW1hbjEW
MBQGA1UECgwNd29sZlNTTF9FZDQ0ODETMBEGA1UECwwKUm9vdC1FZDQ0ODEYMBYG
A1UEAwwPd3d3LndvbGZzc2wuY29tMR8wHQYJKoZIhvcNAQkBFhBpbmZvQHdvbGZz
c2wuY29tMB4XDTI1MTExMzIwNDEyMloXDTI4MDgwOTIwNDEyMlowgZkxCzAJBgNV
BAYTAlVTMRAwDgYDVQQIDAdNb250YW5hMRAwDgYDVQQHDAdCb3plbWFuMRYwFAYD
VQQKDA13b2xmU1NMX0VkNDQ4MRMwEQYDVQQLDApSb290LUVkNDQ4MRgwFgYDVQQD
DA93d3cud29sZnNzbC5jb20xHzAdBgkqhkiG9w0BCQEWEGluZm9Ad29sZnNzbC5j
b20wQzAFBgMrZXEDOgALZCYoz7VGm+4/6jv1Znoy1P59+IBfWFds13nuZqI9VI+N
CK/LuEOUUF3lU2JpyHWCpl5EyktbCwCjYzBhMB0GA1UdDgQWBBTaaZjJJkp1+1le
U5pjSwy4iAsPHjAfBgNVHSMEGDAWgBTaaZjJJkp1+1leU5pjSwy4iAsPHjAPBgNV
HRMBAf8EBTADAQH/MA4GA1UdDwEB/wQEAwIBhjAFBgMrZXEDcwDiEJvWAy4fEy2Z
ws9mII0qBnCjPY8el9abMgMOu7M8SodndEIPaGJji061C0YbxpYAldRTCwt/AADd
tmay8IaRtkJCgjWDKU3sy4TegiM6lcD/8uvw1zlZNA9OIpeXJTODlFGsUCMFaY3+
Qek4W6+TIgA=
-----END CERTIFICATE-----
