Certificate:
    Data:
        Version: 3 (0x2)
        Serial Number:
            63:2c:f3:73:35:61:fa:12:27:9f:85:1e:85:15:27:a8:e7:3a:d4:7a
        Signature Algorithm: ED448
        Issuer: C = US, ST = Montana, L = Bozeman, O = wolfSSL_Ed448, OU = Root-Ed448, CN = www.wolfssl.com, emailAddress = info@wolfssl.com
        Validity
            Not Before: Dec 18 21:25:30 2024 GMT
            Not After : Sep 14 21:25:30 2027 GMT
        Subject: C = US, ST = Montana, L = Bozeman, O = wolfSSL_Ed448, OU = Root-Ed448, CN = www.wolfssl.com, emailAddress = info@wolfssl.com
        Subject Public Key Info:
            Public Key Algorithm: ED448
                ED448 Public-Key:
                pub:
                    0b:64:26:28:cf:b5:46:9b:ee:3f:ea:3b:f5:66:7a:
                    32:d4:fe:7d:f8:80:5f:58:57:6c:d7:79:ee:66:a2:
                    3d:54:8f:8d:08:af:cb:b8:43:94:50:5d:e5:53:62:
                    69:c8:75:82:a6:5e:44:ca:4b:5b:0b:00
        X509v3 extensions:
            X509v3 Subject Key Identifier: 
                DA:69:98:C9:26:4A:75:FB:59:5E:53:9A:63:4B:0C:B8:88:0B:0F:1E
            X509v3 Authority Key Identifier: 
                DA:69:98:C9:26:4A:75:FB:59:5E:53:9A:63:4B:0C:B8:88:0B:0F:1E
            X509v3 Basic Constraints: critical
                CA:TRUE
            X509v3 Key Usage: critical
                Digital Signature, Certificate Sign, CRL Sign
    Signature Algorithm: ED448
    Signature Value:
        c8:58:17:45:94:49:83:23:2e:49:ab:ed:84:6c:c2:8a:6c:62:
        84:c0:ea:ea:af:4e:ae:c4:16:48:6b:c7:34:0f:37:5a:08:5a:
        f1:7b:91:00:0f:94:7d:32:d3:c5:32:b8:fc:c4:5f:92:e7:5a:
        43:5c:80:b0:66:dc:b9:7e:2c:1b:de:54:34:60:9f:90:8c:80:
        31:a5:e0:ba:6b:19:89:c2:74:c6:8c:e5:16:ec:df:93:68:a4:
        04:a4:48:de:8d:21:52:da:fb:6a:a1:a3:8d:24:b3:a6:be:4d:
        fc:c9:27:f1:05:00
-----BEGIN CERTIFICATE-----
MIICpDCCAiSgAwIBAgIUYyzzczVh+hInn4UehRUnqOc61HowBQYDK2VxMIGZMQsw
CQYDVQQGEwJVUzEQMA4GA1UECAwHTW9udGFuYTEQMA4GA1UEBwwHQm96ZW1hbjEW
MBQGA1UECgwNd29sZlNTTF9FZDQ0ODETMBEGA1UECwwKUm9vdC1FZDQ0ODEYMBYG
A1UEAwwPd3d3LndvbGZzc2wuY29tMR8wHQYJKoZIhvcNAQkBFhBpbmZvQHdvbGZz
c2wuY29tMB4XDTI0MTIxODIxMjUzMFoXDTI3MDkxNDIxMjUzMFowgZkxCzAJBgNV
BAYTAlVTMRAwDgYDVQQIDAdNb250YW5hMRAwDgYDVQQHDAdCb3plbWFuMRYwFAYD
VQQKDA13b2xmU1NMX0VkNDQ4MRMwEQYDVQQLDApSb290LUVkNDQ4MRgwFgYDVQQD
DA93d3cud29sZnNzbC5jb20xHzAdBgkqhkiG9w0BCQEWEGluZm9Ad29sZnNzbC5j
b20wQzAFBgMrZXEDOgALZCYoz7VGm+4/6jv1Znoy1P59+IBfWFds13nuZqI9VI+N
CK/LuEOUUF3lU2JpyHWCpl5EyktbCwCjYzBhMB0GA1UdDgQWBBTaaZjJJkp1+1le
U5pjSwy4iAsPHjAfBgNVHSMEGDAWgBTaaZjJJkp1+1leU5pjSwy4iAsPHjAPBgNV
HRMBAf8EBTADAQH/MA4GA1UdDwEB/wQEAwIBhjAFBgMrZXEDcwDIWBdFlEmDIy5J
q+2EbMKKbGKEwOrqr06uxBZIa8c0DzdaCFrxe5EAD5R9MtPFMrj8xF+S51pDXICw
Zty5fiwb3lQ0YJ+QjIAxpeC6axmJwnTGjOUW7N+TaKQEpEjejSFS2vtqoaONJLOm
vk38ySfxBQA=
-----END CERTIFICATE-----
