Certificate:
    Data:
        Version: 3 (0x2)
        Serial Number:
            3a:aa:e5:1c:a7:91:71:00:ef:67:c6:a9:1f:aa:37:1d:de:27:14:d1
        Signature Algorithm: ED448
        Issuer: C = US, ST = Montana, L = Bozeman, O = wolfSSL_Ed448, OU = Root-Ed448, CN = www.wolfssl.com, emailAddress = info@wolfssl.com
        Validity
            Not Before: Sep 26 17:22:43 2023 GMT
            Not After : Jun 22 17:22:43 2026 GMT
        Subject: C = US, ST = Montana, L = Bozeman, O = wolfSSL_Ed448, OU = Root-Ed448, CN = www.wolfssl.com, emailAddress = info@wolfssl.com
        Subject Public Key Info:
            Public Key Algorithm: ED448
                ED448 Public-Key:
                pub:
                    0b:64:26:28:cf:b5:46:9b:ee:3f:ea:3b:f5:66:7a:
                    32:d4:fe:7d:f8:80:5f:58:57:6c:d7:79:ee:66:a2:
                    3d:54:8f:8d:08:af:cb:b8:43:94:50:5d:e5:53:62:
                    69:c8:75:82:a6:5e:44:ca:4b:5b:0b:00
        X509v3 extensions:
            X509v3 Subject Key Identifier: 
                DA:69:98:C9:26:4A:75:FB:59:5E:53:9A:63:4B:0C:B8:88:0B:0F:1E
            X509v3 Authority Key Identifier: 
                DA:69:98:C9:26:4A:75:FB:59:5E:53:9A:63:4B:0C:B8:88:0B:0F:1E
            X509v3 Basic Constraints: critical
                CA:TRUE
            X509v3 Key Usage: critical
                Digital Signature, Certificate Sign, CRL Sign
    Signature Algorithm: ED448
    Signature Value:
        ce:32:ab:f8:ac:55:09:e6:db:77:8f:23:28:f1:2e:ea:d6:67:
        93:d4:fc:2b:ef:9a:a9:5e:ca:4d:bb:8f:61:b9:f1:aa:ce:b3:
        05:9d:46:76:f7:4d:3e:93:3b:2f:fb:1a:c0:a9:6e:e8:b4:10:
        1a:e8:80:39:d5:a9:46:33:63:1c:19:b6:96:2a:28:7a:47:75:
        ba:28:62:cc:7c:39:c0:cc:c3:a1:23:a7:e4:c9:b0:d6:5b:d1:
        57:0c:5a:f5:f2:94:e7:4f:9d:af:67:58:08:f3:e2:eb:b7:f3:
        87:c4:88:9c:20:00
-----BEGIN CERTIFICATE-----
MIICpDCCAiSgAwIBAgIUOqrlHKeRcQDvZ8apH6o3Hd4nFNEwBQYDK2VxMIGZMQsw
CQYDVQQGEwJVUzEQMA4GA1UECAwHTW9udGFuYTEQMA4GA1UEBwwHQm96ZW1hbjEW
MBQGA1UECgwNd29sZlNTTF9FZDQ0ODETMBEGA1UECwwKUm9vdC1FZDQ0ODEYMBYG
A1UEAwwPd3d3LndvbGZzc2wuY29tMR8wHQYJKoZIhvcNAQkBFhBpbmZvQHdvbGZz
c2wuY29tMB4XDTIzMDkyNjE3MjI0M1oXDTI2MDYyMjE3MjI0M1owgZkxCzAJBgNV
BAYTAlVTMRAwDgYDVQQIDAdNb250YW5hMRAwDgYDVQQHDAdCb3plbWFuMRYwFAYD
VQQKDA13b2xmU1NMX0VkNDQ4MRMwEQYDVQQLDApSb290LUVkNDQ4MRgwFgYDVQQD
DA93d3cud29sZnNzbC5jb20xHzAdBgkqhkiG9w0BCQEWEGluZm9Ad29sZnNzbC5j
b20wQzAFBgMrZXEDOgALZCYoz7VGm+4/6jv1Znoy1P59+IBfWFds13nuZqI9VI+N
CK/LuEOUUF3lU2JpyHWCpl5EyktbCwCjYzBhMB0GA1UdDgQWBBTaaZjJJkp1+1le
U5pjSwy4iAsPHjAfBgNVHSMEGDAWgBTaaZjJJkp1+1leU5pjSwy4iAsPHjAPBgNV
HRMBAf8EBTADAQH/MA4GA1UdDwEB/wQEAwIBhjAFBgMrZXEDcwDOMqv4rFUJ5tt3
jyMo8S7q1meT1Pwr75qpXspNu49hufGqzrMFnUZ2900+kzsv+xrAqW7otBAa6IA5
1alGM2McGbaWKih6R3W6KGLMfDnAzMOhI6fkybDWW9FXDFr18pTnT52vZ1gI8+Lr
t/OHxIicIAA=
-----END CERTIFICATE-----
