Certificate:
    Data:
        Version: 3 (0x2)
        Serial Number:
            3e:b1:2c:57:68:30:3f:06:46:47:d7:ea:ae:97:a2:cd:22:15:12:95
        Signature Algorithm: ED448
        Issuer: C = US, ST = Montana, L = Bozeman, O = wolfSSL_Ed448, OU = Root-Ed448, CN = www.wolfssl.com, emailAddress = info@wolfssl.com
        Validity
            Not Before: Jun 19 13:23:41 2020 GMT
            Not After : Mar 16 13:23:41 2023 GMT
        Subject: C = US, ST = Montana, L = Bozeman, O = wolfSSL_Ed448, OU = Root-Ed448, CN = www.wolfssl.com, emailAddress = info@wolfssl.com
        Subject Public Key Info:
            Public Key Algorithm: ED448
                ED448 Public-Key:
                pub:
                    0b:64:26:28:cf:b5:46:9b:ee:3f:ea:3b:f5:66:7a:
                    32:d4:fe:7d:f8:80:5f:58:57:6c:d7:79:ee:66:a2:
                    3d:54:8f:8d:08:af:cb:b8:43:94:50:5d:e5:53:62:
                    69:c8:75:82:a6:5e:44:ca:4b:5b:0b:00
        X509v3 extensions:
            X509v3 Subject Key Identifier: 
                DA:69:98:C9:26:4A:75:FB:59:5E:53:9A:63:4B:0C:B8:88:0B:0F:1E
            X509v3 Authority Key Identifier: 
                keyid:DA:69:98:C9:26:4A:75:FB:59:5E:53:9A:63:4B:0C:B8:88:0B:0F:1E

            X509v3 Basic Constraints: critical
                CA:TRUE
            X509v3 Key Usage: critical
                Digital Signature, Certificate Sign, CRL Sign
    Signature Algorithm: ED448
         b4:9d:00:0e:cd:5c:55:15:a9:e1:96:8a:47:6e:f8:19:43:1d:
         bc:d6:ac:4c:cb:d0:cf:e3:1e:ef:38:8f:f8:7f:1f:2d:45:5b:
         39:ff:05:1e:99:7e:b5:f7:4c:03:7e:25:ca:7b:c5:71:9e:f5:
         8a:c1:80:89:37:a4:ff:76:25:75:83:89:c8:5c:15:f4:0c:ba:
         46:fe:4d:ce:9a:9e:ae:b9:50:6e:1e:75:c5:47:6c:11:d0:f3:
         34:39:d0:2c:d4:84:a2:19:3e:db:f5:05:ac:01:da:e6:8e:ec:
         36:25:31:fa:0b:00
-----BEGIN CERTIFICATE-----
MIICpDCCAiSgAwIBAgIUPrEsV2gwPwZGR9fqrpeizSIVEpUwBQYDK2VxMIGZMQsw
CQYDVQQGEwJVUzEQMA4GA1UECAwHTW9udGFuYTEQMA4GA1UEBwwHQm96ZW1hbjEW
MBQGA1UECgwNd29sZlNTTF9FZDQ0ODETMBEGA1UECwwKUm9vdC1FZDQ0ODEYMBYG
A1UEAwwPd3d3LndvbGZzc2wuY29tMR8wHQYJKoZIhvcNAQkBFhBpbmZvQHdvbGZz
c2wuY29tMB4XDTIwMDYxOTEzMjM0MVoXDTIzMDMxNjEzMjM0MVowgZkxCzAJBgNV
BAYTAlVTMRAwDgYDVQQIDAdNb250YW5hMRAwDgYDVQQHDAdCb3plbWFuMRYwFAYD
VQQKDA13b2xmU1NMX0VkNDQ4MRMwEQYDVQQLDApSb290LUVkNDQ4MRgwFgYDVQQD
DA93d3cud29sZnNzbC5jb20xHzAdBgkqhkiG9w0BCQEWEGluZm9Ad29sZnNzbC5j
b20wQzAFBgMrZXEDOgALZCYoz7VGm+4/6jv1Znoy1P59+IBfWFds13nuZqI9VI+N
CK/LuEOUUF3lU2JpyHWCpl5EyktbCwCjYzBhMB0GA1UdDgQWBBTaaZjJJkp1+1le
U5pjSwy4iAsPHjAfBgNVHSMEGDAWgBTaaZjJJkp1+1leU5pjSwy4iAsPHjAPBgNV
HRMBAf8EBTADAQH/MA4GA1UdDwEB/wQEAwIBhjAFBgMrZXEDcwC0nQAOzVxVFanh
lopHbvgZQx281qxMy9DP4x7vOI/4fx8tRVs5/wUemX6190wDfiXKe8VxnvWKwYCJ
N6T/diV1g4nIXBX0DLpG/k3Omp6uuVBuHnXFR2wR0PM0OdAs1ISiGT7b9QWsAdrm
juw2JTH6CwA=
-----END CERTIFICATE-----
