Certificate:
    Data:
        Version: 3 (0x2)
        Serial Number:
            4a:16:30:0d:1e:78:38:97:39:a7:4a:07:7c:30:8b:07:fd:e3:1b:58
        Signature Algorithm: ED448
        Issuer: C=US, ST=Montana, L=Bozeman, O=wolfSSL_Ed448, OU=Root-Ed448, CN=www.wolfssl.com, emailAddress=facts@wolfssl.com
        Validity
            Not Before: Jun 11 21:44:31 2026 GMT
            Not After : Mar  7 21:44:31 2029 GMT
        Subject: C=US, ST=Montana, L=Bozeman, O=wolfSSL_Ed448, OU=Root-Ed448, CN=www.wolfssl.com, emailAddress=facts@wolfssl.com
        Subject Public Key Info:
            Public Key Algorithm: ED448
                ED448 Public-Key:
                pub:
                    0b:64:26:28:cf:b5:46:9b:ee:3f:ea:3b:f5:66:7a:
                    32:d4:fe:7d:f8:80:5f:58:57:6c:d7:79:ee:66:a2:
                    3d:54:8f:8d:08:af:cb:b8:43:94:50:5d:e5:53:62:
                    69:c8:75:82:a6:5e:44:ca:4b:5b:0b:00
        X509v3 extensions:
            X509v3 Subject Key Identifier: 
                DA:69:98:C9:26:4A:75:FB:59:5E:53:9A:63:4B:0C:B8:88:0B:0F:1E
            X509v3 Authority Key Identifier: 
                DA:69:98:C9:26:4A:75:FB:59:5E:53:9A:63:4B:0C:B8:88:0B:0F:1E
            X509v3 Basic Constraints: critical
                CA:TRUE
            X509v3 Key Usage: critical
                Digital Signature, Certificate Sign, CRL Sign
    Signature Algorithm: ED448
    Signature Value:
        91:53:5f:03:39:a7:c4:bc:80:5f:1e:5b:fb:de:3b:d4:b5:ca:
        3b:cd:4b:dd:1c:21:59:c4:6a:37:2a:52:9f:2c:93:6c:d2:45:
        33:cb:06:49:e5:41:c6:64:6d:c4:d6:1e:12:ff:1f:d5:95:c9:
        33:7e:00:17:67:4a:b2:b8:cd:76:87:53:fa:8d:43:cb:25:a2:
        d5:51:7b:09:dd:9b:61:ef:5c:73:73:b1:e1:8c:92:21:c7:de:
        69:5c:82:9f:96:83:90:ab:49:1e:db:78:eb:d7:fb:65:99:99:
        6d:14:3d:1d:21:00
-----BEGIN CERTIFICATE-----
MIICpjCCAiagAwIBAgIUShYwDR54OJc5p0oHfDCLB/3jG1gwBQYDK2VxMIGaMQsw
CQYDVQQGEwJVUzEQMA4GA1UECAwHTW9udGFuYTEQMA4GA1UEBwwHQm96ZW1hbjEW
MBQGA1UECgwNd29sZlNTTF9FZDQ0ODETMBEGA1UECwwKUm9vdC1FZDQ0ODEYMBYG
A1UEAwwPd3d3LndvbGZzc2wuY29tMSAwHgYJKoZIhvcNAQkBFhFmYWN0c0B3b2xm
c3NsLmNvbTAeFw0yNjA2MTEyMTQ0MzFaFw0yOTAzMDcyMTQ0MzFaMIGaMQswCQYD
VQQGEwJVUzEQMA4GA1UECAwHTW9udGFuYTEQMA4GA1UEBwwHQm96ZW1hbjEWMBQG
A1UECgwNd29sZlNTTF9FZDQ0ODETMBEGA1UECwwKUm9vdC1FZDQ0ODEYMBYGA1UE
AwwPd3d3LndvbGZzc2wuY29tMSAwHgYJKoZIhvcNAQkBFhFmYWN0c0B3b2xmc3Ns
LmNvbTBDMAUGAytlcQM6AAtkJijPtUab7j/qO/VmejLU/n34gF9YV2zXee5moj1U
j40Ir8u4Q5RQXeVTYmnIdYKmXkTKS1sLAKNjMGEwHQYDVR0OBBYEFNppmMkmSnX7
WV5TmmNLDLiICw8eMB8GA1UdIwQYMBaAFNppmMkmSnX7WV5TmmNLDLiICw8eMA8G
A1UdEwEB/wQFMAMBAf8wDgYDVR0PAQH/BAQDAgGGMAUGAytlcQNzAJFTXwM5p8S8
gF8eW/veO9S1yjvNS90cIVnEajcqUp8sk2zSRTPLBknlQcZkbcTWHhL/H9WVyTN+
ABdnSrK4zXaHU/qNQ8slotVRewndm2HvXHNzseGMkiHH3mlcgp+Wg5CrSR7beOvX
+2WZmW0UPR0hAA==
-----END CERTIFICATE-----
