Certificate:
    Data:
        Version: 3 (0x2)
        Serial Number:
            14:b1:9c:29:b7:25:60:05:7c:fb:01:03:b5:14:d9:95:b5:74:b7:03
        Signature Algorithm: ED448
        Issuer: C = US, ST = Montana, L = Bozeman, O = wolfSSL_Ed448, OU = Root-Ed448, CN = www.wolfssl.com, emailAddress = info@wolfssl.com
        Validity
            Not Before: May  7 07:39:04 2020 GMT
            Not After : Feb  1 07:39:04 2023 GMT
        Subject: C = US, ST = Montana, L = Bozeman, O = wolfSSL_Ed448, OU = Root-Ed448, CN = www.wolfssl.com, emailAddress = info@wolfssl.com
        Subject Public Key Info:
            Public Key Algorithm: ED448
                ED448 Public-Key:
                pub:
                    0b:64:26:28:cf:b5:46:9b:ee:3f:ea:3b:f5:66:7a:
                    32:d4:fe:7d:f8:80:5f:58:57:6c:d7:79:ee:66:a2:
                    3d:54:8f:8d:08:af:cb:b8:43:94:50:5d:e5:53:62:
                    69:c8:75:82:a6:5e:44:ca:4b:5b:0b:00
        X509v3 extensions:
            X509v3 Subject Key Identifier: 
                DA:69:98:C9:26:4A:75:FB:59:5E:53:9A:63:4B:0C:B8:88:0B:0F:1E
            X509v3 Authority Key Identifier: 
                keyid:DA:69:98:C9:26:4A:75:FB:59:5E:53:9A:63:4B:0C:B8:88:0B:0F:1E

            X509v3 Basic Constraints: critical
                CA:TRUE
            X509v3 Key Usage: critical
                Digital Signature, Certificate Sign, CRL Sign
    Signature Algorithm: ED448
         50:d0:60:80:5e:e8:d8:30:58:1b:03:79:85:43:b4:5a:3d:cb:
         93:37:46:1f:fa:7f:1a:b2:2e:72:df:f3:e6:1a:41:1d:c2:fa:
         99:57:94:78:45:ca:00:0a:e7:38:36:ce:49:ff:c8:14:38:36:
         f9:25:80:23:59:bc:02:bc:36:40:a8:97:1a:96:6e:78:c7:30:
         c3:34:57:80:bf:c7:39:c4:b8:d0:a0:68:12:5f:0a:61:34:65:
         f8:a5:f9:2f:74:94:77:40:27:9d:6f:8e:d0:90:19:86:40:ae:
         3a:44:6c:a4:33:00
-----BEGIN CERTIFICATE-----
MIICpDCCAiSgAwIBAgIUFLGcKbclYAV8+wEDtRTZlbV0twMwBQYDK2VxMIGZMQsw
CQYDVQQGEwJVUzEQMA4GA1UECAwHTW9udGFuYTEQMA4GA1UEBwwHQm96ZW1hbjEW
MBQGA1UECgwNd29sZlNTTF9FZDQ0ODETMBEGA1UECwwKUm9vdC1FZDQ0ODEYMBYG
A1UEAwwPd3d3LndvbGZzc2wuY29tMR8wHQYJKoZIhvcNAQkBFhBpbmZvQHdvbGZz
c2wuY29tMB4XDTIwMDUwNzA3MzkwNFoXDTIzMDIwMTA3MzkwNFowgZkxCzAJBgNV
BAYTAlVTMRAwDgYDVQQIDAdNb250YW5hMRAwDgYDVQQHDAdCb3plbWFuMRYwFAYD
VQQKDA13b2xmU1NMX0VkNDQ4MRMwEQYDVQQLDApSb290LUVkNDQ4MRgwFgYDVQQD
DA93d3cud29sZnNzbC5jb20xHzAdBgkqhkiG9w0BCQEWEGluZm9Ad29sZnNzbC5j
b20wQzAFBgMrZXEDOgALZCYoz7VGm+4/6jv1Znoy1P59+IBfWFds13nuZqI9VI+N
CK/LuEOUUF3lU2JpyHWCpl5EyktbCwCjYzBhMB0GA1UdDgQWBBTaaZjJJkp1+1le
U5pjSwy4iAsPHjAfBgNVHSMEGDAWgBTaaZjJJkp1+1leU5pjSwy4iAsPHjAPBgNV
HRMBAf8EBTADAQH/MA4GA1UdDwEB/wQEAwIBhjAFBgMrZXEDcwBQ0GCAXujYMFgb
A3mFQ7RaPcuTN0Yf+n8asi5y3/PmGkEdwvqZV5R4RcoACuc4Ns5J/8gUODb5JYAj
WbwCvDZAqJcalm54xzDDNFeAv8c5xLjQoGgSXwphNGX4pfkvdJR3QCedb47QkBmG
QK46RGykMwA=
-----END CERTIFICATE-----
