Certificate:
    Data:
        Version: 3 (0x2)
        Serial Number:
            13:86:16:ce:8f:3e:19:34:76:2d:dd:88:13:01:34:86:73:7b:5a:9a
        Signature Algorithm: ED448
        Issuer: C = US, ST = Montana, L = Bozeman, O = wolfSSL_Ed448, OU = Root-Ed448, CN = www.wolfssl.com, emailAddress = info@wolfssl.com
        Validity
            Not Before: Dec 13 22:19:29 2023 GMT
            Not After : Sep  8 22:19:29 2026 GMT
        Subject: C = US, ST = Montana, L = Bozeman, O = wolfSSL_Ed448, OU = Root-Ed448, CN = www.wolfssl.com, emailAddress = info@wolfssl.com
        Subject Public Key Info:
            Public Key Algorithm: ED448
                ED448 Public-Key:
                pub:
                    0b:64:26:28:cf:b5:46:9b:ee:3f:ea:3b:f5:66:7a:
                    32:d4:fe:7d:f8:80:5f:58:57:6c:d7:79:ee:66:a2:
                    3d:54:8f:8d:08:af:cb:b8:43:94:50:5d:e5:53:62:
                    69:c8:75:82:a6:5e:44:ca:4b:5b:0b:00
        X509v3 extensions:
            X509v3 Subject Key Identifier: 
                DA:69:98:C9:26:4A:75:FB:59:5E:53:9A:63:4B:0C:B8:88:0B:0F:1E
            X509v3 Authority Key Identifier: 
                keyid:DA:69:98:C9:26:4A:75:FB:59:5E:53:9A:63:4B:0C:B8:88:0B:0F:1E

            X509v3 Basic Constraints: critical
                CA:TRUE
            X509v3 Key Usage: critical
                Digital Signature, Certificate Sign, CRL Sign
    Signature Algorithm: ED448
         58:fd:39:b5:c2:38:86:da:aa:72:ec:35:44:d1:8a:b6:7c:28:
         9f:c4:75:c9:bf:09:d8:49:c0:18:34:9d:10:c3:e9:f3:54:9b:
         3d:8a:c7:9c:bd:a1:9d:33:88:17:f2:55:9c:bb:00:63:d8:40:
         a2:ed:80:7d:e9:95:1d:f0:fb:9f:7c:43:ba:b1:63:4e:48:7e:
         87:ea:82:21:bb:3f:a5:2f:6e:43:77:90:4b:e3:e4:29:a8:a1:
         c0:c4:22:a5:6c:49:ef:c7:e9:36:1c:39:3f:71:3d:6d:51:27:
         89:99:fa:c6:1c:00
-----BEGIN CERTIFICATE-----
MIICpDCCAiSgAwIBAgIUE4YWzo8+GTR2Ld2IEwE0hnN7WpowBQYDK2VxMIGZMQsw
CQYDVQQGEwJVUzEQMA4GA1UECAwHTW9udGFuYTEQMA4GA1UEBwwHQm96ZW1hbjEW
MBQGA1UECgwNd29sZlNTTF9FZDQ0ODETMBEGA1UECwwKUm9vdC1FZDQ0ODEYMBYG
A1UEAwwPd3d3LndvbGZzc2wuY29tMR8wHQYJKoZIhvcNAQkBFhBpbmZvQHdvbGZz
c2wuY29tMB4XDTIzMTIxMzIyMTkyOVoXDTI2MDkwODIyMTkyOVowgZkxCzAJBgNV
BAYTAlVTMRAwDgYDVQQIDAdNb250YW5hMRAwDgYDVQQHDAdCb3plbWFuMRYwFAYD
VQQKDA13b2xmU1NMX0VkNDQ4MRMwEQYDVQQLDApSb290LUVkNDQ4MRgwFgYDVQQD
DA93d3cud29sZnNzbC5jb20xHzAdBgkqhkiG9w0BCQEWEGluZm9Ad29sZnNzbC5j
b20wQzAFBgMrZXEDOgALZCYoz7VGm+4/6jv1Znoy1P59+IBfWFds13nuZqI9VI+N
CK/LuEOUUF3lU2JpyHWCpl5EyktbCwCjYzBhMB0GA1UdDgQWBBTaaZjJJkp1+1le
U5pjSwy4iAsPHjAfBgNVHSMEGDAWgBTaaZjJJkp1+1leU5pjSwy4iAsPHjAPBgNV
HRMBAf8EBTADAQH/MA4GA1UdDwEB/wQEAwIBhjAFBgMrZXEDcwBY/Tm1wjiG2qpy
7DVE0Yq2fCifxHXJvwnYScAYNJ0Qw+nzVJs9isecvaGdM4gX8lWcuwBj2ECi7YB9
6ZUd8PuffEO6sWNOSH6H6oIhuz+lL25Dd5BL4+QpqKHAxCKlbEnvx+k2HDk/cT1t
USeJmfrGHAA=
-----END CERTIFICATE-----
