Certificate:
    Data:
        Version: 3 (0x2)
        Serial Number:
            2e:c8:17:dd:60:88:36:b1:95:17:b2:d2:52:b9:a5:c7:58:ad:0d:67
        Signature Algorithm: ED448
        Issuer: C = US, ST = Montana, L = Bozeman, O = wolfSSL_Ed448, OU = Root-Ed448, CN = www.wolfssl.com, emailAddress = info@wolfssl.com
        Validity
            Not Before: Feb 15 12:50:24 2022 GMT
            Not After : Nov 11 12:50:24 2024 GMT
        Subject: C = US, ST = Montana, L = Bozeman, O = wolfSSL_Ed448, OU = Root-Ed448, CN = www.wolfssl.com, emailAddress = info@wolfssl.com
        Subject Public Key Info:
            Public Key Algorithm: ED448
                ED448 Public-Key:
                pub:
                    0b:64:26:28:cf:b5:46:9b:ee:3f:ea:3b:f5:66:7a:
                    32:d4:fe:7d:f8:80:5f:58:57:6c:d7:79:ee:66:a2:
                    3d:54:8f:8d:08:af:cb:b8:43:94:50:5d:e5:53:62:
                    69:c8:75:82:a6:5e:44:ca:4b:5b:0b:00
        X509v3 extensions:
            X509v3 Subject Key Identifier: 
                DA:69:98:C9:26:4A:75:FB:59:5E:53:9A:63:4B:0C:B8:88:0B:0F:1E
            X509v3 Authority Key Identifier: 
                keyid:DA:69:98:C9:26:4A:75:FB:59:5E:53:9A:63:4B:0C:B8:88:0B:0F:1E

            X509v3 Basic Constraints: critical
                CA:TRUE
            X509v3 Key Usage: critical
                Digital Signature, Certificate Sign, CRL Sign
    Signature Algorithm: ED448
         2c:5f:7d:a4:6f:cc:cc:e7:c5:b5:01:c0:28:b8:e3:ee:bd:ac:
         56:c7:a0:1a:f9:82:c9:cf:dc:70:2c:13:01:51:d6:40:89:ea:
         4c:61:04:b0:6e:cc:45:4e:3a:e0:f4:d0:23:11:74:82:c6:59:
         59:f9:80:e0:24:6a:f3:4a:cc:c5:e6:ec:83:03:bd:55:18:ea:
         66:49:81:20:fc:8c:d2:8f:20:72:27:e0:6e:2f:53:16:1a:45:
         f6:69:12:bf:19:4b:6e:37:e6:a2:93:f8:5f:e5:4d:c6:d5:cf:
         ad:cc:b0:a3:24:00
-----BEGIN CERTIFICATE-----
MIICpDCCAiSgAwIBAgIULsgX3WCINrGVF7LSUrmlx1itDWcwBQYDK2VxMIGZMQsw
CQYDVQQGEwJVUzEQMA4GA1UECAwHTW9udGFuYTEQMA4GA1UEBwwHQm96ZW1hbjEW
MBQGA1UECgwNd29sZlNTTF9FZDQ0ODETMBEGA1UECwwKUm9vdC1FZDQ0ODEYMBYG
A1UEAwwPd3d3LndvbGZzc2wuY29tMR8wHQYJKoZIhvcNAQkBFhBpbmZvQHdvbGZz
c2wuY29tMB4XDTIyMDIxNTEyNTAyNFoXDTI0MTExMTEyNTAyNFowgZkxCzAJBgNV
BAYTAlVTMRAwDgYDVQQIDAdNb250YW5hMRAwDgYDVQQHDAdCb3plbWFuMRYwFAYD
VQQKDA13b2xmU1NMX0VkNDQ4MRMwEQYDVQQLDApSb290LUVkNDQ4MRgwFgYDVQQD
DA93d3cud29sZnNzbC5jb20xHzAdBgkqhkiG9w0BCQEWEGluZm9Ad29sZnNzbC5j
b20wQzAFBgMrZXEDOgALZCYoz7VGm+4/6jv1Znoy1P59+IBfWFds13nuZqI9VI+N
CK/LuEOUUF3lU2JpyHWCpl5EyktbCwCjYzBhMB0GA1UdDgQWBBTaaZjJJkp1+1le
U5pjSwy4iAsPHjAfBgNVHSMEGDAWgBTaaZjJJkp1+1leU5pjSwy4iAsPHjAPBgNV
HRMBAf8EBTADAQH/MA4GA1UdDwEB/wQEAwIBhjAFBgMrZXEDcwAsX32kb8zM58W1
AcAouOPuvaxWx6Aa+YLJz9xwLBMBUdZAiepMYQSwbsxFTjrg9NAjEXSCxllZ+YDg
JGrzSszF5uyDA71VGOpmSYEg/IzSjyByJ+BuL1MWGkX2aRK/GUtuN+aik/hf5U3G
1c+tzLCjJAA=
-----END CERTIFICATE-----
