Certificate:
    Data:
        Version: 3 (0x2)
        Serial Number: 1 (0x1)
        Signature Algorithm: ED448
        Issuer: C = US, ST = Montana, L = Bozeman, O = wolfSSL_ed448, OU = CA-ed448, CN = www.wolfssl.com, emailAddress = info@wolfssl.com, UID = wolfSSL
        Validity
            Not Before: Dec 18 21:25:30 2024 GMT
            Not After : Sep 14 21:25:30 2027 GMT
        Subject: C = US, ST = Montana, L = Bozeman, O = wolfSSL_ed448, OU = Server-ed448, CN = www.wolfssl.com, emailAddress = info@wolfssl.com, UID = wolfSSL
        Subject Public Key Info:
            Public Key Algorithm: ED448
                ED448 Public-Key:
                pub:
                    54:81:39:01:eb:37:d9:a9:07:cd:01:bc:9d:70:16:
                    c2:2c:2b:75:5b:63:db:ee:3a:2d:44:92:46:b4:7b:
                    07:03:4f:a2:ae:86:86:dc:8b:4b:2c:7f:e8:6b:14:
                    8d:58:dd:6d:e7:6f:3a:05:95:a8:ef:00
        X509v3 extensions:
            X509v3 Subject Key Identifier: 
                7C:AB:5C:12:A9:68:D8:18:10:28:7D:92:C5:4A:B8:4C:4C:76:0E:DB
            X509v3 Authority Key Identifier: 
                38:59:45:E8:DD:44:2C:B5:7D:A5:25:D6:0B:CC:39:F0:72:C0:94:63
            X509v3 Basic Constraints: critical
                CA:FALSE
            X509v3 Key Usage: critical
                Digital Signature, Key Encipherment, Key Agreement
            X509v3 Extended Key Usage: 
                TLS Web Server Authentication
            Netscape Cert Type: 
                SSL Server
    Signature Algorithm: ED448
    Signature Value:
        7b:57:bb:6e:a6:57:a9:d2:0a:85:f0:ae:63:17:ef:cf:e7:5a:
        70:92:41:14:c2:b1:17:52:07:93:95:14:c8:b6:9c:80:2a:6f:
        09:90:15:1c:3f:a9:59:50:c6:c4:e7:72:65:35:db:97:28:35:
        94:e0:80:cf:71:c2:1e:db:c6:8c:e4:ea:b8:96:a3:e3:c8:22:
        93:e9:66:78:bd:97:fb:8b:a3:40:41:42:46:3e:37:35:58:f0:
        c1:52:58:4e:f6:ce:2d:4c:7e:d3:6d:1f:a7:ff:27:f2:d0:62:
        27:eb:2d:8b:05:00
-----BEGIN CERTIFICATE-----
MIIC6jCCAmqgAwIBAgIBATAFBgMrZXEwgbAxCzAJBgNVBAYTAlVTMRAwDgYDVQQI
DAdNb250YW5hMRAwDgYDVQQHDAdCb3plbWFuMRYwFAYDVQQKDA13b2xmU1NMX2Vk
NDQ4MREwDwYDVQQLDAhDQS1lZDQ0ODEYMBYGA1UEAwwPd3d3LndvbGZzc2wuY29t
MR8wHQYJKoZIhvcNAQkBFhBpbmZvQHdvbGZzc2wuY29tMRcwFQYKCZImiZPyLGQB
AQwHd29sZlNTTDAeFw0yNDEyMTgyMTI1MzBaFw0yNzA5MTQyMTI1MzBaMIG0MQsw
CQYDVQQGEwJVUzEQMA4GA1UECAwHTW9udGFuYTEQMA4GA1UEBwwHQm96ZW1hbjEW
MBQGA1UECgwNd29sZlNTTF9lZDQ0ODEVMBMGA1UECwwMU2VydmVyLWVkNDQ4MRgw
FgYDVQQDDA93d3cud29sZnNzbC5jb20xHzAdBgkqhkiG9w0BCQEWEGluZm9Ad29s
ZnNzbC5jb20xFzAVBgoJkiaJk/IsZAEBDAd3b2xmU1NMMEMwBQYDK2VxAzoAVIE5
Aes32akHzQG8nXAWwiwrdVtj2+46LUSSRrR7BwNPoq6GhtyLSyx/6GsUjVjdbedv
OgWVqO8Ao4GJMIGGMB0GA1UdDgQWBBR8q1wSqWjYGBAofZLFSrhMTHYO2zAfBgNV
HSMEGDAWgBQ4WUXo3UQstX2lJdYLzDnwcsCUYzAMBgNVHRMBAf8EAjAAMA4GA1Ud
DwEB/wQEAwIDqDATBgNVHSUEDDAKBggrBgEFBQcDATARBglghkgBhvhCAQEEBAMC
BkAwBQYDK2VxA3MAe1e7bqZXqdIKhfCuYxfvz+dacJJBFMKxF1IHk5UUyLacgCpv
CZAVHD+pWVDGxOdyZTXblyg1lOCAz3HCHtvGjOTquJaj48gik+lmeL2X+4ujQEFC
Rj43NVjwwVJYTvbOLUx+020fp/8n8tBiJ+stiwUA
-----END CERTIFICATE-----
