Certificate:
    Data:
        Version: 3 (0x2)
        Serial Number: 1 (0x1)
        Signature Algorithm: ED448
        Issuer: C=US, ST=Montana, L=Bozeman, O=wolfSSL_ed448, OU=CA-ed448, CN=www.wolfssl.com, emailAddress=facts@wolfssl.com, UID=wolfSSL
        Validity
            Not Before: Jun 11 21:44:31 2026 GMT
            Not After : Mar  7 21:44:31 2029 GMT
        Subject: C=US, ST=Montana, L=Bozeman, O=wolfSSL_ed448, OU=Server-ed448, CN=www.wolfssl.com, emailAddress=facts@wolfssl.com, UID=wolfSSL
        Subject Public Key Info:
            Public Key Algorithm: ED448
                ED448 Public-Key:
                pub:
                    54:81:39:01:eb:37:d9:a9:07:cd:01:bc:9d:70:16:
                    c2:2c:2b:75:5b:63:db:ee:3a:2d:44:92:46:b4:7b:
                    07:03:4f:a2:ae:86:86:dc:8b:4b:2c:7f:e8:6b:14:
                    8d:58:dd:6d:e7:6f:3a:05:95:a8:ef:00
        X509v3 extensions:
            X509v3 Subject Key Identifier: 
                7C:AB:5C:12:A9:68:D8:18:10:28:7D:92:C5:4A:B8:4C:4C:76:0E:DB
            X509v3 Authority Key Identifier: 
                38:59:45:E8:DD:44:2C:B5:7D:A5:25:D6:0B:CC:39:F0:72:C0:94:63
            X509v3 Basic Constraints: critical
                CA:FALSE
            X509v3 Key Usage: critical
                Digital Signature, Key Encipherment, Key Agreement
            X509v3 Extended Key Usage: 
                TLS Web Server Authentication
            Netscape Cert Type: 
                SSL Server
    Signature Algorithm: ED448
    Signature Value:
        50:b0:95:e9:11:9a:e2:e7:c2:46:11:81:df:d5:22:df:03:70:
        37:7a:1c:1b:51:83:af:f6:67:96:97:68:1a:03:a7:24:f0:ee:
        95:d5:ec:98:98:35:66:45:d2:66:00:ce:88:a6:27:f6:9c:46:
        02:7f:00:15:f5:77:91:73:93:16:ba:e7:79:99:72:01:52:dc:
        38:a9:73:a0:31:e6:e5:07:4e:1d:25:3d:d4:8f:ff:3e:a7:29:
        d0:59:b2:60:c3:d3:20:98:da:0e:3e:4b:e4:b7:da:56:3c:ce:
        94:e6:1b:38:01:00
-----BEGIN CERTIFICATE-----
MIIC7DCCAmygAwIBAgIBATAFBgMrZXEwgbExCzAJBgNVBAYTAlVTMRAwDgYDVQQI
DAdNb250YW5hMRAwDgYDVQQHDAdCb3plbWFuMRYwFAYDVQQKDA13b2xmU1NMX2Vk
NDQ4MREwDwYDVQQLDAhDQS1lZDQ0ODEYMBYGA1UEAwwPd3d3LndvbGZzc2wuY29t
MSAwHgYJKoZIhvcNAQkBFhFmYWN0c0B3b2xmc3NsLmNvbTEXMBUGCgmSJomT8ixk
AQEMB3dvbGZTU0wwHhcNMjYwNjExMjE0NDMxWhcNMjkwMzA3MjE0NDMxWjCBtTEL
MAkGA1UEBhMCVVMxEDAOBgNVBAgMB01vbnRhbmExEDAOBgNVBAcMB0JvemVtYW4x
FjAUBgNVBAoMDXdvbGZTU0xfZWQ0NDgxFTATBgNVBAsMDFNlcnZlci1lZDQ0ODEY
MBYGA1UEAwwPd3d3LndvbGZzc2wuY29tMSAwHgYJKoZIhvcNAQkBFhFmYWN0c0B3
b2xmc3NsLmNvbTEXMBUGCgmSJomT8ixkAQEMB3dvbGZTU0wwQzAFBgMrZXEDOgBU
gTkB6zfZqQfNAbydcBbCLCt1W2Pb7jotRJJGtHsHA0+iroaG3ItLLH/oaxSNWN1t
5286BZWo7wCjgYkwgYYwHQYDVR0OBBYEFHyrXBKpaNgYECh9ksVKuExMdg7bMB8G
A1UdIwQYMBaAFDhZRejdRCy1faUl1gvMOfBywJRjMAwGA1UdEwEB/wQCMAAwDgYD
VR0PAQH/BAQDAgOoMBMGA1UdJQQMMAoGCCsGAQUFBwMBMBEGCWCGSAGG+EIBAQQE
AwIGQDAFBgMrZXEDcwBQsJXpEZri58JGEYHf1SLfA3A3ehwbUYOv9meWl2gaA6ck
8O6V1eyYmDVmRdJmAM6Ipif2nEYCfwAV9XeRc5MWuud5mXIBUtw4qXOgMeblB04d
JT3Uj/8+pynQWbJgw9MgmNoOPkvkt9pWPM6U5hs4AQA=
-----END CERTIFICATE-----
Certificate:
    Data:
        Version: 3 (0x2)
        Serial Number: 1 (0x1)
        Signature Algorithm: ED448
        Issuer: C=US, ST=Montana, L=Bozeman, O=wolfSSL_Ed448, OU=Root-Ed448, CN=www.wolfssl.com, emailAddress=facts@wolfssl.com
        Validity
            Not Before: Jun 11 21:44:31 2026 GMT
            Not After : Mar  7 21:44:31 2029 GMT
        Subject: C=US, ST=Montana, L=Bozeman, O=wolfSSL_ed448, OU=CA-ed448, CN=www.wolfssl.com, emailAddress=facts@wolfssl.com, UID=wolfSSL
        Subject Public Key Info:
            Public Key Algorithm: ED448
                ED448 Public-Key:
                pub:
                    0e:e2:b4:76:e5:d2:cc:c2:4b:7b:b0:29:be:92:fb:
                    c3:af:69:a5:94:ba:70:24:e8:a3:ef:c8:63:9a:dd:
                    a6:af:58:43:38:04:24:f0:10:91:be:a7:01:91:54:
                    f3:cf:69:85:4c:b9:97:8c:a4:37:aa:00
        X509v3 extensions:
            X509v3 Subject Key Identifier: 
                38:59:45:E8:DD:44:2C:B5:7D:A5:25:D6:0B:CC:39:F0:72:C0:94:63
            X509v3 Authority Key Identifier: 
                DA:69:98:C9:26:4A:75:FB:59:5E:53:9A:63:4B:0C:B8:88:0B:0F:1E
            X509v3 Basic Constraints: critical
                CA:TRUE
            X509v3 Key Usage: critical
                Digital Signature, Certificate Sign, CRL Sign
    Signature Algorithm: ED448
    Signature Value:
        32:97:3c:fd:97:8e:05:f4:28:44:79:ef:b7:3a:f4:3f:ea:66:
        42:d9:3b:c3:ca:ee:f0:2e:1b:d7:9b:25:1e:6c:95:8f:93:45:
        4b:a8:60:ea:a1:6d:1a:e4:39:cb:67:f0:31:51:16:7f:7c:ab:
        52:ba:80:ed:da:a7:29:da:88:8a:fd:39:d6:1e:43:91:a8:45:
        46:09:89:c0:37:ee:12:be:4d:78:21:43:19:18:77:81:7a:33:
        33:fe:ea:ed:20:02:90:3a:b5:cd:b9:b7:e0:9e:15:69:4c:0c:
        70:46:67:cc:0f:00
-----BEGIN CERTIFICATE-----
MIICqjCCAiqgAwIBAgIBATAFBgMrZXEwgZoxCzAJBgNVBAYTAlVTMRAwDgYDVQQI
DAdNb250YW5hMRAwDgYDVQQHDAdCb3plbWFuMRYwFAYDVQQKDA13b2xmU1NMX0Vk
NDQ4MRMwEQYDVQQLDApSb290LUVkNDQ4MRgwFgYDVQQDDA93d3cud29sZnNzbC5j
b20xIDAeBgkqhkiG9w0BCQEWEWZhY3RzQHdvbGZzc2wuY29tMB4XDTI2MDYxMTIx
NDQzMVoXDTI5MDMwNzIxNDQzMVowgbExCzAJBgNVBAYTAlVTMRAwDgYDVQQIDAdN
b250YW5hMRAwDgYDVQQHDAdCb3plbWFuMRYwFAYDVQQKDA13b2xmU1NMX2VkNDQ4
MREwDwYDVQQLDAhDQS1lZDQ0ODEYMBYGA1UEAwwPd3d3LndvbGZzc2wuY29tMSAw
HgYJKoZIhvcNAQkBFhFmYWN0c0B3b2xmc3NsLmNvbTEXMBUGCgmSJomT8ixkAQEM
B3dvbGZTU0wwQzAFBgMrZXEDOgAO4rR25dLMwkt7sCm+kvvDr2mllLpwJOij78hj
mt2mr1hDOAQk8BCRvqcBkVTzz2mFTLmXjKQ3qgCjYzBhMB0GA1UdDgQWBBQ4WUXo
3UQstX2lJdYLzDnwcsCUYzAfBgNVHSMEGDAWgBTaaZjJJkp1+1leU5pjSwy4iAsP
HjAPBgNVHRMBAf8EBTADAQH/MA4GA1UdDwEB/wQEAwIBhjAFBgMrZXEDcwAylzz9
l44F9ChEee+3OvQ/6mZC2TvDyu7wLhvXmyUebJWPk0VLqGDqoW0a5DnLZ/AxURZ/
fKtSuoDt2qcp2oiK/TnWHkORqEVGCYnAN+4Svk14IUMZGHeBejMz/urtIAKQOrXN
ubfgnhVpTAxwRmfMDwA=
-----END CERTIFICATE-----
