Certificate:
    Data:
        Version: 3 (0x2)
        Serial Number: 1 (0x1)
        Signature Algorithm: ED448
        Issuer: C = US, ST = Montana, L = Bozeman, O = wolfSSL_ed448, OU = CA-ed448, CN = www.wolfssl.com, emailAddress = info@wolfssl.com, UID = wolfSSL
        Validity
            Not Before: Sep 26 17:22:43 2023 GMT
            Not After : Jun 22 17:22:43 2026 GMT
        Subject: C = US, ST = Montana, L = Bozeman, O = wolfSSL_ed448, OU = Server-ed448, CN = www.wolfssl.com, emailAddress = info@wolfssl.com, UID = wolfSSL
        Subject Public Key Info:
            Public Key Algorithm: ED448
                ED448 Public-Key:
                pub:
                    54:81:39:01:eb:37:d9:a9:07:cd:01:bc:9d:70:16:
                    c2:2c:2b:75:5b:63:db:ee:3a:2d:44:92:46:b4:7b:
                    07:03:4f:a2:ae:86:86:dc:8b:4b:2c:7f:e8:6b:14:
                    8d:58:dd:6d:e7:6f:3a:05:95:a8:ef:00
        X509v3 extensions:
            X509v3 Subject Key Identifier: 
                7C:AB:5C:12:A9:68:D8:18:10:28:7D:92:C5:4A:B8:4C:4C:76:0E:DB
            X509v3 Authority Key Identifier: 
                38:59:45:E8:DD:44:2C:B5:7D:A5:25:D6:0B:CC:39:F0:72:C0:94:63
            X509v3 Basic Constraints: critical
                CA:FALSE
            X509v3 Key Usage: critical
                Digital Signature, Key Encipherment, Key Agreement
            X509v3 Extended Key Usage: 
                TLS Web Server Authentication
            Netscape Cert Type: 
                SSL Server
    Signature Algorithm: ED448
    Signature Value:
        09:db:b5:e4:fc:64:70:2d:54:53:31:fa:73:fc:3a:2c:f2:f5:
        c1:da:54:47:b8:b8:16:b7:d3:dd:98:7b:d7:f4:60:38:f5:42:
        0e:b2:60:3e:8a:5b:5c:e1:14:99:e8:0a:d8:ef:0e:6b:a1:5f:
        09:59:80:2b:cc:d2:41:49:db:ff:37:29:a5:13:22:06:7f:b5:
        87:cd:09:f2:d7:d9:65:8d:73:61:c5:d3:16:47:38:e1:e5:72:
        35:db:1c:56:c8:f9:02:eb:5c:f6:92:c6:3a:68:18:45:cc:63:
        67:0c:16:61:14:00
-----BEGIN CERTIFICATE-----
MIIC6jCCAmqgAwIBAgIBATAFBgMrZXEwgbAxCzAJBgNVBAYTAlVTMRAwDgYDVQQI
DAdNb250YW5hMRAwDgYDVQQHDAdCb3plbWFuMRYwFAYDVQQKDA13b2xmU1NMX2Vk
NDQ4MREwDwYDVQQLDAhDQS1lZDQ0ODEYMBYGA1UEAwwPd3d3LndvbGZzc2wuY29t
MR8wHQYJKoZIhvcNAQkBFhBpbmZvQHdvbGZzc2wuY29tMRcwFQYKCZImiZPyLGQB
AQwHd29sZlNTTDAeFw0yMzA5MjYxNzIyNDNaFw0yNjA2MjIxNzIyNDNaMIG0MQsw
CQYDVQQGEwJVUzEQMA4GA1UECAwHTW9udGFuYTEQMA4GA1UEBwwHQm96ZW1hbjEW
MBQGA1UECgwNd29sZlNTTF9lZDQ0ODEVMBMGA1UECwwMU2VydmVyLWVkNDQ4MRgw
FgYDVQQDDA93d3cud29sZnNzbC5jb20xHzAdBgkqhkiG9w0BCQEWEGluZm9Ad29s
ZnNzbC5jb20xFzAVBgoJkiaJk/IsZAEBDAd3b2xmU1NMMEMwBQYDK2VxAzoAVIE5
Aes32akHzQG8nXAWwiwrdVtj2+46LUSSRrR7BwNPoq6GhtyLSyx/6GsUjVjdbedv
OgWVqO8Ao4GJMIGGMB0GA1UdDgQWBBR8q1wSqWjYGBAofZLFSrhMTHYO2zAfBgNV
HSMEGDAWgBQ4WUXo3UQstX2lJdYLzDnwcsCUYzAMBgNVHRMBAf8EAjAAMA4GA1Ud
DwEB/wQEAwIDqDATBgNVHSUEDDAKBggrBgEFBQcDATARBglghkgBhvhCAQEEBAMC
BkAwBQYDK2VxA3MACdu15PxkcC1UUzH6c/w6LPL1wdpUR7i4FrfT3Zh71/RgOPVC
DrJgPopbXOEUmegK2O8Oa6FfCVmAK8zSQUnb/zcppRMiBn+1h80J8tfZZY1zYcXT
Fkc44eVyNdscVsj5Autc9pLGOmgYRcxjZwwWYRQA
-----END CERTIFICATE-----
