Certificate:
    Data:
        Version: 3 (0x2)
        Serial Number: 1 (0x1)
        Signature Algorithm: ED448
        Issuer: C = US, ST = Montana, L = Bozeman, O = wolfSSL_ed448, OU = CA-ed448, CN = www.wolfssl.com, emailAddress = info@wolfssl.com
        Validity
            Not Before: May  7 07:39:04 2020 GMT
            Not After : Feb  1 07:39:04 2023 GMT
        Subject: C = US, ST = Montana, L = Bozeman, O = wolfSSL_ed448, OU = Server-ed448, CN = www.wolfssl.com, emailAddress = info@wolfssl.com
        Subject Public Key Info:
            Public Key Algorithm: ED448
                ED448 Public-Key:
                pub:
                    54:81:39:01:eb:37:d9:a9:07:cd:01:bc:9d:70:16:
                    c2:2c:2b:75:5b:63:db:ee:3a:2d:44:92:46:b4:7b:
                    07:03:4f:a2:ae:86:86:dc:8b:4b:2c:7f:e8:6b:14:
                    8d:58:dd:6d:e7:6f:3a:05:95:a8:ef:00
        X509v3 extensions:
            X509v3 Subject Key Identifier: 
                7C:AB:5C:12:A9:68:D8:18:10:28:7D:92:C5:4A:B8:4C:4C:76:0E:DB
            X509v3 Authority Key Identifier: 
                keyid:38:59:45:E8:DD:44:2C:B5:7D:A5:25:D6:0B:CC:39:F0:72:C0:94:63

            X509v3 Basic Constraints: critical
                CA:FALSE
            X509v3 Key Usage: critical
                Digital Signature, Key Encipherment, Key Agreement
            X509v3 Extended Key Usage: 
                TLS Web Server Authentication
            Netscape Cert Type: 
                SSL Server
    Signature Algorithm: ED448
         43:c9:1f:31:8a:90:cb:9b:e9:00:14:ec:d9:c8:5d:20:61:4f:
         9d:44:2e:99:30:6e:29:5b:41:34:ee:78:43:cd:1d:7c:ff:a7:
         b4:75:32:94:a5:9a:22:fc:8f:7f:05:17:c8:a8:b3:70:38:61:
         45:ef:80:0c:83:a6:af:7c:8b:52:1c:5f:53:1b:e8:4a:5c:d8:
         af:26:3e:ef:5c:7c:1d:10:bb:7a:1c:4b:d0:24:82:39:9e:1b:
         5d:9f:cb:56:18:3d:c9:3c:03:1f:c4:cd:c4:48:69:6d:de:fb:
         f4:45:02:eb:08:00
-----BEGIN CERTIFICATE-----
MIICuDCCAjigAwIBAgIBATAFBgMrZXEwgZcxCzAJBgNVBAYTAlVTMRAwDgYDVQQI
DAdNb250YW5hMRAwDgYDVQQHDAdCb3plbWFuMRYwFAYDVQQKDA13b2xmU1NMX2Vk
NDQ4MREwDwYDVQQLDAhDQS1lZDQ0ODEYMBYGA1UEAwwPd3d3LndvbGZzc2wuY29t
MR8wHQYJKoZIhvcNAQkBFhBpbmZvQHdvbGZzc2wuY29tMB4XDTIwMDUwNzA3Mzkw
NFoXDTIzMDIwMTA3MzkwNFowgZsxCzAJBgNVBAYTAlVTMRAwDgYDVQQIDAdNb250
YW5hMRAwDgYDVQQHDAdCb3plbWFuMRYwFAYDVQQKDA13b2xmU1NMX2VkNDQ4MRUw
EwYDVQQLDAxTZXJ2ZXItZWQ0NDgxGDAWBgNVBAMMD3d3dy53b2xmc3NsLmNvbTEf
MB0GCSqGSIb3DQEJARYQaW5mb0B3b2xmc3NsLmNvbTBDMAUGAytlcQM6AFSBOQHr
N9mpB80BvJ1wFsIsK3VbY9vuOi1Ekka0ewcDT6Kuhobci0ssf+hrFI1Y3W3nbzoF
lajvAKOBiTCBhjAdBgNVHQ4EFgQUfKtcEqlo2BgQKH2SxUq4TEx2DtswHwYDVR0j
BBgwFoAUOFlF6N1ELLV9pSXWC8w58HLAlGMwDAYDVR0TAQH/BAIwADAOBgNVHQ8B
Af8EBAMCA6gwEwYDVR0lBAwwCgYIKwYBBQUHAwEwEQYJYIZIAYb4QgEBBAQDAgZA
MAUGAytlcQNzAEPJHzGKkMub6QAU7NnIXSBhT51ELpkwbilbQTTueEPNHXz/p7R1
MpSlmiL8j38FF8ios3A4YUXvgAyDpq98i1IcX1Mb6Epc2K8mPu9cfB0Qu3ocS9Ak
gjmeG12fy1YYPck8Ax/EzcRIaW3e+/RFAusIAA==
-----END CERTIFICATE-----
Certificate:
    Data:
        Version: 3 (0x2)
        Serial Number: 1 (0x1)
        Signature Algorithm: ED448
        Issuer: C = US, ST = Montana, L = Bozeman, O = wolfSSL_Ed448, OU = Root-Ed448, CN = www.wolfssl.com, emailAddress = info@wolfssl.com
        Validity
            Not Before: May  7 07:39:04 2020 GMT
            Not After : Feb  1 07:39:04 2023 GMT
        Subject: C = US, ST = Montana, L = Bozeman, O = wolfSSL_ed448, OU = CA-ed448, CN = www.wolfssl.com, emailAddress = info@wolfssl.com
        Subject Public Key Info:
            Public Key Algorithm: ED448
                ED448 Public-Key:
                pub:
                    0e:e2:b4:76:e5:d2:cc:c2:4b:7b:b0:29:be:92:fb:
                    c3:af:69:a5:94:ba:70:24:e8:a3:ef:c8:63:9a:dd:
                    a6:af:58:43:38:04:24:f0:10:91:be:a7:01:91:54:
                    f3:cf:69:85:4c:b9:97:8c:a4:37:aa:00
        X509v3 extensions:
            X509v3 Subject Key Identifier: 
                38:59:45:E8:DD:44:2C:B5:7D:A5:25:D6:0B:CC:39:F0:72:C0:94:63
            X509v3 Authority Key Identifier: 
                keyid:DA:69:98:C9:26:4A:75:FB:59:5E:53:9A:63:4B:0C:B8:88:0B:0F:1E

            X509v3 Basic Constraints: critical
                CA:TRUE
            X509v3 Key Usage: critical
                Digital Signature, Certificate Sign, CRL Sign
    Signature Algorithm: ED448
         b9:75:55:89:7d:cb:d7:35:7a:21:3c:be:43:be:2b:c1:5c:95:
         98:2b:74:f3:0c:27:da:1d:dc:f9:5e:2f:cd:5d:53:18:24:c5:
         b3:f7:54:44:8d:fc:d0:d2:32:58:15:29:62:3f:d2:88:43:96:
         a9:26:80:1a:ec:a8:17:c3:c2:79:30:06:6c:cb:27:9b:a3:b9:
         71:70:1e:73:34:ec:2b:50:9b:34:39:da:cc:e7:bf:6c:64:47:
         84:c3:e9:73:95:ac:a6:ab:ee:f4:6b:d4:b8:2b:38:7c:62:0e:
         b4:24:74:50:03:00
-----BEGIN CERTIFICATE-----
MIICjzCCAg+gAwIBAgIBATAFBgMrZXEwgZkxCzAJBgNVBAYTAlVTMRAwDgYDVQQI
DAdNb250YW5hMRAwDgYDVQQHDAdCb3plbWFuMRYwFAYDVQQKDA13b2xmU1NMX0Vk
NDQ4MRMwEQYDVQQLDApSb290LUVkNDQ4MRgwFgYDVQQDDA93d3cud29sZnNzbC5j
b20xHzAdBgkqhkiG9w0BCQEWEGluZm9Ad29sZnNzbC5jb20wHhcNMjAwNTA3MDcz
OTA0WhcNMjMwMjAxMDczOTA0WjCBlzELMAkGA1UEBhMCVVMxEDAOBgNVBAgMB01v
bnRhbmExEDAOBgNVBAcMB0JvemVtYW4xFjAUBgNVBAoMDXdvbGZTU0xfZWQ0NDgx
ETAPBgNVBAsMCENBLWVkNDQ4MRgwFgYDVQQDDA93d3cud29sZnNzbC5jb20xHzAd
BgkqhkiG9w0BCQEWEGluZm9Ad29sZnNzbC5jb20wQzAFBgMrZXEDOgAO4rR25dLM
wkt7sCm+kvvDr2mllLpwJOij78hjmt2mr1hDOAQk8BCRvqcBkVTzz2mFTLmXjKQ3
qgCjYzBhMB0GA1UdDgQWBBQ4WUXo3UQstX2lJdYLzDnwcsCUYzAfBgNVHSMEGDAW
gBTaaZjJJkp1+1leU5pjSwy4iAsPHjAPBgNVHRMBAf8EBTADAQH/MA4GA1UdDwEB
/wQEAwIBhjAFBgMrZXEDcwC5dVWJfcvXNXohPL5DvivBXJWYK3TzDCfaHdz5Xi/N
XVMYJMWz91REjfzQ0jJYFSliP9KIQ5apJoAa7KgXw8J5MAZsyyebo7lxcB5zNOwr
UJs0OdrM579sZEeEw+lzlaymq+70a9S4Kzh8Yg60JHRQAwA=
-----END CERTIFICATE-----
