Certificate:
    Data:
        Version: 3 (0x2)
        Serial Number: 1 (0x1)
        Signature Algorithm: ED448
        Issuer: C = US, ST = Montana, L = Bozeman, O = wolfSSL_ed448, OU = CA-ed448, CN = www.wolfssl.com, emailAddress = info@wolfssl.com, UID = wolfSSL
        Validity
            Not Before: Feb 15 12:50:25 2022 GMT
            Not After : Nov 11 12:50:25 2024 GMT
        Subject: C = US, ST = Montana, L = Bozeman, O = wolfSSL_ed448, OU = Server-ed448, CN = www.wolfssl.com, emailAddress = info@wolfssl.com, UID = wolfSSL
        Subject Public Key Info:
            Public Key Algorithm: ED448
                ED448 Public-Key:
                pub:
                    54:81:39:01:eb:37:d9:a9:07:cd:01:bc:9d:70:16:
                    c2:2c:2b:75:5b:63:db:ee:3a:2d:44:92:46:b4:7b:
                    07:03:4f:a2:ae:86:86:dc:8b:4b:2c:7f:e8:6b:14:
                    8d:58:dd:6d:e7:6f:3a:05:95:a8:ef:00
        X509v3 extensions:
            X509v3 Subject Key Identifier: 
                7C:AB:5C:12:A9:68:D8:18:10:28:7D:92:C5:4A:B8:4C:4C:76:0E:DB
            X509v3 Authority Key Identifier: 
                keyid:38:59:45:E8:DD:44:2C:B5:7D:A5:25:D6:0B:CC:39:F0:72:C0:94:63

            X509v3 Basic Constraints: critical
                CA:FALSE
            X509v3 Key Usage: critical
                Digital Signature, Key Encipherment, Key Agreement
            X509v3 Extended Key Usage: 
                TLS Web Server Authentication
            Netscape Cert Type: 
                SSL Server
    Signature Algorithm: ED448
         66:08:b7:a9:8a:eb:e7:fd:9f:d1:bb:6c:96:26:6b:c4:e2:16:
         ae:a5:c8:63:40:ca:d4:c7:44:f5:9f:ff:67:31:cd:e3:40:c9:
         27:66:85:1a:01:19:d7:e1:53:64:b9:57:68:b5:94:ce:07:96:
         75:97:80:09:ec:6c:ea:6f:c6:a8:f8:62:59:f4:5c:48:af:fc:
         33:81:15:21:ec:d4:e1:cc:9c:18:68:a4:3b:24:de:16:bb:86:
         5a:6d:7a:cc:e8:13:01:c1:9e:f3:cf:bf:5c:ea:e3:13:44:32:
         72:5e:3a:8e:27:00
-----BEGIN CERTIFICATE-----
MIIC6jCCAmqgAwIBAgIBATAFBgMrZXEwgbAxCzAJBgNVBAYTAlVTMRAwDgYDVQQI
DAdNb250YW5hMRAwDgYDVQQHDAdCb3plbWFuMRYwFAYDVQQKDA13b2xmU1NMX2Vk
NDQ4MREwDwYDVQQLDAhDQS1lZDQ0ODEYMBYGA1UEAwwPd3d3LndvbGZzc2wuY29t
MR8wHQYJKoZIhvcNAQkBFhBpbmZvQHdvbGZzc2wuY29tMRcwFQYKCZImiZPyLGQB
AQwHd29sZlNTTDAeFw0yMjAyMTUxMjUwMjVaFw0yNDExMTExMjUwMjVaMIG0MQsw
CQYDVQQGEwJVUzEQMA4GA1UECAwHTW9udGFuYTEQMA4GA1UEBwwHQm96ZW1hbjEW
MBQGA1UECgwNd29sZlNTTF9lZDQ0ODEVMBMGA1UECwwMU2VydmVyLWVkNDQ4MRgw
FgYDVQQDDA93d3cud29sZnNzbC5jb20xHzAdBgkqhkiG9w0BCQEWEGluZm9Ad29s
ZnNzbC5jb20xFzAVBgoJkiaJk/IsZAEBDAd3b2xmU1NMMEMwBQYDK2VxAzoAVIE5
Aes32akHzQG8nXAWwiwrdVtj2+46LUSSRrR7BwNPoq6GhtyLSyx/6GsUjVjdbedv
OgWVqO8Ao4GJMIGGMB0GA1UdDgQWBBR8q1wSqWjYGBAofZLFSrhMTHYO2zAfBgNV
HSMEGDAWgBQ4WUXo3UQstX2lJdYLzDnwcsCUYzAMBgNVHRMBAf8EAjAAMA4GA1Ud
DwEB/wQEAwIDqDATBgNVHSUEDDAKBggrBgEFBQcDATARBglghkgBhvhCAQEEBAMC
BkAwBQYDK2VxA3MAZgi3qYrr5/2f0btsliZrxOIWrqXIY0DK1MdE9Z//ZzHN40DJ
J2aFGgEZ1+FTZLlXaLWUzgeWdZeACexs6m/GqPhiWfRcSK/8M4EVIezU4cycGGik
OyTeFruGWm16zOgTAcGe88+/XOrjE0Qycl46jicA
-----END CERTIFICATE-----
