Certificate:
    Data:
        Version: 3 (0x2)
        Serial Number: 1 (0x1)
        Signature Algorithm: ED448
        Issuer: C=US, ST=Montana, L=Bozeman, O=wolfSSL_ed448, OU=CA-ed448, CN=www.wolfssl.com, emailAddress=facts@wolfssl.com, UID=wolfSSL
        Validity
            Not Before: Jun 11 21:44:31 2026 GMT
            Not After : Mar  7 21:44:31 2029 GMT
        Subject: C=US, ST=Montana, L=Bozeman, O=wolfSSL_ed448, OU=Server-ed448, CN=www.wolfssl.com, emailAddress=facts@wolfssl.com, UID=wolfSSL
        Subject Public Key Info:
            Public Key Algorithm: ED448
                ED448 Public-Key:
                pub:
                    54:81:39:01:eb:37:d9:a9:07:cd:01:bc:9d:70:16:
                    c2:2c:2b:75:5b:63:db:ee:3a:2d:44:92:46:b4:7b:
                    07:03:4f:a2:ae:86:86:dc:8b:4b:2c:7f:e8:6b:14:
                    8d:58:dd:6d:e7:6f:3a:05:95:a8:ef:00
        X509v3 extensions:
            X509v3 Subject Key Identifier: 
                7C:AB:5C:12:A9:68:D8:18:10:28:7D:92:C5:4A:B8:4C:4C:76:0E:DB
            X509v3 Authority Key Identifier: 
                38:59:45:E8:DD:44:2C:B5:7D:A5:25:D6:0B:CC:39:F0:72:C0:94:63
            X509v3 Basic Constraints: critical
                CA:FALSE
            X509v3 Key Usage: critical
                Digital Signature, Key Encipherment, Key Agreement
            X509v3 Extended Key Usage: 
                TLS Web Server Authentication
            Netscape Cert Type: 
                SSL Server
    Signature Algorithm: ED448
    Signature Value:
        50:b0:95:e9:11:9a:e2:e7:c2:46:11:81:df:d5:22:df:03:70:
        37:7a:1c:1b:51:83:af:f6:67:96:97:68:1a:03:a7:24:f0:ee:
        95:d5:ec:98:98:35:66:45:d2:66:00:ce:88:a6:27:f6:9c:46:
        02:7f:00:15:f5:77:91:73:93:16:ba:e7:79:99:72:01:52:dc:
        38:a9:73:a0:31:e6:e5:07:4e:1d:25:3d:d4:8f:ff:3e:a7:29:
        d0:59:b2:60:c3:d3:20:98:da:0e:3e:4b:e4:b7:da:56:3c:ce:
        94:e6:1b:38:01:00
-----BEGIN CERTIFICATE-----
MIIC7DCCAmygAwIBAgIBATAFBgMrZXEwgbExCzAJBgNVBAYTAlVTMRAwDgYDVQQI
DAdNb250YW5hMRAwDgYDVQQHDAdCb3plbWFuMRYwFAYDVQQKDA13b2xmU1NMX2Vk
NDQ4MREwDwYDVQQLDAhDQS1lZDQ0ODEYMBYGA1UEAwwPd3d3LndvbGZzc2wuY29t
MSAwHgYJKoZIhvcNAQkBFhFmYWN0c0B3b2xmc3NsLmNvbTEXMBUGCgmSJomT8ixk
AQEMB3dvbGZTU0wwHhcNMjYwNjExMjE0NDMxWhcNMjkwMzA3MjE0NDMxWjCBtTEL
MAkGA1UEBhMCVVMxEDAOBgNVBAgMB01vbnRhbmExEDAOBgNVBAcMB0JvemVtYW4x
FjAUBgNVBAoMDXdvbGZTU0xfZWQ0NDgxFTATBgNVBAsMDFNlcnZlci1lZDQ0ODEY
MBYGA1UEAwwPd3d3LndvbGZzc2wuY29tMSAwHgYJKoZIhvcNAQkBFhFmYWN0c0B3
b2xmc3NsLmNvbTEXMBUGCgmSJomT8ixkAQEMB3dvbGZTU0wwQzAFBgMrZXEDOgBU
gTkB6zfZqQfNAbydcBbCLCt1W2Pb7jotRJJGtHsHA0+iroaG3ItLLH/oaxSNWN1t
5286BZWo7wCjgYkwgYYwHQYDVR0OBBYEFHyrXBKpaNgYECh9ksVKuExMdg7bMB8G
A1UdIwQYMBaAFDhZRejdRCy1faUl1gvMOfBywJRjMAwGA1UdEwEB/wQCMAAwDgYD
VR0PAQH/BAQDAgOoMBMGA1UdJQQMMAoGCCsGAQUFBwMBMBEGCWCGSAGG+EIBAQQE
AwIGQDAFBgMrZXEDcwBQsJXpEZri58JGEYHf1SLfA3A3ehwbUYOv9meWl2gaA6ck
8O6V1eyYmDVmRdJmAM6Ipif2nEYCfwAV9XeRc5MWuud5mXIBUtw4qXOgMeblB04d
JT3Uj/8+pynQWbJgw9MgmNoOPkvkt9pWPM6U5hs4AQA=
-----END CERTIFICATE-----
