Certificate:
    Data:
        Version: 3 (0x2)
        Serial Number: 1 (0x1)
        Signature Algorithm: ED448
        Issuer: C = US, ST = Montana, L = Bozeman, O = wolfSSL_ed448, OU = CA-ed448, CN = www.wolfssl.com, emailAddress = info@wolfssl.com
        Validity
            Not Before: May  7 07:39:04 2020 GMT
            Not After : Feb  1 07:39:04 2023 GMT
        Subject: C = US, ST = Montana, L = Bozeman, O = wolfSSL_ed448, OU = Server-ed448, CN = www.wolfssl.com, emailAddress = info@wolfssl.com
        Subject Public Key Info:
            Public Key Algorithm: ED448
                ED448 Public-Key:
                pub:
                    54:81:39:01:eb:37:d9:a9:07:cd:01:bc:9d:70:16:
                    c2:2c:2b:75:5b:63:db:ee:3a:2d:44:92:46:b4:7b:
                    07:03:4f:a2:ae:86:86:dc:8b:4b:2c:7f:e8:6b:14:
                    8d:58:dd:6d:e7:6f:3a:05:95:a8:ef:00
        X509v3 extensions:
            X509v3 Subject Key Identifier: 
                7C:AB:5C:12:A9:68:D8:18:10:28:7D:92:C5:4A:B8:4C:4C:76:0E:DB
            X509v3 Authority Key Identifier: 
                keyid:38:59:45:E8:DD:44:2C:B5:7D:A5:25:D6:0B:CC:39:F0:72:C0:94:63

            X509v3 Basic Constraints: critical
                CA:FALSE
            X509v3 Key Usage: critical
                Digital Signature, Key Encipherment, Key Agreement
            X509v3 Extended Key Usage: 
                TLS Web Server Authentication
            Netscape Cert Type: 
                SSL Server
    Signature Algorithm: ED448
         43:c9:1f:31:8a:90:cb:9b:e9:00:14:ec:d9:c8:5d:20:61:4f:
         9d:44:2e:99:30:6e:29:5b:41:34:ee:78:43:cd:1d:7c:ff:a7:
         b4:75:32:94:a5:9a:22:fc:8f:7f:05:17:c8:a8:b3:70:38:61:
         45:ef:80:0c:83:a6:af:7c:8b:52:1c:5f:53:1b:e8:4a:5c:d8:
         af:26:3e:ef:5c:7c:1d:10:bb:7a:1c:4b:d0:24:82:39:9e:1b:
         5d:9f:cb:56:18:3d:c9:3c:03:1f:c4:cd:c4:48:69:6d:de:fb:
         f4:45:02:eb:08:00
-----BEGIN CERTIFICATE-----
MIICuDCCAjigAwIBAgIBATAFBgMrZXEwgZcxCzAJBgNVBAYTAlVTMRAwDgYDVQQI
DAdNb250YW5hMRAwDgYDVQQHDAdCb3plbWFuMRYwFAYDVQQKDA13b2xmU1NMX2Vk
NDQ4MREwDwYDVQQLDAhDQS1lZDQ0ODEYMBYGA1UEAwwPd3d3LndvbGZzc2wuY29t
MR8wHQYJKoZIhvcNAQkBFhBpbmZvQHdvbGZzc2wuY29tMB4XDTIwMDUwNzA3Mzkw
NFoXDTIzMDIwMTA3MzkwNFowgZsxCzAJBgNVBAYTAlVTMRAwDgYDVQQIDAdNb250
YW5hMRAwDgYDVQQHDAdCb3plbWFuMRYwFAYDVQQKDA13b2xmU1NMX2VkNDQ4MRUw
EwYDVQQLDAxTZXJ2ZXItZWQ0NDgxGDAWBgNVBAMMD3d3dy53b2xmc3NsLmNvbTEf
MB0GCSqGSIb3DQEJARYQaW5mb0B3b2xmc3NsLmNvbTBDMAUGAytlcQM6AFSBOQHr
N9mpB80BvJ1wFsIsK3VbY9vuOi1Ekka0ewcDT6Kuhobci0ssf+hrFI1Y3W3nbzoF
lajvAKOBiTCBhjAdBgNVHQ4EFgQUfKtcEqlo2BgQKH2SxUq4TEx2DtswHwYDVR0j
BBgwFoAUOFlF6N1ELLV9pSXWC8w58HLAlGMwDAYDVR0TAQH/BAIwADAOBgNVHQ8B
Af8EBAMCA6gwEwYDVR0lBAwwCgYIKwYBBQUHAwEwEQYJYIZIAYb4QgEBBAQDAgZA
MAUGAytlcQNzAEPJHzGKkMub6QAU7NnIXSBhT51ELpkwbilbQTTueEPNHXz/p7R1
MpSlmiL8j38FF8ios3A4YUXvgAyDpq98i1IcX1Mb6Epc2K8mPu9cfB0Qu3ocS9Ak
gjmeG12fy1YYPck8Ax/EzcRIaW3e+/RFAusIAA==
-----END CERTIFICATE-----
