Certificate:
    Data:
        Version: 3 (0x2)
        Serial Number: 1 (0x1)
        Signature Algorithm: ED448
        Issuer: C = US, ST = Montana, L = Bozeman, O = wolfSSL_ed448, OU = CA-ed448, CN = www.wolfssl.com, emailAddress = info@wolfssl.com
        Validity
            Not Before: Jun 19 13:23:41 2020 GMT
            Not After : Mar 16 13:23:41 2023 GMT
        Subject: C = US, ST = Montana, L = Bozeman, O = wolfSSL_ed448, OU = Server-ed448, CN = www.wolfssl.com, emailAddress = info@wolfssl.com
        Subject Public Key Info:
            Public Key Algorithm: ED448
                ED448 Public-Key:
                pub:
                    54:81:39:01:eb:37:d9:a9:07:cd:01:bc:9d:70:16:
                    c2:2c:2b:75:5b:63:db:ee:3a:2d:44:92:46:b4:7b:
                    07:03:4f:a2:ae:86:86:dc:8b:4b:2c:7f:e8:6b:14:
                    8d:58:dd:6d:e7:6f:3a:05:95:a8:ef:00
        X509v3 extensions:
            X509v3 Subject Key Identifier: 
                7C:AB:5C:12:A9:68:D8:18:10:28:7D:92:C5:4A:B8:4C:4C:76:0E:DB
            X509v3 Authority Key Identifier: 
                keyid:38:59:45:E8:DD:44:2C:B5:7D:A5:25:D6:0B:CC:39:F0:72:C0:94:63

            X509v3 Basic Constraints: critical
                CA:FALSE
            X509v3 Key Usage: critical
                Digital Signature, Key Encipherment, Key Agreement
            X509v3 Extended Key Usage: 
                TLS Web Server Authentication
            Netscape Cert Type: 
                SSL Server
    Signature Algorithm: ED448
         a1:10:74:ad:92:3d:73:cf:89:f1:e8:07:7f:79:18:f0:89:19:
         b9:92:13:e4:8b:cc:f3:08:1a:d1:d3:52:d7:24:8d:7d:41:15:
         a4:5b:f1:4a:22:6b:00:2d:2f:25:c1:33:23:85:7d:87:69:6f:
         53:b3:00:3c:7f:a3:0b:9c:7d:ce:e5:77:91:70:a4:45:0a:c2:
         de:06:23:c3:37:1e:0b:14:cc:d5:89:6e:cd:83:d6:b9:a9:69:
         32:a2:c1:db:d6:39:d1:e2:70:93:c6:68:1b:55:aa:bf:87:b0:
         61:ef:0a:8e:13:00
-----BEGIN CERTIFICATE-----
MIICuDCCAjigAwIBAgIBATAFBgMrZXEwgZcxCzAJBgNVBAYTAlVTMRAwDgYDVQQI
DAdNb250YW5hMRAwDgYDVQQHDAdCb3plbWFuMRYwFAYDVQQKDA13b2xmU1NMX2Vk
NDQ4MREwDwYDVQQLDAhDQS1lZDQ0ODEYMBYGA1UEAwwPd3d3LndvbGZzc2wuY29t
MR8wHQYJKoZIhvcNAQkBFhBpbmZvQHdvbGZzc2wuY29tMB4XDTIwMDYxOTEzMjM0
MVoXDTIzMDMxNjEzMjM0MVowgZsxCzAJBgNVBAYTAlVTMRAwDgYDVQQIDAdNb250
YW5hMRAwDgYDVQQHDAdCb3plbWFuMRYwFAYDVQQKDA13b2xmU1NMX2VkNDQ4MRUw
EwYDVQQLDAxTZXJ2ZXItZWQ0NDgxGDAWBgNVBAMMD3d3dy53b2xmc3NsLmNvbTEf
MB0GCSqGSIb3DQEJARYQaW5mb0B3b2xmc3NsLmNvbTBDMAUGAytlcQM6AFSBOQHr
N9mpB80BvJ1wFsIsK3VbY9vuOi1Ekka0ewcDT6Kuhobci0ssf+hrFI1Y3W3nbzoF
lajvAKOBiTCBhjAdBgNVHQ4EFgQUfKtcEqlo2BgQKH2SxUq4TEx2DtswHwYDVR0j
BBgwFoAUOFlF6N1ELLV9pSXWC8w58HLAlGMwDAYDVR0TAQH/BAIwADAOBgNVHQ8B
Af8EBAMCA6gwEwYDVR0lBAwwCgYIKwYBBQUHAwEwEQYJYIZIAYb4QgEBBAQDAgZA
MAUGAytlcQNzAKEQdK2SPXPPifHoB395GPCJGbmSE+SLzPMIGtHTUtckjX1BFaRb
8UoiawAtLyXBMyOFfYdpb1OzADx/owucfc7ld5FwpEUKwt4GI8M3HgsUzNWJbs2D
1rmpaTKiwdvWOdHicJPGaBtVqr+HsGHvCo4TAA==
-----END CERTIFICATE-----
Certificate:
    Data:
        Version: 3 (0x2)
        Serial Number: 1 (0x1)
        Signature Algorithm: ED448
        Issuer: C = US, ST = Montana, L = Bozeman, O = wolfSSL_Ed448, OU = Root-Ed448, CN = www.wolfssl.com, emailAddress = info@wolfssl.com
        Validity
            Not Before: Jun 19 13:23:41 2020 GMT
            Not After : Mar 16 13:23:41 2023 GMT
        Subject: C = US, ST = Montana, L = Bozeman, O = wolfSSL_ed448, OU = CA-ed448, CN = www.wolfssl.com, emailAddress = info@wolfssl.com
        Subject Public Key Info:
            Public Key Algorithm: ED448
                ED448 Public-Key:
                pub:
                    0e:e2:b4:76:e5:d2:cc:c2:4b:7b:b0:29:be:92:fb:
                    c3:af:69:a5:94:ba:70:24:e8:a3:ef:c8:63:9a:dd:
                    a6:af:58:43:38:04:24:f0:10:91:be:a7:01:91:54:
                    f3:cf:69:85:4c:b9:97:8c:a4:37:aa:00
        X509v3 extensions:
            X509v3 Subject Key Identifier: 
                38:59:45:E8:DD:44:2C:B5:7D:A5:25:D6:0B:CC:39:F0:72:C0:94:63
            X509v3 Authority Key Identifier: 
                keyid:DA:69:98:C9:26:4A:75:FB:59:5E:53:9A:63:4B:0C:B8:88:0B:0F:1E

            X509v3 Basic Constraints: critical
                CA:TRUE
            X509v3 Key Usage: critical
                Digital Signature, Certificate Sign, CRL Sign
    Signature Algorithm: ED448
         12:5e:bc:a0:86:7e:26:a1:a8:5f:05:4a:ec:5e:3c:3b:9e:14:
         9c:75:63:ce:33:3a:ac:2d:2e:18:72:46:0a:1d:87:e8:51:0c:
         2e:1b:fb:8b:f0:36:f5:23:bc:77:f9:09:7d:39:fd:d8:08:0c:
         34:4e:00:4f:2b:f9:9d:48:3e:0f:74:7a:52:b0:44:86:86:21:
         a1:53:10:48:21:51:37:76:d3:f3:f0:42:f1:c6:8e:6a:9e:a2:
         42:90:db:b2:a2:4f:c1:06:09:e9:ff:f3:a2:14:a9:12:43:40:
         00:9e:78:1c:13:00
-----BEGIN CERTIFICATE-----
MIICjzCCAg+gAwIBAgIBATAFBgMrZXEwgZkxCzAJBgNVBAYTAlVTMRAwDgYDVQQI
DAdNb250YW5hMRAwDgYDVQQHDAdCb3plbWFuMRYwFAYDVQQKDA13b2xmU1NMX0Vk
NDQ4MRMwEQYDVQQLDApSb290LUVkNDQ4MRgwFgYDVQQDDA93d3cud29sZnNzbC5j
b20xHzAdBgkqhkiG9w0BCQEWEGluZm9Ad29sZnNzbC5jb20wHhcNMjAwNjE5MTMy
MzQxWhcNMjMwMzE2MTMyMzQxWjCBlzELMAkGA1UEBhMCVVMxEDAOBgNVBAgMB01v
bnRhbmExEDAOBgNVBAcMB0JvemVtYW4xFjAUBgNVBAoMDXdvbGZTU0xfZWQ0NDgx
ETAPBgNVBAsMCENBLWVkNDQ4MRgwFgYDVQQDDA93d3cud29sZnNzbC5jb20xHzAd
BgkqhkiG9w0BCQEWEGluZm9Ad29sZnNzbC5jb20wQzAFBgMrZXEDOgAO4rR25dLM
wkt7sCm+kvvDr2mllLpwJOij78hjmt2mr1hDOAQk8BCRvqcBkVTzz2mFTLmXjKQ3
qgCjYzBhMB0GA1UdDgQWBBQ4WUXo3UQstX2lJdYLzDnwcsCUYzAfBgNVHSMEGDAW
gBTaaZjJJkp1+1leU5pjSwy4iAsPHjAPBgNVHRMBAf8EBTADAQH/MA4GA1UdDwEB
/wQEAwIBhjAFBgMrZXEDcwASXryghn4moahfBUrsXjw7nhScdWPOMzqsLS4YckYK
HYfoUQwuG/uL8Db1I7x3+Ql9Of3YCAw0TgBPK/mdSD4PdHpSsESGhiGhUxBIIVE3
dtPz8ELxxo5qnqJCkNuyok/BBgnp//OiFKkSQ0AAnngcEwA=
-----END CERTIFICATE-----
