Certificate:
    Data:
        Version: 3 (0x2)
        Serial Number: 1 (0x1)
        Signature Algorithm: ED448
        Issuer: C = US, ST = Montana, L = Bozeman, O = wolfSSL_ed448, OU = CA-ed448, CN = www.wolfssl.com, emailAddress = info@wolfssl.com, UID = wolfSSL
        Validity
            Not Before: Dec 13 22:19:29 2023 GMT
            Not After : Sep  8 22:19:29 2026 GMT
        Subject: C = US, ST = Montana, L = Bozeman, O = wolfSSL_ed448, OU = Server-ed448, CN = www.wolfssl.com, emailAddress = info@wolfssl.com, UID = wolfSSL
        Subject Public Key Info:
            Public Key Algorithm: ED448
                ED448 Public-Key:
                pub:
                    54:81:39:01:eb:37:d9:a9:07:cd:01:bc:9d:70:16:
                    c2:2c:2b:75:5b:63:db:ee:3a:2d:44:92:46:b4:7b:
                    07:03:4f:a2:ae:86:86:dc:8b:4b:2c:7f:e8:6b:14:
                    8d:58:dd:6d:e7:6f:3a:05:95:a8:ef:00
        X509v3 extensions:
            X509v3 Subject Key Identifier: 
                7C:AB:5C:12:A9:68:D8:18:10:28:7D:92:C5:4A:B8:4C:4C:76:0E:DB
            X509v3 Authority Key Identifier: 
                keyid:38:59:45:E8:DD:44:2C:B5:7D:A5:25:D6:0B:CC:39:F0:72:C0:94:63

            X509v3 Basic Constraints: critical
                CA:FALSE
            X509v3 Key Usage: critical
                Digital Signature, Key Encipherment, Key Agreement
            X509v3 Extended Key Usage: 
                TLS Web Server Authentication
            Netscape Cert Type: 
                SSL Server
    Signature Algorithm: ED448
         f9:2a:92:55:05:3d:74:24:8f:57:f4:91:e5:66:85:7c:53:11:
         88:22:82:ea:a3:50:0f:c2:a6:8e:39:85:85:14:a3:d4:ac:4f:
         66:fc:7e:b4:b3:f4:d7:5d:7c:9b:7f:c4:8e:3b:bc:d9:3a:cc:
         91:91:00:5d:da:26:04:2c:ba:f9:c4:45:3a:d3:4f:80:1e:46:
         9b:86:b8:56:ee:b2:e8:ba:26:47:28:2a:3d:cc:6a:51:33:c3:
         8e:8b:c4:01:8c:cc:25:fd:b4:cb:c2:a3:46:ad:b7:9d:14:e6:
         a6:02:39:07:34:00
-----BEGIN CERTIFICATE-----
MIIC6jCCAmqgAwIBAgIBATAFBgMrZXEwgbAxCzAJBgNVBAYTAlVTMRAwDgYDVQQI
DAdNb250YW5hMRAwDgYDVQQHDAdCb3plbWFuMRYwFAYDVQQKDA13b2xmU1NMX2Vk
NDQ4MREwDwYDVQQLDAhDQS1lZDQ0ODEYMBYGA1UEAwwPd3d3LndvbGZzc2wuY29t
MR8wHQYJKoZIhvcNAQkBFhBpbmZvQHdvbGZzc2wuY29tMRcwFQYKCZImiZPyLGQB
AQwHd29sZlNTTDAeFw0yMzEyMTMyMjE5MjlaFw0yNjA5MDgyMjE5MjlaMIG0MQsw
CQYDVQQGEwJVUzEQMA4GA1UECAwHTW9udGFuYTEQMA4GA1UEBwwHQm96ZW1hbjEW
MBQGA1UECgwNd29sZlNTTF9lZDQ0ODEVMBMGA1UECwwMU2VydmVyLWVkNDQ4MRgw
FgYDVQQDDA93d3cud29sZnNzbC5jb20xHzAdBgkqhkiG9w0BCQEWEGluZm9Ad29s
ZnNzbC5jb20xFzAVBgoJkiaJk/IsZAEBDAd3b2xmU1NMMEMwBQYDK2VxAzoAVIE5
Aes32akHzQG8nXAWwiwrdVtj2+46LUSSRrR7BwNPoq6GhtyLSyx/6GsUjVjdbedv
OgWVqO8Ao4GJMIGGMB0GA1UdDgQWBBR8q1wSqWjYGBAofZLFSrhMTHYO2zAfBgNV
HSMEGDAWgBQ4WUXo3UQstX2lJdYLzDnwcsCUYzAMBgNVHRMBAf8EAjAAMA4GA1Ud
DwEB/wQEAwIDqDATBgNVHSUEDDAKBggrBgEFBQcDATARBglghkgBhvhCAQEEBAMC
BkAwBQYDK2VxA3MA+SqSVQU9dCSPV/SR5WaFfFMRiCKC6qNQD8KmjjmFhRSj1KxP
Zvx+tLP01118m3/Ejju82TrMkZEAXdomBCy6+cRFOtNPgB5Gm4a4Vu6y6LomRygq
PcxqUTPDjovEAYzMJf20y8KjRq23nRTmpgI5BzQA
-----END CERTIFICATE-----
