Certificate:
    Data:
        Version: 3 (0x2)
        Serial Number: 1 (0x1)
        Signature Algorithm: ED448
        Issuer: C=US, ST=Montana, L=Bozeman, O=wolfSSL_ed448, OU=CA-ed448, CN=www.wolfssl.com, emailAddress=info@wolfssl.com, UID=wolfSSL
        Validity
            Not Before: Nov 13 20:41:23 2025 GMT
            Not After : Aug  9 20:41:23 2028 GMT
        Subject: C=US, ST=Montana, L=Bozeman, O=wolfSSL_ed448, OU=Server-ed448, CN=www.wolfssl.com, emailAddress=info@wolfssl.com, UID=wolfSSL
        Subject Public Key Info:
            Public Key Algorithm: ED448
                ED448 Public-Key:
                pub:
                    54:81:39:01:eb:37:d9:a9:07:cd:01:bc:9d:70:16:
                    c2:2c:2b:75:5b:63:db:ee:3a:2d:44:92:46:b4:7b:
                    07:03:4f:a2:ae:86:86:dc:8b:4b:2c:7f:e8:6b:14:
                    8d:58:dd:6d:e7:6f:3a:05:95:a8:ef:00
        X509v3 extensions:
            X509v3 Subject Key Identifier: 
                7C:AB:5C:12:A9:68:D8:18:10:28:7D:92:C5:4A:B8:4C:4C:76:0E:DB
            X509v3 Authority Key Identifier: 
                38:59:45:E8:DD:44:2C:B5:7D:A5:25:D6:0B:CC:39:F0:72:C0:94:63
            X509v3 Basic Constraints: critical
                CA:FALSE
            X509v3 Key Usage: critical
                Digital Signature, Key Encipherment, Key Agreement
            X509v3 Extended Key Usage: 
                TLS Web Server Authentication
            Netscape Cert Type: 
                SSL Server
    Signature Algorithm: ED448
    Signature Value:
        4e:28:34:60:2a:76:3a:61:88:04:99:7f:a1:c3:d5:c7:a2:1c:
        3e:57:2f:5a:83:24:cb:0c:32:11:c9:02:d2:a7:14:bb:cc:00:
        68:6e:80:a3:e0:1e:93:41:af:76:86:8b:ae:e9:9c:f4:d2:9c:
        3c:6e:80:ee:45:64:83:b6:20:f4:35:83:87:81:07:c7:b8:84:
        ea:d8:5e:0a:bb:63:84:a3:2b:d0:5e:7c:cd:a8:34:0e:c2:17:
        32:7f:fb:24:60:df:ef:44:fc:62:fb:ca:5d:4b:72:92:7f:41:
        71:b3:ac:ce:2b:00
-----BEGIN CERTIFICATE-----
MIIC6jCCAmqgAwIBAgIBATAFBgMrZXEwgbAxCzAJBgNVBAYTAlVTMRAwDgYDVQQI
DAdNb250YW5hMRAwDgYDVQQHDAdCb3plbWFuMRYwFAYDVQQKDA13b2xmU1NMX2Vk
NDQ4MREwDwYDVQQLDAhDQS1lZDQ0ODEYMBYGA1UEAwwPd3d3LndvbGZzc2wuY29t
MR8wHQYJKoZIhvcNAQkBFhBpbmZvQHdvbGZzc2wuY29tMRcwFQYKCZImiZPyLGQB
AQwHd29sZlNTTDAeFw0yNTExMTMyMDQxMjNaFw0yODA4MDkyMDQxMjNaMIG0MQsw
CQYDVQQGEwJVUzEQMA4GA1UECAwHTW9udGFuYTEQMA4GA1UEBwwHQm96ZW1hbjEW
MBQGA1UECgwNd29sZlNTTF9lZDQ0ODEVMBMGA1UECwwMU2VydmVyLWVkNDQ4MRgw
FgYDVQQDDA93d3cud29sZnNzbC5jb20xHzAdBgkqhkiG9w0BCQEWEGluZm9Ad29s
ZnNzbC5jb20xFzAVBgoJkiaJk/IsZAEBDAd3b2xmU1NMMEMwBQYDK2VxAzoAVIE5
Aes32akHzQG8nXAWwiwrdVtj2+46LUSSRrR7BwNPoq6GhtyLSyx/6GsUjVjdbedv
OgWVqO8Ao4GJMIGGMB0GA1UdDgQWBBR8q1wSqWjYGBAofZLFSrhMTHYO2zAfBgNV
HSMEGDAWgBQ4WUXo3UQstX2lJdYLzDnwcsCUYzAMBgNVHRMBAf8EAjAAMA4GA1Ud
DwEB/wQEAwIDqDATBgNVHSUEDDAKBggrBgEFBQcDATARBglghkgBhvhCAQEEBAMC
BkAwBQYDK2VxA3MATig0YCp2OmGIBJl/ocPVx6IcPlcvWoMkywwyEckC0qcUu8wA
aG6Ao+Aek0GvdoaLrumc9NKcPG6A7kVkg7Yg9DWDh4EHx7iE6theCrtjhKMr0F58
zag0DsIXMn/7JGDf70T8YvvKXUtykn9BcbOszisA
-----END CERTIFICATE-----
Certificate:
    Data:
        Version: 3 (0x2)
        Serial Number: 1 (0x1)
        Signature Algorithm: ED448
        Issuer: C=US, ST=Montana, L=Bozeman, O=wolfSSL_Ed448, OU=Root-Ed448, CN=www.wolfssl.com, emailAddress=info@wolfssl.com
        Validity
            Not Before: Nov 13 20:41:22 2025 GMT
            Not After : Aug  9 20:41:22 2028 GMT
        Subject: C=US, ST=Montana, L=Bozeman, O=wolfSSL_ed448, OU=CA-ed448, CN=www.wolfssl.com, emailAddress=info@wolfssl.com, UID=wolfSSL
        Subject Public Key Info:
            Public Key Algorithm: ED448
                ED448 Public-Key:
                pub:
                    0e:e2:b4:76:e5:d2:cc:c2:4b:7b:b0:29:be:92:fb:
                    c3:af:69:a5:94:ba:70:24:e8:a3:ef:c8:63:9a:dd:
                    a6:af:58:43:38:04:24:f0:10:91:be:a7:01:91:54:
                    f3:cf:69:85:4c:b9:97:8c:a4:37:aa:00
        X509v3 extensions:
            X509v3 Subject Key Identifier: 
                38:59:45:E8:DD:44:2C:B5:7D:A5:25:D6:0B:CC:39:F0:72:C0:94:63
            X509v3 Authority Key Identifier: 
                DA:69:98:C9:26:4A:75:FB:59:5E:53:9A:63:4B:0C:B8:88:0B:0F:1E
            X509v3 Basic Constraints: critical
                CA:TRUE
            X509v3 Key Usage: critical
                Digital Signature, Certificate Sign, CRL Sign
    Signature Algorithm: ED448
    Signature Value:
        71:3f:d1:28:33:07:d1:3b:83:b9:23:62:64:ea:6d:d6:c1:cc:
        fc:3f:4c:76:95:b0:d2:16:1c:31:b9:71:14:a5:9d:62:71:f9:
        3c:40:c7:dc:65:ff:85:65:82:fa:9d:1b:39:ea:d4:c6:3f:09:
        2b:dc:80:ad:a4:0c:61:b2:85:fe:e5:b2:f3:c3:07:a4:a8:db:
        9a:f0:c5:d5:a3:9d:8d:9f:60:5a:37:27:4e:07:52:33:1a:53:
        84:84:96:44:4f:4e:b0:0b:13:c1:85:95:58:c7:10:f1:a4:1d:
        09:07:a2:b7:0a:00
-----BEGIN CERTIFICATE-----
MIICqDCCAiigAwIBAgIBATAFBgMrZXEwgZkxCzAJBgNVBAYTAlVTMRAwDgYDVQQI
DAdNb250YW5hMRAwDgYDVQQHDAdCb3plbWFuMRYwFAYDVQQKDA13b2xmU1NMX0Vk
NDQ4MRMwEQYDVQQLDApSb290LUVkNDQ4MRgwFgYDVQQDDA93d3cud29sZnNzbC5j
b20xHzAdBgkqhkiG9w0BCQEWEGluZm9Ad29sZnNzbC5jb20wHhcNMjUxMTEzMjA0
MTIyWhcNMjgwODA5MjA0MTIyWjCBsDELMAkGA1UEBhMCVVMxEDAOBgNVBAgMB01v
bnRhbmExEDAOBgNVBAcMB0JvemVtYW4xFjAUBgNVBAoMDXdvbGZTU0xfZWQ0NDgx
ETAPBgNVBAsMCENBLWVkNDQ4MRgwFgYDVQQDDA93d3cud29sZnNzbC5jb20xHzAd
BgkqhkiG9w0BCQEWEGluZm9Ad29sZnNzbC5jb20xFzAVBgoJkiaJk/IsZAEBDAd3
b2xmU1NMMEMwBQYDK2VxAzoADuK0duXSzMJLe7ApvpL7w69ppZS6cCToo+/IY5rd
pq9YQzgEJPAQkb6nAZFU889phUy5l4ykN6oAo2MwYTAdBgNVHQ4EFgQUOFlF6N1E
LLV9pSXWC8w58HLAlGMwHwYDVR0jBBgwFoAU2mmYySZKdftZXlOaY0sMuIgLDx4w
DwYDVR0TAQH/BAUwAwEB/zAOBgNVHQ8BAf8EBAMCAYYwBQYDK2VxA3MAcT/RKDMH
0TuDuSNiZOpt1sHM/D9MdpWw0hYcMblxFKWdYnH5PEDH3GX/hWWC+p0bOerUxj8J
K9yAraQMYbKF/uWy88MHpKjbmvDF1aOdjZ9gWjcnTgdSMxpThISWRE9OsAsTwYWV
WMcQ8aQdCQeitwoA
-----END CERTIFICATE-----
