Certificate:
    Data:
        Version: 3 (0x2)
        Serial Number: 1 (0x1)
        Signature Algorithm: ED448
        Issuer: C = US, ST = Montana, L = Bozeman, O = wolfSSL_ed448, OU = CA-ed448, CN = www.wolfssl.com, emailAddress = info@wolfssl.com
        Validity
            Not Before: Dec 20 23:07:25 2021 GMT
            Not After : Sep 15 23:07:25 2024 GMT
        Subject: C = US, ST = Montana, L = Bozeman, O = wolfSSL_ed448, OU = Server-ed448, CN = www.wolfssl.com, emailAddress = info@wolfssl.com
        Subject Public Key Info:
            Public Key Algorithm: ED448
                ED448 Public-Key:
                pub:
                    54:81:39:01:eb:37:d9:a9:07:cd:01:bc:9d:70:16:
                    c2:2c:2b:75:5b:63:db:ee:3a:2d:44:92:46:b4:7b:
                    07:03:4f:a2:ae:86:86:dc:8b:4b:2c:7f:e8:6b:14:
                    8d:58:dd:6d:e7:6f:3a:05:95:a8:ef:00
        X509v3 extensions:
            X509v3 Subject Key Identifier: 
                7C:AB:5C:12:A9:68:D8:18:10:28:7D:92:C5:4A:B8:4C:4C:76:0E:DB
            X509v3 Authority Key Identifier: 
                keyid:38:59:45:E8:DD:44:2C:B5:7D:A5:25:D6:0B:CC:39:F0:72:C0:94:63

            X509v3 Basic Constraints: critical
                CA:FALSE
            X509v3 Key Usage: critical
                Digital Signature, Key Encipherment, Key Agreement
            X509v3 Extended Key Usage: 
                TLS Web Server Authentication
            Netscape Cert Type: 
                SSL Server
    Signature Algorithm: ED448
         39:91:c6:6a:6c:93:f0:b8:27:ad:c8:d7:b2:49:3d:3f:91:b1:
         c6:47:74:39:5a:8c:f9:7a:43:74:34:df:16:1d:60:62:78:69:
         e1:ec:61:e3:a8:69:19:2d:a5:b8:c3:c7:62:d9:2e:c8:81:6d:
         f5:6f:80:dd:d8:e2:02:ee:5b:f0:9c:cd:1e:cd:27:e2:98:c5:
         37:93:46:88:8d:cd:0c:fe:00:6e:54:96:cd:f0:13:8b:01:d6:
         f6:38:fc:81:8a:e6:05:75:12:74:4a:ce:b7:de:40:7b:43:c8:
         25:07:27:07:15:00
-----BEGIN CERTIFICATE-----
MIICuDCCAjigAwIBAgIBATAFBgMrZXEwgZcxCzAJBgNVBAYTAlVTMRAwDgYDVQQI
DAdNb250YW5hMRAwDgYDVQQHDAdCb3plbWFuMRYwFAYDVQQKDA13b2xmU1NMX2Vk
NDQ4MREwDwYDVQQLDAhDQS1lZDQ0ODEYMBYGA1UEAwwPd3d3LndvbGZzc2wuY29t
MR8wHQYJKoZIhvcNAQkBFhBpbmZvQHdvbGZzc2wuY29tMB4XDTIxMTIyMDIzMDcy
NVoXDTI0MDkxNTIzMDcyNVowgZsxCzAJBgNVBAYTAlVTMRAwDgYDVQQIDAdNb250
YW5hMRAwDgYDVQQHDAdCb3plbWFuMRYwFAYDVQQKDA13b2xmU1NMX2VkNDQ4MRUw
EwYDVQQLDAxTZXJ2ZXItZWQ0NDgxGDAWBgNVBAMMD3d3dy53b2xmc3NsLmNvbTEf
MB0GCSqGSIb3DQEJARYQaW5mb0B3b2xmc3NsLmNvbTBDMAUGAytlcQM6AFSBOQHr
N9mpB80BvJ1wFsIsK3VbY9vuOi1Ekka0ewcDT6Kuhobci0ssf+hrFI1Y3W3nbzoF
lajvAKOBiTCBhjAdBgNVHQ4EFgQUfKtcEqlo2BgQKH2SxUq4TEx2DtswHwYDVR0j
BBgwFoAUOFlF6N1ELLV9pSXWC8w58HLAlGMwDAYDVR0TAQH/BAIwADAOBgNVHQ8B
Af8EBAMCA6gwEwYDVR0lBAwwCgYIKwYBBQUHAwEwEQYJYIZIAYb4QgEBBAQDAgZA
MAUGAytlcQNzADmRxmpsk/C4J63I17JJPT+RscZHdDlajPl6Q3Q03xYdYGJ4aeHs
YeOoaRktpbjDx2LZLsiBbfVvgN3Y4gLuW/CczR7NJ+KYxTeTRoiNzQz+AG5Uls3w
E4sB1vY4/IGK5gV1EnRKzrfeQHtDyCUHJwcVAA==
-----END CERTIFICATE-----
Certificate:
    Data:
        Version: 3 (0x2)
        Serial Number: 1 (0x1)
        Signature Algorithm: ED448
        Issuer: C = US, ST = Montana, L = Bozeman, O = wolfSSL_Ed448, OU = Root-Ed448, CN = www.wolfssl.com, emailAddress = info@wolfssl.com
        Validity
            Not Before: Dec 20 23:07:25 2021 GMT
            Not After : Sep 15 23:07:25 2024 GMT
        Subject: C = US, ST = Montana, L = Bozeman, O = wolfSSL_ed448, OU = CA-ed448, CN = www.wolfssl.com, emailAddress = info@wolfssl.com
        Subject Public Key Info:
            Public Key Algorithm: ED448
                ED448 Public-Key:
                pub:
                    0e:e2:b4:76:e5:d2:cc:c2:4b:7b:b0:29:be:92:fb:
                    c3:af:69:a5:94:ba:70:24:e8:a3:ef:c8:63:9a:dd:
                    a6:af:58:43:38:04:24:f0:10:91:be:a7:01:91:54:
                    f3:cf:69:85:4c:b9:97:8c:a4:37:aa:00
        X509v3 extensions:
            X509v3 Subject Key Identifier: 
                38:59:45:E8:DD:44:2C:B5:7D:A5:25:D6:0B:CC:39:F0:72:C0:94:63
            X509v3 Authority Key Identifier: 
                keyid:DA:69:98:C9:26:4A:75:FB:59:5E:53:9A:63:4B:0C:B8:88:0B:0F:1E

            X509v3 Basic Constraints: critical
                CA:TRUE
            X509v3 Key Usage: critical
                Digital Signature, Certificate Sign, CRL Sign
    Signature Algorithm: ED448
         de:27:87:c7:7b:e8:c1:e5:1d:58:3e:5e:1e:51:4e:03:91:6a:
         98:b3:87:13:0f:28:3c:69:c5:67:93:d2:c6:d6:39:3d:3d:66:
         64:25:04:a1:80:5b:65:26:79:e8:39:78:d6:a2:d9:72:35:95:
         70:86:00:6e:62:57:42:b3:a9:11:85:24:f7:29:e7:d3:99:7b:
         61:00:84:c3:08:ee:34:be:ad:a5:7b:eb:52:4f:4d:ec:05:3e:
         d5:d7:99:6f:70:ba:f2:01:5b:d6:43:39:28:e2:0e:79:f0:1e:
         e8:16:3a:33:37:00
-----BEGIN CERTIFICATE-----
MIICjzCCAg+gAwIBAgIBATAFBgMrZXEwgZkxCzAJBgNVBAYTAlVTMRAwDgYDVQQI
DAdNb250YW5hMRAwDgYDVQQHDAdCb3plbWFuMRYwFAYDVQQKDA13b2xmU1NMX0Vk
NDQ4MRMwEQYDVQQLDApSb290LUVkNDQ4MRgwFgYDVQQDDA93d3cud29sZnNzbC5j
b20xHzAdBgkqhkiG9w0BCQEWEGluZm9Ad29sZnNzbC5jb20wHhcNMjExMjIwMjMw
NzI1WhcNMjQwOTE1MjMwNzI1WjCBlzELMAkGA1UEBhMCVVMxEDAOBgNVBAgMB01v
bnRhbmExEDAOBgNVBAcMB0JvemVtYW4xFjAUBgNVBAoMDXdvbGZTU0xfZWQ0NDgx
ETAPBgNVBAsMCENBLWVkNDQ4MRgwFgYDVQQDDA93d3cud29sZnNzbC5jb20xHzAd
BgkqhkiG9w0BCQEWEGluZm9Ad29sZnNzbC5jb20wQzAFBgMrZXEDOgAO4rR25dLM
wkt7sCm+kvvDr2mllLpwJOij78hjmt2mr1hDOAQk8BCRvqcBkVTzz2mFTLmXjKQ3
qgCjYzBhMB0GA1UdDgQWBBQ4WUXo3UQstX2lJdYLzDnwcsCUYzAfBgNVHSMEGDAW
gBTaaZjJJkp1+1leU5pjSwy4iAsPHjAPBgNVHRMBAf8EBTADAQH/MA4GA1UdDwEB
/wQEAwIBhjAFBgMrZXEDcwDeJ4fHe+jB5R1YPl4eUU4DkWqYs4cTDyg8acVnk9LG
1jk9PWZkJQShgFtlJnnoOXjWotlyNZVwhgBuYldCs6kRhST3KefTmXthAITDCO40
vq2le+tST03sBT7V15lvcLryAVvWQzko4g558B7oFjozNwA=
-----END CERTIFICATE-----
