Certificate:
    Data:
        Version: 3 (0x2)
        Serial Number: 199 (0xc7)
        Signature Algorithm: sha256WithRSAEncryption
        Issuer: C=US, ST=Washington, L=Seattle, O=wolfSSL, OU=Engineering, CN=wolfSSL root CA, emailAddress=facts@wolfssl.com
        Validity
            Not Before: Jun 11 21:44:34 2026 GMT
            Not After : Mar  7 21:44:34 2029 GMT
        Subject: C=US, ST=Washington, L=Seattle, O=wolfSSL, OU=Engineering, CN=wolfSSL root CA, emailAddress=facts@wolfssl.com
        Subject Public Key Info:
            Public Key Algorithm: rsaEncryption
                Public-Key: (2048 bit)
                Modulus:
                    00:f3:c7:6e:93:4e:94:7d:9a:76:cb:3e:82:21:30:
                    a0:a5:4a:a2:6c:80:bf:e6:a0:7d:6c:cc:aa:e6:94:
                    f3:42:41:7f:1a:ba:5f:89:d2:84:67:81:4d:37:0b:
                    26:ed:f8:f1:be:84:f5:33:9f:be:98:d1:88:86:c1:
                    93:d3:8e:40:56:36:28:4f:14:c2:f7:a7:3b:ca:1d:
                    ae:59:6b:5f:79:54:b6:2e:6e:4d:7f:4c:71:0d:fb:
                    3a:6e:95:8f:96:44:3c:f2:91:01:cb:68:17:07:33:
                    97:cb:32:55:47:03:64:0c:4b:16:2e:20:f8:65:c7:
                    6a:52:e4:fd:a9:2d:de:39:0c:5f:1a:14:10:9d:c3:
                    2d:15:c4:88:2e:19:58:e1:fd:69:12:81:d2:af:f6:
                    62:44:b0:89:82:b5:f5:17:23:2b:73:8e:e3:55:14:
                    43:a5:4a:7e:cb:96:62:8f:96:bf:5f:c3:82:dc:86:
                    86:85:89:f8:8e:68:b2:ef:e5:2e:8c:b9:8d:56:13:
                    19:65:e9:79:c5:29:dc:89:0b:dd:23:35:fe:d5:48:
                    b6:2d:ad:ee:ee:6c:b8:3e:eb:79:1c:41:d1:b8:e5:
                    0e:2f:2d:cf:d7:65:fa:71:6f:60:9b:90:30:43:da:
                    c3:e2:1b:8f:da:ab:37:c5:38:88:6b:85:15:5b:24:
                    72:bf
                Exponent: 65537 (0x10001)
        X509v3 extensions:
            X509v3 Basic Constraints: 
                CA:TRUE
            X509v3 Subject Key Identifier: 
                73:64:66:3E:9A:DE:12:EC:44:C2:5B:05:64:62:1D:63:23:43:55:E5
            X509v3 Authority Key Identifier: 
                keyid:73:64:66:3E:9A:DE:12:EC:44:C2:5B:05:64:62:1D:63:23:43:55:E5
                DirName:/C=US/ST=Washington/L=Seattle/O=wolfSSL/OU=Engineering/CN=wolfSSL root CA/emailAddress=facts@wolfssl.com
                serial:C7
            X509v3 Key Usage: 
                Certificate Sign, CRL Sign
            Authority Information Access: 
                OCSP - URI:http://127.0.0.1:22220
    Signature Algorithm: sha256WithRSAEncryption
    Signature Value:
        b9:6f:f6:77:61:76:9a:4c:78:d0:ba:51:59:b0:90:24:cd:3b:
        aa:9f:30:07:71:c7:cd:65:f0:5c:34:dd:04:4e:e5:96:14:17:
        ad:f0:4b:f5:dd:82:33:ce:86:57:85:9d:57:ea:5d:a4:8f:73:
        c3:6b:29:01:aa:1a:5b:4d:df:89:33:8d:74:1c:87:fd:a7:c7:
        30:cf:27:3e:0c:85:68:e7:a5:83:49:55:ad:ee:63:a2:fb:0a:
        cd:25:18:fb:6b:f1:d4:61:cb:05:83:24:96:a9:24:eb:b2:c5:
        76:4e:fa:2e:13:e7:60:8d:9e:6f:f3:53:ce:c4:8a:38:be:21:
        d3:09:fe:b3:c5:f5:af:09:bc:13:1c:5b:04:4f:9e:ce:64:5c:
        cf:38:98:a1:a1:96:f2:44:d6:95:3c:6d:70:e0:49:0e:0b:01:
        33:0e:85:f0:d3:95:1a:c5:c1:53:6c:4a:14:76:e7:36:96:56:
        ad:aa:bf:3a:11:1b:07:93:68:ce:40:dd:97:47:4a:8a:e9:95:
        2b:93:be:ef:0e:b9:40:50:1a:3f:8c:84:00:ea:f3:45:92:27:
        91:9a:cb:f6:09:69:6d:ba:d5:2d:78:84:6a:7c:12:27:74:66:
        43:f7:41:e8:62:fc:d1:fa:7c:e1:08:d8:8d:32:53:0a:84:22:
        b6:4f:b0:07
-----BEGIN CERTIFICATE-----
MIIE6zCCA9OgAwIBAgICAMcwDQYJKoZIhvcNAQELBQAwgZgxCzAJBgNVBAYTAlVT
MRMwEQYDVQQIDApXYXNoaW5ndG9uMRAwDgYDVQQHDAdTZWF0dGxlMRAwDgYDVQQK
DAd3b2xmU1NMMRQwEgYDVQQLDAtFbmdpbmVlcmluZzEYMBYGA1UEAwwPd29sZlNT
TCByb290IENBMSAwHgYJKoZIhvcNAQkBFhFmYWN0c0B3b2xmc3NsLmNvbTAeFw0y
NjA2MTEyMTQ0MzRaFw0yOTAzMDcyMTQ0MzRaMIGYMQswCQYDVQQGEwJVUzETMBEG
A1UECAwKV2FzaGluZ3RvbjEQMA4GA1UEBwwHU2VhdHRsZTEQMA4GA1UECgwHd29s
ZlNTTDEUMBIGA1UECwwLRW5naW5lZXJpbmcxGDAWBgNVBAMMD3dvbGZTU0wgcm9v
dCBDQTEgMB4GCSqGSIb3DQEJARYRZmFjdHNAd29sZnNzbC5jb20wggEiMA0GCSqG
SIb3DQEBAQUAA4IBDwAwggEKAoIBAQDzx26TTpR9mnbLPoIhMKClSqJsgL/moH1s
zKrmlPNCQX8aul+J0oRngU03Cybt+PG+hPUzn76Y0YiGwZPTjkBWNihPFML3pzvK
Ha5Za195VLYubk1/THEN+zpulY+WRDzykQHLaBcHM5fLMlVHA2QMSxYuIPhlx2pS
5P2pLd45DF8aFBCdwy0VxIguGVjh/WkSgdKv9mJEsImCtfUXIytzjuNVFEOlSn7L
lmKPlr9fw4LchoaFifiOaLLv5S6MuY1WExll6XnFKdyJC90jNf7VSLYtre7ubLg+
63kcQdG45Q4vLc/XZfpxb2CbkDBD2sPiG4/aqzfFOIhrhRVbJHK/AgMBAAGjggE7
MIIBNzAMBgNVHRMEBTADAQH/MB0GA1UdDgQWBBRzZGY+mt4S7ETCWwVkYh1jI0NV
5TCBxgYDVR0jBIG+MIG7gBRzZGY+mt4S7ETCWwVkYh1jI0NV5aGBnqSBmzCBmDEL
MAkGA1UEBhMCVVMxEzARBgNVBAgMCldhc2hpbmd0b24xEDAOBgNVBAcMB1NlYXR0
bGUxEDAOBgNVBAoMB3dvbGZTU0wxFDASBgNVBAsMC0VuZ2luZWVyaW5nMRgwFgYD
VQQDDA93b2xmU1NMIHJvb3QgQ0ExIDAeBgkqhkiG9w0BCQEWEWZhY3RzQHdvbGZz
c2wuY29tggIAxzALBgNVHQ8EBAMCAQYwMgYIKwYBBQUHAQEEJjAkMCIGCCsGAQUF
BzABhhZodHRwOi8vMTI3LjAuMC4xOjIyMjIwMA0GCSqGSIb3DQEBCwUAA4IBAQC5
b/Z3YXaaTHjQulFZsJAkzTuqnzAHccfNZfBcNN0ETuWWFBet8Ev13YIzzoZXhZ1X
6l2kj3PDaykBqhpbTd+JM410HIf9p8cwzyc+DIVo56WDSVWt7mOi+wrNJRj7a/HU
YcsFgySWqSTrssV2TvouE+dgjZ5v81POxIo4viHTCf6zxfWvCbwTHFsET57OZFzP
OJihoZbyRNaVPG1w4EkOCwEzDoXw05UaxcFTbEoUduc2llatqr86ERsHk2jOQN2X
R0qK6ZUrk77vDrlAUBo/jIQA6vNFkieRmsv2CWltutUteIRqfBIndGZD90HoYvzR
+nzhCNiNMlMKhCK2T7AH
-----END CERTIFICATE-----
