Certificate:
    Data:
        Version: 3 (0x2)
        Serial Number: 199 (0xc7)
        Signature Algorithm: sha256WithRSAEncryption
        Issuer: C = US, ST = Washington, L = Seattle, O = wolfSSL, OU = Engineering, CN = wolfSSL root CA, emailAddress = info@wolfssl.com
        Validity
            Not Before: Apr 27 16:12:19 2026 GMT
            Not After : Jan 21 16:12:19 2029 GMT
        Subject: C = US, ST = Washington, L = Seattle, O = wolfSSL, OU = Engineering, CN = wolfSSL root CA, emailAddress = info@wolfssl.com
        Subject Public Key Info:
            Public Key Algorithm: rsaEncryption
                Public-Key: (2048 bit)
                Modulus:
                    00:f3:c7:6e:93:4e:94:7d:9a:76:cb:3e:82:21:30:
                    a0:a5:4a:a2:6c:80:bf:e6:a0:7d:6c:cc:aa:e6:94:
                    f3:42:41:7f:1a:ba:5f:89:d2:84:67:81:4d:37:0b:
                    26:ed:f8:f1:be:84:f5:33:9f:be:98:d1:88:86:c1:
                    93:d3:8e:40:56:36:28:4f:14:c2:f7:a7:3b:ca:1d:
                    ae:59:6b:5f:79:54:b6:2e:6e:4d:7f:4c:71:0d:fb:
                    3a:6e:95:8f:96:44:3c:f2:91:01:cb:68:17:07:33:
                    97:cb:32:55:47:03:64:0c:4b:16:2e:20:f8:65:c7:
                    6a:52:e4:fd:a9:2d:de:39:0c:5f:1a:14:10:9d:c3:
                    2d:15:c4:88:2e:19:58:e1:fd:69:12:81:d2:af:f6:
                    62:44:b0:89:82:b5:f5:17:23:2b:73:8e:e3:55:14:
                    43:a5:4a:7e:cb:96:62:8f:96:bf:5f:c3:82:dc:86:
                    86:85:89:f8:8e:68:b2:ef:e5:2e:8c:b9:8d:56:13:
                    19:65:e9:79:c5:29:dc:89:0b:dd:23:35:fe:d5:48:
                    b6:2d:ad:ee:ee:6c:b8:3e:eb:79:1c:41:d1:b8:e5:
                    0e:2f:2d:cf:d7:65:fa:71:6f:60:9b:90:30:43:da:
                    c3:e2:1b:8f:da:ab:37:c5:38:88:6b:85:15:5b:24:
                    72:bf
                Exponent: 65537 (0x10001)
        X509v3 extensions:
            X509v3 Basic Constraints: 
                CA:TRUE
            X509v3 Subject Key Identifier: 
                73:64:66:3E:9A:DE:12:EC:44:C2:5B:05:64:62:1D:63:23:43:55:E5
            X509v3 Authority Key Identifier: 
                keyid:73:64:66:3E:9A:DE:12:EC:44:C2:5B:05:64:62:1D:63:23:43:55:E5
                DirName:/C=US/ST=Washington/L=Seattle/O=wolfSSL/OU=Engineering/CN=wolfSSL root CA/emailAddress=info@wolfssl.com
                serial:C7
            X509v3 Key Usage: 
                Certificate Sign, CRL Sign
            Authority Information Access: 
                OCSP - URI:http://127.0.0.1:22220
    Signature Algorithm: sha256WithRSAEncryption
    Signature Value:
        35:b1:f0:64:89:fe:7e:b3:5f:80:15:57:a0:8f:cd:fc:a0:2d:
        36:29:39:a3:ee:d6:c0:f3:c2:e6:31:2e:ce:9b:d4:a1:3e:dc:
        c7:0d:2a:ae:72:c6:fa:ee:77:d7:4b:98:c0:32:7e:d2:54:3f:
        41:34:09:22:f3:34:db:ff:4e:35:79:15:50:fa:e2:bd:37:1c:
        0e:dc:4e:b1:5a:5d:fd:be:bf:d1:75:02:9a:a8:61:da:d4:f1:
        35:b3:7e:9d:10:29:a8:cd:50:7c:3c:89:5e:a1:b2:51:e6:d8:
        4d:dd:cc:3d:b9:8e:5b:20:51:33:e0:03:57:e0:f7:5b:be:85:
        64:a7:8c:6d:40:56:cd:78:4f:6d:dc:04:f2:4a:f3:a1:29:3b:
        64:e5:db:a0:98:80:c8:6b:12:25:4c:18:40:2a:ce:b6:94:fe:
        58:bb:35:91:22:36:d7:29:70:53:2e:8b:be:e3:b7:08:d3:a8:
        66:19:ff:69:f0:c8:8f:b6:ea:21:bc:41:08:92:42:89:fd:d9:
        3a:9c:42:4b:c4:2e:81:4f:63:54:95:88:d9:56:66:08:dc:73:
        56:6a:97:5e:09:e5:fa:d2:52:3b:7f:bd:3b:1b:bb:f1:74:51:
        71:30:f3:ce:1c:21:75:89:97:7f:e4:38:f7:3e:66:c3:20:f3:
        c0:f3:38:c9
-----BEGIN CERTIFICATE-----
MIIE6DCCA9CgAwIBAgICAMcwDQYJKoZIhvcNAQELBQAwgZcxCzAJBgNVBAYTAlVT
MRMwEQYDVQQIDApXYXNoaW5ndG9uMRAwDgYDVQQHDAdTZWF0dGxlMRAwDgYDVQQK
DAd3b2xmU1NMMRQwEgYDVQQLDAtFbmdpbmVlcmluZzEYMBYGA1UEAwwPd29sZlNT
TCByb290IENBMR8wHQYJKoZIhvcNAQkBFhBpbmZvQHdvbGZzc2wuY29tMB4XDTI2
MDQyNzE2MTIxOVoXDTI5MDEyMTE2MTIxOVowgZcxCzAJBgNVBAYTAlVTMRMwEQYD
VQQIDApXYXNoaW5ndG9uMRAwDgYDVQQHDAdTZWF0dGxlMRAwDgYDVQQKDAd3b2xm
U1NMMRQwEgYDVQQLDAtFbmdpbmVlcmluZzEYMBYGA1UEAwwPd29sZlNTTCByb290
IENBMR8wHQYJKoZIhvcNAQkBFhBpbmZvQHdvbGZzc2wuY29tMIIBIjANBgkqhkiG
9w0BAQEFAAOCAQ8AMIIBCgKCAQEA88duk06UfZp2yz6CITCgpUqibIC/5qB9bMyq
5pTzQkF/GrpfidKEZ4FNNwsm7fjxvoT1M5++mNGIhsGT045AVjYoTxTC96c7yh2u
WWtfeVS2Lm5Nf0xxDfs6bpWPlkQ88pEBy2gXBzOXyzJVRwNkDEsWLiD4ZcdqUuT9
qS3eOQxfGhQQncMtFcSILhlY4f1pEoHSr/ZiRLCJgrX1FyMrc47jVRRDpUp+y5Zi
j5a/X8OC3IaGhYn4jmiy7+UujLmNVhMZZel5xSnciQvdIzX+1Ui2La3u7my4Put5
HEHRuOUOLy3P12X6cW9gm5AwQ9rD4huP2qs3xTiIa4UVWyRyvwIDAQABo4IBOjCC
ATYwDAYDVR0TBAUwAwEB/zAdBgNVHQ4EFgQUc2RmPpreEuxEwlsFZGIdYyNDVeUw
gcUGA1UdIwSBvTCBuoAUc2RmPpreEuxEwlsFZGIdYyNDVeWhgZ2kgZowgZcxCzAJ
BgNVBAYTAlVTMRMwEQYDVQQIDApXYXNoaW5ndG9uMRAwDgYDVQQHDAdTZWF0dGxl
MRAwDgYDVQQKDAd3b2xmU1NMMRQwEgYDVQQLDAtFbmdpbmVlcmluZzEYMBYGA1UE
AwwPd29sZlNTTCByb290IENBMR8wHQYJKoZIhvcNAQkBFhBpbmZvQHdvbGZzc2wu
Y29tggIAxzALBgNVHQ8EBAMCAQYwMgYIKwYBBQUHAQEEJjAkMCIGCCsGAQUFBzAB
hhZodHRwOi8vMTI3LjAuMC4xOjIyMjIwMA0GCSqGSIb3DQEBCwUAA4IBAQA1sfBk
if5+s1+AFVegj838oC02KTmj7tbA88LmMS7Om9ShPtzHDSqucsb67nfXS5jAMn7S
VD9BNAki8zTb/041eRVQ+uK9NxwO3E6xWl39vr/RdQKaqGHa1PE1s36dECmozVB8
PIleobJR5thN3cw9uY5bIFEz4ANX4PdbvoVkp4xtQFbNeE9t3ATySvOhKTtk5dug
mIDIaxIlTBhAKs62lP5YuzWRIjbXKXBTLou+47cI06hmGf9p8MiPtuohvEEIkkKJ
/dk6nEJLxC6BT2NUlYjZVmYI3HNWapdeCeX60lI7f707G7vxdFFxMPPOHCF1iZd/
5Dj3PmbDIPPA8zjJ
-----END CERTIFICATE-----
