Certificate:
    Data:
        Version: 3 (0x2)
        Serial Number: 3 (0x3)
        Signature Algorithm: sha256WithRSAEncryption
        Issuer: C = US, ST = Washington, L = Seattle, O = wolfSSL, OU = Engineering, CN = wolfSSL root CA, emailAddress = info@wolfssl.com
        Validity
            Not Before: Sep 26 17:22:43 2023 GMT
            Not After : Jun 22 17:22:43 2026 GMT
        Subject: C = US, ST = Washington, L = Seattle, O = wolfSSL, OU = Engineering, CN = wolfSSL REVOKED intermediate CA, emailAddress = info@wolfssl.com
        Subject Public Key Info:
            Public Key Algorithm: rsaEncryption
                Public-Key: (2048 bit)
                Modulus:
                    00:de:c5:04:10:7d:c2:21:e9:12:45:da:d5:ba:28:
                    fd:a6:f4:30:44:a0:df:f9:70:5e:17:26:97:59:5c:
                    31:eb:13:70:ea:4a:dd:58:3e:4f:33:14:66:59:69:
                    7a:aa:90:e0:7c:c4:b2:36:c1:0a:f4:df:3e:34:6c:
                    1a:e9:2b:f1:a5:92:7e:a9:68:70:ba:a4:68:88:f3:
                    ec:10:40:64:a5:64:7d:d9:1e:51:49:9d:7f:c8:cc:
                    2b:6d:71:2a:06:ff:e6:1f:84:28:8a:c1:ed:a8:52:
                    f4:89:a5:c0:77:d8:13:66:c2:65:a5:63:03:98:b0:
                    4b:05:4f:0c:84:a0:f4:2d:72:73:6b:fa:0d:e1:cf:
                    45:27:ed:a3:8c:02:d7:ee:99:e2:a1:f0:e3:a0:ad:
                    69:ed:59:e4:27:41:8f:ef:fa:83:73:8f:5f:2b:68:
                    89:13:46:26:dc:f6:28:6b:3b:b2:b8:9b:52:2a:17:
                    1b:dc:72:45:73:da:75:24:35:8b:00:5e:23:37:64:
                    6a:16:74:b8:ee:fe:b7:11:71:be:0a:73:c8:54:c2:
                    d9:04:d2:1b:f5:53:ac:8d:2a:4f:fe:33:79:e6:5e:
                    e7:f3:86:d3:dc:bb:4b:d7:39:7f:5b:3c:67:fe:5e:
                    88:51:05:96:f2:b4:9a:45:09:4c:51:f0:6a:4d:88:
                    2a:17
                Exponent: 65537 (0x10001)
        X509v3 extensions:
            X509v3 Basic Constraints: 
                CA:TRUE
            X509v3 Subject Key Identifier: 
                BB:15:9E:32:4D:E0:F8:AA:8A:B0:2E:0C:17:2B:5A:41:74:4B:06:45
            X509v3 Authority Key Identifier: 
                keyid:73:B0:1C:A4:2F:82:CB:CF:47:A5:38:D7:B0:04:82:3A:7E:72:15:21
                DirName:/C=US/ST=Washington/L=Seattle/O=wolfSSL/OU=Engineering/CN=wolfSSL root CA/emailAddress=info@wolfssl.com
                serial:63
            X509v3 Key Usage: 
                Certificate Sign, CRL Sign
            Authority Information Access: 
                OCSP - URI:http://127.0.0.1:22220
    Signature Algorithm: sha256WithRSAEncryption
    Signature Value:
        88:45:df:e3:21:7f:64:61:7b:c9:d7:ce:a7:d6:7b:29:b1:95:
        a4:2c:eb:00:f2:65:22:55:2f:72:5b:83:01:f1:90:d8:08:ab:
        0d:d3:28:12:41:b5:39:d7:87:34:35:ec:53:40:9c:9c:cf:e6:
        c5:61:86:d9:0d:88:21:2b:d1:79:9a:f3:89:0d:75:e8:a2:84:
        a4:7c:65:d3:e1:32:69:cf:10:b2:c2:61:af:77:92:94:42:12:
        3a:3c:d6:5a:4b:6c:cb:95:3f:37:81:4e:0b:00:b7:50:a2:8c:
        8d:cd:56:f3:2e:dc:7a:97:1a:02:19:8b:79:d6:55:b6:32:c8:
        dd:83:94:6f:35:a1:d4:1d:5b:e4:85:c9:54:e7:19:74:b5:b4:
        f2:8e:27:5e:b9:d3:ba:ed:42:56:bc:41:23:67:a5:b5:e6:42:
        21:90:92:72:5d:f3:d9:10:c5:f4:46:d0:63:f6:2a:68:20:e5:
        06:41:a1:d0:16:db:d9:3f:1e:2a:5e:1d:6e:e2:cd:8c:a9:e2:
        93:dd:cf:03:c6:5a:ae:f3:f0:66:b5:27:17:20:39:8a:5a:b6:
        95:06:c5:6c:b2:68:ab:d1:d3:70:49:02:4a:dc:2d:70:9d:6a:
        e6:19:6d:85:06:bc:f2:09:0b:02:5b:18:31:ad:76:d7:3e:5c:
        51:b2:93:11
-----BEGIN CERTIFICATE-----
MIIE9jCCA96gAwIBAgIBAzANBgkqhkiG9w0BAQsFADCBlzELMAkGA1UEBhMCVVMx
EzARBgNVBAgMCldhc2hpbmd0b24xEDAOBgNVBAcMB1NlYXR0bGUxEDAOBgNVBAoM
B3dvbGZTU0wxFDASBgNVBAsMC0VuZ2luZWVyaW5nMRgwFgYDVQQDDA93b2xmU1NM
IHJvb3QgQ0ExHzAdBgkqhkiG9w0BCQEWEGluZm9Ad29sZnNzbC5jb20wHhcNMjMw
OTI2MTcyMjQzWhcNMjYwNjIyMTcyMjQzWjCBpzELMAkGA1UEBhMCVVMxEzARBgNV
BAgMCldhc2hpbmd0b24xEDAOBgNVBAcMB1NlYXR0bGUxEDAOBgNVBAoMB3dvbGZT
U0wxFDASBgNVBAsMC0VuZ2luZWVyaW5nMSgwJgYDVQQDDB93b2xmU1NMIFJFVk9L
RUQgaW50ZXJtZWRpYXRlIENBMR8wHQYJKoZIhvcNAQkBFhBpbmZvQHdvbGZzc2wu
Y29tMIIBIjANBgkqhkiG9w0BAQEFAAOCAQ8AMIIBCgKCAQEA3sUEEH3CIekSRdrV
uij9pvQwRKDf+XBeFyaXWVwx6xNw6krdWD5PMxRmWWl6qpDgfMSyNsEK9N8+NGwa
6SvxpZJ+qWhwuqRoiPPsEEBkpWR92R5RSZ1/yMwrbXEqBv/mH4QoisHtqFL0iaXA
d9gTZsJlpWMDmLBLBU8MhKD0LXJza/oN4c9FJ+2jjALX7pniofDjoK1p7VnkJ0GP
7/qDc49fK2iJE0Ym3PYoazuyuJtSKhcb3HJFc9p1JDWLAF4jN2RqFnS47v63EXG+
CnPIVMLZBNIb9VOsjSpP/jN55l7n84bT3LtL1zl/Wzxn/l6IUQWW8rSaRQlMUfBq
TYgqFwIDAQABo4IBOTCCATUwDAYDVR0TBAUwAwEB/zAdBgNVHQ4EFgQUuxWeMk3g
+KqKsC4MFytaQXRLBkUwgcQGA1UdIwSBvDCBuYAUc7AcpC+Cy89HpTjXsASCOn5y
FSGhgZ2kgZowgZcxCzAJBgNVBAYTAlVTMRMwEQYDVQQIDApXYXNoaW5ndG9uMRAw
DgYDVQQHDAdTZWF0dGxlMRAwDgYDVQQKDAd3b2xmU1NMMRQwEgYDVQQLDAtFbmdp
bmVlcmluZzEYMBYGA1UEAwwPd29sZlNTTCByb290IENBMR8wHQYJKoZIhvcNAQkB
FhBpbmZvQHdvbGZzc2wuY29tggFjMAsGA1UdDwQEAwIBBjAyBggrBgEFBQcBAQQm
MCQwIgYIKwYBBQUHMAGGFmh0dHA6Ly8xMjcuMC4wLjE6MjIyMjAwDQYJKoZIhvcN
AQELBQADggEBAIhF3+Mhf2Rhe8nXzqfWeymxlaQs6wDyZSJVL3JbgwHxkNgIqw3T
KBJBtTnXhzQ17FNAnJzP5sVhhtkNiCEr0Xma84kNdeiihKR8ZdPhMmnPELLCYa93
kpRCEjo81lpLbMuVPzeBTgsAt1CijI3NVvMu3HqXGgIZi3nWVbYyyN2DlG81odQd
W+SFyVTnGXS1tPKOJ16507rtQla8QSNnpbXmQiGQknJd89kQxfRG0GP2Kmgg5QZB
odAW29k/HipeHW7izYyp4pPdzwPGWq7z8Ga1JxcgOYpatpUGxWyyaKvR03BJAkrc
LXCdauYZbYUGvPIJCwJbGDGtdtc+XFGykxE=
-----END CERTIFICATE-----
Certificate:
    Data:
        Version: 3 (0x2)
        Serial Number: 99 (0x63)
        Signature Algorithm: sha256WithRSAEncryption
        Issuer: C = US, ST = Washington, L = Seattle, O = wolfSSL, OU = Engineering, CN = wolfSSL root CA, emailAddress = info@wolfssl.com
        Validity
            Not Before: Sep 26 17:22:43 2023 GMT
            Not After : Jun 22 17:22:43 2026 GMT
        Subject: C = US, ST = Washington, L = Seattle, O = wolfSSL, OU = Engineering, CN = wolfSSL root CA, emailAddress = info@wolfssl.com
        Subject Public Key Info:
            Public Key Algorithm: rsaEncryption
                Public-Key: (2048 bit)
                Modulus:
                    00:ab:2c:b4:2f:1d:06:09:ef:4e:29:86:84:7e:cc:
                    bf:a6:79:7c:f0:c0:c1:64:25:8c:75:b7:10:05:ca:
                    48:27:0c:0e:32:1c:b0:fe:99:85:39:b6:b9:a2:f7:
                    27:ff:6d:3c:8c:16:73:29:21:7f:8b:a6:54:71:90:
                    ad:cc:05:b9:9f:15:c7:0a:3f:5f:69:f4:0a:5f:8c:
                    71:b5:2c:bf:66:e2:03:9a:32:f4:d2:ec:2a:89:4b:
                    f9:35:88:14:33:47:4e:2e:05:79:01:ed:64:36:76:
                    b9:f8:85:cd:01:88:ac:c5:b2:b1:59:b8:cd:5a:f4:
                    09:09:38:9b:da:5a:cf:ce:78:99:1f:49:3d:41:d6:
                    06:7c:52:99:c8:97:d1:b3:80:3a:a2:4f:36:c4:c5:
                    96:30:77:31:38:c8:70:cc:e1:67:06:b3:2b:2f:93:
                    b5:69:cf:83:7e:88:53:9b:0f:46:21:4c:d6:05:36:
                    44:99:60:68:47:e5:32:01:12:d4:10:73:ae:9a:34:
                    94:fa:6e:b8:58:4f:7b:5b:8a:92:97:ad:fd:97:b9:
                    75:ca:c2:d4:45:7d:17:6b:cd:2f:f3:63:7a:0e:30:
                    b5:0b:a9:d9:a6:7c:74:60:9d:cc:09:03:43:f1:0f:
                    90:d3:b7:fe:6c:9f:d9:cd:78:4b:15:ae:8c:5b:f9:
                    99:81
                Exponent: 65537 (0x10001)
        X509v3 extensions:
            X509v3 Basic Constraints: 
                CA:TRUE
            X509v3 Subject Key Identifier: 
                73:B0:1C:A4:2F:82:CB:CF:47:A5:38:D7:B0:04:82:3A:7E:72:15:21
            X509v3 Authority Key Identifier: 
                keyid:73:B0:1C:A4:2F:82:CB:CF:47:A5:38:D7:B0:04:82:3A:7E:72:15:21
                DirName:/C=US/ST=Washington/L=Seattle/O=wolfSSL/OU=Engineering/CN=wolfSSL root CA/emailAddress=info@wolfssl.com
                serial:63
            X509v3 Key Usage: 
                Certificate Sign, CRL Sign
            Authority Information Access: 
                OCSP - URI:http://127.0.0.1:22220
    Signature Algorithm: sha256WithRSAEncryption
    Signature Value:
        35:d0:2c:d6:69:a1:b0:97:70:45:e0:95:4c:30:a6:06:fd:94:
        50:cd:bd:16:c0:01:7a:80:49:13:a2:9f:05:7a:de:de:57:e9:
        47:b8:ec:27:f0:3c:65:5f:f3:3c:18:78:a6:9f:b1:73:20:d9:
        17:d0:7c:63:19:d6:c0:aa:db:84:e5:99:6b:b0:77:90:6b:cb:
        ea:e0:1f:a0:5b:0f:3f:ad:ab:2c:ef:32:8a:3f:82:fc:3b:ff:
        97:67:ff:70:49:f8:7e:29:4d:07:4e:fe:52:e9:3a:82:d2:4c:
        94:d6:67:6e:fb:15:57:ff:23:e7:3f:94:4a:de:35:f3:07:0e:
        8e:6e:4f:84:e1:b0:bc:5f:b8:cb:9b:bc:02:05:2d:b1:a2:ab:
        fc:1e:d8:49:c6:31:40:c7:15:26:fc:27:87:e7:f3:d3:08:c0:
        64:52:24:a6:8a:55:d7:0d:a2:d3:6d:df:28:4e:5a:4c:98:2a:
        de:61:41:51:32:87:65:71:22:8f:6e:27:80:99:da:95:eb:eb:
        99:71:f9:8c:64:f0:c8:a7:7d:a0:fb:aa:60:d5:9c:b5:48:1b:
        7e:32:56:58:69:88:2d:72:0c:23:d6:52:76:af:64:ed:e6:23:
        bf:77:cc:a4:88:1e:0a:be:34:0e:95:b0:cf:4c:f5:12:4f:86:
        32:08:19:68
-----BEGIN CERTIFICATE-----
MIIE5jCCA86gAwIBAgIBYzANBgkqhkiG9w0BAQsFADCBlzELMAkGA1UEBhMCVVMx
EzARBgNVBAgMCldhc2hpbmd0b24xEDAOBgNVBAcMB1NlYXR0bGUxEDAOBgNVBAoM
B3dvbGZTU0wxFDASBgNVBAsMC0VuZ2luZWVyaW5nMRgwFgYDVQQDDA93b2xmU1NM
IHJvb3QgQ0ExHzAdBgkqhkiG9w0BCQEWEGluZm9Ad29sZnNzbC5jb20wHhcNMjMw
OTI2MTcyMjQzWhcNMjYwNjIyMTcyMjQzWjCBlzELMAkGA1UEBhMCVVMxEzARBgNV
BAgMCldhc2hpbmd0b24xEDAOBgNVBAcMB1NlYXR0bGUxEDAOBgNVBAoMB3dvbGZT
U0wxFDASBgNVBAsMC0VuZ2luZWVyaW5nMRgwFgYDVQQDDA93b2xmU1NMIHJvb3Qg
Q0ExHzAdBgkqhkiG9w0BCQEWEGluZm9Ad29sZnNzbC5jb20wggEiMA0GCSqGSIb3
DQEBAQUAA4IBDwAwggEKAoIBAQCrLLQvHQYJ704phoR+zL+meXzwwMFkJYx1txAF
ykgnDA4yHLD+mYU5trmi9yf/bTyMFnMpIX+LplRxkK3MBbmfFccKP19p9ApfjHG1
LL9m4gOaMvTS7CqJS/k1iBQzR04uBXkB7WQ2drn4hc0BiKzFsrFZuM1a9AkJOJva
Ws/OeJkfST1B1gZ8UpnIl9GzgDqiTzbExZYwdzE4yHDM4WcGsysvk7Vpz4N+iFOb
D0YhTNYFNkSZYGhH5TIBEtQQc66aNJT6brhYT3tbipKXrf2XuXXKwtRFfRdrzS/z
Y3oOMLULqdmmfHRgncwJA0PxD5DTt/5sn9nNeEsVroxb+ZmBAgMBAAGjggE5MIIB
NTAMBgNVHRMEBTADAQH/MB0GA1UdDgQWBBRzsBykL4LLz0elONewBII6fnIVITCB
xAYDVR0jBIG8MIG5gBRzsBykL4LLz0elONewBII6fnIVIaGBnaSBmjCBlzELMAkG
A1UEBhMCVVMxEzARBgNVBAgMCldhc2hpbmd0b24xEDAOBgNVBAcMB1NlYXR0bGUx
EDAOBgNVBAoMB3dvbGZTU0wxFDASBgNVBAsMC0VuZ2luZWVyaW5nMRgwFgYDVQQD
DA93b2xmU1NMIHJvb3QgQ0ExHzAdBgkqhkiG9w0BCQEWEGluZm9Ad29sZnNzbC5j
b22CAWMwCwYDVR0PBAQDAgEGMDIGCCsGAQUFBwEBBCYwJDAiBggrBgEFBQcwAYYW
aHR0cDovLzEyNy4wLjAuMToyMjIyMDANBgkqhkiG9w0BAQsFAAOCAQEANdAs1mmh
sJdwReCVTDCmBv2UUM29FsABeoBJE6KfBXre3lfpR7jsJ/A8ZV/zPBh4pp+xcyDZ
F9B8YxnWwKrbhOWZa7B3kGvL6uAfoFsPP62rLO8yij+C/Dv/l2f/cEn4filNB07+
Uuk6gtJMlNZnbvsVV/8j5z+USt418wcOjm5PhOGwvF+4y5u8AgUtsaKr/B7YScYx
QMcVJvwnh+fz0wjAZFIkpopV1w2i023fKE5aTJgq3mFBUTKHZXEij24ngJnalevr
mXH5jGTwyKd9oPuqYNWctUgbfjJWWGmILXIMI9ZSdq9k7eYjv3fMpIgeCr40DpWw
z0z1Ek+GMggZaA==
-----END CERTIFICATE-----
