Certificate:
    Data:
        Version: 3 (0x2)
        Serial Number: 1 (0x1)
    Signature Algorithm: sha256WithRSAEncryption
        Issuer: C=US, ST=Washington, L=Seattle, O=wolfSSL, OU=Engineering, CN=wolfSSL root CA/emailAddress=info@wolfssl.com
        Validity
            Not Before: Dec  7 22:42:29 2015 GMT
            Not After : Sep  2 22:42:29 2018 GMT
        Subject: C=US, ST=Washington, L=Seattle, O=wolfSSL, OU=Engineering, CN=wolfSSL intermediate CA/emailAddress=info@wolfssl.com
        Subject Public Key Info:
            Public Key Algorithm: rsaEncryption
                Public-Key: (2048 bit)
                Modulus:
                    00:de:b4:c8:5c:77:e0:2d:b1:f5:b9:ad:16:47:35:
                    a0:35:65:65:c6:e1:40:ab:1e:b4:b9:13:b7:cb:8c:
                    bb:77:a5:76:da:6d:87:87:f6:4a:4d:13:e4:26:3e:
                    27:87:ee:5b:c7:6a:3f:45:30:61:55:5c:f6:35:d1:
                    65:fa:98:11:a3:a7:55:d5:be:91:82:4b:fc:be:90:
                    d6:50:53:63:9a:2c:22:e1:35:11:dc:78:02:97:8a:
                    e4:46:92:9c:53:08:76:de:1f:53:b6:b8:ca:77:3e:
                    79:6e:bc:d0:e3:0d:30:5b:4c:f6:94:0d:30:29:64:
                    9f:04:e5:db:fb:89:60:67:bb:af:26:83:51:77:24:
                    2f:2b:0b:a1:94:81:10:98:e8:eb:26:a8:1e:7c:e4:
                    c4:6c:67:06:95:55:4a:dd:52:f4:f2:60:6d:01:2b:
                    19:91:35:6d:a4:08:47:06:71:24:00:d9:de:c6:56:
                    f3:8b:53:2c:e2:9a:96:a5:f3:62:e5:c4:e3:23:f2:
                    d2:fc:21:ea:0f:62:76:8d:d5:99:48:ce:dc:58:c4:
                    bb:7f:da:94:2c:80:74:83:c5:e0:b0:15:7e:41:fd:
                    0e:f2:f4:f0:78:76:7b:ad:26:0d:aa:48:96:17:2f:
                    21:e3:95:2b:26:37:f9:aa:80:2f:fe:de:f6:5e:bc:
                    97:7f
                Exponent: 65537 (0x10001)
        X509v3 extensions:
            X509v3 Basic Constraints: 
                CA:TRUE
            X509v3 Subject Key Identifier: 
                83:C6:3A:89:2C:81:F4:02:D7:9D:4C:E2:2A:C0:71:82:64:44:DA:0E
            X509v3 Authority Key Identifier: 
                keyid:73:B0:1C:A4:2F:82:CB:CF:47:A5:38:D7:B0:04:82:3A:7E:72:15:21
                DirName:/C=US/ST=Washington/L=Seattle/O=wolfSSL/OU=Engineering/CN=wolfSSL root CA/emailAddress=info@wolfssl.com
                serial:EF:57:D8:F5:69:38:95:25

            Authority Information Access: 
                OCSP - URI:http://localhost:22220

    Signature Algorithm: sha256WithRSAEncryption
         3d:92:fc:b0:73:95:d8:5a:18:e3:27:fc:55:05:14:54:2e:af:
         37:1e:37:11:25:e8:c9:7a:b0:9b:68:fb:a0:69:91:fd:bb:dd:
         00:55:fb:30:b3:4a:59:a6:58:bb:e4:03:3e:f2:98:a2:07:71:
         c7:de:3a:a0:0b:eb:43:44:77:2b:fc:5d:96:a7:89:c8:1a:6a:
         6e:b6:34:00:bb:e0:8a:5b:2b:ad:3a:f4:ab:b9:d4:54:f9:85:
         9a:f7:3b:23:00:dc:17:8f:55:1f:b9:e1:17:10:61:91:50:77:
         b6:57:be:75:61:6e:cc:9c:27:76:32:c2:de:b4:ee:11:ff:10:
         f7:99:49:38:8e:af:af:fa:73:1e:34:20:6c:3e:9f:cb:56:70:
         20:47:21:d3:2c:db:9b:ad:3b:32:96:72:be:d3:1b:d2:33:21:
         9b:4b:86:3a:64:45:37:8b:60:80:3b:3e:08:7a:06:f2:aa:20:
         7b:63:2c:df:03:c0:2a:74:07:61:db:f3:ec:8a:17:a4:36:a1:
         6c:b6:c0:64:f7:8a:5b:d0:43:64:bb:3e:ed:5d:e8:06:9c:b0:
         ef:c2:f3:d1:ff:e2:05:5e:1f:e1:bd:ef:2a:32:a3:44:9f:44:
         99:c0:a3:27:8b:af:24:c4:5f:2b:d5:05:a2:18:70:32:a4:d2:
         75:16:1b:b1
-----BEGIN CERTIFICATE-----
MIIE6TCCA9GgAwIBAgIBATANBgkqhkiG9w0BAQsFADCBlzELMAkGA1UEBhMCVVMx
EzARBgNVBAgMCldhc2hpbmd0b24xEDAOBgNVBAcMB1NlYXR0bGUxEDAOBgNVBAoM
B3dvbGZTU0wxFDASBgNVBAsMC0VuZ2luZWVyaW5nMRgwFgYDVQQDDA93b2xmU1NM
IHJvb3QgQ0ExHzAdBgkqhkiG9w0BCQEWEGluZm9Ad29sZnNzbC5jb20wHhcNMTUx
MjA3MjI0MjI5WhcNMTgwOTAyMjI0MjI5WjCBnzELMAkGA1UEBhMCVVMxEzARBgNV
BAgMCldhc2hpbmd0b24xEDAOBgNVBAcMB1NlYXR0bGUxEDAOBgNVBAoMB3dvbGZT
U0wxFDASBgNVBAsMC0VuZ2luZWVyaW5nMSAwHgYDVQQDDBd3b2xmU1NMIGludGVy
bWVkaWF0ZSBDQTEfMB0GCSqGSIb3DQEJARYQaW5mb0B3b2xmc3NsLmNvbTCCASIw
DQYJKoZIhvcNAQEBBQADggEPADCCAQoCggEBAN60yFx34C2x9bmtFkc1oDVlZcbh
QKsetLkTt8uMu3eldtpth4f2Sk0T5CY+J4fuW8dqP0UwYVVc9jXRZfqYEaOnVdW+
kYJL/L6Q1lBTY5osIuE1Edx4ApeK5EaSnFMIdt4fU7a4ync+eW680OMNMFtM9pQN
MClknwTl2/uJYGe7ryaDUXckLysLoZSBEJjo6yaoHnzkxGxnBpVVSt1S9PJgbQEr
GZE1baQIRwZxJADZ3sZW84tTLOKalqXzYuXE4yPy0vwh6g9ido3VmUjO3FjEu3/a
lCyAdIPF4LAVfkH9DvL08Hh2e60mDapIlhcvIeOVKyY3+aqAL/7e9l68l38CAwEA
AaOCATQwggEwMAwGA1UdEwQFMAMBAf8wHQYDVR0OBBYEFIPGOoksgfQC151M4irA
cYJkRNoOMIHMBgNVHSMEgcQwgcGAFHOwHKQvgsvPR6U417AEgjp+chUhoYGdpIGa
MIGXMQswCQYDVQQGEwJVUzETMBEGA1UECAwKV2FzaGluZ3RvbjEQMA4GA1UEBwwH
U2VhdHRsZTEQMA4GA1UECgwHd29sZlNTTDEUMBIGA1UECwwLRW5naW5lZXJpbmcx
GDAWBgNVBAMMD3dvbGZTU0wgcm9vdCBDQTEfMB0GCSqGSIb3DQEJARYQaW5mb0B3
b2xmc3NsLmNvbYIJAO9X2PVpOJUlMDIGCCsGAQUFBwEBBCYwJDAiBggrBgEFBQcw
AYYWaHR0cDovL2xvY2FsaG9zdDoyMjIyMDANBgkqhkiG9w0BAQsFAAOCAQEAPZL8
sHOV2FoY4yf8VQUUVC6vNx43ESXoyXqwm2j7oGmR/bvdAFX7MLNKWaZYu+QDPvKY
ogdxx946oAvrQ0R3K/xdlqeJyBpqbrY0ALvgilsrrTr0q7nUVPmFmvc7IwDcF49V
H7nhFxBhkVB3tle+dWFuzJwndjLC3rTuEf8Q95lJOI6vr/pzHjQgbD6fy1ZwIEch
0yzbm607MpZyvtMb0jMhm0uGOmRFN4tggDs+CHoG8qoge2Ms3wPAKnQHYdvz7IoX
pDahbLbAZPeKW9BDZLs+7V3oBpyw78Lz0f/iBV4f4b3vKjKjRJ9EmcCjJ4uvJMRf
K9UFohhwMqTSdRYbsQ==
-----END CERTIFICATE-----
Certificate:
    Data:
        Version: 3 (0x2)
        Serial Number: 17246491846582506789 (0xef57d8f569389525)
    Signature Algorithm: sha256WithRSAEncryption
        Issuer: C=US, ST=Washington, L=Seattle, O=wolfSSL, OU=Engineering, CN=wolfSSL root CA/emailAddress=info@wolfssl.com
        Validity
            Not Before: Dec  7 22:42:29 2015 GMT
            Not After : Sep  2 22:42:29 2018 GMT
        Subject: C=US, ST=Washington, L=Seattle, O=wolfSSL, OU=Engineering, CN=wolfSSL root CA/emailAddress=info@wolfssl.com
        Subject Public Key Info:
            Public Key Algorithm: rsaEncryption
                Public-Key: (2048 bit)
                Modulus:
                    00:ab:2c:b4:2f:1d:06:09:ef:4e:29:86:84:7e:cc:
                    bf:a6:79:7c:f0:c0:c1:64:25:8c:75:b7:10:05:ca:
                    48:27:0c:0e:32:1c:b0:fe:99:85:39:b6:b9:a2:f7:
                    27:ff:6d:3c:8c:16:73:29:21:7f:8b:a6:54:71:90:
                    ad:cc:05:b9:9f:15:c7:0a:3f:5f:69:f4:0a:5f:8c:
                    71:b5:2c:bf:66:e2:03:9a:32:f4:d2:ec:2a:89:4b:
                    f9:35:88:14:33:47:4e:2e:05:79:01:ed:64:36:76:
                    b9:f8:85:cd:01:88:ac:c5:b2:b1:59:b8:cd:5a:f4:
                    09:09:38:9b:da:5a:cf:ce:78:99:1f:49:3d:41:d6:
                    06:7c:52:99:c8:97:d1:b3:80:3a:a2:4f:36:c4:c5:
                    96:30:77:31:38:c8:70:cc:e1:67:06:b3:2b:2f:93:
                    b5:69:cf:83:7e:88:53:9b:0f:46:21:4c:d6:05:36:
                    44:99:60:68:47:e5:32:01:12:d4:10:73:ae:9a:34:
                    94:fa:6e:b8:58:4f:7b:5b:8a:92:97:ad:fd:97:b9:
                    75:ca:c2:d4:45:7d:17:6b:cd:2f:f3:63:7a:0e:30:
                    b5:0b:a9:d9:a6:7c:74:60:9d:cc:09:03:43:f1:0f:
                    90:d3:b7:fe:6c:9f:d9:cd:78:4b:15:ae:8c:5b:f9:
                    99:81
                Exponent: 65537 (0x10001)
        X509v3 extensions:
            X509v3 Basic Constraints: 
                CA:TRUE
            X509v3 Subject Key Identifier: 
                73:B0:1C:A4:2F:82:CB:CF:47:A5:38:D7:B0:04:82:3A:7E:72:15:21
            X509v3 Authority Key Identifier: 
                keyid:73:B0:1C:A4:2F:82:CB:CF:47:A5:38:D7:B0:04:82:3A:7E:72:15:21
                DirName:/C=US/ST=Washington/L=Seattle/O=wolfSSL/OU=Engineering/CN=wolfSSL root CA/emailAddress=info@wolfssl.com
                serial:EF:57:D8:F5:69:38:95:25

            Authority Information Access: 
                OCSP - URI:http://localhost:22220

    Signature Algorithm: sha256WithRSAEncryption
         55:f6:de:bd:4f:ac:95:3a:cc:86:88:c3:4c:fc:0b:91:86:91:
         c5:95:ca:5c:f8:c3:bb:d7:c1:bd:6e:c3:2f:94:18:c1:d8:e2:
         b5:dd:8b:97:13:3f:5e:76:9c:13:89:14:d4:fc:a6:f7:01:a1:
         c5:cf:0e:4d:00:ae:85:09:54:ce:cf:f8:d5:a7:40:60:ac:38:
         72:75:3b:cb:42:e0:4f:a2:60:34:74:ed:be:65:70:b1:4a:d9:
         99:af:17:0f:6f:f4:b7:f3:67:60:57:17:20:ac:88:65:53:0f:
         8c:bc:0b:51:79:a2:af:12:11:26:5e:55:06:1e:5c:8c:58:18:
         4a:4a:d8:e5:f9:fc:69:98:e6:e5:e6:94:5c:82:ee:bf:07:47:
         18:8c:b4:31:b3:d2:c3:02:dc:53:86:c1:1f:fa:31:3f:8f:d2:
         3c:8a:2b:4d:37:1f:0b:26:78:9b:3b:fd:eb:89:a4:d2:47:5e:
         99:82:d1:63:96:5f:46:a6:18:ab:8c:d8:d2:ec:dc:50:dc:67:
         c1:63:d0:1e:57:04:10:a9:d5:1d:c0:73:e4:ce:b0:79:62:be:
         11:6e:30:53:3b:df:e7:5d:e4:06:b1:80:c8:1a:33:cc:31:84:
         42:0f:55:ac:d8:5a:e5:d0:0c:1f:c6:ca:1d:e4:8c:3e:31:81:
         f9:fe:bc:01
-----BEGIN CERTIFICATE-----
MIIE6TCCA9GgAwIBAgIJAO9X2PVpOJUlMA0GCSqGSIb3DQEBCwUAMIGXMQswCQYD
VQQGEwJVUzETMBEGA1UECAwKV2FzaGluZ3RvbjEQMA4GA1UEBwwHU2VhdHRsZTEQ
MA4GA1UECgwHd29sZlNTTDEUMBIGA1UECwwLRW5naW5lZXJpbmcxGDAWBgNVBAMM
D3dvbGZTU0wgcm9vdCBDQTEfMB0GCSqGSIb3DQEJARYQaW5mb0B3b2xmc3NsLmNv
bTAeFw0xNTEyMDcyMjQyMjlaFw0xODA5MDIyMjQyMjlaMIGXMQswCQYDVQQGEwJV
UzETMBEGA1UECAwKV2FzaGluZ3RvbjEQMA4GA1UEBwwHU2VhdHRsZTEQMA4GA1UE
CgwHd29sZlNTTDEUMBIGA1UECwwLRW5naW5lZXJpbmcxGDAWBgNVBAMMD3dvbGZT
U0wgcm9vdCBDQTEfMB0GCSqGSIb3DQEJARYQaW5mb0B3b2xmc3NsLmNvbTCCASIw
DQYJKoZIhvcNAQEBBQADggEPADCCAQoCggEBAKsstC8dBgnvTimGhH7Mv6Z5fPDA
wWQljHW3EAXKSCcMDjIcsP6ZhTm2uaL3J/9tPIwWcykhf4umVHGQrcwFuZ8Vxwo/
X2n0Cl+McbUsv2biA5oy9NLsKolL+TWIFDNHTi4FeQHtZDZ2ufiFzQGIrMWysVm4
zVr0CQk4m9paz854mR9JPUHWBnxSmciX0bOAOqJPNsTFljB3MTjIcMzhZwazKy+T
tWnPg36IU5sPRiFM1gU2RJlgaEflMgES1BBzrpo0lPpuuFhPe1uKkpet/Ze5dcrC
1EV9F2vNL/Njeg4wtQup2aZ8dGCdzAkDQ/EPkNO3/myf2c14SxWujFv5mYECAwEA
AaOCATQwggEwMAwGA1UdEwQFMAMBAf8wHQYDVR0OBBYEFHOwHKQvgsvPR6U417AE
gjp+chUhMIHMBgNVHSMEgcQwgcGAFHOwHKQvgsvPR6U417AEgjp+chUhoYGdpIGa
MIGXMQswCQYDVQQGEwJVUzETMBEGA1UECAwKV2FzaGluZ3RvbjEQMA4GA1UEBwwH
U2VhdHRsZTEQMA4GA1UECgwHd29sZlNTTDEUMBIGA1UECwwLRW5naW5lZXJpbmcx
GDAWBgNVBAMMD3dvbGZTU0wgcm9vdCBDQTEfMB0GCSqGSIb3DQEJARYQaW5mb0B3
b2xmc3NsLmNvbYIJAO9X2PVpOJUlMDIGCCsGAQUFBwEBBCYwJDAiBggrBgEFBQcw
AYYWaHR0cDovL2xvY2FsaG9zdDoyMjIyMDANBgkqhkiG9w0BAQsFAAOCAQEAVfbe
vU+slTrMhojDTPwLkYaRxZXKXPjDu9fBvW7DL5QYwdjitd2LlxM/XnacE4kU1Pym
9wGhxc8OTQCuhQlUzs/41adAYKw4cnU7y0LgT6JgNHTtvmVwsUrZma8XD2/0t/Nn
YFcXIKyIZVMPjLwLUXmirxIRJl5VBh5cjFgYSkrY5fn8aZjm5eaUXILuvwdHGIy0
MbPSwwLcU4bBH/oxP4/SPIorTTcfCyZ4mzv964mk0kdemYLRY5ZfRqYYq4zY0uzc
UNxnwWPQHlcEEKnVHcBz5M6weWK+EW4wUzvf513kBrGAyBozzDGEQg9VrNha5dAM
H8bKHeSMPjGB+f68AQ==
-----END CERTIFICATE-----
