Certificate:
    Data:
        Version: 3 (0x2)
        Serial Number: 3 (0x3)
        Signature Algorithm: sha256WithRSAEncryption
        Issuer: C=US, ST=Washington, L=Seattle, O=wolfSSL, OU=Engineering, CN=wolfSSL root CA, emailAddress=info@wolfssl.com
        Validity
            Not Before: Nov 13 20:41:35 2025 GMT
            Not After : Aug  9 20:41:35 2028 GMT
        Subject: C=US, ST=Washington, L=Seattle, O=wolfSSL, OU=Engineering, CN=wolfSSL REVOKED intermediate CA, emailAddress=info@wolfssl.com
        Subject Public Key Info:
            Public Key Algorithm: rsaEncryption
                Public-Key: (2048 bit)
                Modulus:
                    00:de:c5:04:10:7d:c2:21:e9:12:45:da:d5:ba:28:
                    fd:a6:f4:30:44:a0:df:f9:70:5e:17:26:97:59:5c:
                    31:eb:13:70:ea:4a:dd:58:3e:4f:33:14:66:59:69:
                    7a:aa:90:e0:7c:c4:b2:36:c1:0a:f4:df:3e:34:6c:
                    1a:e9:2b:f1:a5:92:7e:a9:68:70:ba:a4:68:88:f3:
                    ec:10:40:64:a5:64:7d:d9:1e:51:49:9d:7f:c8:cc:
                    2b:6d:71:2a:06:ff:e6:1f:84:28:8a:c1:ed:a8:52:
                    f4:89:a5:c0:77:d8:13:66:c2:65:a5:63:03:98:b0:
                    4b:05:4f:0c:84:a0:f4:2d:72:73:6b:fa:0d:e1:cf:
                    45:27:ed:a3:8c:02:d7:ee:99:e2:a1:f0:e3:a0:ad:
                    69:ed:59:e4:27:41:8f:ef:fa:83:73:8f:5f:2b:68:
                    89:13:46:26:dc:f6:28:6b:3b:b2:b8:9b:52:2a:17:
                    1b:dc:72:45:73:da:75:24:35:8b:00:5e:23:37:64:
                    6a:16:74:b8:ee:fe:b7:11:71:be:0a:73:c8:54:c2:
                    d9:04:d2:1b:f5:53:ac:8d:2a:4f:fe:33:79:e6:5e:
                    e7:f3:86:d3:dc:bb:4b:d7:39:7f:5b:3c:67:fe:5e:
                    88:51:05:96:f2:b4:9a:45:09:4c:51:f0:6a:4d:88:
                    2a:17
                Exponent: 65537 (0x10001)
        X509v3 extensions:
            X509v3 Basic Constraints: 
                CA:TRUE
            X509v3 Subject Key Identifier: 
                BB:15:9E:32:4D:E0:F8:AA:8A:B0:2E:0C:17:2B:5A:41:74:4B:06:45
            X509v3 Authority Key Identifier: 
                keyid:73:B0:1C:A4:2F:82:CB:CF:47:A5:38:D7:B0:04:82:3A:7E:72:15:21
                DirName:/C=US/ST=Washington/L=Seattle/O=wolfSSL/OU=Engineering/CN=wolfSSL root CA/emailAddress=info@wolfssl.com
                serial:63
            X509v3 Key Usage: 
                Certificate Sign, CRL Sign
            Authority Information Access: 
                OCSP - URI:http://127.0.0.1:22220
    Signature Algorithm: sha256WithRSAEncryption
    Signature Value:
        a0:c9:a3:29:f2:37:cd:0a:57:ac:39:d6:ec:38:b8:3d:a0:5a:
        03:98:12:67:2e:ad:00:48:d0:43:21:66:b1:d1:9e:20:02:f4:
        bd:ff:66:48:1a:e0:63:bc:29:29:2e:03:df:0f:93:eb:d8:a1:
        f0:ad:17:6e:35:31:04:f5:ac:39:78:5f:6e:c3:da:84:44:26:
        7f:5a:a7:5a:3d:59:83:2f:a5:19:03:5c:1f:f0:27:b1:7b:86:
        11:e9:d6:6f:fb:dc:30:74:4d:8f:48:94:93:59:24:67:65:04:
        8c:5d:7a:9f:3b:e2:22:ef:54:d4:fc:12:73:81:b9:4b:3e:bf:
        a7:6e:2d:ee:05:bb:dc:61:70:c5:28:ba:d4:2b:e9:39:eb:d2:
        0e:92:84:ec:5f:80:4d:93:a0:6e:e1:98:83:c0:28:69:a7:0e:
        5a:2b:6d:54:b2:31:ab:ed:54:96:83:0c:3b:25:bd:f5:09:3e:
        0c:22:5e:f3:02:38:ec:0f:ce:d2:4b:9f:93:d1:84:5d:fd:8b:
        e6:91:30:7e:ea:ce:e7:88:36:0d:ea:91:dc:63:8d:e4:08:37:
        98:aa:8a:db:7b:07:01:ba:da:36:79:7b:33:f3:a4:ac:5f:48:
        c4:57:24:d6:82:d9:e7:d8:d6:52:2a:4a:80:9f:b6:20:64:9a:
        b8:f2:77:46
-----BEGIN CERTIFICATE-----
MIIE9jCCA96gAwIBAgIBAzANBgkqhkiG9w0BAQsFADCBlzELMAkGA1UEBhMCVVMx
EzARBgNVBAgMCldhc2hpbmd0b24xEDAOBgNVBAcMB1NlYXR0bGUxEDAOBgNVBAoM
B3dvbGZTU0wxFDASBgNVBAsMC0VuZ2luZWVyaW5nMRgwFgYDVQQDDA93b2xmU1NM
IHJvb3QgQ0ExHzAdBgkqhkiG9w0BCQEWEGluZm9Ad29sZnNzbC5jb20wHhcNMjUx
MTEzMjA0MTM1WhcNMjgwODA5MjA0MTM1WjCBpzELMAkGA1UEBhMCVVMxEzARBgNV
BAgMCldhc2hpbmd0b24xEDAOBgNVBAcMB1NlYXR0bGUxEDAOBgNVBAoMB3dvbGZT
U0wxFDASBgNVBAsMC0VuZ2luZWVyaW5nMSgwJgYDVQQDDB93b2xmU1NMIFJFVk9L
RUQgaW50ZXJtZWRpYXRlIENBMR8wHQYJKoZIhvcNAQkBFhBpbmZvQHdvbGZzc2wu
Y29tMIIBIjANBgkqhkiG9w0BAQEFAAOCAQ8AMIIBCgKCAQEA3sUEEH3CIekSRdrV
uij9pvQwRKDf+XBeFyaXWVwx6xNw6krdWD5PMxRmWWl6qpDgfMSyNsEK9N8+NGwa
6SvxpZJ+qWhwuqRoiPPsEEBkpWR92R5RSZ1/yMwrbXEqBv/mH4QoisHtqFL0iaXA
d9gTZsJlpWMDmLBLBU8MhKD0LXJza/oN4c9FJ+2jjALX7pniofDjoK1p7VnkJ0GP
7/qDc49fK2iJE0Ym3PYoazuyuJtSKhcb3HJFc9p1JDWLAF4jN2RqFnS47v63EXG+
CnPIVMLZBNIb9VOsjSpP/jN55l7n84bT3LtL1zl/Wzxn/l6IUQWW8rSaRQlMUfBq
TYgqFwIDAQABo4IBOTCCATUwDAYDVR0TBAUwAwEB/zAdBgNVHQ4EFgQUuxWeMk3g
+KqKsC4MFytaQXRLBkUwgcQGA1UdIwSBvDCBuYAUc7AcpC+Cy89HpTjXsASCOn5y
FSGhgZ2kgZowgZcxCzAJBgNVBAYTAlVTMRMwEQYDVQQIDApXYXNoaW5ndG9uMRAw
DgYDVQQHDAdTZWF0dGxlMRAwDgYDVQQKDAd3b2xmU1NMMRQwEgYDVQQLDAtFbmdp
bmVlcmluZzEYMBYGA1UEAwwPd29sZlNTTCByb290IENBMR8wHQYJKoZIhvcNAQkB
FhBpbmZvQHdvbGZzc2wuY29tggFjMAsGA1UdDwQEAwIBBjAyBggrBgEFBQcBAQQm
MCQwIgYIKwYBBQUHMAGGFmh0dHA6Ly8xMjcuMC4wLjE6MjIyMjAwDQYJKoZIhvcN
AQELBQADggEBAKDJoynyN80KV6w51uw4uD2gWgOYEmcurQBI0EMhZrHRniAC9L3/
Zkga4GO8KSkuA98Pk+vYofCtF241MQT1rDl4X27D2oREJn9ap1o9WYMvpRkDXB/w
J7F7hhHp1m/73DB0TY9IlJNZJGdlBIxdep874iLvVNT8EnOBuUs+v6duLe4Fu9xh
cMUoutQr6Tnr0g6ShOxfgE2ToG7hmIPAKGmnDlorbVSyMavtVJaDDDslvfUJPgwi
XvMCOOwPztJLn5PRhF39i+aRMH7qzueINg3qkdxjjeQIN5iqitt7BwG62jZ5ezPz
pKxfSMRXJNaC2efY1lIqSoCftiBkmrjyd0Y=
-----END CERTIFICATE-----
Certificate:
    Data:
        Version: 3 (0x2)
        Serial Number: 99 (0x63)
        Signature Algorithm: sha256WithRSAEncryption
        Issuer: C=US, ST=Washington, L=Seattle, O=wolfSSL, OU=Engineering, CN=wolfSSL root CA, emailAddress=info@wolfssl.com
        Validity
            Not Before: Nov 13 20:41:34 2025 GMT
            Not After : Aug  9 20:41:34 2028 GMT
        Subject: C=US, ST=Washington, L=Seattle, O=wolfSSL, OU=Engineering, CN=wolfSSL root CA, emailAddress=info@wolfssl.com
        Subject Public Key Info:
            Public Key Algorithm: rsaEncryption
                Public-Key: (2048 bit)
                Modulus:
                    00:ab:2c:b4:2f:1d:06:09:ef:4e:29:86:84:7e:cc:
                    bf:a6:79:7c:f0:c0:c1:64:25:8c:75:b7:10:05:ca:
                    48:27:0c:0e:32:1c:b0:fe:99:85:39:b6:b9:a2:f7:
                    27:ff:6d:3c:8c:16:73:29:21:7f:8b:a6:54:71:90:
                    ad:cc:05:b9:9f:15:c7:0a:3f:5f:69:f4:0a:5f:8c:
                    71:b5:2c:bf:66:e2:03:9a:32:f4:d2:ec:2a:89:4b:
                    f9:35:88:14:33:47:4e:2e:05:79:01:ed:64:36:76:
                    b9:f8:85:cd:01:88:ac:c5:b2:b1:59:b8:cd:5a:f4:
                    09:09:38:9b:da:5a:cf:ce:78:99:1f:49:3d:41:d6:
                    06:7c:52:99:c8:97:d1:b3:80:3a:a2:4f:36:c4:c5:
                    96:30:77:31:38:c8:70:cc:e1:67:06:b3:2b:2f:93:
                    b5:69:cf:83:7e:88:53:9b:0f:46:21:4c:d6:05:36:
                    44:99:60:68:47:e5:32:01:12:d4:10:73:ae:9a:34:
                    94:fa:6e:b8:58:4f:7b:5b:8a:92:97:ad:fd:97:b9:
                    75:ca:c2:d4:45:7d:17:6b:cd:2f:f3:63:7a:0e:30:
                    b5:0b:a9:d9:a6:7c:74:60:9d:cc:09:03:43:f1:0f:
                    90:d3:b7:fe:6c:9f:d9:cd:78:4b:15:ae:8c:5b:f9:
                    99:81
                Exponent: 65537 (0x10001)
        X509v3 extensions:
            X509v3 Basic Constraints: 
                CA:TRUE
            X509v3 Subject Key Identifier: 
                73:B0:1C:A4:2F:82:CB:CF:47:A5:38:D7:B0:04:82:3A:7E:72:15:21
            X509v3 Authority Key Identifier: 
                keyid:73:B0:1C:A4:2F:82:CB:CF:47:A5:38:D7:B0:04:82:3A:7E:72:15:21
                DirName:/C=US/ST=Washington/L=Seattle/O=wolfSSL/OU=Engineering/CN=wolfSSL root CA/emailAddress=info@wolfssl.com
                serial:63
            X509v3 Key Usage: 
                Certificate Sign, CRL Sign
            Authority Information Access: 
                OCSP - URI:http://127.0.0.1:22220
    Signature Algorithm: sha256WithRSAEncryption
    Signature Value:
        58:41:01:e5:1b:ce:bc:51:0c:23:b2:66:df:39:d9:1e:b1:bd:
        9a:db:fa:da:16:83:26:6e:7e:2e:f9:5d:46:9a:52:a0:09:6f:
        f2:c0:96:ba:49:ad:29:54:06:e9:21:d6:36:5e:d5:43:07:2c:
        5d:4e:b7:bf:7c:e5:91:75:ea:0d:56:7c:a3:fd:82:d8:2e:70:
        fa:fc:ab:36:36:d5:ba:63:d5:42:da:21:b4:50:9a:86:8a:df:
        21:26:03:e8:ca:6f:c7:51:50:6c:cc:40:da:4e:8f:06:15:c0:
        9a:0d:7a:80:2c:95:aa:5a:ad:e2:66:b0:32:d6:74:87:ea:7a:
        b2:46:d5:2c:cf:fa:18:8a:2f:e0:3a:ae:17:6a:f2:ce:75:8d:
        e4:4d:74:8f:e7:c6:21:29:65:5d:41:07:fb:29:d9:be:ea:b2:
        e3:80:07:8c:14:8d:a3:7d:d1:51:af:26:9d:cd:01:d5:80:af:
        68:12:41:2b:eb:94:cc:45:d1:c7:66:f3:f9:15:72:be:94:e3:
        21:6d:f1:08:78:b6:5a:ee:73:09:4b:f4:1a:5e:02:2a:25:f0:
        3d:d2:03:f2:22:15:4b:3d:aa:35:ea:90:ca:44:4e:61:77:db:
        b4:94:46:77:c6:8c:33:09:b6:84:3c:4e:ac:ad:9d:e0:2f:22:
        5a:be:25:19
-----BEGIN CERTIFICATE-----
MIIE5jCCA86gAwIBAgIBYzANBgkqhkiG9w0BAQsFADCBlzELMAkGA1UEBhMCVVMx
EzARBgNVBAgMCldhc2hpbmd0b24xEDAOBgNVBAcMB1NlYXR0bGUxEDAOBgNVBAoM
B3dvbGZTU0wxFDASBgNVBAsMC0VuZ2luZWVyaW5nMRgwFgYDVQQDDA93b2xmU1NM
IHJvb3QgQ0ExHzAdBgkqhkiG9w0BCQEWEGluZm9Ad29sZnNzbC5jb20wHhcNMjUx
MTEzMjA0MTM0WhcNMjgwODA5MjA0MTM0WjCBlzELMAkGA1UEBhMCVVMxEzARBgNV
BAgMCldhc2hpbmd0b24xEDAOBgNVBAcMB1NlYXR0bGUxEDAOBgNVBAoMB3dvbGZT
U0wxFDASBgNVBAsMC0VuZ2luZWVyaW5nMRgwFgYDVQQDDA93b2xmU1NMIHJvb3Qg
Q0ExHzAdBgkqhkiG9w0BCQEWEGluZm9Ad29sZnNzbC5jb20wggEiMA0GCSqGSIb3
DQEBAQUAA4IBDwAwggEKAoIBAQCrLLQvHQYJ704phoR+zL+meXzwwMFkJYx1txAF
ykgnDA4yHLD+mYU5trmi9yf/bTyMFnMpIX+LplRxkK3MBbmfFccKP19p9ApfjHG1
LL9m4gOaMvTS7CqJS/k1iBQzR04uBXkB7WQ2drn4hc0BiKzFsrFZuM1a9AkJOJva
Ws/OeJkfST1B1gZ8UpnIl9GzgDqiTzbExZYwdzE4yHDM4WcGsysvk7Vpz4N+iFOb
D0YhTNYFNkSZYGhH5TIBEtQQc66aNJT6brhYT3tbipKXrf2XuXXKwtRFfRdrzS/z
Y3oOMLULqdmmfHRgncwJA0PxD5DTt/5sn9nNeEsVroxb+ZmBAgMBAAGjggE5MIIB
NTAMBgNVHRMEBTADAQH/MB0GA1UdDgQWBBRzsBykL4LLz0elONewBII6fnIVITCB
xAYDVR0jBIG8MIG5gBRzsBykL4LLz0elONewBII6fnIVIaGBnaSBmjCBlzELMAkG
A1UEBhMCVVMxEzARBgNVBAgMCldhc2hpbmd0b24xEDAOBgNVBAcMB1NlYXR0bGUx
EDAOBgNVBAoMB3dvbGZTU0wxFDASBgNVBAsMC0VuZ2luZWVyaW5nMRgwFgYDVQQD
DA93b2xmU1NMIHJvb3QgQ0ExHzAdBgkqhkiG9w0BCQEWEGluZm9Ad29sZnNzbC5j
b22CAWMwCwYDVR0PBAQDAgEGMDIGCCsGAQUFBwEBBCYwJDAiBggrBgEFBQcwAYYW
aHR0cDovLzEyNy4wLjAuMToyMjIyMDANBgkqhkiG9w0BAQsFAAOCAQEAWEEB5RvO
vFEMI7Jm3znZHrG9mtv62haDJm5+LvldRppSoAlv8sCWukmtKVQG6SHWNl7VQwcs
XU63v3zlkXXqDVZ8o/2C2C5w+vyrNjbVumPVQtohtFCahorfISYD6Mpvx1FQbMxA
2k6PBhXAmg16gCyVqlqt4mawMtZ0h+p6skbVLM/6GIov4DquF2ryznWN5E10j+fG
ISllXUEH+ynZvuqy44AHjBSNo33RUa8mnc0B1YCvaBJBK+uUzEXRx2bz+RVyvpTj
IW3xCHi2Wu5zCUv0Gl4CKiXwPdID8iIVSz2qNeqQykROYXfbtJRGd8aMMwm2hDxO
rK2d4C8iWr4lGQ==
-----END CERTIFICATE-----
