Certificate:
    Data:
        Version: 3 (0x2)
        Serial Number: 4 (0x4)
        Signature Algorithm: sha256WithRSAEncryption
        Issuer: C = US, ST = Washington, L = Seattle, O = wolfSSL, OU = Engineering, CN = wolfSSL root CA, emailAddress = info@wolfssl.com
        Validity
            Not Before: Dec 20 23:07:25 2021 GMT
            Not After : Sep 15 23:07:25 2024 GMT
        Subject: C = US, ST = Washington, L = Seattle, O = wolfSSL, OU = Engineering, CN = wolfSSL OCSP Responder, emailAddress = info@wolfssl.com
        Subject Public Key Info:
            Public Key Algorithm: rsaEncryption
                RSA Public-Key: (2048 bit)
                Modulus:
                    00:b8:ba:23:b4:f6:c3:7b:14:c3:a4:f5:1d:61:a1:
                    f5:1e:63:b9:85:23:34:50:6d:f8:7c:a2:8a:04:8b:
                    d5:75:5c:2d:f7:63:88:d1:07:7a:ea:0b:45:35:2b:
                    eb:1f:b1:22:b4:94:41:38:e2:9d:74:d6:8b:30:22:
                    10:51:c5:db:ca:3f:46:2b:fe:e5:5a:3f:41:74:67:
                    75:95:a9:94:d5:c3:ee:42:f8:8d:eb:92:95:e1:d9:
                    65:b7:43:c4:18:de:16:80:90:ce:24:35:21:c4:55:
                    ac:5a:51:e0:2e:2d:b3:0a:5a:4f:4a:73:31:50:ee:
                    4a:16:bd:39:8b:ad:05:48:87:b1:99:e2:10:a7:06:
                    72:67:ca:5c:d1:97:bd:c8:f1:76:f8:e0:4a:ec:bc:
                    93:f4:66:4c:28:71:d1:d8:66:03:b4:90:30:bb:17:
                    b0:fe:97:f5:1e:e8:c7:5d:9b:8b:11:19:12:3c:ab:
                    82:71:78:ff:ae:3f:32:b2:08:71:b2:1b:8c:27:ac:
                    11:b8:d8:43:49:cf:b0:70:b1:f0:8c:ae:da:24:87:
                    17:3b:d8:04:65:6c:00:76:50:ef:15:08:d7:b4:73:
                    68:26:14:87:95:c3:5f:6e:61:b8:87:84:fa:80:1a:
                    0a:8b:98:f3:e3:ff:4e:44:1c:65:74:7c:71:54:65:
                    e5:39
                Exponent: 65537 (0x10001)
        X509v3 extensions:
            X509v3 Basic Constraints: 
                CA:FALSE
            X509v3 Subject Key Identifier: 
                32:67:E1:B1:79:D2:81:FC:9F:23:0C:70:40:50:B5:46:56:B8:30:36
            X509v3 Authority Key Identifier: 
                keyid:73:B0:1C:A4:2F:82:CB:CF:47:A5:38:D7:B0:04:82:3A:7E:72:15:21
                DirName:/C=US/ST=Washington/L=Seattle/O=wolfSSL/OU=Engineering/CN=wolfSSL root CA/emailAddress=info@wolfssl.com
                serial:63

            X509v3 Extended Key Usage: 
                OCSP Signing
    Signature Algorithm: sha256WithRSAEncryption
         59:f9:27:0e:01:0a:bc:99:65:c1:32:bc:90:f8:12:32:a1:9f:
         00:4b:33:d0:b4:54:fb:8e:13:e8:ab:79:bd:f0:9f:47:e1:88:
         88:b3:e2:84:f5:6f:0e:49:8e:76:92:72:0b:32:c1:42:34:1f:
         f5:bd:bc:1e:df:60:45:bb:7e:4c:78:b8:a3:53:be:b1:a8:ab:
         97:36:1e:22:be:f4:7d:2c:98:d9:ae:0e:7c:0b:9c:e0:4c:29:
         72:8c:1d:bd:32:6b:f9:42:d9:14:d7:4b:c0:30:97:39:a7:54:
         6f:67:27:ca:9d:f0:c4:03:fb:34:16:6f:c2:d4:a7:d5:55:ac:
         a7:ce:dd:fc:66:67:f3:b7:79:c6:b1:a6:c8:22:ad:84:43:c2:
         0e:4d:a0:1f:58:24:45:21:c0:f7:68:11:49:dd:72:9c:77:3c:
         4d:ee:cd:d1:86:e7:1c:ae:62:72:4d:a6:ae:56:2c:f8:48:68:
         54:de:d5:68:10:3b:97:bd:f6:1f:74:98:5f:11:a9:60:b8:53:
         75:31:37:e1:75:77:9b:e3:76:ed:b5:c7:00:35:4e:24:6a:70:
         d9:5c:aa:0b:76:07:65:a1:08:fc:ac:76:0c:a5:c5:65:a2:50:
         55:d7:d6:6a:0e:95:09:8d:35:bd:f4:fc:e6:12:77:70:98:f0:
         5d:92:d1:30
-----BEGIN CERTIFICATE-----
MIIEvjCCA6agAwIBAgIBBDANBgkqhkiG9w0BAQsFADCBlzELMAkGA1UEBhMCVVMx
EzARBgNVBAgMCldhc2hpbmd0b24xEDAOBgNVBAcMB1NlYXR0bGUxEDAOBgNVBAoM
B3dvbGZTU0wxFDASBgNVBAsMC0VuZ2luZWVyaW5nMRgwFgYDVQQDDA93b2xmU1NM
IHJvb3QgQ0ExHzAdBgkqhkiG9w0BCQEWEGluZm9Ad29sZnNzbC5jb20wHhcNMjEx
MjIwMjMwNzI1WhcNMjQwOTE1MjMwNzI1WjCBnjELMAkGA1UEBhMCVVMxEzARBgNV
BAgMCldhc2hpbmd0b24xEDAOBgNVBAcMB1NlYXR0bGUxEDAOBgNVBAoMB3dvbGZT
U0wxFDASBgNVBAsMC0VuZ2luZWVyaW5nMR8wHQYDVQQDDBZ3b2xmU1NMIE9DU1Ag
UmVzcG9uZGVyMR8wHQYJKoZIhvcNAQkBFhBpbmZvQHdvbGZzc2wuY29tMIIBIjAN
BgkqhkiG9w0BAQEFAAOCAQ8AMIIBCgKCAQEAuLojtPbDexTDpPUdYaH1HmO5hSM0
UG34fKKKBIvVdVwt92OI0Qd66gtFNSvrH7EitJRBOOKddNaLMCIQUcXbyj9GK/7l
Wj9BdGd1lamU1cPuQviN65KV4dllt0PEGN4WgJDOJDUhxFWsWlHgLi2zClpPSnMx
UO5KFr05i60FSIexmeIQpwZyZ8pc0Ze9yPF2+OBK7LyT9GZMKHHR2GYDtJAwuxew
/pf1HujHXZuLERkSPKuCcXj/rj8ysghxshuMJ6wRuNhDSc+wcLHwjK7aJIcXO9gE
ZWwAdlDvFQjXtHNoJhSHlcNfbmG4h4T6gBoKi5jz4/9ORBxldHxxVGXlOQIDAQAB
o4IBCjCCAQYwCQYDVR0TBAIwADAdBgNVHQ4EFgQUMmfhsXnSgfyfIwxwQFC1Rla4
MDYwgcQGA1UdIwSBvDCBuYAUc7AcpC+Cy89HpTjXsASCOn5yFSGhgZ2kgZowgZcx
CzAJBgNVBAYTAlVTMRMwEQYDVQQIDApXYXNoaW5ndG9uMRAwDgYDVQQHDAdTZWF0
dGxlMRAwDgYDVQQKDAd3b2xmU1NMMRQwEgYDVQQLDAtFbmdpbmVlcmluZzEYMBYG
A1UEAwwPd29sZlNTTCByb290IENBMR8wHQYJKoZIhvcNAQkBFhBpbmZvQHdvbGZz
c2wuY29tggFjMBMGA1UdJQQMMAoGCCsGAQUFBwMJMA0GCSqGSIb3DQEBCwUAA4IB
AQBZ+ScOAQq8mWXBMryQ+BIyoZ8ASzPQtFT7jhPoq3m98J9H4YiIs+KE9W8OSY52
knILMsFCNB/1vbwe32BFu35MeLijU76xqKuXNh4ivvR9LJjZrg58C5zgTClyjB29
Mmv5QtkU10vAMJc5p1RvZyfKnfDEA/s0Fm/C1KfVVaynzt38Zmfzt3nGsabIIq2E
Q8IOTaAfWCRFIcD3aBFJ3XKcdzxN7s3RhuccrmJyTaauViz4SGhU3tVoEDuXvfYf
dJhfEalguFN1MTfhdXeb43bttccANU4kanDZXKoLdgdloQj8rHYMpcVlolBV19Zq
DpUJjTW99PzmEndwmPBdktEw
-----END CERTIFICATE-----
Certificate:
    Data:
        Version: 3 (0x2)
        Serial Number: 99 (0x63)
        Signature Algorithm: sha256WithRSAEncryption
        Issuer: C = US, ST = Washington, L = Seattle, O = wolfSSL, OU = Engineering, CN = wolfSSL root CA, emailAddress = info@wolfssl.com
        Validity
            Not Before: Dec 20 23:07:25 2021 GMT
            Not After : Sep 15 23:07:25 2024 GMT
        Subject: C = US, ST = Washington, L = Seattle, O = wolfSSL, OU = Engineering, CN = wolfSSL root CA, emailAddress = info@wolfssl.com
        Subject Public Key Info:
            Public Key Algorithm: rsaEncryption
                RSA Public-Key: (2048 bit)
                Modulus:
                    00:ab:2c:b4:2f:1d:06:09:ef:4e:29:86:84:7e:cc:
                    bf:a6:79:7c:f0:c0:c1:64:25:8c:75:b7:10:05:ca:
                    48:27:0c:0e:32:1c:b0:fe:99:85:39:b6:b9:a2:f7:
                    27:ff:6d:3c:8c:16:73:29:21:7f:8b:a6:54:71:90:
                    ad:cc:05:b9:9f:15:c7:0a:3f:5f:69:f4:0a:5f:8c:
                    71:b5:2c:bf:66:e2:03:9a:32:f4:d2:ec:2a:89:4b:
                    f9:35:88:14:33:47:4e:2e:05:79:01:ed:64:36:76:
                    b9:f8:85:cd:01:88:ac:c5:b2:b1:59:b8:cd:5a:f4:
                    09:09:38:9b:da:5a:cf:ce:78:99:1f:49:3d:41:d6:
                    06:7c:52:99:c8:97:d1:b3:80:3a:a2:4f:36:c4:c5:
                    96:30:77:31:38:c8:70:cc:e1:67:06:b3:2b:2f:93:
                    b5:69:cf:83:7e:88:53:9b:0f:46:21:4c:d6:05:36:
                    44:99:60:68:47:e5:32:01:12:d4:10:73:ae:9a:34:
                    94:fa:6e:b8:58:4f:7b:5b:8a:92:97:ad:fd:97:b9:
                    75:ca:c2:d4:45:7d:17:6b:cd:2f:f3:63:7a:0e:30:
                    b5:0b:a9:d9:a6:7c:74:60:9d:cc:09:03:43:f1:0f:
                    90:d3:b7:fe:6c:9f:d9:cd:78:4b:15:ae:8c:5b:f9:
                    99:81
                Exponent: 65537 (0x10001)
        X509v3 extensions:
            X509v3 Basic Constraints: 
                CA:TRUE
            X509v3 Subject Key Identifier: 
                73:B0:1C:A4:2F:82:CB:CF:47:A5:38:D7:B0:04:82:3A:7E:72:15:21
            X509v3 Authority Key Identifier: 
                keyid:73:B0:1C:A4:2F:82:CB:CF:47:A5:38:D7:B0:04:82:3A:7E:72:15:21
                DirName:/C=US/ST=Washington/L=Seattle/O=wolfSSL/OU=Engineering/CN=wolfSSL root CA/emailAddress=info@wolfssl.com
                serial:63

            X509v3 Key Usage: 
                Certificate Sign, CRL Sign
            Authority Information Access: 
                OCSP - URI:http://127.0.0.1:22220

    Signature Algorithm: sha256WithRSAEncryption
         47:c1:c3:44:7c:3a:d0:65:5b:74:2c:63:3f:73:84:e5:6b:d9:
         e7:45:33:0f:6a:80:49:2d:8f:23:92:b6:ef:22:e6:d5:07:4c:
         c7:05:e0:d9:d5:29:b0:bf:a4:9f:b5:fa:c7:d5:79:aa:3f:2e:
         9b:7d:c2:57:dc:41:cb:d7:63:27:28:8d:13:77:67:63:82:3d:
         85:1a:06:7e:f9:4d:7c:3a:ca:b5:dd:50:b1:be:5f:d3:8c:0f:
         73:90:5c:79:0f:c9:86:d4:fd:4b:fc:3e:8c:01:55:1b:2f:33:
         6d:88:6e:0f:bd:21:38:64:96:7d:2d:95:9e:98:51:77:56:39:
         6b:a8:2f:e0:9f:16:a4:1d:17:67:23:a3:8b:4f:1a:71:05:f0:
         eb:e0:a7:7a:8f:ab:9f:f4:81:a8:12:f8:09:a3:f7:83:22:8c:
         36:5d:45:7f:61:ea:9c:68:96:94:7b:d4:4d:8b:73:d0:65:20:
         63:cf:75:9d:96:a2:bf:23:f3:2d:60:61:e5:7d:b3:2e:1b:11:
         01:33:d6:58:6d:b2:c8:d2:5a:78:3a:df:56:fd:15:ac:13:33:
         62:ce:ba:99:85:7c:00:05:69:d0:fd:ad:87:e5:4d:d3:16:43:
         44:a6:49:84:74:c7:ea:f0:24:50:c9:c9:4a:5d:d8:be:66:fe:
         00:47:3f:c0
-----BEGIN CERTIFICATE-----
MIIE5jCCA86gAwIBAgIBYzANBgkqhkiG9w0BAQsFADCBlzELMAkGA1UEBhMCVVMx
EzARBgNVBAgMCldhc2hpbmd0b24xEDAOBgNVBAcMB1NlYXR0bGUxEDAOBgNVBAoM
B3dvbGZTU0wxFDASBgNVBAsMC0VuZ2luZWVyaW5nMRgwFgYDVQQDDA93b2xmU1NM
IHJvb3QgQ0ExHzAdBgkqhkiG9w0BCQEWEGluZm9Ad29sZnNzbC5jb20wHhcNMjEx
MjIwMjMwNzI1WhcNMjQwOTE1MjMwNzI1WjCBlzELMAkGA1UEBhMCVVMxEzARBgNV
BAgMCldhc2hpbmd0b24xEDAOBgNVBAcMB1NlYXR0bGUxEDAOBgNVBAoMB3dvbGZT
U0wxFDASBgNVBAsMC0VuZ2luZWVyaW5nMRgwFgYDVQQDDA93b2xmU1NMIHJvb3Qg
Q0ExHzAdBgkqhkiG9w0BCQEWEGluZm9Ad29sZnNzbC5jb20wggEiMA0GCSqGSIb3
DQEBAQUAA4IBDwAwggEKAoIBAQCrLLQvHQYJ704phoR+zL+meXzwwMFkJYx1txAF
ykgnDA4yHLD+mYU5trmi9yf/bTyMFnMpIX+LplRxkK3MBbmfFccKP19p9ApfjHG1
LL9m4gOaMvTS7CqJS/k1iBQzR04uBXkB7WQ2drn4hc0BiKzFsrFZuM1a9AkJOJva
Ws/OeJkfST1B1gZ8UpnIl9GzgDqiTzbExZYwdzE4yHDM4WcGsysvk7Vpz4N+iFOb
D0YhTNYFNkSZYGhH5TIBEtQQc66aNJT6brhYT3tbipKXrf2XuXXKwtRFfRdrzS/z
Y3oOMLULqdmmfHRgncwJA0PxD5DTt/5sn9nNeEsVroxb+ZmBAgMBAAGjggE5MIIB
NTAMBgNVHRMEBTADAQH/MB0GA1UdDgQWBBRzsBykL4LLz0elONewBII6fnIVITCB
xAYDVR0jBIG8MIG5gBRzsBykL4LLz0elONewBII6fnIVIaGBnaSBmjCBlzELMAkG
A1UEBhMCVVMxEzARBgNVBAgMCldhc2hpbmd0b24xEDAOBgNVBAcMB1NlYXR0bGUx
EDAOBgNVBAoMB3dvbGZTU0wxFDASBgNVBAsMC0VuZ2luZWVyaW5nMRgwFgYDVQQD
DA93b2xmU1NMIHJvb3QgQ0ExHzAdBgkqhkiG9w0BCQEWEGluZm9Ad29sZnNzbC5j
b22CAWMwCwYDVR0PBAQDAgEGMDIGCCsGAQUFBwEBBCYwJDAiBggrBgEFBQcwAYYW
aHR0cDovLzEyNy4wLjAuMToyMjIyMDANBgkqhkiG9w0BAQsFAAOCAQEAR8HDRHw6
0GVbdCxjP3OE5WvZ50UzD2qASS2PI5K27yLm1QdMxwXg2dUpsL+kn7X6x9V5qj8u
m33CV9xBy9djJyiNE3dnY4I9hRoGfvlNfDrKtd1Qsb5f04wPc5BceQ/JhtT9S/w+
jAFVGy8zbYhuD70hOGSWfS2VnphRd1Y5a6gv4J8WpB0XZyOji08acQXw6+Cneo+r
n/SBqBL4CaP3gyKMNl1Ff2HqnGiWlHvUTYtz0GUgY891nZaivyPzLWBh5X2zLhsR
ATPWWG2yyNJaeDrfVv0VrBMzYs66mYV8AAVp0P2th+VN0xZDRKZJhHTH6vAkUMnJ
Sl3Yvmb+AEc/wA==
-----END CERTIFICATE-----
