Certificate:
    Data:
        Version: 3 (0x2)
        Serial Number: 3 (0x3)
    Signature Algorithm: sha256WithRSAEncryption
        Issuer: C=US, ST=Washington, L=Seattle, O=wolfSSL, OU=Engineering, CN=wolfSSL root CA/emailAddress=info@wolfssl.com
        Validity
            Not Before: Dec 14 22:25:23 2015 GMT
            Not After : Sep  9 22:25:23 2018 GMT
        Subject: C=US, ST=Washington, L=Seattle, O=wolfSSL, OU=Engineering, CN=wolfSSL OCSP Responder/emailAddress=info@wolfssl.com
        Subject Public Key Info:
            Public Key Algorithm: rsaEncryption
                Public-Key: (2048 bit)
                Modulus:
                    00:b8:ba:23:b4:f6:c3:7b:14:c3:a4:f5:1d:61:a1:
                    f5:1e:63:b9:85:23:34:50:6d:f8:7c:a2:8a:04:8b:
                    d5:75:5c:2d:f7:63:88:d1:07:7a:ea:0b:45:35:2b:
                    eb:1f:b1:22:b4:94:41:38:e2:9d:74:d6:8b:30:22:
                    10:51:c5:db:ca:3f:46:2b:fe:e5:5a:3f:41:74:67:
                    75:95:a9:94:d5:c3:ee:42:f8:8d:eb:92:95:e1:d9:
                    65:b7:43:c4:18:de:16:80:90:ce:24:35:21:c4:55:
                    ac:5a:51:e0:2e:2d:b3:0a:5a:4f:4a:73:31:50:ee:
                    4a:16:bd:39:8b:ad:05:48:87:b1:99:e2:10:a7:06:
                    72:67:ca:5c:d1:97:bd:c8:f1:76:f8:e0:4a:ec:bc:
                    93:f4:66:4c:28:71:d1:d8:66:03:b4:90:30:bb:17:
                    b0:fe:97:f5:1e:e8:c7:5d:9b:8b:11:19:12:3c:ab:
                    82:71:78:ff:ae:3f:32:b2:08:71:b2:1b:8c:27:ac:
                    11:b8:d8:43:49:cf:b0:70:b1:f0:8c:ae:da:24:87:
                    17:3b:d8:04:65:6c:00:76:50:ef:15:08:d7:b4:73:
                    68:26:14:87:95:c3:5f:6e:61:b8:87:84:fa:80:1a:
                    0a:8b:98:f3:e3:ff:4e:44:1c:65:74:7c:71:54:65:
                    e5:39
                Exponent: 65537 (0x10001)
        X509v3 extensions:
            X509v3 Basic Constraints: 
                CA:FALSE
            X509v3 Subject Key Identifier: 
                32:67:E1:B1:79:D2:81:FC:9F:23:0C:70:40:50:B5:46:56:B8:30:36
            X509v3 Authority Key Identifier: 
                keyid:73:B0:1C:A4:2F:82:CB:CF:47:A5:38:D7:B0:04:82:3A:7E:72:15:21
                DirName:/C=US/ST=Washington/L=Seattle/O=wolfSSL/OU=Engineering/CN=wolfSSL root CA/emailAddress=info@wolfssl.com
                serial:63

            X509v3 Extended Key Usage: 
                OCSP Signing
    Signature Algorithm: sha256WithRSAEncryption
         73:47:ce:37:60:b0:51:a2:91:81:1c:1f:b6:b8:ca:4f:c8:95:
         68:cc:d3:4f:62:df:ff:c0:29:55:16:b2:df:2c:bf:73:b3:7c:
         95:a1:94:cc:a2:9f:30:60:92:fb:ec:31:21:14:09:60:ab:67:
         f5:66:e4:bd:fd:18:a9:0b:d7:5e:61:39:37:cb:da:51:84:aa:
         06:38:68:27:eb:16:d7:60:91:23:5e:87:40:7f:e3:ce:40:f1:
         1f:99:50:2b:ba:69:b5:4b:ca:15:d7:9a:0d:9d:8f:ae:83:82:
         fb:fc:0a:37:a8:2b:fb:0f:8d:c0:f4:59:3e:7b:81:78:a0:b2:
         a2:64:55:41:bc:19:02:8b:de:db:8b:6c:43:fd:f5:23:e2:25:
         63:33:71:53:e7:eb:05:75:3a:56:4b:53:e1:5f:d1:82:c7:fd:
         80:64:27:93:a6:81:38:51:09:25:fc:de:9f:84:f1:b2:07:44:
         5a:f9:b1:70:d6:1b:1e:4f:7c:c9:ca:bd:d7:df:28:86:ce:8d:
         96:f5:54:94:0a:bb:97:5a:04:a4:05:9d:8d:b8:06:0e:ba:fb:
         5a:e1:3f:f2:90:59:1b:dd:e2:23:22:e2:7f:6a:f7:b7:d7:54:
         2b:ca:20:78:2a:6e:65:de:05:50:7d:40:4d:4b:3c:42:38:f5:
         98:e0:23:c9
-----BEGIN CERTIFICATE-----
MIIEvjCCA6agAwIBAgIBAzANBgkqhkiG9w0BAQsFADCBlzELMAkGA1UEBhMCVVMx
EzARBgNVBAgMCldhc2hpbmd0b24xEDAOBgNVBAcMB1NlYXR0bGUxEDAOBgNVBAoM
B3dvbGZTU0wxFDASBgNVBAsMC0VuZ2luZWVyaW5nMRgwFgYDVQQDDA93b2xmU1NM
IHJvb3QgQ0ExHzAdBgkqhkiG9w0BCQEWEGluZm9Ad29sZnNzbC5jb20wHhcNMTUx
MjE0MjIyNTIzWhcNMTgwOTA5MjIyNTIzWjCBnjELMAkGA1UEBhMCVVMxEzARBgNV
BAgMCldhc2hpbmd0b24xEDAOBgNVBAcMB1NlYXR0bGUxEDAOBgNVBAoMB3dvbGZT
U0wxFDASBgNVBAsMC0VuZ2luZWVyaW5nMR8wHQYDVQQDDBZ3b2xmU1NMIE9DU1Ag
UmVzcG9uZGVyMR8wHQYJKoZIhvcNAQkBFhBpbmZvQHdvbGZzc2wuY29tMIIBIjAN
BgkqhkiG9w0BAQEFAAOCAQ8AMIIBCgKCAQEAuLojtPbDexTDpPUdYaH1HmO5hSM0
UG34fKKKBIvVdVwt92OI0Qd66gtFNSvrH7EitJRBOOKddNaLMCIQUcXbyj9GK/7l
Wj9BdGd1lamU1cPuQviN65KV4dllt0PEGN4WgJDOJDUhxFWsWlHgLi2zClpPSnMx
UO5KFr05i60FSIexmeIQpwZyZ8pc0Ze9yPF2+OBK7LyT9GZMKHHR2GYDtJAwuxew
/pf1HujHXZuLERkSPKuCcXj/rj8ysghxshuMJ6wRuNhDSc+wcLHwjK7aJIcXO9gE
ZWwAdlDvFQjXtHNoJhSHlcNfbmG4h4T6gBoKi5jz4/9ORBxldHxxVGXlOQIDAQAB
o4IBCjCCAQYwCQYDVR0TBAIwADAdBgNVHQ4EFgQUMmfhsXnSgfyfIwxwQFC1Rla4
MDYwgcQGA1UdIwSBvDCBuYAUc7AcpC+Cy89HpTjXsASCOn5yFSGhgZ2kgZowgZcx
CzAJBgNVBAYTAlVTMRMwEQYDVQQIDApXYXNoaW5ndG9uMRAwDgYDVQQHDAdTZWF0
dGxlMRAwDgYDVQQKDAd3b2xmU1NMMRQwEgYDVQQLDAtFbmdpbmVlcmluZzEYMBYG
A1UEAwwPd29sZlNTTCByb290IENBMR8wHQYJKoZIhvcNAQkBFhBpbmZvQHdvbGZz
c2wuY29tggFjMBMGA1UdJQQMMAoGCCsGAQUFBwMJMA0GCSqGSIb3DQEBCwUAA4IB
AQBzR843YLBRopGBHB+2uMpPyJVozNNPYt//wClVFrLfLL9zs3yVoZTMop8wYJL7
7DEhFAlgq2f1ZuS9/RipC9deYTk3y9pRhKoGOGgn6xbXYJEjXodAf+POQPEfmVAr
umm1S8oV15oNnY+ug4L7/Ao3qCv7D43A9Fk+e4F4oLKiZFVBvBkCi97bi2xD/fUj
4iVjM3FT5+sFdTpWS1PhX9GCx/2AZCeTpoE4UQkl/N6fhPGyB0Ra+bFw1hseT3zJ
yr3X3yiGzo2W9VSUCruXWgSkBZ2NuAYOuvta4T/ykFkb3eIjIuJ/ave311QryiB4
Km5l3gVQfUBNSzxCOPWY4CPJ
-----END CERTIFICATE-----
Certificate:
    Data:
        Version: 3 (0x2)
        Serial Number: 99 (0x63)
    Signature Algorithm: sha256WithRSAEncryption
        Issuer: C=US, ST=Washington, L=Seattle, O=wolfSSL, OU=Engineering, CN=wolfSSL root CA/emailAddress=info@wolfssl.com
        Validity
            Not Before: Dec 14 22:25:23 2015 GMT
            Not After : Sep  9 22:25:23 2018 GMT
        Subject: C=US, ST=Washington, L=Seattle, O=wolfSSL, OU=Engineering, CN=wolfSSL root CA/emailAddress=info@wolfssl.com
        Subject Public Key Info:
            Public Key Algorithm: rsaEncryption
                Public-Key: (2048 bit)
                Modulus:
                    00:ab:2c:b4:2f:1d:06:09:ef:4e:29:86:84:7e:cc:
                    bf:a6:79:7c:f0:c0:c1:64:25:8c:75:b7:10:05:ca:
                    48:27:0c:0e:32:1c:b0:fe:99:85:39:b6:b9:a2:f7:
                    27:ff:6d:3c:8c:16:73:29:21:7f:8b:a6:54:71:90:
                    ad:cc:05:b9:9f:15:c7:0a:3f:5f:69:f4:0a:5f:8c:
                    71:b5:2c:bf:66:e2:03:9a:32:f4:d2:ec:2a:89:4b:
                    f9:35:88:14:33:47:4e:2e:05:79:01:ed:64:36:76:
                    b9:f8:85:cd:01:88:ac:c5:b2:b1:59:b8:cd:5a:f4:
                    09:09:38:9b:da:5a:cf:ce:78:99:1f:49:3d:41:d6:
                    06:7c:52:99:c8:97:d1:b3:80:3a:a2:4f:36:c4:c5:
                    96:30:77:31:38:c8:70:cc:e1:67:06:b3:2b:2f:93:
                    b5:69:cf:83:7e:88:53:9b:0f:46:21:4c:d6:05:36:
                    44:99:60:68:47:e5:32:01:12:d4:10:73:ae:9a:34:
                    94:fa:6e:b8:58:4f:7b:5b:8a:92:97:ad:fd:97:b9:
                    75:ca:c2:d4:45:7d:17:6b:cd:2f:f3:63:7a:0e:30:
                    b5:0b:a9:d9:a6:7c:74:60:9d:cc:09:03:43:f1:0f:
                    90:d3:b7:fe:6c:9f:d9:cd:78:4b:15:ae:8c:5b:f9:
                    99:81
                Exponent: 65537 (0x10001)
        X509v3 extensions:
            X509v3 Basic Constraints: 
                CA:TRUE
            X509v3 Subject Key Identifier: 
                73:B0:1C:A4:2F:82:CB:CF:47:A5:38:D7:B0:04:82:3A:7E:72:15:21
            X509v3 Authority Key Identifier: 
                keyid:73:B0:1C:A4:2F:82:CB:CF:47:A5:38:D7:B0:04:82:3A:7E:72:15:21
                DirName:/C=US/ST=Washington/L=Seattle/O=wolfSSL/OU=Engineering/CN=wolfSSL root CA/emailAddress=info@wolfssl.com
                serial:63

            X509v3 Key Usage: 
                Certificate Sign, CRL Sign
            Authority Information Access: 
                OCSP - URI:http://localhost:22220

    Signature Algorithm: sha256WithRSAEncryption
         99:fc:b4:e2:1b:08:32:4b:8e:b3:fa:b4:08:53:f6:55:36:01:
         ec:25:89:80:64:60:31:3b:0c:a3:6f:be:73:f7:1a:12:d1:7e:
         3d:db:80:30:72:a8:26:63:35:80:81:b6:61:16:34:c0:fd:e6:
         f3:dd:a5:4a:dc:7e:85:87:57:5d:48:8e:09:46:89:89:f8:66:
         56:b5:7d:57:8e:d2:b7:77:3a:b7:51:15:97:fa:e9:d7:72:a5:
         e0:e6:51:9a:f3:d8:89:7d:2c:a5:bf:34:7b:d8:f4:2f:b5:4e:
         63:97:a7:5b:69:1a:e2:1c:d8:5f:ca:a8:61:79:dc:01:40:b7:
         43:09:a7:31:a2:dd:b2:c2:0d:98:06:41:c6:60:a7:25:21:cd:
         45:84:fb:34:c7:3b:74:ed:92:c9:d9:34:8e:dc:d5:43:9e:e4:
         60:ff:b1:d8:a0:5a:5d:7d:53:8e:62:e7:b3:8c:64:cf:42:0d:
         c6:e5:13:20:20:be:4b:60:5f:6f:f3:15:5b:9c:82:62:03:9f:
         94:d4:b2:8b:86:af:ed:3b:8f:20:68:4d:14:78:23:37:d7:aa:
         d9:5e:89:e5:80:7a:6b:a4:b8:63:6f:df:32:ad:cd:5e:5f:60:
         f8:e4:fc:3a:ce:67:e7:7a:3b:68:36:98:15:4c:05:f0:53:e7:
         d5:08:52:a3
-----BEGIN CERTIFICATE-----
MIIE5jCCA86gAwIBAgIBYzANBgkqhkiG9w0BAQsFADCBlzELMAkGA1UEBhMCVVMx
EzARBgNVBAgMCldhc2hpbmd0b24xEDAOBgNVBAcMB1NlYXR0bGUxEDAOBgNVBAoM
B3dvbGZTU0wxFDASBgNVBAsMC0VuZ2luZWVyaW5nMRgwFgYDVQQDDA93b2xmU1NM
IHJvb3QgQ0ExHzAdBgkqhkiG9w0BCQEWEGluZm9Ad29sZnNzbC5jb20wHhcNMTUx
MjE0MjIyNTIzWhcNMTgwOTA5MjIyNTIzWjCBlzELMAkGA1UEBhMCVVMxEzARBgNV
BAgMCldhc2hpbmd0b24xEDAOBgNVBAcMB1NlYXR0bGUxEDAOBgNVBAoMB3dvbGZT
U0wxFDASBgNVBAsMC0VuZ2luZWVyaW5nMRgwFgYDVQQDDA93b2xmU1NMIHJvb3Qg
Q0ExHzAdBgkqhkiG9w0BCQEWEGluZm9Ad29sZnNzbC5jb20wggEiMA0GCSqGSIb3
DQEBAQUAA4IBDwAwggEKAoIBAQCrLLQvHQYJ704phoR+zL+meXzwwMFkJYx1txAF
ykgnDA4yHLD+mYU5trmi9yf/bTyMFnMpIX+LplRxkK3MBbmfFccKP19p9ApfjHG1
LL9m4gOaMvTS7CqJS/k1iBQzR04uBXkB7WQ2drn4hc0BiKzFsrFZuM1a9AkJOJva
Ws/OeJkfST1B1gZ8UpnIl9GzgDqiTzbExZYwdzE4yHDM4WcGsysvk7Vpz4N+iFOb
D0YhTNYFNkSZYGhH5TIBEtQQc66aNJT6brhYT3tbipKXrf2XuXXKwtRFfRdrzS/z
Y3oOMLULqdmmfHRgncwJA0PxD5DTt/5sn9nNeEsVroxb+ZmBAgMBAAGjggE5MIIB
NTAMBgNVHRMEBTADAQH/MB0GA1UdDgQWBBRzsBykL4LLz0elONewBII6fnIVITCB
xAYDVR0jBIG8MIG5gBRzsBykL4LLz0elONewBII6fnIVIaGBnaSBmjCBlzELMAkG
A1UEBhMCVVMxEzARBgNVBAgMCldhc2hpbmd0b24xEDAOBgNVBAcMB1NlYXR0bGUx
EDAOBgNVBAoMB3dvbGZTU0wxFDASBgNVBAsMC0VuZ2luZWVyaW5nMRgwFgYDVQQD
DA93b2xmU1NMIHJvb3QgQ0ExHzAdBgkqhkiG9w0BCQEWEGluZm9Ad29sZnNzbC5j
b22CAWMwCwYDVR0PBAQDAgEGMDIGCCsGAQUFBwEBBCYwJDAiBggrBgEFBQcwAYYW
aHR0cDovL2xvY2FsaG9zdDoyMjIyMDANBgkqhkiG9w0BAQsFAAOCAQEAmfy04hsI
MkuOs/q0CFP2VTYB7CWJgGRgMTsMo2++c/caEtF+PduAMHKoJmM1gIG2YRY0wP3m
892lStx+hYdXXUiOCUaJifhmVrV9V47St3c6t1EVl/rp13Kl4OZRmvPYiX0spb80
e9j0L7VOY5enW2ka4hzYX8qoYXncAUC3QwmnMaLdssINmAZBxmCnJSHNRYT7NMc7
dO2Sydk0jtzVQ57kYP+x2KBaXX1TjmLns4xkz0INxuUTICC+S2Bfb/MVW5yCYgOf
lNSyi4av7TuPIGhNFHgjN9eq2V6J5YB6a6S4Y2/fMq3NXl9g+OT8Os5n53o7aDaY
FUwF8FPn1QhSow==
-----END CERTIFICATE-----
