Certificate:
    Data:
        Version: 3 (0x2)
        Serial Number: 4 (0x4)
        Signature Algorithm: sha256WithRSAEncryption
        Issuer: C=US, ST=Washington, L=Seattle, O=wolfSSL, OU=Engineering, CN=wolfSSL root CA, emailAddress=facts@wolfssl.com
        Validity
            Not Before: Jun 11 21:44:34 2026 GMT
            Not After : Mar  7 21:44:34 2029 GMT
        Subject: C=US, ST=Washington, L=Seattle, O=wolfSSL, OU=Engineering, CN=wolfSSL OCSP Responder, emailAddress=facts@wolfssl.com
        Subject Public Key Info:
            Public Key Algorithm: rsaEncryption
                Public-Key: (2048 bit)
                Modulus:
                    00:b8:ba:23:b4:f6:c3:7b:14:c3:a4:f5:1d:61:a1:
                    f5:1e:63:b9:85:23:34:50:6d:f8:7c:a2:8a:04:8b:
                    d5:75:5c:2d:f7:63:88:d1:07:7a:ea:0b:45:35:2b:
                    eb:1f:b1:22:b4:94:41:38:e2:9d:74:d6:8b:30:22:
                    10:51:c5:db:ca:3f:46:2b:fe:e5:5a:3f:41:74:67:
                    75:95:a9:94:d5:c3:ee:42:f8:8d:eb:92:95:e1:d9:
                    65:b7:43:c4:18:de:16:80:90:ce:24:35:21:c4:55:
                    ac:5a:51:e0:2e:2d:b3:0a:5a:4f:4a:73:31:50:ee:
                    4a:16:bd:39:8b:ad:05:48:87:b1:99:e2:10:a7:06:
                    72:67:ca:5c:d1:97:bd:c8:f1:76:f8:e0:4a:ec:bc:
                    93:f4:66:4c:28:71:d1:d8:66:03:b4:90:30:bb:17:
                    b0:fe:97:f5:1e:e8:c7:5d:9b:8b:11:19:12:3c:ab:
                    82:71:78:ff:ae:3f:32:b2:08:71:b2:1b:8c:27:ac:
                    11:b8:d8:43:49:cf:b0:70:b1:f0:8c:ae:da:24:87:
                    17:3b:d8:04:65:6c:00:76:50:ef:15:08:d7:b4:73:
                    68:26:14:87:95:c3:5f:6e:61:b8:87:84:fa:80:1a:
                    0a:8b:98:f3:e3:ff:4e:44:1c:65:74:7c:71:54:65:
                    e5:39
                Exponent: 65537 (0x10001)
        X509v3 extensions:
            X509v3 Basic Constraints: 
                CA:FALSE
            X509v3 Subject Key Identifier: 
                32:67:E1:B1:79:D2:81:FC:9F:23:0C:70:40:50:B5:46:56:B8:30:36
            X509v3 Authority Key Identifier: 
                keyid:73:B0:1C:A4:2F:82:CB:CF:47:A5:38:D7:B0:04:82:3A:7E:72:15:21
                DirName:/C=US/ST=Washington/L=Seattle/O=wolfSSL/OU=Engineering/CN=wolfSSL root CA/emailAddress=facts@wolfssl.com
                serial:63
            X509v3 Extended Key Usage: 
                OCSP Signing
    Signature Algorithm: sha256WithRSAEncryption
    Signature Value:
        9d:70:b0:e6:54:a7:f2:da:3c:ab:d7:7a:db:de:d6:8b:d9:4e:
        c4:29:27:d9:ff:0c:38:e6:6a:46:47:99:e7:05:8b:e0:7f:40:
        e0:8b:7a:99:ca:e8:8c:04:16:6e:bc:c8:28:bb:64:89:6c:b7:
        5f:39:d2:27:ca:2d:74:77:24:85:ba:ee:29:2c:7d:0c:9a:88:
        9c:5c:f7:ae:3f:bc:d4:2a:cf:ed:51:32:73:ee:b9:37:db:88:
        73:68:00:c5:48:29:32:8b:34:2b:4d:8e:32:92:be:ef:08:58:
        5a:fb:03:00:b5:8f:ea:76:10:a1:a9:4f:aa:5b:3b:06:06:b7:
        52:fe:ca:a5:a3:33:ad:67:9f:e8:6a:8c:89:b6:cf:23:b3:7c:
        60:29:a1:bc:c0:8a:5c:c3:63:e9:d5:30:39:90:fe:f0:25:5a:
        3a:cd:65:13:7d:5d:cb:08:02:b5:9b:05:63:29:0c:8b:41:08:
        e0:36:a8:72:d8:67:f2:9e:d6:ac:ca:e2:94:84:cd:92:e3:d8:
        98:18:fb:b3:bc:a6:b1:60:29:ac:25:63:76:36:36:f5:cb:9e:
        12:dd:48:21:a5:b8:bd:60:f5:b0:7c:22:c8:11:fd:f2:15:9e:
        ed:40:70:74:6c:59:64:87:9e:e5:ad:47:4f:61:66:f8:15:53:
        aa:2e:b7:c3
-----BEGIN CERTIFICATE-----
MIIEwTCCA6mgAwIBAgIBBDANBgkqhkiG9w0BAQsFADCBmDELMAkGA1UEBhMCVVMx
EzARBgNVBAgMCldhc2hpbmd0b24xEDAOBgNVBAcMB1NlYXR0bGUxEDAOBgNVBAoM
B3dvbGZTU0wxFDASBgNVBAsMC0VuZ2luZWVyaW5nMRgwFgYDVQQDDA93b2xmU1NM
IHJvb3QgQ0ExIDAeBgkqhkiG9w0BCQEWEWZhY3RzQHdvbGZzc2wuY29tMB4XDTI2
MDYxMTIxNDQzNFoXDTI5MDMwNzIxNDQzNFowgZ8xCzAJBgNVBAYTAlVTMRMwEQYD
VQQIDApXYXNoaW5ndG9uMRAwDgYDVQQHDAdTZWF0dGxlMRAwDgYDVQQKDAd3b2xm
U1NMMRQwEgYDVQQLDAtFbmdpbmVlcmluZzEfMB0GA1UEAwwWd29sZlNTTCBPQ1NQ
IFJlc3BvbmRlcjEgMB4GCSqGSIb3DQEJARYRZmFjdHNAd29sZnNzbC5jb20wggEi
MA0GCSqGSIb3DQEBAQUAA4IBDwAwggEKAoIBAQC4uiO09sN7FMOk9R1hofUeY7mF
IzRQbfh8oooEi9V1XC33Y4jRB3rqC0U1K+sfsSK0lEE44p101oswIhBRxdvKP0Yr
/uVaP0F0Z3WVqZTVw+5C+I3rkpXh2WW3Q8QY3haAkM4kNSHEVaxaUeAuLbMKWk9K
czFQ7koWvTmLrQVIh7GZ4hCnBnJnylzRl73I8Xb44ErsvJP0ZkwocdHYZgO0kDC7
F7D+l/Ue6Mddm4sRGRI8q4JxeP+uPzKyCHGyG4wnrBG42ENJz7BwsfCMrtokhxc7
2ARlbAB2UO8VCNe0c2gmFIeVw19uYbiHhPqAGgqLmPPj/05EHGV0fHFUZeU5AgMB
AAGjggELMIIBBzAJBgNVHRMEAjAAMB0GA1UdDgQWBBQyZ+GxedKB/J8jDHBAULVG
VrgwNjCBxQYDVR0jBIG9MIG6gBRzsBykL4LLz0elONewBII6fnIVIaGBnqSBmzCB
mDELMAkGA1UEBhMCVVMxEzARBgNVBAgMCldhc2hpbmd0b24xEDAOBgNVBAcMB1Nl
YXR0bGUxEDAOBgNVBAoMB3dvbGZTU0wxFDASBgNVBAsMC0VuZ2luZWVyaW5nMRgw
FgYDVQQDDA93b2xmU1NMIHJvb3QgQ0ExIDAeBgkqhkiG9w0BCQEWEWZhY3RzQHdv
bGZzc2wuY29tggFjMBMGA1UdJQQMMAoGCCsGAQUFBwMJMA0GCSqGSIb3DQEBCwUA
A4IBAQCdcLDmVKfy2jyr13rb3taL2U7EKSfZ/ww45mpGR5nnBYvgf0Dgi3qZyuiM
BBZuvMgou2SJbLdfOdInyi10dySFuu4pLH0MmoicXPeuP7zUKs/tUTJz7rk324hz
aADFSCkyizQrTY4ykr7vCFha+wMAtY/qdhChqU+qWzsGBrdS/sqlozOtZ5/oaoyJ
ts8js3xgKaG8wIpcw2Pp1TA5kP7wJVo6zWUTfV3LCAK1mwVjKQyLQQjgNqhy2Gfy
ntasyuKUhM2S49iYGPuzvKaxYCmsJWN2Njb1y54S3Ughpbi9YPWwfCLIEf3yFZ7t
QHB0bFlkh57lrUdPYWb4FVOqLrfD
-----END CERTIFICATE-----
Certificate:
    Data:
        Version: 3 (0x2)
        Serial Number: 99 (0x63)
        Signature Algorithm: sha256WithRSAEncryption
        Issuer: C=US, ST=Washington, L=Seattle, O=wolfSSL, OU=Engineering, CN=wolfSSL root CA, emailAddress=facts@wolfssl.com
        Validity
            Not Before: Jun 11 21:44:34 2026 GMT
            Not After : Mar  7 21:44:34 2029 GMT
        Subject: C=US, ST=Washington, L=Seattle, O=wolfSSL, OU=Engineering, CN=wolfSSL root CA, emailAddress=facts@wolfssl.com
        Subject Public Key Info:
            Public Key Algorithm: rsaEncryption
                Public-Key: (2048 bit)
                Modulus:
                    00:ab:2c:b4:2f:1d:06:09:ef:4e:29:86:84:7e:cc:
                    bf:a6:79:7c:f0:c0:c1:64:25:8c:75:b7:10:05:ca:
                    48:27:0c:0e:32:1c:b0:fe:99:85:39:b6:b9:a2:f7:
                    27:ff:6d:3c:8c:16:73:29:21:7f:8b:a6:54:71:90:
                    ad:cc:05:b9:9f:15:c7:0a:3f:5f:69:f4:0a:5f:8c:
                    71:b5:2c:bf:66:e2:03:9a:32:f4:d2:ec:2a:89:4b:
                    f9:35:88:14:33:47:4e:2e:05:79:01:ed:64:36:76:
                    b9:f8:85:cd:01:88:ac:c5:b2:b1:59:b8:cd:5a:f4:
                    09:09:38:9b:da:5a:cf:ce:78:99:1f:49:3d:41:d6:
                    06:7c:52:99:c8:97:d1:b3:80:3a:a2:4f:36:c4:c5:
                    96:30:77:31:38:c8:70:cc:e1:67:06:b3:2b:2f:93:
                    b5:69:cf:83:7e:88:53:9b:0f:46:21:4c:d6:05:36:
                    44:99:60:68:47:e5:32:01:12:d4:10:73:ae:9a:34:
                    94:fa:6e:b8:58:4f:7b:5b:8a:92:97:ad:fd:97:b9:
                    75:ca:c2:d4:45:7d:17:6b:cd:2f:f3:63:7a:0e:30:
                    b5:0b:a9:d9:a6:7c:74:60:9d:cc:09:03:43:f1:0f:
                    90:d3:b7:fe:6c:9f:d9:cd:78:4b:15:ae:8c:5b:f9:
                    99:81
                Exponent: 65537 (0x10001)
        X509v3 extensions:
            X509v3 Basic Constraints: 
                CA:TRUE
            X509v3 Subject Key Identifier: 
                73:B0:1C:A4:2F:82:CB:CF:47:A5:38:D7:B0:04:82:3A:7E:72:15:21
            X509v3 Authority Key Identifier: 
                keyid:73:B0:1C:A4:2F:82:CB:CF:47:A5:38:D7:B0:04:82:3A:7E:72:15:21
                DirName:/C=US/ST=Washington/L=Seattle/O=wolfSSL/OU=Engineering/CN=wolfSSL root CA/emailAddress=facts@wolfssl.com
                serial:63
            X509v3 Key Usage: 
                Certificate Sign, CRL Sign
            Authority Information Access: 
                OCSP - URI:http://127.0.0.1:22220
    Signature Algorithm: sha256WithRSAEncryption
    Signature Value:
        36:b1:86:d6:72:f8:e7:6a:ae:43:fb:c0:ed:f1:36:64:8a:da:
        8e:5f:f7:c4:ad:64:c8:29:03:74:58:b0:9e:ee:41:89:5b:2a:
        12:f4:82:a4:03:a5:f0:df:a2:84:cb:2b:b3:16:0f:dc:cf:cc:
        56:99:61:a9:f9:3d:3a:7e:e4:12:43:c3:b1:4f:58:26:79:e7:
        e4:0d:a5:88:3d:79:33:a1:09:7d:78:af:bd:59:71:11:54:4a:
        cc:d6:d2:6d:1f:88:27:ac:d5:bf:75:fc:c3:05:0b:cd:c8:0e:
        72:41:1d:d8:68:62:be:94:d7:60:be:05:4a:42:9c:50:b7:45:
        71:6d:83:9a:ef:08:5c:41:db:c8:62:33:3c:69:a2:8a:b4:0f:
        db:65:c4:b7:92:0a:76:f7:55:06:77:8c:ff:8c:84:84:d9:dd:
        46:11:2a:2d:27:96:a7:f5:47:c1:43:4b:fe:53:d8:be:16:94:
        36:0a:d4:be:c3:6c:9b:0c:52:31:4a:eb:62:b4:81:4b:2d:f7:
        f1:65:c1:ee:36:79:19:f7:ab:16:f8:38:d2:ea:87:8d:f8:f9:
        14:82:db:67:b6:94:a8:55:0b:90:6b:af:b0:e9:42:64:42:6d:
        2c:e3:f1:b6:e0:f9:58:ed:69:66:62:98:dc:5a:7b:fa:35:5a:
        23:84:91:0e
-----BEGIN CERTIFICATE-----
MIIE6TCCA9GgAwIBAgIBYzANBgkqhkiG9w0BAQsFADCBmDELMAkGA1UEBhMCVVMx
EzARBgNVBAgMCldhc2hpbmd0b24xEDAOBgNVBAcMB1NlYXR0bGUxEDAOBgNVBAoM
B3dvbGZTU0wxFDASBgNVBAsMC0VuZ2luZWVyaW5nMRgwFgYDVQQDDA93b2xmU1NM
IHJvb3QgQ0ExIDAeBgkqhkiG9w0BCQEWEWZhY3RzQHdvbGZzc2wuY29tMB4XDTI2
MDYxMTIxNDQzNFoXDTI5MDMwNzIxNDQzNFowgZgxCzAJBgNVBAYTAlVTMRMwEQYD
VQQIDApXYXNoaW5ndG9uMRAwDgYDVQQHDAdTZWF0dGxlMRAwDgYDVQQKDAd3b2xm
U1NMMRQwEgYDVQQLDAtFbmdpbmVlcmluZzEYMBYGA1UEAwwPd29sZlNTTCByb290
IENBMSAwHgYJKoZIhvcNAQkBFhFmYWN0c0B3b2xmc3NsLmNvbTCCASIwDQYJKoZI
hvcNAQEBBQADggEPADCCAQoCggEBAKsstC8dBgnvTimGhH7Mv6Z5fPDAwWQljHW3
EAXKSCcMDjIcsP6ZhTm2uaL3J/9tPIwWcykhf4umVHGQrcwFuZ8Vxwo/X2n0Cl+M
cbUsv2biA5oy9NLsKolL+TWIFDNHTi4FeQHtZDZ2ufiFzQGIrMWysVm4zVr0CQk4
m9paz854mR9JPUHWBnxSmciX0bOAOqJPNsTFljB3MTjIcMzhZwazKy+TtWnPg36I
U5sPRiFM1gU2RJlgaEflMgES1BBzrpo0lPpuuFhPe1uKkpet/Ze5dcrC1EV9F2vN
L/Njeg4wtQup2aZ8dGCdzAkDQ/EPkNO3/myf2c14SxWujFv5mYECAwEAAaOCATow
ggE2MAwGA1UdEwQFMAMBAf8wHQYDVR0OBBYEFHOwHKQvgsvPR6U417AEgjp+chUh
MIHFBgNVHSMEgb0wgbqAFHOwHKQvgsvPR6U417AEgjp+chUhoYGepIGbMIGYMQsw
CQYDVQQGEwJVUzETMBEGA1UECAwKV2FzaGluZ3RvbjEQMA4GA1UEBwwHU2VhdHRs
ZTEQMA4GA1UECgwHd29sZlNTTDEUMBIGA1UECwwLRW5naW5lZXJpbmcxGDAWBgNV
BAMMD3dvbGZTU0wgcm9vdCBDQTEgMB4GCSqGSIb3DQEJARYRZmFjdHNAd29sZnNz
bC5jb22CAWMwCwYDVR0PBAQDAgEGMDIGCCsGAQUFBwEBBCYwJDAiBggrBgEFBQcw
AYYWaHR0cDovLzEyNy4wLjAuMToyMjIyMDANBgkqhkiG9w0BAQsFAAOCAQEANrGG
1nL452quQ/vA7fE2ZIrajl/3xK1kyCkDdFiwnu5BiVsqEvSCpAOl8N+ihMsrsxYP
3M/MVplhqfk9On7kEkPDsU9YJnnn5A2liD15M6EJfXivvVlxEVRKzNbSbR+IJ6zV
v3X8wwULzcgOckEd2GhivpTXYL4FSkKcULdFcW2Dmu8IXEHbyGIzPGmiirQP22XE
t5IKdvdVBneM/4yEhNndRhEqLSeWp/VHwUNL/lPYvhaUNgrUvsNsmwxSMUrrYrSB
Sy338WXB7jZ5GferFvg40uqHjfj5FILbZ7aUqFULkGuvsOlCZEJtLOPxtuD5WO1p
ZmKY3Fp7+jVaI4SRDg==
-----END CERTIFICATE-----
