Certificate:
    Data:
        Version: 3 (0x2)
        Serial Number: 3 (0x3)
    Signature Algorithm: sha256WithRSAEncryption
        Issuer: C=US, ST=Washington, L=Seattle, O=wolfSSL, OU=Engineering, CN=wolfSSL root CA/emailAddress=info@wolfssl.com
        Validity
            Not Before: Dec  7 22:42:29 2015 GMT
            Not After : Sep  2 22:42:29 2018 GMT
        Subject: C=US, ST=Washington, L=Seattle, O=wolfSSL, OU=Engineering, CN=wolfSSL OCSP Responder/emailAddress=info@wolfssl.com
        Subject Public Key Info:
            Public Key Algorithm: rsaEncryption
                Public-Key: (2048 bit)
                Modulus:
                    00:b8:ba:23:b4:f6:c3:7b:14:c3:a4:f5:1d:61:a1:
                    f5:1e:63:b9:85:23:34:50:6d:f8:7c:a2:8a:04:8b:
                    d5:75:5c:2d:f7:63:88:d1:07:7a:ea:0b:45:35:2b:
                    eb:1f:b1:22:b4:94:41:38:e2:9d:74:d6:8b:30:22:
                    10:51:c5:db:ca:3f:46:2b:fe:e5:5a:3f:41:74:67:
                    75:95:a9:94:d5:c3:ee:42:f8:8d:eb:92:95:e1:d9:
                    65:b7:43:c4:18:de:16:80:90:ce:24:35:21:c4:55:
                    ac:5a:51:e0:2e:2d:b3:0a:5a:4f:4a:73:31:50:ee:
                    4a:16:bd:39:8b:ad:05:48:87:b1:99:e2:10:a7:06:
                    72:67:ca:5c:d1:97:bd:c8:f1:76:f8:e0:4a:ec:bc:
                    93:f4:66:4c:28:71:d1:d8:66:03:b4:90:30:bb:17:
                    b0:fe:97:f5:1e:e8:c7:5d:9b:8b:11:19:12:3c:ab:
                    82:71:78:ff:ae:3f:32:b2:08:71:b2:1b:8c:27:ac:
                    11:b8:d8:43:49:cf:b0:70:b1:f0:8c:ae:da:24:87:
                    17:3b:d8:04:65:6c:00:76:50:ef:15:08:d7:b4:73:
                    68:26:14:87:95:c3:5f:6e:61:b8:87:84:fa:80:1a:
                    0a:8b:98:f3:e3:ff:4e:44:1c:65:74:7c:71:54:65:
                    e5:39
                Exponent: 65537 (0x10001)
        X509v3 extensions:
            X509v3 Basic Constraints: 
                CA:FALSE
            X509v3 Subject Key Identifier: 
                32:67:E1:B1:79:D2:81:FC:9F:23:0C:70:40:50:B5:46:56:B8:30:36
            X509v3 Authority Key Identifier: 
                keyid:73:B0:1C:A4:2F:82:CB:CF:47:A5:38:D7:B0:04:82:3A:7E:72:15:21
                DirName:/C=US/ST=Washington/L=Seattle/O=wolfSSL/OU=Engineering/CN=wolfSSL root CA/emailAddress=info@wolfssl.com
                serial:EF:57:D8:F5:69:38:95:25

            X509v3 Extended Key Usage: 
                OCSP Signing
    Signature Algorithm: sha256WithRSAEncryption
         1a:b0:0c:d3:5d:8d:fe:f0:4f:76:8d:cb:47:51:c3:64:0b:8e:
         94:9b:82:eb:2e:53:13:1d:28:31:55:c7:2a:7c:be:4e:32:9f:
         52:fd:2a:9c:a0:e2:9f:7b:23:9d:bf:93:e2:37:ac:40:47:f2:
         2d:ac:e6:8d:23:a2:18:c5:3f:c0:8d:60:4b:c5:2f:55:ae:f3:
         63:ea:e4:2f:20:56:fa:13:7c:d1:af:4f:ef:cb:ad:81:d1:26:
         0d:86:4b:0d:bb:67:8d:b6:a0:51:ac:a5:e5:f1:75:30:77:cc:
         a6:57:d6:11:3c:76:7f:a7:b2:85:5e:c2:52:ec:8e:d8:7a:25:
         b6:a9:ef:6e:6d:d8:a8:2d:e2:91:6d:fe:2d:11:df:8e:cc:c6:
         96:45:d9:f7:82:8a:58:ec:f7:7a:74:62:17:16:db:e9:8e:dc:
         40:ed:3d:de:1a:2b:af:e7:8e:39:be:91:50:f8:2c:70:bd:1b:
         64:01:db:bb:7a:1c:64:77:fb:ed:55:4c:3f:de:5c:cf:22:01:
         1f:7e:34:84:93:a2:37:06:7e:b2:6c:d1:58:ee:d8:1d:fb:8b:
         b2:32:5b:6d:ef:9d:5a:b5:31:9b:f0:74:0b:c6:41:9a:fa:4a:
         a5:a2:91:39:a3:a8:d0:69:a6:93:1a:7f:55:e9:04:58:b0:16:
         58:0c:27:92
-----BEGIN CERTIFICATE-----
MIIExjCCA66gAwIBAgIBAzANBgkqhkiG9w0BAQsFADCBlzELMAkGA1UEBhMCVVMx
EzARBgNVBAgMCldhc2hpbmd0b24xEDAOBgNVBAcMB1NlYXR0bGUxEDAOBgNVBAoM
B3dvbGZTU0wxFDASBgNVBAsMC0VuZ2luZWVyaW5nMRgwFgYDVQQDDA93b2xmU1NM
IHJvb3QgQ0ExHzAdBgkqhkiG9w0BCQEWEGluZm9Ad29sZnNzbC5jb20wHhcNMTUx
MjA3MjI0MjI5WhcNMTgwOTAyMjI0MjI5WjCBnjELMAkGA1UEBhMCVVMxEzARBgNV
BAgMCldhc2hpbmd0b24xEDAOBgNVBAcMB1NlYXR0bGUxEDAOBgNVBAoMB3dvbGZT
U0wxFDASBgNVBAsMC0VuZ2luZWVyaW5nMR8wHQYDVQQDDBZ3b2xmU1NMIE9DU1Ag
UmVzcG9uZGVyMR8wHQYJKoZIhvcNAQkBFhBpbmZvQHdvbGZzc2wuY29tMIIBIjAN
BgkqhkiG9w0BAQEFAAOCAQ8AMIIBCgKCAQEAuLojtPbDexTDpPUdYaH1HmO5hSM0
UG34fKKKBIvVdVwt92OI0Qd66gtFNSvrH7EitJRBOOKddNaLMCIQUcXbyj9GK/7l
Wj9BdGd1lamU1cPuQviN65KV4dllt0PEGN4WgJDOJDUhxFWsWlHgLi2zClpPSnMx
UO5KFr05i60FSIexmeIQpwZyZ8pc0Ze9yPF2+OBK7LyT9GZMKHHR2GYDtJAwuxew
/pf1HujHXZuLERkSPKuCcXj/rj8ysghxshuMJ6wRuNhDSc+wcLHwjK7aJIcXO9gE
ZWwAdlDvFQjXtHNoJhSHlcNfbmG4h4T6gBoKi5jz4/9ORBxldHxxVGXlOQIDAQAB
o4IBEjCCAQ4wCQYDVR0TBAIwADAdBgNVHQ4EFgQUMmfhsXnSgfyfIwxwQFC1Rla4
MDYwgcwGA1UdIwSBxDCBwYAUc7AcpC+Cy89HpTjXsASCOn5yFSGhgZ2kgZowgZcx
CzAJBgNVBAYTAlVTMRMwEQYDVQQIDApXYXNoaW5ndG9uMRAwDgYDVQQHDAdTZWF0
dGxlMRAwDgYDVQQKDAd3b2xmU1NMMRQwEgYDVQQLDAtFbmdpbmVlcmluZzEYMBYG
A1UEAwwPd29sZlNTTCByb290IENBMR8wHQYJKoZIhvcNAQkBFhBpbmZvQHdvbGZz
c2wuY29tggkA71fY9Wk4lSUwEwYDVR0lBAwwCgYIKwYBBQUHAwkwDQYJKoZIhvcN
AQELBQADggEBABqwDNNdjf7wT3aNy0dRw2QLjpSbgusuUxMdKDFVxyp8vk4yn1L9
Kpyg4p97I52/k+I3rEBH8i2s5o0johjFP8CNYEvFL1Wu82Pq5C8gVvoTfNGvT+/L
rYHRJg2GSw27Z422oFGspeXxdTB3zKZX1hE8dn+nsoVewlLsjth6Jbap725t2Kgt
4pFt/i0R347MxpZF2feCiljs93p0YhcW2+mO3EDtPd4aK6/njjm+kVD4LHC9G2QB
27t6HGR3++1VTD/eXM8iAR9+NISTojcGfrJs0Vju2B37i7IyW23vnVq1MZvwdAvG
QZr6SqWikTmjqNBpppMaf1XpBFiwFlgMJ5I=
-----END CERTIFICATE-----
Certificate:
    Data:
        Version: 3 (0x2)
        Serial Number: 17246491846582506789 (0xef57d8f569389525)
    Signature Algorithm: sha256WithRSAEncryption
        Issuer: C=US, ST=Washington, L=Seattle, O=wolfSSL, OU=Engineering, CN=wolfSSL root CA/emailAddress=info@wolfssl.com
        Validity
            Not Before: Dec  7 22:42:29 2015 GMT
            Not After : Sep  2 22:42:29 2018 GMT
        Subject: C=US, ST=Washington, L=Seattle, O=wolfSSL, OU=Engineering, CN=wolfSSL root CA/emailAddress=info@wolfssl.com
        Subject Public Key Info:
            Public Key Algorithm: rsaEncryption
                Public-Key: (2048 bit)
                Modulus:
                    00:ab:2c:b4:2f:1d:06:09:ef:4e:29:86:84:7e:cc:
                    bf:a6:79:7c:f0:c0:c1:64:25:8c:75:b7:10:05:ca:
                    48:27:0c:0e:32:1c:b0:fe:99:85:39:b6:b9:a2:f7:
                    27:ff:6d:3c:8c:16:73:29:21:7f:8b:a6:54:71:90:
                    ad:cc:05:b9:9f:15:c7:0a:3f:5f:69:f4:0a:5f:8c:
                    71:b5:2c:bf:66:e2:03:9a:32:f4:d2:ec:2a:89:4b:
                    f9:35:88:14:33:47:4e:2e:05:79:01:ed:64:36:76:
                    b9:f8:85:cd:01:88:ac:c5:b2:b1:59:b8:cd:5a:f4:
                    09:09:38:9b:da:5a:cf:ce:78:99:1f:49:3d:41:d6:
                    06:7c:52:99:c8:97:d1:b3:80:3a:a2:4f:36:c4:c5:
                    96:30:77:31:38:c8:70:cc:e1:67:06:b3:2b:2f:93:
                    b5:69:cf:83:7e:88:53:9b:0f:46:21:4c:d6:05:36:
                    44:99:60:68:47:e5:32:01:12:d4:10:73:ae:9a:34:
                    94:fa:6e:b8:58:4f:7b:5b:8a:92:97:ad:fd:97:b9:
                    75:ca:c2:d4:45:7d:17:6b:cd:2f:f3:63:7a:0e:30:
                    b5:0b:a9:d9:a6:7c:74:60:9d:cc:09:03:43:f1:0f:
                    90:d3:b7:fe:6c:9f:d9:cd:78:4b:15:ae:8c:5b:f9:
                    99:81
                Exponent: 65537 (0x10001)
        X509v3 extensions:
            X509v3 Basic Constraints: 
                CA:TRUE
            X509v3 Subject Key Identifier: 
                73:B0:1C:A4:2F:82:CB:CF:47:A5:38:D7:B0:04:82:3A:7E:72:15:21
            X509v3 Authority Key Identifier: 
                keyid:73:B0:1C:A4:2F:82:CB:CF:47:A5:38:D7:B0:04:82:3A:7E:72:15:21
                DirName:/C=US/ST=Washington/L=Seattle/O=wolfSSL/OU=Engineering/CN=wolfSSL root CA/emailAddress=info@wolfssl.com
                serial:EF:57:D8:F5:69:38:95:25

            Authority Information Access: 
                OCSP - URI:http://localhost:22220

    Signature Algorithm: sha256WithRSAEncryption
         55:f6:de:bd:4f:ac:95:3a:cc:86:88:c3:4c:fc:0b:91:86:91:
         c5:95:ca:5c:f8:c3:bb:d7:c1:bd:6e:c3:2f:94:18:c1:d8:e2:
         b5:dd:8b:97:13:3f:5e:76:9c:13:89:14:d4:fc:a6:f7:01:a1:
         c5:cf:0e:4d:00:ae:85:09:54:ce:cf:f8:d5:a7:40:60:ac:38:
         72:75:3b:cb:42:e0:4f:a2:60:34:74:ed:be:65:70:b1:4a:d9:
         99:af:17:0f:6f:f4:b7:f3:67:60:57:17:20:ac:88:65:53:0f:
         8c:bc:0b:51:79:a2:af:12:11:26:5e:55:06:1e:5c:8c:58:18:
         4a:4a:d8:e5:f9:fc:69:98:e6:e5:e6:94:5c:82:ee:bf:07:47:
         18:8c:b4:31:b3:d2:c3:02:dc:53:86:c1:1f:fa:31:3f:8f:d2:
         3c:8a:2b:4d:37:1f:0b:26:78:9b:3b:fd:eb:89:a4:d2:47:5e:
         99:82:d1:63:96:5f:46:a6:18:ab:8c:d8:d2:ec:dc:50:dc:67:
         c1:63:d0:1e:57:04:10:a9:d5:1d:c0:73:e4:ce:b0:79:62:be:
         11:6e:30:53:3b:df:e7:5d:e4:06:b1:80:c8:1a:33:cc:31:84:
         42:0f:55:ac:d8:5a:e5:d0:0c:1f:c6:ca:1d:e4:8c:3e:31:81:
         f9:fe:bc:01
-----BEGIN CERTIFICATE-----
MIIE6TCCA9GgAwIBAgIJAO9X2PVpOJUlMA0GCSqGSIb3DQEBCwUAMIGXMQswCQYD
VQQGEwJVUzETMBEGA1UECAwKV2FzaGluZ3RvbjEQMA4GA1UEBwwHU2VhdHRsZTEQ
MA4GA1UECgwHd29sZlNTTDEUMBIGA1UECwwLRW5naW5lZXJpbmcxGDAWBgNVBAMM
D3dvbGZTU0wgcm9vdCBDQTEfMB0GCSqGSIb3DQEJARYQaW5mb0B3b2xmc3NsLmNv
bTAeFw0xNTEyMDcyMjQyMjlaFw0xODA5MDIyMjQyMjlaMIGXMQswCQYDVQQGEwJV
UzETMBEGA1UECAwKV2FzaGluZ3RvbjEQMA4GA1UEBwwHU2VhdHRsZTEQMA4GA1UE
CgwHd29sZlNTTDEUMBIGA1UECwwLRW5naW5lZXJpbmcxGDAWBgNVBAMMD3dvbGZT
U0wgcm9vdCBDQTEfMB0GCSqGSIb3DQEJARYQaW5mb0B3b2xmc3NsLmNvbTCCASIw
DQYJKoZIhvcNAQEBBQADggEPADCCAQoCggEBAKsstC8dBgnvTimGhH7Mv6Z5fPDA
wWQljHW3EAXKSCcMDjIcsP6ZhTm2uaL3J/9tPIwWcykhf4umVHGQrcwFuZ8Vxwo/
X2n0Cl+McbUsv2biA5oy9NLsKolL+TWIFDNHTi4FeQHtZDZ2ufiFzQGIrMWysVm4
zVr0CQk4m9paz854mR9JPUHWBnxSmciX0bOAOqJPNsTFljB3MTjIcMzhZwazKy+T
tWnPg36IU5sPRiFM1gU2RJlgaEflMgES1BBzrpo0lPpuuFhPe1uKkpet/Ze5dcrC
1EV9F2vNL/Njeg4wtQup2aZ8dGCdzAkDQ/EPkNO3/myf2c14SxWujFv5mYECAwEA
AaOCATQwggEwMAwGA1UdEwQFMAMBAf8wHQYDVR0OBBYEFHOwHKQvgsvPR6U417AE
gjp+chUhMIHMBgNVHSMEgcQwgcGAFHOwHKQvgsvPR6U417AEgjp+chUhoYGdpIGa
MIGXMQswCQYDVQQGEwJVUzETMBEGA1UECAwKV2FzaGluZ3RvbjEQMA4GA1UEBwwH
U2VhdHRsZTEQMA4GA1UECgwHd29sZlNTTDEUMBIGA1UECwwLRW5naW5lZXJpbmcx
GDAWBgNVBAMMD3dvbGZTU0wgcm9vdCBDQTEfMB0GCSqGSIb3DQEJARYQaW5mb0B3
b2xmc3NsLmNvbYIJAO9X2PVpOJUlMDIGCCsGAQUFBwEBBCYwJDAiBggrBgEFBQcw
AYYWaHR0cDovL2xvY2FsaG9zdDoyMjIyMDANBgkqhkiG9w0BAQsFAAOCAQEAVfbe
vU+slTrMhojDTPwLkYaRxZXKXPjDu9fBvW7DL5QYwdjitd2LlxM/XnacE4kU1Pym
9wGhxc8OTQCuhQlUzs/41adAYKw4cnU7y0LgT6JgNHTtvmVwsUrZma8XD2/0t/Nn
YFcXIKyIZVMPjLwLUXmirxIRJl5VBh5cjFgYSkrY5fn8aZjm5eaUXILuvwdHGIy0
MbPSwwLcU4bBH/oxP4/SPIorTTcfCyZ4mzv964mk0kdemYLRY5ZfRqYYq4zY0uzc
UNxnwWPQHlcEEKnVHcBz5M6weWK+EW4wUzvf513kBrGAyBozzDGEQg9VrNha5dAM
H8bKHeSMPjGB+f68AQ==
-----END CERTIFICATE-----
