Certificate:
    Data:
        Version: 3 (0x2)
        Serial Number: 3 (0x3)
    Signature Algorithm: sha256WithRSAEncryption
        Issuer: C=US, ST=Montana, L=Bozeman, O=Sawtooth, OU=Consulting, CN=www.wolfssl.com/emailAddress=info@wolfssl.com
        Validity
            Not Before: Nov 23 12:49:37 2015 GMT
            Not After : Aug 19 12:49:37 2018 GMT
        Subject: C=US, ST=Montana, L=Bozeman, O=wolfSSL, OU=Support\ocsp.wolfssl.com, CN=info@wolfssl.com
        Subject Public Key Info:
            Public Key Algorithm: rsaEncryption
                Public-Key: (2048 bit)
                Modulus:
                    00:b8:ba:23:b4:f6:c3:7b:14:c3:a4:f5:1d:61:a1:
                    f5:1e:63:b9:85:23:34:50:6d:f8:7c:a2:8a:04:8b:
                    d5:75:5c:2d:f7:63:88:d1:07:7a:ea:0b:45:35:2b:
                    eb:1f:b1:22:b4:94:41:38:e2:9d:74:d6:8b:30:22:
                    10:51:c5:db:ca:3f:46:2b:fe:e5:5a:3f:41:74:67:
                    75:95:a9:94:d5:c3:ee:42:f8:8d:eb:92:95:e1:d9:
                    65:b7:43:c4:18:de:16:80:90:ce:24:35:21:c4:55:
                    ac:5a:51:e0:2e:2d:b3:0a:5a:4f:4a:73:31:50:ee:
                    4a:16:bd:39:8b:ad:05:48:87:b1:99:e2:10:a7:06:
                    72:67:ca:5c:d1:97:bd:c8:f1:76:f8:e0:4a:ec:bc:
                    93:f4:66:4c:28:71:d1:d8:66:03:b4:90:30:bb:17:
                    b0:fe:97:f5:1e:e8:c7:5d:9b:8b:11:19:12:3c:ab:
                    82:71:78:ff:ae:3f:32:b2:08:71:b2:1b:8c:27:ac:
                    11:b8:d8:43:49:cf:b0:70:b1:f0:8c:ae:da:24:87:
                    17:3b:d8:04:65:6c:00:76:50:ef:15:08:d7:b4:73:
                    68:26:14:87:95:c3:5f:6e:61:b8:87:84:fa:80:1a:
                    0a:8b:98:f3:e3:ff:4e:44:1c:65:74:7c:71:54:65:
                    e5:39
                Exponent: 65537 (0x10001)
        X509v3 extensions:
            X509v3 Subject Key Identifier: 
                32:67:E1:B1:79:D2:81:FC:9F:23:0C:70:40:50:B5:46:56:B8:30:36
            X509v3 Authority Key Identifier: 
                keyid:27:8E:67:11:74:C3:26:1D:3F:ED:33:63:B3:A4:D8:1D:30:E5:E8:D5
                DirName:/C=US/ST=Montana/L=Bozeman/O=Sawtooth/OU=Consulting/CN=www.wolfssl.com/emailAddress=info@wolfssl.com
                serial:A6:66:38:49:45:9B:DC:81

            X509v3 Key Usage: 
                Digital Signature, Non Repudiation, Key Encipherment
            X509v3 Extended Key Usage: 
                OCSP Signing
            X509v3 Basic Constraints: 
                CA:FALSE
    Signature Algorithm: sha256WithRSAEncryption
         66:26:ec:73:2a:08:3b:22:c5:56:35:f7:77:c8:e5:96:88:3d:
         11:78:ac:84:22:25:26:9d:c8:cf:32:ed:fb:bc:38:9f:ae:8d:
         99:13:3a:b3:59:e7:50:a4:b5:56:a8:05:e1:21:6c:26:5c:ee:
         f7:55:b7:ea:b2:72:80:4f:4e:70:1d:fb:a7:5e:02:d6:d9:37:
         d6:80:71:42:98:63:ef:f4:4a:a1:9a:95:1d:fd:99:13:de:3b:
         10:d6:ed:1b:0d:ff:9e:14:2e:e0:8f:5f:ef:8d:b4:0d:5e:60:
         4b:b9:d4:d1:58:6e:eb:bb:ad:4a:ac:44:13:62:f7:d1:b4:00:
         f3:8f:35:bb:b1:76:8f:d9:1a:87:14:66:4b:de:04:91:42:f1:
         b7:d2:8b:e1:14:6c:31:30:03:8f:62:f2:b3:ee:f1:67:81:67:
         5f:a1:56:9b:93:54:e8:c7:05:b5:fa:64:c8:b3:a8:b4:1f:49:
         9b:e0:d4:74:01:19:53:07:b1:0a:47:bb:37:37:58:e4:ce:18:
         87:08:a0:8b:69:d3:d5:f3:b6:28:07:2d:56:e7:3e:0e:5f:07:
         c5:e0:d8:57:bc:55:96:fc:ec:18:4e:7a:ed:23:7b:53:53:b7:
         ee:36:fb:a3:89:65:ce:6e:f1:8f:8a:05:e4:d9:f3:3a:05:8a:
         d7:00:95:a0
-----BEGIN CERTIFICATE-----
MIIEsDCCA5igAwIBAgIBAzANBgkqhkiG9w0BAQsFADCBlDELMAkGA1UEBhMCVVMx
EDAOBgNVBAgMB01vbnRhbmExEDAOBgNVBAcMB0JvemVtYW4xETAPBgNVBAoMCFNh
d3Rvb3RoMRMwEQYDVQQLDApDb25zdWx0aW5nMRgwFgYDVQQDDA93d3cud29sZnNz
bC5jb20xHzAdBgkqhkiG9w0BCQEWEGluZm9Ad29sZnNzbC5jb20wHhcNMTUxMTIz
MTI0OTM3WhcNMTgwODE5MTI0OTM3WjCBgTELMAkGA1UEBhMCVVMxEDAOBgNVBAgM
B01vbnRhbmExEDAOBgNVBAcMB0JvemVtYW4xEDAOBgNVBAoMB3dvbGZTU0wxITAf
BgNVBAsMGFN1cHBvcnRcb2NzcC53b2xmc3NsLmNvbTEZMBcGA1UEAwwQaW5mb0B3
b2xmc3NsLmNvbTCCASIwDQYJKoZIhvcNAQEBBQADggEPADCCAQoCggEBALi6I7T2
w3sUw6T1HWGh9R5juYUjNFBt+HyiigSL1XVcLfdjiNEHeuoLRTUr6x+xIrSUQTji
nXTWizAiEFHF28o/Riv+5Vo/QXRndZWplNXD7kL4jeuSleHZZbdDxBjeFoCQziQ1
IcRVrFpR4C4tswpaT0pzMVDuSha9OYutBUiHsZniEKcGcmfKXNGXvcjxdvjgSuy8
k/RmTChx0dhmA7SQMLsXsP6X9R7ox12bixEZEjyrgnF4/64/MrIIcbIbjCesEbjY
Q0nPsHCx8Iyu2iSHFzvYBGVsAHZQ7xUI17RzaCYUh5XDX25huIeE+oAaCouY8+P/
TkQcZXR8cVRl5TkCAwEAAaOCARwwggEYMB0GA1UdDgQWBBQyZ+GxedKB/J8jDHBA
ULVGVrgwNjCByQYDVR0jBIHBMIG+gBQnjmcRdMMmHT/tM2OzpNgdMOXo1aGBmqSB
lzCBlDELMAkGA1UEBhMCVVMxEDAOBgNVBAgMB01vbnRhbmExEDAOBgNVBAcMB0Jv
emVtYW4xETAPBgNVBAoMCFNhd3Rvb3RoMRMwEQYDVQQLDApDb25zdWx0aW5nMRgw
FgYDVQQDDA93d3cud29sZnNzbC5jb20xHzAdBgkqhkiG9w0BCQEWEGluZm9Ad29s
ZnNzbC5jb22CCQCmZjhJRZvcgTALBgNVHQ8EBAMCBeAwEwYDVR0lBAwwCgYIKwYB
BQUHAwkwCQYDVR0TBAIwADANBgkqhkiG9w0BAQsFAAOCAQEAZibscyoIOyLFVjX3
d8jllog9EXishCIlJp3IzzLt+7w4n66NmRM6s1nnUKS1VqgF4SFsJlzu91W36rJy
gE9OcB37p14C1tk31oBxQphj7/RKoZqVHf2ZE947ENbtGw3/nhQu4I9f7420DV5g
S7nU0Vhu67utSqxEE2L30bQA8481u7F2j9kahxRmS94EkULxt9KL4RRsMTADj2Ly
s+7xZ4FnX6FWm5NU6McFtfpkyLOotB9Jm+DUdAEZUwexCke7NzdY5M4Yhwigi2nT
1fO2KActVuc+Dl8HxeDYV7xVlvzsGE567SN7U1O37jb7o4llzm7xj4oF5NnzOgWK
1wCVoA==
-----END CERTIFICATE-----
Certificate:
    Data:
        Version: 3 (0x2)
        Serial Number: 11990332945272134785 (0xa6663849459bdc81)
    Signature Algorithm: sha256WithRSAEncryption
        Issuer: C=US, ST=Montana, L=Bozeman, O=Sawtooth, OU=Consulting, CN=www.wolfssl.com/emailAddress=info@wolfssl.com
        Validity
            Not Before: Nov 23 12:49:37 2015 GMT
            Not After : Aug 19 12:49:37 2018 GMT
        Subject: C=US, ST=Montana, L=Bozeman, O=Sawtooth, OU=Consulting, CN=www.wolfssl.com/emailAddress=info@wolfssl.com
        Subject Public Key Info:
            Public Key Algorithm: rsaEncryption
                Public-Key: (2048 bit)
                Modulus:
                    00:bf:0c:ca:2d:14:b2:1e:84:42:5b:cd:38:1f:4a:
                    f2:4d:75:10:f1:b6:35:9f:df:ca:7d:03:98:d3:ac:
                    de:03:66:ee:2a:f1:d8:b0:7d:6e:07:54:0b:10:98:
                    21:4d:80:cb:12:20:e7:cc:4f:de:45:7d:c9:72:77:
                    32:ea:ca:90:bb:69:52:10:03:2f:a8:f3:95:c5:f1:
                    8b:62:56:1b:ef:67:6f:a4:10:41:95:ad:0a:9b:e3:
                    a5:c0:b0:d2:70:76:50:30:5b:a8:e8:08:2c:7c:ed:
                    a7:a2:7a:8d:38:29:1c:ac:c7:ed:f2:7c:95:b0:95:
                    82:7d:49:5c:38:cd:77:25:ef:bd:80:75:53:94:3c:
                    3d:ca:63:5b:9f:15:b5:d3:1d:13:2f:19:d1:3c:db:
                    76:3a:cc:b8:7d:c9:e5:c2:d7:da:40:6f:d8:21:dc:
                    73:1b:42:2d:53:9c:fe:1a:fc:7d:ab:7a:36:3f:98:
                    de:84:7c:05:67:ce:6a:14:38:87:a9:f1:8c:b5:68:
                    cb:68:7f:71:20:2b:f5:a0:63:f5:56:2f:a3:26:d2:
                    b7:6f:b1:5a:17:d7:38:99:08:fe:93:58:6f:fe:c3:
                    13:49:08:16:0b:a7:4d:67:00:52:31:67:23:4e:98:
                    ed:51:45:1d:b9:04:d9:0b:ec:d8:28:b3:4b:bd:ed:
                    36:79
                Exponent: 65537 (0x10001)
        X509v3 extensions:
            X509v3 Subject Key Identifier: 
                27:8E:67:11:74:C3:26:1D:3F:ED:33:63:B3:A4:D8:1D:30:E5:E8:D5
            X509v3 Authority Key Identifier: 
                keyid:27:8E:67:11:74:C3:26:1D:3F:ED:33:63:B3:A4:D8:1D:30:E5:E8:D5
                DirName:/C=US/ST=Montana/L=Bozeman/O=Sawtooth/OU=Consulting/CN=www.wolfssl.com/emailAddress=info@wolfssl.com
                serial:A6:66:38:49:45:9B:DC:81

            X509v3 Basic Constraints: 
                CA:TRUE
            Authority Information Access: 
                OCSP - URI:http://localhost:22222

    Signature Algorithm: sha256WithRSAEncryption
         41:8f:fb:6b:65:6b:36:f2:56:4f:0c:48:b0:4d:8c:c2:cb:d6:
         58:7a:83:3a:30:7d:62:7b:86:f1:15:26:b3:26:02:77:f2:c8:
         57:e5:1e:60:68:8b:a4:e8:f3:a8:b2:88:a4:2f:e8:6e:25:8d:
         6b:dc:53:ab:2f:d3:47:8c:d6:27:ab:39:bc:d3:ca:d8:01:96:
         a4:44:57:38:93:ab:c3:f3:95:67:7f:cf:25:1d:b7:04:dc:06:
         c9:5d:24:c1:54:13:71:81:21:31:ee:9f:b4:9d:ce:98:66:a4:
         a0:77:c1:88:18:a4:d1:36:ee:cd:d8:c1:1b:bc:03:d6:85:9a:
         2e:21:82:95:4c:b2:2a:fe:69:db:ac:e4:97:e1:e9:0e:f1:d3:
         ef:20:86:03:01:66:6b:f0:26:0f:39:04:26:f5:42:98:3f:95:
         48:5f:b5:5d:bc:49:4c:81:38:d5:e9:72:32:1c:66:1b:12:80:
         0f:db:99:f0:97:67:61:79:ad:ab:be:6a:ea:aa:cc:3d:f9:40:
         99:00:93:bb:df:4b:41:d4:7f:f1:93:b2:70:83:3a:e3:6b:44:
         4b:1f:9f:77:53:ea:5d:e6:59:1e:c0:2d:4b:83:d6:f4:a3:d4:
         a9:c3:91:12:e7:61:3f:56:9d:8f:b8:19:29:62:1b:58:df:73:
         99:1f:49:63
-----BEGIN CERTIFICATE-----
MIIE4DCCA8igAwIBAgIJAKZmOElFm9yBMA0GCSqGSIb3DQEBCwUAMIGUMQswCQYD
VQQGEwJVUzEQMA4GA1UECAwHTW9udGFuYTEQMA4GA1UEBwwHQm96ZW1hbjERMA8G
A1UECgwIU2F3dG9vdGgxEzARBgNVBAsMCkNvbnN1bHRpbmcxGDAWBgNVBAMMD3d3
dy53b2xmc3NsLmNvbTEfMB0GCSqGSIb3DQEJARYQaW5mb0B3b2xmc3NsLmNvbTAe
Fw0xNTExMjMxMjQ5MzdaFw0xODA4MTkxMjQ5MzdaMIGUMQswCQYDVQQGEwJVUzEQ
MA4GA1UECAwHTW9udGFuYTEQMA4GA1UEBwwHQm96ZW1hbjERMA8GA1UECgwIU2F3
dG9vdGgxEzARBgNVBAsMCkNvbnN1bHRpbmcxGDAWBgNVBAMMD3d3dy53b2xmc3Ns
LmNvbTEfMB0GCSqGSIb3DQEJARYQaW5mb0B3b2xmc3NsLmNvbTCCASIwDQYJKoZI
hvcNAQEBBQADggEPADCCAQoCggEBAL8Myi0Ush6EQlvNOB9K8k11EPG2NZ/fyn0D
mNOs3gNm7irx2LB9bgdUCxCYIU2AyxIg58xP3kV9yXJ3MurKkLtpUhADL6jzlcXx
i2JWG+9nb6QQQZWtCpvjpcCw0nB2UDBbqOgILHztp6J6jTgpHKzH7fJ8lbCVgn1J
XDjNdyXvvYB1U5Q8PcpjW58VtdMdEy8Z0TzbdjrMuH3J5cLX2kBv2CHccxtCLVOc
/hr8fat6Nj+Y3oR8BWfOahQ4h6nxjLVoy2h/cSAr9aBj9VYvoybSt2+xWhfXOJkI
/pNYb/7DE0kIFgunTWcAUjFnI06Y7VFFHbkE2Qvs2CizS73tNnkCAwEAAaOCATEw
ggEtMB0GA1UdDgQWBBQnjmcRdMMmHT/tM2OzpNgdMOXo1TCByQYDVR0jBIHBMIG+
gBQnjmcRdMMmHT/tM2OzpNgdMOXo1aGBmqSBlzCBlDELMAkGA1UEBhMCVVMxEDAO
BgNVBAgMB01vbnRhbmExEDAOBgNVBAcMB0JvemVtYW4xETAPBgNVBAoMCFNhd3Rv
b3RoMRMwEQYDVQQLDApDb25zdWx0aW5nMRgwFgYDVQQDDA93d3cud29sZnNzbC5j
b20xHzAdBgkqhkiG9w0BCQEWEGluZm9Ad29sZnNzbC5jb22CCQCmZjhJRZvcgTAM
BgNVHRMEBTADAQH/MDIGCCsGAQUFBwEBBCYwJDAiBggrBgEFBQcwAYYWaHR0cDov
L2xvY2FsaG9zdDoyMjIyMjANBgkqhkiG9w0BAQsFAAOCAQEAQY/7a2VrNvJWTwxI
sE2MwsvWWHqDOjB9YnuG8RUmsyYCd/LIV+UeYGiLpOjzqLKIpC/obiWNa9xTqy/T
R4zWJ6s5vNPK2AGWpERXOJOrw/OVZ3/PJR23BNwGyV0kwVQTcYEhMe6ftJ3OmGak
oHfBiBik0TbuzdjBG7wD1oWaLiGClUyyKv5p26zkl+HpDvHT7yCGAwFma/AmDzkE
JvVCmD+VSF+1XbxJTIE41elyMhxmGxKAD9uZ8JdnYXmtq75q6qrMPflAmQCTu99L
QdR/8ZOycIM642tESx+fd1PqXeZZHsAtS4PW9KPUqcOREudhP1adj7gZKWIbWN9z
mR9JYw==
-----END CERTIFICATE-----
