Certificate:
    Data:
        Version: 3 (0x2)
        Serial Number: 4 (0x4)
        Signature Algorithm: sha256WithRSAEncryption
        Issuer: C = US, ST = Washington, L = Seattle, O = wolfSSL, OU = Engineering, CN = wolfSSL root CA, emailAddress = info@wolfssl.com
        Validity
            Not Before: Sep 26 17:22:43 2023 GMT
            Not After : Jun 22 17:22:43 2026 GMT
        Subject: C = US, ST = Washington, L = Seattle, O = wolfSSL, OU = Engineering, CN = wolfSSL OCSP Responder, emailAddress = info@wolfssl.com
        Subject Public Key Info:
            Public Key Algorithm: rsaEncryption
                Public-Key: (2048 bit)
                Modulus:
                    00:b8:ba:23:b4:f6:c3:7b:14:c3:a4:f5:1d:61:a1:
                    f5:1e:63:b9:85:23:34:50:6d:f8:7c:a2:8a:04:8b:
                    d5:75:5c:2d:f7:63:88:d1:07:7a:ea:0b:45:35:2b:
                    eb:1f:b1:22:b4:94:41:38:e2:9d:74:d6:8b:30:22:
                    10:51:c5:db:ca:3f:46:2b:fe:e5:5a:3f:41:74:67:
                    75:95:a9:94:d5:c3:ee:42:f8:8d:eb:92:95:e1:d9:
                    65:b7:43:c4:18:de:16:80:90:ce:24:35:21:c4:55:
                    ac:5a:51:e0:2e:2d:b3:0a:5a:4f:4a:73:31:50:ee:
                    4a:16:bd:39:8b:ad:05:48:87:b1:99:e2:10:a7:06:
                    72:67:ca:5c:d1:97:bd:c8:f1:76:f8:e0:4a:ec:bc:
                    93:f4:66:4c:28:71:d1:d8:66:03:b4:90:30:bb:17:
                    b0:fe:97:f5:1e:e8:c7:5d:9b:8b:11:19:12:3c:ab:
                    82:71:78:ff:ae:3f:32:b2:08:71:b2:1b:8c:27:ac:
                    11:b8:d8:43:49:cf:b0:70:b1:f0:8c:ae:da:24:87:
                    17:3b:d8:04:65:6c:00:76:50:ef:15:08:d7:b4:73:
                    68:26:14:87:95:c3:5f:6e:61:b8:87:84:fa:80:1a:
                    0a:8b:98:f3:e3:ff:4e:44:1c:65:74:7c:71:54:65:
                    e5:39
                Exponent: 65537 (0x10001)
        X509v3 extensions:
            X509v3 Basic Constraints: 
                CA:FALSE
            X509v3 Subject Key Identifier: 
                32:67:E1:B1:79:D2:81:FC:9F:23:0C:70:40:50:B5:46:56:B8:30:36
            X509v3 Authority Key Identifier: 
                keyid:73:B0:1C:A4:2F:82:CB:CF:47:A5:38:D7:B0:04:82:3A:7E:72:15:21
                DirName:/C=US/ST=Washington/L=Seattle/O=wolfSSL/OU=Engineering/CN=wolfSSL root CA/emailAddress=info@wolfssl.com
                serial:63
            X509v3 Extended Key Usage: 
                OCSP Signing
    Signature Algorithm: sha256WithRSAEncryption
    Signature Value:
        8a:2e:83:cf:75:26:ef:49:bc:20:6d:07:59:fd:f1:9d:3d:00:
        80:e9:b5:87:64:db:55:b6:34:81:0e:15:e7:71:e2:1a:2d:a3:
        6a:c4:a8:62:62:24:c3:be:a1:e9:eb:d7:ef:21:71:af:02:13:
        ba:3f:3e:46:2f:8e:43:93:0c:d4:ad:b8:75:c1:a0:bf:f3:a0:
        c9:93:b5:9e:78:34:20:6d:54:0f:e4:af:f0:76:8e:94:5f:9f:
        55:96:af:da:61:04:3c:6a:7b:fe:f0:c5:fb:7d:78:75:08:32:
        6c:22:83:eb:64:7d:14:d8:27:d2:69:cf:52:b9:cd:a1:35:09:
        d3:93:ba:42:10:17:f7:21:d2:49:10:80:32:22:92:91:26:99:
        64:a3:74:1e:94:e1:ac:15:d3:f1:60:35:98:23:d5:c9:3c:72:
        c2:c2:d0:7a:01:1f:49:85:84:d1:c4:6e:c1:e4:16:16:1d:1a:
        cd:6c:0c:9f:49:16:f5:ff:8c:e0:d0:ed:45:cc:24:a3:b3:8d:
        6f:85:eb:11:86:5f:e5:39:5e:65:97:88:8e:81:46:c7:3c:24:
        0c:c5:72:d3:6c:df:2d:ed:3f:90:96:87:22:f2:38:d0:84:ae:
        c8:02:e6:05:bb:77:53:9f:15:a3:14:f7:f9:29:27:fa:86:c8:
        a1:88:f4:a9
-----BEGIN CERTIFICATE-----
MIIEvjCCA6agAwIBAgIBBDANBgkqhkiG9w0BAQsFADCBlzELMAkGA1UEBhMCVVMx
EzARBgNVBAgMCldhc2hpbmd0b24xEDAOBgNVBAcMB1NlYXR0bGUxEDAOBgNVBAoM
B3dvbGZTU0wxFDASBgNVBAsMC0VuZ2luZWVyaW5nMRgwFgYDVQQDDA93b2xmU1NM
IHJvb3QgQ0ExHzAdBgkqhkiG9w0BCQEWEGluZm9Ad29sZnNzbC5jb20wHhcNMjMw
OTI2MTcyMjQzWhcNMjYwNjIyMTcyMjQzWjCBnjELMAkGA1UEBhMCVVMxEzARBgNV
BAgMCldhc2hpbmd0b24xEDAOBgNVBAcMB1NlYXR0bGUxEDAOBgNVBAoMB3dvbGZT
U0wxFDASBgNVBAsMC0VuZ2luZWVyaW5nMR8wHQYDVQQDDBZ3b2xmU1NMIE9DU1Ag
UmVzcG9uZGVyMR8wHQYJKoZIhvcNAQkBFhBpbmZvQHdvbGZzc2wuY29tMIIBIjAN
BgkqhkiG9w0BAQEFAAOCAQ8AMIIBCgKCAQEAuLojtPbDexTDpPUdYaH1HmO5hSM0
UG34fKKKBIvVdVwt92OI0Qd66gtFNSvrH7EitJRBOOKddNaLMCIQUcXbyj9GK/7l
Wj9BdGd1lamU1cPuQviN65KV4dllt0PEGN4WgJDOJDUhxFWsWlHgLi2zClpPSnMx
UO5KFr05i60FSIexmeIQpwZyZ8pc0Ze9yPF2+OBK7LyT9GZMKHHR2GYDtJAwuxew
/pf1HujHXZuLERkSPKuCcXj/rj8ysghxshuMJ6wRuNhDSc+wcLHwjK7aJIcXO9gE
ZWwAdlDvFQjXtHNoJhSHlcNfbmG4h4T6gBoKi5jz4/9ORBxldHxxVGXlOQIDAQAB
o4IBCjCCAQYwCQYDVR0TBAIwADAdBgNVHQ4EFgQUMmfhsXnSgfyfIwxwQFC1Rla4
MDYwgcQGA1UdIwSBvDCBuYAUc7AcpC+Cy89HpTjXsASCOn5yFSGhgZ2kgZowgZcx
CzAJBgNVBAYTAlVTMRMwEQYDVQQIDApXYXNoaW5ndG9uMRAwDgYDVQQHDAdTZWF0
dGxlMRAwDgYDVQQKDAd3b2xmU1NMMRQwEgYDVQQLDAtFbmdpbmVlcmluZzEYMBYG
A1UEAwwPd29sZlNTTCByb290IENBMR8wHQYJKoZIhvcNAQkBFhBpbmZvQHdvbGZz
c2wuY29tggFjMBMGA1UdJQQMMAoGCCsGAQUFBwMJMA0GCSqGSIb3DQEBCwUAA4IB
AQCKLoPPdSbvSbwgbQdZ/fGdPQCA6bWHZNtVtjSBDhXnceIaLaNqxKhiYiTDvqHp
69fvIXGvAhO6Pz5GL45DkwzUrbh1waC/86DJk7WeeDQgbVQP5K/wdo6UX59Vlq/a
YQQ8anv+8MX7fXh1CDJsIoPrZH0U2CfSac9Suc2hNQnTk7pCEBf3IdJJEIAyIpKR
Jplko3QelOGsFdPxYDWYI9XJPHLCwtB6AR9JhYTRxG7B5BYWHRrNbAyfSRb1/4zg
0O1FzCSjs41vhesRhl/lOV5ll4iOgUbHPCQMxXLTbN8t7T+Qloci8jjQhK7IAuYF
u3dTnxWjFPf5KSf6hsihiPSp
-----END CERTIFICATE-----
Certificate:
    Data:
        Version: 3 (0x2)
        Serial Number: 99 (0x63)
        Signature Algorithm: sha256WithRSAEncryption
        Issuer: C = US, ST = Washington, L = Seattle, O = wolfSSL, OU = Engineering, CN = wolfSSL root CA, emailAddress = info@wolfssl.com
        Validity
            Not Before: Sep 26 17:22:43 2023 GMT
            Not After : Jun 22 17:22:43 2026 GMT
        Subject: C = US, ST = Washington, L = Seattle, O = wolfSSL, OU = Engineering, CN = wolfSSL root CA, emailAddress = info@wolfssl.com
        Subject Public Key Info:
            Public Key Algorithm: rsaEncryption
                Public-Key: (2048 bit)
                Modulus:
                    00:ab:2c:b4:2f:1d:06:09:ef:4e:29:86:84:7e:cc:
                    bf:a6:79:7c:f0:c0:c1:64:25:8c:75:b7:10:05:ca:
                    48:27:0c:0e:32:1c:b0:fe:99:85:39:b6:b9:a2:f7:
                    27:ff:6d:3c:8c:16:73:29:21:7f:8b:a6:54:71:90:
                    ad:cc:05:b9:9f:15:c7:0a:3f:5f:69:f4:0a:5f:8c:
                    71:b5:2c:bf:66:e2:03:9a:32:f4:d2:ec:2a:89:4b:
                    f9:35:88:14:33:47:4e:2e:05:79:01:ed:64:36:76:
                    b9:f8:85:cd:01:88:ac:c5:b2:b1:59:b8:cd:5a:f4:
                    09:09:38:9b:da:5a:cf:ce:78:99:1f:49:3d:41:d6:
                    06:7c:52:99:c8:97:d1:b3:80:3a:a2:4f:36:c4:c5:
                    96:30:77:31:38:c8:70:cc:e1:67:06:b3:2b:2f:93:
                    b5:69:cf:83:7e:88:53:9b:0f:46:21:4c:d6:05:36:
                    44:99:60:68:47:e5:32:01:12:d4:10:73:ae:9a:34:
                    94:fa:6e:b8:58:4f:7b:5b:8a:92:97:ad:fd:97:b9:
                    75:ca:c2:d4:45:7d:17:6b:cd:2f:f3:63:7a:0e:30:
                    b5:0b:a9:d9:a6:7c:74:60:9d:cc:09:03:43:f1:0f:
                    90:d3:b7:fe:6c:9f:d9:cd:78:4b:15:ae:8c:5b:f9:
                    99:81
                Exponent: 65537 (0x10001)
        X509v3 extensions:
            X509v3 Basic Constraints: 
                CA:TRUE
            X509v3 Subject Key Identifier: 
                73:B0:1C:A4:2F:82:CB:CF:47:A5:38:D7:B0:04:82:3A:7E:72:15:21
            X509v3 Authority Key Identifier: 
                keyid:73:B0:1C:A4:2F:82:CB:CF:47:A5:38:D7:B0:04:82:3A:7E:72:15:21
                DirName:/C=US/ST=Washington/L=Seattle/O=wolfSSL/OU=Engineering/CN=wolfSSL root CA/emailAddress=info@wolfssl.com
                serial:63
            X509v3 Key Usage: 
                Certificate Sign, CRL Sign
            Authority Information Access: 
                OCSP - URI:http://127.0.0.1:22220
    Signature Algorithm: sha256WithRSAEncryption
    Signature Value:
        35:d0:2c:d6:69:a1:b0:97:70:45:e0:95:4c:30:a6:06:fd:94:
        50:cd:bd:16:c0:01:7a:80:49:13:a2:9f:05:7a:de:de:57:e9:
        47:b8:ec:27:f0:3c:65:5f:f3:3c:18:78:a6:9f:b1:73:20:d9:
        17:d0:7c:63:19:d6:c0:aa:db:84:e5:99:6b:b0:77:90:6b:cb:
        ea:e0:1f:a0:5b:0f:3f:ad:ab:2c:ef:32:8a:3f:82:fc:3b:ff:
        97:67:ff:70:49:f8:7e:29:4d:07:4e:fe:52:e9:3a:82:d2:4c:
        94:d6:67:6e:fb:15:57:ff:23:e7:3f:94:4a:de:35:f3:07:0e:
        8e:6e:4f:84:e1:b0:bc:5f:b8:cb:9b:bc:02:05:2d:b1:a2:ab:
        fc:1e:d8:49:c6:31:40:c7:15:26:fc:27:87:e7:f3:d3:08:c0:
        64:52:24:a6:8a:55:d7:0d:a2:d3:6d:df:28:4e:5a:4c:98:2a:
        de:61:41:51:32:87:65:71:22:8f:6e:27:80:99:da:95:eb:eb:
        99:71:f9:8c:64:f0:c8:a7:7d:a0:fb:aa:60:d5:9c:b5:48:1b:
        7e:32:56:58:69:88:2d:72:0c:23:d6:52:76:af:64:ed:e6:23:
        bf:77:cc:a4:88:1e:0a:be:34:0e:95:b0:cf:4c:f5:12:4f:86:
        32:08:19:68
-----BEGIN CERTIFICATE-----
MIIE5jCCA86gAwIBAgIBYzANBgkqhkiG9w0BAQsFADCBlzELMAkGA1UEBhMCVVMx
EzARBgNVBAgMCldhc2hpbmd0b24xEDAOBgNVBAcMB1NlYXR0bGUxEDAOBgNVBAoM
B3dvbGZTU0wxFDASBgNVBAsMC0VuZ2luZWVyaW5nMRgwFgYDVQQDDA93b2xmU1NM
IHJvb3QgQ0ExHzAdBgkqhkiG9w0BCQEWEGluZm9Ad29sZnNzbC5jb20wHhcNMjMw
OTI2MTcyMjQzWhcNMjYwNjIyMTcyMjQzWjCBlzELMAkGA1UEBhMCVVMxEzARBgNV
BAgMCldhc2hpbmd0b24xEDAOBgNVBAcMB1NlYXR0bGUxEDAOBgNVBAoMB3dvbGZT
U0wxFDASBgNVBAsMC0VuZ2luZWVyaW5nMRgwFgYDVQQDDA93b2xmU1NMIHJvb3Qg
Q0ExHzAdBgkqhkiG9w0BCQEWEGluZm9Ad29sZnNzbC5jb20wggEiMA0GCSqGSIb3
DQEBAQUAA4IBDwAwggEKAoIBAQCrLLQvHQYJ704phoR+zL+meXzwwMFkJYx1txAF
ykgnDA4yHLD+mYU5trmi9yf/bTyMFnMpIX+LplRxkK3MBbmfFccKP19p9ApfjHG1
LL9m4gOaMvTS7CqJS/k1iBQzR04uBXkB7WQ2drn4hc0BiKzFsrFZuM1a9AkJOJva
Ws/OeJkfST1B1gZ8UpnIl9GzgDqiTzbExZYwdzE4yHDM4WcGsysvk7Vpz4N+iFOb
D0YhTNYFNkSZYGhH5TIBEtQQc66aNJT6brhYT3tbipKXrf2XuXXKwtRFfRdrzS/z
Y3oOMLULqdmmfHRgncwJA0PxD5DTt/5sn9nNeEsVroxb+ZmBAgMBAAGjggE5MIIB
NTAMBgNVHRMEBTADAQH/MB0GA1UdDgQWBBRzsBykL4LLz0elONewBII6fnIVITCB
xAYDVR0jBIG8MIG5gBRzsBykL4LLz0elONewBII6fnIVIaGBnaSBmjCBlzELMAkG
A1UEBhMCVVMxEzARBgNVBAgMCldhc2hpbmd0b24xEDAOBgNVBAcMB1NlYXR0bGUx
EDAOBgNVBAoMB3dvbGZTU0wxFDASBgNVBAsMC0VuZ2luZWVyaW5nMRgwFgYDVQQD
DA93b2xmU1NMIHJvb3QgQ0ExHzAdBgkqhkiG9w0BCQEWEGluZm9Ad29sZnNzbC5j
b22CAWMwCwYDVR0PBAQDAgEGMDIGCCsGAQUFBwEBBCYwJDAiBggrBgEFBQcwAYYW
aHR0cDovLzEyNy4wLjAuMToyMjIyMDANBgkqhkiG9w0BAQsFAAOCAQEANdAs1mmh
sJdwReCVTDCmBv2UUM29FsABeoBJE6KfBXre3lfpR7jsJ/A8ZV/zPBh4pp+xcyDZ
F9B8YxnWwKrbhOWZa7B3kGvL6uAfoFsPP62rLO8yij+C/Dv/l2f/cEn4filNB07+
Uuk6gtJMlNZnbvsVV/8j5z+USt418wcOjm5PhOGwvF+4y5u8AgUtsaKr/B7YScYx
QMcVJvwnh+fz0wjAZFIkpopV1w2i023fKE5aTJgq3mFBUTKHZXEij24ngJnalevr
mXH5jGTwyKd9oPuqYNWctUgbfjJWWGmILXIMI9ZSdq9k7eYjv3fMpIgeCr40DpWw
z0z1Ek+GMggZaA==
-----END CERTIFICATE-----
