Certificate:
    Data:
        Version: 3 (0x2)
        Serial Number: 10 (0xa)
        Signature Algorithm: sha256WithRSAEncryption
        Issuer: C=US, ST=Washington, L=Seattle, O=wolfSSL, OU=Engineering, CN=wolfSSL intermediate CA 1, emailAddress=info@wolfssl.com
        Validity
            Not Before: May 27 16:15:23 2026 GMT
            Not After : Feb 20 16:15:23 2029 GMT
        Subject: C=US, ST=Washington, L=Seattle, O=wolfSSL, OU=Engineering, CN=wolfSSL OCSP Responder Int1, emailAddress=info@wolfssl.com
        Subject Public Key Info:
            Public Key Algorithm: rsaEncryption
                Public-Key: (2048 bit)
                Modulus:
                    00:98:82:f0:e7:da:58:cf:85:0b:a4:de:34:41:3f:
                    79:5a:ff:75:78:95:c6:89:5c:b7:2e:c4:6d:05:73:
                    a5:b1:45:58:72:3e:2c:e2:c0:17:87:fe:b4:64:82:
                    00:fd:56:7d:8a:73:8d:6f:88:77:bb:98:56:a8:b6:
                    28:36:a8:0c:9f:d6:7a:25:1d:ad:10:b8:d0:19:7c:
                    80:70:9c:80:26:95:53:42:1c:90:4e:27:ed:f5:6e:
                    87:6f:2e:eb:92:95:e0:6f:53:fe:be:17:a9:7f:e6:
                    b7:09:4b:63:9c:08:97:c8:b3:36:75:38:6d:3e:ff:
                    d8:e1:22:75:57:1a:5f:60:30:4d:1b:bc:2f:99:7f:
                    02:ef:df:24:25:88:57:91:7b:2c:6f:f7:98:90:29:
                    9f:12:66:a9:3e:73:c4:81:73:e7:9c:eb:22:f5:6c:
                    d5:23:e0:7b:ba:a6:ca:16:a3:33:f9:2e:52:a3:a8:
                    c9:f1:dd:85:1f:c1:94:0b:1e:8f:b7:48:be:20:d0:
                    da:bd:3b:85:8e:92:c1:f0:7c:ec:2e:c5:27:a0:4e:
                    22:c5:c2:4d:1b:66:e7:ac:57:8c:34:2b:a5:55:e9:
                    34:9c:7f:33:29:d0:4e:cb:1a:1a:02:17:b2:45:a3:
                    49:05:5d:00:79:85:50:91:c0:3d:30:cb:84:0a:9a:
                    2d:6d
                Exponent: 65537 (0x10001)
        X509v3 extensions:
            X509v3 Basic Constraints: 
                CA:FALSE
            X509v3 Subject Key Identifier: 
                90:3C:B9:FB:15:20:AB:F6:6F:D3:F1:C9:71:B0:D0:1D:97:C6:A5:C5
            X509v3 Authority Key Identifier: 
                keyid:83:C6:3A:89:2C:81:F4:02:D7:9D:4C:E2:2A:C0:71:82:64:44:DA:0E
                DirName:/C=US/ST=Washington/L=Seattle/O=wolfSSL/OU=Engineering/CN=wolfSSL root CA/emailAddress=info@wolfssl.com
                serial:01
            X509v3 Extended Key Usage: 
                OCSP Signing
    Signature Algorithm: sha256WithRSAEncryption
    Signature Value:
        3c:42:b5:c3:a3:1a:d7:2d:c6:6a:3d:b2:5c:18:49:85:26:65:
        85:af:c2:2e:46:dc:a1:1c:8d:22:86:fc:a9:73:02:79:60:3e:
        e7:f8:cc:ff:c9:b1:38:e0:96:4f:31:b8:e5:b5:0c:b0:1d:1c:
        c2:27:29:c7:3f:70:86:5a:61:2e:11:c7:81:75:8a:72:f8:75:
        0c:84:be:65:44:98:ce:29:87:02:30:ed:42:47:fc:75:d9:88:
        73:64:ad:6b:cd:32:96:55:ea:b5:fb:8e:21:ce:02:59:dc:3e:
        9f:33:40:66:c4:be:f0:71:88:ce:f5:98:79:2d:dd:58:2b:28:
        bf:09:89:88:05:3e:36:de:e6:b1:9a:fc:4a:80:1b:00:fd:c9:
        2a:46:ce:8c:64:81:b8:25:c9:7d:d2:31:05:2c:49:57:e9:84:
        c0:a4:dc:f6:20:7e:fb:c1:d7:c5:bc:ea:07:bf:e6:10:a0:53:
        25:4f:7e:c5:77:a8:b4:c6:98:2c:72:76:49:ea:e5:45:bb:c4:
        e5:fc:4b:9c:08:64:b4:2f:bf:97:8e:84:84:d7:30:82:7f:32:
        25:73:00:d5:58:44:2b:4a:2c:08:79:86:50:0f:e9:e7:94:d1:
        d4:0e:4f:a9:e0:ab:ba:8b:e8:1a:be:90:92:64:39:10:35:90:
        09:7f:ed:69
-----BEGIN CERTIFICATE-----
MIIEzTCCA7WgAwIBAgIBCjANBgkqhkiG9w0BAQsFADCBoTELMAkGA1UEBhMCVVMx
EzARBgNVBAgMCldhc2hpbmd0b24xEDAOBgNVBAcMB1NlYXR0bGUxEDAOBgNVBAoM
B3dvbGZTU0wxFDASBgNVBAsMC0VuZ2luZWVyaW5nMSIwIAYDVQQDDBl3b2xmU1NM
IGludGVybWVkaWF0ZSBDQSAxMR8wHQYJKoZIhvcNAQkBFhBpbmZvQHdvbGZzc2wu
Y29tMB4XDTI2MDUyNzE2MTUyM1oXDTI5MDIyMDE2MTUyM1owgaMxCzAJBgNVBAYT
AlVTMRMwEQYDVQQIDApXYXNoaW5ndG9uMRAwDgYDVQQHDAdTZWF0dGxlMRAwDgYD
VQQKDAd3b2xmU1NMMRQwEgYDVQQLDAtFbmdpbmVlcmluZzEkMCIGA1UEAwwbd29s
ZlNTTCBPQ1NQIFJlc3BvbmRlciBJbnQxMR8wHQYJKoZIhvcNAQkBFhBpbmZvQHdv
bGZzc2wuY29tMIIBIjANBgkqhkiG9w0BAQEFAAOCAQ8AMIIBCgKCAQEAmILw59pY
z4ULpN40QT95Wv91eJXGiVy3LsRtBXOlsUVYcj4s4sAXh/60ZIIA/VZ9inONb4h3
u5hWqLYoNqgMn9Z6JR2tELjQGXyAcJyAJpVTQhyQTift9W6Hby7rkpXgb1P+vhep
f+a3CUtjnAiXyLM2dThtPv/Y4SJ1VxpfYDBNG7wvmX8C798kJYhXkXssb/eYkCmf
EmapPnPEgXPnnOsi9WzVI+B7uqbKFqMz+S5So6jJ8d2FH8GUCx6Pt0i+INDavTuF
jpLB8HzsLsUnoE4ixcJNG2bnrFeMNCulVek0nH8zKdBOyxoaAheyRaNJBV0AeYVQ
kcA9MMuECpotbQIDAQABo4IBCjCCAQYwCQYDVR0TBAIwADAdBgNVHQ4EFgQUkDy5
+xUgq/Zv0/HJcbDQHZfGpcUwgcQGA1UdIwSBvDCBuYAUg8Y6iSyB9ALXnUziKsBx
gmRE2g6hgZ2kgZowgZcxCzAJBgNVBAYTAlVTMRMwEQYDVQQIDApXYXNoaW5ndG9u
MRAwDgYDVQQHDAdTZWF0dGxlMRAwDgYDVQQKDAd3b2xmU1NMMRQwEgYDVQQLDAtF
bmdpbmVlcmluZzEYMBYGA1UEAwwPd29sZlNTTCByb290IENBMR8wHQYJKoZIhvcN
AQkBFhBpbmZvQHdvbGZzc2wuY29tggEBMBMGA1UdJQQMMAoGCCsGAQUFBwMJMA0G
CSqGSIb3DQEBCwUAA4IBAQA8QrXDoxrXLcZqPbJcGEmFJmWFr8IuRtyhHI0ihvyp
cwJ5YD7n+Mz/ybE44JZPMbjltQywHRzCJynHP3CGWmEuEceBdYpy+HUMhL5lRJjO
KYcCMO1CR/x12YhzZK1rzTKWVeq1+44hzgJZ3D6fM0BmxL7wcYjO9Zh5Ld1YKyi/
CYmIBT423uaxmvxKgBsA/ckqRs6MZIG4Jcl90jEFLElX6YTApNz2IH77wdfFvOoH
v+YQoFMlT37Fd6i0xpgscnZJ6uVFu8Tl/EucCGS0L7+XjoSE1zCCfzIlcwDVWEQr
SiwIeYZQD+nnlNHUDk+p4Ku6i+gavpCSZDkQNZAJf+1p
-----END CERTIFICATE-----
Certificate:
    Data:
        Version: 3 (0x2)
        Serial Number: 1 (0x1)
        Signature Algorithm: sha256WithRSAEncryption
        Issuer: C=US, ST=Washington, L=Seattle, O=wolfSSL, OU=Engineering, CN=wolfSSL root CA, emailAddress=info@wolfssl.com
        Validity
            Not Before: Nov 13 20:41:34 2025 GMT
            Not After : Aug  9 20:41:34 2028 GMT
        Subject: C=US, ST=Washington, L=Seattle, O=wolfSSL, OU=Engineering, CN=wolfSSL intermediate CA 1, emailAddress=info@wolfssl.com
        Subject Public Key Info:
            Public Key Algorithm: rsaEncryption
                Public-Key: (2048 bit)
                Modulus:
                    00:de:b4:c8:5c:77:e0:2d:b1:f5:b9:ad:16:47:35:
                    a0:35:65:65:c6:e1:40:ab:1e:b4:b9:13:b7:cb:8c:
                    bb:77:a5:76:da:6d:87:87:f6:4a:4d:13:e4:26:3e:
                    27:87:ee:5b:c7:6a:3f:45:30:61:55:5c:f6:35:d1:
                    65:fa:98:11:a3:a7:55:d5:be:91:82:4b:fc:be:90:
                    d6:50:53:63:9a:2c:22:e1:35:11:dc:78:02:97:8a:
                    e4:46:92:9c:53:08:76:de:1f:53:b6:b8:ca:77:3e:
                    79:6e:bc:d0:e3:0d:30:5b:4c:f6:94:0d:30:29:64:
                    9f:04:e5:db:fb:89:60:67:bb:af:26:83:51:77:24:
                    2f:2b:0b:a1:94:81:10:98:e8:eb:26:a8:1e:7c:e4:
                    c4:6c:67:06:95:55:4a:dd:52:f4:f2:60:6d:01:2b:
                    19:91:35:6d:a4:08:47:06:71:24:00:d9:de:c6:56:
                    f3:8b:53:2c:e2:9a:96:a5:f3:62:e5:c4:e3:23:f2:
                    d2:fc:21:ea:0f:62:76:8d:d5:99:48:ce:dc:58:c4:
                    bb:7f:da:94:2c:80:74:83:c5:e0:b0:15:7e:41:fd:
                    0e:f2:f4:f0:78:76:7b:ad:26:0d:aa:48:96:17:2f:
                    21:e3:95:2b:26:37:f9:aa:80:2f:fe:de:f6:5e:bc:
                    97:7f
                Exponent: 65537 (0x10001)
        X509v3 extensions:
            X509v3 Basic Constraints: 
                CA:TRUE
            X509v3 Subject Key Identifier: 
                83:C6:3A:89:2C:81:F4:02:D7:9D:4C:E2:2A:C0:71:82:64:44:DA:0E
            X509v3 Authority Key Identifier: 
                keyid:73:B0:1C:A4:2F:82:CB:CF:47:A5:38:D7:B0:04:82:3A:7E:72:15:21
                DirName:/C=US/ST=Washington/L=Seattle/O=wolfSSL/OU=Engineering/CN=wolfSSL root CA/emailAddress=info@wolfssl.com
                serial:63
            X509v3 Key Usage: 
                Certificate Sign, CRL Sign
            Authority Information Access: 
                OCSP - URI:http://127.0.0.1:22220
    Signature Algorithm: sha256WithRSAEncryption
    Signature Value:
        77:ec:89:37:d4:35:2e:24:fd:d2:de:d9:98:87:be:52:ae:b5:
        d4:f6:13:34:12:2c:f0:78:98:07:9f:f7:e4:76:df:6e:eb:97:
        c7:03:a3:e6:15:6e:e2:94:16:6b:ed:59:a9:4a:10:a0:cc:c2:
        61:78:c7:fb:1c:04:4a:20:c1:fc:94:c6:99:b0:3a:8c:2f:2b:
        7d:15:30:53:c7:9b:73:54:6f:4d:16:a6:ab:2d:8a:51:70:1f:
        1b:8e:60:0b:56:8b:f2:94:01:fd:81:5f:73:cb:ed:5e:cc:4a:
        71:c1:a9:1a:d7:c7:2b:5a:66:02:77:da:10:e8:45:42:a0:7c:
        ef:78:ff:dd:08:f6:84:2f:41:f5:18:c9:a2:48:d1:5d:b6:a4:
        4d:32:af:83:5d:b9:64:ec:40:e9:62:38:ef:1b:d1:8e:c9:e8:
        fd:b3:e8:e1:a1:da:16:1e:26:3c:82:36:cb:8d:80:67:33:ca:
        30:bf:93:03:c8:9c:be:a2:6f:aa:7c:76:24:3d:06:99:ab:a7:
        fe:12:f3:db:fd:a0:8a:b5:0d:c1:9c:90:b7:ca:7e:6d:fb:ff:
        2a:c3:fe:7c:9f:41:e8:c2:7f:4f:fa:4b:49:c4:a0:d0:bc:fd:
        38:34:22:ff:d5:83:79:70:7f:6c:30:8d:ad:93:fb:b8:77:01:
        34:af:cc:0e
-----BEGIN CERTIFICATE-----
MIIE8DCCA9igAwIBAgIBATANBgkqhkiG9w0BAQsFADCBlzELMAkGA1UEBhMCVVMx
EzARBgNVBAgMCldhc2hpbmd0b24xEDAOBgNVBAcMB1NlYXR0bGUxEDAOBgNVBAoM
B3dvbGZTU0wxFDASBgNVBAsMC0VuZ2luZWVyaW5nMRgwFgYDVQQDDA93b2xmU1NM
IHJvb3QgQ0ExHzAdBgkqhkiG9w0BCQEWEGluZm9Ad29sZnNzbC5jb20wHhcNMjUx
MTEzMjA0MTM0WhcNMjgwODA5MjA0MTM0WjCBoTELMAkGA1UEBhMCVVMxEzARBgNV
BAgMCldhc2hpbmd0b24xEDAOBgNVBAcMB1NlYXR0bGUxEDAOBgNVBAoMB3dvbGZT
U0wxFDASBgNVBAsMC0VuZ2luZWVyaW5nMSIwIAYDVQQDDBl3b2xmU1NMIGludGVy
bWVkaWF0ZSBDQSAxMR8wHQYJKoZIhvcNAQkBFhBpbmZvQHdvbGZzc2wuY29tMIIB
IjANBgkqhkiG9w0BAQEFAAOCAQ8AMIIBCgKCAQEA3rTIXHfgLbH1ua0WRzWgNWVl
xuFAqx60uRO3y4y7d6V22m2Hh/ZKTRPkJj4nh+5bx2o/RTBhVVz2NdFl+pgRo6dV
1b6Rgkv8vpDWUFNjmiwi4TUR3HgCl4rkRpKcUwh23h9TtrjKdz55brzQ4w0wW0z2
lA0wKWSfBOXb+4lgZ7uvJoNRdyQvKwuhlIEQmOjrJqgefOTEbGcGlVVK3VL08mBt
ASsZkTVtpAhHBnEkANnexlbzi1Ms4pqWpfNi5cTjI/LS/CHqD2J2jdWZSM7cWMS7
f9qULIB0g8XgsBV+Qf0O8vTweHZ7rSYNqkiWFy8h45UrJjf5qoAv/t72XryXfwID
AQABo4IBOTCCATUwDAYDVR0TBAUwAwEB/zAdBgNVHQ4EFgQUg8Y6iSyB9ALXnUzi
KsBxgmRE2g4wgcQGA1UdIwSBvDCBuYAUc7AcpC+Cy89HpTjXsASCOn5yFSGhgZ2k
gZowgZcxCzAJBgNVBAYTAlVTMRMwEQYDVQQIDApXYXNoaW5ndG9uMRAwDgYDVQQH
DAdTZWF0dGxlMRAwDgYDVQQKDAd3b2xmU1NMMRQwEgYDVQQLDAtFbmdpbmVlcmlu
ZzEYMBYGA1UEAwwPd29sZlNTTCByb290IENBMR8wHQYJKoZIhvcNAQkBFhBpbmZv
QHdvbGZzc2wuY29tggFjMAsGA1UdDwQEAwIBBjAyBggrBgEFBQcBAQQmMCQwIgYI
KwYBBQUHMAGGFmh0dHA6Ly8xMjcuMC4wLjE6MjIyMjAwDQYJKoZIhvcNAQELBQAD
ggEBAHfsiTfUNS4k/dLe2ZiHvlKutdT2EzQSLPB4mAef9+R2327rl8cDo+YVbuKU
FmvtWalKEKDMwmF4x/scBEogwfyUxpmwOowvK30VMFPHm3NUb00WpqstilFwHxuO
YAtWi/KUAf2BX3PL7V7MSnHBqRrXxytaZgJ32hDoRUKgfO94/90I9oQvQfUYyaJI
0V22pE0yr4NduWTsQOliOO8b0Y7J6P2z6OGh2hYeJjyCNsuNgGczyjC/kwPInL6i
b6p8diQ9Bpmrp/4S89v9oIq1DcGckLfKfm37/yrD/nyfQejCf0/6S0nEoNC8/Tg0
Iv/Vg3lwf2wwja2T+7h3ATSvzA4=
-----END CERTIFICATE-----
Certificate:
    Data:
        Version: 3 (0x2)
        Serial Number: 99 (0x63)
        Signature Algorithm: sha256WithRSAEncryption
        Issuer: C=US, ST=Washington, L=Seattle, O=wolfSSL, OU=Engineering, CN=wolfSSL root CA, emailAddress=info@wolfssl.com
        Validity
            Not Before: Nov 13 20:41:34 2025 GMT
            Not After : Aug  9 20:41:34 2028 GMT
        Subject: C=US, ST=Washington, L=Seattle, O=wolfSSL, OU=Engineering, CN=wolfSSL root CA, emailAddress=info@wolfssl.com
        Subject Public Key Info:
            Public Key Algorithm: rsaEncryption
                Public-Key: (2048 bit)
                Modulus:
                    00:ab:2c:b4:2f:1d:06:09:ef:4e:29:86:84:7e:cc:
                    bf:a6:79:7c:f0:c0:c1:64:25:8c:75:b7:10:05:ca:
                    48:27:0c:0e:32:1c:b0:fe:99:85:39:b6:b9:a2:f7:
                    27:ff:6d:3c:8c:16:73:29:21:7f:8b:a6:54:71:90:
                    ad:cc:05:b9:9f:15:c7:0a:3f:5f:69:f4:0a:5f:8c:
                    71:b5:2c:bf:66:e2:03:9a:32:f4:d2:ec:2a:89:4b:
                    f9:35:88:14:33:47:4e:2e:05:79:01:ed:64:36:76:
                    b9:f8:85:cd:01:88:ac:c5:b2:b1:59:b8:cd:5a:f4:
                    09:09:38:9b:da:5a:cf:ce:78:99:1f:49:3d:41:d6:
                    06:7c:52:99:c8:97:d1:b3:80:3a:a2:4f:36:c4:c5:
                    96:30:77:31:38:c8:70:cc:e1:67:06:b3:2b:2f:93:
                    b5:69:cf:83:7e:88:53:9b:0f:46:21:4c:d6:05:36:
                    44:99:60:68:47:e5:32:01:12:d4:10:73:ae:9a:34:
                    94:fa:6e:b8:58:4f:7b:5b:8a:92:97:ad:fd:97:b9:
                    75:ca:c2:d4:45:7d:17:6b:cd:2f:f3:63:7a:0e:30:
                    b5:0b:a9:d9:a6:7c:74:60:9d:cc:09:03:43:f1:0f:
                    90:d3:b7:fe:6c:9f:d9:cd:78:4b:15:ae:8c:5b:f9:
                    99:81
                Exponent: 65537 (0x10001)
        X509v3 extensions:
            X509v3 Basic Constraints: 
                CA:TRUE
            X509v3 Subject Key Identifier: 
                73:B0:1C:A4:2F:82:CB:CF:47:A5:38:D7:B0:04:82:3A:7E:72:15:21
            X509v3 Authority Key Identifier: 
                keyid:73:B0:1C:A4:2F:82:CB:CF:47:A5:38:D7:B0:04:82:3A:7E:72:15:21
                DirName:/C=US/ST=Washington/L=Seattle/O=wolfSSL/OU=Engineering/CN=wolfSSL root CA/emailAddress=info@wolfssl.com
                serial:63
            X509v3 Key Usage: 
                Certificate Sign, CRL Sign
            Authority Information Access: 
                OCSP - URI:http://127.0.0.1:22220
    Signature Algorithm: sha256WithRSAEncryption
    Signature Value:
        58:41:01:e5:1b:ce:bc:51:0c:23:b2:66:df:39:d9:1e:b1:bd:
        9a:db:fa:da:16:83:26:6e:7e:2e:f9:5d:46:9a:52:a0:09:6f:
        f2:c0:96:ba:49:ad:29:54:06:e9:21:d6:36:5e:d5:43:07:2c:
        5d:4e:b7:bf:7c:e5:91:75:ea:0d:56:7c:a3:fd:82:d8:2e:70:
        fa:fc:ab:36:36:d5:ba:63:d5:42:da:21:b4:50:9a:86:8a:df:
        21:26:03:e8:ca:6f:c7:51:50:6c:cc:40:da:4e:8f:06:15:c0:
        9a:0d:7a:80:2c:95:aa:5a:ad:e2:66:b0:32:d6:74:87:ea:7a:
        b2:46:d5:2c:cf:fa:18:8a:2f:e0:3a:ae:17:6a:f2:ce:75:8d:
        e4:4d:74:8f:e7:c6:21:29:65:5d:41:07:fb:29:d9:be:ea:b2:
        e3:80:07:8c:14:8d:a3:7d:d1:51:af:26:9d:cd:01:d5:80:af:
        68:12:41:2b:eb:94:cc:45:d1:c7:66:f3:f9:15:72:be:94:e3:
        21:6d:f1:08:78:b6:5a:ee:73:09:4b:f4:1a:5e:02:2a:25:f0:
        3d:d2:03:f2:22:15:4b:3d:aa:35:ea:90:ca:44:4e:61:77:db:
        b4:94:46:77:c6:8c:33:09:b6:84:3c:4e:ac:ad:9d:e0:2f:22:
        5a:be:25:19
-----BEGIN CERTIFICATE-----
MIIE5jCCA86gAwIBAgIBYzANBgkqhkiG9w0BAQsFADCBlzELMAkGA1UEBhMCVVMx
EzARBgNVBAgMCldhc2hpbmd0b24xEDAOBgNVBAcMB1NlYXR0bGUxEDAOBgNVBAoM
B3dvbGZTU0wxFDASBgNVBAsMC0VuZ2luZWVyaW5nMRgwFgYDVQQDDA93b2xmU1NM
IHJvb3QgQ0ExHzAdBgkqhkiG9w0BCQEWEGluZm9Ad29sZnNzbC5jb20wHhcNMjUx
MTEzMjA0MTM0WhcNMjgwODA5MjA0MTM0WjCBlzELMAkGA1UEBhMCVVMxEzARBgNV
BAgMCldhc2hpbmd0b24xEDAOBgNVBAcMB1NlYXR0bGUxEDAOBgNVBAoMB3dvbGZT
U0wxFDASBgNVBAsMC0VuZ2luZWVyaW5nMRgwFgYDVQQDDA93b2xmU1NMIHJvb3Qg
Q0ExHzAdBgkqhkiG9w0BCQEWEGluZm9Ad29sZnNzbC5jb20wggEiMA0GCSqGSIb3
DQEBAQUAA4IBDwAwggEKAoIBAQCrLLQvHQYJ704phoR+zL+meXzwwMFkJYx1txAF
ykgnDA4yHLD+mYU5trmi9yf/bTyMFnMpIX+LplRxkK3MBbmfFccKP19p9ApfjHG1
LL9m4gOaMvTS7CqJS/k1iBQzR04uBXkB7WQ2drn4hc0BiKzFsrFZuM1a9AkJOJva
Ws/OeJkfST1B1gZ8UpnIl9GzgDqiTzbExZYwdzE4yHDM4WcGsysvk7Vpz4N+iFOb
D0YhTNYFNkSZYGhH5TIBEtQQc66aNJT6brhYT3tbipKXrf2XuXXKwtRFfRdrzS/z
Y3oOMLULqdmmfHRgncwJA0PxD5DTt/5sn9nNeEsVroxb+ZmBAgMBAAGjggE5MIIB
NTAMBgNVHRMEBTADAQH/MB0GA1UdDgQWBBRzsBykL4LLz0elONewBII6fnIVITCB
xAYDVR0jBIG8MIG5gBRzsBykL4LLz0elONewBII6fnIVIaGBnaSBmjCBlzELMAkG
A1UEBhMCVVMxEzARBgNVBAgMCldhc2hpbmd0b24xEDAOBgNVBAcMB1NlYXR0bGUx
EDAOBgNVBAoMB3dvbGZTU0wxFDASBgNVBAsMC0VuZ2luZWVyaW5nMRgwFgYDVQQD
DA93b2xmU1NMIHJvb3QgQ0ExHzAdBgkqhkiG9w0BCQEWEGluZm9Ad29sZnNzbC5j
b22CAWMwCwYDVR0PBAQDAgEGMDIGCCsGAQUFBwEBBCYwJDAiBggrBgEFBQcwAYYW
aHR0cDovLzEyNy4wLjAuMToyMjIyMDANBgkqhkiG9w0BAQsFAAOCAQEAWEEB5RvO
vFEMI7Jm3znZHrG9mtv62haDJm5+LvldRppSoAlv8sCWukmtKVQG6SHWNl7VQwcs
XU63v3zlkXXqDVZ8o/2C2C5w+vyrNjbVumPVQtohtFCahorfISYD6Mpvx1FQbMxA
2k6PBhXAmg16gCyVqlqt4mawMtZ0h+p6skbVLM/6GIov4DquF2ryznWN5E10j+fG
ISllXUEH+ynZvuqy44AHjBSNo33RUa8mnc0B1YCvaBJBK+uUzEXRx2bz+RVyvpTj
IW3xCHi2Wu5zCUv0Gl4CKiXwPdID8iIVSz2qNeqQykROYXfbtJRGd8aMMwm2hDxO
rK2d4C8iWr4lGQ==
-----END CERTIFICATE-----
