Certificate:
    Data:
        Version: 3 (0x2)
        Serial Number: 10 (0xa)
        Signature Algorithm: sha256WithRSAEncryption
        Issuer: C=US, ST=Washington, L=Seattle, O=wolfSSL, OU=Engineering, CN=wolfSSL intermediate CA 1, emailAddress=facts@wolfssl.com
        Validity
            Not Before: Jun 26 15:58:51 2026 GMT
            Not After : Mar 22 15:58:51 2029 GMT
        Subject: C=US, ST=Washington, L=Seattle, O=wolfSSL, OU=Engineering, CN=wolfSSL OCSP Responder Int1, emailAddress=facts@wolfssl.com
        Subject Public Key Info:
            Public Key Algorithm: rsaEncryption
                Public-Key: (2048 bit)
                Modulus:
                    00:98:82:f0:e7:da:58:cf:85:0b:a4:de:34:41:3f:
                    79:5a:ff:75:78:95:c6:89:5c:b7:2e:c4:6d:05:73:
                    a5:b1:45:58:72:3e:2c:e2:c0:17:87:fe:b4:64:82:
                    00:fd:56:7d:8a:73:8d:6f:88:77:bb:98:56:a8:b6:
                    28:36:a8:0c:9f:d6:7a:25:1d:ad:10:b8:d0:19:7c:
                    80:70:9c:80:26:95:53:42:1c:90:4e:27:ed:f5:6e:
                    87:6f:2e:eb:92:95:e0:6f:53:fe:be:17:a9:7f:e6:
                    b7:09:4b:63:9c:08:97:c8:b3:36:75:38:6d:3e:ff:
                    d8:e1:22:75:57:1a:5f:60:30:4d:1b:bc:2f:99:7f:
                    02:ef:df:24:25:88:57:91:7b:2c:6f:f7:98:90:29:
                    9f:12:66:a9:3e:73:c4:81:73:e7:9c:eb:22:f5:6c:
                    d5:23:e0:7b:ba:a6:ca:16:a3:33:f9:2e:52:a3:a8:
                    c9:f1:dd:85:1f:c1:94:0b:1e:8f:b7:48:be:20:d0:
                    da:bd:3b:85:8e:92:c1:f0:7c:ec:2e:c5:27:a0:4e:
                    22:c5:c2:4d:1b:66:e7:ac:57:8c:34:2b:a5:55:e9:
                    34:9c:7f:33:29:d0:4e:cb:1a:1a:02:17:b2:45:a3:
                    49:05:5d:00:79:85:50:91:c0:3d:30:cb:84:0a:9a:
                    2d:6d
                Exponent: 65537 (0x10001)
        X509v3 extensions:
            X509v3 Basic Constraints: 
                CA:FALSE
            X509v3 Subject Key Identifier: 
                90:3C:B9:FB:15:20:AB:F6:6F:D3:F1:C9:71:B0:D0:1D:97:C6:A5:C5
            X509v3 Authority Key Identifier: 
                keyid:83:C6:3A:89:2C:81:F4:02:D7:9D:4C:E2:2A:C0:71:82:64:44:DA:0E
                DirName:/C=US/ST=Washington/L=Seattle/O=wolfSSL/OU=Engineering/CN=wolfSSL root CA/emailAddress=facts@wolfssl.com
                serial:01
            X509v3 Extended Key Usage: 
                OCSP Signing
    Signature Algorithm: sha256WithRSAEncryption
    Signature Value:
        c8:4f:df:30:d3:5e:ba:2c:f7:2f:b2:d1:fc:0e:30:c1:86:52:
        f3:95:ef:17:0a:e1:d9:46:20:4d:a0:6e:14:fb:9e:41:1d:cc:
        9c:68:bd:dd:9c:53:d6:f2:dc:bb:47:84:18:c4:ed:dc:9b:e3:
        0d:74:6a:cb:89:16:d6:21:57:6c:44:52:41:c5:36:42:05:a0:
        ac:b5:dd:5c:90:ca:36:bc:d6:2c:fb:c1:95:a2:77:36:8f:00:
        42:e4:b4:e4:b3:9f:57:44:a2:46:0c:91:ef:03:00:50:e3:68:
        ca:75:3d:d3:95:e1:21:e6:e7:8e:61:c1:f9:98:39:4a:c7:a2:
        fd:9f:57:3e:dd:8d:a7:70:84:0e:91:e2:9e:f7:75:70:5c:e2:
        a2:28:28:cb:e2:63:47:71:4d:b0:16:50:e9:05:2d:38:36:e0:
        fd:c7:4b:85:50:a4:21:6b:75:bb:3e:f9:71:fa:f7:ba:b8:b1:
        68:44:72:01:b8:06:8c:9c:7b:ed:11:24:9a:36:65:51:94:6a:
        59:d6:ab:82:a2:9f:0e:98:2c:71:57:85:d7:0f:e0:d4:aa:a3:
        6e:5c:11:f6:47:ce:c0:12:23:c6:b3:c0:74:a7:26:f5:aa:13:
        53:dd:93:e4:9b:08:57:86:a6:72:e1:9a:e0:c3:69:12:4d:f5:
        54:6a:9e:9e
-----BEGIN CERTIFICATE-----
MIIE0DCCA7igAwIBAgIBCjANBgkqhkiG9w0BAQsFADCBojELMAkGA1UEBhMCVVMx
EzARBgNVBAgMCldhc2hpbmd0b24xEDAOBgNVBAcMB1NlYXR0bGUxEDAOBgNVBAoM
B3dvbGZTU0wxFDASBgNVBAsMC0VuZ2luZWVyaW5nMSIwIAYDVQQDDBl3b2xmU1NM
IGludGVybWVkaWF0ZSBDQSAxMSAwHgYJKoZIhvcNAQkBFhFmYWN0c0B3b2xmc3Ns
LmNvbTAeFw0yNjA2MjYxNTU4NTFaFw0yOTAzMjIxNTU4NTFaMIGkMQswCQYDVQQG
EwJVUzETMBEGA1UECAwKV2FzaGluZ3RvbjEQMA4GA1UEBwwHU2VhdHRsZTEQMA4G
A1UECgwHd29sZlNTTDEUMBIGA1UECwwLRW5naW5lZXJpbmcxJDAiBgNVBAMMG3dv
bGZTU0wgT0NTUCBSZXNwb25kZXIgSW50MTEgMB4GCSqGSIb3DQEJARYRZmFjdHNA
d29sZnNzbC5jb20wggEiMA0GCSqGSIb3DQEBAQUAA4IBDwAwggEKAoIBAQCYgvDn
2ljPhQuk3jRBP3la/3V4lcaJXLcuxG0Fc6WxRVhyPiziwBeH/rRkggD9Vn2Kc41v
iHe7mFaotig2qAyf1nolHa0QuNAZfIBwnIAmlVNCHJBOJ+31bodvLuuSleBvU/6+
F6l/5rcJS2OcCJfIszZ1OG0+/9jhInVXGl9gME0bvC+ZfwLv3yQliFeReyxv95iQ
KZ8SZqk+c8SBc+ec6yL1bNUj4Hu6psoWozP5LlKjqMnx3YUfwZQLHo+3SL4g0Nq9
O4WOksHwfOwuxSegTiLFwk0bZuesV4w0K6VV6TScfzMp0E7LGhoCF7JFo0kFXQB5
hVCRwD0wy4QKmi1tAgMBAAGjggELMIIBBzAJBgNVHRMEAjAAMB0GA1UdDgQWBBSQ
PLn7FSCr9m/T8clxsNAdl8alxTCBxQYDVR0jBIG9MIG6gBSDxjqJLIH0AtedTOIq
wHGCZETaDqGBnqSBmzCBmDELMAkGA1UEBhMCVVMxEzARBgNVBAgMCldhc2hpbmd0
b24xEDAOBgNVBAcMB1NlYXR0bGUxEDAOBgNVBAoMB3dvbGZTU0wxFDASBgNVBAsM
C0VuZ2luZWVyaW5nMRgwFgYDVQQDDA93b2xmU1NMIHJvb3QgQ0ExIDAeBgkqhkiG
9w0BCQEWEWZhY3RzQHdvbGZzc2wuY29tggEBMBMGA1UdJQQMMAoGCCsGAQUFBwMJ
MA0GCSqGSIb3DQEBCwUAA4IBAQDIT98w0166LPcvstH8DjDBhlLzle8XCuHZRiBN
oG4U+55BHcycaL3dnFPW8ty7R4QYxO3cm+MNdGrLiRbWIVdsRFJBxTZCBaCstd1c
kMo2vNYs+8GVonc2jwBC5LTks59XRKJGDJHvAwBQ42jKdT3TleEh5ueOYcH5mDlK
x6L9n1c+3Y2ncIQOkeKe93VwXOKiKCjL4mNHcU2wFlDpBS04NuD9x0uFUKQha3W7
Pvlx+ve6uLFoRHIBuAaMnHvtESSaNmVRlGpZ1quCop8OmCxxV4XXD+DUqqNuXBH2
R87AEiPGs8B0pyb1qhNT3ZPkmwhXhqZy4Zrgw2kSTfVUap6e
-----END CERTIFICATE-----
Certificate:
    Data:
        Version: 3 (0x2)
        Serial Number: 1 (0x1)
        Signature Algorithm: sha256WithRSAEncryption
        Issuer: C=US, ST=Washington, L=Seattle, O=wolfSSL, OU=Engineering, CN=wolfSSL root CA, emailAddress=facts@wolfssl.com
        Validity
            Not Before: Jun 11 21:44:34 2026 GMT
            Not After : Mar  7 21:44:34 2029 GMT
        Subject: C=US, ST=Washington, L=Seattle, O=wolfSSL, OU=Engineering, CN=wolfSSL intermediate CA 1, emailAddress=facts@wolfssl.com
        Subject Public Key Info:
            Public Key Algorithm: rsaEncryption
                Public-Key: (2048 bit)
                Modulus:
                    00:de:b4:c8:5c:77:e0:2d:b1:f5:b9:ad:16:47:35:
                    a0:35:65:65:c6:e1:40:ab:1e:b4:b9:13:b7:cb:8c:
                    bb:77:a5:76:da:6d:87:87:f6:4a:4d:13:e4:26:3e:
                    27:87:ee:5b:c7:6a:3f:45:30:61:55:5c:f6:35:d1:
                    65:fa:98:11:a3:a7:55:d5:be:91:82:4b:fc:be:90:
                    d6:50:53:63:9a:2c:22:e1:35:11:dc:78:02:97:8a:
                    e4:46:92:9c:53:08:76:de:1f:53:b6:b8:ca:77:3e:
                    79:6e:bc:d0:e3:0d:30:5b:4c:f6:94:0d:30:29:64:
                    9f:04:e5:db:fb:89:60:67:bb:af:26:83:51:77:24:
                    2f:2b:0b:a1:94:81:10:98:e8:eb:26:a8:1e:7c:e4:
                    c4:6c:67:06:95:55:4a:dd:52:f4:f2:60:6d:01:2b:
                    19:91:35:6d:a4:08:47:06:71:24:00:d9:de:c6:56:
                    f3:8b:53:2c:e2:9a:96:a5:f3:62:e5:c4:e3:23:f2:
                    d2:fc:21:ea:0f:62:76:8d:d5:99:48:ce:dc:58:c4:
                    bb:7f:da:94:2c:80:74:83:c5:e0:b0:15:7e:41:fd:
                    0e:f2:f4:f0:78:76:7b:ad:26:0d:aa:48:96:17:2f:
                    21:e3:95:2b:26:37:f9:aa:80:2f:fe:de:f6:5e:bc:
                    97:7f
                Exponent: 65537 (0x10001)
        X509v3 extensions:
            X509v3 Basic Constraints: 
                CA:TRUE
            X509v3 Subject Key Identifier: 
                83:C6:3A:89:2C:81:F4:02:D7:9D:4C:E2:2A:C0:71:82:64:44:DA:0E
            X509v3 Authority Key Identifier: 
                keyid:73:B0:1C:A4:2F:82:CB:CF:47:A5:38:D7:B0:04:82:3A:7E:72:15:21
                DirName:/C=US/ST=Washington/L=Seattle/O=wolfSSL/OU=Engineering/CN=wolfSSL root CA/emailAddress=facts@wolfssl.com
                serial:63
            X509v3 Key Usage: 
                Certificate Sign, CRL Sign
            Authority Information Access: 
                OCSP - URI:http://127.0.0.1:22220
    Signature Algorithm: sha256WithRSAEncryption
    Signature Value:
        1a:4e:f4:e6:eb:df:9e:b0:67:30:f2:ea:20:d6:f8:85:8f:5c:
        e2:06:5b:16:98:9e:44:fe:e7:ce:5d:19:6d:7e:56:1a:4a:41:
        e9:d8:b5:3a:1d:a9:fa:64:e6:e8:00:01:49:6a:63:59:e5:88:
        dc:42:8f:c1:d1:5b:20:79:5c:16:a0:f1:75:15:9e:6a:86:a1:
        6d:19:d1:76:fa:25:92:a9:42:8a:ac:91:38:ef:e0:8c:89:a1:
        94:14:80:46:50:9c:84:8b:3a:c7:69:23:22:10:42:ad:a9:70:
        43:da:56:27:fd:7b:97:00:cd:a8:6a:87:f4:bb:46:3d:a6:ae:
        08:40:ee:eb:1c:ab:f2:44:79:13:81:68:d2:fb:de:78:b7:ee:
        f3:e4:41:f7:aa:39:fc:48:fd:a6:69:4a:4c:02:f9:aa:ae:a7:
        5e:24:0f:94:81:a5:64:c8:38:1b:dc:e1:78:0c:00:45:dc:a4:
        dd:94:da:8e:6a:d0:2c:8a:bf:57:bb:ea:74:1b:66:f0:e1:89:
        f9:28:27:e8:cc:81:fe:b3:11:d4:76:b0:32:a3:00:1c:04:62:
        98:14:c7:7d:1e:79:fa:e2:6e:f9:65:13:dc:74:4a:38:7b:ef:
        4e:3b:bd:a9:db:52:e9:40:cc:dd:73:b3:95:e2:20:d6:a5:99:
        ad:00:82:5b
-----BEGIN CERTIFICATE-----
MIIE8zCCA9ugAwIBAgIBATANBgkqhkiG9w0BAQsFADCBmDELMAkGA1UEBhMCVVMx
EzARBgNVBAgMCldhc2hpbmd0b24xEDAOBgNVBAcMB1NlYXR0bGUxEDAOBgNVBAoM
B3dvbGZTU0wxFDASBgNVBAsMC0VuZ2luZWVyaW5nMRgwFgYDVQQDDA93b2xmU1NM
IHJvb3QgQ0ExIDAeBgkqhkiG9w0BCQEWEWZhY3RzQHdvbGZzc2wuY29tMB4XDTI2
MDYxMTIxNDQzNFoXDTI5MDMwNzIxNDQzNFowgaIxCzAJBgNVBAYTAlVTMRMwEQYD
VQQIDApXYXNoaW5ndG9uMRAwDgYDVQQHDAdTZWF0dGxlMRAwDgYDVQQKDAd3b2xm
U1NMMRQwEgYDVQQLDAtFbmdpbmVlcmluZzEiMCAGA1UEAwwZd29sZlNTTCBpbnRl
cm1lZGlhdGUgQ0EgMTEgMB4GCSqGSIb3DQEJARYRZmFjdHNAd29sZnNzbC5jb20w
ggEiMA0GCSqGSIb3DQEBAQUAA4IBDwAwggEKAoIBAQDetMhcd+AtsfW5rRZHNaA1
ZWXG4UCrHrS5E7fLjLt3pXbabYeH9kpNE+QmPieH7lvHaj9FMGFVXPY10WX6mBGj
p1XVvpGCS/y+kNZQU2OaLCLhNRHceAKXiuRGkpxTCHbeH1O2uMp3PnluvNDjDTBb
TPaUDTApZJ8E5dv7iWBnu68mg1F3JC8rC6GUgRCY6OsmqB585MRsZwaVVUrdUvTy
YG0BKxmRNW2kCEcGcSQA2d7GVvOLUyzimpal82LlxOMj8tL8IeoPYnaN1ZlIztxY
xLt/2pQsgHSDxeCwFX5B/Q7y9PB4dnutJg2qSJYXLyHjlSsmN/mqgC/+3vZevJd/
AgMBAAGjggE6MIIBNjAMBgNVHRMEBTADAQH/MB0GA1UdDgQWBBSDxjqJLIH0Ated
TOIqwHGCZETaDjCBxQYDVR0jBIG9MIG6gBRzsBykL4LLz0elONewBII6fnIVIaGB
nqSBmzCBmDELMAkGA1UEBhMCVVMxEzARBgNVBAgMCldhc2hpbmd0b24xEDAOBgNV
BAcMB1NlYXR0bGUxEDAOBgNVBAoMB3dvbGZTU0wxFDASBgNVBAsMC0VuZ2luZWVy
aW5nMRgwFgYDVQQDDA93b2xmU1NMIHJvb3QgQ0ExIDAeBgkqhkiG9w0BCQEWEWZh
Y3RzQHdvbGZzc2wuY29tggFjMAsGA1UdDwQEAwIBBjAyBggrBgEFBQcBAQQmMCQw
IgYIKwYBBQUHMAGGFmh0dHA6Ly8xMjcuMC4wLjE6MjIyMjAwDQYJKoZIhvcNAQEL
BQADggEBABpO9Obr356wZzDy6iDW+IWPXOIGWxaYnkT+585dGW1+VhpKQenYtTod
qfpk5ugAAUlqY1nliNxCj8HRWyB5XBag8XUVnmqGoW0Z0Xb6JZKpQoqskTjv4IyJ
oZQUgEZQnISLOsdpIyIQQq2pcEPaVif9e5cAzahqh/S7Rj2mrghA7uscq/JEeROB
aNL73ni37vPkQfeqOfxI/aZpSkwC+aqup14kD5SBpWTIOBvc4XgMAEXcpN2U2o5q
0CyKv1e76nQbZvDhifkoJ+jMgf6zEdR2sDKjABwEYpgUx30eefribvllE9x0Sjh7
7047vanbUulAzN1zs5XiINalma0Agls=
-----END CERTIFICATE-----
Certificate:
    Data:
        Version: 3 (0x2)
        Serial Number: 99 (0x63)
        Signature Algorithm: sha256WithRSAEncryption
        Issuer: C=US, ST=Washington, L=Seattle, O=wolfSSL, OU=Engineering, CN=wolfSSL root CA, emailAddress=facts@wolfssl.com
        Validity
            Not Before: Jun 11 21:44:34 2026 GMT
            Not After : Mar  7 21:44:34 2029 GMT
        Subject: C=US, ST=Washington, L=Seattle, O=wolfSSL, OU=Engineering, CN=wolfSSL root CA, emailAddress=facts@wolfssl.com
        Subject Public Key Info:
            Public Key Algorithm: rsaEncryption
                Public-Key: (2048 bit)
                Modulus:
                    00:ab:2c:b4:2f:1d:06:09:ef:4e:29:86:84:7e:cc:
                    bf:a6:79:7c:f0:c0:c1:64:25:8c:75:b7:10:05:ca:
                    48:27:0c:0e:32:1c:b0:fe:99:85:39:b6:b9:a2:f7:
                    27:ff:6d:3c:8c:16:73:29:21:7f:8b:a6:54:71:90:
                    ad:cc:05:b9:9f:15:c7:0a:3f:5f:69:f4:0a:5f:8c:
                    71:b5:2c:bf:66:e2:03:9a:32:f4:d2:ec:2a:89:4b:
                    f9:35:88:14:33:47:4e:2e:05:79:01:ed:64:36:76:
                    b9:f8:85:cd:01:88:ac:c5:b2:b1:59:b8:cd:5a:f4:
                    09:09:38:9b:da:5a:cf:ce:78:99:1f:49:3d:41:d6:
                    06:7c:52:99:c8:97:d1:b3:80:3a:a2:4f:36:c4:c5:
                    96:30:77:31:38:c8:70:cc:e1:67:06:b3:2b:2f:93:
                    b5:69:cf:83:7e:88:53:9b:0f:46:21:4c:d6:05:36:
                    44:99:60:68:47:e5:32:01:12:d4:10:73:ae:9a:34:
                    94:fa:6e:b8:58:4f:7b:5b:8a:92:97:ad:fd:97:b9:
                    75:ca:c2:d4:45:7d:17:6b:cd:2f:f3:63:7a:0e:30:
                    b5:0b:a9:d9:a6:7c:74:60:9d:cc:09:03:43:f1:0f:
                    90:d3:b7:fe:6c:9f:d9:cd:78:4b:15:ae:8c:5b:f9:
                    99:81
                Exponent: 65537 (0x10001)
        X509v3 extensions:
            X509v3 Basic Constraints: 
                CA:TRUE
            X509v3 Subject Key Identifier: 
                73:B0:1C:A4:2F:82:CB:CF:47:A5:38:D7:B0:04:82:3A:7E:72:15:21
            X509v3 Authority Key Identifier: 
                keyid:73:B0:1C:A4:2F:82:CB:CF:47:A5:38:D7:B0:04:82:3A:7E:72:15:21
                DirName:/C=US/ST=Washington/L=Seattle/O=wolfSSL/OU=Engineering/CN=wolfSSL root CA/emailAddress=facts@wolfssl.com
                serial:63
            X509v3 Key Usage: 
                Certificate Sign, CRL Sign
            Authority Information Access: 
                OCSP - URI:http://127.0.0.1:22220
    Signature Algorithm: sha256WithRSAEncryption
    Signature Value:
        36:b1:86:d6:72:f8:e7:6a:ae:43:fb:c0:ed:f1:36:64:8a:da:
        8e:5f:f7:c4:ad:64:c8:29:03:74:58:b0:9e:ee:41:89:5b:2a:
        12:f4:82:a4:03:a5:f0:df:a2:84:cb:2b:b3:16:0f:dc:cf:cc:
        56:99:61:a9:f9:3d:3a:7e:e4:12:43:c3:b1:4f:58:26:79:e7:
        e4:0d:a5:88:3d:79:33:a1:09:7d:78:af:bd:59:71:11:54:4a:
        cc:d6:d2:6d:1f:88:27:ac:d5:bf:75:fc:c3:05:0b:cd:c8:0e:
        72:41:1d:d8:68:62:be:94:d7:60:be:05:4a:42:9c:50:b7:45:
        71:6d:83:9a:ef:08:5c:41:db:c8:62:33:3c:69:a2:8a:b4:0f:
        db:65:c4:b7:92:0a:76:f7:55:06:77:8c:ff:8c:84:84:d9:dd:
        46:11:2a:2d:27:96:a7:f5:47:c1:43:4b:fe:53:d8:be:16:94:
        36:0a:d4:be:c3:6c:9b:0c:52:31:4a:eb:62:b4:81:4b:2d:f7:
        f1:65:c1:ee:36:79:19:f7:ab:16:f8:38:d2:ea:87:8d:f8:f9:
        14:82:db:67:b6:94:a8:55:0b:90:6b:af:b0:e9:42:64:42:6d:
        2c:e3:f1:b6:e0:f9:58:ed:69:66:62:98:dc:5a:7b:fa:35:5a:
        23:84:91:0e
-----BEGIN CERTIFICATE-----
MIIE6TCCA9GgAwIBAgIBYzANBgkqhkiG9w0BAQsFADCBmDELMAkGA1UEBhMCVVMx
EzARBgNVBAgMCldhc2hpbmd0b24xEDAOBgNVBAcMB1NlYXR0bGUxEDAOBgNVBAoM
B3dvbGZTU0wxFDASBgNVBAsMC0VuZ2luZWVyaW5nMRgwFgYDVQQDDA93b2xmU1NM
IHJvb3QgQ0ExIDAeBgkqhkiG9w0BCQEWEWZhY3RzQHdvbGZzc2wuY29tMB4XDTI2
MDYxMTIxNDQzNFoXDTI5MDMwNzIxNDQzNFowgZgxCzAJBgNVBAYTAlVTMRMwEQYD
VQQIDApXYXNoaW5ndG9uMRAwDgYDVQQHDAdTZWF0dGxlMRAwDgYDVQQKDAd3b2xm
U1NMMRQwEgYDVQQLDAtFbmdpbmVlcmluZzEYMBYGA1UEAwwPd29sZlNTTCByb290
IENBMSAwHgYJKoZIhvcNAQkBFhFmYWN0c0B3b2xmc3NsLmNvbTCCASIwDQYJKoZI
hvcNAQEBBQADggEPADCCAQoCggEBAKsstC8dBgnvTimGhH7Mv6Z5fPDAwWQljHW3
EAXKSCcMDjIcsP6ZhTm2uaL3J/9tPIwWcykhf4umVHGQrcwFuZ8Vxwo/X2n0Cl+M
cbUsv2biA5oy9NLsKolL+TWIFDNHTi4FeQHtZDZ2ufiFzQGIrMWysVm4zVr0CQk4
m9paz854mR9JPUHWBnxSmciX0bOAOqJPNsTFljB3MTjIcMzhZwazKy+TtWnPg36I
U5sPRiFM1gU2RJlgaEflMgES1BBzrpo0lPpuuFhPe1uKkpet/Ze5dcrC1EV9F2vN
L/Njeg4wtQup2aZ8dGCdzAkDQ/EPkNO3/myf2c14SxWujFv5mYECAwEAAaOCATow
ggE2MAwGA1UdEwQFMAMBAf8wHQYDVR0OBBYEFHOwHKQvgsvPR6U417AEgjp+chUh
MIHFBgNVHSMEgb0wgbqAFHOwHKQvgsvPR6U417AEgjp+chUhoYGepIGbMIGYMQsw
CQYDVQQGEwJVUzETMBEGA1UECAwKV2FzaGluZ3RvbjEQMA4GA1UEBwwHU2VhdHRs
ZTEQMA4GA1UECgwHd29sZlNTTDEUMBIGA1UECwwLRW5naW5lZXJpbmcxGDAWBgNV
BAMMD3dvbGZTU0wgcm9vdCBDQTEgMB4GCSqGSIb3DQEJARYRZmFjdHNAd29sZnNz
bC5jb22CAWMwCwYDVR0PBAQDAgEGMDIGCCsGAQUFBwEBBCYwJDAiBggrBgEFBQcw
AYYWaHR0cDovLzEyNy4wLjAuMToyMjIyMDANBgkqhkiG9w0BAQsFAAOCAQEANrGG
1nL452quQ/vA7fE2ZIrajl/3xK1kyCkDdFiwnu5BiVsqEvSCpAOl8N+ihMsrsxYP
3M/MVplhqfk9On7kEkPDsU9YJnnn5A2liD15M6EJfXivvVlxEVRKzNbSbR+IJ6zV
v3X8wwULzcgOckEd2GhivpTXYL4FSkKcULdFcW2Dmu8IXEHbyGIzPGmiirQP22XE
t5IKdvdVBneM/4yEhNndRhEqLSeWp/VHwUNL/lPYvhaUNgrUvsNsmwxSMUrrYrSB
Sy338WXB7jZ5GferFvg40uqHjfj5FILbZ7aUqFULkGuvsOlCZEJtLOPxtuD5WO1p
ZmKY3Fp7+jVaI4SRDg==
-----END CERTIFICATE-----
