Certificate:
    Data:
        Version: 3 (0x2)
        Serial Number: 4 (0x4)
        Signature Algorithm: sha256WithRSAEncryption
        Issuer: C = US, ST = Washington, L = Seattle, O = wolfSSL, OU = Engineering, CN = wolfSSL root CA, emailAddress = info@wolfssl.com
        Validity
            Not Before: Jun 19 13:23:41 2020 GMT
            Not After : Mar 16 13:23:41 2023 GMT
        Subject: C = US, ST = Washington, L = Seattle, O = wolfSSL, OU = Engineering, CN = wolfSSL OCSP Responder, emailAddress = info@wolfssl.com
        Subject Public Key Info:
            Public Key Algorithm: rsaEncryption
                RSA Public-Key: (2048 bit)
                Modulus:
                    00:b8:ba:23:b4:f6:c3:7b:14:c3:a4:f5:1d:61:a1:
                    f5:1e:63:b9:85:23:34:50:6d:f8:7c:a2:8a:04:8b:
                    d5:75:5c:2d:f7:63:88:d1:07:7a:ea:0b:45:35:2b:
                    eb:1f:b1:22:b4:94:41:38:e2:9d:74:d6:8b:30:22:
                    10:51:c5:db:ca:3f:46:2b:fe:e5:5a:3f:41:74:67:
                    75:95:a9:94:d5:c3:ee:42:f8:8d:eb:92:95:e1:d9:
                    65:b7:43:c4:18:de:16:80:90:ce:24:35:21:c4:55:
                    ac:5a:51:e0:2e:2d:b3:0a:5a:4f:4a:73:31:50:ee:
                    4a:16:bd:39:8b:ad:05:48:87:b1:99:e2:10:a7:06:
                    72:67:ca:5c:d1:97:bd:c8:f1:76:f8:e0:4a:ec:bc:
                    93:f4:66:4c:28:71:d1:d8:66:03:b4:90:30:bb:17:
                    b0:fe:97:f5:1e:e8:c7:5d:9b:8b:11:19:12:3c:ab:
                    82:71:78:ff:ae:3f:32:b2:08:71:b2:1b:8c:27:ac:
                    11:b8:d8:43:49:cf:b0:70:b1:f0:8c:ae:da:24:87:
                    17:3b:d8:04:65:6c:00:76:50:ef:15:08:d7:b4:73:
                    68:26:14:87:95:c3:5f:6e:61:b8:87:84:fa:80:1a:
                    0a:8b:98:f3:e3:ff:4e:44:1c:65:74:7c:71:54:65:
                    e5:39
                Exponent: 65537 (0x10001)
        X509v3 extensions:
            X509v3 Basic Constraints: 
                CA:FALSE
            X509v3 Subject Key Identifier: 
                32:67:E1:B1:79:D2:81:FC:9F:23:0C:70:40:50:B5:46:56:B8:30:36
            X509v3 Authority Key Identifier: 
                keyid:73:B0:1C:A4:2F:82:CB:CF:47:A5:38:D7:B0:04:82:3A:7E:72:15:21
                DirName:/C=US/ST=Washington/L=Seattle/O=wolfSSL/OU=Engineering/CN=wolfSSL root CA/emailAddress=info@wolfssl.com
                serial:63

            X509v3 Extended Key Usage: 
                OCSP Signing
    Signature Algorithm: sha256WithRSAEncryption
         7f:a6:bb:6a:fe:59:e2:6e:dd:00:73:ff:0c:1a:08:83:0f:82:
         dd:8b:9a:3e:12:37:28:2e:93:02:c6:7e:93:30:53:f4:40:26:
         74:c2:02:46:9c:a3:60:37:78:99:cb:96:13:ed:d4:ff:3b:d9:
         53:b9:89:cf:f9:dc:74:c1:4e:df:a4:4c:26:75:6a:6f:21:92:
         5a:a4:e7:22:04:dc:29:51:4e:b5:aa:8b:0b:b0:d4:1c:98:0a:
         fb:65:fa:7a:cd:14:9b:25:be:9e:be:0d:37:55:7c:5e:22:69:
         16:03:9a:20:66:4c:4b:aa:37:1a:07:66:30:3e:e3:86:3c:d8:
         8b:67:d5:fd:66:53:f2:88:e5:29:68:d2:07:7d:52:d4:d3:16:
         43:ae:27:b1:20:b0:88:73:9d:cf:ff:dd:3a:75:42:ad:63:dc:
         f6:61:b3:6f:97:c4:c2:f8:88:16:62:5e:6a:17:fd:45:b8:ad:
         7b:6b:52:80:c1:f7:43:b0:8d:4e:d9:75:fd:d9:ec:c9:ef:a3:
         bf:08:1e:0f:15:d7:96:61:5f:6c:c1:0e:06:0f:f1:4e:07:dc:
         22:0f:bc:99:89:92:ed:6a:3e:90:e3:24:89:87:a7:8c:cc:f8:
         55:10:b2:d5:11:ee:ae:39:d1:b1:c0:09:fe:07:95:7e:cd:54:
         4a:3b:48:bb
-----BEGIN CERTIFICATE-----
MIIEvjCCA6agAwIBAgIBBDANBgkqhkiG9w0BAQsFADCBlzELMAkGA1UEBhMCVVMx
EzARBgNVBAgMCldhc2hpbmd0b24xEDAOBgNVBAcMB1NlYXR0bGUxEDAOBgNVBAoM
B3dvbGZTU0wxFDASBgNVBAsMC0VuZ2luZWVyaW5nMRgwFgYDVQQDDA93b2xmU1NM
IHJvb3QgQ0ExHzAdBgkqhkiG9w0BCQEWEGluZm9Ad29sZnNzbC5jb20wHhcNMjAw
NjE5MTMyMzQxWhcNMjMwMzE2MTMyMzQxWjCBnjELMAkGA1UEBhMCVVMxEzARBgNV
BAgMCldhc2hpbmd0b24xEDAOBgNVBAcMB1NlYXR0bGUxEDAOBgNVBAoMB3dvbGZT
U0wxFDASBgNVBAsMC0VuZ2luZWVyaW5nMR8wHQYDVQQDDBZ3b2xmU1NMIE9DU1Ag
UmVzcG9uZGVyMR8wHQYJKoZIhvcNAQkBFhBpbmZvQHdvbGZzc2wuY29tMIIBIjAN
BgkqhkiG9w0BAQEFAAOCAQ8AMIIBCgKCAQEAuLojtPbDexTDpPUdYaH1HmO5hSM0
UG34fKKKBIvVdVwt92OI0Qd66gtFNSvrH7EitJRBOOKddNaLMCIQUcXbyj9GK/7l
Wj9BdGd1lamU1cPuQviN65KV4dllt0PEGN4WgJDOJDUhxFWsWlHgLi2zClpPSnMx
UO5KFr05i60FSIexmeIQpwZyZ8pc0Ze9yPF2+OBK7LyT9GZMKHHR2GYDtJAwuxew
/pf1HujHXZuLERkSPKuCcXj/rj8ysghxshuMJ6wRuNhDSc+wcLHwjK7aJIcXO9gE
ZWwAdlDvFQjXtHNoJhSHlcNfbmG4h4T6gBoKi5jz4/9ORBxldHxxVGXlOQIDAQAB
o4IBCjCCAQYwCQYDVR0TBAIwADAdBgNVHQ4EFgQUMmfhsXnSgfyfIwxwQFC1Rla4
MDYwgcQGA1UdIwSBvDCBuYAUc7AcpC+Cy89HpTjXsASCOn5yFSGhgZ2kgZowgZcx
CzAJBgNVBAYTAlVTMRMwEQYDVQQIDApXYXNoaW5ndG9uMRAwDgYDVQQHDAdTZWF0
dGxlMRAwDgYDVQQKDAd3b2xmU1NMMRQwEgYDVQQLDAtFbmdpbmVlcmluZzEYMBYG
A1UEAwwPd29sZlNTTCByb290IENBMR8wHQYJKoZIhvcNAQkBFhBpbmZvQHdvbGZz
c2wuY29tggFjMBMGA1UdJQQMMAoGCCsGAQUFBwMJMA0GCSqGSIb3DQEBCwUAA4IB
AQB/prtq/lnibt0Ac/8MGgiDD4Ldi5o+EjcoLpMCxn6TMFP0QCZ0wgJGnKNgN3iZ
y5YT7dT/O9lTuYnP+dx0wU7fpEwmdWpvIZJapOciBNwpUU61qosLsNQcmAr7Zfp6
zRSbJb6evg03VXxeImkWA5ogZkxLqjcaB2YwPuOGPNiLZ9X9ZlPyiOUpaNIHfVLU
0xZDriexILCIc53P/906dUKtY9z2YbNvl8TC+IgWYl5qF/1FuK17a1KAwfdDsI1O
2XX92ezJ76O/CB4PFdeWYV9swQ4GD/FOB9wiD7yZiZLtaj6Q4ySJh6eMzPhVELLV
Ee6uOdGxwAn+B5V+zVRKO0i7
-----END CERTIFICATE-----
Certificate:
    Data:
        Version: 3 (0x2)
        Serial Number: 99 (0x63)
        Signature Algorithm: sha256WithRSAEncryption
        Issuer: C = US, ST = Washington, L = Seattle, O = wolfSSL, OU = Engineering, CN = wolfSSL root CA, emailAddress = info@wolfssl.com
        Validity
            Not Before: Jun 19 13:23:41 2020 GMT
            Not After : Mar 16 13:23:41 2023 GMT
        Subject: C = US, ST = Washington, L = Seattle, O = wolfSSL, OU = Engineering, CN = wolfSSL root CA, emailAddress = info@wolfssl.com
        Subject Public Key Info:
            Public Key Algorithm: rsaEncryption
                RSA Public-Key: (2048 bit)
                Modulus:
                    00:ab:2c:b4:2f:1d:06:09:ef:4e:29:86:84:7e:cc:
                    bf:a6:79:7c:f0:c0:c1:64:25:8c:75:b7:10:05:ca:
                    48:27:0c:0e:32:1c:b0:fe:99:85:39:b6:b9:a2:f7:
                    27:ff:6d:3c:8c:16:73:29:21:7f:8b:a6:54:71:90:
                    ad:cc:05:b9:9f:15:c7:0a:3f:5f:69:f4:0a:5f:8c:
                    71:b5:2c:bf:66:e2:03:9a:32:f4:d2:ec:2a:89:4b:
                    f9:35:88:14:33:47:4e:2e:05:79:01:ed:64:36:76:
                    b9:f8:85:cd:01:88:ac:c5:b2:b1:59:b8:cd:5a:f4:
                    09:09:38:9b:da:5a:cf:ce:78:99:1f:49:3d:41:d6:
                    06:7c:52:99:c8:97:d1:b3:80:3a:a2:4f:36:c4:c5:
                    96:30:77:31:38:c8:70:cc:e1:67:06:b3:2b:2f:93:
                    b5:69:cf:83:7e:88:53:9b:0f:46:21:4c:d6:05:36:
                    44:99:60:68:47:e5:32:01:12:d4:10:73:ae:9a:34:
                    94:fa:6e:b8:58:4f:7b:5b:8a:92:97:ad:fd:97:b9:
                    75:ca:c2:d4:45:7d:17:6b:cd:2f:f3:63:7a:0e:30:
                    b5:0b:a9:d9:a6:7c:74:60:9d:cc:09:03:43:f1:0f:
                    90:d3:b7:fe:6c:9f:d9:cd:78:4b:15:ae:8c:5b:f9:
                    99:81
                Exponent: 65537 (0x10001)
        X509v3 extensions:
            X509v3 Basic Constraints: 
                CA:TRUE
            X509v3 Subject Key Identifier: 
                73:B0:1C:A4:2F:82:CB:CF:47:A5:38:D7:B0:04:82:3A:7E:72:15:21
            X509v3 Authority Key Identifier: 
                keyid:73:B0:1C:A4:2F:82:CB:CF:47:A5:38:D7:B0:04:82:3A:7E:72:15:21
                DirName:/C=US/ST=Washington/L=Seattle/O=wolfSSL/OU=Engineering/CN=wolfSSL root CA/emailAddress=info@wolfssl.com
                serial:63

            X509v3 Key Usage: 
                Certificate Sign, CRL Sign
            Authority Information Access: 
                OCSP - URI:http://127.0.0.1:22220

    Signature Algorithm: sha256WithRSAEncryption
         a3:37:1d:70:ed:7a:e6:d7:e4:be:0f:c4:9e:47:45:a0:fa:ca:
         33:72:1c:fe:ce:96:7a:aa:d6:18:36:81:27:aa:2e:c7:d9:09:
         46:dc:0a:02:c5:f8:6e:6b:09:b9:6a:f3:d5:cc:6c:62:84:2f:
         96:0c:18:02:17:bb:36:b7:e3:c5:e1:d4:86:7a:c6:6c:29:28:
         55:24:9a:10:55:f0:12:45:63:5d:0d:4a:30:fe:af:4a:60:8f:
         91:5a:54:53:ec:ea:dd:b3:0c:51:3e:da:d9:8e:4f:2d:4a:ab:
         e6:16:7a:61:49:2e:4e:0a:48:c5:2e:94:4c:d5:a8:f8:e4:49:
         d9:5f:2b:4f:1f:e0:2d:ff:f7:e8:1d:e9:cf:e1:46:d4:50:ac:
         d9:ca:ed:c6:a4:0b:f4:ef:ec:d5:9f:ff:a5:c8:c8:b8:f0:21:
         bd:a6:da:7b:a1:cd:f3:64:4c:09:dd:56:22:94:bc:8e:f6:a5:
         76:c2:06:d4:f1:1a:37:76:49:d5:99:57:64:f1:c1:75:a3:ed:
         88:b3:af:aa:24:28:27:96:b9:03:2b:df:89:e9:2b:47:6e:d3:
         af:af:23:f9:59:66:2e:c4:1e:7e:bb:44:da:d5:db:b7:d6:a7:
         df:7f:c4:28:79:c7:d9:4b:92:18:d1:ae:cb:62:31:6b:7d:fa:
         3b:16:7a:b5
-----BEGIN CERTIFICATE-----
MIIE5jCCA86gAwIBAgIBYzANBgkqhkiG9w0BAQsFADCBlzELMAkGA1UEBhMCVVMx
EzARBgNVBAgMCldhc2hpbmd0b24xEDAOBgNVBAcMB1NlYXR0bGUxEDAOBgNVBAoM
B3dvbGZTU0wxFDASBgNVBAsMC0VuZ2luZWVyaW5nMRgwFgYDVQQDDA93b2xmU1NM
IHJvb3QgQ0ExHzAdBgkqhkiG9w0BCQEWEGluZm9Ad29sZnNzbC5jb20wHhcNMjAw
NjE5MTMyMzQxWhcNMjMwMzE2MTMyMzQxWjCBlzELMAkGA1UEBhMCVVMxEzARBgNV
BAgMCldhc2hpbmd0b24xEDAOBgNVBAcMB1NlYXR0bGUxEDAOBgNVBAoMB3dvbGZT
U0wxFDASBgNVBAsMC0VuZ2luZWVyaW5nMRgwFgYDVQQDDA93b2xmU1NMIHJvb3Qg
Q0ExHzAdBgkqhkiG9w0BCQEWEGluZm9Ad29sZnNzbC5jb20wggEiMA0GCSqGSIb3
DQEBAQUAA4IBDwAwggEKAoIBAQCrLLQvHQYJ704phoR+zL+meXzwwMFkJYx1txAF
ykgnDA4yHLD+mYU5trmi9yf/bTyMFnMpIX+LplRxkK3MBbmfFccKP19p9ApfjHG1
LL9m4gOaMvTS7CqJS/k1iBQzR04uBXkB7WQ2drn4hc0BiKzFsrFZuM1a9AkJOJva
Ws/OeJkfST1B1gZ8UpnIl9GzgDqiTzbExZYwdzE4yHDM4WcGsysvk7Vpz4N+iFOb
D0YhTNYFNkSZYGhH5TIBEtQQc66aNJT6brhYT3tbipKXrf2XuXXKwtRFfRdrzS/z
Y3oOMLULqdmmfHRgncwJA0PxD5DTt/5sn9nNeEsVroxb+ZmBAgMBAAGjggE5MIIB
NTAMBgNVHRMEBTADAQH/MB0GA1UdDgQWBBRzsBykL4LLz0elONewBII6fnIVITCB
xAYDVR0jBIG8MIG5gBRzsBykL4LLz0elONewBII6fnIVIaGBnaSBmjCBlzELMAkG
A1UEBhMCVVMxEzARBgNVBAgMCldhc2hpbmd0b24xEDAOBgNVBAcMB1NlYXR0bGUx
EDAOBgNVBAoMB3dvbGZTU0wxFDASBgNVBAsMC0VuZ2luZWVyaW5nMRgwFgYDVQQD
DA93b2xmU1NMIHJvb3QgQ0ExHzAdBgkqhkiG9w0BCQEWEGluZm9Ad29sZnNzbC5j
b22CAWMwCwYDVR0PBAQDAgEGMDIGCCsGAQUFBwEBBCYwJDAiBggrBgEFBQcwAYYW
aHR0cDovLzEyNy4wLjAuMToyMjIyMDANBgkqhkiG9w0BAQsFAAOCAQEAozcdcO16
5tfkvg/EnkdFoPrKM3Ic/s6WeqrWGDaBJ6oux9kJRtwKAsX4bmsJuWrz1cxsYoQv
lgwYAhe7NrfjxeHUhnrGbCkoVSSaEFXwEkVjXQ1KMP6vSmCPkVpUU+zq3bMMUT7a
2Y5PLUqr5hZ6YUkuTgpIxS6UTNWo+ORJ2V8rTx/gLf/36B3pz+FG1FCs2crtxqQL
9O/s1Z//pcjIuPAhvabae6HN82RMCd1WIpS8jvaldsIG1PEaN3ZJ1ZlXZPHBdaPt
iLOvqiQoJ5a5AyvfiekrR27Tr68j+VlmLsQefrtE2tXbt9an33/EKHnH2UuSGNGu
y2Ixa336OxZ6tQ==
-----END CERTIFICATE-----
