Certificate:
    Data:
        Version: 3 (0x2)
        Serial Number: 99 (0x63)
    Signature Algorithm: sha256WithRSAEncryption
        Issuer: C=US, ST=Washington, L=Seattle, O=wolfSSL, OU=Engineering, CN=wolfSSL root CA/emailAddress=info@wolfssl.com
        Validity
            Not Before: Dec 15 01:27:23 2015 GMT
            Not After : Sep 10 01:27:23 2018 GMT
        Subject: C=US, ST=Washington, L=Seattle, O=wolfSSL, OU=Engineering, CN=wolfSSL root CA/emailAddress=info@wolfssl.com
        Subject Public Key Info:
            Public Key Algorithm: rsaEncryption
                Public-Key: (2048 bit)
                Modulus:
                    00:ab:2c:b4:2f:1d:06:09:ef:4e:29:86:84:7e:cc:
                    bf:a6:79:7c:f0:c0:c1:64:25:8c:75:b7:10:05:ca:
                    48:27:0c:0e:32:1c:b0:fe:99:85:39:b6:b9:a2:f7:
                    27:ff:6d:3c:8c:16:73:29:21:7f:8b:a6:54:71:90:
                    ad:cc:05:b9:9f:15:c7:0a:3f:5f:69:f4:0a:5f:8c:
                    71:b5:2c:bf:66:e2:03:9a:32:f4:d2:ec:2a:89:4b:
                    f9:35:88:14:33:47:4e:2e:05:79:01:ed:64:36:76:
                    b9:f8:85:cd:01:88:ac:c5:b2:b1:59:b8:cd:5a:f4:
                    09:09:38:9b:da:5a:cf:ce:78:99:1f:49:3d:41:d6:
                    06:7c:52:99:c8:97:d1:b3:80:3a:a2:4f:36:c4:c5:
                    96:30:77:31:38:c8:70:cc:e1:67:06:b3:2b:2f:93:
                    b5:69:cf:83:7e:88:53:9b:0f:46:21:4c:d6:05:36:
                    44:99:60:68:47:e5:32:01:12:d4:10:73:ae:9a:34:
                    94:fa:6e:b8:58:4f:7b:5b:8a:92:97:ad:fd:97:b9:
                    75:ca:c2:d4:45:7d:17:6b:cd:2f:f3:63:7a:0e:30:
                    b5:0b:a9:d9:a6:7c:74:60:9d:cc:09:03:43:f1:0f:
                    90:d3:b7:fe:6c:9f:d9:cd:78:4b:15:ae:8c:5b:f9:
                    99:81
                Exponent: 65537 (0x10001)
        X509v3 extensions:
            X509v3 Basic Constraints: 
                CA:TRUE
            X509v3 Subject Key Identifier: 
                73:B0:1C:A4:2F:82:CB:CF:47:A5:38:D7:B0:04:82:3A:7E:72:15:21
            X509v3 Authority Key Identifier: 
                keyid:73:B0:1C:A4:2F:82:CB:CF:47:A5:38:D7:B0:04:82:3A:7E:72:15:21
                DirName:/C=US/ST=Washington/L=Seattle/O=wolfSSL/OU=Engineering/CN=wolfSSL root CA/emailAddress=info@wolfssl.com
                serial:63

            X509v3 Key Usage: 
                Certificate Sign, CRL Sign
            Authority Information Access: 
                OCSP - URI:http://localhost:22220

    Signature Algorithm: sha256WithRSAEncryption
         5a:9d:7f:40:a7:10:51:e5:d7:b3:23:dd:e7:25:c2:bc:00:5a:
         d0:6e:cf:26:bb:c1:1d:38:89:ac:3c:0c:37:60:6c:aa:8a:54:
         6b:a4:44:79:d5:49:f5:13:ed:bc:00:4c:dd:ed:eb:2e:64:44:
         9c:4c:96:8a:6a:e6:f6:4d:0a:63:f0:f5:18:e3:5e:72:fc:5a:
         3f:1b:4c:27:eb:6e:57:9d:d5:8e:3d:ee:28:3f:1b:7b:e0:25:
         b9:0c:95:21:cd:bd:12:8f:4a:c4:b2:cc:80:da:b5:59:49:4d:
         32:d5:96:90:a0:ec:47:8c:15:0b:de:2a:22:be:d6:d4:d7:09:
         d1:85:48:4f:33:92:04:30:d1:d5:14:cb:bd:ab:96:06:93:18:
         62:ed:8f:29:f8:b6:66:06:a7:f1:3a:ae:15:62:36:90:89:de:
         41:41:f2:44:35:ea:4c:7b:fc:0b:6f:08:46:09:de:35:5f:e3:
         e6:f3:5a:08:70:a4:28:df:a6:c7:17:d1:c3:ec:70:09:c2:06:
         c7:12:29:b9:d6:d6:26:7d:2c:df:86:c7:4d:0a:c6:98:2b:61:
         14:b3:b3:29:8e:c1:85:18:db:fd:54:9d:fe:99:a9:90:d1:c6:
         08:2b:4f:6c:16:47:d9:16:fc:7b:0c:84:a7:15:b0:78:41:48:
         87:f5:98:78
-----BEGIN CERTIFICATE-----
MIIE5jCCA86gAwIBAgIBYzANBgkqhkiG9w0BAQsFADCBlzELMAkGA1UEBhMCVVMx
EzARBgNVBAgMCldhc2hpbmd0b24xEDAOBgNVBAcMB1NlYXR0bGUxEDAOBgNVBAoM
B3dvbGZTU0wxFDASBgNVBAsMC0VuZ2luZWVyaW5nMRgwFgYDVQQDDA93b2xmU1NM
IHJvb3QgQ0ExHzAdBgkqhkiG9w0BCQEWEGluZm9Ad29sZnNzbC5jb20wHhcNMTUx
MjE1MDEyNzIzWhcNMTgwOTEwMDEyNzIzWjCBlzELMAkGA1UEBhMCVVMxEzARBgNV
BAgMCldhc2hpbmd0b24xEDAOBgNVBAcMB1NlYXR0bGUxEDAOBgNVBAoMB3dvbGZT
U0wxFDASBgNVBAsMC0VuZ2luZWVyaW5nMRgwFgYDVQQDDA93b2xmU1NMIHJvb3Qg
Q0ExHzAdBgkqhkiG9w0BCQEWEGluZm9Ad29sZnNzbC5jb20wggEiMA0GCSqGSIb3
DQEBAQUAA4IBDwAwggEKAoIBAQCrLLQvHQYJ704phoR+zL+meXzwwMFkJYx1txAF
ykgnDA4yHLD+mYU5trmi9yf/bTyMFnMpIX+LplRxkK3MBbmfFccKP19p9ApfjHG1
LL9m4gOaMvTS7CqJS/k1iBQzR04uBXkB7WQ2drn4hc0BiKzFsrFZuM1a9AkJOJva
Ws/OeJkfST1B1gZ8UpnIl9GzgDqiTzbExZYwdzE4yHDM4WcGsysvk7Vpz4N+iFOb
D0YhTNYFNkSZYGhH5TIBEtQQc66aNJT6brhYT3tbipKXrf2XuXXKwtRFfRdrzS/z
Y3oOMLULqdmmfHRgncwJA0PxD5DTt/5sn9nNeEsVroxb+ZmBAgMBAAGjggE5MIIB
NTAMBgNVHRMEBTADAQH/MB0GA1UdDgQWBBRzsBykL4LLz0elONewBII6fnIVITCB
xAYDVR0jBIG8MIG5gBRzsBykL4LLz0elONewBII6fnIVIaGBnaSBmjCBlzELMAkG
A1UEBhMCVVMxEzARBgNVBAgMCldhc2hpbmd0b24xEDAOBgNVBAcMB1NlYXR0bGUx
EDAOBgNVBAoMB3dvbGZTU0wxFDASBgNVBAsMC0VuZ2luZWVyaW5nMRgwFgYDVQQD
DA93b2xmU1NMIHJvb3QgQ0ExHzAdBgkqhkiG9w0BCQEWEGluZm9Ad29sZnNzbC5j
b22CAWMwCwYDVR0PBAQDAgEGMDIGCCsGAQUFBwEBBCYwJDAiBggrBgEFBQcwAYYW
aHR0cDovL2xvY2FsaG9zdDoyMjIyMDANBgkqhkiG9w0BAQsFAAOCAQEAWp1/QKcQ
UeXXsyPd5yXCvABa0G7PJrvBHTiJrDwMN2BsqopUa6REedVJ9RPtvABM3e3rLmRE
nEyWimrm9k0KY/D1GONecvxaPxtMJ+tuV53Vjj3uKD8be+AluQyVIc29Eo9KxLLM
gNq1WUlNMtWWkKDsR4wVC94qIr7W1NcJ0YVITzOSBDDR1RTLvauWBpMYYu2PKfi2
Zgan8TquFWI2kIneQUHyRDXqTHv8C28IRgneNV/j5vNaCHCkKN+mxxfRw+xwCcIG
xxIpudbWJn0s34bHTQrGmCthFLOzKY7BhRjb/VSd/pmpkNHGCCtPbBZH2Rb8ewyE
pxWweEFIh/WYeA==
-----END CERTIFICATE-----
