Certificate:
    Data:
        Version: 3 (0x2)
        Serial Number: 17246491846582506789 (0xef57d8f569389525)
    Signature Algorithm: sha256WithRSAEncryption
        Issuer: C=US, ST=Washington, L=Seattle, O=wolfSSL, OU=Engineering, CN=wolfSSL root CA/emailAddress=info@wolfssl.com
        Validity
            Not Before: Dec  7 22:42:29 2015 GMT
            Not After : Sep  2 22:42:29 2018 GMT
        Subject: C=US, ST=Washington, L=Seattle, O=wolfSSL, OU=Engineering, CN=wolfSSL root CA/emailAddress=info@wolfssl.com
        Subject Public Key Info:
            Public Key Algorithm: rsaEncryption
                Public-Key: (2048 bit)
                Modulus:
                    00:ab:2c:b4:2f:1d:06:09:ef:4e:29:86:84:7e:cc:
                    bf:a6:79:7c:f0:c0:c1:64:25:8c:75:b7:10:05:ca:
                    48:27:0c:0e:32:1c:b0:fe:99:85:39:b6:b9:a2:f7:
                    27:ff:6d:3c:8c:16:73:29:21:7f:8b:a6:54:71:90:
                    ad:cc:05:b9:9f:15:c7:0a:3f:5f:69:f4:0a:5f:8c:
                    71:b5:2c:bf:66:e2:03:9a:32:f4:d2:ec:2a:89:4b:
                    f9:35:88:14:33:47:4e:2e:05:79:01:ed:64:36:76:
                    b9:f8:85:cd:01:88:ac:c5:b2:b1:59:b8:cd:5a:f4:
                    09:09:38:9b:da:5a:cf:ce:78:99:1f:49:3d:41:d6:
                    06:7c:52:99:c8:97:d1:b3:80:3a:a2:4f:36:c4:c5:
                    96:30:77:31:38:c8:70:cc:e1:67:06:b3:2b:2f:93:
                    b5:69:cf:83:7e:88:53:9b:0f:46:21:4c:d6:05:36:
                    44:99:60:68:47:e5:32:01:12:d4:10:73:ae:9a:34:
                    94:fa:6e:b8:58:4f:7b:5b:8a:92:97:ad:fd:97:b9:
                    75:ca:c2:d4:45:7d:17:6b:cd:2f:f3:63:7a:0e:30:
                    b5:0b:a9:d9:a6:7c:74:60:9d:cc:09:03:43:f1:0f:
                    90:d3:b7:fe:6c:9f:d9:cd:78:4b:15:ae:8c:5b:f9:
                    99:81
                Exponent: 65537 (0x10001)
        X509v3 extensions:
            X509v3 Basic Constraints: 
                CA:TRUE
            X509v3 Subject Key Identifier: 
                73:B0:1C:A4:2F:82:CB:CF:47:A5:38:D7:B0:04:82:3A:7E:72:15:21
            X509v3 Authority Key Identifier: 
                keyid:73:B0:1C:A4:2F:82:CB:CF:47:A5:38:D7:B0:04:82:3A:7E:72:15:21
                DirName:/C=US/ST=Washington/L=Seattle/O=wolfSSL/OU=Engineering/CN=wolfSSL root CA/emailAddress=info@wolfssl.com
                serial:EF:57:D8:F5:69:38:95:25

            Authority Information Access: 
                OCSP - URI:http://localhost:22220

    Signature Algorithm: sha256WithRSAEncryption
         55:f6:de:bd:4f:ac:95:3a:cc:86:88:c3:4c:fc:0b:91:86:91:
         c5:95:ca:5c:f8:c3:bb:d7:c1:bd:6e:c3:2f:94:18:c1:d8:e2:
         b5:dd:8b:97:13:3f:5e:76:9c:13:89:14:d4:fc:a6:f7:01:a1:
         c5:cf:0e:4d:00:ae:85:09:54:ce:cf:f8:d5:a7:40:60:ac:38:
         72:75:3b:cb:42:e0:4f:a2:60:34:74:ed:be:65:70:b1:4a:d9:
         99:af:17:0f:6f:f4:b7:f3:67:60:57:17:20:ac:88:65:53:0f:
         8c:bc:0b:51:79:a2:af:12:11:26:5e:55:06:1e:5c:8c:58:18:
         4a:4a:d8:e5:f9:fc:69:98:e6:e5:e6:94:5c:82:ee:bf:07:47:
         18:8c:b4:31:b3:d2:c3:02:dc:53:86:c1:1f:fa:31:3f:8f:d2:
         3c:8a:2b:4d:37:1f:0b:26:78:9b:3b:fd:eb:89:a4:d2:47:5e:
         99:82:d1:63:96:5f:46:a6:18:ab:8c:d8:d2:ec:dc:50:dc:67:
         c1:63:d0:1e:57:04:10:a9:d5:1d:c0:73:e4:ce:b0:79:62:be:
         11:6e:30:53:3b:df:e7:5d:e4:06:b1:80:c8:1a:33:cc:31:84:
         42:0f:55:ac:d8:5a:e5:d0:0c:1f:c6:ca:1d:e4:8c:3e:31:81:
         f9:fe:bc:01
-----BEGIN CERTIFICATE-----
MIIE6TCCA9GgAwIBAgIJAO9X2PVpOJUlMA0GCSqGSIb3DQEBCwUAMIGXMQswCQYD
VQQGEwJVUzETMBEGA1UECAwKV2FzaGluZ3RvbjEQMA4GA1UEBwwHU2VhdHRsZTEQ
MA4GA1UECgwHd29sZlNTTDEUMBIGA1UECwwLRW5naW5lZXJpbmcxGDAWBgNVBAMM
D3dvbGZTU0wgcm9vdCBDQTEfMB0GCSqGSIb3DQEJARYQaW5mb0B3b2xmc3NsLmNv
bTAeFw0xNTEyMDcyMjQyMjlaFw0xODA5MDIyMjQyMjlaMIGXMQswCQYDVQQGEwJV
UzETMBEGA1UECAwKV2FzaGluZ3RvbjEQMA4GA1UEBwwHU2VhdHRsZTEQMA4GA1UE
CgwHd29sZlNTTDEUMBIGA1UECwwLRW5naW5lZXJpbmcxGDAWBgNVBAMMD3dvbGZT
U0wgcm9vdCBDQTEfMB0GCSqGSIb3DQEJARYQaW5mb0B3b2xmc3NsLmNvbTCCASIw
DQYJKoZIhvcNAQEBBQADggEPADCCAQoCggEBAKsstC8dBgnvTimGhH7Mv6Z5fPDA
wWQljHW3EAXKSCcMDjIcsP6ZhTm2uaL3J/9tPIwWcykhf4umVHGQrcwFuZ8Vxwo/
X2n0Cl+McbUsv2biA5oy9NLsKolL+TWIFDNHTi4FeQHtZDZ2ufiFzQGIrMWysVm4
zVr0CQk4m9paz854mR9JPUHWBnxSmciX0bOAOqJPNsTFljB3MTjIcMzhZwazKy+T
tWnPg36IU5sPRiFM1gU2RJlgaEflMgES1BBzrpo0lPpuuFhPe1uKkpet/Ze5dcrC
1EV9F2vNL/Njeg4wtQup2aZ8dGCdzAkDQ/EPkNO3/myf2c14SxWujFv5mYECAwEA
AaOCATQwggEwMAwGA1UdEwQFMAMBAf8wHQYDVR0OBBYEFHOwHKQvgsvPR6U417AE
gjp+chUhMIHMBgNVHSMEgcQwgcGAFHOwHKQvgsvPR6U417AEgjp+chUhoYGdpIGa
MIGXMQswCQYDVQQGEwJVUzETMBEGA1UECAwKV2FzaGluZ3RvbjEQMA4GA1UEBwwH
U2VhdHRsZTEQMA4GA1UECgwHd29sZlNTTDEUMBIGA1UECwwLRW5naW5lZXJpbmcx
GDAWBgNVBAMMD3dvbGZTU0wgcm9vdCBDQTEfMB0GCSqGSIb3DQEJARYQaW5mb0B3
b2xmc3NsLmNvbYIJAO9X2PVpOJUlMDIGCCsGAQUFBwEBBCYwJDAiBggrBgEFBQcw
AYYWaHR0cDovL2xvY2FsaG9zdDoyMjIyMDANBgkqhkiG9w0BAQsFAAOCAQEAVfbe
vU+slTrMhojDTPwLkYaRxZXKXPjDu9fBvW7DL5QYwdjitd2LlxM/XnacE4kU1Pym
9wGhxc8OTQCuhQlUzs/41adAYKw4cnU7y0LgT6JgNHTtvmVwsUrZma8XD2/0t/Nn
YFcXIKyIZVMPjLwLUXmirxIRJl5VBh5cjFgYSkrY5fn8aZjm5eaUXILuvwdHGIy0
MbPSwwLcU4bBH/oxP4/SPIorTTcfCyZ4mzv964mk0kdemYLRY5ZfRqYYq4zY0uzc
UNxnwWPQHlcEEKnVHcBz5M6weWK+EW4wUzvf513kBrGAyBozzDGEQg9VrNha5dAM
H8bKHeSMPjGB+f68AQ==
-----END CERTIFICATE-----
