Certificate:
    Data:
        Version: 3 (0x2)
        Serial Number: 99 (0x63)
        Signature Algorithm: sha256WithRSAEncryption
        Issuer: C=US, ST=Washington, L=Seattle, O=wolfSSL, OU=Engineering, CN=wolfSSL root CA, emailAddress=facts@wolfssl.com
        Validity
            Not Before: Jun 11 21:44:34 2026 GMT
            Not After : Mar  7 21:44:34 2029 GMT
        Subject: C=US, ST=Washington, L=Seattle, O=wolfSSL, OU=Engineering, CN=wolfSSL root CA, emailAddress=facts@wolfssl.com
        Subject Public Key Info:
            Public Key Algorithm: rsaEncryption
                Public-Key: (2048 bit)
                Modulus:
                    00:ab:2c:b4:2f:1d:06:09:ef:4e:29:86:84:7e:cc:
                    bf:a6:79:7c:f0:c0:c1:64:25:8c:75:b7:10:05:ca:
                    48:27:0c:0e:32:1c:b0:fe:99:85:39:b6:b9:a2:f7:
                    27:ff:6d:3c:8c:16:73:29:21:7f:8b:a6:54:71:90:
                    ad:cc:05:b9:9f:15:c7:0a:3f:5f:69:f4:0a:5f:8c:
                    71:b5:2c:bf:66:e2:03:9a:32:f4:d2:ec:2a:89:4b:
                    f9:35:88:14:33:47:4e:2e:05:79:01:ed:64:36:76:
                    b9:f8:85:cd:01:88:ac:c5:b2:b1:59:b8:cd:5a:f4:
                    09:09:38:9b:da:5a:cf:ce:78:99:1f:49:3d:41:d6:
                    06:7c:52:99:c8:97:d1:b3:80:3a:a2:4f:36:c4:c5:
                    96:30:77:31:38:c8:70:cc:e1:67:06:b3:2b:2f:93:
                    b5:69:cf:83:7e:88:53:9b:0f:46:21:4c:d6:05:36:
                    44:99:60:68:47:e5:32:01:12:d4:10:73:ae:9a:34:
                    94:fa:6e:b8:58:4f:7b:5b:8a:92:97:ad:fd:97:b9:
                    75:ca:c2:d4:45:7d:17:6b:cd:2f:f3:63:7a:0e:30:
                    b5:0b:a9:d9:a6:7c:74:60:9d:cc:09:03:43:f1:0f:
                    90:d3:b7:fe:6c:9f:d9:cd:78:4b:15:ae:8c:5b:f9:
                    99:81
                Exponent: 65537 (0x10001)
        X509v3 extensions:
            X509v3 Basic Constraints: 
                CA:TRUE
            X509v3 Subject Key Identifier: 
                73:B0:1C:A4:2F:82:CB:CF:47:A5:38:D7:B0:04:82:3A:7E:72:15:21
            X509v3 Authority Key Identifier: 
                keyid:73:B0:1C:A4:2F:82:CB:CF:47:A5:38:D7:B0:04:82:3A:7E:72:15:21
                DirName:/C=US/ST=Washington/L=Seattle/O=wolfSSL/OU=Engineering/CN=wolfSSL root CA/emailAddress=facts@wolfssl.com
                serial:63
            X509v3 Key Usage: 
                Certificate Sign, CRL Sign
            Authority Information Access: 
                OCSP - URI:http://127.0.0.1:22220
    Signature Algorithm: sha256WithRSAEncryption
    Signature Value:
        36:b1:86:d6:72:f8:e7:6a:ae:43:fb:c0:ed:f1:36:64:8a:da:
        8e:5f:f7:c4:ad:64:c8:29:03:74:58:b0:9e:ee:41:89:5b:2a:
        12:f4:82:a4:03:a5:f0:df:a2:84:cb:2b:b3:16:0f:dc:cf:cc:
        56:99:61:a9:f9:3d:3a:7e:e4:12:43:c3:b1:4f:58:26:79:e7:
        e4:0d:a5:88:3d:79:33:a1:09:7d:78:af:bd:59:71:11:54:4a:
        cc:d6:d2:6d:1f:88:27:ac:d5:bf:75:fc:c3:05:0b:cd:c8:0e:
        72:41:1d:d8:68:62:be:94:d7:60:be:05:4a:42:9c:50:b7:45:
        71:6d:83:9a:ef:08:5c:41:db:c8:62:33:3c:69:a2:8a:b4:0f:
        db:65:c4:b7:92:0a:76:f7:55:06:77:8c:ff:8c:84:84:d9:dd:
        46:11:2a:2d:27:96:a7:f5:47:c1:43:4b:fe:53:d8:be:16:94:
        36:0a:d4:be:c3:6c:9b:0c:52:31:4a:eb:62:b4:81:4b:2d:f7:
        f1:65:c1:ee:36:79:19:f7:ab:16:f8:38:d2:ea:87:8d:f8:f9:
        14:82:db:67:b6:94:a8:55:0b:90:6b:af:b0:e9:42:64:42:6d:
        2c:e3:f1:b6:e0:f9:58:ed:69:66:62:98:dc:5a:7b:fa:35:5a:
        23:84:91:0e
-----BEGIN CERTIFICATE-----
MIIE6TCCA9GgAwIBAgIBYzANBgkqhkiG9w0BAQsFADCBmDELMAkGA1UEBhMCVVMx
EzARBgNVBAgMCldhc2hpbmd0b24xEDAOBgNVBAcMB1NlYXR0bGUxEDAOBgNVBAoM
B3dvbGZTU0wxFDASBgNVBAsMC0VuZ2luZWVyaW5nMRgwFgYDVQQDDA93b2xmU1NM
IHJvb3QgQ0ExIDAeBgkqhkiG9w0BCQEWEWZhY3RzQHdvbGZzc2wuY29tMB4XDTI2
MDYxMTIxNDQzNFoXDTI5MDMwNzIxNDQzNFowgZgxCzAJBgNVBAYTAlVTMRMwEQYD
VQQIDApXYXNoaW5ndG9uMRAwDgYDVQQHDAdTZWF0dGxlMRAwDgYDVQQKDAd3b2xm
U1NMMRQwEgYDVQQLDAtFbmdpbmVlcmluZzEYMBYGA1UEAwwPd29sZlNTTCByb290
IENBMSAwHgYJKoZIhvcNAQkBFhFmYWN0c0B3b2xmc3NsLmNvbTCCASIwDQYJKoZI
hvcNAQEBBQADggEPADCCAQoCggEBAKsstC8dBgnvTimGhH7Mv6Z5fPDAwWQljHW3
EAXKSCcMDjIcsP6ZhTm2uaL3J/9tPIwWcykhf4umVHGQrcwFuZ8Vxwo/X2n0Cl+M
cbUsv2biA5oy9NLsKolL+TWIFDNHTi4FeQHtZDZ2ufiFzQGIrMWysVm4zVr0CQk4
m9paz854mR9JPUHWBnxSmciX0bOAOqJPNsTFljB3MTjIcMzhZwazKy+TtWnPg36I
U5sPRiFM1gU2RJlgaEflMgES1BBzrpo0lPpuuFhPe1uKkpet/Ze5dcrC1EV9F2vN
L/Njeg4wtQup2aZ8dGCdzAkDQ/EPkNO3/myf2c14SxWujFv5mYECAwEAAaOCATow
ggE2MAwGA1UdEwQFMAMBAf8wHQYDVR0OBBYEFHOwHKQvgsvPR6U417AEgjp+chUh
MIHFBgNVHSMEgb0wgbqAFHOwHKQvgsvPR6U417AEgjp+chUhoYGepIGbMIGYMQsw
CQYDVQQGEwJVUzETMBEGA1UECAwKV2FzaGluZ3RvbjEQMA4GA1UEBwwHU2VhdHRs
ZTEQMA4GA1UECgwHd29sZlNTTDEUMBIGA1UECwwLRW5naW5lZXJpbmcxGDAWBgNV
BAMMD3dvbGZTU0wgcm9vdCBDQTEgMB4GCSqGSIb3DQEJARYRZmFjdHNAd29sZnNz
bC5jb22CAWMwCwYDVR0PBAQDAgEGMDIGCCsGAQUFBwEBBCYwJDAiBggrBgEFBQcw
AYYWaHR0cDovLzEyNy4wLjAuMToyMjIyMDANBgkqhkiG9w0BAQsFAAOCAQEANrGG
1nL452quQ/vA7fE2ZIrajl/3xK1kyCkDdFiwnu5BiVsqEvSCpAOl8N+ihMsrsxYP
3M/MVplhqfk9On7kEkPDsU9YJnnn5A2liD15M6EJfXivvVlxEVRKzNbSbR+IJ6zV
v3X8wwULzcgOckEd2GhivpTXYL4FSkKcULdFcW2Dmu8IXEHbyGIzPGmiirQP22XE
t5IKdvdVBneM/4yEhNndRhEqLSeWp/VHwUNL/lPYvhaUNgrUvsNsmwxSMUrrYrSB
Sy338WXB7jZ5GferFvg40uqHjfj5FILbZ7aUqFULkGuvsOlCZEJtLOPxtuD5WO1p
ZmKY3Fp7+jVaI4SRDg==
-----END CERTIFICATE-----
