Certificate:
    Data:
        Version: 3 (0x2)
        Serial Number: 6 (0x6)
        Signature Algorithm: sha256WithRSAEncryption
        Issuer: C = US, ST = Washington, L = Seattle, O = wolfSSL, OU = Engineering, CN = wolfSSL intermediate CA 1, emailAddress = info@wolfssl.com
        Validity
            Not Before: Sep 26 17:22:43 2023 GMT
            Not After : Jun 22 17:22:43 2026 GMT
        Subject: C = US, ST = Washington, L = Seattle, O = wolfSSL, OU = Engineering, CN = www2.wolfssl.com, emailAddress = info@wolfssl.com
        Subject Public Key Info:
            Public Key Algorithm: rsaEncryption
                Public-Key: (2048 bit)
                Modulus:
                    00:c6:35:8a:e8:aa:bd:33:c9:5e:84:43:67:42:65:
                    2a:3c:e3:89:b4:a6:67:a1:3b:ee:6d:85:d1:d3:2b:
                    6e:b1:62:d4:f1:22:43:a0:d5:b7:a5:7d:b5:f5:6c:
                    09:06:7c:8c:ef:87:af:4f:34:ce:27:eb:f3:4a:37:
                    57:c3:d7:d8:ee:e4:a0:77:65:2c:a7:c2:10:65:6b:
                    7b:48:c4:d8:28:fe:4c:4e:4f:7e:2f:20:c4:49:5b:
                    71:38:40:0d:36:a3:57:b3:44:da:be:cd:54:14:15:
                    66:0f:d3:05:08:f2:2e:03:67:2e:5c:5d:e1:b0:e6:
                    c0:25:8f:58:77:5b:d3:d7:a8:22:ea:56:d3:0e:01:
                    6d:38:34:56:47:aa:12:c4:ba:2a:ef:ec:18:f5:d4:
                    db:b9:fa:6f:dc:50:eb:ee:10:a2:14:b5:9a:12:e1:
                    e3:85:0f:79:14:b8:70:6d:0d:1c:1d:38:57:85:6a:
                    82:0c:d6:bd:2c:bf:20:f1:28:2e:f6:34:80:a7:0d:
                    32:82:35:4f:c1:b1:e5:9e:26:d5:f8:b9:39:57:43:
                    ef:ed:f1:10:5c:3e:32:ba:d9:e4:9e:40:cd:28:ea:
                    26:46:9b:a9:34:8d:9f:b9:fd:45:7d:14:f7:ce:ca:
                    3b:85:87:a7:64:74:9c:65:29:18:b3:f5:b1:ad:92:
                    62:39
                Exponent: 65537 (0x10001)
        X509v3 extensions:
            X509v3 Basic Constraints: 
                CA:FALSE
            X509v3 Subject Key Identifier: 
                7D:6D:FD:F6:0B:4F:3F:4A:62:91:F5:F3:13:60:51:86:C3:5A:9F:D6
            X509v3 Authority Key Identifier: 
                keyid:83:C6:3A:89:2C:81:F4:02:D7:9D:4C:E2:2A:C0:71:82:64:44:DA:0E
                DirName:/C=US/ST=Washington/L=Seattle/O=wolfSSL/OU=Engineering/CN=wolfSSL root CA/emailAddress=info@wolfssl.com
                serial:01
            X509v3 Key Usage: 
                Digital Signature, Non Repudiation, Key Encipherment
            Authority Information Access: 
                OCSP - URI:http://127.0.0.1:22221
    Signature Algorithm: sha256WithRSAEncryption
    Signature Value:
        80:c3:f2:7d:43:9f:33:42:ae:71:ee:19:c6:26:3f:c4:c3:7c:
        bd:6e:cd:07:2f:4d:99:b5:0c:53:cf:f9:25:2d:85:f1:44:1b:
        cc:e9:d0:24:39:13:3a:1a:3b:02:1d:9c:18:93:5d:19:79:15:
        68:57:e8:f7:13:44:9e:60:0e:57:f3:9f:1e:31:22:05:9a:eb:
        41:41:54:67:54:45:67:90:6e:ac:68:c9:e0:d8:39:d3:14:27:
        5f:95:5c:82:11:d0:e1:04:8e:f7:75:2f:f2:cb:e7:9f:f3:f9:
        91:f5:28:4a:0f:dd:55:c5:d9:41:10:d6:3d:3a:7e:42:24:4e:
        0b:f9:c9:c3:03:7a:cc:08:6c:2c:28:68:42:a9:ae:f5:6f:5b:
        58:0f:f8:1c:ce:98:35:b2:21:eb:a0:0d:cc:3c:dd:2e:06:22:
        be:5f:e0:d9:1e:59:db:31:70:cd:05:ca:ca:59:1c:36:cf:0c:
        b1:2c:18:dc:bf:c1:fc:54:63:d4:8f:a8:66:9b:ed:44:68:60:
        1b:b4:f0:ea:0d:33:dc:53:e6:7c:f6:fe:db:70:f2:3b:d2:0e:
        ce:af:b2:87:9c:82:9c:5d:50:3c:6a:dd:9d:a2:33:44:11:c8:
        b1:c0:20:55:05:15:b8:8e:30:77:a5:e8:2d:f9:52:c5:44:4e:
        89:27:50:a5
-----BEGIN CERTIFICATE-----
MIIE7jCCA9agAwIBAgIBBjANBgkqhkiG9w0BAQsFADCBoTELMAkGA1UEBhMCVVMx
EzARBgNVBAgMCldhc2hpbmd0b24xEDAOBgNVBAcMB1NlYXR0bGUxEDAOBgNVBAoM
B3dvbGZTU0wxFDASBgNVBAsMC0VuZ2luZWVyaW5nMSIwIAYDVQQDDBl3b2xmU1NM
IGludGVybWVkaWF0ZSBDQSAxMR8wHQYJKoZIhvcNAQkBFhBpbmZvQHdvbGZzc2wu
Y29tMB4XDTIzMDkyNjE3MjI0M1oXDTI2MDYyMjE3MjI0M1owgZgxCzAJBgNVBAYT
AlVTMRMwEQYDVQQIDApXYXNoaW5ndG9uMRAwDgYDVQQHDAdTZWF0dGxlMRAwDgYD
VQQKDAd3b2xmU1NMMRQwEgYDVQQLDAtFbmdpbmVlcmluZzEZMBcGA1UEAwwQd3d3
Mi53b2xmc3NsLmNvbTEfMB0GCSqGSIb3DQEJARYQaW5mb0B3b2xmc3NsLmNvbTCC
ASIwDQYJKoZIhvcNAQEBBQADggEPADCCAQoCggEBAMY1iuiqvTPJXoRDZ0JlKjzj
ibSmZ6E77m2F0dMrbrFi1PEiQ6DVt6V9tfVsCQZ8jO+Hr080zifr80o3V8PX2O7k
oHdlLKfCEGVre0jE2Cj+TE5Pfi8gxElbcThADTajV7NE2r7NVBQVZg/TBQjyLgNn
Llxd4bDmwCWPWHdb09eoIupW0w4BbTg0VkeqEsS6Ku/sGPXU27n6b9xQ6+4QohS1
mhLh44UPeRS4cG0NHB04V4VqggzWvSy/IPEoLvY0gKcNMoI1T8Gx5Z4m1fi5OVdD
7+3xEFw+MrrZ5J5AzSjqJkabqTSNn7n9RX0U987KO4WHp2R0nGUpGLP1sa2SYjkC
AwEAAaOCATYwggEyMAkGA1UdEwQCMAAwHQYDVR0OBBYEFH1t/fYLTz9KYpH18xNg
UYbDWp/WMIHEBgNVHSMEgbwwgbmAFIPGOoksgfQC151M4irAcYJkRNoOoYGdpIGa
MIGXMQswCQYDVQQGEwJVUzETMBEGA1UECAwKV2FzaGluZ3RvbjEQMA4GA1UEBwwH
U2VhdHRsZTEQMA4GA1UECgwHd29sZlNTTDEUMBIGA1UECwwLRW5naW5lZXJpbmcx
GDAWBgNVBAMMD3dvbGZTU0wgcm9vdCBDQTEfMB0GCSqGSIb3DQEJARYQaW5mb0B3
b2xmc3NsLmNvbYIBATALBgNVHQ8EBAMCBeAwMgYIKwYBBQUHAQEEJjAkMCIGCCsG
AQUFBzABhhZodHRwOi8vMTI3LjAuMC4xOjIyMjIxMA0GCSqGSIb3DQEBCwUAA4IB
AQCAw/J9Q58zQq5x7hnGJj/Ew3y9bs0HL02ZtQxTz/klLYXxRBvM6dAkORM6GjsC
HZwYk10ZeRVoV+j3E0SeYA5X858eMSIFmutBQVRnVEVnkG6saMng2DnTFCdflVyC
EdDhBI73dS/yy+ef8/mR9ShKD91VxdlBENY9On5CJE4L+cnDA3rMCGwsKGhCqa71
b1tYD/gczpg1siHroA3MPN0uBiK+X+DZHlnbMXDNBcrKWRw2zwyxLBjcv8H8VGPU
j6hmm+1EaGAbtPDqDTPcU+Z89v7bcPI70g7Or7KHnIKcXVA8at2dojNEEcixwCBV
BRW4jjB3pegt+VLFRE6JJ1Cl
-----END CERTIFICATE-----
Certificate:
    Data:
        Version: 3 (0x2)
        Serial Number: 1 (0x1)
        Signature Algorithm: sha256WithRSAEncryption
        Issuer: C = US, ST = Washington, L = Seattle, O = wolfSSL, OU = Engineering, CN = wolfSSL root CA, emailAddress = info@wolfssl.com
        Validity
            Not Before: Sep 26 17:22:43 2023 GMT
            Not After : Jun 22 17:22:43 2026 GMT
        Subject: C = US, ST = Washington, L = Seattle, O = wolfSSL, OU = Engineering, CN = wolfSSL intermediate CA 1, emailAddress = info@wolfssl.com
        Subject Public Key Info:
            Public Key Algorithm: rsaEncryption
                Public-Key: (2048 bit)
                Modulus:
                    00:de:b4:c8:5c:77:e0:2d:b1:f5:b9:ad:16:47:35:
                    a0:35:65:65:c6:e1:40:ab:1e:b4:b9:13:b7:cb:8c:
                    bb:77:a5:76:da:6d:87:87:f6:4a:4d:13:e4:26:3e:
                    27:87:ee:5b:c7:6a:3f:45:30:61:55:5c:f6:35:d1:
                    65:fa:98:11:a3:a7:55:d5:be:91:82:4b:fc:be:90:
                    d6:50:53:63:9a:2c:22:e1:35:11:dc:78:02:97:8a:
                    e4:46:92:9c:53:08:76:de:1f:53:b6:b8:ca:77:3e:
                    79:6e:bc:d0:e3:0d:30:5b:4c:f6:94:0d:30:29:64:
                    9f:04:e5:db:fb:89:60:67:bb:af:26:83:51:77:24:
                    2f:2b:0b:a1:94:81:10:98:e8:eb:26:a8:1e:7c:e4:
                    c4:6c:67:06:95:55:4a:dd:52:f4:f2:60:6d:01:2b:
                    19:91:35:6d:a4:08:47:06:71:24:00:d9:de:c6:56:
                    f3:8b:53:2c:e2:9a:96:a5:f3:62:e5:c4:e3:23:f2:
                    d2:fc:21:ea:0f:62:76:8d:d5:99:48:ce:dc:58:c4:
                    bb:7f:da:94:2c:80:74:83:c5:e0:b0:15:7e:41:fd:
                    0e:f2:f4:f0:78:76:7b:ad:26:0d:aa:48:96:17:2f:
                    21:e3:95:2b:26:37:f9:aa:80:2f:fe:de:f6:5e:bc:
                    97:7f
                Exponent: 65537 (0x10001)
        X509v3 extensions:
            X509v3 Basic Constraints: 
                CA:TRUE
            X509v3 Subject Key Identifier: 
                83:C6:3A:89:2C:81:F4:02:D7:9D:4C:E2:2A:C0:71:82:64:44:DA:0E
            X509v3 Authority Key Identifier: 
                keyid:73:B0:1C:A4:2F:82:CB:CF:47:A5:38:D7:B0:04:82:3A:7E:72:15:21
                DirName:/C=US/ST=Washington/L=Seattle/O=wolfSSL/OU=Engineering/CN=wolfSSL root CA/emailAddress=info@wolfssl.com
                serial:63
            X509v3 Key Usage: 
                Certificate Sign, CRL Sign
            Authority Information Access: 
                OCSP - URI:http://127.0.0.1:22220
    Signature Algorithm: sha256WithRSAEncryption
    Signature Value:
        6a:70:0a:01:4f:55:2e:7e:dd:3d:27:0f:94:0c:fc:3a:96:6a:
        90:a7:d5:35:29:2a:52:b8:3e:0c:4a:5b:af:34:31:fc:3f:06:
        25:4e:65:bc:d8:71:95:c7:55:3e:73:c3:8f:06:52:31:a8:b6:
        f1:e8:46:97:9c:34:d5:04:4a:93:6b:01:08:a7:97:ca:7e:14:
        8f:f0:17:28:69:06:c4:9f:1d:3b:f6:ff:bf:a9:dc:17:d3:08:
        45:ae:30:14:0c:1b:68:02:a9:ff:aa:31:03:be:b2:da:58:8f:
        dc:42:97:c1:cb:74:fa:16:b7:59:e5:3c:58:7b:ee:83:ab:09:
        6f:80:b3:06:b2:82:62:6b:1e:ad:92:9c:bc:b1:c0:b3:9f:f1:
        2e:b6:fe:b9:1b:f4:5f:bb:af:81:b2:f5:7f:dd:20:87:49:4d:
        18:b4:05:4f:43:0e:46:25:b4:4e:da:39:ed:07:75:47:ea:d3:
        fa:57:95:e2:56:6d:0f:31:f1:7e:4d:44:53:82:42:4f:67:85:
        a7:a4:f6:8a:9b:8f:cb:58:bb:cf:83:11:86:6b:0f:d0:a4:eb:
        3f:9a:23:a9:d7:32:c3:19:27:d5:fb:24:d2:ee:08:9b:9b:e8:
        ce:c9:41:3e:ac:a5:27:71:34:83:76:84:01:75:b0:b4:f0:10:
        6b:39:17:89
-----BEGIN CERTIFICATE-----
MIIE8DCCA9igAwIBAgIBATANBgkqhkiG9w0BAQsFADCBlzELMAkGA1UEBhMCVVMx
EzARBgNVBAgMCldhc2hpbmd0b24xEDAOBgNVBAcMB1NlYXR0bGUxEDAOBgNVBAoM
B3dvbGZTU0wxFDASBgNVBAsMC0VuZ2luZWVyaW5nMRgwFgYDVQQDDA93b2xmU1NM
IHJvb3QgQ0ExHzAdBgkqhkiG9w0BCQEWEGluZm9Ad29sZnNzbC5jb20wHhcNMjMw
OTI2MTcyMjQzWhcNMjYwNjIyMTcyMjQzWjCBoTELMAkGA1UEBhMCVVMxEzARBgNV
BAgMCldhc2hpbmd0b24xEDAOBgNVBAcMB1NlYXR0bGUxEDAOBgNVBAoMB3dvbGZT
U0wxFDASBgNVBAsMC0VuZ2luZWVyaW5nMSIwIAYDVQQDDBl3b2xmU1NMIGludGVy
bWVkaWF0ZSBDQSAxMR8wHQYJKoZIhvcNAQkBFhBpbmZvQHdvbGZzc2wuY29tMIIB
IjANBgkqhkiG9w0BAQEFAAOCAQ8AMIIBCgKCAQEA3rTIXHfgLbH1ua0WRzWgNWVl
xuFAqx60uRO3y4y7d6V22m2Hh/ZKTRPkJj4nh+5bx2o/RTBhVVz2NdFl+pgRo6dV
1b6Rgkv8vpDWUFNjmiwi4TUR3HgCl4rkRpKcUwh23h9TtrjKdz55brzQ4w0wW0z2
lA0wKWSfBOXb+4lgZ7uvJoNRdyQvKwuhlIEQmOjrJqgefOTEbGcGlVVK3VL08mBt
ASsZkTVtpAhHBnEkANnexlbzi1Ms4pqWpfNi5cTjI/LS/CHqD2J2jdWZSM7cWMS7
f9qULIB0g8XgsBV+Qf0O8vTweHZ7rSYNqkiWFy8h45UrJjf5qoAv/t72XryXfwID
AQABo4IBOTCCATUwDAYDVR0TBAUwAwEB/zAdBgNVHQ4EFgQUg8Y6iSyB9ALXnUzi
KsBxgmRE2g4wgcQGA1UdIwSBvDCBuYAUc7AcpC+Cy89HpTjXsASCOn5yFSGhgZ2k
gZowgZcxCzAJBgNVBAYTAlVTMRMwEQYDVQQIDApXYXNoaW5ndG9uMRAwDgYDVQQH
DAdTZWF0dGxlMRAwDgYDVQQKDAd3b2xmU1NMMRQwEgYDVQQLDAtFbmdpbmVlcmlu
ZzEYMBYGA1UEAwwPd29sZlNTTCByb290IENBMR8wHQYJKoZIhvcNAQkBFhBpbmZv
QHdvbGZzc2wuY29tggFjMAsGA1UdDwQEAwIBBjAyBggrBgEFBQcBAQQmMCQwIgYI
KwYBBQUHMAGGFmh0dHA6Ly8xMjcuMC4wLjE6MjIyMjAwDQYJKoZIhvcNAQELBQAD
ggEBAGpwCgFPVS5+3T0nD5QM/DqWapCn1TUpKlK4PgxKW680Mfw/BiVOZbzYcZXH
VT5zw48GUjGotvHoRpecNNUESpNrAQinl8p+FI/wFyhpBsSfHTv2/7+p3BfTCEWu
MBQMG2gCqf+qMQO+stpYj9xCl8HLdPoWt1nlPFh77oOrCW+AswaygmJrHq2SnLyx
wLOf8S62/rkb9F+7r4Gy9X/dIIdJTRi0BU9DDkYltE7aOe0HdUfq0/pXleJWbQ8x
8X5NRFOCQk9nhaek9oqbj8tYu8+DEYZrD9Ck6z+aI6nXMsMZJ9X7JNLuCJub6M7J
QT6spSdxNIN2hAF1sLTwEGs5F4k=
-----END CERTIFICATE-----
Certificate:
    Data:
        Version: 3 (0x2)
        Serial Number: 99 (0x63)
        Signature Algorithm: sha256WithRSAEncryption
        Issuer: C = US, ST = Washington, L = Seattle, O = wolfSSL, OU = Engineering, CN = wolfSSL root CA, emailAddress = info@wolfssl.com
        Validity
            Not Before: Sep 26 17:22:43 2023 GMT
            Not After : Jun 22 17:22:43 2026 GMT
        Subject: C = US, ST = Washington, L = Seattle, O = wolfSSL, OU = Engineering, CN = wolfSSL root CA, emailAddress = info@wolfssl.com
        Subject Public Key Info:
            Public Key Algorithm: rsaEncryption
                Public-Key: (2048 bit)
                Modulus:
                    00:ab:2c:b4:2f:1d:06:09:ef:4e:29:86:84:7e:cc:
                    bf:a6:79:7c:f0:c0:c1:64:25:8c:75:b7:10:05:ca:
                    48:27:0c:0e:32:1c:b0:fe:99:85:39:b6:b9:a2:f7:
                    27:ff:6d:3c:8c:16:73:29:21:7f:8b:a6:54:71:90:
                    ad:cc:05:b9:9f:15:c7:0a:3f:5f:69:f4:0a:5f:8c:
                    71:b5:2c:bf:66:e2:03:9a:32:f4:d2:ec:2a:89:4b:
                    f9:35:88:14:33:47:4e:2e:05:79:01:ed:64:36:76:
                    b9:f8:85:cd:01:88:ac:c5:b2:b1:59:b8:cd:5a:f4:
                    09:09:38:9b:da:5a:cf:ce:78:99:1f:49:3d:41:d6:
                    06:7c:52:99:c8:97:d1:b3:80:3a:a2:4f:36:c4:c5:
                    96:30:77:31:38:c8:70:cc:e1:67:06:b3:2b:2f:93:
                    b5:69:cf:83:7e:88:53:9b:0f:46:21:4c:d6:05:36:
                    44:99:60:68:47:e5:32:01:12:d4:10:73:ae:9a:34:
                    94:fa:6e:b8:58:4f:7b:5b:8a:92:97:ad:fd:97:b9:
                    75:ca:c2:d4:45:7d:17:6b:cd:2f:f3:63:7a:0e:30:
                    b5:0b:a9:d9:a6:7c:74:60:9d:cc:09:03:43:f1:0f:
                    90:d3:b7:fe:6c:9f:d9:cd:78:4b:15:ae:8c:5b:f9:
                    99:81
                Exponent: 65537 (0x10001)
        X509v3 extensions:
            X509v3 Basic Constraints: 
                CA:TRUE
            X509v3 Subject Key Identifier: 
                73:B0:1C:A4:2F:82:CB:CF:47:A5:38:D7:B0:04:82:3A:7E:72:15:21
            X509v3 Authority Key Identifier: 
                keyid:73:B0:1C:A4:2F:82:CB:CF:47:A5:38:D7:B0:04:82:3A:7E:72:15:21
                DirName:/C=US/ST=Washington/L=Seattle/O=wolfSSL/OU=Engineering/CN=wolfSSL root CA/emailAddress=info@wolfssl.com
                serial:63
            X509v3 Key Usage: 
                Certificate Sign, CRL Sign
            Authority Information Access: 
                OCSP - URI:http://127.0.0.1:22220
    Signature Algorithm: sha256WithRSAEncryption
    Signature Value:
        35:d0:2c:d6:69:a1:b0:97:70:45:e0:95:4c:30:a6:06:fd:94:
        50:cd:bd:16:c0:01:7a:80:49:13:a2:9f:05:7a:de:de:57:e9:
        47:b8:ec:27:f0:3c:65:5f:f3:3c:18:78:a6:9f:b1:73:20:d9:
        17:d0:7c:63:19:d6:c0:aa:db:84:e5:99:6b:b0:77:90:6b:cb:
        ea:e0:1f:a0:5b:0f:3f:ad:ab:2c:ef:32:8a:3f:82:fc:3b:ff:
        97:67:ff:70:49:f8:7e:29:4d:07:4e:fe:52:e9:3a:82:d2:4c:
        94:d6:67:6e:fb:15:57:ff:23:e7:3f:94:4a:de:35:f3:07:0e:
        8e:6e:4f:84:e1:b0:bc:5f:b8:cb:9b:bc:02:05:2d:b1:a2:ab:
        fc:1e:d8:49:c6:31:40:c7:15:26:fc:27:87:e7:f3:d3:08:c0:
        64:52:24:a6:8a:55:d7:0d:a2:d3:6d:df:28:4e:5a:4c:98:2a:
        de:61:41:51:32:87:65:71:22:8f:6e:27:80:99:da:95:eb:eb:
        99:71:f9:8c:64:f0:c8:a7:7d:a0:fb:aa:60:d5:9c:b5:48:1b:
        7e:32:56:58:69:88:2d:72:0c:23:d6:52:76:af:64:ed:e6:23:
        bf:77:cc:a4:88:1e:0a:be:34:0e:95:b0:cf:4c:f5:12:4f:86:
        32:08:19:68
-----BEGIN CERTIFICATE-----
MIIE5jCCA86gAwIBAgIBYzANBgkqhkiG9w0BAQsFADCBlzELMAkGA1UEBhMCVVMx
EzARBgNVBAgMCldhc2hpbmd0b24xEDAOBgNVBAcMB1NlYXR0bGUxEDAOBgNVBAoM
B3dvbGZTU0wxFDASBgNVBAsMC0VuZ2luZWVyaW5nMRgwFgYDVQQDDA93b2xmU1NM
IHJvb3QgQ0ExHzAdBgkqhkiG9w0BCQEWEGluZm9Ad29sZnNzbC5jb20wHhcNMjMw
OTI2MTcyMjQzWhcNMjYwNjIyMTcyMjQzWjCBlzELMAkGA1UEBhMCVVMxEzARBgNV
BAgMCldhc2hpbmd0b24xEDAOBgNVBAcMB1NlYXR0bGUxEDAOBgNVBAoMB3dvbGZT
U0wxFDASBgNVBAsMC0VuZ2luZWVyaW5nMRgwFgYDVQQDDA93b2xmU1NMIHJvb3Qg
Q0ExHzAdBgkqhkiG9w0BCQEWEGluZm9Ad29sZnNzbC5jb20wggEiMA0GCSqGSIb3
DQEBAQUAA4IBDwAwggEKAoIBAQCrLLQvHQYJ704phoR+zL+meXzwwMFkJYx1txAF
ykgnDA4yHLD+mYU5trmi9yf/bTyMFnMpIX+LplRxkK3MBbmfFccKP19p9ApfjHG1
LL9m4gOaMvTS7CqJS/k1iBQzR04uBXkB7WQ2drn4hc0BiKzFsrFZuM1a9AkJOJva
Ws/OeJkfST1B1gZ8UpnIl9GzgDqiTzbExZYwdzE4yHDM4WcGsysvk7Vpz4N+iFOb
D0YhTNYFNkSZYGhH5TIBEtQQc66aNJT6brhYT3tbipKXrf2XuXXKwtRFfRdrzS/z
Y3oOMLULqdmmfHRgncwJA0PxD5DTt/5sn9nNeEsVroxb+ZmBAgMBAAGjggE5MIIB
NTAMBgNVHRMEBTADAQH/MB0GA1UdDgQWBBRzsBykL4LLz0elONewBII6fnIVITCB
xAYDVR0jBIG8MIG5gBRzsBykL4LLz0elONewBII6fnIVIaGBnaSBmjCBlzELMAkG
A1UEBhMCVVMxEzARBgNVBAgMCldhc2hpbmd0b24xEDAOBgNVBAcMB1NlYXR0bGUx
EDAOBgNVBAoMB3dvbGZTU0wxFDASBgNVBAsMC0VuZ2luZWVyaW5nMRgwFgYDVQQD
DA93b2xmU1NMIHJvb3QgQ0ExHzAdBgkqhkiG9w0BCQEWEGluZm9Ad29sZnNzbC5j
b22CAWMwCwYDVR0PBAQDAgEGMDIGCCsGAQUFBwEBBCYwJDAiBggrBgEFBQcwAYYW
aHR0cDovLzEyNy4wLjAuMToyMjIyMDANBgkqhkiG9w0BAQsFAAOCAQEANdAs1mmh
sJdwReCVTDCmBv2UUM29FsABeoBJE6KfBXre3lfpR7jsJ/A8ZV/zPBh4pp+xcyDZ
F9B8YxnWwKrbhOWZa7B3kGvL6uAfoFsPP62rLO8yij+C/Dv/l2f/cEn4filNB07+
Uuk6gtJMlNZnbvsVV/8j5z+USt418wcOjm5PhOGwvF+4y5u8AgUtsaKr/B7YScYx
QMcVJvwnh+fz0wjAZFIkpopV1w2i023fKE5aTJgq3mFBUTKHZXEij24ngJnalevr
mXH5jGTwyKd9oPuqYNWctUgbfjJWWGmILXIMI9ZSdq9k7eYjv3fMpIgeCr40DpWw
z0z1Ek+GMggZaA==
-----END CERTIFICATE-----
