Certificate:
    Data:
        Version: 3 (0x2)
        Serial Number: 6 (0x6)
    Signature Algorithm: sha256WithRSAEncryption
        Issuer: C=US, ST=Washington, L=Seattle, O=wolfSSL, OU=Engineering, CN=wolfSSL REVOKED intermediate CA/emailAddress=info@wolfssl.com
        Validity
            Not Before: Dec  7 22:42:30 2015 GMT
            Not After : Sep  2 22:42:30 2018 GMT
        Subject: C=US, ST=Washington, L=Seattle, O=wolfSSL, OU=Engineering, CN=www3.wolfssl.com/emailAddress=info@wolfssl.com
        Subject Public Key Info:
            Public Key Algorithm: rsaEncryption
                Public-Key: (2048 bit)
                Modulus:
                    00:be:19:65:1e:17:39:d4:33:fc:97:64:69:80:51:
                    fb:6c:7c:ca:e1:ba:2a:ab:d2:dd:30:61:f3:2e:47:
                    c1:d4:33:c0:ff:53:21:ba:2d:14:a6:b9:7c:66:ca:
                    45:7b:1c:7d:8f:fc:75:f3:9a:69:f1:6c:25:46:a0:
                    92:5d:00:93:e3:22:a6:60:b9:97:05:37:7f:a1:aa:
                    cd:22:81:72:b1:22:47:3d:7c:8d:46:55:bc:32:4d:
                    d2:84:43:5c:15:43:07:22:70:36:39:93:1b:e8:a1:
                    46:bb:02:85:ba:1d:31:ac:b1:3c:84:5b:eb:8f:1f:
                    62:8a:71:52:9e:0b:63:b6:e6:d6:46:cc:19:06:d6:
                    bb:06:81:e4:0b:25:14:6c:63:94:70:1a:27:37:95:
                    24:40:07:30:f5:24:73:c3:bd:f9:0e:5f:b6:cd:4f:
                    18:88:f0:d7:a3:9b:f5:b0:1e:fe:04:03:a5:8d:73:
                    f7:6b:31:74:85:fd:61:fa:9e:53:37:75:90:e6:f8:
                    b5:98:66:e8:52:4d:4a:4c:39:05:65:c1:34:f9:c6:
                    95:27:b0:07:c1:51:96:a8:82:1b:22:cf:41:df:de:
                    b4:94:b7:0d:ba:61:fb:f4:40:7c:a1:fc:a2:29:a3:
                    47:4d:b4:94:9d:7b:51:ec:e4:13:fb:cd:e9:26:ca:
                    a7:93
                Exponent: 65537 (0x10001)
        X509v3 extensions:
            X509v3 Basic Constraints: 
                CA:FALSE
            X509v3 Subject Key Identifier: 
                C1:CD:C0:2C:34:F4:3B:BB:E3:CA:98:35:7D:6A:15:33:94:5C:11:3A
            X509v3 Authority Key Identifier: 
                keyid:05:D1:BA:86:00:A2:EE:2A:05:24:B7:11:AD:2D:60:F1:90:14:8F:17
                DirName:/C=US/ST=Washington/L=Seattle/O=wolfSSL/OU=Engineering/CN=wolfSSL root CA/emailAddress=info@wolfssl.com
                serial:02

            X509v3 Key Usage: 
                Digital Signature, Non Repudiation, Key Encipherment
            Authority Information Access: 
                OCSP - URI:http://localhost:22222

    Signature Algorithm: sha256WithRSAEncryption
         65:ef:ab:69:45:9f:a9:92:4d:2c:3c:83:11:ec:03:35:9f:f2:
         8d:53:b8:b0:19:7d:93:66:ca:c6:9b:a1:16:ac:9c:29:39:14:
         9f:1e:08:bd:c7:80:31:e0:f5:cc:a5:ff:0e:dc:82:bd:64:fa:
         45:eb:c3:b8:86:20:5e:e5:ab:9a:04:25:4e:57:d0:13:93:3d:
         8b:cd:77:d3:f3:26:29:e9:6a:84:30:27:e3:20:88:3c:dd:91:
         b6:37:42:10:d1:70:49:2f:28:33:12:36:06:df:3a:41:22:d3:
         a8:f1:91:08:7a:fd:f7:85:1e:0a:2f:70:90:14:d6:8f:95:d2:
         53:4f:cc:f6:ec:91:eb:3b:46:db:12:e3:21:e5:f2:b8:64:90:
         cd:d0:54:35:49:d1:1d:07:24:1b:dc:03:d4:27:6e:11:2f:1a:
         60:ac:df:63:ea:90:cd:c0:f0:92:e3:90:49:13:8c:aa:2f:af:
         a1:4d:e2:0c:10:26:2f:80:1e:99:2b:d8:b2:30:d2:e8:10:a6:
         8c:01:9b:10:df:b9:4b:25:23:ce:8e:e6:14:eb:dd:ed:8e:6a:
         cf:3a:1b:7e:8c:f3:98:d7:7c:e6:d1:b3:b8:20:86:82:c8:b6:
         cf:86:91:71:d0:88:24:2d:9a:c0:60:69:0b:8a:58:4a:d3:93:
         41:99:7a:77
-----BEGIN CERTIFICATE-----
MIIE9DCCA9ygAwIBAgIBBjANBgkqhkiG9w0BAQsFADCBpzELMAkGA1UEBhMCVVMx
EzARBgNVBAgMCldhc2hpbmd0b24xEDAOBgNVBAcMB1NlYXR0bGUxEDAOBgNVBAoM
B3dvbGZTU0wxFDASBgNVBAsMC0VuZ2luZWVyaW5nMSgwJgYDVQQDDB93b2xmU1NM
IFJFVk9LRUQgaW50ZXJtZWRpYXRlIENBMR8wHQYJKoZIhvcNAQkBFhBpbmZvQHdv
bGZzc2wuY29tMB4XDTE1MTIwNzIyNDIzMFoXDTE4MDkwMjIyNDIzMFowgZgxCzAJ
BgNVBAYTAlVTMRMwEQYDVQQIDApXYXNoaW5ndG9uMRAwDgYDVQQHDAdTZWF0dGxl
MRAwDgYDVQQKDAd3b2xmU1NMMRQwEgYDVQQLDAtFbmdpbmVlcmluZzEZMBcGA1UE
AwwQd3d3My53b2xmc3NsLmNvbTEfMB0GCSqGSIb3DQEJARYQaW5mb0B3b2xmc3Ns
LmNvbTCCASIwDQYJKoZIhvcNAQEBBQADggEPADCCAQoCggEBAL4ZZR4XOdQz/Jdk
aYBR+2x8yuG6KqvS3TBh8y5HwdQzwP9TIbotFKa5fGbKRXscfY/8dfOaafFsJUag
kl0Ak+MipmC5lwU3f6GqzSKBcrEiRz18jUZVvDJN0oRDXBVDByJwNjmTG+ihRrsC
hbodMayxPIRb648fYopxUp4LY7bm1kbMGQbWuwaB5AslFGxjlHAaJzeVJEAHMPUk
c8O9+Q5fts1PGIjw16Ob9bAe/gQDpY1z92sxdIX9YfqeUzd1kOb4tZhm6FJNSkw5
BWXBNPnGlSewB8FRlqiCGyLPQd/etJS3Dbph+/RAfKH8oimjR020lJ17UezkE/vN
6SbKp5MCAwEAAaOCATYwggEyMAkGA1UdEwQCMAAwHQYDVR0OBBYEFMHNwCw09Du7
48qYNX1qFTOUXBE6MIHEBgNVHSMEgbwwgbmAFAXRuoYAou4qBSS3Ea0tYPGQFI8X
oYGdpIGaMIGXMQswCQYDVQQGEwJVUzETMBEGA1UECAwKV2FzaGluZ3RvbjEQMA4G
A1UEBwwHU2VhdHRsZTEQMA4GA1UECgwHd29sZlNTTDEUMBIGA1UECwwLRW5naW5l
ZXJpbmcxGDAWBgNVBAMMD3dvbGZTU0wgcm9vdCBDQTEfMB0GCSqGSIb3DQEJARYQ
aW5mb0B3b2xmc3NsLmNvbYIBAjALBgNVHQ8EBAMCBeAwMgYIKwYBBQUHAQEEJjAk
MCIGCCsGAQUFBzABhhZodHRwOi8vbG9jYWxob3N0OjIyMjIyMA0GCSqGSIb3DQEB
CwUAA4IBAQBl76tpRZ+pkk0sPIMR7AM1n/KNU7iwGX2TZsrGm6EWrJwpORSfHgi9
x4Ax4PXMpf8O3IK9ZPpF68O4hiBe5auaBCVOV9ATkz2LzXfT8yYp6WqEMCfjIIg8
3ZG2N0IQ0XBJLygzEjYG3zpBItOo8ZEIev33hR4KL3CQFNaPldJTT8z27JHrO0bb
EuMh5fK4ZJDN0FQ1SdEdByQb3APUJ24RLxpgrN9j6pDNwPCS45BJE4yqL6+hTeIM
ECYvgB6ZK9iyMNLoEKaMAZsQ37lLJSPOjuYU693tjmrPOht+jPOY13zm0bO4IIaC
yLbPhpFx0IgkLZrAYGkLilhK05NBmXp3
-----END CERTIFICATE-----
Certificate:
    Data:
        Version: 3 (0x2)
        Serial Number: 2 (0x2)
    Signature Algorithm: sha256WithRSAEncryption
        Issuer: C=US, ST=Washington, L=Seattle, O=wolfSSL, OU=Engineering, CN=wolfSSL root CA/emailAddress=info@wolfssl.com
        Validity
            Not Before: Dec  7 22:42:29 2015 GMT
            Not After : Sep  2 22:42:29 2018 GMT
        Subject: C=US, ST=Washington, L=Seattle, O=wolfSSL, OU=Engineering, CN=wolfSSL REVOKED intermediate CA/emailAddress=info@wolfssl.com
        Subject Public Key Info:
            Public Key Algorithm: rsaEncryption
                Public-Key: (2048 bit)
                Modulus:
                    00:d0:20:3c:35:19:6f:2c:44:b4:7e:42:c7:75:b4:
                    6a:2b:a9:23:85:bf:87:b4:ee:ca:d7:4b:1f:31:d7:
                    11:02:a1:ab:58:3d:fb:dc:51:ca:3a:1d:1f:95:a6:
                    56:82:f7:8f:ff:6b:50:bb:ea:10:e1:47:1d:35:77:
                    2e:4b:28:c5:53:46:23:2b:82:fd:5a:d3:f4:21:db:
                    0e:e0:f2:76:33:47:b3:00:be:3a:b1:23:98:53:eb:
                    ea:a0:de:1b:cc:05:4e:ee:63:a8:2c:93:24:d6:98:
                    78:74:03:e4:c8:89:43:61:f1:25:b8:cd:3b:87:c1:
                    31:25:fd:ba:4c:fc:29:94:45:9e:69:d7:67:0a:8a:
                    8e:d5:52:93:30:a2:0e:dd:6a:1c:b0:94:77:db:52:
                    52:b7:89:21:be:96:75:24:cb:e9:49:df:81:9d:9d:
                    f8:55:7d:01:2a:eb:78:03:12:e2:20:6e:db:63:35:
                    cd:a1:96:f0:f8:8c:20:35:69:87:01:ca:b4:54:36:
                    a0:15:e0:23:7d:b9:fb:be:99:05:50:f0:bf:ec:7f:
                    12:e1:3d:75:15:4e:c8:c2:30:e6:8b:fe:e5:8b:55:
                    f8:44:5e:e5:e3:56:e0:66:2d:6f:42:5a:45:6b:96:
                    aa:c7:5d:41:08:5f:ce:d7:dc:9f:20:e4:46:78:ff:
                    d9:99
                Exponent: 65537 (0x10001)
        X509v3 extensions:
            X509v3 Basic Constraints: 
                CA:TRUE
            X509v3 Subject Key Identifier: 
                05:D1:BA:86:00:A2:EE:2A:05:24:B7:11:AD:2D:60:F1:90:14:8F:17
            X509v3 Authority Key Identifier: 
                keyid:73:B0:1C:A4:2F:82:CB:CF:47:A5:38:D7:B0:04:82:3A:7E:72:15:21
                DirName:/C=US/ST=Washington/L=Seattle/O=wolfSSL/OU=Engineering/CN=wolfSSL root CA/emailAddress=info@wolfssl.com
                serial:EF:57:D8:F5:69:38:95:25

            Authority Information Access: 
                OCSP - URI:http://localhost:22220

    Signature Algorithm: sha256WithRSAEncryption
         00:5e:fe:87:51:fc:e7:de:5c:e5:97:17:d2:af:6d:3b:65:29:
         27:3b:06:d7:55:5a:93:56:12:0f:8b:e7:57:69:dc:ae:ec:ec:
         2b:cd:cd:d0:15:c0:63:a3:5c:d9:6e:59:d2:88:b6:da:1c:ac:
         b7:fe:46:2a:37:7b:5f:0b:30:80:7e:a5:46:8f:38:58:7e:df:
         8e:d0:f9:27:e6:e7:26:01:f8:04:5f:21:0d:7a:27:85:af:f8:
         41:15:aa:1d:73:3d:32:2a:a1:6b:f7:9e:36:3a:a3:26:dc:b8:
         be:f2:61:ea:11:49:1c:43:68:5f:8c:a5:87:7b:71:a6:78:d0:
         1a:f1:f7:45:6c:59:eb:88:b5:ef:00:59:4f:71:48:00:73:11:
         2c:74:af:8d:1e:67:ee:cf:b3:9d:a4:64:ee:90:a7:f8:69:0a:
         8f:9b:74:89:68:c7:e4:1b:22:73:f1:23:94:c2:dd:4a:11:ee:
         9c:99:20:f7:e1:06:2a:ef:1b:1a:1c:10:f9:0b:0b:49:82:af:
         5f:38:75:0c:c3:a5:b8:9f:21:c5:61:eb:6d:6e:2d:d5:b5:89:
         19:28:ff:94:c1:55:eb:77:79:b5:57:e1:44:05:54:28:ca:66:
         c5:4e:75:63:1b:b7:c4:57:fa:35:94:f7:82:3d:06:cc:f0:13:
         bf:0e:23:70
-----BEGIN CERTIFICATE-----
MIIE8TCCA9mgAwIBAgIBAjANBgkqhkiG9w0BAQsFADCBlzELMAkGA1UEBhMCVVMx
EzARBgNVBAgMCldhc2hpbmd0b24xEDAOBgNVBAcMB1NlYXR0bGUxEDAOBgNVBAoM
B3dvbGZTU0wxFDASBgNVBAsMC0VuZ2luZWVyaW5nMRgwFgYDVQQDDA93b2xmU1NM
IHJvb3QgQ0ExHzAdBgkqhkiG9w0BCQEWEGluZm9Ad29sZnNzbC5jb20wHhcNMTUx
MjA3MjI0MjI5WhcNMTgwOTAyMjI0MjI5WjCBpzELMAkGA1UEBhMCVVMxEzARBgNV
BAgMCldhc2hpbmd0b24xEDAOBgNVBAcMB1NlYXR0bGUxEDAOBgNVBAoMB3dvbGZT
U0wxFDASBgNVBAsMC0VuZ2luZWVyaW5nMSgwJgYDVQQDDB93b2xmU1NMIFJFVk9L
RUQgaW50ZXJtZWRpYXRlIENBMR8wHQYJKoZIhvcNAQkBFhBpbmZvQHdvbGZzc2wu
Y29tMIIBIjANBgkqhkiG9w0BAQEFAAOCAQ8AMIIBCgKCAQEA0CA8NRlvLES0fkLH
dbRqK6kjhb+HtO7K10sfMdcRAqGrWD373FHKOh0flaZWgveP/2tQu+oQ4UcdNXcu
SyjFU0YjK4L9WtP0IdsO4PJ2M0ezAL46sSOYU+vqoN4bzAVO7mOoLJMk1ph4dAPk
yIlDYfEluM07h8ExJf26TPwplEWeaddnCoqO1VKTMKIO3WocsJR321JSt4khvpZ1
JMvpSd+BnZ34VX0BKut4AxLiIG7bYzXNoZbw+IwgNWmHAcq0VDagFeAjfbn7vpkF
UPC/7H8S4T11FU7IwjDmi/7li1X4RF7l41bgZi1vQlpFa5aqx11BCF/O19yfIORG
eP/ZmQIDAQABo4IBNDCCATAwDAYDVR0TBAUwAwEB/zAdBgNVHQ4EFgQUBdG6hgCi
7ioFJLcRrS1g8ZAUjxcwgcwGA1UdIwSBxDCBwYAUc7AcpC+Cy89HpTjXsASCOn5y
FSGhgZ2kgZowgZcxCzAJBgNVBAYTAlVTMRMwEQYDVQQIDApXYXNoaW5ndG9uMRAw
DgYDVQQHDAdTZWF0dGxlMRAwDgYDVQQKDAd3b2xmU1NMMRQwEgYDVQQLDAtFbmdp
bmVlcmluZzEYMBYGA1UEAwwPd29sZlNTTCByb290IENBMR8wHQYJKoZIhvcNAQkB
FhBpbmZvQHdvbGZzc2wuY29tggkA71fY9Wk4lSUwMgYIKwYBBQUHAQEEJjAkMCIG
CCsGAQUFBzABhhZodHRwOi8vbG9jYWxob3N0OjIyMjIwMA0GCSqGSIb3DQEBCwUA
A4IBAQAAXv6HUfzn3lzllxfSr207ZSknOwbXVVqTVhIPi+dXadyu7Owrzc3QFcBj
o1zZblnSiLbaHKy3/kYqN3tfCzCAfqVGjzhYft+O0Pkn5ucmAfgEXyENeieFr/hB
Faodcz0yKqFr9542OqMm3Li+8mHqEUkcQ2hfjKWHe3GmeNAa8fdFbFnriLXvAFlP
cUgAcxEsdK+NHmfuz7OdpGTukKf4aQqPm3SJaMfkGyJz8SOUwt1KEe6cmSD34QYq
7xsaHBD5CwtJgq9fOHUMw6W4nyHFYettbi3VtYkZKP+UwVXrd3m1V+FEBVQoymbF
TnVjG7fEV/o1lPeCPQbM8BO/DiNw
-----END CERTIFICATE-----
