Certificate:
    Data:
        Version: 3 (0x2)
        Serial Number: 7 (0x7)
        Signature Algorithm: sha256WithRSAEncryption
        Issuer: C = US, ST = Washington, L = Seattle, O = wolfSSL, OU = Engineering, CN = wolfSSL intermediate CA 2, emailAddress = info@wolfssl.com
        Validity
            Not Before: Feb 15 12:50:25 2022 GMT
            Not After : Nov 11 12:50:25 2024 GMT
        Subject: C = US, ST = Washington, L = Seattle, O = wolfSSL, OU = Engineering, CN = www3.wolfssl.com, emailAddress = info@wolfssl.com
        Subject Public Key Info:
            Public Key Algorithm: rsaEncryption
                RSA Public-Key: (2048 bit)
                Modulus:
                    00:be:19:65:1e:17:39:d4:33:fc:97:64:69:80:51:
                    fb:6c:7c:ca:e1:ba:2a:ab:d2:dd:30:61:f3:2e:47:
                    c1:d4:33:c0:ff:53:21:ba:2d:14:a6:b9:7c:66:ca:
                    45:7b:1c:7d:8f:fc:75:f3:9a:69:f1:6c:25:46:a0:
                    92:5d:00:93:e3:22:a6:60:b9:97:05:37:7f:a1:aa:
                    cd:22:81:72:b1:22:47:3d:7c:8d:46:55:bc:32:4d:
                    d2:84:43:5c:15:43:07:22:70:36:39:93:1b:e8:a1:
                    46:bb:02:85:ba:1d:31:ac:b1:3c:84:5b:eb:8f:1f:
                    62:8a:71:52:9e:0b:63:b6:e6:d6:46:cc:19:06:d6:
                    bb:06:81:e4:0b:25:14:6c:63:94:70:1a:27:37:95:
                    24:40:07:30:f5:24:73:c3:bd:f9:0e:5f:b6:cd:4f:
                    18:88:f0:d7:a3:9b:f5:b0:1e:fe:04:03:a5:8d:73:
                    f7:6b:31:74:85:fd:61:fa:9e:53:37:75:90:e6:f8:
                    b5:98:66:e8:52:4d:4a:4c:39:05:65:c1:34:f9:c6:
                    95:27:b0:07:c1:51:96:a8:82:1b:22:cf:41:df:de:
                    b4:94:b7:0d:ba:61:fb:f4:40:7c:a1:fc:a2:29:a3:
                    47:4d:b4:94:9d:7b:51:ec:e4:13:fb:cd:e9:26:ca:
                    a7:93
                Exponent: 65537 (0x10001)
        X509v3 extensions:
            X509v3 Basic Constraints: 
                CA:FALSE
            X509v3 Subject Key Identifier: 
                C1:CD:C0:2C:34:F4:3B:BB:E3:CA:98:35:7D:6A:15:33:94:5C:11:3A
            X509v3 Authority Key Identifier: 
                keyid:05:D1:BA:86:00:A2:EE:2A:05:24:B7:11:AD:2D:60:F1:90:14:8F:17
                DirName:/C=US/ST=Washington/L=Seattle/O=wolfSSL/OU=Engineering/CN=wolfSSL root CA/emailAddress=info@wolfssl.com
                serial:02

            X509v3 Key Usage: 
                Digital Signature, Non Repudiation, Key Encipherment
            Authority Information Access: 
                OCSP - URI:http://127.0.0.1:22222

    Signature Algorithm: sha256WithRSAEncryption
         44:af:54:42:0d:bd:9a:25:16:6f:65:25:26:d1:3e:14:70:72:
         cb:40:35:0a:48:b5:6a:1e:ad:b4:87:09:bc:4f:fe:71:16:d9:
         86:b3:a7:57:a9:ab:44:e3:fa:00:6a:fc:31:96:59:22:3b:ca:
         f2:03:10:0f:32:e9:65:c7:e4:15:61:71:f8:15:04:5d:cd:d8:
         35:a2:be:96:f6:e3:b9:f4:93:47:75:21:c2:fb:59:14:a6:23:
         e6:33:b2:24:10:ba:8c:10:b6:89:fe:9b:e4:09:d3:9e:f7:f7:
         22:6f:5b:be:f2:21:8e:fe:08:26:48:79:c4:5d:e5:6d:0f:20:
         bd:96:49:31:f2:5b:f1:f1:19:02:7a:24:c9:a7:07:a2:1a:18:
         68:40:7a:78:da:4e:76:af:58:71:89:f7:1f:bc:b8:df:52:62:
         8f:b6:60:a1:2a:77:71:24:b1:d8:b7:f9:ee:f1:31:25:6d:b0:
         7b:98:22:6e:84:c8:d4:fc:7d:62:90:63:87:35:58:6e:fd:62:
         97:03:2e:e7:43:8b:2d:4a:69:f3:44:05:55:94:d2:3b:06:0b:
         1e:89:43:3e:1d:e3:4d:12:ea:1f:d6:21:14:47:d6:81:e3:3f:
         27:c8:84:fb:a8:41:7c:8c:12:56:9e:7d:fb:fe:bc:43:31:cc:
         4a:55:5b:63
-----BEGIN CERTIFICATE-----
MIIE7jCCA9agAwIBAgIBBzANBgkqhkiG9w0BAQsFADCBoTELMAkGA1UEBhMCVVMx
EzARBgNVBAgMCldhc2hpbmd0b24xEDAOBgNVBAcMB1NlYXR0bGUxEDAOBgNVBAoM
B3dvbGZTU0wxFDASBgNVBAsMC0VuZ2luZWVyaW5nMSIwIAYDVQQDDBl3b2xmU1NM
IGludGVybWVkaWF0ZSBDQSAyMR8wHQYJKoZIhvcNAQkBFhBpbmZvQHdvbGZzc2wu
Y29tMB4XDTIyMDIxNTEyNTAyNVoXDTI0MTExMTEyNTAyNVowgZgxCzAJBgNVBAYT
AlVTMRMwEQYDVQQIDApXYXNoaW5ndG9uMRAwDgYDVQQHDAdTZWF0dGxlMRAwDgYD
VQQKDAd3b2xmU1NMMRQwEgYDVQQLDAtFbmdpbmVlcmluZzEZMBcGA1UEAwwQd3d3
My53b2xmc3NsLmNvbTEfMB0GCSqGSIb3DQEJARYQaW5mb0B3b2xmc3NsLmNvbTCC
ASIwDQYJKoZIhvcNAQEBBQADggEPADCCAQoCggEBAL4ZZR4XOdQz/JdkaYBR+2x8
yuG6KqvS3TBh8y5HwdQzwP9TIbotFKa5fGbKRXscfY/8dfOaafFsJUagkl0Ak+Mi
pmC5lwU3f6GqzSKBcrEiRz18jUZVvDJN0oRDXBVDByJwNjmTG+ihRrsChbodMayx
PIRb648fYopxUp4LY7bm1kbMGQbWuwaB5AslFGxjlHAaJzeVJEAHMPUkc8O9+Q5f
ts1PGIjw16Ob9bAe/gQDpY1z92sxdIX9YfqeUzd1kOb4tZhm6FJNSkw5BWXBNPnG
lSewB8FRlqiCGyLPQd/etJS3Dbph+/RAfKH8oimjR020lJ17UezkE/vN6SbKp5MC
AwEAAaOCATYwggEyMAkGA1UdEwQCMAAwHQYDVR0OBBYEFMHNwCw09Du748qYNX1q
FTOUXBE6MIHEBgNVHSMEgbwwgbmAFAXRuoYAou4qBSS3Ea0tYPGQFI8XoYGdpIGa
MIGXMQswCQYDVQQGEwJVUzETMBEGA1UECAwKV2FzaGluZ3RvbjEQMA4GA1UEBwwH
U2VhdHRsZTEQMA4GA1UECgwHd29sZlNTTDEUMBIGA1UECwwLRW5naW5lZXJpbmcx
GDAWBgNVBAMMD3dvbGZTU0wgcm9vdCBDQTEfMB0GCSqGSIb3DQEJARYQaW5mb0B3
b2xmc3NsLmNvbYIBAjALBgNVHQ8EBAMCBeAwMgYIKwYBBQUHAQEEJjAkMCIGCCsG
AQUFBzABhhZodHRwOi8vMTI3LjAuMC4xOjIyMjIyMA0GCSqGSIb3DQEBCwUAA4IB
AQBEr1RCDb2aJRZvZSUm0T4UcHLLQDUKSLVqHq20hwm8T/5xFtmGs6dXqatE4/oA
avwxllkiO8ryAxAPMullx+QVYXH4FQRdzdg1or6W9uO59JNHdSHC+1kUpiPmM7Ik
ELqMELaJ/pvkCdOe9/cib1u+8iGO/ggmSHnEXeVtDyC9lkkx8lvx8RkCeiTJpwei
GhhoQHp42k52r1hxifcfvLjfUmKPtmChKndxJLHYt/nu8TElbbB7mCJuhMjU/H1i
kGOHNVhu/WKXAy7nQ4stSmnzRAVVlNI7BgseiUM+HeNNEuof1iEUR9aB4z8nyIT7
qEF8jBJWnn37/rxDMcxKVVtj
-----END CERTIFICATE-----
Certificate:
    Data:
        Version: 3 (0x2)
        Serial Number: 2 (0x2)
        Signature Algorithm: sha256WithRSAEncryption
        Issuer: C = US, ST = Washington, L = Seattle, O = wolfSSL, OU = Engineering, CN = wolfSSL root CA, emailAddress = info@wolfssl.com
        Validity
            Not Before: Feb 15 12:50:25 2022 GMT
            Not After : Nov 11 12:50:25 2024 GMT
        Subject: C = US, ST = Washington, L = Seattle, O = wolfSSL, OU = Engineering, CN = wolfSSL intermediate CA 2, emailAddress = info@wolfssl.com
        Subject Public Key Info:
            Public Key Algorithm: rsaEncryption
                RSA Public-Key: (2048 bit)
                Modulus:
                    00:d0:20:3c:35:19:6f:2c:44:b4:7e:42:c7:75:b4:
                    6a:2b:a9:23:85:bf:87:b4:ee:ca:d7:4b:1f:31:d7:
                    11:02:a1:ab:58:3d:fb:dc:51:ca:3a:1d:1f:95:a6:
                    56:82:f7:8f:ff:6b:50:bb:ea:10:e1:47:1d:35:77:
                    2e:4b:28:c5:53:46:23:2b:82:fd:5a:d3:f4:21:db:
                    0e:e0:f2:76:33:47:b3:00:be:3a:b1:23:98:53:eb:
                    ea:a0:de:1b:cc:05:4e:ee:63:a8:2c:93:24:d6:98:
                    78:74:03:e4:c8:89:43:61:f1:25:b8:cd:3b:87:c1:
                    31:25:fd:ba:4c:fc:29:94:45:9e:69:d7:67:0a:8a:
                    8e:d5:52:93:30:a2:0e:dd:6a:1c:b0:94:77:db:52:
                    52:b7:89:21:be:96:75:24:cb:e9:49:df:81:9d:9d:
                    f8:55:7d:01:2a:eb:78:03:12:e2:20:6e:db:63:35:
                    cd:a1:96:f0:f8:8c:20:35:69:87:01:ca:b4:54:36:
                    a0:15:e0:23:7d:b9:fb:be:99:05:50:f0:bf:ec:7f:
                    12:e1:3d:75:15:4e:c8:c2:30:e6:8b:fe:e5:8b:55:
                    f8:44:5e:e5:e3:56:e0:66:2d:6f:42:5a:45:6b:96:
                    aa:c7:5d:41:08:5f:ce:d7:dc:9f:20:e4:46:78:ff:
                    d9:99
                Exponent: 65537 (0x10001)
        X509v3 extensions:
            X509v3 Basic Constraints: 
                CA:TRUE
            X509v3 Subject Key Identifier: 
                05:D1:BA:86:00:A2:EE:2A:05:24:B7:11:AD:2D:60:F1:90:14:8F:17
            X509v3 Authority Key Identifier: 
                keyid:73:B0:1C:A4:2F:82:CB:CF:47:A5:38:D7:B0:04:82:3A:7E:72:15:21
                DirName:/C=US/ST=Washington/L=Seattle/O=wolfSSL/OU=Engineering/CN=wolfSSL root CA/emailAddress=info@wolfssl.com
                serial:63

            X509v3 Key Usage: 
                Certificate Sign, CRL Sign
            Authority Information Access: 
                OCSP - URI:http://127.0.0.1:22220

    Signature Algorithm: sha256WithRSAEncryption
         62:76:06:0d:b6:b1:30:a1:ba:b9:36:c1:f5:11:44:b9:80:3f:
         48:c6:78:9a:c9:1c:9f:b4:ee:12:e4:e5:75:97:87:3d:ad:e5:
         b9:3e:0d:f9:a9:f8:cf:f5:e3:42:35:03:ac:70:89:1e:8a:09:
         f1:a8:98:de:0c:2c:ef:dc:71:2c:01:1e:09:14:13:5c:46:23:
         4c:94:33:44:17:e8:e0:3c:6c:a4:58:79:6d:d4:52:47:0a:d6:
         8f:d7:93:34:8e:59:74:4c:3b:40:96:69:f1:94:a9:1b:8e:4a:
         ae:a9:51:a9:15:04:99:1c:bb:0d:86:ca:e9:5e:1b:dc:36:9e:
         0d:3b:46:a2:b6:f6:42:94:a5:ca:54:0d:e3:3f:00:38:be:61:
         77:7e:d0:54:c7:26:b4:f1:5f:af:be:2c:c9:55:84:6f:69:41:
         90:08:40:69:e1:07:4d:4e:d6:47:55:3a:17:c7:2c:62:fd:95:
         ef:24:68:19:ad:b2:0b:33:15:35:f6:16:19:12:ad:2f:67:ba:
         9d:c6:b4:1d:a1:17:6c:75:5d:51:96:c8:87:5c:cf:c8:2a:e2:
         ed:fa:16:ed:fc:35:f3:7c:78:4e:fb:32:da:a9:e2:12:5b:4c:
         3a:87:14:67:f7:bb:1c:1d:ec:78:65:5d:fb:84:a1:a7:45:81:
         47:9d:85:12
-----BEGIN CERTIFICATE-----
MIIE8DCCA9igAwIBAgIBAjANBgkqhkiG9w0BAQsFADCBlzELMAkGA1UEBhMCVVMx
EzARBgNVBAgMCldhc2hpbmd0b24xEDAOBgNVBAcMB1NlYXR0bGUxEDAOBgNVBAoM
B3dvbGZTU0wxFDASBgNVBAsMC0VuZ2luZWVyaW5nMRgwFgYDVQQDDA93b2xmU1NM
IHJvb3QgQ0ExHzAdBgkqhkiG9w0BCQEWEGluZm9Ad29sZnNzbC5jb20wHhcNMjIw
MjE1MTI1MDI1WhcNMjQxMTExMTI1MDI1WjCBoTELMAkGA1UEBhMCVVMxEzARBgNV
BAgMCldhc2hpbmd0b24xEDAOBgNVBAcMB1NlYXR0bGUxEDAOBgNVBAoMB3dvbGZT
U0wxFDASBgNVBAsMC0VuZ2luZWVyaW5nMSIwIAYDVQQDDBl3b2xmU1NMIGludGVy
bWVkaWF0ZSBDQSAyMR8wHQYJKoZIhvcNAQkBFhBpbmZvQHdvbGZzc2wuY29tMIIB
IjANBgkqhkiG9w0BAQEFAAOCAQ8AMIIBCgKCAQEA0CA8NRlvLES0fkLHdbRqK6kj
hb+HtO7K10sfMdcRAqGrWD373FHKOh0flaZWgveP/2tQu+oQ4UcdNXcuSyjFU0Yj
K4L9WtP0IdsO4PJ2M0ezAL46sSOYU+vqoN4bzAVO7mOoLJMk1ph4dAPkyIlDYfEl
uM07h8ExJf26TPwplEWeaddnCoqO1VKTMKIO3WocsJR321JSt4khvpZ1JMvpSd+B
nZ34VX0BKut4AxLiIG7bYzXNoZbw+IwgNWmHAcq0VDagFeAjfbn7vpkFUPC/7H8S
4T11FU7IwjDmi/7li1X4RF7l41bgZi1vQlpFa5aqx11BCF/O19yfIORGeP/ZmQID
AQABo4IBOTCCATUwDAYDVR0TBAUwAwEB/zAdBgNVHQ4EFgQUBdG6hgCi7ioFJLcR
rS1g8ZAUjxcwgcQGA1UdIwSBvDCBuYAUc7AcpC+Cy89HpTjXsASCOn5yFSGhgZ2k
gZowgZcxCzAJBgNVBAYTAlVTMRMwEQYDVQQIDApXYXNoaW5ndG9uMRAwDgYDVQQH
DAdTZWF0dGxlMRAwDgYDVQQKDAd3b2xmU1NMMRQwEgYDVQQLDAtFbmdpbmVlcmlu
ZzEYMBYGA1UEAwwPd29sZlNTTCByb290IENBMR8wHQYJKoZIhvcNAQkBFhBpbmZv
QHdvbGZzc2wuY29tggFjMAsGA1UdDwQEAwIBBjAyBggrBgEFBQcBAQQmMCQwIgYI
KwYBBQUHMAGGFmh0dHA6Ly8xMjcuMC4wLjE6MjIyMjAwDQYJKoZIhvcNAQELBQAD
ggEBAGJ2Bg22sTChurk2wfURRLmAP0jGeJrJHJ+07hLk5XWXhz2t5bk+Dfmp+M/1
40I1A6xwiR6KCfGomN4MLO/ccSwBHgkUE1xGI0yUM0QX6OA8bKRYeW3UUkcK1o/X
kzSOWXRMO0CWafGUqRuOSq6pUakVBJkcuw2GyuleG9w2ng07RqK29kKUpcpUDeM/
ADi+YXd+0FTHJrTxX6++LMlVhG9pQZAIQGnhB01O1kdVOhfHLGL9le8kaBmtsgsz
FTX2FhkSrS9nup3GtB2hF2x1XVGWyIdcz8gq4u36Fu38NfN8eE77Mtqp4hJbTDqH
FGf3uxwd7HhlXfuEoadFgUedhRI=
-----END CERTIFICATE-----
Certificate:
    Data:
        Version: 3 (0x2)
        Serial Number: 99 (0x63)
        Signature Algorithm: sha256WithRSAEncryption
        Issuer: C = US, ST = Washington, L = Seattle, O = wolfSSL, OU = Engineering, CN = wolfSSL root CA, emailAddress = info@wolfssl.com
        Validity
            Not Before: Feb 15 12:50:25 2022 GMT
            Not After : Nov 11 12:50:25 2024 GMT
        Subject: C = US, ST = Washington, L = Seattle, O = wolfSSL, OU = Engineering, CN = wolfSSL root CA, emailAddress = info@wolfssl.com
        Subject Public Key Info:
            Public Key Algorithm: rsaEncryption
                RSA Public-Key: (2048 bit)
                Modulus:
                    00:ab:2c:b4:2f:1d:06:09:ef:4e:29:86:84:7e:cc:
                    bf:a6:79:7c:f0:c0:c1:64:25:8c:75:b7:10:05:ca:
                    48:27:0c:0e:32:1c:b0:fe:99:85:39:b6:b9:a2:f7:
                    27:ff:6d:3c:8c:16:73:29:21:7f:8b:a6:54:71:90:
                    ad:cc:05:b9:9f:15:c7:0a:3f:5f:69:f4:0a:5f:8c:
                    71:b5:2c:bf:66:e2:03:9a:32:f4:d2:ec:2a:89:4b:
                    f9:35:88:14:33:47:4e:2e:05:79:01:ed:64:36:76:
                    b9:f8:85:cd:01:88:ac:c5:b2:b1:59:b8:cd:5a:f4:
                    09:09:38:9b:da:5a:cf:ce:78:99:1f:49:3d:41:d6:
                    06:7c:52:99:c8:97:d1:b3:80:3a:a2:4f:36:c4:c5:
                    96:30:77:31:38:c8:70:cc:e1:67:06:b3:2b:2f:93:
                    b5:69:cf:83:7e:88:53:9b:0f:46:21:4c:d6:05:36:
                    44:99:60:68:47:e5:32:01:12:d4:10:73:ae:9a:34:
                    94:fa:6e:b8:58:4f:7b:5b:8a:92:97:ad:fd:97:b9:
                    75:ca:c2:d4:45:7d:17:6b:cd:2f:f3:63:7a:0e:30:
                    b5:0b:a9:d9:a6:7c:74:60:9d:cc:09:03:43:f1:0f:
                    90:d3:b7:fe:6c:9f:d9:cd:78:4b:15:ae:8c:5b:f9:
                    99:81
                Exponent: 65537 (0x10001)
        X509v3 extensions:
            X509v3 Basic Constraints: 
                CA:TRUE
            X509v3 Subject Key Identifier: 
                73:B0:1C:A4:2F:82:CB:CF:47:A5:38:D7:B0:04:82:3A:7E:72:15:21
            X509v3 Authority Key Identifier: 
                keyid:73:B0:1C:A4:2F:82:CB:CF:47:A5:38:D7:B0:04:82:3A:7E:72:15:21
                DirName:/C=US/ST=Washington/L=Seattle/O=wolfSSL/OU=Engineering/CN=wolfSSL root CA/emailAddress=info@wolfssl.com
                serial:63

            X509v3 Key Usage: 
                Certificate Sign, CRL Sign
            Authority Information Access: 
                OCSP - URI:http://127.0.0.1:22220

    Signature Algorithm: sha256WithRSAEncryption
         8d:cd:ce:ea:d3:2a:07:c6:7e:c3:d6:01:68:38:25:ab:28:c5:
         6e:a6:60:13:a7:4d:b5:bc:7b:78:37:5d:2d:b8:63:a1:e5:f7:
         a6:58:8e:9f:6f:65:23:fc:45:66:b7:96:61:44:8a:2c:6d:84:
         4c:60:23:dc:47:2a:e0:f0:34:eb:4b:b4:f1:6a:0a:b0:a7:ae:
         7e:10:df:20:42:e6:d2:16:be:9d:75:1d:f0:9a:7e:94:1c:76:
         42:eb:36:e5:49:3e:96:c8:34:70:e9:be:61:af:42:ed:47:0c:
         9e:fc:7b:72:65:b9:00:0b:52:91:41:20:d4:34:ab:88:33:0d:
         8e:98:76:18:b3:c3:e6:db:09:94:17:66:84:0a:fc:21:2d:6d:
         30:be:73:34:5c:e2:61:51:c7:9e:f5:c7:a8:5a:50:d3:11:2d:
         e4:a2:49:d6:36:5e:44:24:29:03:cb:fd:89:f7:9b:26:be:f1:
         fd:05:c5:c2:fc:1a:68:d8:ae:9e:8f:d5:6f:ea:19:bf:c8:be:
         42:be:43:2f:4c:b6:3d:52:82:91:71:c1:f1:9c:29:12:ec:e6:
         55:2b:a9:57:dc:00:f7:ac:f3:c3:c9:a6:70:1c:cb:ba:ea:1f:
         9a:7d:c5:b2:46:8a:8d:90:66:40:89:5c:3b:6d:ec:cb:c8:70:
         36:80:79:ea
-----BEGIN CERTIFICATE-----
MIIE5jCCA86gAwIBAgIBYzANBgkqhkiG9w0BAQsFADCBlzELMAkGA1UEBhMCVVMx
EzARBgNVBAgMCldhc2hpbmd0b24xEDAOBgNVBAcMB1NlYXR0bGUxEDAOBgNVBAoM
B3dvbGZTU0wxFDASBgNVBAsMC0VuZ2luZWVyaW5nMRgwFgYDVQQDDA93b2xmU1NM
IHJvb3QgQ0ExHzAdBgkqhkiG9w0BCQEWEGluZm9Ad29sZnNzbC5jb20wHhcNMjIw
MjE1MTI1MDI1WhcNMjQxMTExMTI1MDI1WjCBlzELMAkGA1UEBhMCVVMxEzARBgNV
BAgMCldhc2hpbmd0b24xEDAOBgNVBAcMB1NlYXR0bGUxEDAOBgNVBAoMB3dvbGZT
U0wxFDASBgNVBAsMC0VuZ2luZWVyaW5nMRgwFgYDVQQDDA93b2xmU1NMIHJvb3Qg
Q0ExHzAdBgkqhkiG9w0BCQEWEGluZm9Ad29sZnNzbC5jb20wggEiMA0GCSqGSIb3
DQEBAQUAA4IBDwAwggEKAoIBAQCrLLQvHQYJ704phoR+zL+meXzwwMFkJYx1txAF
ykgnDA4yHLD+mYU5trmi9yf/bTyMFnMpIX+LplRxkK3MBbmfFccKP19p9ApfjHG1
LL9m4gOaMvTS7CqJS/k1iBQzR04uBXkB7WQ2drn4hc0BiKzFsrFZuM1a9AkJOJva
Ws/OeJkfST1B1gZ8UpnIl9GzgDqiTzbExZYwdzE4yHDM4WcGsysvk7Vpz4N+iFOb
D0YhTNYFNkSZYGhH5TIBEtQQc66aNJT6brhYT3tbipKXrf2XuXXKwtRFfRdrzS/z
Y3oOMLULqdmmfHRgncwJA0PxD5DTt/5sn9nNeEsVroxb+ZmBAgMBAAGjggE5MIIB
NTAMBgNVHRMEBTADAQH/MB0GA1UdDgQWBBRzsBykL4LLz0elONewBII6fnIVITCB
xAYDVR0jBIG8MIG5gBRzsBykL4LLz0elONewBII6fnIVIaGBnaSBmjCBlzELMAkG
A1UEBhMCVVMxEzARBgNVBAgMCldhc2hpbmd0b24xEDAOBgNVBAcMB1NlYXR0bGUx
EDAOBgNVBAoMB3dvbGZTU0wxFDASBgNVBAsMC0VuZ2luZWVyaW5nMRgwFgYDVQQD
DA93b2xmU1NMIHJvb3QgQ0ExHzAdBgkqhkiG9w0BCQEWEGluZm9Ad29sZnNzbC5j
b22CAWMwCwYDVR0PBAQDAgEGMDIGCCsGAQUFBwEBBCYwJDAiBggrBgEFBQcwAYYW
aHR0cDovLzEyNy4wLjAuMToyMjIyMDANBgkqhkiG9w0BAQsFAAOCAQEAjc3O6tMq
B8Z+w9YBaDglqyjFbqZgE6dNtbx7eDddLbhjoeX3pliOn29lI/xFZreWYUSKLG2E
TGAj3Ecq4PA060u08WoKsKeufhDfIELm0ha+nXUd8Jp+lBx2Qus25Uk+lsg0cOm+
Ya9C7UcMnvx7cmW5AAtSkUEg1DSriDMNjph2GLPD5tsJlBdmhAr8IS1tML5zNFzi
YVHHnvXHqFpQ0xEt5KJJ1jZeRCQpA8v9ifebJr7x/QXFwvwaaNiuno/Vb+oZv8i+
Qr5DL0y2PVKCkXHB8ZwpEuzmVSupV9wA96zzw8mmcBzLuuofmn3FskaKjZBmQIlc
O23sy8hwNoB56g==
-----END CERTIFICATE-----
