Certificate:
    Data:
        Version: 3 (0x2)
        Serial Number: 5 (0x5)
        Signature Algorithm: sha256WithRSAEncryption
        Issuer: C = US, ST = Washington, L = Seattle, O = wolfSSL, OU = Engineering, CN = wolfSSL intermediate CA 1, emailAddress = info@wolfssl.com
        Validity
            Not Before: Feb 15 12:50:25 2022 GMT
            Not After : Nov 11 12:50:25 2024 GMT
        Subject: C = US, ST = Washington, L = Seattle, O = wolfSSL, OU = Engineering, CN = www1.wolfssl.com, emailAddress = info@wolfssl.com
        Subject Public Key Info:
            Public Key Algorithm: rsaEncryption
                RSA Public-Key: (2048 bit)
                Modulus:
                    00:e6:96:55:75:cf:8a:97:68:8c:b6:38:f6:7a:05:
                    be:33:b6:51:47:37:8a:f7:db:91:be:92:6b:b7:00:
                    8c:f2:c5:24:6e:18:e9:92:00:81:01:dc:b3:4c:28:
                    a9:b7:80:f1:96:cf:23:7a:2f:ae:f8:e3:0f:2d:d3:
                    5e:23:e7:db:4c:b2:5d:89:16:17:be:be:81:db:fb:
                    12:6d:28:4b:10:a0:12:04:27:c1:c9:d0:79:95:ef:
                    e8:8d:8c:59:9b:4e:72:7d:bc:49:2b:22:4e:f8:4f:
                    e2:0c:f1:e9:e9:97:f9:df:8c:5a:0a:aa:38:1d:43:
                    04:a3:a7:89:a1:e2:83:a4:4b:b5:4e:45:88:a6:22:
                    5d:ac:a9:58:67:88:c1:d5:61:ef:bd:11:05:27:94:
                    47:bb:33:a5:8a:ca:ee:1f:8d:c0:6e:24:af:cd:ca:
                    bf:80:47:71:95:ac:a9:f1:5d:23:6c:f5:4b:b4:a9:
                    e1:c4:66:fb:e5:c4:a1:9f:a7:51:d1:78:cd:2e:b4:
                    3f:2e:e2:82:f3:7f:c4:a7:f4:31:cf:76:27:3f:db:
                    2e:d2:6e:c3:47:23:82:a3:48:40:8c:a7:c1:13:f0:
                    63:50:54:43:f6:71:12:e1:6f:a5:7a:58:26:f7:fd:
                    8b:3b:70:18:a0:43:ba:01:6b:b3:f8:d5:be:05:13:
                    64:31
                Exponent: 65537 (0x10001)
        X509v3 extensions:
            X509v3 Basic Constraints: 
                CA:FALSE
            X509v3 Subject Key Identifier: 
                CC:55:15:00:E2:44:89:92:63:6D:10:5D:B9:9E:73:B6:5D:3A:19:CA
            X509v3 Authority Key Identifier: 
                keyid:83:C6:3A:89:2C:81:F4:02:D7:9D:4C:E2:2A:C0:71:82:64:44:DA:0E
                DirName:/C=US/ST=Washington/L=Seattle/O=wolfSSL/OU=Engineering/CN=wolfSSL root CA/emailAddress=info@wolfssl.com
                serial:01

            X509v3 Key Usage: 
                Digital Signature, Non Repudiation, Key Encipherment
            Authority Information Access: 
                OCSP - URI:http://127.0.0.1:22221

    Signature Algorithm: sha256WithRSAEncryption
         c8:40:e3:08:4d:a7:5f:8f:ad:3e:ef:37:4b:de:b4:9e:e0:d1:
         91:33:3d:b4:57:b7:22:8c:fb:17:64:9c:1a:e7:c0:3d:82:8f:
         66:09:0c:fa:dd:af:3f:b7:64:1e:b3:7b:3c:b8:07:9b:09:4d:
         db:cf:42:57:42:7e:bb:17:d4:a1:a7:c2:c0:e3:14:5f:f6:3b:
         b7:9a:6d:0b:bb:df:b6:06:2b:7d:d1:a6:aa:c7:c3:d2:65:0f:
         c7:de:84:4a:35:71:52:0c:a7:88:80:8e:c9:ee:44:1a:7c:af:
         00:a3:dd:f6:ff:ac:78:53:19:1e:db:a2:0b:0f:ef:08:57:73:
         4b:4a:56:de:73:02:5e:ec:74:f5:57:27:e5:50:35:64:92:9a:
         7c:dd:bc:62:a9:52:03:15:30:e7:c0:6e:49:ab:46:dc:22:64:
         a6:c1:27:d9:5f:e7:18:0d:bd:c2:d8:1b:31:e8:21:0f:f3:8c:
         87:99:ad:22:a4:76:25:e1:b9:39:fc:64:14:ea:29:04:90:b0:
         81:4c:c8:74:1c:53:dd:30:4f:81:66:8e:4f:e6:cc:96:d3:f8:
         ad:de:81:61:06:0f:ce:45:a8:0e:1d:32:e7:cd:26:5a:12:e5:
         4a:0f:4a:28:24:83:96:dd:39:ef:cd:1f:cd:56:38:0a:36:24:
         5a:d8:6f:40
-----BEGIN CERTIFICATE-----
MIIE7jCCA9agAwIBAgIBBTANBgkqhkiG9w0BAQsFADCBoTELMAkGA1UEBhMCVVMx
EzARBgNVBAgMCldhc2hpbmd0b24xEDAOBgNVBAcMB1NlYXR0bGUxEDAOBgNVBAoM
B3dvbGZTU0wxFDASBgNVBAsMC0VuZ2luZWVyaW5nMSIwIAYDVQQDDBl3b2xmU1NM
IGludGVybWVkaWF0ZSBDQSAxMR8wHQYJKoZIhvcNAQkBFhBpbmZvQHdvbGZzc2wu
Y29tMB4XDTIyMDIxNTEyNTAyNVoXDTI0MTExMTEyNTAyNVowgZgxCzAJBgNVBAYT
AlVTMRMwEQYDVQQIDApXYXNoaW5ndG9uMRAwDgYDVQQHDAdTZWF0dGxlMRAwDgYD
VQQKDAd3b2xmU1NMMRQwEgYDVQQLDAtFbmdpbmVlcmluZzEZMBcGA1UEAwwQd3d3
MS53b2xmc3NsLmNvbTEfMB0GCSqGSIb3DQEJARYQaW5mb0B3b2xmc3NsLmNvbTCC
ASIwDQYJKoZIhvcNAQEBBQADggEPADCCAQoCggEBAOaWVXXPipdojLY49noFvjO2
UUc3ivfbkb6Sa7cAjPLFJG4Y6ZIAgQHcs0woqbeA8ZbPI3ovrvjjDy3TXiPn20yy
XYkWF76+gdv7Em0oSxCgEgQnwcnQeZXv6I2MWZtOcn28SSsiTvhP4gzx6emX+d+M
WgqqOB1DBKOniaHig6RLtU5FiKYiXaypWGeIwdVh770RBSeUR7szpYrK7h+NwG4k
r83Kv4BHcZWsqfFdI2z1S7Sp4cRm++XEoZ+nUdF4zS60Py7igvN/xKf0Mc92Jz/b
LtJuw0cjgqNIQIynwRPwY1BUQ/ZxEuFvpXpYJvf9iztwGKBDugFrs/jVvgUTZDEC
AwEAAaOCATYwggEyMAkGA1UdEwQCMAAwHQYDVR0OBBYEFMxVFQDiRImSY20QXbme
c7ZdOhnKMIHEBgNVHSMEgbwwgbmAFIPGOoksgfQC151M4irAcYJkRNoOoYGdpIGa
MIGXMQswCQYDVQQGEwJVUzETMBEGA1UECAwKV2FzaGluZ3RvbjEQMA4GA1UEBwwH
U2VhdHRsZTEQMA4GA1UECgwHd29sZlNTTDEUMBIGA1UECwwLRW5naW5lZXJpbmcx
GDAWBgNVBAMMD3dvbGZTU0wgcm9vdCBDQTEfMB0GCSqGSIb3DQEJARYQaW5mb0B3
b2xmc3NsLmNvbYIBATALBgNVHQ8EBAMCBeAwMgYIKwYBBQUHAQEEJjAkMCIGCCsG
AQUFBzABhhZodHRwOi8vMTI3LjAuMC4xOjIyMjIxMA0GCSqGSIb3DQEBCwUAA4IB
AQDIQOMITadfj60+7zdL3rSe4NGRMz20V7cijPsXZJwa58A9go9mCQz63a8/t2Qe
s3s8uAebCU3bz0JXQn67F9Shp8LA4xRf9ju3mm0Lu9+2Bit90aaqx8PSZQ/H3oRK
NXFSDKeIgI7J7kQafK8Ao932/6x4Uxke26ILD+8IV3NLSlbecwJe7HT1VyflUDVk
kpp83bxiqVIDFTDnwG5Jq0bcImSmwSfZX+cYDb3C2Bsx6CEP84yHma0ipHYl4bk5
/GQU6ikEkLCBTMh0HFPdME+BZo5P5syW0/it3oFhBg/ORagOHTLnzSZaEuVKD0oo
JIOW3TnvzR/NVjgKNiRa2G9A
-----END CERTIFICATE-----
Certificate:
    Data:
        Version: 3 (0x2)
        Serial Number: 1 (0x1)
        Signature Algorithm: sha256WithRSAEncryption
        Issuer: C = US, ST = Washington, L = Seattle, O = wolfSSL, OU = Engineering, CN = wolfSSL root CA, emailAddress = info@wolfssl.com
        Validity
            Not Before: Feb 15 12:50:25 2022 GMT
            Not After : Nov 11 12:50:25 2024 GMT
        Subject: C = US, ST = Washington, L = Seattle, O = wolfSSL, OU = Engineering, CN = wolfSSL intermediate CA 1, emailAddress = info@wolfssl.com
        Subject Public Key Info:
            Public Key Algorithm: rsaEncryption
                RSA Public-Key: (2048 bit)
                Modulus:
                    00:de:b4:c8:5c:77:e0:2d:b1:f5:b9:ad:16:47:35:
                    a0:35:65:65:c6:e1:40:ab:1e:b4:b9:13:b7:cb:8c:
                    bb:77:a5:76:da:6d:87:87:f6:4a:4d:13:e4:26:3e:
                    27:87:ee:5b:c7:6a:3f:45:30:61:55:5c:f6:35:d1:
                    65:fa:98:11:a3:a7:55:d5:be:91:82:4b:fc:be:90:
                    d6:50:53:63:9a:2c:22:e1:35:11:dc:78:02:97:8a:
                    e4:46:92:9c:53:08:76:de:1f:53:b6:b8:ca:77:3e:
                    79:6e:bc:d0:e3:0d:30:5b:4c:f6:94:0d:30:29:64:
                    9f:04:e5:db:fb:89:60:67:bb:af:26:83:51:77:24:
                    2f:2b:0b:a1:94:81:10:98:e8:eb:26:a8:1e:7c:e4:
                    c4:6c:67:06:95:55:4a:dd:52:f4:f2:60:6d:01:2b:
                    19:91:35:6d:a4:08:47:06:71:24:00:d9:de:c6:56:
                    f3:8b:53:2c:e2:9a:96:a5:f3:62:e5:c4:e3:23:f2:
                    d2:fc:21:ea:0f:62:76:8d:d5:99:48:ce:dc:58:c4:
                    bb:7f:da:94:2c:80:74:83:c5:e0:b0:15:7e:41:fd:
                    0e:f2:f4:f0:78:76:7b:ad:26:0d:aa:48:96:17:2f:
                    21:e3:95:2b:26:37:f9:aa:80:2f:fe:de:f6:5e:bc:
                    97:7f
                Exponent: 65537 (0x10001)
        X509v3 extensions:
            X509v3 Basic Constraints: 
                CA:TRUE
            X509v3 Subject Key Identifier: 
                83:C6:3A:89:2C:81:F4:02:D7:9D:4C:E2:2A:C0:71:82:64:44:DA:0E
            X509v3 Authority Key Identifier: 
                keyid:73:B0:1C:A4:2F:82:CB:CF:47:A5:38:D7:B0:04:82:3A:7E:72:15:21
                DirName:/C=US/ST=Washington/L=Seattle/O=wolfSSL/OU=Engineering/CN=wolfSSL root CA/emailAddress=info@wolfssl.com
                serial:63

            X509v3 Key Usage: 
                Certificate Sign, CRL Sign
            Authority Information Access: 
                OCSP - URI:http://127.0.0.1:22220

    Signature Algorithm: sha256WithRSAEncryption
         4a:fb:b7:cc:a9:da:95:bf:91:ba:b4:58:e5:44:96:72:bc:fb:
         d3:23:a1:1a:74:ca:0e:b9:24:94:aa:51:b0:f2:fd:62:eb:0b:
         f8:5a:49:98:af:73:45:b9:a1:5d:49:8d:08:91:11:05:5a:7e:
         fe:fb:4b:47:37:f9:c9:6a:aa:9c:79:f4:da:5f:d4:c1:9a:ac:
         0b:92:03:e2:78:b8:df:c7:78:5f:3c:69:3d:79:35:dd:3f:e8:
         d8:f8:b5:c8:88:4e:1c:2c:08:23:7c:06:32:e7:82:18:55:27:
         9f:37:fb:1a:3c:9f:7c:bd:15:c0:5b:c2:e5:3c:8b:ba:21:f4:
         03:06:41:4c:a2:37:15:15:46:ae:35:4e:46:2f:8f:73:35:14:
         ca:00:b6:10:ac:af:84:f1:3c:cb:76:1c:9e:84:5f:6c:ed:9e:
         21:64:f7:8f:ea:3d:c2:c5:64:ac:09:f4:ef:2d:46:3c:2e:c0:
         c4:d8:e6:21:1b:2e:76:2d:ce:a2:e7:37:40:22:5f:3d:0b:fb:
         f3:38:86:d2:06:41:ce:20:44:4d:0b:bd:9a:e7:b0:fa:24:33:
         64:94:ba:cc:e0:bb:03:1f:a5:19:c2:24:0b:a6:f9:9b:8f:4b:
         c2:8f:08:19:84:14:27:14:3a:e5:e0:d5:1d:d0:7c:6d:cb:6c:
         aa:0d:45:a8
-----BEGIN CERTIFICATE-----
MIIE8DCCA9igAwIBAgIBATANBgkqhkiG9w0BAQsFADCBlzELMAkGA1UEBhMCVVMx
EzARBgNVBAgMCldhc2hpbmd0b24xEDAOBgNVBAcMB1NlYXR0bGUxEDAOBgNVBAoM
B3dvbGZTU0wxFDASBgNVBAsMC0VuZ2luZWVyaW5nMRgwFgYDVQQDDA93b2xmU1NM
IHJvb3QgQ0ExHzAdBgkqhkiG9w0BCQEWEGluZm9Ad29sZnNzbC5jb20wHhcNMjIw
MjE1MTI1MDI1WhcNMjQxMTExMTI1MDI1WjCBoTELMAkGA1UEBhMCVVMxEzARBgNV
BAgMCldhc2hpbmd0b24xEDAOBgNVBAcMB1NlYXR0bGUxEDAOBgNVBAoMB3dvbGZT
U0wxFDASBgNVBAsMC0VuZ2luZWVyaW5nMSIwIAYDVQQDDBl3b2xmU1NMIGludGVy
bWVkaWF0ZSBDQSAxMR8wHQYJKoZIhvcNAQkBFhBpbmZvQHdvbGZzc2wuY29tMIIB
IjANBgkqhkiG9w0BAQEFAAOCAQ8AMIIBCgKCAQEA3rTIXHfgLbH1ua0WRzWgNWVl
xuFAqx60uRO3y4y7d6V22m2Hh/ZKTRPkJj4nh+5bx2o/RTBhVVz2NdFl+pgRo6dV
1b6Rgkv8vpDWUFNjmiwi4TUR3HgCl4rkRpKcUwh23h9TtrjKdz55brzQ4w0wW0z2
lA0wKWSfBOXb+4lgZ7uvJoNRdyQvKwuhlIEQmOjrJqgefOTEbGcGlVVK3VL08mBt
ASsZkTVtpAhHBnEkANnexlbzi1Ms4pqWpfNi5cTjI/LS/CHqD2J2jdWZSM7cWMS7
f9qULIB0g8XgsBV+Qf0O8vTweHZ7rSYNqkiWFy8h45UrJjf5qoAv/t72XryXfwID
AQABo4IBOTCCATUwDAYDVR0TBAUwAwEB/zAdBgNVHQ4EFgQUg8Y6iSyB9ALXnUzi
KsBxgmRE2g4wgcQGA1UdIwSBvDCBuYAUc7AcpC+Cy89HpTjXsASCOn5yFSGhgZ2k
gZowgZcxCzAJBgNVBAYTAlVTMRMwEQYDVQQIDApXYXNoaW5ndG9uMRAwDgYDVQQH
DAdTZWF0dGxlMRAwDgYDVQQKDAd3b2xmU1NMMRQwEgYDVQQLDAtFbmdpbmVlcmlu
ZzEYMBYGA1UEAwwPd29sZlNTTCByb290IENBMR8wHQYJKoZIhvcNAQkBFhBpbmZv
QHdvbGZzc2wuY29tggFjMAsGA1UdDwQEAwIBBjAyBggrBgEFBQcBAQQmMCQwIgYI
KwYBBQUHMAGGFmh0dHA6Ly8xMjcuMC4wLjE6MjIyMjAwDQYJKoZIhvcNAQELBQAD
ggEBAEr7t8yp2pW/kbq0WOVElnK8+9MjoRp0yg65JJSqUbDy/WLrC/haSZivc0W5
oV1JjQiREQVafv77S0c3+clqqpx59Npf1MGarAuSA+J4uN/HeF88aT15Nd0/6Nj4
tciIThwsCCN8BjLnghhVJ583+xo8n3y9FcBbwuU8i7oh9AMGQUyiNxUVRq41TkYv
j3M1FMoAthCsr4TxPMt2HJ6EX2ztniFk94/qPcLFZKwJ9O8tRjwuwMTY5iEbLnYt
zqLnN0AiXz0L+/M4htIGQc4gRE0LvZrnsPokM2SUuszguwMfpRnCJAum+ZuPS8KP
CBmEFCcUOuXg1R3QfG3LbKoNRag=
-----END CERTIFICATE-----
Certificate:
    Data:
        Version: 3 (0x2)
        Serial Number: 99 (0x63)
        Signature Algorithm: sha256WithRSAEncryption
        Issuer: C = US, ST = Washington, L = Seattle, O = wolfSSL, OU = Engineering, CN = wolfSSL root CA, emailAddress = info@wolfssl.com
        Validity
            Not Before: Feb 15 12:50:25 2022 GMT
            Not After : Nov 11 12:50:25 2024 GMT
        Subject: C = US, ST = Washington, L = Seattle, O = wolfSSL, OU = Engineering, CN = wolfSSL root CA, emailAddress = info@wolfssl.com
        Subject Public Key Info:
            Public Key Algorithm: rsaEncryption
                RSA Public-Key: (2048 bit)
                Modulus:
                    00:ab:2c:b4:2f:1d:06:09:ef:4e:29:86:84:7e:cc:
                    bf:a6:79:7c:f0:c0:c1:64:25:8c:75:b7:10:05:ca:
                    48:27:0c:0e:32:1c:b0:fe:99:85:39:b6:b9:a2:f7:
                    27:ff:6d:3c:8c:16:73:29:21:7f:8b:a6:54:71:90:
                    ad:cc:05:b9:9f:15:c7:0a:3f:5f:69:f4:0a:5f:8c:
                    71:b5:2c:bf:66:e2:03:9a:32:f4:d2:ec:2a:89:4b:
                    f9:35:88:14:33:47:4e:2e:05:79:01:ed:64:36:76:
                    b9:f8:85:cd:01:88:ac:c5:b2:b1:59:b8:cd:5a:f4:
                    09:09:38:9b:da:5a:cf:ce:78:99:1f:49:3d:41:d6:
                    06:7c:52:99:c8:97:d1:b3:80:3a:a2:4f:36:c4:c5:
                    96:30:77:31:38:c8:70:cc:e1:67:06:b3:2b:2f:93:
                    b5:69:cf:83:7e:88:53:9b:0f:46:21:4c:d6:05:36:
                    44:99:60:68:47:e5:32:01:12:d4:10:73:ae:9a:34:
                    94:fa:6e:b8:58:4f:7b:5b:8a:92:97:ad:fd:97:b9:
                    75:ca:c2:d4:45:7d:17:6b:cd:2f:f3:63:7a:0e:30:
                    b5:0b:a9:d9:a6:7c:74:60:9d:cc:09:03:43:f1:0f:
                    90:d3:b7:fe:6c:9f:d9:cd:78:4b:15:ae:8c:5b:f9:
                    99:81
                Exponent: 65537 (0x10001)
        X509v3 extensions:
            X509v3 Basic Constraints: 
                CA:TRUE
            X509v3 Subject Key Identifier: 
                73:B0:1C:A4:2F:82:CB:CF:47:A5:38:D7:B0:04:82:3A:7E:72:15:21
            X509v3 Authority Key Identifier: 
                keyid:73:B0:1C:A4:2F:82:CB:CF:47:A5:38:D7:B0:04:82:3A:7E:72:15:21
                DirName:/C=US/ST=Washington/L=Seattle/O=wolfSSL/OU=Engineering/CN=wolfSSL root CA/emailAddress=info@wolfssl.com
                serial:63

            X509v3 Key Usage: 
                Certificate Sign, CRL Sign
            Authority Information Access: 
                OCSP - URI:http://127.0.0.1:22220

    Signature Algorithm: sha256WithRSAEncryption
         8d:cd:ce:ea:d3:2a:07:c6:7e:c3:d6:01:68:38:25:ab:28:c5:
         6e:a6:60:13:a7:4d:b5:bc:7b:78:37:5d:2d:b8:63:a1:e5:f7:
         a6:58:8e:9f:6f:65:23:fc:45:66:b7:96:61:44:8a:2c:6d:84:
         4c:60:23:dc:47:2a:e0:f0:34:eb:4b:b4:f1:6a:0a:b0:a7:ae:
         7e:10:df:20:42:e6:d2:16:be:9d:75:1d:f0:9a:7e:94:1c:76:
         42:eb:36:e5:49:3e:96:c8:34:70:e9:be:61:af:42:ed:47:0c:
         9e:fc:7b:72:65:b9:00:0b:52:91:41:20:d4:34:ab:88:33:0d:
         8e:98:76:18:b3:c3:e6:db:09:94:17:66:84:0a:fc:21:2d:6d:
         30:be:73:34:5c:e2:61:51:c7:9e:f5:c7:a8:5a:50:d3:11:2d:
         e4:a2:49:d6:36:5e:44:24:29:03:cb:fd:89:f7:9b:26:be:f1:
         fd:05:c5:c2:fc:1a:68:d8:ae:9e:8f:d5:6f:ea:19:bf:c8:be:
         42:be:43:2f:4c:b6:3d:52:82:91:71:c1:f1:9c:29:12:ec:e6:
         55:2b:a9:57:dc:00:f7:ac:f3:c3:c9:a6:70:1c:cb:ba:ea:1f:
         9a:7d:c5:b2:46:8a:8d:90:66:40:89:5c:3b:6d:ec:cb:c8:70:
         36:80:79:ea
-----BEGIN CERTIFICATE-----
MIIE5jCCA86gAwIBAgIBYzANBgkqhkiG9w0BAQsFADCBlzELMAkGA1UEBhMCVVMx
EzARBgNVBAgMCldhc2hpbmd0b24xEDAOBgNVBAcMB1NlYXR0bGUxEDAOBgNVBAoM
B3dvbGZTU0wxFDASBgNVBAsMC0VuZ2luZWVyaW5nMRgwFgYDVQQDDA93b2xmU1NM
IHJvb3QgQ0ExHzAdBgkqhkiG9w0BCQEWEGluZm9Ad29sZnNzbC5jb20wHhcNMjIw
MjE1MTI1MDI1WhcNMjQxMTExMTI1MDI1WjCBlzELMAkGA1UEBhMCVVMxEzARBgNV
BAgMCldhc2hpbmd0b24xEDAOBgNVBAcMB1NlYXR0bGUxEDAOBgNVBAoMB3dvbGZT
U0wxFDASBgNVBAsMC0VuZ2luZWVyaW5nMRgwFgYDVQQDDA93b2xmU1NMIHJvb3Qg
Q0ExHzAdBgkqhkiG9w0BCQEWEGluZm9Ad29sZnNzbC5jb20wggEiMA0GCSqGSIb3
DQEBAQUAA4IBDwAwggEKAoIBAQCrLLQvHQYJ704phoR+zL+meXzwwMFkJYx1txAF
ykgnDA4yHLD+mYU5trmi9yf/bTyMFnMpIX+LplRxkK3MBbmfFccKP19p9ApfjHG1
LL9m4gOaMvTS7CqJS/k1iBQzR04uBXkB7WQ2drn4hc0BiKzFsrFZuM1a9AkJOJva
Ws/OeJkfST1B1gZ8UpnIl9GzgDqiTzbExZYwdzE4yHDM4WcGsysvk7Vpz4N+iFOb
D0YhTNYFNkSZYGhH5TIBEtQQc66aNJT6brhYT3tbipKXrf2XuXXKwtRFfRdrzS/z
Y3oOMLULqdmmfHRgncwJA0PxD5DTt/5sn9nNeEsVroxb+ZmBAgMBAAGjggE5MIIB
NTAMBgNVHRMEBTADAQH/MB0GA1UdDgQWBBRzsBykL4LLz0elONewBII6fnIVITCB
xAYDVR0jBIG8MIG5gBRzsBykL4LLz0elONewBII6fnIVIaGBnaSBmjCBlzELMAkG
A1UEBhMCVVMxEzARBgNVBAgMCldhc2hpbmd0b24xEDAOBgNVBAcMB1NlYXR0bGUx
EDAOBgNVBAoMB3dvbGZTU0wxFDASBgNVBAsMC0VuZ2luZWVyaW5nMRgwFgYDVQQD
DA93b2xmU1NMIHJvb3QgQ0ExHzAdBgkqhkiG9w0BCQEWEGluZm9Ad29sZnNzbC5j
b22CAWMwCwYDVR0PBAQDAgEGMDIGCCsGAQUFBwEBBCYwJDAiBggrBgEFBQcwAYYW
aHR0cDovLzEyNy4wLjAuMToyMjIyMDANBgkqhkiG9w0BAQsFAAOCAQEAjc3O6tMq
B8Z+w9YBaDglqyjFbqZgE6dNtbx7eDddLbhjoeX3pliOn29lI/xFZreWYUSKLG2E
TGAj3Ecq4PA060u08WoKsKeufhDfIELm0ha+nXUd8Jp+lBx2Qus25Uk+lsg0cOm+
Ya9C7UcMnvx7cmW5AAtSkUEg1DSriDMNjph2GLPD5tsJlBdmhAr8IS1tML5zNFzi
YVHHnvXHqFpQ0xEt5KJJ1jZeRCQpA8v9ifebJr7x/QXFwvwaaNiuno/Vb+oZv8i+
Qr5DL0y2PVKCkXHB8ZwpEuzmVSupV9wA96zzw8mmcBzLuuofmn3FskaKjZBmQIlc
O23sy8hwNoB56g==
-----END CERTIFICATE-----
