Certificate:
    Data:
        Version: 3 (0x2)
        Serial Number: 4 (0x4)
    Signature Algorithm: sha256WithRSAEncryption
        Issuer: C=US, ST=Washington, L=Seattle, O=wolfSSL, OU=Engineering, CN=wolfSSL intermediate CA/emailAddress=info@wolfssl.com
        Validity
            Not Before: Dec 14 22:25:23 2015 GMT
            Not After : Sep  9 22:25:23 2018 GMT
        Subject: C=US, ST=Washington, L=Seattle, O=wolfSSL, OU=Engineering, CN=www1.wolfssl.com/emailAddress=info@wolfssl.com
        Subject Public Key Info:
            Public Key Algorithm: rsaEncryption
                Public-Key: (2048 bit)
                Modulus:
                    00:e6:96:55:75:cf:8a:97:68:8c:b6:38:f6:7a:05:
                    be:33:b6:51:47:37:8a:f7:db:91:be:92:6b:b7:00:
                    8c:f2:c5:24:6e:18:e9:92:00:81:01:dc:b3:4c:28:
                    a9:b7:80:f1:96:cf:23:7a:2f:ae:f8:e3:0f:2d:d3:
                    5e:23:e7:db:4c:b2:5d:89:16:17:be:be:81:db:fb:
                    12:6d:28:4b:10:a0:12:04:27:c1:c9:d0:79:95:ef:
                    e8:8d:8c:59:9b:4e:72:7d:bc:49:2b:22:4e:f8:4f:
                    e2:0c:f1:e9:e9:97:f9:df:8c:5a:0a:aa:38:1d:43:
                    04:a3:a7:89:a1:e2:83:a4:4b:b5:4e:45:88:a6:22:
                    5d:ac:a9:58:67:88:c1:d5:61:ef:bd:11:05:27:94:
                    47:bb:33:a5:8a:ca:ee:1f:8d:c0:6e:24:af:cd:ca:
                    bf:80:47:71:95:ac:a9:f1:5d:23:6c:f5:4b:b4:a9:
                    e1:c4:66:fb:e5:c4:a1:9f:a7:51:d1:78:cd:2e:b4:
                    3f:2e:e2:82:f3:7f:c4:a7:f4:31:cf:76:27:3f:db:
                    2e:d2:6e:c3:47:23:82:a3:48:40:8c:a7:c1:13:f0:
                    63:50:54:43:f6:71:12:e1:6f:a5:7a:58:26:f7:fd:
                    8b:3b:70:18:a0:43:ba:01:6b:b3:f8:d5:be:05:13:
                    64:31
                Exponent: 65537 (0x10001)
        X509v3 extensions:
            X509v3 Basic Constraints: 
                CA:FALSE
            X509v3 Subject Key Identifier: 
                CC:55:15:00:E2:44:89:92:63:6D:10:5D:B9:9E:73:B6:5D:3A:19:CA
            X509v3 Authority Key Identifier: 
                keyid:83:C6:3A:89:2C:81:F4:02:D7:9D:4C:E2:2A:C0:71:82:64:44:DA:0E
                DirName:/C=US/ST=Washington/L=Seattle/O=wolfSSL/OU=Engineering/CN=wolfSSL root CA/emailAddress=info@wolfssl.com
                serial:01

            X509v3 Key Usage: 
                Digital Signature, Non Repudiation, Key Encipherment
            Authority Information Access: 
                OCSP - URI:http://localhost:22221

    Signature Algorithm: sha256WithRSAEncryption
         81:77:93:7b:35:9c:af:00:ca:7a:eb:53:d0:56:f9:11:7b:eb:
         6b:d1:ac:f2:bb:1a:f2:b7:d1:02:59:04:3c:43:09:5a:66:9b:
         05:c9:9b:3c:98:d4:3b:30:dd:8a:8a:97:fb:77:06:22:89:b3:
         c6:14:3d:00:ef:48:95:69:6f:74:92:4e:f0:70:fb:7a:d4:84:
         f9:26:00:b7:f9:59:14:fb:56:ed:b3:ea:14:de:d6:76:aa:c4:
         dd:16:74:f7:5a:32:18:1e:ab:eb:80:3d:2f:5c:fc:29:96:fa:
         62:44:09:bf:3e:f9:ac:2b:6e:36:68:f1:d7:53:eb:a1:47:53:
         99:65:29:3f:21:e2:ce:64:55:37:e0:41:d2:0a:ac:1b:6a:a3:
         62:db:96:46:2e:67:9f:4a:8f:7d:5e:f9:1f:2a:36:e6:c0:2b:
         07:f9:63:d9:54:e7:5b:09:86:7a:dc:75:96:bc:60:28:00:99:
         a7:8b:17:7a:bd:8b:06:bc:9f:c4:bc:d7:c8:d5:eb:a6:60:cf:
         0c:07:b3:8c:bd:87:8c:15:12:d2:26:ea:56:ed:d4:c0:87:10:
         50:7f:f6:70:d0:72:fb:f0:75:cf:c7:c2:c9:01:6a:05:68:5e:
         7a:2f:e0:ef:c1:45:e0:31:52:05:d7:12:7a:06:53:81:f7:e8:
         cb:14:42:bd
-----BEGIN CERTIFICATE-----
MIIE7DCCA9SgAwIBAgIBBDANBgkqhkiG9w0BAQsFADCBnzELMAkGA1UEBhMCVVMx
EzARBgNVBAgMCldhc2hpbmd0b24xEDAOBgNVBAcMB1NlYXR0bGUxEDAOBgNVBAoM
B3dvbGZTU0wxFDASBgNVBAsMC0VuZ2luZWVyaW5nMSAwHgYDVQQDDBd3b2xmU1NM
IGludGVybWVkaWF0ZSBDQTEfMB0GCSqGSIb3DQEJARYQaW5mb0B3b2xmc3NsLmNv
bTAeFw0xNTEyMTQyMjI1MjNaFw0xODA5MDkyMjI1MjNaMIGYMQswCQYDVQQGEwJV
UzETMBEGA1UECAwKV2FzaGluZ3RvbjEQMA4GA1UEBwwHU2VhdHRsZTEQMA4GA1UE
CgwHd29sZlNTTDEUMBIGA1UECwwLRW5naW5lZXJpbmcxGTAXBgNVBAMMEHd3dzEu
d29sZnNzbC5jb20xHzAdBgkqhkiG9w0BCQEWEGluZm9Ad29sZnNzbC5jb20wggEi
MA0GCSqGSIb3DQEBAQUAA4IBDwAwggEKAoIBAQDmllV1z4qXaIy2OPZ6Bb4ztlFH
N4r325G+kmu3AIzyxSRuGOmSAIEB3LNMKKm3gPGWzyN6L6744w8t014j59tMsl2J
Fhe+voHb+xJtKEsQoBIEJ8HJ0HmV7+iNjFmbTnJ9vEkrIk74T+IM8enpl/nfjFoK
qjgdQwSjp4mh4oOkS7VORYimIl2sqVhniMHVYe+9EQUnlEe7M6WKyu4fjcBuJK/N
yr+AR3GVrKnxXSNs9Uu0qeHEZvvlxKGfp1HReM0utD8u4oLzf8Sn9DHPdic/2y7S
bsNHI4KjSECMp8ET8GNQVEP2cRLhb6V6WCb3/Ys7cBigQ7oBa7P41b4FE2QxAgMB
AAGjggE2MIIBMjAJBgNVHRMEAjAAMB0GA1UdDgQWBBTMVRUA4kSJkmNtEF25nnO2
XToZyjCBxAYDVR0jBIG8MIG5gBSDxjqJLIH0AtedTOIqwHGCZETaDqGBnaSBmjCB
lzELMAkGA1UEBhMCVVMxEzARBgNVBAgMCldhc2hpbmd0b24xEDAOBgNVBAcMB1Nl
YXR0bGUxEDAOBgNVBAoMB3dvbGZTU0wxFDASBgNVBAsMC0VuZ2luZWVyaW5nMRgw
FgYDVQQDDA93b2xmU1NMIHJvb3QgQ0ExHzAdBgkqhkiG9w0BCQEWEGluZm9Ad29s
ZnNzbC5jb22CAQEwCwYDVR0PBAQDAgXgMDIGCCsGAQUFBwEBBCYwJDAiBggrBgEF
BQcwAYYWaHR0cDovL2xvY2FsaG9zdDoyMjIyMTANBgkqhkiG9w0BAQsFAAOCAQEA
gXeTezWcrwDKeutT0Fb5EXvra9Gs8rsa8rfRAlkEPEMJWmabBcmbPJjUOzDdioqX
+3cGIomzxhQ9AO9IlWlvdJJO8HD7etSE+SYAt/lZFPtW7bPqFN7WdqrE3RZ091oy
GB6r64A9L1z8KZb6YkQJvz75rCtuNmjx11ProUdTmWUpPyHizmRVN+BB0gqsG2qj
YtuWRi5nn0qPfV75Hyo25sArB/lj2VTnWwmGetx1lrxgKACZp4sXer2LBryfxLzX
yNXrpmDPDAezjL2HjBUS0ibqVu3UwIcQUH/2cNBy+/B1z8fCyQFqBWheei/g78FF
4DFSBdcSegZTgffoyxRCvQ==
-----END CERTIFICATE-----
Certificate:
    Data:
        Version: 3 (0x2)
        Serial Number: 1 (0x1)
    Signature Algorithm: sha256WithRSAEncryption
        Issuer: C=US, ST=Washington, L=Seattle, O=wolfSSL, OU=Engineering, CN=wolfSSL root CA/emailAddress=info@wolfssl.com
        Validity
            Not Before: Dec 14 22:25:23 2015 GMT
            Not After : Sep  9 22:25:23 2018 GMT
        Subject: C=US, ST=Washington, L=Seattle, O=wolfSSL, OU=Engineering, CN=wolfSSL intermediate CA/emailAddress=info@wolfssl.com
        Subject Public Key Info:
            Public Key Algorithm: rsaEncryption
                Public-Key: (2048 bit)
                Modulus:
                    00:de:b4:c8:5c:77:e0:2d:b1:f5:b9:ad:16:47:35:
                    a0:35:65:65:c6:e1:40:ab:1e:b4:b9:13:b7:cb:8c:
                    bb:77:a5:76:da:6d:87:87:f6:4a:4d:13:e4:26:3e:
                    27:87:ee:5b:c7:6a:3f:45:30:61:55:5c:f6:35:d1:
                    65:fa:98:11:a3:a7:55:d5:be:91:82:4b:fc:be:90:
                    d6:50:53:63:9a:2c:22:e1:35:11:dc:78:02:97:8a:
                    e4:46:92:9c:53:08:76:de:1f:53:b6:b8:ca:77:3e:
                    79:6e:bc:d0:e3:0d:30:5b:4c:f6:94:0d:30:29:64:
                    9f:04:e5:db:fb:89:60:67:bb:af:26:83:51:77:24:
                    2f:2b:0b:a1:94:81:10:98:e8:eb:26:a8:1e:7c:e4:
                    c4:6c:67:06:95:55:4a:dd:52:f4:f2:60:6d:01:2b:
                    19:91:35:6d:a4:08:47:06:71:24:00:d9:de:c6:56:
                    f3:8b:53:2c:e2:9a:96:a5:f3:62:e5:c4:e3:23:f2:
                    d2:fc:21:ea:0f:62:76:8d:d5:99:48:ce:dc:58:c4:
                    bb:7f:da:94:2c:80:74:83:c5:e0:b0:15:7e:41:fd:
                    0e:f2:f4:f0:78:76:7b:ad:26:0d:aa:48:96:17:2f:
                    21:e3:95:2b:26:37:f9:aa:80:2f:fe:de:f6:5e:bc:
                    97:7f
                Exponent: 65537 (0x10001)
        X509v3 extensions:
            X509v3 Basic Constraints: 
                CA:TRUE
            X509v3 Subject Key Identifier: 
                83:C6:3A:89:2C:81:F4:02:D7:9D:4C:E2:2A:C0:71:82:64:44:DA:0E
            X509v3 Authority Key Identifier: 
                keyid:73:B0:1C:A4:2F:82:CB:CF:47:A5:38:D7:B0:04:82:3A:7E:72:15:21
                DirName:/C=US/ST=Washington/L=Seattle/O=wolfSSL/OU=Engineering/CN=wolfSSL root CA/emailAddress=info@wolfssl.com
                serial:63

            X509v3 Key Usage: 
                Certificate Sign, CRL Sign
            Authority Information Access: 
                OCSP - URI:http://localhost:22220

    Signature Algorithm: sha256WithRSAEncryption
         1b:83:ce:ad:1e:50:0f:3c:f0:26:17:23:c1:d5:98:88:c8:bc:
         30:5b:bb:01:bd:9b:cc:b3:45:0b:a3:7b:30:0a:54:3f:c7:36:
         16:4b:8b:cb:dd:d1:b3:7b:00:40:48:24:cb:46:3b:e7:e0:5c:
         7b:ec:ca:f8:e0:e5:34:5d:ae:e7:ac:87:15:cd:6c:7e:13:52:
         28:84:55:2b:2a:14:d9:fa:34:ce:fb:15:6c:10:47:c9:e6:ed:
         35:5b:4c:97:9c:dd:51:46:ac:2c:60:b7:2e:9d:2f:cb:0d:83:
         86:f0:a6:1b:6d:26:cb:7f:c4:97:51:6c:a1:a3:8d:6e:be:41:
         4a:ec:b0:cf:b4:ae:ad:e4:65:57:12:5d:bf:a0:78:ce:bf:4b:
         35:fe:bb:94:7a:f1:43:7d:0f:01:45:eb:d1:53:8b:19:db:bf:
         3e:4a:26:77:a1:b5:06:2a:64:ec:53:ca:ec:93:23:a2:4e:6a:
         82:8f:11:f4:cd:5f:6c:6e:22:cd:e1:1c:76:ce:49:f7:ca:43:
         65:aa:f5:9e:e7:ad:eb:99:4f:ff:db:fe:b8:91:ef:2c:ea:92:
         5f:bf:08:78:c1:90:22:37:f3:7e:c3:5b:fc:31:f0:5b:83:65:
         00:d6:5a:55:3a:a2:a8:3f:02:e5:ae:7a:37:7b:3c:39:e7:91:
         4a:2e:53:04
-----BEGIN CERTIFICATE-----
MIIE7jCCA9agAwIBAgIBATANBgkqhkiG9w0BAQsFADCBlzELMAkGA1UEBhMCVVMx
EzARBgNVBAgMCldhc2hpbmd0b24xEDAOBgNVBAcMB1NlYXR0bGUxEDAOBgNVBAoM
B3dvbGZTU0wxFDASBgNVBAsMC0VuZ2luZWVyaW5nMRgwFgYDVQQDDA93b2xmU1NM
IHJvb3QgQ0ExHzAdBgkqhkiG9w0BCQEWEGluZm9Ad29sZnNzbC5jb20wHhcNMTUx
MjE0MjIyNTIzWhcNMTgwOTA5MjIyNTIzWjCBnzELMAkGA1UEBhMCVVMxEzARBgNV
BAgMCldhc2hpbmd0b24xEDAOBgNVBAcMB1NlYXR0bGUxEDAOBgNVBAoMB3dvbGZT
U0wxFDASBgNVBAsMC0VuZ2luZWVyaW5nMSAwHgYDVQQDDBd3b2xmU1NMIGludGVy
bWVkaWF0ZSBDQTEfMB0GCSqGSIb3DQEJARYQaW5mb0B3b2xmc3NsLmNvbTCCASIw
DQYJKoZIhvcNAQEBBQADggEPADCCAQoCggEBAN60yFx34C2x9bmtFkc1oDVlZcbh
QKsetLkTt8uMu3eldtpth4f2Sk0T5CY+J4fuW8dqP0UwYVVc9jXRZfqYEaOnVdW+
kYJL/L6Q1lBTY5osIuE1Edx4ApeK5EaSnFMIdt4fU7a4ync+eW680OMNMFtM9pQN
MClknwTl2/uJYGe7ryaDUXckLysLoZSBEJjo6yaoHnzkxGxnBpVVSt1S9PJgbQEr
GZE1baQIRwZxJADZ3sZW84tTLOKalqXzYuXE4yPy0vwh6g9ido3VmUjO3FjEu3/a
lCyAdIPF4LAVfkH9DvL08Hh2e60mDapIlhcvIeOVKyY3+aqAL/7e9l68l38CAwEA
AaOCATkwggE1MAwGA1UdEwQFMAMBAf8wHQYDVR0OBBYEFIPGOoksgfQC151M4irA
cYJkRNoOMIHEBgNVHSMEgbwwgbmAFHOwHKQvgsvPR6U417AEgjp+chUhoYGdpIGa
MIGXMQswCQYDVQQGEwJVUzETMBEGA1UECAwKV2FzaGluZ3RvbjEQMA4GA1UEBwwH
U2VhdHRsZTEQMA4GA1UECgwHd29sZlNTTDEUMBIGA1UECwwLRW5naW5lZXJpbmcx
GDAWBgNVBAMMD3dvbGZTU0wgcm9vdCBDQTEfMB0GCSqGSIb3DQEJARYQaW5mb0B3
b2xmc3NsLmNvbYIBYzALBgNVHQ8EBAMCAQYwMgYIKwYBBQUHAQEEJjAkMCIGCCsG
AQUFBzABhhZodHRwOi8vbG9jYWxob3N0OjIyMjIwMA0GCSqGSIb3DQEBCwUAA4IB
AQAbg86tHlAPPPAmFyPB1ZiIyLwwW7sBvZvMs0ULo3swClQ/xzYWS4vL3dGzewBA
SCTLRjvn4Fx77Mr44OU0Xa7nrIcVzWx+E1IohFUrKhTZ+jTO+xVsEEfJ5u01W0yX
nN1RRqwsYLcunS/LDYOG8KYbbSbLf8SXUWyho41uvkFK7LDPtK6t5GVXEl2/oHjO
v0s1/ruUevFDfQ8BRevRU4sZ278+SiZ3obUGKmTsU8rskyOiTmqCjxH0zV9sbiLN
4Rx2zkn3ykNlqvWe563rmU//2/64ke8s6pJfvwh4wZAiN/N+w1v8MfBbg2UA1lpV
OqKoPwLlrno3ezw555FKLlME
-----END CERTIFICATE-----
Certificate:
    Data:
        Version: 3 (0x2)
        Serial Number: 99 (0x63)
    Signature Algorithm: sha256WithRSAEncryption
        Issuer: C=US, ST=Washington, L=Seattle, O=wolfSSL, OU=Engineering, CN=wolfSSL root CA/emailAddress=info@wolfssl.com
        Validity
            Not Before: Dec 14 22:25:23 2015 GMT
            Not After : Sep  9 22:25:23 2018 GMT
        Subject: C=US, ST=Washington, L=Seattle, O=wolfSSL, OU=Engineering, CN=wolfSSL root CA/emailAddress=info@wolfssl.com
        Subject Public Key Info:
            Public Key Algorithm: rsaEncryption
                Public-Key: (2048 bit)
                Modulus:
                    00:ab:2c:b4:2f:1d:06:09:ef:4e:29:86:84:7e:cc:
                    bf:a6:79:7c:f0:c0:c1:64:25:8c:75:b7:10:05:ca:
                    48:27:0c:0e:32:1c:b0:fe:99:85:39:b6:b9:a2:f7:
                    27:ff:6d:3c:8c:16:73:29:21:7f:8b:a6:54:71:90:
                    ad:cc:05:b9:9f:15:c7:0a:3f:5f:69:f4:0a:5f:8c:
                    71:b5:2c:bf:66:e2:03:9a:32:f4:d2:ec:2a:89:4b:
                    f9:35:88:14:33:47:4e:2e:05:79:01:ed:64:36:76:
                    b9:f8:85:cd:01:88:ac:c5:b2:b1:59:b8:cd:5a:f4:
                    09:09:38:9b:da:5a:cf:ce:78:99:1f:49:3d:41:d6:
                    06:7c:52:99:c8:97:d1:b3:80:3a:a2:4f:36:c4:c5:
                    96:30:77:31:38:c8:70:cc:e1:67:06:b3:2b:2f:93:
                    b5:69:cf:83:7e:88:53:9b:0f:46:21:4c:d6:05:36:
                    44:99:60:68:47:e5:32:01:12:d4:10:73:ae:9a:34:
                    94:fa:6e:b8:58:4f:7b:5b:8a:92:97:ad:fd:97:b9:
                    75:ca:c2:d4:45:7d:17:6b:cd:2f:f3:63:7a:0e:30:
                    b5:0b:a9:d9:a6:7c:74:60:9d:cc:09:03:43:f1:0f:
                    90:d3:b7:fe:6c:9f:d9:cd:78:4b:15:ae:8c:5b:f9:
                    99:81
                Exponent: 65537 (0x10001)
        X509v3 extensions:
            X509v3 Basic Constraints: 
                CA:TRUE
            X509v3 Subject Key Identifier: 
                73:B0:1C:A4:2F:82:CB:CF:47:A5:38:D7:B0:04:82:3A:7E:72:15:21
            X509v3 Authority Key Identifier: 
                keyid:73:B0:1C:A4:2F:82:CB:CF:47:A5:38:D7:B0:04:82:3A:7E:72:15:21
                DirName:/C=US/ST=Washington/L=Seattle/O=wolfSSL/OU=Engineering/CN=wolfSSL root CA/emailAddress=info@wolfssl.com
                serial:63

            X509v3 Key Usage: 
                Certificate Sign, CRL Sign
            Authority Information Access: 
                OCSP - URI:http://localhost:22220

    Signature Algorithm: sha256WithRSAEncryption
         99:fc:b4:e2:1b:08:32:4b:8e:b3:fa:b4:08:53:f6:55:36:01:
         ec:25:89:80:64:60:31:3b:0c:a3:6f:be:73:f7:1a:12:d1:7e:
         3d:db:80:30:72:a8:26:63:35:80:81:b6:61:16:34:c0:fd:e6:
         f3:dd:a5:4a:dc:7e:85:87:57:5d:48:8e:09:46:89:89:f8:66:
         56:b5:7d:57:8e:d2:b7:77:3a:b7:51:15:97:fa:e9:d7:72:a5:
         e0:e6:51:9a:f3:d8:89:7d:2c:a5:bf:34:7b:d8:f4:2f:b5:4e:
         63:97:a7:5b:69:1a:e2:1c:d8:5f:ca:a8:61:79:dc:01:40:b7:
         43:09:a7:31:a2:dd:b2:c2:0d:98:06:41:c6:60:a7:25:21:cd:
         45:84:fb:34:c7:3b:74:ed:92:c9:d9:34:8e:dc:d5:43:9e:e4:
         60:ff:b1:d8:a0:5a:5d:7d:53:8e:62:e7:b3:8c:64:cf:42:0d:
         c6:e5:13:20:20:be:4b:60:5f:6f:f3:15:5b:9c:82:62:03:9f:
         94:d4:b2:8b:86:af:ed:3b:8f:20:68:4d:14:78:23:37:d7:aa:
         d9:5e:89:e5:80:7a:6b:a4:b8:63:6f:df:32:ad:cd:5e:5f:60:
         f8:e4:fc:3a:ce:67:e7:7a:3b:68:36:98:15:4c:05:f0:53:e7:
         d5:08:52:a3
-----BEGIN CERTIFICATE-----
MIIE5jCCA86gAwIBAgIBYzANBgkqhkiG9w0BAQsFADCBlzELMAkGA1UEBhMCVVMx
EzARBgNVBAgMCldhc2hpbmd0b24xEDAOBgNVBAcMB1NlYXR0bGUxEDAOBgNVBAoM
B3dvbGZTU0wxFDASBgNVBAsMC0VuZ2luZWVyaW5nMRgwFgYDVQQDDA93b2xmU1NM
IHJvb3QgQ0ExHzAdBgkqhkiG9w0BCQEWEGluZm9Ad29sZnNzbC5jb20wHhcNMTUx
MjE0MjIyNTIzWhcNMTgwOTA5MjIyNTIzWjCBlzELMAkGA1UEBhMCVVMxEzARBgNV
BAgMCldhc2hpbmd0b24xEDAOBgNVBAcMB1NlYXR0bGUxEDAOBgNVBAoMB3dvbGZT
U0wxFDASBgNVBAsMC0VuZ2luZWVyaW5nMRgwFgYDVQQDDA93b2xmU1NMIHJvb3Qg
Q0ExHzAdBgkqhkiG9w0BCQEWEGluZm9Ad29sZnNzbC5jb20wggEiMA0GCSqGSIb3
DQEBAQUAA4IBDwAwggEKAoIBAQCrLLQvHQYJ704phoR+zL+meXzwwMFkJYx1txAF
ykgnDA4yHLD+mYU5trmi9yf/bTyMFnMpIX+LplRxkK3MBbmfFccKP19p9ApfjHG1
LL9m4gOaMvTS7CqJS/k1iBQzR04uBXkB7WQ2drn4hc0BiKzFsrFZuM1a9AkJOJva
Ws/OeJkfST1B1gZ8UpnIl9GzgDqiTzbExZYwdzE4yHDM4WcGsysvk7Vpz4N+iFOb
D0YhTNYFNkSZYGhH5TIBEtQQc66aNJT6brhYT3tbipKXrf2XuXXKwtRFfRdrzS/z
Y3oOMLULqdmmfHRgncwJA0PxD5DTt/5sn9nNeEsVroxb+ZmBAgMBAAGjggE5MIIB
NTAMBgNVHRMEBTADAQH/MB0GA1UdDgQWBBRzsBykL4LLz0elONewBII6fnIVITCB
xAYDVR0jBIG8MIG5gBRzsBykL4LLz0elONewBII6fnIVIaGBnaSBmjCBlzELMAkG
A1UEBhMCVVMxEzARBgNVBAgMCldhc2hpbmd0b24xEDAOBgNVBAcMB1NlYXR0bGUx
EDAOBgNVBAoMB3dvbGZTU0wxFDASBgNVBAsMC0VuZ2luZWVyaW5nMRgwFgYDVQQD
DA93b2xmU1NMIHJvb3QgQ0ExHzAdBgkqhkiG9w0BCQEWEGluZm9Ad29sZnNzbC5j
b22CAWMwCwYDVR0PBAQDAgEGMDIGCCsGAQUFBwEBBCYwJDAiBggrBgEFBQcwAYYW
aHR0cDovL2xvY2FsaG9zdDoyMjIyMDANBgkqhkiG9w0BAQsFAAOCAQEAmfy04hsI
MkuOs/q0CFP2VTYB7CWJgGRgMTsMo2++c/caEtF+PduAMHKoJmM1gIG2YRY0wP3m
892lStx+hYdXXUiOCUaJifhmVrV9V47St3c6t1EVl/rp13Kl4OZRmvPYiX0spb80
e9j0L7VOY5enW2ka4hzYX8qoYXncAUC3QwmnMaLdssINmAZBxmCnJSHNRYT7NMc7
dO2Sydk0jtzVQ57kYP+x2KBaXX1TjmLns4xkz0INxuUTICC+S2Bfb/MVW5yCYgOf
lNSyi4av7TuPIGhNFHgjN9eq2V6J5YB6a6S4Y2/fMq3NXl9g+OT8Os5n53o7aDaY
FUwF8FPn1QhSow==
-----END CERTIFICATE-----
