Certificate:
    Data:
        Version: 3 (0x2)
        Serial Number: 7 (0x7)
        Signature Algorithm: sha256WithRSAEncryption
        Issuer: C = US, ST = Washington, L = Seattle, O = wolfSSL, OU = Engineering, CN = wolfSSL intermediate CA 2, emailAddress = info@wolfssl.com
        Validity
            Not Before: Sep 26 17:22:43 2023 GMT
            Not After : Jun 22 17:22:43 2026 GMT
        Subject: C = US, ST = Washington, L = Seattle, O = wolfSSL, OU = Engineering, CN = www3.wolfssl.com, emailAddress = info@wolfssl.com
        Subject Public Key Info:
            Public Key Algorithm: rsaEncryption
                Public-Key: (2048 bit)
                Modulus:
                    00:be:19:65:1e:17:39:d4:33:fc:97:64:69:80:51:
                    fb:6c:7c:ca:e1:ba:2a:ab:d2:dd:30:61:f3:2e:47:
                    c1:d4:33:c0:ff:53:21:ba:2d:14:a6:b9:7c:66:ca:
                    45:7b:1c:7d:8f:fc:75:f3:9a:69:f1:6c:25:46:a0:
                    92:5d:00:93:e3:22:a6:60:b9:97:05:37:7f:a1:aa:
                    cd:22:81:72:b1:22:47:3d:7c:8d:46:55:bc:32:4d:
                    d2:84:43:5c:15:43:07:22:70:36:39:93:1b:e8:a1:
                    46:bb:02:85:ba:1d:31:ac:b1:3c:84:5b:eb:8f:1f:
                    62:8a:71:52:9e:0b:63:b6:e6:d6:46:cc:19:06:d6:
                    bb:06:81:e4:0b:25:14:6c:63:94:70:1a:27:37:95:
                    24:40:07:30:f5:24:73:c3:bd:f9:0e:5f:b6:cd:4f:
                    18:88:f0:d7:a3:9b:f5:b0:1e:fe:04:03:a5:8d:73:
                    f7:6b:31:74:85:fd:61:fa:9e:53:37:75:90:e6:f8:
                    b5:98:66:e8:52:4d:4a:4c:39:05:65:c1:34:f9:c6:
                    95:27:b0:07:c1:51:96:a8:82:1b:22:cf:41:df:de:
                    b4:94:b7:0d:ba:61:fb:f4:40:7c:a1:fc:a2:29:a3:
                    47:4d:b4:94:9d:7b:51:ec:e4:13:fb:cd:e9:26:ca:
                    a7:93
                Exponent: 65537 (0x10001)
        X509v3 extensions:
            X509v3 Basic Constraints: 
                CA:FALSE
            X509v3 Subject Key Identifier: 
                C1:CD:C0:2C:34:F4:3B:BB:E3:CA:98:35:7D:6A:15:33:94:5C:11:3A
            X509v3 Authority Key Identifier: 
                keyid:05:D1:BA:86:00:A2:EE:2A:05:24:B7:11:AD:2D:60:F1:90:14:8F:17
                DirName:/C=US/ST=Washington/L=Seattle/O=wolfSSL/OU=Engineering/CN=wolfSSL root CA/emailAddress=info@wolfssl.com
                serial:02
            X509v3 Key Usage: 
                Digital Signature, Non Repudiation, Key Encipherment
            Authority Information Access: 
                OCSP - URI:http://127.0.0.1:22222
    Signature Algorithm: sha256WithRSAEncryption
    Signature Value:
        48:ea:81:04:ca:34:9b:22:9e:3d:e0:78:e7:b5:de:34:7e:aa:
        19:ba:76:4e:2b:f1:9b:8a:5d:8e:19:b0:b1:8a:de:c0:e8:5a:
        c1:00:37:ef:98:de:c6:68:2e:ce:04:70:9d:e2:cc:bb:47:29:
        69:20:11:e2:ef:a6:18:09:e5:0d:cc:cd:52:62:70:55:73:12:
        43:af:a0:96:38:3f:85:e4:ba:91:7b:21:a9:a4:97:97:6a:0b:
        68:59:1f:d4:16:13:e0:b0:2a:d2:58:3d:2a:a1:87:a8:2d:ca:
        3d:93:7d:20:fa:dc:c2:0b:51:52:4c:51:5e:70:28:28:16:a0:
        07:fa:20:eb:5a:3e:9b:cc:e9:97:fc:ce:19:c0:01:da:ec:3b:
        a6:f0:67:e4:9a:c9:82:dd:70:4d:30:38:72:39:44:ab:c7:2b:
        b8:36:30:b4:63:54:88:50:a1:d0:09:4d:20:5e:3c:1c:58:38:
        5f:28:e4:4b:2d:3c:99:e1:59:b6:aa:ba:29:bb:f6:f0:1e:16:
        28:0a:62:f9:52:8f:d6:24:a0:f1:84:2c:42:cd:fa:b2:42:77:
        2b:e2:25:ed:17:9a:32:23:21:2d:72:ab:a5:d6:74:7d:37:dc:
        2c:f3:56:40:6f:ed:88:f8:b6:94:9f:a7:fc:2f:7e:f2:6c:3e:
        0b:0f:01:6c
-----BEGIN CERTIFICATE-----
MIIE7jCCA9agAwIBAgIBBzANBgkqhkiG9w0BAQsFADCBoTELMAkGA1UEBhMCVVMx
EzARBgNVBAgMCldhc2hpbmd0b24xEDAOBgNVBAcMB1NlYXR0bGUxEDAOBgNVBAoM
B3dvbGZTU0wxFDASBgNVBAsMC0VuZ2luZWVyaW5nMSIwIAYDVQQDDBl3b2xmU1NM
IGludGVybWVkaWF0ZSBDQSAyMR8wHQYJKoZIhvcNAQkBFhBpbmZvQHdvbGZzc2wu
Y29tMB4XDTIzMDkyNjE3MjI0M1oXDTI2MDYyMjE3MjI0M1owgZgxCzAJBgNVBAYT
AlVTMRMwEQYDVQQIDApXYXNoaW5ndG9uMRAwDgYDVQQHDAdTZWF0dGxlMRAwDgYD
VQQKDAd3b2xmU1NMMRQwEgYDVQQLDAtFbmdpbmVlcmluZzEZMBcGA1UEAwwQd3d3
My53b2xmc3NsLmNvbTEfMB0GCSqGSIb3DQEJARYQaW5mb0B3b2xmc3NsLmNvbTCC
ASIwDQYJKoZIhvcNAQEBBQADggEPADCCAQoCggEBAL4ZZR4XOdQz/JdkaYBR+2x8
yuG6KqvS3TBh8y5HwdQzwP9TIbotFKa5fGbKRXscfY/8dfOaafFsJUagkl0Ak+Mi
pmC5lwU3f6GqzSKBcrEiRz18jUZVvDJN0oRDXBVDByJwNjmTG+ihRrsChbodMayx
PIRb648fYopxUp4LY7bm1kbMGQbWuwaB5AslFGxjlHAaJzeVJEAHMPUkc8O9+Q5f
ts1PGIjw16Ob9bAe/gQDpY1z92sxdIX9YfqeUzd1kOb4tZhm6FJNSkw5BWXBNPnG
lSewB8FRlqiCGyLPQd/etJS3Dbph+/RAfKH8oimjR020lJ17UezkE/vN6SbKp5MC
AwEAAaOCATYwggEyMAkGA1UdEwQCMAAwHQYDVR0OBBYEFMHNwCw09Du748qYNX1q
FTOUXBE6MIHEBgNVHSMEgbwwgbmAFAXRuoYAou4qBSS3Ea0tYPGQFI8XoYGdpIGa
MIGXMQswCQYDVQQGEwJVUzETMBEGA1UECAwKV2FzaGluZ3RvbjEQMA4GA1UEBwwH
U2VhdHRsZTEQMA4GA1UECgwHd29sZlNTTDEUMBIGA1UECwwLRW5naW5lZXJpbmcx
GDAWBgNVBAMMD3dvbGZTU0wgcm9vdCBDQTEfMB0GCSqGSIb3DQEJARYQaW5mb0B3
b2xmc3NsLmNvbYIBAjALBgNVHQ8EBAMCBeAwMgYIKwYBBQUHAQEEJjAkMCIGCCsG
AQUFBzABhhZodHRwOi8vMTI3LjAuMC4xOjIyMjIyMA0GCSqGSIb3DQEBCwUAA4IB
AQBI6oEEyjSbIp494Hjntd40fqoZunZOK/Gbil2OGbCxit7A6FrBADfvmN7GaC7O
BHCd4sy7RylpIBHi76YYCeUNzM1SYnBVcxJDr6CWOD+F5LqReyGppJeXagtoWR/U
FhPgsCrSWD0qoYeoLco9k30g+tzCC1FSTFFecCgoFqAH+iDrWj6bzOmX/M4ZwAHa
7Dum8GfkmsmC3XBNMDhyOUSrxyu4NjC0Y1SIUKHQCU0gXjwcWDhfKORLLTyZ4Vm2
qropu/bwHhYoCmL5Uo/WJKDxhCxCzfqyQncr4iXtF5oyIyEtcqul1nR9N9ws81ZA
b+2I+LaUn6f8L37ybD4LDwFs
-----END CERTIFICATE-----
Certificate:
    Data:
        Version: 3 (0x2)
        Serial Number: 2 (0x2)
        Signature Algorithm: sha256WithRSAEncryption
        Issuer: C = US, ST = Washington, L = Seattle, O = wolfSSL, OU = Engineering, CN = wolfSSL root CA, emailAddress = info@wolfssl.com
        Validity
            Not Before: Sep 26 17:22:43 2023 GMT
            Not After : Jun 22 17:22:43 2026 GMT
        Subject: C = US, ST = Washington, L = Seattle, O = wolfSSL, OU = Engineering, CN = wolfSSL intermediate CA 2, emailAddress = info@wolfssl.com
        Subject Public Key Info:
            Public Key Algorithm: rsaEncryption
                Public-Key: (2048 bit)
                Modulus:
                    00:d0:20:3c:35:19:6f:2c:44:b4:7e:42:c7:75:b4:
                    6a:2b:a9:23:85:bf:87:b4:ee:ca:d7:4b:1f:31:d7:
                    11:02:a1:ab:58:3d:fb:dc:51:ca:3a:1d:1f:95:a6:
                    56:82:f7:8f:ff:6b:50:bb:ea:10:e1:47:1d:35:77:
                    2e:4b:28:c5:53:46:23:2b:82:fd:5a:d3:f4:21:db:
                    0e:e0:f2:76:33:47:b3:00:be:3a:b1:23:98:53:eb:
                    ea:a0:de:1b:cc:05:4e:ee:63:a8:2c:93:24:d6:98:
                    78:74:03:e4:c8:89:43:61:f1:25:b8:cd:3b:87:c1:
                    31:25:fd:ba:4c:fc:29:94:45:9e:69:d7:67:0a:8a:
                    8e:d5:52:93:30:a2:0e:dd:6a:1c:b0:94:77:db:52:
                    52:b7:89:21:be:96:75:24:cb:e9:49:df:81:9d:9d:
                    f8:55:7d:01:2a:eb:78:03:12:e2:20:6e:db:63:35:
                    cd:a1:96:f0:f8:8c:20:35:69:87:01:ca:b4:54:36:
                    a0:15:e0:23:7d:b9:fb:be:99:05:50:f0:bf:ec:7f:
                    12:e1:3d:75:15:4e:c8:c2:30:e6:8b:fe:e5:8b:55:
                    f8:44:5e:e5:e3:56:e0:66:2d:6f:42:5a:45:6b:96:
                    aa:c7:5d:41:08:5f:ce:d7:dc:9f:20:e4:46:78:ff:
                    d9:99
                Exponent: 65537 (0x10001)
        X509v3 extensions:
            X509v3 Basic Constraints: 
                CA:TRUE
            X509v3 Subject Key Identifier: 
                05:D1:BA:86:00:A2:EE:2A:05:24:B7:11:AD:2D:60:F1:90:14:8F:17
            X509v3 Authority Key Identifier: 
                keyid:73:B0:1C:A4:2F:82:CB:CF:47:A5:38:D7:B0:04:82:3A:7E:72:15:21
                DirName:/C=US/ST=Washington/L=Seattle/O=wolfSSL/OU=Engineering/CN=wolfSSL root CA/emailAddress=info@wolfssl.com
                serial:63
            X509v3 Key Usage: 
                Certificate Sign, CRL Sign
            Authority Information Access: 
                OCSP - URI:http://127.0.0.1:22220
    Signature Algorithm: sha256WithRSAEncryption
    Signature Value:
        7d:7d:19:86:db:2a:e6:31:b1:1f:13:67:ed:35:b5:61:24:6f:
        47:68:35:c5:c9:6d:8f:a7:de:67:85:cf:27:a9:f8:88:b3:9f:
        ea:e0:59:58:82:cc:43:b0:d2:ff:7b:cc:77:f8:52:0c:a9:25:
        66:07:cf:08:43:99:ca:10:22:4f:27:3d:ce:81:45:7c:83:94:
        ed:e6:fe:bd:0c:5c:2d:9a:83:ae:21:f3:38:e2:43:a4:7d:77:
        62:0f:35:5a:10:cb:a5:7a:53:10:87:6b:96:a2:04:11:e9:30:
        86:93:76:72:77:a8:4d:38:07:cd:d5:7f:df:20:20:1e:a7:55:
        ca:ae:da:d5:c3:ee:73:dc:5b:9d:88:d4:f9:8f:ed:f9:f3:7b:
        b5:9b:7d:bc:8e:e1:2d:69:d5:be:be:50:d3:69:87:0c:ba:66:
        89:2e:1c:68:42:1b:2e:14:1e:83:0b:87:fa:36:21:22:5f:49:
        eb:3e:34:10:4a:fc:c2:ea:04:67:7e:0a:32:4a:8c:92:b3:ee:
        44:b1:8c:8f:d0:d8:8a:28:3c:f7:c9:9b:07:b8:69:4e:77:b1:
        c3:12:a3:77:de:58:ce:cb:af:ab:33:4a:e9:08:41:76:33:9e:
        02:91:8b:88:86:7c:d9:9d:c0:51:51:96:80:ce:af:c9:10:72:
        a3:8d:82:5a
-----BEGIN CERTIFICATE-----
MIIE8DCCA9igAwIBAgIBAjANBgkqhkiG9w0BAQsFADCBlzELMAkGA1UEBhMCVVMx
EzARBgNVBAgMCldhc2hpbmd0b24xEDAOBgNVBAcMB1NlYXR0bGUxEDAOBgNVBAoM
B3dvbGZTU0wxFDASBgNVBAsMC0VuZ2luZWVyaW5nMRgwFgYDVQQDDA93b2xmU1NM
IHJvb3QgQ0ExHzAdBgkqhkiG9w0BCQEWEGluZm9Ad29sZnNzbC5jb20wHhcNMjMw
OTI2MTcyMjQzWhcNMjYwNjIyMTcyMjQzWjCBoTELMAkGA1UEBhMCVVMxEzARBgNV
BAgMCldhc2hpbmd0b24xEDAOBgNVBAcMB1NlYXR0bGUxEDAOBgNVBAoMB3dvbGZT
U0wxFDASBgNVBAsMC0VuZ2luZWVyaW5nMSIwIAYDVQQDDBl3b2xmU1NMIGludGVy
bWVkaWF0ZSBDQSAyMR8wHQYJKoZIhvcNAQkBFhBpbmZvQHdvbGZzc2wuY29tMIIB
IjANBgkqhkiG9w0BAQEFAAOCAQ8AMIIBCgKCAQEA0CA8NRlvLES0fkLHdbRqK6kj
hb+HtO7K10sfMdcRAqGrWD373FHKOh0flaZWgveP/2tQu+oQ4UcdNXcuSyjFU0Yj
K4L9WtP0IdsO4PJ2M0ezAL46sSOYU+vqoN4bzAVO7mOoLJMk1ph4dAPkyIlDYfEl
uM07h8ExJf26TPwplEWeaddnCoqO1VKTMKIO3WocsJR321JSt4khvpZ1JMvpSd+B
nZ34VX0BKut4AxLiIG7bYzXNoZbw+IwgNWmHAcq0VDagFeAjfbn7vpkFUPC/7H8S
4T11FU7IwjDmi/7li1X4RF7l41bgZi1vQlpFa5aqx11BCF/O19yfIORGeP/ZmQID
AQABo4IBOTCCATUwDAYDVR0TBAUwAwEB/zAdBgNVHQ4EFgQUBdG6hgCi7ioFJLcR
rS1g8ZAUjxcwgcQGA1UdIwSBvDCBuYAUc7AcpC+Cy89HpTjXsASCOn5yFSGhgZ2k
gZowgZcxCzAJBgNVBAYTAlVTMRMwEQYDVQQIDApXYXNoaW5ndG9uMRAwDgYDVQQH
DAdTZWF0dGxlMRAwDgYDVQQKDAd3b2xmU1NMMRQwEgYDVQQLDAtFbmdpbmVlcmlu
ZzEYMBYGA1UEAwwPd29sZlNTTCByb290IENBMR8wHQYJKoZIhvcNAQkBFhBpbmZv
QHdvbGZzc2wuY29tggFjMAsGA1UdDwQEAwIBBjAyBggrBgEFBQcBAQQmMCQwIgYI
KwYBBQUHMAGGFmh0dHA6Ly8xMjcuMC4wLjE6MjIyMjAwDQYJKoZIhvcNAQELBQAD
ggEBAH19GYbbKuYxsR8TZ+01tWEkb0doNcXJbY+n3meFzyep+Iizn+rgWViCzEOw
0v97zHf4UgypJWYHzwhDmcoQIk8nPc6BRXyDlO3m/r0MXC2ag64h8zjiQ6R9d2IP
NVoQy6V6UxCHa5aiBBHpMIaTdnJ3qE04B83Vf98gIB6nVcqu2tXD7nPcW52I1PmP
7fnze7WbfbyO4S1p1b6+UNNphwy6ZokuHGhCGy4UHoMLh/o2ISJfSes+NBBK/MLq
BGd+CjJKjJKz7kSxjI/Q2IooPPfJmwe4aU53scMSo3feWM7Lr6szSukIQXYzngKR
i4iGfNmdwFFRloDOr8kQcqONglo=
-----END CERTIFICATE-----
Certificate:
    Data:
        Version: 3 (0x2)
        Serial Number: 99 (0x63)
        Signature Algorithm: sha256WithRSAEncryption
        Issuer: C = US, ST = Washington, L = Seattle, O = wolfSSL, OU = Engineering, CN = wolfSSL root CA, emailAddress = info@wolfssl.com
        Validity
            Not Before: Sep 26 17:22:43 2023 GMT
            Not After : Jun 22 17:22:43 2026 GMT
        Subject: C = US, ST = Washington, L = Seattle, O = wolfSSL, OU = Engineering, CN = wolfSSL root CA, emailAddress = info@wolfssl.com
        Subject Public Key Info:
            Public Key Algorithm: rsaEncryption
                Public-Key: (2048 bit)
                Modulus:
                    00:ab:2c:b4:2f:1d:06:09:ef:4e:29:86:84:7e:cc:
                    bf:a6:79:7c:f0:c0:c1:64:25:8c:75:b7:10:05:ca:
                    48:27:0c:0e:32:1c:b0:fe:99:85:39:b6:b9:a2:f7:
                    27:ff:6d:3c:8c:16:73:29:21:7f:8b:a6:54:71:90:
                    ad:cc:05:b9:9f:15:c7:0a:3f:5f:69:f4:0a:5f:8c:
                    71:b5:2c:bf:66:e2:03:9a:32:f4:d2:ec:2a:89:4b:
                    f9:35:88:14:33:47:4e:2e:05:79:01:ed:64:36:76:
                    b9:f8:85:cd:01:88:ac:c5:b2:b1:59:b8:cd:5a:f4:
                    09:09:38:9b:da:5a:cf:ce:78:99:1f:49:3d:41:d6:
                    06:7c:52:99:c8:97:d1:b3:80:3a:a2:4f:36:c4:c5:
                    96:30:77:31:38:c8:70:cc:e1:67:06:b3:2b:2f:93:
                    b5:69:cf:83:7e:88:53:9b:0f:46:21:4c:d6:05:36:
                    44:99:60:68:47:e5:32:01:12:d4:10:73:ae:9a:34:
                    94:fa:6e:b8:58:4f:7b:5b:8a:92:97:ad:fd:97:b9:
                    75:ca:c2:d4:45:7d:17:6b:cd:2f:f3:63:7a:0e:30:
                    b5:0b:a9:d9:a6:7c:74:60:9d:cc:09:03:43:f1:0f:
                    90:d3:b7:fe:6c:9f:d9:cd:78:4b:15:ae:8c:5b:f9:
                    99:81
                Exponent: 65537 (0x10001)
        X509v3 extensions:
            X509v3 Basic Constraints: 
                CA:TRUE
            X509v3 Subject Key Identifier: 
                73:B0:1C:A4:2F:82:CB:CF:47:A5:38:D7:B0:04:82:3A:7E:72:15:21
            X509v3 Authority Key Identifier: 
                keyid:73:B0:1C:A4:2F:82:CB:CF:47:A5:38:D7:B0:04:82:3A:7E:72:15:21
                DirName:/C=US/ST=Washington/L=Seattle/O=wolfSSL/OU=Engineering/CN=wolfSSL root CA/emailAddress=info@wolfssl.com
                serial:63
            X509v3 Key Usage: 
                Certificate Sign, CRL Sign
            Authority Information Access: 
                OCSP - URI:http://127.0.0.1:22220
    Signature Algorithm: sha256WithRSAEncryption
    Signature Value:
        35:d0:2c:d6:69:a1:b0:97:70:45:e0:95:4c:30:a6:06:fd:94:
        50:cd:bd:16:c0:01:7a:80:49:13:a2:9f:05:7a:de:de:57:e9:
        47:b8:ec:27:f0:3c:65:5f:f3:3c:18:78:a6:9f:b1:73:20:d9:
        17:d0:7c:63:19:d6:c0:aa:db:84:e5:99:6b:b0:77:90:6b:cb:
        ea:e0:1f:a0:5b:0f:3f:ad:ab:2c:ef:32:8a:3f:82:fc:3b:ff:
        97:67:ff:70:49:f8:7e:29:4d:07:4e:fe:52:e9:3a:82:d2:4c:
        94:d6:67:6e:fb:15:57:ff:23:e7:3f:94:4a:de:35:f3:07:0e:
        8e:6e:4f:84:e1:b0:bc:5f:b8:cb:9b:bc:02:05:2d:b1:a2:ab:
        fc:1e:d8:49:c6:31:40:c7:15:26:fc:27:87:e7:f3:d3:08:c0:
        64:52:24:a6:8a:55:d7:0d:a2:d3:6d:df:28:4e:5a:4c:98:2a:
        de:61:41:51:32:87:65:71:22:8f:6e:27:80:99:da:95:eb:eb:
        99:71:f9:8c:64:f0:c8:a7:7d:a0:fb:aa:60:d5:9c:b5:48:1b:
        7e:32:56:58:69:88:2d:72:0c:23:d6:52:76:af:64:ed:e6:23:
        bf:77:cc:a4:88:1e:0a:be:34:0e:95:b0:cf:4c:f5:12:4f:86:
        32:08:19:68
-----BEGIN CERTIFICATE-----
MIIE5jCCA86gAwIBAgIBYzANBgkqhkiG9w0BAQsFADCBlzELMAkGA1UEBhMCVVMx
EzARBgNVBAgMCldhc2hpbmd0b24xEDAOBgNVBAcMB1NlYXR0bGUxEDAOBgNVBAoM
B3dvbGZTU0wxFDASBgNVBAsMC0VuZ2luZWVyaW5nMRgwFgYDVQQDDA93b2xmU1NM
IHJvb3QgQ0ExHzAdBgkqhkiG9w0BCQEWEGluZm9Ad29sZnNzbC5jb20wHhcNMjMw
OTI2MTcyMjQzWhcNMjYwNjIyMTcyMjQzWjCBlzELMAkGA1UEBhMCVVMxEzARBgNV
BAgMCldhc2hpbmd0b24xEDAOBgNVBAcMB1NlYXR0bGUxEDAOBgNVBAoMB3dvbGZT
U0wxFDASBgNVBAsMC0VuZ2luZWVyaW5nMRgwFgYDVQQDDA93b2xmU1NMIHJvb3Qg
Q0ExHzAdBgkqhkiG9w0BCQEWEGluZm9Ad29sZnNzbC5jb20wggEiMA0GCSqGSIb3
DQEBAQUAA4IBDwAwggEKAoIBAQCrLLQvHQYJ704phoR+zL+meXzwwMFkJYx1txAF
ykgnDA4yHLD+mYU5trmi9yf/bTyMFnMpIX+LplRxkK3MBbmfFccKP19p9ApfjHG1
LL9m4gOaMvTS7CqJS/k1iBQzR04uBXkB7WQ2drn4hc0BiKzFsrFZuM1a9AkJOJva
Ws/OeJkfST1B1gZ8UpnIl9GzgDqiTzbExZYwdzE4yHDM4WcGsysvk7Vpz4N+iFOb
D0YhTNYFNkSZYGhH5TIBEtQQc66aNJT6brhYT3tbipKXrf2XuXXKwtRFfRdrzS/z
Y3oOMLULqdmmfHRgncwJA0PxD5DTt/5sn9nNeEsVroxb+ZmBAgMBAAGjggE5MIIB
NTAMBgNVHRMEBTADAQH/MB0GA1UdDgQWBBRzsBykL4LLz0elONewBII6fnIVITCB
xAYDVR0jBIG8MIG5gBRzsBykL4LLz0elONewBII6fnIVIaGBnaSBmjCBlzELMAkG
A1UEBhMCVVMxEzARBgNVBAgMCldhc2hpbmd0b24xEDAOBgNVBAcMB1NlYXR0bGUx
EDAOBgNVBAoMB3dvbGZTU0wxFDASBgNVBAsMC0VuZ2luZWVyaW5nMRgwFgYDVQQD
DA93b2xmU1NMIHJvb3QgQ0ExHzAdBgkqhkiG9w0BCQEWEGluZm9Ad29sZnNzbC5j
b22CAWMwCwYDVR0PBAQDAgEGMDIGCCsGAQUFBwEBBCYwJDAiBggrBgEFBQcwAYYW
aHR0cDovLzEyNy4wLjAuMToyMjIyMDANBgkqhkiG9w0BAQsFAAOCAQEANdAs1mmh
sJdwReCVTDCmBv2UUM29FsABeoBJE6KfBXre3lfpR7jsJ/A8ZV/zPBh4pp+xcyDZ
F9B8YxnWwKrbhOWZa7B3kGvL6uAfoFsPP62rLO8yij+C/Dv/l2f/cEn4filNB07+
Uuk6gtJMlNZnbvsVV/8j5z+USt418wcOjm5PhOGwvF+4y5u8AgUtsaKr/B7YScYx
QMcVJvwnh+fz0wjAZFIkpopV1w2i023fKE5aTJgq3mFBUTKHZXEij24ngJnalevr
mXH5jGTwyKd9oPuqYNWctUgbfjJWWGmILXIMI9ZSdq9k7eYjv3fMpIgeCr40DpWw
z0z1Ek+GMggZaA==
-----END CERTIFICATE-----
