Certificate:
    Data:
        Version: 3 (0x2)
        Serial Number: 8 (0x8)
    Signature Algorithm: sha256WithRSAEncryption
        Issuer: C=US, ST=Washington, L=Seattle, O=wolfSSL, OU=Engineering, CN=wolfSSL intermediate CA 2/emailAddress=info@wolfssl.com
        Validity
            Not Before: Dec 15 01:27:23 2015 GMT
            Not After : Sep 10 01:27:23 2018 GMT
        Subject: C=US, ST=Washington, L=Seattle, O=wolfSSL, OU=Engineering, CN=www4.wolfssl.com/emailAddress=info@wolfssl.com
        Subject Public Key Info:
            Public Key Algorithm: rsaEncryption
                Public-Key: (2048 bit)
                Modulus:
                    00:9c:ef:8a:7e:84:4d:58:7a:b1:91:c8:cb:68:76:
                    df:fe:0a:29:fe:7f:74:35:d5:c3:fd:43:be:d7:89:
                    fc:59:51:5a:30:e9:50:14:84:24:d0:c8:72:7d:d6:
                    75:42:12:8b:16:ad:5a:e8:d3:84:a7:07:2b:9e:12:
                    ef:6a:cd:3e:83:14:b7:26:a2:53:7b:3d:6c:96:7f:
                    9c:c5:09:08:0e:55:08:19:b7:5a:1c:46:32:09:da:
                    44:b2:ca:fd:4a:e4:be:d0:02:c9:c9:48:03:13:a5:
                    ad:3e:7b:21:cf:05:3a:b9:25:f5:c1:b8:4e:4d:eb:
                    33:99:d1:50:4a:eb:f7:1a:08:6b:d0:5c:9d:48:eb:
                    98:fd:dc:89:0f:aa:74:d3:7f:03:1b:59:65:f5:86:
                    e1:d9:53:ab:e4:53:ab:85:3c:79:8b:45:39:7b:fd:
                    e9:a2:10:b9:fa:92:71:0e:68:36:66:6e:8c:fb:e2:
                    8a:5d:5f:72:66:b0:47:2d:c5:b4:93:ce:61:7f:90:
                    1a:64:02:dd:57:9d:f1:f1:e8:75:21:e2:af:44:e3:
                    96:f5:1c:e3:73:87:dc:b7:05:12:ad:a5:8f:0c:d8:
                    2c:b4:90:b3:d9:e7:13:e1:e5:5e:4c:9b:24:89:08:
                    07:9e:aa:6b:9f:64:01:da:ec:95:05:45:84:d9:a9:
                    db:c7
                Exponent: 65537 (0x10001)
        X509v3 extensions:
            X509v3 Basic Constraints: 
                CA:FALSE
            X509v3 Subject Key Identifier: 
                9A:D6:EF:4E:0A:7B:8B:74:E6:14:EC:35:9A:05:2A:94:68:09:61:58
            X509v3 Authority Key Identifier: 
                keyid:05:D1:BA:86:00:A2:EE:2A:05:24:B7:11:AD:2D:60:F1:90:14:8F:17
                DirName:/C=US/ST=Washington/L=Seattle/O=wolfSSL/OU=Engineering/CN=wolfSSL root CA/emailAddress=info@wolfssl.com
                serial:02

            X509v3 Key Usage: 
                Digital Signature, Non Repudiation, Key Encipherment
            Authority Information Access: 
                OCSP - URI:http://localhost:22222

    Signature Algorithm: sha256WithRSAEncryption
         4e:d7:ac:3b:e2:2a:7c:2d:17:95:15:60:7d:d9:59:5f:53:9d:
         d7:e4:8d:cf:9d:34:db:ea:e9:6b:1d:8c:d4:6e:4b:df:53:30:
         3f:8e:5b:65:2e:e6:bb:7b:96:b1:2e:9b:65:fa:72:a8:eb:97:
         af:47:33:f5:ae:0b:9b:6f:d6:25:9e:60:e4:b2:e5:88:3b:64:
         26:8c:d4:8b:d5:4b:6b:85:23:c3:08:06:ca:b5:d3:88:f3:6b:
         19:be:16:c0:a6:a3:68:25:4b:68:a2:be:a0:38:51:7b:6f:7d:
         a7:74:5f:1a:57:cd:29:01:4c:33:e4:52:bf:b9:f9:52:4e:c5:
         a1:85:16:90:e3:c4:26:d7:b2:db:07:75:78:1f:90:99:db:cc:
         18:da:7d:58:af:52:e3:67:6a:8f:d2:33:f3:07:7f:da:09:24:
         54:03:cd:9a:ef:8f:15:f2:11:a9:42:71:d6:0b:6b:c8:76:f4:
         62:65:8c:d8:d3:10:19:af:34:9d:01:86:05:02:59:e8:4b:03:
         6d:06:0d:c4:98:38:b5:f2:85:65:29:74:2a:c2:c6:47:8b:e1:
         0e:d4:ee:9b:5d:a6:a5:55:8d:b0:e7:61:55:de:2e:30:50:cf:
         51:ba:c1:64:c0:3a:d0:55:73:fe:3c:79:e8:d7:33:0c:7e:a2:
         dc:df:45:ad
-----BEGIN CERTIFICATE-----
MIIE7jCCA9agAwIBAgIBCDANBgkqhkiG9w0BAQsFADCBoTELMAkGA1UEBhMCVVMx
EzARBgNVBAgMCldhc2hpbmd0b24xEDAOBgNVBAcMB1NlYXR0bGUxEDAOBgNVBAoM
B3dvbGZTU0wxFDASBgNVBAsMC0VuZ2luZWVyaW5nMSIwIAYDVQQDDBl3b2xmU1NM
IGludGVybWVkaWF0ZSBDQSAyMR8wHQYJKoZIhvcNAQkBFhBpbmZvQHdvbGZzc2wu
Y29tMB4XDTE1MTIxNTAxMjcyM1oXDTE4MDkxMDAxMjcyM1owgZgxCzAJBgNVBAYT
AlVTMRMwEQYDVQQIDApXYXNoaW5ndG9uMRAwDgYDVQQHDAdTZWF0dGxlMRAwDgYD
VQQKDAd3b2xmU1NMMRQwEgYDVQQLDAtFbmdpbmVlcmluZzEZMBcGA1UEAwwQd3d3
NC53b2xmc3NsLmNvbTEfMB0GCSqGSIb3DQEJARYQaW5mb0B3b2xmc3NsLmNvbTCC
ASIwDQYJKoZIhvcNAQEBBQADggEPADCCAQoCggEBAJzvin6ETVh6sZHIy2h23/4K
Kf5/dDXVw/1DvteJ/FlRWjDpUBSEJNDIcn3WdUISixatWujThKcHK54S72rNPoMU
tyaiU3s9bJZ/nMUJCA5VCBm3WhxGMgnaRLLK/UrkvtACyclIAxOlrT57Ic8FOrkl
9cG4Tk3rM5nRUErr9xoIa9BcnUjrmP3ciQ+qdNN/AxtZZfWG4dlTq+RTq4U8eYtF
OXv96aIQufqScQ5oNmZujPviil1fcmawRy3FtJPOYX+QGmQC3Ved8fHodSHir0Tj
lvUc43OH3LcFEq2ljwzYLLSQs9nnE+HlXkybJIkIB56qa59kAdrslQVFhNmp28cC
AwEAAaOCATYwggEyMAkGA1UdEwQCMAAwHQYDVR0OBBYEFJrW704Ke4t05hTsNZoF
KpRoCWFYMIHEBgNVHSMEgbwwgbmAFAXRuoYAou4qBSS3Ea0tYPGQFI8XoYGdpIGa
MIGXMQswCQYDVQQGEwJVUzETMBEGA1UECAwKV2FzaGluZ3RvbjEQMA4GA1UEBwwH
U2VhdHRsZTEQMA4GA1UECgwHd29sZlNTTDEUMBIGA1UECwwLRW5naW5lZXJpbmcx
GDAWBgNVBAMMD3dvbGZTU0wgcm9vdCBDQTEfMB0GCSqGSIb3DQEJARYQaW5mb0B3
b2xmc3NsLmNvbYIBAjALBgNVHQ8EBAMCBeAwMgYIKwYBBQUHAQEEJjAkMCIGCCsG
AQUFBzABhhZodHRwOi8vbG9jYWxob3N0OjIyMjIyMA0GCSqGSIb3DQEBCwUAA4IB
AQBO16w74ip8LReVFWB92VlfU53X5I3PnTTb6ulrHYzUbkvfUzA/jltlLua7e5ax
Lptl+nKo65evRzP1rgubb9YlnmDksuWIO2QmjNSL1UtrhSPDCAbKtdOI82sZvhbA
pqNoJUtoor6gOFF7b32ndF8aV80pAUwz5FK/uflSTsWhhRaQ48Qm17LbB3V4H5CZ
28wY2n1Yr1LjZ2qP0jPzB3/aCSRUA82a748V8hGpQnHWC2vIdvRiZYzY0xAZrzSd
AYYFAlnoSwNtBg3EmDi18oVlKXQqwsZHi+EO1O6bXaalVY2w52FV3i4wUM9RusFk
wDrQVXP+PHno1zMMfqLc30Wt
-----END CERTIFICATE-----
Certificate:
    Data:
        Version: 3 (0x2)
        Serial Number: 2 (0x2)
    Signature Algorithm: sha256WithRSAEncryption
        Issuer: C=US, ST=Washington, L=Seattle, O=wolfSSL, OU=Engineering, CN=wolfSSL root CA/emailAddress=info@wolfssl.com
        Validity
            Not Before: Dec 15 01:27:23 2015 GMT
            Not After : Sep 10 01:27:23 2018 GMT
        Subject: C=US, ST=Washington, L=Seattle, O=wolfSSL, OU=Engineering, CN=wolfSSL intermediate CA 2/emailAddress=info@wolfssl.com
        Subject Public Key Info:
            Public Key Algorithm: rsaEncryption
                Public-Key: (2048 bit)
                Modulus:
                    00:d0:20:3c:35:19:6f:2c:44:b4:7e:42:c7:75:b4:
                    6a:2b:a9:23:85:bf:87:b4:ee:ca:d7:4b:1f:31:d7:
                    11:02:a1:ab:58:3d:fb:dc:51:ca:3a:1d:1f:95:a6:
                    56:82:f7:8f:ff:6b:50:bb:ea:10:e1:47:1d:35:77:
                    2e:4b:28:c5:53:46:23:2b:82:fd:5a:d3:f4:21:db:
                    0e:e0:f2:76:33:47:b3:00:be:3a:b1:23:98:53:eb:
                    ea:a0:de:1b:cc:05:4e:ee:63:a8:2c:93:24:d6:98:
                    78:74:03:e4:c8:89:43:61:f1:25:b8:cd:3b:87:c1:
                    31:25:fd:ba:4c:fc:29:94:45:9e:69:d7:67:0a:8a:
                    8e:d5:52:93:30:a2:0e:dd:6a:1c:b0:94:77:db:52:
                    52:b7:89:21:be:96:75:24:cb:e9:49:df:81:9d:9d:
                    f8:55:7d:01:2a:eb:78:03:12:e2:20:6e:db:63:35:
                    cd:a1:96:f0:f8:8c:20:35:69:87:01:ca:b4:54:36:
                    a0:15:e0:23:7d:b9:fb:be:99:05:50:f0:bf:ec:7f:
                    12:e1:3d:75:15:4e:c8:c2:30:e6:8b:fe:e5:8b:55:
                    f8:44:5e:e5:e3:56:e0:66:2d:6f:42:5a:45:6b:96:
                    aa:c7:5d:41:08:5f:ce:d7:dc:9f:20:e4:46:78:ff:
                    d9:99
                Exponent: 65537 (0x10001)
        X509v3 extensions:
            X509v3 Basic Constraints: 
                CA:TRUE
            X509v3 Subject Key Identifier: 
                05:D1:BA:86:00:A2:EE:2A:05:24:B7:11:AD:2D:60:F1:90:14:8F:17
            X509v3 Authority Key Identifier: 
                keyid:73:B0:1C:A4:2F:82:CB:CF:47:A5:38:D7:B0:04:82:3A:7E:72:15:21
                DirName:/C=US/ST=Washington/L=Seattle/O=wolfSSL/OU=Engineering/CN=wolfSSL root CA/emailAddress=info@wolfssl.com
                serial:63

            X509v3 Key Usage: 
                Certificate Sign, CRL Sign
            Authority Information Access: 
                OCSP - URI:http://localhost:22220

    Signature Algorithm: sha256WithRSAEncryption
         6a:f5:af:1f:f7:43:ef:10:74:6d:1f:e5:2e:72:5f:d1:84:40:
         c8:60:79:b7:66:2e:46:39:bf:95:ca:fe:83:0a:8a:f4:52:6e:
         d2:d3:a5:54:7b:0c:29:35:a0:75:7a:e5:35:5d:99:0a:d9:13:
         ca:80:46:a0:a2:6d:d5:c4:ff:0c:d5:da:ec:54:86:df:ce:a7:
         92:1a:c7:f6:12:74:04:74:9f:06:39:82:b1:1e:af:47:de:b5:
         b7:21:c1:3b:22:27:e3:d0:3f:70:d3:27:1c:63:e0:01:12:80:
         20:e7:ac:6c:f0:8f:7a:72:54:8a:21:2d:0e:17:6c:9d:01:fd:
         42:96:e1:7a:d5:43:d5:65:9b:0b:7c:dd:b6:90:da:cc:3c:d7:
         7a:d3:e2:63:07:e3:96:a7:96:84:d6:0c:9e:31:e0:72:cd:91:
         54:cf:16:38:af:c8:23:04:ce:98:2c:61:11:28:70:d7:34:69:
         55:b7:e0:5b:87:a6:c4:a4:c5:bf:8f:e0:04:5d:e4:14:22:04:
         21:a1:9b:01:19:50:29:03:9d:81:be:e4:ba:4d:68:1c:2f:e4:
         e6:05:02:c2:e7:b4:ef:45:be:80:dc:a3:86:58:cf:02:cf:6a:
         69:8d:2b:69:69:cd:81:27:63:e8:2d:55:2a:00:de:0b:15:2c:
         53:95:72:29
-----BEGIN CERTIFICATE-----
MIIE8DCCA9igAwIBAgIBAjANBgkqhkiG9w0BAQsFADCBlzELMAkGA1UEBhMCVVMx
EzARBgNVBAgMCldhc2hpbmd0b24xEDAOBgNVBAcMB1NlYXR0bGUxEDAOBgNVBAoM
B3dvbGZTU0wxFDASBgNVBAsMC0VuZ2luZWVyaW5nMRgwFgYDVQQDDA93b2xmU1NM
IHJvb3QgQ0ExHzAdBgkqhkiG9w0BCQEWEGluZm9Ad29sZnNzbC5jb20wHhcNMTUx
MjE1MDEyNzIzWhcNMTgwOTEwMDEyNzIzWjCBoTELMAkGA1UEBhMCVVMxEzARBgNV
BAgMCldhc2hpbmd0b24xEDAOBgNVBAcMB1NlYXR0bGUxEDAOBgNVBAoMB3dvbGZT
U0wxFDASBgNVBAsMC0VuZ2luZWVyaW5nMSIwIAYDVQQDDBl3b2xmU1NMIGludGVy
bWVkaWF0ZSBDQSAyMR8wHQYJKoZIhvcNAQkBFhBpbmZvQHdvbGZzc2wuY29tMIIB
IjANBgkqhkiG9w0BAQEFAAOCAQ8AMIIBCgKCAQEA0CA8NRlvLES0fkLHdbRqK6kj
hb+HtO7K10sfMdcRAqGrWD373FHKOh0flaZWgveP/2tQu+oQ4UcdNXcuSyjFU0Yj
K4L9WtP0IdsO4PJ2M0ezAL46sSOYU+vqoN4bzAVO7mOoLJMk1ph4dAPkyIlDYfEl
uM07h8ExJf26TPwplEWeaddnCoqO1VKTMKIO3WocsJR321JSt4khvpZ1JMvpSd+B
nZ34VX0BKut4AxLiIG7bYzXNoZbw+IwgNWmHAcq0VDagFeAjfbn7vpkFUPC/7H8S
4T11FU7IwjDmi/7li1X4RF7l41bgZi1vQlpFa5aqx11BCF/O19yfIORGeP/ZmQID
AQABo4IBOTCCATUwDAYDVR0TBAUwAwEB/zAdBgNVHQ4EFgQUBdG6hgCi7ioFJLcR
rS1g8ZAUjxcwgcQGA1UdIwSBvDCBuYAUc7AcpC+Cy89HpTjXsASCOn5yFSGhgZ2k
gZowgZcxCzAJBgNVBAYTAlVTMRMwEQYDVQQIDApXYXNoaW5ndG9uMRAwDgYDVQQH
DAdTZWF0dGxlMRAwDgYDVQQKDAd3b2xmU1NMMRQwEgYDVQQLDAtFbmdpbmVlcmlu
ZzEYMBYGA1UEAwwPd29sZlNTTCByb290IENBMR8wHQYJKoZIhvcNAQkBFhBpbmZv
QHdvbGZzc2wuY29tggFjMAsGA1UdDwQEAwIBBjAyBggrBgEFBQcBAQQmMCQwIgYI
KwYBBQUHMAGGFmh0dHA6Ly9sb2NhbGhvc3Q6MjIyMjAwDQYJKoZIhvcNAQELBQAD
ggEBAGr1rx/3Q+8QdG0f5S5yX9GEQMhgebdmLkY5v5XK/oMKivRSbtLTpVR7DCk1
oHV65TVdmQrZE8qARqCibdXE/wzV2uxUht/Op5Iax/YSdAR0nwY5grEer0fetbch
wTsiJ+PQP3DTJxxj4AESgCDnrGzwj3pyVIohLQ4XbJ0B/UKW4XrVQ9Vlmwt83baQ
2sw813rT4mMH45anloTWDJ4x4HLNkVTPFjivyCMEzpgsYREocNc0aVW34FuHpsSk
xb+P4ARd5BQiBCGhmwEZUCkDnYG+5LpNaBwv5OYFAsLntO9FvoDco4ZYzwLPammN
K2lpzYEnY+gtVSoA3gsVLFOVcik=
-----END CERTIFICATE-----
Certificate:
    Data:
        Version: 3 (0x2)
        Serial Number: 99 (0x63)
    Signature Algorithm: sha256WithRSAEncryption
        Issuer: C=US, ST=Washington, L=Seattle, O=wolfSSL, OU=Engineering, CN=wolfSSL root CA/emailAddress=info@wolfssl.com
        Validity
            Not Before: Dec 15 01:27:23 2015 GMT
            Not After : Sep 10 01:27:23 2018 GMT
        Subject: C=US, ST=Washington, L=Seattle, O=wolfSSL, OU=Engineering, CN=wolfSSL root CA/emailAddress=info@wolfssl.com
        Subject Public Key Info:
            Public Key Algorithm: rsaEncryption
                Public-Key: (2048 bit)
                Modulus:
                    00:ab:2c:b4:2f:1d:06:09:ef:4e:29:86:84:7e:cc:
                    bf:a6:79:7c:f0:c0:c1:64:25:8c:75:b7:10:05:ca:
                    48:27:0c:0e:32:1c:b0:fe:99:85:39:b6:b9:a2:f7:
                    27:ff:6d:3c:8c:16:73:29:21:7f:8b:a6:54:71:90:
                    ad:cc:05:b9:9f:15:c7:0a:3f:5f:69:f4:0a:5f:8c:
                    71:b5:2c:bf:66:e2:03:9a:32:f4:d2:ec:2a:89:4b:
                    f9:35:88:14:33:47:4e:2e:05:79:01:ed:64:36:76:
                    b9:f8:85:cd:01:88:ac:c5:b2:b1:59:b8:cd:5a:f4:
                    09:09:38:9b:da:5a:cf:ce:78:99:1f:49:3d:41:d6:
                    06:7c:52:99:c8:97:d1:b3:80:3a:a2:4f:36:c4:c5:
                    96:30:77:31:38:c8:70:cc:e1:67:06:b3:2b:2f:93:
                    b5:69:cf:83:7e:88:53:9b:0f:46:21:4c:d6:05:36:
                    44:99:60:68:47:e5:32:01:12:d4:10:73:ae:9a:34:
                    94:fa:6e:b8:58:4f:7b:5b:8a:92:97:ad:fd:97:b9:
                    75:ca:c2:d4:45:7d:17:6b:cd:2f:f3:63:7a:0e:30:
                    b5:0b:a9:d9:a6:7c:74:60:9d:cc:09:03:43:f1:0f:
                    90:d3:b7:fe:6c:9f:d9:cd:78:4b:15:ae:8c:5b:f9:
                    99:81
                Exponent: 65537 (0x10001)
        X509v3 extensions:
            X509v3 Basic Constraints: 
                CA:TRUE
            X509v3 Subject Key Identifier: 
                73:B0:1C:A4:2F:82:CB:CF:47:A5:38:D7:B0:04:82:3A:7E:72:15:21
            X509v3 Authority Key Identifier: 
                keyid:73:B0:1C:A4:2F:82:CB:CF:47:A5:38:D7:B0:04:82:3A:7E:72:15:21
                DirName:/C=US/ST=Washington/L=Seattle/O=wolfSSL/OU=Engineering/CN=wolfSSL root CA/emailAddress=info@wolfssl.com
                serial:63

            X509v3 Key Usage: 
                Certificate Sign, CRL Sign
            Authority Information Access: 
                OCSP - URI:http://localhost:22220

    Signature Algorithm: sha256WithRSAEncryption
         5a:9d:7f:40:a7:10:51:e5:d7:b3:23:dd:e7:25:c2:bc:00:5a:
         d0:6e:cf:26:bb:c1:1d:38:89:ac:3c:0c:37:60:6c:aa:8a:54:
         6b:a4:44:79:d5:49:f5:13:ed:bc:00:4c:dd:ed:eb:2e:64:44:
         9c:4c:96:8a:6a:e6:f6:4d:0a:63:f0:f5:18:e3:5e:72:fc:5a:
         3f:1b:4c:27:eb:6e:57:9d:d5:8e:3d:ee:28:3f:1b:7b:e0:25:
         b9:0c:95:21:cd:bd:12:8f:4a:c4:b2:cc:80:da:b5:59:49:4d:
         32:d5:96:90:a0:ec:47:8c:15:0b:de:2a:22:be:d6:d4:d7:09:
         d1:85:48:4f:33:92:04:30:d1:d5:14:cb:bd:ab:96:06:93:18:
         62:ed:8f:29:f8:b6:66:06:a7:f1:3a:ae:15:62:36:90:89:de:
         41:41:f2:44:35:ea:4c:7b:fc:0b:6f:08:46:09:de:35:5f:e3:
         e6:f3:5a:08:70:a4:28:df:a6:c7:17:d1:c3:ec:70:09:c2:06:
         c7:12:29:b9:d6:d6:26:7d:2c:df:86:c7:4d:0a:c6:98:2b:61:
         14:b3:b3:29:8e:c1:85:18:db:fd:54:9d:fe:99:a9:90:d1:c6:
         08:2b:4f:6c:16:47:d9:16:fc:7b:0c:84:a7:15:b0:78:41:48:
         87:f5:98:78
-----BEGIN CERTIFICATE-----
MIIE5jCCA86gAwIBAgIBYzANBgkqhkiG9w0BAQsFADCBlzELMAkGA1UEBhMCVVMx
EzARBgNVBAgMCldhc2hpbmd0b24xEDAOBgNVBAcMB1NlYXR0bGUxEDAOBgNVBAoM
B3dvbGZTU0wxFDASBgNVBAsMC0VuZ2luZWVyaW5nMRgwFgYDVQQDDA93b2xmU1NM
IHJvb3QgQ0ExHzAdBgkqhkiG9w0BCQEWEGluZm9Ad29sZnNzbC5jb20wHhcNMTUx
MjE1MDEyNzIzWhcNMTgwOTEwMDEyNzIzWjCBlzELMAkGA1UEBhMCVVMxEzARBgNV
BAgMCldhc2hpbmd0b24xEDAOBgNVBAcMB1NlYXR0bGUxEDAOBgNVBAoMB3dvbGZT
U0wxFDASBgNVBAsMC0VuZ2luZWVyaW5nMRgwFgYDVQQDDA93b2xmU1NMIHJvb3Qg
Q0ExHzAdBgkqhkiG9w0BCQEWEGluZm9Ad29sZnNzbC5jb20wggEiMA0GCSqGSIb3
DQEBAQUAA4IBDwAwggEKAoIBAQCrLLQvHQYJ704phoR+zL+meXzwwMFkJYx1txAF
ykgnDA4yHLD+mYU5trmi9yf/bTyMFnMpIX+LplRxkK3MBbmfFccKP19p9ApfjHG1
LL9m4gOaMvTS7CqJS/k1iBQzR04uBXkB7WQ2drn4hc0BiKzFsrFZuM1a9AkJOJva
Ws/OeJkfST1B1gZ8UpnIl9GzgDqiTzbExZYwdzE4yHDM4WcGsysvk7Vpz4N+iFOb
D0YhTNYFNkSZYGhH5TIBEtQQc66aNJT6brhYT3tbipKXrf2XuXXKwtRFfRdrzS/z
Y3oOMLULqdmmfHRgncwJA0PxD5DTt/5sn9nNeEsVroxb+ZmBAgMBAAGjggE5MIIB
NTAMBgNVHRMEBTADAQH/MB0GA1UdDgQWBBRzsBykL4LLz0elONewBII6fnIVITCB
xAYDVR0jBIG8MIG5gBRzsBykL4LLz0elONewBII6fnIVIaGBnaSBmjCBlzELMAkG
A1UEBhMCVVMxEzARBgNVBAgMCldhc2hpbmd0b24xEDAOBgNVBAcMB1NlYXR0bGUx
EDAOBgNVBAoMB3dvbGZTU0wxFDASBgNVBAsMC0VuZ2luZWVyaW5nMRgwFgYDVQQD
DA93b2xmU1NMIHJvb3QgQ0ExHzAdBgkqhkiG9w0BCQEWEGluZm9Ad29sZnNzbC5j
b22CAWMwCwYDVR0PBAQDAgEGMDIGCCsGAQUFBwEBBCYwJDAiBggrBgEFBQcwAYYW
aHR0cDovL2xvY2FsaG9zdDoyMjIyMDANBgkqhkiG9w0BAQsFAAOCAQEAWp1/QKcQ
UeXXsyPd5yXCvABa0G7PJrvBHTiJrDwMN2BsqopUa6REedVJ9RPtvABM3e3rLmRE
nEyWimrm9k0KY/D1GONecvxaPxtMJ+tuV53Vjj3uKD8be+AluQyVIc29Eo9KxLLM
gNq1WUlNMtWWkKDsR4wVC94qIr7W1NcJ0YVITzOSBDDR1RTLvauWBpMYYu2PKfi2
Zgan8TquFWI2kIneQUHyRDXqTHv8C28IRgneNV/j5vNaCHCkKN+mxxfRw+xwCcIG
xxIpudbWJn0s34bHTQrGmCthFLOzKY7BhRjb/VSd/pmpkNHGCCtPbBZH2Rb8ewyE
pxWweEFIh/WYeA==
-----END CERTIFICATE-----
