Certificate:
    Data:
        Version: 3 (0x2)
        Serial Number: 5 (0x5)
    Signature Algorithm: sha256WithRSAEncryption
        Issuer: C=US, ST=Washington, L=Seattle, O=wolfSSL, OU=Engineering, CN=wolfSSL intermediate CA 1/emailAddress=info@wolfssl.com
        Validity
            Not Before: Feb 10 19:49:54 2021 GMT
            Not After : Nov  7 19:49:54 2023 GMT
        Subject: C=US, ST=Washington, L=Seattle, O=wolfSSL, OU=Engineering, CN=www1.wolfssl.com/emailAddress=info@wolfssl.com
        Subject Public Key Info:
            Public Key Algorithm: rsaEncryption
                Public-Key: (2048 bit)
                Modulus:
                    00:e6:96:55:75:cf:8a:97:68:8c:b6:38:f6:7a:05:
                    be:33:b6:51:47:37:8a:f7:db:91:be:92:6b:b7:00:
                    8c:f2:c5:24:6e:18:e9:92:00:81:01:dc:b3:4c:28:
                    a9:b7:80:f1:96:cf:23:7a:2f:ae:f8:e3:0f:2d:d3:
                    5e:23:e7:db:4c:b2:5d:89:16:17:be:be:81:db:fb:
                    12:6d:28:4b:10:a0:12:04:27:c1:c9:d0:79:95:ef:
                    e8:8d:8c:59:9b:4e:72:7d:bc:49:2b:22:4e:f8:4f:
                    e2:0c:f1:e9:e9:97:f9:df:8c:5a:0a:aa:38:1d:43:
                    04:a3:a7:89:a1:e2:83:a4:4b:b5:4e:45:88:a6:22:
                    5d:ac:a9:58:67:88:c1:d5:61:ef:bd:11:05:27:94:
                    47:bb:33:a5:8a:ca:ee:1f:8d:c0:6e:24:af:cd:ca:
                    bf:80:47:71:95:ac:a9:f1:5d:23:6c:f5:4b:b4:a9:
                    e1:c4:66:fb:e5:c4:a1:9f:a7:51:d1:78:cd:2e:b4:
                    3f:2e:e2:82:f3:7f:c4:a7:f4:31:cf:76:27:3f:db:
                    2e:d2:6e:c3:47:23:82:a3:48:40:8c:a7:c1:13:f0:
                    63:50:54:43:f6:71:12:e1:6f:a5:7a:58:26:f7:fd:
                    8b:3b:70:18:a0:43:ba:01:6b:b3:f8:d5:be:05:13:
                    64:31
                Exponent: 65537 (0x10001)
        X509v3 extensions:
            X509v3 Basic Constraints: 
                CA:FALSE
            X509v3 Subject Key Identifier: 
                CC:55:15:00:E2:44:89:92:63:6D:10:5D:B9:9E:73:B6:5D:3A:19:CA
            X509v3 Authority Key Identifier: 
                keyid:83:C6:3A:89:2C:81:F4:02:D7:9D:4C:E2:2A:C0:71:82:64:44:DA:0E
                DirName:/C=US/ST=Washington/L=Seattle/O=wolfSSL/OU=Engineering/CN=wolfSSL root CA/emailAddress=info@wolfssl.com
                serial:01

            X509v3 Key Usage: 
                Digital Signature, Non Repudiation, Key Encipherment
            Authority Information Access: 
                OCSP - URI:http://127.0.0.1:22221

    Signature Algorithm: sha256WithRSAEncryption
         78:2e:01:bd:b4:60:d9:68:ab:4d:47:a1:a2:97:00:5d:46:44:
         6f:4f:d0:7c:23:ff:52:36:28:b5:72:1c:40:8c:16:1b:a1:4d:
         d5:1a:0d:92:48:57:7d:5f:11:b6:07:1d:b1:c5:47:82:f1:16:
         57:49:10:78:12:ef:16:86:8b:97:52:3a:5b:9d:58:4d:df:df:
         e1:a0:9c:8b:8b:31:75:9c:81:0f:87:7c:13:c6:1d:e9:5d:d0:
         c1:1e:b0:70:e5:b0:8f:cd:57:bc:3e:68:49:58:23:da:b8:ed:
         10:c3:ae:5c:d1:85:b3:8d:85:5c:ec:01:a1:6a:4a:e1:bd:d8:
         16:98:2f:a6:7c:a1:cb:57:11:d0:9a:50:8e:dc:1c:67:e2:9f:
         a5:96:f7:51:52:d1:76:be:5b:c9:e2:af:e6:cb:df:00:64:44:
         fb:ef:96:ae:3f:6d:d9:85:39:fc:86:42:a4:52:34:3e:a6:96:
         0e:c9:34:28:11:77:1e:ac:e5:78:5f:96:e7:8c:78:b8:db:dd:
         f7:ca:c6:68:c7:1b:b1:70:eb:6d:51:fd:6d:93:60:e4:18:ff:
         c8:84:92:ad:f5:f0:a5:ea:f2:80:42:c9:a7:e0:ef:bf:b8:98:
         b6:3a:91:86:40:4c:d1:90:e5:8d:57:0f:98:b0:ce:d9:a9:e2:
         29:9d:a8:2a
-----BEGIN CERTIFICATE-----
MIIE7jCCA9agAwIBAgIBBTANBgkqhkiG9w0BAQsFADCBoTELMAkGA1UEBhMCVVMx
EzARBgNVBAgMCldhc2hpbmd0b24xEDAOBgNVBAcMB1NlYXR0bGUxEDAOBgNVBAoM
B3dvbGZTU0wxFDASBgNVBAsMC0VuZ2luZWVyaW5nMSIwIAYDVQQDDBl3b2xmU1NM
IGludGVybWVkaWF0ZSBDQSAxMR8wHQYJKoZIhvcNAQkBFhBpbmZvQHdvbGZzc2wu
Y29tMB4XDTIxMDIxMDE5NDk1NFoXDTIzMTEwNzE5NDk1NFowgZgxCzAJBgNVBAYT
AlVTMRMwEQYDVQQIDApXYXNoaW5ndG9uMRAwDgYDVQQHDAdTZWF0dGxlMRAwDgYD
VQQKDAd3b2xmU1NMMRQwEgYDVQQLDAtFbmdpbmVlcmluZzEZMBcGA1UEAwwQd3d3
MS53b2xmc3NsLmNvbTEfMB0GCSqGSIb3DQEJARYQaW5mb0B3b2xmc3NsLmNvbTCC
ASIwDQYJKoZIhvcNAQEBBQADggEPADCCAQoCggEBAOaWVXXPipdojLY49noFvjO2
UUc3ivfbkb6Sa7cAjPLFJG4Y6ZIAgQHcs0woqbeA8ZbPI3ovrvjjDy3TXiPn20yy
XYkWF76+gdv7Em0oSxCgEgQnwcnQeZXv6I2MWZtOcn28SSsiTvhP4gzx6emX+d+M
WgqqOB1DBKOniaHig6RLtU5FiKYiXaypWGeIwdVh770RBSeUR7szpYrK7h+NwG4k
r83Kv4BHcZWsqfFdI2z1S7Sp4cRm++XEoZ+nUdF4zS60Py7igvN/xKf0Mc92Jz/b
LtJuw0cjgqNIQIynwRPwY1BUQ/ZxEuFvpXpYJvf9iztwGKBDugFrs/jVvgUTZDEC
AwEAAaOCATYwggEyMAkGA1UdEwQCMAAwHQYDVR0OBBYEFMxVFQDiRImSY20QXbme
c7ZdOhnKMIHEBgNVHSMEgbwwgbmAFIPGOoksgfQC151M4irAcYJkRNoOoYGdpIGa
MIGXMQswCQYDVQQGEwJVUzETMBEGA1UECAwKV2FzaGluZ3RvbjEQMA4GA1UEBwwH
U2VhdHRsZTEQMA4GA1UECgwHd29sZlNTTDEUMBIGA1UECwwLRW5naW5lZXJpbmcx
GDAWBgNVBAMMD3dvbGZTU0wgcm9vdCBDQTEfMB0GCSqGSIb3DQEJARYQaW5mb0B3
b2xmc3NsLmNvbYIBATALBgNVHQ8EBAMCBeAwMgYIKwYBBQUHAQEEJjAkMCIGCCsG
AQUFBzABhhZodHRwOi8vMTI3LjAuMC4xOjIyMjIxMA0GCSqGSIb3DQEBCwUAA4IB
AQB4LgG9tGDZaKtNR6GilwBdRkRvT9B8I/9SNii1chxAjBYboU3VGg2SSFd9XxG2
Bx2xxUeC8RZXSRB4Eu8WhouXUjpbnVhN39/hoJyLizF1nIEPh3wTxh3pXdDBHrBw
5bCPzVe8PmhJWCPauO0Qw65c0YWzjYVc7AGhakrhvdgWmC+mfKHLVxHQmlCO3Bxn
4p+llvdRUtF2vlvJ4q/my98AZET775auP23ZhTn8hkKkUjQ+ppYOyTQoEXcerOV4
X5bnjHi42933ysZoxxuxcOttUf1tk2DkGP/IhJKt9fCl6vKAQsmn4O+/uJi2OpGG
QEzRkOWNVw+YsM7ZqeIpnagq
-----END CERTIFICATE-----
Certificate:
    Data:
        Version: 3 (0x2)
        Serial Number: 1 (0x1)
    Signature Algorithm: sha256WithRSAEncryption
        Issuer: C=US, ST=Washington, L=Seattle, O=wolfSSL, OU=Engineering, CN=wolfSSL root CA/emailAddress=info@wolfssl.com
        Validity
            Not Before: Feb 10 19:49:53 2021 GMT
            Not After : Nov  7 19:49:53 2023 GMT
        Subject: C=US, ST=Washington, L=Seattle, O=wolfSSL, OU=Engineering, CN=wolfSSL intermediate CA 1/emailAddress=info@wolfssl.com
        Subject Public Key Info:
            Public Key Algorithm: rsaEncryption
                Public-Key: (2048 bit)
                Modulus:
                    00:de:b4:c8:5c:77:e0:2d:b1:f5:b9:ad:16:47:35:
                    a0:35:65:65:c6:e1:40:ab:1e:b4:b9:13:b7:cb:8c:
                    bb:77:a5:76:da:6d:87:87:f6:4a:4d:13:e4:26:3e:
                    27:87:ee:5b:c7:6a:3f:45:30:61:55:5c:f6:35:d1:
                    65:fa:98:11:a3:a7:55:d5:be:91:82:4b:fc:be:90:
                    d6:50:53:63:9a:2c:22:e1:35:11:dc:78:02:97:8a:
                    e4:46:92:9c:53:08:76:de:1f:53:b6:b8:ca:77:3e:
                    79:6e:bc:d0:e3:0d:30:5b:4c:f6:94:0d:30:29:64:
                    9f:04:e5:db:fb:89:60:67:bb:af:26:83:51:77:24:
                    2f:2b:0b:a1:94:81:10:98:e8:eb:26:a8:1e:7c:e4:
                    c4:6c:67:06:95:55:4a:dd:52:f4:f2:60:6d:01:2b:
                    19:91:35:6d:a4:08:47:06:71:24:00:d9:de:c6:56:
                    f3:8b:53:2c:e2:9a:96:a5:f3:62:e5:c4:e3:23:f2:
                    d2:fc:21:ea:0f:62:76:8d:d5:99:48:ce:dc:58:c4:
                    bb:7f:da:94:2c:80:74:83:c5:e0:b0:15:7e:41:fd:
                    0e:f2:f4:f0:78:76:7b:ad:26:0d:aa:48:96:17:2f:
                    21:e3:95:2b:26:37:f9:aa:80:2f:fe:de:f6:5e:bc:
                    97:7f
                Exponent: 65537 (0x10001)
        X509v3 extensions:
            X509v3 Basic Constraints: 
                CA:TRUE
            X509v3 Subject Key Identifier: 
                83:C6:3A:89:2C:81:F4:02:D7:9D:4C:E2:2A:C0:71:82:64:44:DA:0E
            X509v3 Authority Key Identifier: 
                keyid:73:B0:1C:A4:2F:82:CB:CF:47:A5:38:D7:B0:04:82:3A:7E:72:15:21
                DirName:/C=US/ST=Washington/L=Seattle/O=wolfSSL/OU=Engineering/CN=wolfSSL root CA/emailAddress=info@wolfssl.com
                serial:63

            X509v3 Key Usage: 
                Certificate Sign, CRL Sign
            Authority Information Access: 
                OCSP - URI:http://127.0.0.1:22220

    Signature Algorithm: sha256WithRSAEncryption
         1e:8f:fa:f5:32:ee:98:9e:ed:96:b4:a9:ea:d7:3c:05:74:36:
         41:ef:1b:84:35:6a:3d:6c:c9:53:2a:50:f7:d1:80:d3:ec:99:
         bc:4b:dd:86:69:e0:94:1c:c4:77:c9:6a:f7:ed:2c:0d:c5:17:
         a7:15:75:25:14:2d:c6:14:8d:17:97:6d:e7:d7:38:88:d6:df:
         ba:8c:aa:2a:f1:4e:ef:1f:4a:16:5a:fa:0c:50:ea:98:b1:4b:
         36:97:24:21:ce:dc:e4:5c:ba:ae:e7:cb:2a:1d:f7:73:ff:17:
         f3:9d:cf:26:4e:b7:cb:5c:8e:e4:9e:55:d2:00:f8:ca:53:c3:
         53:3f:6d:65:aa:86:f4:f1:ed:26:1e:75:56:be:bd:80:f5:1c:
         4e:4d:13:c3:1b:04:61:b9:c6:e2:6f:30:44:01:0e:63:d8:19:
         ce:83:40:e9:c7:01:f2:51:d7:b7:cd:16:25:93:de:3e:7a:7d:
         8d:72:1e:2b:66:76:91:df:b9:33:fa:04:b8:8c:c5:7a:ef:f6:
         94:74:54:1e:96:4a:a8:f6:0d:59:f7:2f:f1:26:78:f6:c7:bf:
         68:f9:b0:7f:a5:2d:1c:7b:fc:64:25:ed:a4:bb:e6:31:44:f9:
         d5:5f:67:4d:01:29:84:b2:f8:fa:fb:6b:52:1e:66:c3:08:6b:
         8e:d5:ad:b9
-----BEGIN CERTIFICATE-----
MIIE8DCCA9igAwIBAgIBATANBgkqhkiG9w0BAQsFADCBlzELMAkGA1UEBhMCVVMx
EzARBgNVBAgMCldhc2hpbmd0b24xEDAOBgNVBAcMB1NlYXR0bGUxEDAOBgNVBAoM
B3dvbGZTU0wxFDASBgNVBAsMC0VuZ2luZWVyaW5nMRgwFgYDVQQDDA93b2xmU1NM
IHJvb3QgQ0ExHzAdBgkqhkiG9w0BCQEWEGluZm9Ad29sZnNzbC5jb20wHhcNMjEw
MjEwMTk0OTUzWhcNMjMxMTA3MTk0OTUzWjCBoTELMAkGA1UEBhMCVVMxEzARBgNV
BAgMCldhc2hpbmd0b24xEDAOBgNVBAcMB1NlYXR0bGUxEDAOBgNVBAoMB3dvbGZT
U0wxFDASBgNVBAsMC0VuZ2luZWVyaW5nMSIwIAYDVQQDDBl3b2xmU1NMIGludGVy
bWVkaWF0ZSBDQSAxMR8wHQYJKoZIhvcNAQkBFhBpbmZvQHdvbGZzc2wuY29tMIIB
IjANBgkqhkiG9w0BAQEFAAOCAQ8AMIIBCgKCAQEA3rTIXHfgLbH1ua0WRzWgNWVl
xuFAqx60uRO3y4y7d6V22m2Hh/ZKTRPkJj4nh+5bx2o/RTBhVVz2NdFl+pgRo6dV
1b6Rgkv8vpDWUFNjmiwi4TUR3HgCl4rkRpKcUwh23h9TtrjKdz55brzQ4w0wW0z2
lA0wKWSfBOXb+4lgZ7uvJoNRdyQvKwuhlIEQmOjrJqgefOTEbGcGlVVK3VL08mBt
ASsZkTVtpAhHBnEkANnexlbzi1Ms4pqWpfNi5cTjI/LS/CHqD2J2jdWZSM7cWMS7
f9qULIB0g8XgsBV+Qf0O8vTweHZ7rSYNqkiWFy8h45UrJjf5qoAv/t72XryXfwID
AQABo4IBOTCCATUwDAYDVR0TBAUwAwEB/zAdBgNVHQ4EFgQUg8Y6iSyB9ALXnUzi
KsBxgmRE2g4wgcQGA1UdIwSBvDCBuYAUc7AcpC+Cy89HpTjXsASCOn5yFSGhgZ2k
gZowgZcxCzAJBgNVBAYTAlVTMRMwEQYDVQQIDApXYXNoaW5ndG9uMRAwDgYDVQQH
DAdTZWF0dGxlMRAwDgYDVQQKDAd3b2xmU1NMMRQwEgYDVQQLDAtFbmdpbmVlcmlu
ZzEYMBYGA1UEAwwPd29sZlNTTCByb290IENBMR8wHQYJKoZIhvcNAQkBFhBpbmZv
QHdvbGZzc2wuY29tggFjMAsGA1UdDwQEAwIBBjAyBggrBgEFBQcBAQQmMCQwIgYI
KwYBBQUHMAGGFmh0dHA6Ly8xMjcuMC4wLjE6MjIyMjAwDQYJKoZIhvcNAQELBQAD
ggEBAB6P+vUy7pie7Za0qerXPAV0NkHvG4Q1aj1syVMqUPfRgNPsmbxL3YZp4JQc
xHfJavftLA3FF6cVdSUULcYUjReXbefXOIjW37qMqirxTu8fShZa+gxQ6pixSzaX
JCHO3ORcuq7nyyod93P/F/OdzyZOt8tcjuSeVdIA+MpTw1M/bWWqhvTx7SYedVa+
vYD1HE5NE8MbBGG5xuJvMEQBDmPYGc6DQOnHAfJR17fNFiWT3j56fY1yHitmdpHf
uTP6BLiMxXrv9pR0VB6WSqj2DVn3L/EmePbHv2j5sH+lLRx7/GQl7aS75jFE+dVf
Z00BKYSy+Pr7a1IeZsMIa47Vrbk=
-----END CERTIFICATE-----
Certificate:
    Data:
        Version: 3 (0x2)
        Serial Number: 99 (0x63)
    Signature Algorithm: sha256WithRSAEncryption
        Issuer: C=US, ST=Washington, L=Seattle, O=wolfSSL, OU=Engineering, CN=wolfSSL root CA/emailAddress=info@wolfssl.com
        Validity
            Not Before: Feb 10 19:49:53 2021 GMT
            Not After : Nov  7 19:49:53 2023 GMT
        Subject: C=US, ST=Washington, L=Seattle, O=wolfSSL, OU=Engineering, CN=wolfSSL root CA/emailAddress=info@wolfssl.com
        Subject Public Key Info:
            Public Key Algorithm: rsaEncryption
                Public-Key: (2048 bit)
                Modulus:
                    00:ab:2c:b4:2f:1d:06:09:ef:4e:29:86:84:7e:cc:
                    bf:a6:79:7c:f0:c0:c1:64:25:8c:75:b7:10:05:ca:
                    48:27:0c:0e:32:1c:b0:fe:99:85:39:b6:b9:a2:f7:
                    27:ff:6d:3c:8c:16:73:29:21:7f:8b:a6:54:71:90:
                    ad:cc:05:b9:9f:15:c7:0a:3f:5f:69:f4:0a:5f:8c:
                    71:b5:2c:bf:66:e2:03:9a:32:f4:d2:ec:2a:89:4b:
                    f9:35:88:14:33:47:4e:2e:05:79:01:ed:64:36:76:
                    b9:f8:85:cd:01:88:ac:c5:b2:b1:59:b8:cd:5a:f4:
                    09:09:38:9b:da:5a:cf:ce:78:99:1f:49:3d:41:d6:
                    06:7c:52:99:c8:97:d1:b3:80:3a:a2:4f:36:c4:c5:
                    96:30:77:31:38:c8:70:cc:e1:67:06:b3:2b:2f:93:
                    b5:69:cf:83:7e:88:53:9b:0f:46:21:4c:d6:05:36:
                    44:99:60:68:47:e5:32:01:12:d4:10:73:ae:9a:34:
                    94:fa:6e:b8:58:4f:7b:5b:8a:92:97:ad:fd:97:b9:
                    75:ca:c2:d4:45:7d:17:6b:cd:2f:f3:63:7a:0e:30:
                    b5:0b:a9:d9:a6:7c:74:60:9d:cc:09:03:43:f1:0f:
                    90:d3:b7:fe:6c:9f:d9:cd:78:4b:15:ae:8c:5b:f9:
                    99:81
                Exponent: 65537 (0x10001)
        X509v3 extensions:
            X509v3 Basic Constraints: 
                CA:TRUE
            X509v3 Subject Key Identifier: 
                73:B0:1C:A4:2F:82:CB:CF:47:A5:38:D7:B0:04:82:3A:7E:72:15:21
            X509v3 Authority Key Identifier: 
                keyid:73:B0:1C:A4:2F:82:CB:CF:47:A5:38:D7:B0:04:82:3A:7E:72:15:21
                DirName:/C=US/ST=Washington/L=Seattle/O=wolfSSL/OU=Engineering/CN=wolfSSL root CA/emailAddress=info@wolfssl.com
                serial:63

            X509v3 Key Usage: 
                Certificate Sign, CRL Sign
            Authority Information Access: 
                OCSP - URI:http://127.0.0.1:22220

    Signature Algorithm: sha256WithRSAEncryption
         3e:31:8d:ab:e8:39:25:0a:a0:01:53:03:10:e8:f9:d9:5e:51:
         46:da:e2:e2:60:40:7c:ec:d7:c1:54:8f:5b:a1:1f:1b:43:64:
         f5:b3:a5:b9:d1:9d:af:45:5a:53:00:ba:f7:53:63:5c:79:b5:
         ad:0e:b3:0b:05:b0:2e:c7:ca:1f:52:13:47:38:9b:d0:cd:b5:
         19:c1:f7:e6:1d:14:9b:81:8b:e7:ef:d9:70:32:b0:f1:96:b6:
         ff:fe:fd:83:e7:fe:74:55:12:e4:93:3f:e3:54:7e:d3:d3:11:
         ae:d4:e8:9b:70:97:64:7f:12:f3:38:26:62:38:c6:43:42:3b:
         ea:87:67:80:e5:18:c5:28:54:f9:d3:33:4a:b9:33:1e:7c:45:
         7a:e9:64:0f:50:fe:6d:b0:a3:aa:c4:98:7d:ef:53:2c:d1:0e:
         d3:8b:2b:f3:3d:a4:df:26:50:b4:8b:ac:64:00:89:7b:5a:fb:
         4f:b8:d3:f4:53:63:bd:e8:45:cc:2c:55:25:61:92:ff:41:b7:
         27:6a:16:43:ff:0a:26:50:ef:31:9d:4f:6f:6e:ea:bd:1d:70:
         69:c9:1f:ba:70:bf:b2:1d:4a:7d:57:d7:9e:a1:e8:86:34:e3:
         fa:ee:3f:26:20:12:f5:15:83:53:a0:91:5d:a9:36:b3:02:a3:
         42:94:c9:65
-----BEGIN CERTIFICATE-----
MIIE5jCCA86gAwIBAgIBYzANBgkqhkiG9w0BAQsFADCBlzELMAkGA1UEBhMCVVMx
EzARBgNVBAgMCldhc2hpbmd0b24xEDAOBgNVBAcMB1NlYXR0bGUxEDAOBgNVBAoM
B3dvbGZTU0wxFDASBgNVBAsMC0VuZ2luZWVyaW5nMRgwFgYDVQQDDA93b2xmU1NM
IHJvb3QgQ0ExHzAdBgkqhkiG9w0BCQEWEGluZm9Ad29sZnNzbC5jb20wHhcNMjEw
MjEwMTk0OTUzWhcNMjMxMTA3MTk0OTUzWjCBlzELMAkGA1UEBhMCVVMxEzARBgNV
BAgMCldhc2hpbmd0b24xEDAOBgNVBAcMB1NlYXR0bGUxEDAOBgNVBAoMB3dvbGZT
U0wxFDASBgNVBAsMC0VuZ2luZWVyaW5nMRgwFgYDVQQDDA93b2xmU1NMIHJvb3Qg
Q0ExHzAdBgkqhkiG9w0BCQEWEGluZm9Ad29sZnNzbC5jb20wggEiMA0GCSqGSIb3
DQEBAQUAA4IBDwAwggEKAoIBAQCrLLQvHQYJ704phoR+zL+meXzwwMFkJYx1txAF
ykgnDA4yHLD+mYU5trmi9yf/bTyMFnMpIX+LplRxkK3MBbmfFccKP19p9ApfjHG1
LL9m4gOaMvTS7CqJS/k1iBQzR04uBXkB7WQ2drn4hc0BiKzFsrFZuM1a9AkJOJva
Ws/OeJkfST1B1gZ8UpnIl9GzgDqiTzbExZYwdzE4yHDM4WcGsysvk7Vpz4N+iFOb
D0YhTNYFNkSZYGhH5TIBEtQQc66aNJT6brhYT3tbipKXrf2XuXXKwtRFfRdrzS/z
Y3oOMLULqdmmfHRgncwJA0PxD5DTt/5sn9nNeEsVroxb+ZmBAgMBAAGjggE5MIIB
NTAMBgNVHRMEBTADAQH/MB0GA1UdDgQWBBRzsBykL4LLz0elONewBII6fnIVITCB
xAYDVR0jBIG8MIG5gBRzsBykL4LLz0elONewBII6fnIVIaGBnaSBmjCBlzELMAkG
A1UEBhMCVVMxEzARBgNVBAgMCldhc2hpbmd0b24xEDAOBgNVBAcMB1NlYXR0bGUx
EDAOBgNVBAoMB3dvbGZTU0wxFDASBgNVBAsMC0VuZ2luZWVyaW5nMRgwFgYDVQQD
DA93b2xmU1NMIHJvb3QgQ0ExHzAdBgkqhkiG9w0BCQEWEGluZm9Ad29sZnNzbC5j
b22CAWMwCwYDVR0PBAQDAgEGMDIGCCsGAQUFBwEBBCYwJDAiBggrBgEFBQcwAYYW
aHR0cDovLzEyNy4wLjAuMToyMjIyMDANBgkqhkiG9w0BAQsFAAOCAQEAPjGNq+g5
JQqgAVMDEOj52V5RRtri4mBAfOzXwVSPW6EfG0Nk9bOludGdr0VaUwC691NjXHm1
rQ6zCwWwLsfKH1ITRzib0M21GcH35h0Um4GL5+/ZcDKw8Za2//79g+f+dFUS5JM/
41R+09MRrtTom3CXZH8S8zgmYjjGQ0I76odngOUYxShU+dMzSrkzHnxFeulkD1D+
bbCjqsSYfe9TLNEO04sr8z2k3yZQtIusZACJe1r7T7jT9FNjvehFzCxVJWGS/0G3
J2oWQ/8KJlDvMZ1Pb27qvR1wackfunC/sh1KfVfXnqHohjTj+u4/JiAS9RWDU6CR
Xak2swKjQpTJZQ==
-----END CERTIFICATE-----
