Certificate:
    Data:
        Version: 3 (0x2)
        Serial Number: 4 (0x4)
    Signature Algorithm: sha256WithRSAEncryption
        Issuer: C=US, ST=Washington, L=Seattle, O=wolfSSL, OU=Engineering, CN=wolfSSL intermediate CA/emailAddress=info@wolfssl.com
        Validity
            Not Before: Dec  7 22:42:29 2015 GMT
            Not After : Sep  2 22:42:29 2018 GMT
        Subject: C=US, ST=Washington, L=Seattle, O=wolfSSL, OU=Engineering, CN=www1.wolfssl.com/emailAddress=info@wolfssl.com
        Subject Public Key Info:
            Public Key Algorithm: rsaEncryption
                Public-Key: (2048 bit)
                Modulus:
                    00:e6:96:55:75:cf:8a:97:68:8c:b6:38:f6:7a:05:
                    be:33:b6:51:47:37:8a:f7:db:91:be:92:6b:b7:00:
                    8c:f2:c5:24:6e:18:e9:92:00:81:01:dc:b3:4c:28:
                    a9:b7:80:f1:96:cf:23:7a:2f:ae:f8:e3:0f:2d:d3:
                    5e:23:e7:db:4c:b2:5d:89:16:17:be:be:81:db:fb:
                    12:6d:28:4b:10:a0:12:04:27:c1:c9:d0:79:95:ef:
                    e8:8d:8c:59:9b:4e:72:7d:bc:49:2b:22:4e:f8:4f:
                    e2:0c:f1:e9:e9:97:f9:df:8c:5a:0a:aa:38:1d:43:
                    04:a3:a7:89:a1:e2:83:a4:4b:b5:4e:45:88:a6:22:
                    5d:ac:a9:58:67:88:c1:d5:61:ef:bd:11:05:27:94:
                    47:bb:33:a5:8a:ca:ee:1f:8d:c0:6e:24:af:cd:ca:
                    bf:80:47:71:95:ac:a9:f1:5d:23:6c:f5:4b:b4:a9:
                    e1:c4:66:fb:e5:c4:a1:9f:a7:51:d1:78:cd:2e:b4:
                    3f:2e:e2:82:f3:7f:c4:a7:f4:31:cf:76:27:3f:db:
                    2e:d2:6e:c3:47:23:82:a3:48:40:8c:a7:c1:13:f0:
                    63:50:54:43:f6:71:12:e1:6f:a5:7a:58:26:f7:fd:
                    8b:3b:70:18:a0:43:ba:01:6b:b3:f8:d5:be:05:13:
                    64:31
                Exponent: 65537 (0x10001)
        X509v3 extensions:
            X509v3 Basic Constraints: 
                CA:FALSE
            X509v3 Subject Key Identifier: 
                CC:55:15:00:E2:44:89:92:63:6D:10:5D:B9:9E:73:B6:5D:3A:19:CA
            X509v3 Authority Key Identifier: 
                keyid:83:C6:3A:89:2C:81:F4:02:D7:9D:4C:E2:2A:C0:71:82:64:44:DA:0E
                DirName:/C=US/ST=Washington/L=Seattle/O=wolfSSL/OU=Engineering/CN=wolfSSL root CA/emailAddress=info@wolfssl.com
                serial:01

            X509v3 Key Usage: 
                Digital Signature, Non Repudiation, Key Encipherment
            Authority Information Access: 
                OCSP - URI:http://localhost:22221

    Signature Algorithm: sha256WithRSAEncryption
         d2:c0:12:20:fd:e1:b6:ad:89:ae:6f:60:af:3c:ad:5a:09:04:
         31:99:7a:94:00:56:80:26:5a:13:53:60:f3:81:7c:ac:01:e8:
         7a:87:e9:3c:7a:0f:78:14:fa:3f:f1:54:0f:f9:8d:0e:f9:02:
         66:bd:81:c6:e9:12:1c:b6:db:7b:b0:71:dd:62:06:fd:39:5f:
         b3:1f:43:ff:af:91:0f:58:3a:ae:e7:07:a5:da:a1:46:e4:67:
         0a:a4:0d:7e:37:b7:59:92:6c:7b:95:94:2b:33:5c:19:c2:35:
         c5:fc:92:10:9e:87:13:8a:82:0f:f7:68:97:e1:b8:94:d3:d4:
         d5:89:14:f3:1e:9e:29:1c:af:40:14:4b:80:7a:1e:dd:99:23:
         dc:82:79:4b:3c:ac:09:6c:bf:84:97:ba:28:d2:ed:b7:d3:19:
         51:49:c1:1f:37:4d:44:fd:e9:2e:ff:b7:71:f7:35:5b:97:82:
         69:12:75:17:44:b3:a8:57:b8:88:ae:b9:1a:80:31:1f:c9:10:
         91:73:97:98:0b:9a:27:9e:ac:47:99:c6:66:64:f3:b2:36:1f:
         60:ef:fd:43:1e:f5:81:d4:21:89:d1:2e:27:69:9b:39:cb:84:
         e4:fc:24:1b:f7:18:ff:78:36:0d:9e:37:59:ff:1d:ec:9b:c4:
         50:7d:42:ea
-----BEGIN CERTIFICATE-----
MIIE7DCCA9SgAwIBAgIBBDANBgkqhkiG9w0BAQsFADCBnzELMAkGA1UEBhMCVVMx
EzARBgNVBAgMCldhc2hpbmd0b24xEDAOBgNVBAcMB1NlYXR0bGUxEDAOBgNVBAoM
B3dvbGZTU0wxFDASBgNVBAsMC0VuZ2luZWVyaW5nMSAwHgYDVQQDDBd3b2xmU1NM
IGludGVybWVkaWF0ZSBDQTEfMB0GCSqGSIb3DQEJARYQaW5mb0B3b2xmc3NsLmNv
bTAeFw0xNTEyMDcyMjQyMjlaFw0xODA5MDIyMjQyMjlaMIGYMQswCQYDVQQGEwJV
UzETMBEGA1UECAwKV2FzaGluZ3RvbjEQMA4GA1UEBwwHU2VhdHRsZTEQMA4GA1UE
CgwHd29sZlNTTDEUMBIGA1UECwwLRW5naW5lZXJpbmcxGTAXBgNVBAMMEHd3dzEu
d29sZnNzbC5jb20xHzAdBgkqhkiG9w0BCQEWEGluZm9Ad29sZnNzbC5jb20wggEi
MA0GCSqGSIb3DQEBAQUAA4IBDwAwggEKAoIBAQDmllV1z4qXaIy2OPZ6Bb4ztlFH
N4r325G+kmu3AIzyxSRuGOmSAIEB3LNMKKm3gPGWzyN6L6744w8t014j59tMsl2J
Fhe+voHb+xJtKEsQoBIEJ8HJ0HmV7+iNjFmbTnJ9vEkrIk74T+IM8enpl/nfjFoK
qjgdQwSjp4mh4oOkS7VORYimIl2sqVhniMHVYe+9EQUnlEe7M6WKyu4fjcBuJK/N
yr+AR3GVrKnxXSNs9Uu0qeHEZvvlxKGfp1HReM0utD8u4oLzf8Sn9DHPdic/2y7S
bsNHI4KjSECMp8ET8GNQVEP2cRLhb6V6WCb3/Ys7cBigQ7oBa7P41b4FE2QxAgMB
AAGjggE2MIIBMjAJBgNVHRMEAjAAMB0GA1UdDgQWBBTMVRUA4kSJkmNtEF25nnO2
XToZyjCBxAYDVR0jBIG8MIG5gBSDxjqJLIH0AtedTOIqwHGCZETaDqGBnaSBmjCB
lzELMAkGA1UEBhMCVVMxEzARBgNVBAgMCldhc2hpbmd0b24xEDAOBgNVBAcMB1Nl
YXR0bGUxEDAOBgNVBAoMB3dvbGZTU0wxFDASBgNVBAsMC0VuZ2luZWVyaW5nMRgw
FgYDVQQDDA93b2xmU1NMIHJvb3QgQ0ExHzAdBgkqhkiG9w0BCQEWEGluZm9Ad29s
ZnNzbC5jb22CAQEwCwYDVR0PBAQDAgXgMDIGCCsGAQUFBwEBBCYwJDAiBggrBgEF
BQcwAYYWaHR0cDovL2xvY2FsaG9zdDoyMjIyMTANBgkqhkiG9w0BAQsFAAOCAQEA
0sASIP3htq2Jrm9grzytWgkEMZl6lABWgCZaE1Ng84F8rAHoeofpPHoPeBT6P/FU
D/mNDvkCZr2BxukSHLbbe7Bx3WIG/Tlfsx9D/6+RD1g6rucHpdqhRuRnCqQNfje3
WZJse5WUKzNcGcI1xfySEJ6HE4qCD/dol+G4lNPU1YkU8x6eKRyvQBRLgHoe3Zkj
3IJ5SzysCWy/hJe6KNLtt9MZUUnBHzdNRP3pLv+3cfc1W5eCaRJ1F0SzqFe4iK65
GoAxH8kQkXOXmAuaJ56sR5nGZmTzsjYfYO/9Qx71gdQhidEuJ2mbOcuE5PwkG/cY
/3g2DZ43Wf8d7JvEUH1C6g==
-----END CERTIFICATE-----
Certificate:
    Data:
        Version: 3 (0x2)
        Serial Number: 1 (0x1)
    Signature Algorithm: sha256WithRSAEncryption
        Issuer: C=US, ST=Washington, L=Seattle, O=wolfSSL, OU=Engineering, CN=wolfSSL root CA/emailAddress=info@wolfssl.com
        Validity
            Not Before: Dec  7 22:42:29 2015 GMT
            Not After : Sep  2 22:42:29 2018 GMT
        Subject: C=US, ST=Washington, L=Seattle, O=wolfSSL, OU=Engineering, CN=wolfSSL intermediate CA/emailAddress=info@wolfssl.com
        Subject Public Key Info:
            Public Key Algorithm: rsaEncryption
                Public-Key: (2048 bit)
                Modulus:
                    00:de:b4:c8:5c:77:e0:2d:b1:f5:b9:ad:16:47:35:
                    a0:35:65:65:c6:e1:40:ab:1e:b4:b9:13:b7:cb:8c:
                    bb:77:a5:76:da:6d:87:87:f6:4a:4d:13:e4:26:3e:
                    27:87:ee:5b:c7:6a:3f:45:30:61:55:5c:f6:35:d1:
                    65:fa:98:11:a3:a7:55:d5:be:91:82:4b:fc:be:90:
                    d6:50:53:63:9a:2c:22:e1:35:11:dc:78:02:97:8a:
                    e4:46:92:9c:53:08:76:de:1f:53:b6:b8:ca:77:3e:
                    79:6e:bc:d0:e3:0d:30:5b:4c:f6:94:0d:30:29:64:
                    9f:04:e5:db:fb:89:60:67:bb:af:26:83:51:77:24:
                    2f:2b:0b:a1:94:81:10:98:e8:eb:26:a8:1e:7c:e4:
                    c4:6c:67:06:95:55:4a:dd:52:f4:f2:60:6d:01:2b:
                    19:91:35:6d:a4:08:47:06:71:24:00:d9:de:c6:56:
                    f3:8b:53:2c:e2:9a:96:a5:f3:62:e5:c4:e3:23:f2:
                    d2:fc:21:ea:0f:62:76:8d:d5:99:48:ce:dc:58:c4:
                    bb:7f:da:94:2c:80:74:83:c5:e0:b0:15:7e:41:fd:
                    0e:f2:f4:f0:78:76:7b:ad:26:0d:aa:48:96:17:2f:
                    21:e3:95:2b:26:37:f9:aa:80:2f:fe:de:f6:5e:bc:
                    97:7f
                Exponent: 65537 (0x10001)
        X509v3 extensions:
            X509v3 Basic Constraints: 
                CA:TRUE
            X509v3 Subject Key Identifier: 
                83:C6:3A:89:2C:81:F4:02:D7:9D:4C:E2:2A:C0:71:82:64:44:DA:0E
            X509v3 Authority Key Identifier: 
                keyid:73:B0:1C:A4:2F:82:CB:CF:47:A5:38:D7:B0:04:82:3A:7E:72:15:21
                DirName:/C=US/ST=Washington/L=Seattle/O=wolfSSL/OU=Engineering/CN=wolfSSL root CA/emailAddress=info@wolfssl.com
                serial:EF:57:D8:F5:69:38:95:25

            Authority Information Access: 
                OCSP - URI:http://localhost:22220

    Signature Algorithm: sha256WithRSAEncryption
         3d:92:fc:b0:73:95:d8:5a:18:e3:27:fc:55:05:14:54:2e:af:
         37:1e:37:11:25:e8:c9:7a:b0:9b:68:fb:a0:69:91:fd:bb:dd:
         00:55:fb:30:b3:4a:59:a6:58:bb:e4:03:3e:f2:98:a2:07:71:
         c7:de:3a:a0:0b:eb:43:44:77:2b:fc:5d:96:a7:89:c8:1a:6a:
         6e:b6:34:00:bb:e0:8a:5b:2b:ad:3a:f4:ab:b9:d4:54:f9:85:
         9a:f7:3b:23:00:dc:17:8f:55:1f:b9:e1:17:10:61:91:50:77:
         b6:57:be:75:61:6e:cc:9c:27:76:32:c2:de:b4:ee:11:ff:10:
         f7:99:49:38:8e:af:af:fa:73:1e:34:20:6c:3e:9f:cb:56:70:
         20:47:21:d3:2c:db:9b:ad:3b:32:96:72:be:d3:1b:d2:33:21:
         9b:4b:86:3a:64:45:37:8b:60:80:3b:3e:08:7a:06:f2:aa:20:
         7b:63:2c:df:03:c0:2a:74:07:61:db:f3:ec:8a:17:a4:36:a1:
         6c:b6:c0:64:f7:8a:5b:d0:43:64:bb:3e:ed:5d:e8:06:9c:b0:
         ef:c2:f3:d1:ff:e2:05:5e:1f:e1:bd:ef:2a:32:a3:44:9f:44:
         99:c0:a3:27:8b:af:24:c4:5f:2b:d5:05:a2:18:70:32:a4:d2:
         75:16:1b:b1
-----BEGIN CERTIFICATE-----
MIIE6TCCA9GgAwIBAgIBATANBgkqhkiG9w0BAQsFADCBlzELMAkGA1UEBhMCVVMx
EzARBgNVBAgMCldhc2hpbmd0b24xEDAOBgNVBAcMB1NlYXR0bGUxEDAOBgNVBAoM
B3dvbGZTU0wxFDASBgNVBAsMC0VuZ2luZWVyaW5nMRgwFgYDVQQDDA93b2xmU1NM
IHJvb3QgQ0ExHzAdBgkqhkiG9w0BCQEWEGluZm9Ad29sZnNzbC5jb20wHhcNMTUx
MjA3MjI0MjI5WhcNMTgwOTAyMjI0MjI5WjCBnzELMAkGA1UEBhMCVVMxEzARBgNV
BAgMCldhc2hpbmd0b24xEDAOBgNVBAcMB1NlYXR0bGUxEDAOBgNVBAoMB3dvbGZT
U0wxFDASBgNVBAsMC0VuZ2luZWVyaW5nMSAwHgYDVQQDDBd3b2xmU1NMIGludGVy
bWVkaWF0ZSBDQTEfMB0GCSqGSIb3DQEJARYQaW5mb0B3b2xmc3NsLmNvbTCCASIw
DQYJKoZIhvcNAQEBBQADggEPADCCAQoCggEBAN60yFx34C2x9bmtFkc1oDVlZcbh
QKsetLkTt8uMu3eldtpth4f2Sk0T5CY+J4fuW8dqP0UwYVVc9jXRZfqYEaOnVdW+
kYJL/L6Q1lBTY5osIuE1Edx4ApeK5EaSnFMIdt4fU7a4ync+eW680OMNMFtM9pQN
MClknwTl2/uJYGe7ryaDUXckLysLoZSBEJjo6yaoHnzkxGxnBpVVSt1S9PJgbQEr
GZE1baQIRwZxJADZ3sZW84tTLOKalqXzYuXE4yPy0vwh6g9ido3VmUjO3FjEu3/a
lCyAdIPF4LAVfkH9DvL08Hh2e60mDapIlhcvIeOVKyY3+aqAL/7e9l68l38CAwEA
AaOCATQwggEwMAwGA1UdEwQFMAMBAf8wHQYDVR0OBBYEFIPGOoksgfQC151M4irA
cYJkRNoOMIHMBgNVHSMEgcQwgcGAFHOwHKQvgsvPR6U417AEgjp+chUhoYGdpIGa
MIGXMQswCQYDVQQGEwJVUzETMBEGA1UECAwKV2FzaGluZ3RvbjEQMA4GA1UEBwwH
U2VhdHRsZTEQMA4GA1UECgwHd29sZlNTTDEUMBIGA1UECwwLRW5naW5lZXJpbmcx
GDAWBgNVBAMMD3dvbGZTU0wgcm9vdCBDQTEfMB0GCSqGSIb3DQEJARYQaW5mb0B3
b2xmc3NsLmNvbYIJAO9X2PVpOJUlMDIGCCsGAQUFBwEBBCYwJDAiBggrBgEFBQcw
AYYWaHR0cDovL2xvY2FsaG9zdDoyMjIyMDANBgkqhkiG9w0BAQsFAAOCAQEAPZL8
sHOV2FoY4yf8VQUUVC6vNx43ESXoyXqwm2j7oGmR/bvdAFX7MLNKWaZYu+QDPvKY
ogdxx946oAvrQ0R3K/xdlqeJyBpqbrY0ALvgilsrrTr0q7nUVPmFmvc7IwDcF49V
H7nhFxBhkVB3tle+dWFuzJwndjLC3rTuEf8Q95lJOI6vr/pzHjQgbD6fy1ZwIEch
0yzbm607MpZyvtMb0jMhm0uGOmRFN4tggDs+CHoG8qoge2Ms3wPAKnQHYdvz7IoX
pDahbLbAZPeKW9BDZLs+7V3oBpyw78Lz0f/iBV4f4b3vKjKjRJ9EmcCjJ4uvJMRf
K9UFohhwMqTSdRYbsQ==
-----END CERTIFICATE-----
