Certificate:
    Data:
        Version: 3 (0x2)
        Serial Number: 8 (0x8)
        Signature Algorithm: sha256WithRSAEncryption
        Issuer: C = US, ST = Washington, L = Seattle, O = wolfSSL, OU = Engineering, CN = wolfSSL intermediate CA 2, emailAddress = info@wolfssl.com
        Validity
            Not Before: Dec 13 22:19:30 2023 GMT
            Not After : Sep  8 22:19:30 2026 GMT
        Subject: C = US, ST = Washington, L = Seattle, O = wolfSSL, OU = Engineering, CN = www4.wolfssl.com, emailAddress = info@wolfssl.com
        Subject Public Key Info:
            Public Key Algorithm: rsaEncryption
                RSA Public-Key: (2048 bit)
                Modulus:
                    00:9c:ef:8a:7e:84:4d:58:7a:b1:91:c8:cb:68:76:
                    df:fe:0a:29:fe:7f:74:35:d5:c3:fd:43:be:d7:89:
                    fc:59:51:5a:30:e9:50:14:84:24:d0:c8:72:7d:d6:
                    75:42:12:8b:16:ad:5a:e8:d3:84:a7:07:2b:9e:12:
                    ef:6a:cd:3e:83:14:b7:26:a2:53:7b:3d:6c:96:7f:
                    9c:c5:09:08:0e:55:08:19:b7:5a:1c:46:32:09:da:
                    44:b2:ca:fd:4a:e4:be:d0:02:c9:c9:48:03:13:a5:
                    ad:3e:7b:21:cf:05:3a:b9:25:f5:c1:b8:4e:4d:eb:
                    33:99:d1:50:4a:eb:f7:1a:08:6b:d0:5c:9d:48:eb:
                    98:fd:dc:89:0f:aa:74:d3:7f:03:1b:59:65:f5:86:
                    e1:d9:53:ab:e4:53:ab:85:3c:79:8b:45:39:7b:fd:
                    e9:a2:10:b9:fa:92:71:0e:68:36:66:6e:8c:fb:e2:
                    8a:5d:5f:72:66:b0:47:2d:c5:b4:93:ce:61:7f:90:
                    1a:64:02:dd:57:9d:f1:f1:e8:75:21:e2:af:44:e3:
                    96:f5:1c:e3:73:87:dc:b7:05:12:ad:a5:8f:0c:d8:
                    2c:b4:90:b3:d9:e7:13:e1:e5:5e:4c:9b:24:89:08:
                    07:9e:aa:6b:9f:64:01:da:ec:95:05:45:84:d9:a9:
                    db:c7
                Exponent: 65537 (0x10001)
        X509v3 extensions:
            X509v3 Basic Constraints: 
                CA:FALSE
            X509v3 Subject Key Identifier: 
                9A:D6:EF:4E:0A:7B:8B:74:E6:14:EC:35:9A:05:2A:94:68:09:61:58
            X509v3 Authority Key Identifier: 
                keyid:05:D1:BA:86:00:A2:EE:2A:05:24:B7:11:AD:2D:60:F1:90:14:8F:17
                DirName:/C=US/ST=Washington/L=Seattle/O=wolfSSL/OU=Engineering/CN=wolfSSL root CA/emailAddress=info@wolfssl.com
                serial:02

            X509v3 Key Usage: 
                Digital Signature, Non Repudiation, Key Encipherment
            Authority Information Access: 
                OCSP - URI:http://127.0.0.1:22222

    Signature Algorithm: sha256WithRSAEncryption
         78:ac:f7:40:1e:05:a5:e6:46:e0:d9:f7:e6:1b:c8:d2:76:7a:
         e3:e6:b9:5d:0a:73:47:78:4b:e0:58:e1:d7:86:8d:b0:cc:e1:
         17:f5:88:c1:84:5a:0f:de:ab:d1:b6:ed:ce:c3:d2:e3:cd:ef:
         50:6c:90:67:fd:c6:5c:1e:25:28:d6:1f:4e:75:67:b2:9b:16:
         e7:74:f5:a2:a5:f6:a8:8f:da:de:20:51:c8:60:35:48:f9:0d:
         5f:b1:45:62:a7:2d:ff:12:f9:29:6c:66:1b:80:33:30:6c:f0:
         be:f7:22:47:a5:f9:75:e5:fb:1b:0c:fe:f5:09:31:a9:d8:7c:
         0a:90:7e:92:48:b7:0d:11:a3:eb:39:d1:a8:fe:bd:8b:a6:81:
         1e:38:7b:73:c7:cd:2e:c6:52:1b:68:60:2f:7d:ca:5e:32:4a:
         ec:89:8a:50:fd:bc:81:d3:ea:8e:47:3b:8b:77:e7:d8:69:27:
         86:25:da:24:0f:26:cc:a2:16:04:53:29:4a:55:26:3b:f5:13:
         f2:5d:01:08:5f:9e:b9:81:48:28:3c:e7:36:6f:f9:76:07:16:
         b9:79:b7:31:75:35:7e:c3:f0:0b:e2:0f:58:1a:3d:64:70:13:
         2e:e1:3c:0b:70:08:69:15:bf:58:5c:ca:f3:fa:65:72:77:f7:
         05:61:d4:d7
-----BEGIN CERTIFICATE-----
MIIE7jCCA9agAwIBAgIBCDANBgkqhkiG9w0BAQsFADCBoTELMAkGA1UEBhMCVVMx
EzARBgNVBAgMCldhc2hpbmd0b24xEDAOBgNVBAcMB1NlYXR0bGUxEDAOBgNVBAoM
B3dvbGZTU0wxFDASBgNVBAsMC0VuZ2luZWVyaW5nMSIwIAYDVQQDDBl3b2xmU1NM
IGludGVybWVkaWF0ZSBDQSAyMR8wHQYJKoZIhvcNAQkBFhBpbmZvQHdvbGZzc2wu
Y29tMB4XDTIzMTIxMzIyMTkzMFoXDTI2MDkwODIyMTkzMFowgZgxCzAJBgNVBAYT
AlVTMRMwEQYDVQQIDApXYXNoaW5ndG9uMRAwDgYDVQQHDAdTZWF0dGxlMRAwDgYD
VQQKDAd3b2xmU1NMMRQwEgYDVQQLDAtFbmdpbmVlcmluZzEZMBcGA1UEAwwQd3d3
NC53b2xmc3NsLmNvbTEfMB0GCSqGSIb3DQEJARYQaW5mb0B3b2xmc3NsLmNvbTCC
ASIwDQYJKoZIhvcNAQEBBQADggEPADCCAQoCggEBAJzvin6ETVh6sZHIy2h23/4K
Kf5/dDXVw/1DvteJ/FlRWjDpUBSEJNDIcn3WdUISixatWujThKcHK54S72rNPoMU
tyaiU3s9bJZ/nMUJCA5VCBm3WhxGMgnaRLLK/UrkvtACyclIAxOlrT57Ic8FOrkl
9cG4Tk3rM5nRUErr9xoIa9BcnUjrmP3ciQ+qdNN/AxtZZfWG4dlTq+RTq4U8eYtF
OXv96aIQufqScQ5oNmZujPviil1fcmawRy3FtJPOYX+QGmQC3Ved8fHodSHir0Tj
lvUc43OH3LcFEq2ljwzYLLSQs9nnE+HlXkybJIkIB56qa59kAdrslQVFhNmp28cC
AwEAAaOCATYwggEyMAkGA1UdEwQCMAAwHQYDVR0OBBYEFJrW704Ke4t05hTsNZoF
KpRoCWFYMIHEBgNVHSMEgbwwgbmAFAXRuoYAou4qBSS3Ea0tYPGQFI8XoYGdpIGa
MIGXMQswCQYDVQQGEwJVUzETMBEGA1UECAwKV2FzaGluZ3RvbjEQMA4GA1UEBwwH
U2VhdHRsZTEQMA4GA1UECgwHd29sZlNTTDEUMBIGA1UECwwLRW5naW5lZXJpbmcx
GDAWBgNVBAMMD3dvbGZTU0wgcm9vdCBDQTEfMB0GCSqGSIb3DQEJARYQaW5mb0B3
b2xmc3NsLmNvbYIBAjALBgNVHQ8EBAMCBeAwMgYIKwYBBQUHAQEEJjAkMCIGCCsG
AQUFBzABhhZodHRwOi8vMTI3LjAuMC4xOjIyMjIyMA0GCSqGSIb3DQEBCwUAA4IB
AQB4rPdAHgWl5kbg2ffmG8jSdnrj5rldCnNHeEvgWOHXho2wzOEX9YjBhFoP3qvR
tu3Ow9Ljze9QbJBn/cZcHiUo1h9OdWeymxbndPWipfaoj9reIFHIYDVI+Q1fsUVi
py3/EvkpbGYbgDMwbPC+9yJHpfl15fsbDP71CTGp2HwKkH6SSLcNEaPrOdGo/r2L
poEeOHtzx80uxlIbaGAvfcpeMkrsiYpQ/byB0+qORzuLd+fYaSeGJdokDybMohYE
UylKVSY79RPyXQEIX565gUgoPOc2b/l2Bxa5ebcxdTV+w/AL4g9YGj1kcBMu4TwL
cAhpFb9YXMrz+mVyd/cFYdTX
-----END CERTIFICATE-----
Certificate:
    Data:
        Version: 3 (0x2)
        Serial Number: 2 (0x2)
        Signature Algorithm: sha256WithRSAEncryption
        Issuer: C = US, ST = Washington, L = Seattle, O = wolfSSL, OU = Engineering, CN = wolfSSL root CA, emailAddress = info@wolfssl.com
        Validity
            Not Before: Dec 13 22:19:30 2023 GMT
            Not After : Sep  8 22:19:30 2026 GMT
        Subject: C = US, ST = Washington, L = Seattle, O = wolfSSL, OU = Engineering, CN = wolfSSL intermediate CA 2, emailAddress = info@wolfssl.com
        Subject Public Key Info:
            Public Key Algorithm: rsaEncryption
                RSA Public-Key: (2048 bit)
                Modulus:
                    00:d0:20:3c:35:19:6f:2c:44:b4:7e:42:c7:75:b4:
                    6a:2b:a9:23:85:bf:87:b4:ee:ca:d7:4b:1f:31:d7:
                    11:02:a1:ab:58:3d:fb:dc:51:ca:3a:1d:1f:95:a6:
                    56:82:f7:8f:ff:6b:50:bb:ea:10:e1:47:1d:35:77:
                    2e:4b:28:c5:53:46:23:2b:82:fd:5a:d3:f4:21:db:
                    0e:e0:f2:76:33:47:b3:00:be:3a:b1:23:98:53:eb:
                    ea:a0:de:1b:cc:05:4e:ee:63:a8:2c:93:24:d6:98:
                    78:74:03:e4:c8:89:43:61:f1:25:b8:cd:3b:87:c1:
                    31:25:fd:ba:4c:fc:29:94:45:9e:69:d7:67:0a:8a:
                    8e:d5:52:93:30:a2:0e:dd:6a:1c:b0:94:77:db:52:
                    52:b7:89:21:be:96:75:24:cb:e9:49:df:81:9d:9d:
                    f8:55:7d:01:2a:eb:78:03:12:e2:20:6e:db:63:35:
                    cd:a1:96:f0:f8:8c:20:35:69:87:01:ca:b4:54:36:
                    a0:15:e0:23:7d:b9:fb:be:99:05:50:f0:bf:ec:7f:
                    12:e1:3d:75:15:4e:c8:c2:30:e6:8b:fe:e5:8b:55:
                    f8:44:5e:e5:e3:56:e0:66:2d:6f:42:5a:45:6b:96:
                    aa:c7:5d:41:08:5f:ce:d7:dc:9f:20:e4:46:78:ff:
                    d9:99
                Exponent: 65537 (0x10001)
        X509v3 extensions:
            X509v3 Basic Constraints: 
                CA:TRUE
            X509v3 Subject Key Identifier: 
                05:D1:BA:86:00:A2:EE:2A:05:24:B7:11:AD:2D:60:F1:90:14:8F:17
            X509v3 Authority Key Identifier: 
                keyid:73:B0:1C:A4:2F:82:CB:CF:47:A5:38:D7:B0:04:82:3A:7E:72:15:21
                DirName:/C=US/ST=Washington/L=Seattle/O=wolfSSL/OU=Engineering/CN=wolfSSL root CA/emailAddress=info@wolfssl.com
                serial:63

            X509v3 Key Usage: 
                Certificate Sign, CRL Sign
            Authority Information Access: 
                OCSP - URI:http://127.0.0.1:22220

    Signature Algorithm: sha256WithRSAEncryption
         3b:38:b5:57:a7:f6:d6:b1:19:55:b8:da:47:74:cf:9a:6b:6e:
         ff:0a:5d:06:17:33:db:db:38:e5:d1:9c:dd:c7:3e:c2:2e:87:
         20:52:48:d0:ad:0c:12:3e:f7:66:41:64:d2:ca:b3:4c:a1:0a:
         6c:4b:4b:33:94:74:83:2e:2d:44:5a:13:ae:da:9a:18:87:64:
         30:cf:69:70:e8:38:47:de:55:27:06:86:9b:24:d5:b0:8f:17:
         3b:95:87:7e:4a:45:45:2e:6d:70:27:90:32:62:a8:36:3e:47:
         47:0f:0e:1b:93:cf:3d:3e:9b:2c:9a:ff:0c:ee:a7:1b:40:c4:
         dc:f2:66:74:eb:d9:11:9d:60:b8:24:b4:89:c1:e4:61:20:3d:
         38:af:45:ad:e8:ee:69:c3:96:8a:a5:c1:cd:dd:14:87:97:dc:
         f8:32:84:a8:3b:0a:eb:61:0e:7c:4c:65:69:3d:02:92:db:c4:
         bf:21:6f:89:fe:cc:76:df:c5:84:fb:c4:ea:1a:60:da:d0:c8:
         27:7c:65:1b:cb:23:20:5a:e2:23:90:bd:f5:5c:0a:85:51:37:
         84:47:a7:80:f4:e0:a0:72:8d:7a:b8:71:03:44:59:c6:cf:2c:
         ae:df:91:a9:74:72:eb:a7:31:b2:81:65:19:e6:df:c3:4b:b7:
         fc:9c:2c:f0
-----BEGIN CERTIFICATE-----
MIIE8DCCA9igAwIBAgIBAjANBgkqhkiG9w0BAQsFADCBlzELMAkGA1UEBhMCVVMx
EzARBgNVBAgMCldhc2hpbmd0b24xEDAOBgNVBAcMB1NlYXR0bGUxEDAOBgNVBAoM
B3dvbGZTU0wxFDASBgNVBAsMC0VuZ2luZWVyaW5nMRgwFgYDVQQDDA93b2xmU1NM
IHJvb3QgQ0ExHzAdBgkqhkiG9w0BCQEWEGluZm9Ad29sZnNzbC5jb20wHhcNMjMx
MjEzMjIxOTMwWhcNMjYwOTA4MjIxOTMwWjCBoTELMAkGA1UEBhMCVVMxEzARBgNV
BAgMCldhc2hpbmd0b24xEDAOBgNVBAcMB1NlYXR0bGUxEDAOBgNVBAoMB3dvbGZT
U0wxFDASBgNVBAsMC0VuZ2luZWVyaW5nMSIwIAYDVQQDDBl3b2xmU1NMIGludGVy
bWVkaWF0ZSBDQSAyMR8wHQYJKoZIhvcNAQkBFhBpbmZvQHdvbGZzc2wuY29tMIIB
IjANBgkqhkiG9w0BAQEFAAOCAQ8AMIIBCgKCAQEA0CA8NRlvLES0fkLHdbRqK6kj
hb+HtO7K10sfMdcRAqGrWD373FHKOh0flaZWgveP/2tQu+oQ4UcdNXcuSyjFU0Yj
K4L9WtP0IdsO4PJ2M0ezAL46sSOYU+vqoN4bzAVO7mOoLJMk1ph4dAPkyIlDYfEl
uM07h8ExJf26TPwplEWeaddnCoqO1VKTMKIO3WocsJR321JSt4khvpZ1JMvpSd+B
nZ34VX0BKut4AxLiIG7bYzXNoZbw+IwgNWmHAcq0VDagFeAjfbn7vpkFUPC/7H8S
4T11FU7IwjDmi/7li1X4RF7l41bgZi1vQlpFa5aqx11BCF/O19yfIORGeP/ZmQID
AQABo4IBOTCCATUwDAYDVR0TBAUwAwEB/zAdBgNVHQ4EFgQUBdG6hgCi7ioFJLcR
rS1g8ZAUjxcwgcQGA1UdIwSBvDCBuYAUc7AcpC+Cy89HpTjXsASCOn5yFSGhgZ2k
gZowgZcxCzAJBgNVBAYTAlVTMRMwEQYDVQQIDApXYXNoaW5ndG9uMRAwDgYDVQQH
DAdTZWF0dGxlMRAwDgYDVQQKDAd3b2xmU1NMMRQwEgYDVQQLDAtFbmdpbmVlcmlu
ZzEYMBYGA1UEAwwPd29sZlNTTCByb290IENBMR8wHQYJKoZIhvcNAQkBFhBpbmZv
QHdvbGZzc2wuY29tggFjMAsGA1UdDwQEAwIBBjAyBggrBgEFBQcBAQQmMCQwIgYI
KwYBBQUHMAGGFmh0dHA6Ly8xMjcuMC4wLjE6MjIyMjAwDQYJKoZIhvcNAQELBQAD
ggEBADs4tVen9taxGVW42kd0z5prbv8KXQYXM9vbOOXRnN3HPsIuhyBSSNCtDBI+
92ZBZNLKs0yhCmxLSzOUdIMuLURaE67amhiHZDDPaXDoOEfeVScGhpsk1bCPFzuV
h35KRUUubXAnkDJiqDY+R0cPDhuTzz0+myya/wzupxtAxNzyZnTr2RGdYLgktInB
5GEgPTivRa3o7mnDloqlwc3dFIeX3PgyhKg7CuthDnxMZWk9ApLbxL8hb4n+zHbf
xYT7xOoaYNrQyCd8ZRvLIyBa4iOQvfVcCoVRN4RHp4D04KByjXq4cQNEWcbPLK7f
kal0cuunMbKBZRnm38NLt/ycLPA=
-----END CERTIFICATE-----
Certificate:
    Data:
        Version: 3 (0x2)
        Serial Number: 99 (0x63)
        Signature Algorithm: sha256WithRSAEncryption
        Issuer: C = US, ST = Washington, L = Seattle, O = wolfSSL, OU = Engineering, CN = wolfSSL root CA, emailAddress = info@wolfssl.com
        Validity
            Not Before: Dec 13 22:19:30 2023 GMT
            Not After : Sep  8 22:19:30 2026 GMT
        Subject: C = US, ST = Washington, L = Seattle, O = wolfSSL, OU = Engineering, CN = wolfSSL root CA, emailAddress = info@wolfssl.com
        Subject Public Key Info:
            Public Key Algorithm: rsaEncryption
                RSA Public-Key: (2048 bit)
                Modulus:
                    00:ab:2c:b4:2f:1d:06:09:ef:4e:29:86:84:7e:cc:
                    bf:a6:79:7c:f0:c0:c1:64:25:8c:75:b7:10:05:ca:
                    48:27:0c:0e:32:1c:b0:fe:99:85:39:b6:b9:a2:f7:
                    27:ff:6d:3c:8c:16:73:29:21:7f:8b:a6:54:71:90:
                    ad:cc:05:b9:9f:15:c7:0a:3f:5f:69:f4:0a:5f:8c:
                    71:b5:2c:bf:66:e2:03:9a:32:f4:d2:ec:2a:89:4b:
                    f9:35:88:14:33:47:4e:2e:05:79:01:ed:64:36:76:
                    b9:f8:85:cd:01:88:ac:c5:b2:b1:59:b8:cd:5a:f4:
                    09:09:38:9b:da:5a:cf:ce:78:99:1f:49:3d:41:d6:
                    06:7c:52:99:c8:97:d1:b3:80:3a:a2:4f:36:c4:c5:
                    96:30:77:31:38:c8:70:cc:e1:67:06:b3:2b:2f:93:
                    b5:69:cf:83:7e:88:53:9b:0f:46:21:4c:d6:05:36:
                    44:99:60:68:47:e5:32:01:12:d4:10:73:ae:9a:34:
                    94:fa:6e:b8:58:4f:7b:5b:8a:92:97:ad:fd:97:b9:
                    75:ca:c2:d4:45:7d:17:6b:cd:2f:f3:63:7a:0e:30:
                    b5:0b:a9:d9:a6:7c:74:60:9d:cc:09:03:43:f1:0f:
                    90:d3:b7:fe:6c:9f:d9:cd:78:4b:15:ae:8c:5b:f9:
                    99:81
                Exponent: 65537 (0x10001)
        X509v3 extensions:
            X509v3 Basic Constraints: 
                CA:TRUE
            X509v3 Subject Key Identifier: 
                73:B0:1C:A4:2F:82:CB:CF:47:A5:38:D7:B0:04:82:3A:7E:72:15:21
            X509v3 Authority Key Identifier: 
                keyid:73:B0:1C:A4:2F:82:CB:CF:47:A5:38:D7:B0:04:82:3A:7E:72:15:21
                DirName:/C=US/ST=Washington/L=Seattle/O=wolfSSL/OU=Engineering/CN=wolfSSL root CA/emailAddress=info@wolfssl.com
                serial:63

            X509v3 Key Usage: 
                Certificate Sign, CRL Sign
            Authority Information Access: 
                OCSP - URI:http://127.0.0.1:22220

    Signature Algorithm: sha256WithRSAEncryption
         63:f7:e7:80:e2:73:b0:7f:c2:32:c0:20:45:01:1e:40:bc:85:
         8e:7f:04:3b:c6:fe:3f:d1:b9:14:ce:06:d9:e8:fc:cd:b9:1d:
         0f:cb:89:71:a9:34:67:e8:be:b8:27:d1:1f:c4:ff:9b:9d:b9:
         bd:f8:23:c7:e5:7f:04:20:de:b1:30:b2:5d:c2:99:a5:f8:34:
         9d:d7:0a:bc:b5:3a:84:64:2e:5b:24:34:01:da:03:a9:bb:cf:
         f2:0d:0e:06:68:de:34:90:cb:42:3a:62:31:d0:d6:7d:26:ca:
         14:e5:87:70:51:a2:71:85:cf:4e:af:7c:6c:45:69:d1:3c:6c:
         9c:47:35:be:13:bc:12:a9:ea:c4:2f:71:d3:a5:6b:10:4b:85:
         68:93:68:81:1c:9f:e6:6a:e7:c0:e1:a6:09:28:f9:d4:a4:55:
         e8:dc:e3:e2:14:86:0c:ef:3d:7a:7f:8d:d2:a3:e6:c8:0b:e7:
         1c:45:6d:0d:e9:9a:d6:38:4f:52:73:a7:5c:04:e9:ce:77:af:
         94:97:7b:56:a8:eb:bc:b6:f6:7a:ed:6a:8f:68:04:b4:ea:ce:
         05:d8:f7:bc:99:ae:6f:38:9a:ee:23:4d:c5:53:e6:70:fe:5c:
         60:68:c4:0c:79:c3:eb:49:d5:df:a6:98:5b:ba:6e:f6:c6:30:
         e0:5e:3e:c3
-----BEGIN CERTIFICATE-----
MIIE5jCCA86gAwIBAgIBYzANBgkqhkiG9w0BAQsFADCBlzELMAkGA1UEBhMCVVMx
EzARBgNVBAgMCldhc2hpbmd0b24xEDAOBgNVBAcMB1NlYXR0bGUxEDAOBgNVBAoM
B3dvbGZTU0wxFDASBgNVBAsMC0VuZ2luZWVyaW5nMRgwFgYDVQQDDA93b2xmU1NM
IHJvb3QgQ0ExHzAdBgkqhkiG9w0BCQEWEGluZm9Ad29sZnNzbC5jb20wHhcNMjMx
MjEzMjIxOTMwWhcNMjYwOTA4MjIxOTMwWjCBlzELMAkGA1UEBhMCVVMxEzARBgNV
BAgMCldhc2hpbmd0b24xEDAOBgNVBAcMB1NlYXR0bGUxEDAOBgNVBAoMB3dvbGZT
U0wxFDASBgNVBAsMC0VuZ2luZWVyaW5nMRgwFgYDVQQDDA93b2xmU1NMIHJvb3Qg
Q0ExHzAdBgkqhkiG9w0BCQEWEGluZm9Ad29sZnNzbC5jb20wggEiMA0GCSqGSIb3
DQEBAQUAA4IBDwAwggEKAoIBAQCrLLQvHQYJ704phoR+zL+meXzwwMFkJYx1txAF
ykgnDA4yHLD+mYU5trmi9yf/bTyMFnMpIX+LplRxkK3MBbmfFccKP19p9ApfjHG1
LL9m4gOaMvTS7CqJS/k1iBQzR04uBXkB7WQ2drn4hc0BiKzFsrFZuM1a9AkJOJva
Ws/OeJkfST1B1gZ8UpnIl9GzgDqiTzbExZYwdzE4yHDM4WcGsysvk7Vpz4N+iFOb
D0YhTNYFNkSZYGhH5TIBEtQQc66aNJT6brhYT3tbipKXrf2XuXXKwtRFfRdrzS/z
Y3oOMLULqdmmfHRgncwJA0PxD5DTt/5sn9nNeEsVroxb+ZmBAgMBAAGjggE5MIIB
NTAMBgNVHRMEBTADAQH/MB0GA1UdDgQWBBRzsBykL4LLz0elONewBII6fnIVITCB
xAYDVR0jBIG8MIG5gBRzsBykL4LLz0elONewBII6fnIVIaGBnaSBmjCBlzELMAkG
A1UEBhMCVVMxEzARBgNVBAgMCldhc2hpbmd0b24xEDAOBgNVBAcMB1NlYXR0bGUx
EDAOBgNVBAoMB3dvbGZTU0wxFDASBgNVBAsMC0VuZ2luZWVyaW5nMRgwFgYDVQQD
DA93b2xmU1NMIHJvb3QgQ0ExHzAdBgkqhkiG9w0BCQEWEGluZm9Ad29sZnNzbC5j
b22CAWMwCwYDVR0PBAQDAgEGMDIGCCsGAQUFBwEBBCYwJDAiBggrBgEFBQcwAYYW
aHR0cDovLzEyNy4wLjAuMToyMjIyMDANBgkqhkiG9w0BAQsFAAOCAQEAY/fngOJz
sH/CMsAgRQEeQLyFjn8EO8b+P9G5FM4G2ej8zbkdD8uJcak0Z+i+uCfRH8T/m525
vfgjx+V/BCDesTCyXcKZpfg0ndcKvLU6hGQuWyQ0AdoDqbvP8g0OBmjeNJDLQjpi
MdDWfSbKFOWHcFGicYXPTq98bEVp0TxsnEc1vhO8EqnqxC9x06VrEEuFaJNogRyf
5mrnwOGmCSj51KRV6Nzj4hSGDO89en+N0qPmyAvnHEVtDema1jhPUnOnXATpznev
lJd7VqjrvLb2eu1qj2gEtOrOBdj3vJmubzia7iNNxVPmcP5cYGjEDHnD60nV36aY
W7pu9sYw4F4+ww==
-----END CERTIFICATE-----
