Certificate:
    Data:
        Version: 3 (0x2)
        Serial Number: 5 (0x5)
    Signature Algorithm: sha256WithRSAEncryption
        Issuer: C=US, ST=Washington, L=Seattle, O=wolfSSL, OU=Engineering, CN=wolfSSL intermediate CA/emailAddress=info@wolfssl.com
        Validity
            Not Before: Dec  7 22:42:30 2015 GMT
            Not After : Sep  2 22:42:30 2018 GMT
        Subject: C=US, ST=Washington, L=Seattle, O=wolfSSL, OU=Engineering, CN=www2.wolfssl.com/emailAddress=info@wolfssl.com
        Subject Public Key Info:
            Public Key Algorithm: rsaEncryption
                Public-Key: (2048 bit)
                Modulus:
                    00:c6:35:8a:e8:aa:bd:33:c9:5e:84:43:67:42:65:
                    2a:3c:e3:89:b4:a6:67:a1:3b:ee:6d:85:d1:d3:2b:
                    6e:b1:62:d4:f1:22:43:a0:d5:b7:a5:7d:b5:f5:6c:
                    09:06:7c:8c:ef:87:af:4f:34:ce:27:eb:f3:4a:37:
                    57:c3:d7:d8:ee:e4:a0:77:65:2c:a7:c2:10:65:6b:
                    7b:48:c4:d8:28:fe:4c:4e:4f:7e:2f:20:c4:49:5b:
                    71:38:40:0d:36:a3:57:b3:44:da:be:cd:54:14:15:
                    66:0f:d3:05:08:f2:2e:03:67:2e:5c:5d:e1:b0:e6:
                    c0:25:8f:58:77:5b:d3:d7:a8:22:ea:56:d3:0e:01:
                    6d:38:34:56:47:aa:12:c4:ba:2a:ef:ec:18:f5:d4:
                    db:b9:fa:6f:dc:50:eb:ee:10:a2:14:b5:9a:12:e1:
                    e3:85:0f:79:14:b8:70:6d:0d:1c:1d:38:57:85:6a:
                    82:0c:d6:bd:2c:bf:20:f1:28:2e:f6:34:80:a7:0d:
                    32:82:35:4f:c1:b1:e5:9e:26:d5:f8:b9:39:57:43:
                    ef:ed:f1:10:5c:3e:32:ba:d9:e4:9e:40:cd:28:ea:
                    26:46:9b:a9:34:8d:9f:b9:fd:45:7d:14:f7:ce:ca:
                    3b:85:87:a7:64:74:9c:65:29:18:b3:f5:b1:ad:92:
                    62:39
                Exponent: 65537 (0x10001)
        X509v3 extensions:
            X509v3 Basic Constraints: 
                CA:FALSE
            X509v3 Subject Key Identifier: 
                7D:6D:FD:F6:0B:4F:3F:4A:62:91:F5:F3:13:60:51:86:C3:5A:9F:D6
            X509v3 Authority Key Identifier: 
                keyid:83:C6:3A:89:2C:81:F4:02:D7:9D:4C:E2:2A:C0:71:82:64:44:DA:0E
                DirName:/C=US/ST=Washington/L=Seattle/O=wolfSSL/OU=Engineering/CN=wolfSSL root CA/emailAddress=info@wolfssl.com
                serial:01

            X509v3 Key Usage: 
                Digital Signature, Non Repudiation, Key Encipherment
            Authority Information Access: 
                OCSP - URI:http://localhost:22221

    Signature Algorithm: sha256WithRSAEncryption
         72:91:43:1a:4f:fb:87:32:dc:12:b0:60:ed:d8:05:f9:ac:62:
         51:1d:21:40:f4:36:86:6c:24:82:33:a5:1e:c9:bd:bb:2a:2f:
         14:76:ef:63:ba:fe:79:c5:14:ac:0b:d7:3d:7d:cd:db:50:98:
         93:05:0e:f2:0f:00:fa:f2:11:dc:10:25:c0:e7:ae:0e:b2:fc:
         86:2a:a1:d9:ee:1c:ad:31:ad:be:69:3f:58:5d:73:cd:bb:df:
         64:3d:bd:aa:e0:30:9e:4b:f5:e5:48:0e:81:c5:81:2e:90:d5:
         73:62:a6:80:9a:71:24:54:95:3a:aa:a0:df:aa:2a:95:9e:90:
         1f:f4:94:cb:ad:9d:47:7f:52:d6:52:16:a4:db:1e:71:71:c9:
         a4:4a:02:1c:e5:5d:4d:23:6c:6a:db:60:b4:0e:58:83:1a:86:
         af:f0:ec:25:44:63:c6:05:f2:26:f8:34:98:11:93:cd:4d:4d:
         7a:cb:53:e5:86:40:91:fb:6d:16:14:de:c8:d1:5d:65:9d:45:
         92:1c:c0:4f:4f:33:8a:8b:23:93:30:f4:fe:08:92:27:bf:3d:
         11:4e:0b:42:59:69:88:b3:df:45:0f:a0:05:63:03:bd:1c:8c:
         3c:76:1f:20:65:25:8b:3c:34:1e:74:a0:79:05:6e:dd:b6:ae:
         8f:77:b5:0d
-----BEGIN CERTIFICATE-----
MIIE7DCCA9SgAwIBAgIBBTANBgkqhkiG9w0BAQsFADCBnzELMAkGA1UEBhMCVVMx
EzARBgNVBAgMCldhc2hpbmd0b24xEDAOBgNVBAcMB1NlYXR0bGUxEDAOBgNVBAoM
B3dvbGZTU0wxFDASBgNVBAsMC0VuZ2luZWVyaW5nMSAwHgYDVQQDDBd3b2xmU1NM
IGludGVybWVkaWF0ZSBDQTEfMB0GCSqGSIb3DQEJARYQaW5mb0B3b2xmc3NsLmNv
bTAeFw0xNTEyMDcyMjQyMzBaFw0xODA5MDIyMjQyMzBaMIGYMQswCQYDVQQGEwJV
UzETMBEGA1UECAwKV2FzaGluZ3RvbjEQMA4GA1UEBwwHU2VhdHRsZTEQMA4GA1UE
CgwHd29sZlNTTDEUMBIGA1UECwwLRW5naW5lZXJpbmcxGTAXBgNVBAMMEHd3dzIu
d29sZnNzbC5jb20xHzAdBgkqhkiG9w0BCQEWEGluZm9Ad29sZnNzbC5jb20wggEi
MA0GCSqGSIb3DQEBAQUAA4IBDwAwggEKAoIBAQDGNYroqr0zyV6EQ2dCZSo844m0
pmehO+5thdHTK26xYtTxIkOg1belfbX1bAkGfIzvh69PNM4n6/NKN1fD19ju5KB3
ZSynwhBla3tIxNgo/kxOT34vIMRJW3E4QA02o1ezRNq+zVQUFWYP0wUI8i4DZy5c
XeGw5sAlj1h3W9PXqCLqVtMOAW04NFZHqhLEuirv7Bj11Nu5+m/cUOvuEKIUtZoS
4eOFD3kUuHBtDRwdOFeFaoIM1r0svyDxKC72NICnDTKCNU/BseWeJtX4uTlXQ+/t
8RBcPjK62eSeQM0o6iZGm6k0jZ+5/UV9FPfOyjuFh6dkdJxlKRiz9bGtkmI5AgMB
AAGjggE2MIIBMjAJBgNVHRMEAjAAMB0GA1UdDgQWBBR9bf32C08/SmKR9fMTYFGG
w1qf1jCBxAYDVR0jBIG8MIG5gBSDxjqJLIH0AtedTOIqwHGCZETaDqGBnaSBmjCB
lzELMAkGA1UEBhMCVVMxEzARBgNVBAgMCldhc2hpbmd0b24xEDAOBgNVBAcMB1Nl
YXR0bGUxEDAOBgNVBAoMB3dvbGZTU0wxFDASBgNVBAsMC0VuZ2luZWVyaW5nMRgw
FgYDVQQDDA93b2xmU1NMIHJvb3QgQ0ExHzAdBgkqhkiG9w0BCQEWEGluZm9Ad29s
ZnNzbC5jb22CAQEwCwYDVR0PBAQDAgXgMDIGCCsGAQUFBwEBBCYwJDAiBggrBgEF
BQcwAYYWaHR0cDovL2xvY2FsaG9zdDoyMjIyMTANBgkqhkiG9w0BAQsFAAOCAQEA
cpFDGk/7hzLcErBg7dgF+axiUR0hQPQ2hmwkgjOlHsm9uyovFHbvY7r+ecUUrAvX
PX3N21CYkwUO8g8A+vIR3BAlwOeuDrL8hiqh2e4crTGtvmk/WF1zzbvfZD29quAw
nkv15UgOgcWBLpDVc2KmgJpxJFSVOqqg36oqlZ6QH/SUy62dR39S1lIWpNsecXHJ
pEoCHOVdTSNsattgtA5YgxqGr/DsJURjxgXyJvg0mBGTzU1NestT5YZAkfttFhTe
yNFdZZ1FkhzAT08ziosjkzD0/giSJ789EU4LQllpiLPfRQ+gBWMDvRyMPHYfIGUl
izw0HnSgeQVu3bauj3e1DQ==
-----END CERTIFICATE-----
Certificate:
    Data:
        Version: 3 (0x2)
        Serial Number: 1 (0x1)
    Signature Algorithm: sha256WithRSAEncryption
        Issuer: C=US, ST=Washington, L=Seattle, O=wolfSSL, OU=Engineering, CN=wolfSSL root CA/emailAddress=info@wolfssl.com
        Validity
            Not Before: Dec  7 22:42:29 2015 GMT
            Not After : Sep  2 22:42:29 2018 GMT
        Subject: C=US, ST=Washington, L=Seattle, O=wolfSSL, OU=Engineering, CN=wolfSSL intermediate CA/emailAddress=info@wolfssl.com
        Subject Public Key Info:
            Public Key Algorithm: rsaEncryption
                Public-Key: (2048 bit)
                Modulus:
                    00:de:b4:c8:5c:77:e0:2d:b1:f5:b9:ad:16:47:35:
                    a0:35:65:65:c6:e1:40:ab:1e:b4:b9:13:b7:cb:8c:
                    bb:77:a5:76:da:6d:87:87:f6:4a:4d:13:e4:26:3e:
                    27:87:ee:5b:c7:6a:3f:45:30:61:55:5c:f6:35:d1:
                    65:fa:98:11:a3:a7:55:d5:be:91:82:4b:fc:be:90:
                    d6:50:53:63:9a:2c:22:e1:35:11:dc:78:02:97:8a:
                    e4:46:92:9c:53:08:76:de:1f:53:b6:b8:ca:77:3e:
                    79:6e:bc:d0:e3:0d:30:5b:4c:f6:94:0d:30:29:64:
                    9f:04:e5:db:fb:89:60:67:bb:af:26:83:51:77:24:
                    2f:2b:0b:a1:94:81:10:98:e8:eb:26:a8:1e:7c:e4:
                    c4:6c:67:06:95:55:4a:dd:52:f4:f2:60:6d:01:2b:
                    19:91:35:6d:a4:08:47:06:71:24:00:d9:de:c6:56:
                    f3:8b:53:2c:e2:9a:96:a5:f3:62:e5:c4:e3:23:f2:
                    d2:fc:21:ea:0f:62:76:8d:d5:99:48:ce:dc:58:c4:
                    bb:7f:da:94:2c:80:74:83:c5:e0:b0:15:7e:41:fd:
                    0e:f2:f4:f0:78:76:7b:ad:26:0d:aa:48:96:17:2f:
                    21:e3:95:2b:26:37:f9:aa:80:2f:fe:de:f6:5e:bc:
                    97:7f
                Exponent: 65537 (0x10001)
        X509v3 extensions:
            X509v3 Basic Constraints: 
                CA:TRUE
            X509v3 Subject Key Identifier: 
                83:C6:3A:89:2C:81:F4:02:D7:9D:4C:E2:2A:C0:71:82:64:44:DA:0E
            X509v3 Authority Key Identifier: 
                keyid:73:B0:1C:A4:2F:82:CB:CF:47:A5:38:D7:B0:04:82:3A:7E:72:15:21
                DirName:/C=US/ST=Washington/L=Seattle/O=wolfSSL/OU=Engineering/CN=wolfSSL root CA/emailAddress=info@wolfssl.com
                serial:EF:57:D8:F5:69:38:95:25

            Authority Information Access: 
                OCSP - URI:http://localhost:22220

    Signature Algorithm: sha256WithRSAEncryption
         3d:92:fc:b0:73:95:d8:5a:18:e3:27:fc:55:05:14:54:2e:af:
         37:1e:37:11:25:e8:c9:7a:b0:9b:68:fb:a0:69:91:fd:bb:dd:
         00:55:fb:30:b3:4a:59:a6:58:bb:e4:03:3e:f2:98:a2:07:71:
         c7:de:3a:a0:0b:eb:43:44:77:2b:fc:5d:96:a7:89:c8:1a:6a:
         6e:b6:34:00:bb:e0:8a:5b:2b:ad:3a:f4:ab:b9:d4:54:f9:85:
         9a:f7:3b:23:00:dc:17:8f:55:1f:b9:e1:17:10:61:91:50:77:
         b6:57:be:75:61:6e:cc:9c:27:76:32:c2:de:b4:ee:11:ff:10:
         f7:99:49:38:8e:af:af:fa:73:1e:34:20:6c:3e:9f:cb:56:70:
         20:47:21:d3:2c:db:9b:ad:3b:32:96:72:be:d3:1b:d2:33:21:
         9b:4b:86:3a:64:45:37:8b:60:80:3b:3e:08:7a:06:f2:aa:20:
         7b:63:2c:df:03:c0:2a:74:07:61:db:f3:ec:8a:17:a4:36:a1:
         6c:b6:c0:64:f7:8a:5b:d0:43:64:bb:3e:ed:5d:e8:06:9c:b0:
         ef:c2:f3:d1:ff:e2:05:5e:1f:e1:bd:ef:2a:32:a3:44:9f:44:
         99:c0:a3:27:8b:af:24:c4:5f:2b:d5:05:a2:18:70:32:a4:d2:
         75:16:1b:b1
-----BEGIN CERTIFICATE-----
MIIE6TCCA9GgAwIBAgIBATANBgkqhkiG9w0BAQsFADCBlzELMAkGA1UEBhMCVVMx
EzARBgNVBAgMCldhc2hpbmd0b24xEDAOBgNVBAcMB1NlYXR0bGUxEDAOBgNVBAoM
B3dvbGZTU0wxFDASBgNVBAsMC0VuZ2luZWVyaW5nMRgwFgYDVQQDDA93b2xmU1NM
IHJvb3QgQ0ExHzAdBgkqhkiG9w0BCQEWEGluZm9Ad29sZnNzbC5jb20wHhcNMTUx
MjA3MjI0MjI5WhcNMTgwOTAyMjI0MjI5WjCBnzELMAkGA1UEBhMCVVMxEzARBgNV
BAgMCldhc2hpbmd0b24xEDAOBgNVBAcMB1NlYXR0bGUxEDAOBgNVBAoMB3dvbGZT
U0wxFDASBgNVBAsMC0VuZ2luZWVyaW5nMSAwHgYDVQQDDBd3b2xmU1NMIGludGVy
bWVkaWF0ZSBDQTEfMB0GCSqGSIb3DQEJARYQaW5mb0B3b2xmc3NsLmNvbTCCASIw
DQYJKoZIhvcNAQEBBQADggEPADCCAQoCggEBAN60yFx34C2x9bmtFkc1oDVlZcbh
QKsetLkTt8uMu3eldtpth4f2Sk0T5CY+J4fuW8dqP0UwYVVc9jXRZfqYEaOnVdW+
kYJL/L6Q1lBTY5osIuE1Edx4ApeK5EaSnFMIdt4fU7a4ync+eW680OMNMFtM9pQN
MClknwTl2/uJYGe7ryaDUXckLysLoZSBEJjo6yaoHnzkxGxnBpVVSt1S9PJgbQEr
GZE1baQIRwZxJADZ3sZW84tTLOKalqXzYuXE4yPy0vwh6g9ido3VmUjO3FjEu3/a
lCyAdIPF4LAVfkH9DvL08Hh2e60mDapIlhcvIeOVKyY3+aqAL/7e9l68l38CAwEA
AaOCATQwggEwMAwGA1UdEwQFMAMBAf8wHQYDVR0OBBYEFIPGOoksgfQC151M4irA
cYJkRNoOMIHMBgNVHSMEgcQwgcGAFHOwHKQvgsvPR6U417AEgjp+chUhoYGdpIGa
MIGXMQswCQYDVQQGEwJVUzETMBEGA1UECAwKV2FzaGluZ3RvbjEQMA4GA1UEBwwH
U2VhdHRsZTEQMA4GA1UECgwHd29sZlNTTDEUMBIGA1UECwwLRW5naW5lZXJpbmcx
GDAWBgNVBAMMD3dvbGZTU0wgcm9vdCBDQTEfMB0GCSqGSIb3DQEJARYQaW5mb0B3
b2xmc3NsLmNvbYIJAO9X2PVpOJUlMDIGCCsGAQUFBwEBBCYwJDAiBggrBgEFBQcw
AYYWaHR0cDovL2xvY2FsaG9zdDoyMjIyMDANBgkqhkiG9w0BAQsFAAOCAQEAPZL8
sHOV2FoY4yf8VQUUVC6vNx43ESXoyXqwm2j7oGmR/bvdAFX7MLNKWaZYu+QDPvKY
ogdxx946oAvrQ0R3K/xdlqeJyBpqbrY0ALvgilsrrTr0q7nUVPmFmvc7IwDcF49V
H7nhFxBhkVB3tle+dWFuzJwndjLC3rTuEf8Q95lJOI6vr/pzHjQgbD6fy1ZwIEch
0yzbm607MpZyvtMb0jMhm0uGOmRFN4tggDs+CHoG8qoge2Ms3wPAKnQHYdvz7IoX
pDahbLbAZPeKW9BDZLs+7V3oBpyw78Lz0f/iBV4f4b3vKjKjRJ9EmcCjJ4uvJMRf
K9UFohhwMqTSdRYbsQ==
-----END CERTIFICATE-----
