Certificate:
    Data:
        Version: 3 (0x2)
        Serial Number: 8 (0x8)
        Signature Algorithm: sha256WithRSAEncryption
        Issuer: C = US, ST = Washington, L = Seattle, O = wolfSSL, OU = Engineering, CN = wolfSSL intermediate CA 2, emailAddress = info@wolfssl.com
        Validity
            Not Before: Jun 19 13:23:42 2020 GMT
            Not After : Mar 16 13:23:42 2023 GMT
        Subject: C = US, ST = Washington, L = Seattle, O = wolfSSL, OU = Engineering, CN = www4.wolfssl.com, emailAddress = info@wolfssl.com
        Subject Public Key Info:
            Public Key Algorithm: rsaEncryption
                RSA Public-Key: (2048 bit)
                Modulus:
                    00:9c:ef:8a:7e:84:4d:58:7a:b1:91:c8:cb:68:76:
                    df:fe:0a:29:fe:7f:74:35:d5:c3:fd:43:be:d7:89:
                    fc:59:51:5a:30:e9:50:14:84:24:d0:c8:72:7d:d6:
                    75:42:12:8b:16:ad:5a:e8:d3:84:a7:07:2b:9e:12:
                    ef:6a:cd:3e:83:14:b7:26:a2:53:7b:3d:6c:96:7f:
                    9c:c5:09:08:0e:55:08:19:b7:5a:1c:46:32:09:da:
                    44:b2:ca:fd:4a:e4:be:d0:02:c9:c9:48:03:13:a5:
                    ad:3e:7b:21:cf:05:3a:b9:25:f5:c1:b8:4e:4d:eb:
                    33:99:d1:50:4a:eb:f7:1a:08:6b:d0:5c:9d:48:eb:
                    98:fd:dc:89:0f:aa:74:d3:7f:03:1b:59:65:f5:86:
                    e1:d9:53:ab:e4:53:ab:85:3c:79:8b:45:39:7b:fd:
                    e9:a2:10:b9:fa:92:71:0e:68:36:66:6e:8c:fb:e2:
                    8a:5d:5f:72:66:b0:47:2d:c5:b4:93:ce:61:7f:90:
                    1a:64:02:dd:57:9d:f1:f1:e8:75:21:e2:af:44:e3:
                    96:f5:1c:e3:73:87:dc:b7:05:12:ad:a5:8f:0c:d8:
                    2c:b4:90:b3:d9:e7:13:e1:e5:5e:4c:9b:24:89:08:
                    07:9e:aa:6b:9f:64:01:da:ec:95:05:45:84:d9:a9:
                    db:c7
                Exponent: 65537 (0x10001)
        X509v3 extensions:
            X509v3 Basic Constraints: 
                CA:FALSE
            X509v3 Subject Key Identifier: 
                9A:D6:EF:4E:0A:7B:8B:74:E6:14:EC:35:9A:05:2A:94:68:09:61:58
            X509v3 Authority Key Identifier: 
                keyid:05:D1:BA:86:00:A2:EE:2A:05:24:B7:11:AD:2D:60:F1:90:14:8F:17
                DirName:/C=US/ST=Washington/L=Seattle/O=wolfSSL/OU=Engineering/CN=wolfSSL root CA/emailAddress=info@wolfssl.com
                serial:02

            X509v3 Key Usage: 
                Digital Signature, Non Repudiation, Key Encipherment
            Authority Information Access: 
                OCSP - URI:http://127.0.0.1:22222

    Signature Algorithm: sha256WithRSAEncryption
         55:39:86:a2:0c:6f:a5:e5:4c:6d:26:1a:bf:f6:3b:ac:e4:76:
         75:72:a0:08:96:06:34:4b:1c:0c:1b:f3:49:88:16:cf:98:ec:
         23:3f:26:70:3f:06:ed:25:a5:a4:e6:c4:b5:2d:4b:a4:82:b2:
         31:bb:d7:b1:a2:8e:65:78:31:69:1c:77:bf:56:4f:3f:e2:27:
         08:24:e2:30:6d:de:4b:e2:ad:89:98:9a:9a:dc:e5:6c:23:a1:
         f5:65:4a:6a:cd:0f:ee:0f:53:9d:40:63:43:f9:0a:4d:bc:1a:
         8e:de:d8:43:6c:21:b9:56:3c:ab:36:4f:c9:28:27:d9:0e:74:
         f9:b4:0a:55:9c:13:0e:06:23:21:5e:b0:0e:b9:6f:db:30:81:
         85:68:a3:3a:36:8c:72:a7:79:5b:6c:52:3b:17:8c:fb:10:4d:
         d7:d1:32:ec:c5:8e:48:2c:86:a4:78:fb:54:75:17:c9:f8:56:
         87:f8:2f:b9:7e:b0:85:72:55:31:c5:b9:d1:70:4f:41:56:7f:
         81:c8:21:fe:11:2c:cc:1e:e1:99:6a:35:50:e4:d2:ca:49:df:
         fc:00:c7:0e:84:17:ba:70:a8:93:a1:b2:eb:ef:34:26:f8:f2:
         8e:e1:ba:85:bc:39:c6:24:f0:74:d8:86:91:67:44:75:06:0a:
         a3:04:7d:43
-----BEGIN CERTIFICATE-----
MIIE7jCCA9agAwIBAgIBCDANBgkqhkiG9w0BAQsFADCBoTELMAkGA1UEBhMCVVMx
EzARBgNVBAgMCldhc2hpbmd0b24xEDAOBgNVBAcMB1NlYXR0bGUxEDAOBgNVBAoM
B3dvbGZTU0wxFDASBgNVBAsMC0VuZ2luZWVyaW5nMSIwIAYDVQQDDBl3b2xmU1NM
IGludGVybWVkaWF0ZSBDQSAyMR8wHQYJKoZIhvcNAQkBFhBpbmZvQHdvbGZzc2wu
Y29tMB4XDTIwMDYxOTEzMjM0MloXDTIzMDMxNjEzMjM0MlowgZgxCzAJBgNVBAYT
AlVTMRMwEQYDVQQIDApXYXNoaW5ndG9uMRAwDgYDVQQHDAdTZWF0dGxlMRAwDgYD
VQQKDAd3b2xmU1NMMRQwEgYDVQQLDAtFbmdpbmVlcmluZzEZMBcGA1UEAwwQd3d3
NC53b2xmc3NsLmNvbTEfMB0GCSqGSIb3DQEJARYQaW5mb0B3b2xmc3NsLmNvbTCC
ASIwDQYJKoZIhvcNAQEBBQADggEPADCCAQoCggEBAJzvin6ETVh6sZHIy2h23/4K
Kf5/dDXVw/1DvteJ/FlRWjDpUBSEJNDIcn3WdUISixatWujThKcHK54S72rNPoMU
tyaiU3s9bJZ/nMUJCA5VCBm3WhxGMgnaRLLK/UrkvtACyclIAxOlrT57Ic8FOrkl
9cG4Tk3rM5nRUErr9xoIa9BcnUjrmP3ciQ+qdNN/AxtZZfWG4dlTq+RTq4U8eYtF
OXv96aIQufqScQ5oNmZujPviil1fcmawRy3FtJPOYX+QGmQC3Ved8fHodSHir0Tj
lvUc43OH3LcFEq2ljwzYLLSQs9nnE+HlXkybJIkIB56qa59kAdrslQVFhNmp28cC
AwEAAaOCATYwggEyMAkGA1UdEwQCMAAwHQYDVR0OBBYEFJrW704Ke4t05hTsNZoF
KpRoCWFYMIHEBgNVHSMEgbwwgbmAFAXRuoYAou4qBSS3Ea0tYPGQFI8XoYGdpIGa
MIGXMQswCQYDVQQGEwJVUzETMBEGA1UECAwKV2FzaGluZ3RvbjEQMA4GA1UEBwwH
U2VhdHRsZTEQMA4GA1UECgwHd29sZlNTTDEUMBIGA1UECwwLRW5naW5lZXJpbmcx
GDAWBgNVBAMMD3dvbGZTU0wgcm9vdCBDQTEfMB0GCSqGSIb3DQEJARYQaW5mb0B3
b2xmc3NsLmNvbYIBAjALBgNVHQ8EBAMCBeAwMgYIKwYBBQUHAQEEJjAkMCIGCCsG
AQUFBzABhhZodHRwOi8vMTI3LjAuMC4xOjIyMjIyMA0GCSqGSIb3DQEBCwUAA4IB
AQBVOYaiDG+l5UxtJhq/9jus5HZ1cqAIlgY0SxwMG/NJiBbPmOwjPyZwPwbtJaWk
5sS1LUukgrIxu9exoo5leDFpHHe/Vk8/4icIJOIwbd5L4q2JmJqa3OVsI6H1ZUpq
zQ/uD1OdQGND+QpNvBqO3thDbCG5VjyrNk/JKCfZDnT5tApVnBMOBiMhXrAOuW/b
MIGFaKM6Noxyp3lbbFI7F4z7EE3X0TLsxY5ILIakePtUdRfJ+FaH+C+5frCFclUx
xbnRcE9BVn+ByCH+ESzMHuGZajVQ5NLKSd/8AMcOhBe6cKiTobLr7zQm+PKO4bqF
vDnGJPB02IaRZ0R1BgqjBH1D
-----END CERTIFICATE-----
Certificate:
    Data:
        Version: 3 (0x2)
        Serial Number: 2 (0x2)
        Signature Algorithm: sha256WithRSAEncryption
        Issuer: C = US, ST = Washington, L = Seattle, O = wolfSSL, OU = Engineering, CN = wolfSSL root CA, emailAddress = info@wolfssl.com
        Validity
            Not Before: Jun 19 13:23:41 2020 GMT
            Not After : Mar 16 13:23:41 2023 GMT
        Subject: C = US, ST = Washington, L = Seattle, O = wolfSSL, OU = Engineering, CN = wolfSSL intermediate CA 2, emailAddress = info@wolfssl.com
        Subject Public Key Info:
            Public Key Algorithm: rsaEncryption
                RSA Public-Key: (2048 bit)
                Modulus:
                    00:d0:20:3c:35:19:6f:2c:44:b4:7e:42:c7:75:b4:
                    6a:2b:a9:23:85:bf:87:b4:ee:ca:d7:4b:1f:31:d7:
                    11:02:a1:ab:58:3d:fb:dc:51:ca:3a:1d:1f:95:a6:
                    56:82:f7:8f:ff:6b:50:bb:ea:10:e1:47:1d:35:77:
                    2e:4b:28:c5:53:46:23:2b:82:fd:5a:d3:f4:21:db:
                    0e:e0:f2:76:33:47:b3:00:be:3a:b1:23:98:53:eb:
                    ea:a0:de:1b:cc:05:4e:ee:63:a8:2c:93:24:d6:98:
                    78:74:03:e4:c8:89:43:61:f1:25:b8:cd:3b:87:c1:
                    31:25:fd:ba:4c:fc:29:94:45:9e:69:d7:67:0a:8a:
                    8e:d5:52:93:30:a2:0e:dd:6a:1c:b0:94:77:db:52:
                    52:b7:89:21:be:96:75:24:cb:e9:49:df:81:9d:9d:
                    f8:55:7d:01:2a:eb:78:03:12:e2:20:6e:db:63:35:
                    cd:a1:96:f0:f8:8c:20:35:69:87:01:ca:b4:54:36:
                    a0:15:e0:23:7d:b9:fb:be:99:05:50:f0:bf:ec:7f:
                    12:e1:3d:75:15:4e:c8:c2:30:e6:8b:fe:e5:8b:55:
                    f8:44:5e:e5:e3:56:e0:66:2d:6f:42:5a:45:6b:96:
                    aa:c7:5d:41:08:5f:ce:d7:dc:9f:20:e4:46:78:ff:
                    d9:99
                Exponent: 65537 (0x10001)
        X509v3 extensions:
            X509v3 Basic Constraints: 
                CA:TRUE
            X509v3 Subject Key Identifier: 
                05:D1:BA:86:00:A2:EE:2A:05:24:B7:11:AD:2D:60:F1:90:14:8F:17
            X509v3 Authority Key Identifier: 
                keyid:73:B0:1C:A4:2F:82:CB:CF:47:A5:38:D7:B0:04:82:3A:7E:72:15:21
                DirName:/C=US/ST=Washington/L=Seattle/O=wolfSSL/OU=Engineering/CN=wolfSSL root CA/emailAddress=info@wolfssl.com
                serial:63

            X509v3 Key Usage: 
                Certificate Sign, CRL Sign
            Authority Information Access: 
                OCSP - URI:http://127.0.0.1:22220

    Signature Algorithm: sha256WithRSAEncryption
         0a:ef:11:86:ba:12:b6:5a:38:b7:7a:62:a9:e8:75:e8:25:a1:
         72:5b:d1:ab:7e:b9:46:9c:ca:57:90:d2:cc:83:8e:3a:e7:05:
         02:da:9d:da:ff:28:d0:51:bb:68:6b:3a:32:23:e3:ca:37:49:
         82:b4:22:74:1b:22:49:c6:4e:54:20:46:89:0c:fd:d8:cd:a7:
         15:cf:49:87:48:ad:07:ba:91:cc:85:39:20:c5:7f:c3:f5:07:
         e4:83:c8:bd:a6:71:47:c1:6a:81:8c:af:8b:f8:80:3f:ec:b9:
         e6:34:c8:01:bb:1c:d4:dd:11:8b:7b:0c:5c:3b:5d:b0:56:c6:
         9f:35:fc:75:2e:f4:59:27:21:d6:b1:2a:71:6b:b0:c5:44:b0:
         e3:0d:9d:ed:a0:8e:69:bc:ac:38:61:61:8b:ab:e0:07:cc:41:
         70:da:55:56:09:4a:7a:ca:17:01:62:df:98:14:2a:1a:d4:52:
         52:4c:4e:96:66:10:e4:46:f3:0c:e6:31:06:60:62:69:68:77:
         2b:36:bd:28:6e:ed:fd:6c:29:c6:e9:c8:58:f1:51:d7:a4:91:
         81:7b:b7:c3:2e:07:c4:fd:bd:35:d9:d9:82:27:97:4d:a4:71:
         05:25:1c:67:a0:56:5e:ea:c2:1f:08:c2:ae:a6:e7:c0:15:72:
         b3:e1:df:50
-----BEGIN CERTIFICATE-----
MIIE8DCCA9igAwIBAgIBAjANBgkqhkiG9w0BAQsFADCBlzELMAkGA1UEBhMCVVMx
EzARBgNVBAgMCldhc2hpbmd0b24xEDAOBgNVBAcMB1NlYXR0bGUxEDAOBgNVBAoM
B3dvbGZTU0wxFDASBgNVBAsMC0VuZ2luZWVyaW5nMRgwFgYDVQQDDA93b2xmU1NM
IHJvb3QgQ0ExHzAdBgkqhkiG9w0BCQEWEGluZm9Ad29sZnNzbC5jb20wHhcNMjAw
NjE5MTMyMzQxWhcNMjMwMzE2MTMyMzQxWjCBoTELMAkGA1UEBhMCVVMxEzARBgNV
BAgMCldhc2hpbmd0b24xEDAOBgNVBAcMB1NlYXR0bGUxEDAOBgNVBAoMB3dvbGZT
U0wxFDASBgNVBAsMC0VuZ2luZWVyaW5nMSIwIAYDVQQDDBl3b2xmU1NMIGludGVy
bWVkaWF0ZSBDQSAyMR8wHQYJKoZIhvcNAQkBFhBpbmZvQHdvbGZzc2wuY29tMIIB
IjANBgkqhkiG9w0BAQEFAAOCAQ8AMIIBCgKCAQEA0CA8NRlvLES0fkLHdbRqK6kj
hb+HtO7K10sfMdcRAqGrWD373FHKOh0flaZWgveP/2tQu+oQ4UcdNXcuSyjFU0Yj
K4L9WtP0IdsO4PJ2M0ezAL46sSOYU+vqoN4bzAVO7mOoLJMk1ph4dAPkyIlDYfEl
uM07h8ExJf26TPwplEWeaddnCoqO1VKTMKIO3WocsJR321JSt4khvpZ1JMvpSd+B
nZ34VX0BKut4AxLiIG7bYzXNoZbw+IwgNWmHAcq0VDagFeAjfbn7vpkFUPC/7H8S
4T11FU7IwjDmi/7li1X4RF7l41bgZi1vQlpFa5aqx11BCF/O19yfIORGeP/ZmQID
AQABo4IBOTCCATUwDAYDVR0TBAUwAwEB/zAdBgNVHQ4EFgQUBdG6hgCi7ioFJLcR
rS1g8ZAUjxcwgcQGA1UdIwSBvDCBuYAUc7AcpC+Cy89HpTjXsASCOn5yFSGhgZ2k
gZowgZcxCzAJBgNVBAYTAlVTMRMwEQYDVQQIDApXYXNoaW5ndG9uMRAwDgYDVQQH
DAdTZWF0dGxlMRAwDgYDVQQKDAd3b2xmU1NMMRQwEgYDVQQLDAtFbmdpbmVlcmlu
ZzEYMBYGA1UEAwwPd29sZlNTTCByb290IENBMR8wHQYJKoZIhvcNAQkBFhBpbmZv
QHdvbGZzc2wuY29tggFjMAsGA1UdDwQEAwIBBjAyBggrBgEFBQcBAQQmMCQwIgYI
KwYBBQUHMAGGFmh0dHA6Ly8xMjcuMC4wLjE6MjIyMjAwDQYJKoZIhvcNAQELBQAD
ggEBAArvEYa6ErZaOLd6YqnodegloXJb0at+uUacyleQ0syDjjrnBQLandr/KNBR
u2hrOjIj48o3SYK0InQbIknGTlQgRokM/djNpxXPSYdIrQe6kcyFOSDFf8P1B+SD
yL2mcUfBaoGMr4v4gD/sueY0yAG7HNTdEYt7DFw7XbBWxp81/HUu9FknIdaxKnFr
sMVEsOMNne2gjmm8rDhhYYur4AfMQXDaVVYJSnrKFwFi35gUKhrUUlJMTpZmEORG
8wzmMQZgYmlodys2vShu7f1sKcbpyFjxUdekkYF7t8MuB8T9vTXZ2YInl02kcQUl
HGegVl7qwh8Iwq6m58AVcrPh31A=
-----END CERTIFICATE-----
Certificate:
    Data:
        Version: 3 (0x2)
        Serial Number: 99 (0x63)
        Signature Algorithm: sha256WithRSAEncryption
        Issuer: C = US, ST = Washington, L = Seattle, O = wolfSSL, OU = Engineering, CN = wolfSSL root CA, emailAddress = info@wolfssl.com
        Validity
            Not Before: Jun 19 13:23:41 2020 GMT
            Not After : Mar 16 13:23:41 2023 GMT
        Subject: C = US, ST = Washington, L = Seattle, O = wolfSSL, OU = Engineering, CN = wolfSSL root CA, emailAddress = info@wolfssl.com
        Subject Public Key Info:
            Public Key Algorithm: rsaEncryption
                RSA Public-Key: (2048 bit)
                Modulus:
                    00:ab:2c:b4:2f:1d:06:09:ef:4e:29:86:84:7e:cc:
                    bf:a6:79:7c:f0:c0:c1:64:25:8c:75:b7:10:05:ca:
                    48:27:0c:0e:32:1c:b0:fe:99:85:39:b6:b9:a2:f7:
                    27:ff:6d:3c:8c:16:73:29:21:7f:8b:a6:54:71:90:
                    ad:cc:05:b9:9f:15:c7:0a:3f:5f:69:f4:0a:5f:8c:
                    71:b5:2c:bf:66:e2:03:9a:32:f4:d2:ec:2a:89:4b:
                    f9:35:88:14:33:47:4e:2e:05:79:01:ed:64:36:76:
                    b9:f8:85:cd:01:88:ac:c5:b2:b1:59:b8:cd:5a:f4:
                    09:09:38:9b:da:5a:cf:ce:78:99:1f:49:3d:41:d6:
                    06:7c:52:99:c8:97:d1:b3:80:3a:a2:4f:36:c4:c5:
                    96:30:77:31:38:c8:70:cc:e1:67:06:b3:2b:2f:93:
                    b5:69:cf:83:7e:88:53:9b:0f:46:21:4c:d6:05:36:
                    44:99:60:68:47:e5:32:01:12:d4:10:73:ae:9a:34:
                    94:fa:6e:b8:58:4f:7b:5b:8a:92:97:ad:fd:97:b9:
                    75:ca:c2:d4:45:7d:17:6b:cd:2f:f3:63:7a:0e:30:
                    b5:0b:a9:d9:a6:7c:74:60:9d:cc:09:03:43:f1:0f:
                    90:d3:b7:fe:6c:9f:d9:cd:78:4b:15:ae:8c:5b:f9:
                    99:81
                Exponent: 65537 (0x10001)
        X509v3 extensions:
            X509v3 Basic Constraints: 
                CA:TRUE
            X509v3 Subject Key Identifier: 
                73:B0:1C:A4:2F:82:CB:CF:47:A5:38:D7:B0:04:82:3A:7E:72:15:21
            X509v3 Authority Key Identifier: 
                keyid:73:B0:1C:A4:2F:82:CB:CF:47:A5:38:D7:B0:04:82:3A:7E:72:15:21
                DirName:/C=US/ST=Washington/L=Seattle/O=wolfSSL/OU=Engineering/CN=wolfSSL root CA/emailAddress=info@wolfssl.com
                serial:63

            X509v3 Key Usage: 
                Certificate Sign, CRL Sign
            Authority Information Access: 
                OCSP - URI:http://127.0.0.1:22220

    Signature Algorithm: sha256WithRSAEncryption
         a3:37:1d:70:ed:7a:e6:d7:e4:be:0f:c4:9e:47:45:a0:fa:ca:
         33:72:1c:fe:ce:96:7a:aa:d6:18:36:81:27:aa:2e:c7:d9:09:
         46:dc:0a:02:c5:f8:6e:6b:09:b9:6a:f3:d5:cc:6c:62:84:2f:
         96:0c:18:02:17:bb:36:b7:e3:c5:e1:d4:86:7a:c6:6c:29:28:
         55:24:9a:10:55:f0:12:45:63:5d:0d:4a:30:fe:af:4a:60:8f:
         91:5a:54:53:ec:ea:dd:b3:0c:51:3e:da:d9:8e:4f:2d:4a:ab:
         e6:16:7a:61:49:2e:4e:0a:48:c5:2e:94:4c:d5:a8:f8:e4:49:
         d9:5f:2b:4f:1f:e0:2d:ff:f7:e8:1d:e9:cf:e1:46:d4:50:ac:
         d9:ca:ed:c6:a4:0b:f4:ef:ec:d5:9f:ff:a5:c8:c8:b8:f0:21:
         bd:a6:da:7b:a1:cd:f3:64:4c:09:dd:56:22:94:bc:8e:f6:a5:
         76:c2:06:d4:f1:1a:37:76:49:d5:99:57:64:f1:c1:75:a3:ed:
         88:b3:af:aa:24:28:27:96:b9:03:2b:df:89:e9:2b:47:6e:d3:
         af:af:23:f9:59:66:2e:c4:1e:7e:bb:44:da:d5:db:b7:d6:a7:
         df:7f:c4:28:79:c7:d9:4b:92:18:d1:ae:cb:62:31:6b:7d:fa:
         3b:16:7a:b5
-----BEGIN CERTIFICATE-----
MIIE5jCCA86gAwIBAgIBYzANBgkqhkiG9w0BAQsFADCBlzELMAkGA1UEBhMCVVMx
EzARBgNVBAgMCldhc2hpbmd0b24xEDAOBgNVBAcMB1NlYXR0bGUxEDAOBgNVBAoM
B3dvbGZTU0wxFDASBgNVBAsMC0VuZ2luZWVyaW5nMRgwFgYDVQQDDA93b2xmU1NM
IHJvb3QgQ0ExHzAdBgkqhkiG9w0BCQEWEGluZm9Ad29sZnNzbC5jb20wHhcNMjAw
NjE5MTMyMzQxWhcNMjMwMzE2MTMyMzQxWjCBlzELMAkGA1UEBhMCVVMxEzARBgNV
BAgMCldhc2hpbmd0b24xEDAOBgNVBAcMB1NlYXR0bGUxEDAOBgNVBAoMB3dvbGZT
U0wxFDASBgNVBAsMC0VuZ2luZWVyaW5nMRgwFgYDVQQDDA93b2xmU1NMIHJvb3Qg
Q0ExHzAdBgkqhkiG9w0BCQEWEGluZm9Ad29sZnNzbC5jb20wggEiMA0GCSqGSIb3
DQEBAQUAA4IBDwAwggEKAoIBAQCrLLQvHQYJ704phoR+zL+meXzwwMFkJYx1txAF
ykgnDA4yHLD+mYU5trmi9yf/bTyMFnMpIX+LplRxkK3MBbmfFccKP19p9ApfjHG1
LL9m4gOaMvTS7CqJS/k1iBQzR04uBXkB7WQ2drn4hc0BiKzFsrFZuM1a9AkJOJva
Ws/OeJkfST1B1gZ8UpnIl9GzgDqiTzbExZYwdzE4yHDM4WcGsysvk7Vpz4N+iFOb
D0YhTNYFNkSZYGhH5TIBEtQQc66aNJT6brhYT3tbipKXrf2XuXXKwtRFfRdrzS/z
Y3oOMLULqdmmfHRgncwJA0PxD5DTt/5sn9nNeEsVroxb+ZmBAgMBAAGjggE5MIIB
NTAMBgNVHRMEBTADAQH/MB0GA1UdDgQWBBRzsBykL4LLz0elONewBII6fnIVITCB
xAYDVR0jBIG8MIG5gBRzsBykL4LLz0elONewBII6fnIVIaGBnaSBmjCBlzELMAkG
A1UEBhMCVVMxEzARBgNVBAgMCldhc2hpbmd0b24xEDAOBgNVBAcMB1NlYXR0bGUx
EDAOBgNVBAoMB3dvbGZTU0wxFDASBgNVBAsMC0VuZ2luZWVyaW5nMRgwFgYDVQQD
DA93b2xmU1NMIHJvb3QgQ0ExHzAdBgkqhkiG9w0BCQEWEGluZm9Ad29sZnNzbC5j
b22CAWMwCwYDVR0PBAQDAgEGMDIGCCsGAQUFBwEBBCYwJDAiBggrBgEFBQcwAYYW
aHR0cDovLzEyNy4wLjAuMToyMjIyMDANBgkqhkiG9w0BAQsFAAOCAQEAozcdcO16
5tfkvg/EnkdFoPrKM3Ic/s6WeqrWGDaBJ6oux9kJRtwKAsX4bmsJuWrz1cxsYoQv
lgwYAhe7NrfjxeHUhnrGbCkoVSSaEFXwEkVjXQ1KMP6vSmCPkVpUU+zq3bMMUT7a
2Y5PLUqr5hZ6YUkuTgpIxS6UTNWo+ORJ2V8rTx/gLf/36B3pz+FG1FCs2crtxqQL
9O/s1Z//pcjIuPAhvabae6HN82RMCd1WIpS8jvaldsIG1PEaN3ZJ1ZlXZPHBdaPt
iLOvqiQoJ5a5AyvfiekrR27Tr68j+VlmLsQefrtE2tXbt9an33/EKHnH2UuSGNGu
y2Ixa336OxZ6tQ==
-----END CERTIFICATE-----
