Certificate:
    Data:
        Version: 3 (0x2)
        Serial Number: 7 (0x7)
        Signature Algorithm: sha256WithRSAEncryption
        Issuer: C=US, ST=Washington, L=Seattle, O=wolfSSL, OU=Engineering, CN=wolfSSL intermediate CA 2, emailAddress=info@wolfssl.com
        Validity
            Not Before: Nov 13 20:41:36 2025 GMT
            Not After : Aug  9 20:41:36 2028 GMT
        Subject: C=US, ST=Washington, L=Seattle, O=wolfSSL, OU=Engineering, CN=www3.wolfssl.com, emailAddress=info@wolfssl.com
        Subject Public Key Info:
            Public Key Algorithm: rsaEncryption
                Public-Key: (2048 bit)
                Modulus:
                    00:be:19:65:1e:17:39:d4:33:fc:97:64:69:80:51:
                    fb:6c:7c:ca:e1:ba:2a:ab:d2:dd:30:61:f3:2e:47:
                    c1:d4:33:c0:ff:53:21:ba:2d:14:a6:b9:7c:66:ca:
                    45:7b:1c:7d:8f:fc:75:f3:9a:69:f1:6c:25:46:a0:
                    92:5d:00:93:e3:22:a6:60:b9:97:05:37:7f:a1:aa:
                    cd:22:81:72:b1:22:47:3d:7c:8d:46:55:bc:32:4d:
                    d2:84:43:5c:15:43:07:22:70:36:39:93:1b:e8:a1:
                    46:bb:02:85:ba:1d:31:ac:b1:3c:84:5b:eb:8f:1f:
                    62:8a:71:52:9e:0b:63:b6:e6:d6:46:cc:19:06:d6:
                    bb:06:81:e4:0b:25:14:6c:63:94:70:1a:27:37:95:
                    24:40:07:30:f5:24:73:c3:bd:f9:0e:5f:b6:cd:4f:
                    18:88:f0:d7:a3:9b:f5:b0:1e:fe:04:03:a5:8d:73:
                    f7:6b:31:74:85:fd:61:fa:9e:53:37:75:90:e6:f8:
                    b5:98:66:e8:52:4d:4a:4c:39:05:65:c1:34:f9:c6:
                    95:27:b0:07:c1:51:96:a8:82:1b:22:cf:41:df:de:
                    b4:94:b7:0d:ba:61:fb:f4:40:7c:a1:fc:a2:29:a3:
                    47:4d:b4:94:9d:7b:51:ec:e4:13:fb:cd:e9:26:ca:
                    a7:93
                Exponent: 65537 (0x10001)
        X509v3 extensions:
            X509v3 Basic Constraints: 
                CA:FALSE
            X509v3 Subject Key Identifier: 
                C1:CD:C0:2C:34:F4:3B:BB:E3:CA:98:35:7D:6A:15:33:94:5C:11:3A
            X509v3 Authority Key Identifier: 
                keyid:05:D1:BA:86:00:A2:EE:2A:05:24:B7:11:AD:2D:60:F1:90:14:8F:17
                DirName:/C=US/ST=Washington/L=Seattle/O=wolfSSL/OU=Engineering/CN=wolfSSL root CA/emailAddress=info@wolfssl.com
                serial:02
            X509v3 Key Usage: 
                Digital Signature, Non Repudiation, Key Encipherment
            Authority Information Access: 
                OCSP - URI:http://127.0.0.1:22222
    Signature Algorithm: sha256WithRSAEncryption
    Signature Value:
        03:be:1c:a7:a6:fd:ad:24:f8:47:8d:92:57:3c:05:f9:a9:2d:
        18:35:99:35:b8:93:d1:9b:82:ba:4e:4c:8c:cb:92:19:86:ab:
        3d:27:0f:b2:35:45:d3:c8:18:4a:b0:17:ab:c4:9b:23:d8:fe:
        ee:4f:6e:80:dc:8e:3d:46:fb:70:50:29:d9:34:9b:96:a6:fc:
        f5:0e:43:5c:49:a1:a7:35:96:3d:7f:15:0b:93:09:32:6d:26:
        e2:da:4f:b2:61:57:1c:7d:df:dd:8d:42:92:f4:78:a4:8e:4f:
        e8:09:63:12:9a:c6:b6:35:1b:8d:f6:c0:36:64:ff:ad:64:96:
        0c:83:94:c6:a7:30:cb:4d:c8:f9:c9:61:85:18:f3:7d:8b:00:
        93:e4:ea:6e:cf:cf:2e:cc:ab:b6:e1:19:47:98:44:b9:29:04:
        39:dc:f1:83:81:19:73:ca:dd:fa:16:3a:d4:1c:a7:f7:b8:d8:
        4c:b9:40:4f:bb:cc:a2:99:ef:0a:e6:a7:24:ee:43:fd:cc:63:
        f3:6b:3d:60:18:cf:2e:71:79:fe:31:8a:1f:3d:86:46:52:b2:
        c5:32:39:0a:bb:44:42:db:8c:41:5f:d0:0c:76:c4:70:df:74:
        46:14:c5:81:03:b3:e4:07:34:60:8c:ec:78:0a:8a:af:b4:ab:
        79:fe:f9:53
-----BEGIN CERTIFICATE-----
MIIE7jCCA9agAwIBAgIBBzANBgkqhkiG9w0BAQsFADCBoTELMAkGA1UEBhMCVVMx
EzARBgNVBAgMCldhc2hpbmd0b24xEDAOBgNVBAcMB1NlYXR0bGUxEDAOBgNVBAoM
B3dvbGZTU0wxFDASBgNVBAsMC0VuZ2luZWVyaW5nMSIwIAYDVQQDDBl3b2xmU1NM
IGludGVybWVkaWF0ZSBDQSAyMR8wHQYJKoZIhvcNAQkBFhBpbmZvQHdvbGZzc2wu
Y29tMB4XDTI1MTExMzIwNDEzNloXDTI4MDgwOTIwNDEzNlowgZgxCzAJBgNVBAYT
AlVTMRMwEQYDVQQIDApXYXNoaW5ndG9uMRAwDgYDVQQHDAdTZWF0dGxlMRAwDgYD
VQQKDAd3b2xmU1NMMRQwEgYDVQQLDAtFbmdpbmVlcmluZzEZMBcGA1UEAwwQd3d3
My53b2xmc3NsLmNvbTEfMB0GCSqGSIb3DQEJARYQaW5mb0B3b2xmc3NsLmNvbTCC
ASIwDQYJKoZIhvcNAQEBBQADggEPADCCAQoCggEBAL4ZZR4XOdQz/JdkaYBR+2x8
yuG6KqvS3TBh8y5HwdQzwP9TIbotFKa5fGbKRXscfY/8dfOaafFsJUagkl0Ak+Mi
pmC5lwU3f6GqzSKBcrEiRz18jUZVvDJN0oRDXBVDByJwNjmTG+ihRrsChbodMayx
PIRb648fYopxUp4LY7bm1kbMGQbWuwaB5AslFGxjlHAaJzeVJEAHMPUkc8O9+Q5f
ts1PGIjw16Ob9bAe/gQDpY1z92sxdIX9YfqeUzd1kOb4tZhm6FJNSkw5BWXBNPnG
lSewB8FRlqiCGyLPQd/etJS3Dbph+/RAfKH8oimjR020lJ17UezkE/vN6SbKp5MC
AwEAAaOCATYwggEyMAkGA1UdEwQCMAAwHQYDVR0OBBYEFMHNwCw09Du748qYNX1q
FTOUXBE6MIHEBgNVHSMEgbwwgbmAFAXRuoYAou4qBSS3Ea0tYPGQFI8XoYGdpIGa
MIGXMQswCQYDVQQGEwJVUzETMBEGA1UECAwKV2FzaGluZ3RvbjEQMA4GA1UEBwwH
U2VhdHRsZTEQMA4GA1UECgwHd29sZlNTTDEUMBIGA1UECwwLRW5naW5lZXJpbmcx
GDAWBgNVBAMMD3dvbGZTU0wgcm9vdCBDQTEfMB0GCSqGSIb3DQEJARYQaW5mb0B3
b2xmc3NsLmNvbYIBAjALBgNVHQ8EBAMCBeAwMgYIKwYBBQUHAQEEJjAkMCIGCCsG
AQUFBzABhhZodHRwOi8vMTI3LjAuMC4xOjIyMjIyMA0GCSqGSIb3DQEBCwUAA4IB
AQADvhynpv2tJPhHjZJXPAX5qS0YNZk1uJPRm4K6TkyMy5IZhqs9Jw+yNUXTyBhK
sBerxJsj2P7uT26A3I49RvtwUCnZNJuWpvz1DkNcSaGnNZY9fxULkwkybSbi2k+y
YVccfd/djUKS9Hikjk/oCWMSmsa2NRuN9sA2ZP+tZJYMg5TGpzDLTcj5yWGFGPN9
iwCT5Opuz88uzKu24RlHmES5KQQ53PGDgRlzyt36FjrUHKf3uNhMuUBPu8yime8K
5qck7kP9zGPzaz1gGM8ucXn+MYofPYZGUrLFMjkKu0RC24xBX9AMdsRw33RGFMWB
A7PkBzRgjOx4CoqvtKt5/vlT
-----END CERTIFICATE-----
Certificate:
    Data:
        Version: 3 (0x2)
        Serial Number: 2 (0x2)
        Signature Algorithm: sha256WithRSAEncryption
        Issuer: C=US, ST=Washington, L=Seattle, O=wolfSSL, OU=Engineering, CN=wolfSSL root CA, emailAddress=info@wolfssl.com
        Validity
            Not Before: Nov 13 20:41:35 2025 GMT
            Not After : Aug  9 20:41:35 2028 GMT
        Subject: C=US, ST=Washington, L=Seattle, O=wolfSSL, OU=Engineering, CN=wolfSSL intermediate CA 2, emailAddress=info@wolfssl.com
        Subject Public Key Info:
            Public Key Algorithm: rsaEncryption
                Public-Key: (2048 bit)
                Modulus:
                    00:d0:20:3c:35:19:6f:2c:44:b4:7e:42:c7:75:b4:
                    6a:2b:a9:23:85:bf:87:b4:ee:ca:d7:4b:1f:31:d7:
                    11:02:a1:ab:58:3d:fb:dc:51:ca:3a:1d:1f:95:a6:
                    56:82:f7:8f:ff:6b:50:bb:ea:10:e1:47:1d:35:77:
                    2e:4b:28:c5:53:46:23:2b:82:fd:5a:d3:f4:21:db:
                    0e:e0:f2:76:33:47:b3:00:be:3a:b1:23:98:53:eb:
                    ea:a0:de:1b:cc:05:4e:ee:63:a8:2c:93:24:d6:98:
                    78:74:03:e4:c8:89:43:61:f1:25:b8:cd:3b:87:c1:
                    31:25:fd:ba:4c:fc:29:94:45:9e:69:d7:67:0a:8a:
                    8e:d5:52:93:30:a2:0e:dd:6a:1c:b0:94:77:db:52:
                    52:b7:89:21:be:96:75:24:cb:e9:49:df:81:9d:9d:
                    f8:55:7d:01:2a:eb:78:03:12:e2:20:6e:db:63:35:
                    cd:a1:96:f0:f8:8c:20:35:69:87:01:ca:b4:54:36:
                    a0:15:e0:23:7d:b9:fb:be:99:05:50:f0:bf:ec:7f:
                    12:e1:3d:75:15:4e:c8:c2:30:e6:8b:fe:e5:8b:55:
                    f8:44:5e:e5:e3:56:e0:66:2d:6f:42:5a:45:6b:96:
                    aa:c7:5d:41:08:5f:ce:d7:dc:9f:20:e4:46:78:ff:
                    d9:99
                Exponent: 65537 (0x10001)
        X509v3 extensions:
            X509v3 Basic Constraints: 
                CA:TRUE
            X509v3 Subject Key Identifier: 
                05:D1:BA:86:00:A2:EE:2A:05:24:B7:11:AD:2D:60:F1:90:14:8F:17
            X509v3 Authority Key Identifier: 
                keyid:73:B0:1C:A4:2F:82:CB:CF:47:A5:38:D7:B0:04:82:3A:7E:72:15:21
                DirName:/C=US/ST=Washington/L=Seattle/O=wolfSSL/OU=Engineering/CN=wolfSSL root CA/emailAddress=info@wolfssl.com
                serial:63
            X509v3 Key Usage: 
                Certificate Sign, CRL Sign
            Authority Information Access: 
                OCSP - URI:http://127.0.0.1:22220
    Signature Algorithm: sha256WithRSAEncryption
    Signature Value:
        14:28:63:b9:ba:cc:8b:e6:78:22:08:df:6a:26:01:54:0c:18:
        57:a3:3d:3b:eb:fe:a7:6f:8f:ee:b6:93:f8:09:f5:76:8b:e9:
        ad:3b:89:b3:7d:c4:87:10:9a:fe:c0:98:0a:67:fe:e9:ee:83:
        5f:45:d6:56:14:40:ee:92:6c:88:34:7a:0a:99:17:c5:4b:f3:
        12:f3:a7:b0:33:67:12:56:67:d1:46:4d:73:3a:e8:b7:48:4e:
        c5:39:eb:37:9c:d5:dd:75:6c:b1:ca:8f:3f:91:64:b0:8a:2c:
        ca:b0:c3:f4:8e:42:15:33:2d:f9:a6:3b:07:b6:ba:ee:50:e4:
        ff:c8:b3:9d:1f:af:10:74:14:d7:77:f9:66:30:22:21:41:ef:
        7b:a4:3d:de:6a:f8:f4:1f:33:34:d7:d2:71:f3:68:bb:1d:2b:
        07:e1:8e:ae:20:41:15:6d:c1:c2:13:65:21:1b:10:ea:27:14:
        19:13:bf:df:15:24:fe:08:fb:45:c3:f4:e4:00:20:70:6c:91:
        94:c7:05:0f:b4:e1:5b:b3:51:e4:16:74:f2:84:ba:d8:6e:68:
        7b:5a:e1:c8:cb:60:71:71:0b:09:7d:3d:0a:e9:97:00:20:9c:
        c3:ed:b3:9e:d1:1d:78:19:a0:0e:6d:3d:cf:08:da:18:63:c4:
        6f:11:22:28
-----BEGIN CERTIFICATE-----
MIIE8DCCA9igAwIBAgIBAjANBgkqhkiG9w0BAQsFADCBlzELMAkGA1UEBhMCVVMx
EzARBgNVBAgMCldhc2hpbmd0b24xEDAOBgNVBAcMB1NlYXR0bGUxEDAOBgNVBAoM
B3dvbGZTU0wxFDASBgNVBAsMC0VuZ2luZWVyaW5nMRgwFgYDVQQDDA93b2xmU1NM
IHJvb3QgQ0ExHzAdBgkqhkiG9w0BCQEWEGluZm9Ad29sZnNzbC5jb20wHhcNMjUx
MTEzMjA0MTM1WhcNMjgwODA5MjA0MTM1WjCBoTELMAkGA1UEBhMCVVMxEzARBgNV
BAgMCldhc2hpbmd0b24xEDAOBgNVBAcMB1NlYXR0bGUxEDAOBgNVBAoMB3dvbGZT
U0wxFDASBgNVBAsMC0VuZ2luZWVyaW5nMSIwIAYDVQQDDBl3b2xmU1NMIGludGVy
bWVkaWF0ZSBDQSAyMR8wHQYJKoZIhvcNAQkBFhBpbmZvQHdvbGZzc2wuY29tMIIB
IjANBgkqhkiG9w0BAQEFAAOCAQ8AMIIBCgKCAQEA0CA8NRlvLES0fkLHdbRqK6kj
hb+HtO7K10sfMdcRAqGrWD373FHKOh0flaZWgveP/2tQu+oQ4UcdNXcuSyjFU0Yj
K4L9WtP0IdsO4PJ2M0ezAL46sSOYU+vqoN4bzAVO7mOoLJMk1ph4dAPkyIlDYfEl
uM07h8ExJf26TPwplEWeaddnCoqO1VKTMKIO3WocsJR321JSt4khvpZ1JMvpSd+B
nZ34VX0BKut4AxLiIG7bYzXNoZbw+IwgNWmHAcq0VDagFeAjfbn7vpkFUPC/7H8S
4T11FU7IwjDmi/7li1X4RF7l41bgZi1vQlpFa5aqx11BCF/O19yfIORGeP/ZmQID
AQABo4IBOTCCATUwDAYDVR0TBAUwAwEB/zAdBgNVHQ4EFgQUBdG6hgCi7ioFJLcR
rS1g8ZAUjxcwgcQGA1UdIwSBvDCBuYAUc7AcpC+Cy89HpTjXsASCOn5yFSGhgZ2k
gZowgZcxCzAJBgNVBAYTAlVTMRMwEQYDVQQIDApXYXNoaW5ndG9uMRAwDgYDVQQH
DAdTZWF0dGxlMRAwDgYDVQQKDAd3b2xmU1NMMRQwEgYDVQQLDAtFbmdpbmVlcmlu
ZzEYMBYGA1UEAwwPd29sZlNTTCByb290IENBMR8wHQYJKoZIhvcNAQkBFhBpbmZv
QHdvbGZzc2wuY29tggFjMAsGA1UdDwQEAwIBBjAyBggrBgEFBQcBAQQmMCQwIgYI
KwYBBQUHMAGGFmh0dHA6Ly8xMjcuMC4wLjE6MjIyMjAwDQYJKoZIhvcNAQELBQAD
ggEBABQoY7m6zIvmeCII32omAVQMGFejPTvr/qdvj+62k/gJ9XaL6a07ibN9xIcQ
mv7AmApn/unug19F1lYUQO6SbIg0egqZF8VL8xLzp7AzZxJWZ9FGTXM66LdITsU5
6zec1d11bLHKjz+RZLCKLMqww/SOQhUzLfmmOwe2uu5Q5P/Is50frxB0FNd3+WYw
IiFB73ukPd5q+PQfMzTX0nHzaLsdKwfhjq4gQRVtwcITZSEbEOonFBkTv98VJP4I
+0XD9OQAIHBskZTHBQ+04VuzUeQWdPKEuthuaHta4cjLYHFxCwl9PQrplwAgnMPt
s57RHXgZoA5tPc8I2hhjxG8RIig=
-----END CERTIFICATE-----
Certificate:
    Data:
        Version: 3 (0x2)
        Serial Number: 99 (0x63)
        Signature Algorithm: sha256WithRSAEncryption
        Issuer: C=US, ST=Washington, L=Seattle, O=wolfSSL, OU=Engineering, CN=wolfSSL root CA, emailAddress=info@wolfssl.com
        Validity
            Not Before: Nov 13 20:41:34 2025 GMT
            Not After : Aug  9 20:41:34 2028 GMT
        Subject: C=US, ST=Washington, L=Seattle, O=wolfSSL, OU=Engineering, CN=wolfSSL root CA, emailAddress=info@wolfssl.com
        Subject Public Key Info:
            Public Key Algorithm: rsaEncryption
                Public-Key: (2048 bit)
                Modulus:
                    00:ab:2c:b4:2f:1d:06:09:ef:4e:29:86:84:7e:cc:
                    bf:a6:79:7c:f0:c0:c1:64:25:8c:75:b7:10:05:ca:
                    48:27:0c:0e:32:1c:b0:fe:99:85:39:b6:b9:a2:f7:
                    27:ff:6d:3c:8c:16:73:29:21:7f:8b:a6:54:71:90:
                    ad:cc:05:b9:9f:15:c7:0a:3f:5f:69:f4:0a:5f:8c:
                    71:b5:2c:bf:66:e2:03:9a:32:f4:d2:ec:2a:89:4b:
                    f9:35:88:14:33:47:4e:2e:05:79:01:ed:64:36:76:
                    b9:f8:85:cd:01:88:ac:c5:b2:b1:59:b8:cd:5a:f4:
                    09:09:38:9b:da:5a:cf:ce:78:99:1f:49:3d:41:d6:
                    06:7c:52:99:c8:97:d1:b3:80:3a:a2:4f:36:c4:c5:
                    96:30:77:31:38:c8:70:cc:e1:67:06:b3:2b:2f:93:
                    b5:69:cf:83:7e:88:53:9b:0f:46:21:4c:d6:05:36:
                    44:99:60:68:47:e5:32:01:12:d4:10:73:ae:9a:34:
                    94:fa:6e:b8:58:4f:7b:5b:8a:92:97:ad:fd:97:b9:
                    75:ca:c2:d4:45:7d:17:6b:cd:2f:f3:63:7a:0e:30:
                    b5:0b:a9:d9:a6:7c:74:60:9d:cc:09:03:43:f1:0f:
                    90:d3:b7:fe:6c:9f:d9:cd:78:4b:15:ae:8c:5b:f9:
                    99:81
                Exponent: 65537 (0x10001)
        X509v3 extensions:
            X509v3 Basic Constraints: 
                CA:TRUE
            X509v3 Subject Key Identifier: 
                73:B0:1C:A4:2F:82:CB:CF:47:A5:38:D7:B0:04:82:3A:7E:72:15:21
            X509v3 Authority Key Identifier: 
                keyid:73:B0:1C:A4:2F:82:CB:CF:47:A5:38:D7:B0:04:82:3A:7E:72:15:21
                DirName:/C=US/ST=Washington/L=Seattle/O=wolfSSL/OU=Engineering/CN=wolfSSL root CA/emailAddress=info@wolfssl.com
                serial:63
            X509v3 Key Usage: 
                Certificate Sign, CRL Sign
            Authority Information Access: 
                OCSP - URI:http://127.0.0.1:22220
    Signature Algorithm: sha256WithRSAEncryption
    Signature Value:
        58:41:01:e5:1b:ce:bc:51:0c:23:b2:66:df:39:d9:1e:b1:bd:
        9a:db:fa:da:16:83:26:6e:7e:2e:f9:5d:46:9a:52:a0:09:6f:
        f2:c0:96:ba:49:ad:29:54:06:e9:21:d6:36:5e:d5:43:07:2c:
        5d:4e:b7:bf:7c:e5:91:75:ea:0d:56:7c:a3:fd:82:d8:2e:70:
        fa:fc:ab:36:36:d5:ba:63:d5:42:da:21:b4:50:9a:86:8a:df:
        21:26:03:e8:ca:6f:c7:51:50:6c:cc:40:da:4e:8f:06:15:c0:
        9a:0d:7a:80:2c:95:aa:5a:ad:e2:66:b0:32:d6:74:87:ea:7a:
        b2:46:d5:2c:cf:fa:18:8a:2f:e0:3a:ae:17:6a:f2:ce:75:8d:
        e4:4d:74:8f:e7:c6:21:29:65:5d:41:07:fb:29:d9:be:ea:b2:
        e3:80:07:8c:14:8d:a3:7d:d1:51:af:26:9d:cd:01:d5:80:af:
        68:12:41:2b:eb:94:cc:45:d1:c7:66:f3:f9:15:72:be:94:e3:
        21:6d:f1:08:78:b6:5a:ee:73:09:4b:f4:1a:5e:02:2a:25:f0:
        3d:d2:03:f2:22:15:4b:3d:aa:35:ea:90:ca:44:4e:61:77:db:
        b4:94:46:77:c6:8c:33:09:b6:84:3c:4e:ac:ad:9d:e0:2f:22:
        5a:be:25:19
-----BEGIN CERTIFICATE-----
MIIE5jCCA86gAwIBAgIBYzANBgkqhkiG9w0BAQsFADCBlzELMAkGA1UEBhMCVVMx
EzARBgNVBAgMCldhc2hpbmd0b24xEDAOBgNVBAcMB1NlYXR0bGUxEDAOBgNVBAoM
B3dvbGZTU0wxFDASBgNVBAsMC0VuZ2luZWVyaW5nMRgwFgYDVQQDDA93b2xmU1NM
IHJvb3QgQ0ExHzAdBgkqhkiG9w0BCQEWEGluZm9Ad29sZnNzbC5jb20wHhcNMjUx
MTEzMjA0MTM0WhcNMjgwODA5MjA0MTM0WjCBlzELMAkGA1UEBhMCVVMxEzARBgNV
BAgMCldhc2hpbmd0b24xEDAOBgNVBAcMB1NlYXR0bGUxEDAOBgNVBAoMB3dvbGZT
U0wxFDASBgNVBAsMC0VuZ2luZWVyaW5nMRgwFgYDVQQDDA93b2xmU1NMIHJvb3Qg
Q0ExHzAdBgkqhkiG9w0BCQEWEGluZm9Ad29sZnNzbC5jb20wggEiMA0GCSqGSIb3
DQEBAQUAA4IBDwAwggEKAoIBAQCrLLQvHQYJ704phoR+zL+meXzwwMFkJYx1txAF
ykgnDA4yHLD+mYU5trmi9yf/bTyMFnMpIX+LplRxkK3MBbmfFccKP19p9ApfjHG1
LL9m4gOaMvTS7CqJS/k1iBQzR04uBXkB7WQ2drn4hc0BiKzFsrFZuM1a9AkJOJva
Ws/OeJkfST1B1gZ8UpnIl9GzgDqiTzbExZYwdzE4yHDM4WcGsysvk7Vpz4N+iFOb
D0YhTNYFNkSZYGhH5TIBEtQQc66aNJT6brhYT3tbipKXrf2XuXXKwtRFfRdrzS/z
Y3oOMLULqdmmfHRgncwJA0PxD5DTt/5sn9nNeEsVroxb+ZmBAgMBAAGjggE5MIIB
NTAMBgNVHRMEBTADAQH/MB0GA1UdDgQWBBRzsBykL4LLz0elONewBII6fnIVITCB
xAYDVR0jBIG8MIG5gBRzsBykL4LLz0elONewBII6fnIVIaGBnaSBmjCBlzELMAkG
A1UEBhMCVVMxEzARBgNVBAgMCldhc2hpbmd0b24xEDAOBgNVBAcMB1NlYXR0bGUx
EDAOBgNVBAoMB3dvbGZTU0wxFDASBgNVBAsMC0VuZ2luZWVyaW5nMRgwFgYDVQQD
DA93b2xmU1NMIHJvb3QgQ0ExHzAdBgkqhkiG9w0BCQEWEGluZm9Ad29sZnNzbC5j
b22CAWMwCwYDVR0PBAQDAgEGMDIGCCsGAQUFBwEBBCYwJDAiBggrBgEFBQcwAYYW
aHR0cDovLzEyNy4wLjAuMToyMjIyMDANBgkqhkiG9w0BAQsFAAOCAQEAWEEB5RvO
vFEMI7Jm3znZHrG9mtv62haDJm5+LvldRppSoAlv8sCWukmtKVQG6SHWNl7VQwcs
XU63v3zlkXXqDVZ8o/2C2C5w+vyrNjbVumPVQtohtFCahorfISYD6Mpvx1FQbMxA
2k6PBhXAmg16gCyVqlqt4mawMtZ0h+p6skbVLM/6GIov4DquF2ryznWN5E10j+fG
ISllXUEH+ynZvuqy44AHjBSNo33RUa8mnc0B1YCvaBJBK+uUzEXRx2bz+RVyvpTj
IW3xCHi2Wu5zCUv0Gl4CKiXwPdID8iIVSz2qNeqQykROYXfbtJRGd8aMMwm2hDxO
rK2d4C8iWr4lGQ==
-----END CERTIFICATE-----
