Certificate:
    Data:
        Version: 3 (0x2)
        Serial Number: 5 (0x5)
    Signature Algorithm: sha256WithRSAEncryption
        Issuer: C=US, ST=Washington, L=Seattle, O=wolfSSL, OU=Engineering, CN=wolfSSL intermediate CA/emailAddress=info@wolfssl.com
        Validity
            Not Before: Dec 14 22:25:23 2015 GMT
            Not After : Sep  9 22:25:23 2018 GMT
        Subject: C=US, ST=Washington, L=Seattle, O=wolfSSL, OU=Engineering, CN=www2.wolfssl.com/emailAddress=info@wolfssl.com
        Subject Public Key Info:
            Public Key Algorithm: rsaEncryption
                Public-Key: (2048 bit)
                Modulus:
                    00:c6:35:8a:e8:aa:bd:33:c9:5e:84:43:67:42:65:
                    2a:3c:e3:89:b4:a6:67:a1:3b:ee:6d:85:d1:d3:2b:
                    6e:b1:62:d4:f1:22:43:a0:d5:b7:a5:7d:b5:f5:6c:
                    09:06:7c:8c:ef:87:af:4f:34:ce:27:eb:f3:4a:37:
                    57:c3:d7:d8:ee:e4:a0:77:65:2c:a7:c2:10:65:6b:
                    7b:48:c4:d8:28:fe:4c:4e:4f:7e:2f:20:c4:49:5b:
                    71:38:40:0d:36:a3:57:b3:44:da:be:cd:54:14:15:
                    66:0f:d3:05:08:f2:2e:03:67:2e:5c:5d:e1:b0:e6:
                    c0:25:8f:58:77:5b:d3:d7:a8:22:ea:56:d3:0e:01:
                    6d:38:34:56:47:aa:12:c4:ba:2a:ef:ec:18:f5:d4:
                    db:b9:fa:6f:dc:50:eb:ee:10:a2:14:b5:9a:12:e1:
                    e3:85:0f:79:14:b8:70:6d:0d:1c:1d:38:57:85:6a:
                    82:0c:d6:bd:2c:bf:20:f1:28:2e:f6:34:80:a7:0d:
                    32:82:35:4f:c1:b1:e5:9e:26:d5:f8:b9:39:57:43:
                    ef:ed:f1:10:5c:3e:32:ba:d9:e4:9e:40:cd:28:ea:
                    26:46:9b:a9:34:8d:9f:b9:fd:45:7d:14:f7:ce:ca:
                    3b:85:87:a7:64:74:9c:65:29:18:b3:f5:b1:ad:92:
                    62:39
                Exponent: 65537 (0x10001)
        X509v3 extensions:
            X509v3 Basic Constraints: 
                CA:FALSE
            X509v3 Subject Key Identifier: 
                7D:6D:FD:F6:0B:4F:3F:4A:62:91:F5:F3:13:60:51:86:C3:5A:9F:D6
            X509v3 Authority Key Identifier: 
                keyid:83:C6:3A:89:2C:81:F4:02:D7:9D:4C:E2:2A:C0:71:82:64:44:DA:0E
                DirName:/C=US/ST=Washington/L=Seattle/O=wolfSSL/OU=Engineering/CN=wolfSSL root CA/emailAddress=info@wolfssl.com
                serial:01

            X509v3 Key Usage: 
                Digital Signature, Non Repudiation, Key Encipherment
            Authority Information Access: 
                OCSP - URI:http://localhost:22221

    Signature Algorithm: sha256WithRSAEncryption
         a3:33:6d:91:c3:bd:b5:42:e6:6a:b8:1f:01:d8:ef:8c:ab:f9:
         f7:e2:ac:23:72:a1:77:41:67:fc:b4:c9:dd:72:d8:25:3c:40:
         17:db:87:c0:6c:55:2c:26:d2:53:d5:e7:81:8e:b3:3f:e1:fd:
         fd:73:4b:ee:75:44:04:a6:f1:56:aa:57:94:a3:5e:4d:45:49:
         4b:70:e2:bf:36:e9:8c:68:cf:37:f3:0f:ee:74:4a:ef:f8:8a:
         39:89:9f:3d:26:91:c8:cf:03:45:5a:13:8d:5f:ac:7c:c3:d9:
         34:1c:80:e5:33:40:fc:02:8a:04:36:93:ba:47:c5:bc:34:8b:
         dc:30:4c:f5:b0:42:60:3b:59:2e:d6:c6:44:bb:44:dc:2a:05:
         bd:f0:37:cc:16:27:a9:b5:f7:7d:fa:3a:7f:3c:64:62:cf:3a:
         2b:2d:85:82:bd:29:96:47:6f:a9:85:5c:4f:ae:72:eb:25:05:
         e1:c8:f2:95:9e:02:03:2c:fe:06:1c:83:3a:d2:84:d4:84:17:
         d8:49:84:3e:c6:3d:16:10:e5:65:25:68:a5:71:18:8c:2e:40:
         a0:1c:43:ba:0f:bc:6c:07:25:29:1f:ab:1e:ff:d0:45:51:3f:
         3f:f5:a1:71:c8:35:87:47:14:c5:8e:1c:e2:94:ff:27:2c:ce:
         aa:55:1c:c9
-----BEGIN CERTIFICATE-----
MIIE7DCCA9SgAwIBAgIBBTANBgkqhkiG9w0BAQsFADCBnzELMAkGA1UEBhMCVVMx
EzARBgNVBAgMCldhc2hpbmd0b24xEDAOBgNVBAcMB1NlYXR0bGUxEDAOBgNVBAoM
B3dvbGZTU0wxFDASBgNVBAsMC0VuZ2luZWVyaW5nMSAwHgYDVQQDDBd3b2xmU1NM
IGludGVybWVkaWF0ZSBDQTEfMB0GCSqGSIb3DQEJARYQaW5mb0B3b2xmc3NsLmNv
bTAeFw0xNTEyMTQyMjI1MjNaFw0xODA5MDkyMjI1MjNaMIGYMQswCQYDVQQGEwJV
UzETMBEGA1UECAwKV2FzaGluZ3RvbjEQMA4GA1UEBwwHU2VhdHRsZTEQMA4GA1UE
CgwHd29sZlNTTDEUMBIGA1UECwwLRW5naW5lZXJpbmcxGTAXBgNVBAMMEHd3dzIu
d29sZnNzbC5jb20xHzAdBgkqhkiG9w0BCQEWEGluZm9Ad29sZnNzbC5jb20wggEi
MA0GCSqGSIb3DQEBAQUAA4IBDwAwggEKAoIBAQDGNYroqr0zyV6EQ2dCZSo844m0
pmehO+5thdHTK26xYtTxIkOg1belfbX1bAkGfIzvh69PNM4n6/NKN1fD19ju5KB3
ZSynwhBla3tIxNgo/kxOT34vIMRJW3E4QA02o1ezRNq+zVQUFWYP0wUI8i4DZy5c
XeGw5sAlj1h3W9PXqCLqVtMOAW04NFZHqhLEuirv7Bj11Nu5+m/cUOvuEKIUtZoS
4eOFD3kUuHBtDRwdOFeFaoIM1r0svyDxKC72NICnDTKCNU/BseWeJtX4uTlXQ+/t
8RBcPjK62eSeQM0o6iZGm6k0jZ+5/UV9FPfOyjuFh6dkdJxlKRiz9bGtkmI5AgMB
AAGjggE2MIIBMjAJBgNVHRMEAjAAMB0GA1UdDgQWBBR9bf32C08/SmKR9fMTYFGG
w1qf1jCBxAYDVR0jBIG8MIG5gBSDxjqJLIH0AtedTOIqwHGCZETaDqGBnaSBmjCB
lzELMAkGA1UEBhMCVVMxEzARBgNVBAgMCldhc2hpbmd0b24xEDAOBgNVBAcMB1Nl
YXR0bGUxEDAOBgNVBAoMB3dvbGZTU0wxFDASBgNVBAsMC0VuZ2luZWVyaW5nMRgw
FgYDVQQDDA93b2xmU1NMIHJvb3QgQ0ExHzAdBgkqhkiG9w0BCQEWEGluZm9Ad29s
ZnNzbC5jb22CAQEwCwYDVR0PBAQDAgXgMDIGCCsGAQUFBwEBBCYwJDAiBggrBgEF
BQcwAYYWaHR0cDovL2xvY2FsaG9zdDoyMjIyMTANBgkqhkiG9w0BAQsFAAOCAQEA
ozNtkcO9tULmargfAdjvjKv59+KsI3Khd0Fn/LTJ3XLYJTxAF9uHwGxVLCbSU9Xn
gY6zP+H9/XNL7nVEBKbxVqpXlKNeTUVJS3DivzbpjGjPN/MP7nRK7/iKOYmfPSaR
yM8DRVoTjV+sfMPZNByA5TNA/AKKBDaTukfFvDSL3DBM9bBCYDtZLtbGRLtE3CoF
vfA3zBYnqbX3ffo6fzxkYs86Ky2Fgr0plkdvqYVcT65y6yUF4cjylZ4CAyz+BhyD
OtKE1IQX2EmEPsY9FhDlZSVopXEYjC5AoBxDug+8bAclKR+rHv/QRVE/P/Whccg1
h0cUxY4c4pT/JyzOqlUcyQ==
-----END CERTIFICATE-----
Certificate:
    Data:
        Version: 3 (0x2)
        Serial Number: 1 (0x1)
    Signature Algorithm: sha256WithRSAEncryption
        Issuer: C=US, ST=Washington, L=Seattle, O=wolfSSL, OU=Engineering, CN=wolfSSL root CA/emailAddress=info@wolfssl.com
        Validity
            Not Before: Dec 14 22:25:23 2015 GMT
            Not After : Sep  9 22:25:23 2018 GMT
        Subject: C=US, ST=Washington, L=Seattle, O=wolfSSL, OU=Engineering, CN=wolfSSL intermediate CA/emailAddress=info@wolfssl.com
        Subject Public Key Info:
            Public Key Algorithm: rsaEncryption
                Public-Key: (2048 bit)
                Modulus:
                    00:de:b4:c8:5c:77:e0:2d:b1:f5:b9:ad:16:47:35:
                    a0:35:65:65:c6:e1:40:ab:1e:b4:b9:13:b7:cb:8c:
                    bb:77:a5:76:da:6d:87:87:f6:4a:4d:13:e4:26:3e:
                    27:87:ee:5b:c7:6a:3f:45:30:61:55:5c:f6:35:d1:
                    65:fa:98:11:a3:a7:55:d5:be:91:82:4b:fc:be:90:
                    d6:50:53:63:9a:2c:22:e1:35:11:dc:78:02:97:8a:
                    e4:46:92:9c:53:08:76:de:1f:53:b6:b8:ca:77:3e:
                    79:6e:bc:d0:e3:0d:30:5b:4c:f6:94:0d:30:29:64:
                    9f:04:e5:db:fb:89:60:67:bb:af:26:83:51:77:24:
                    2f:2b:0b:a1:94:81:10:98:e8:eb:26:a8:1e:7c:e4:
                    c4:6c:67:06:95:55:4a:dd:52:f4:f2:60:6d:01:2b:
                    19:91:35:6d:a4:08:47:06:71:24:00:d9:de:c6:56:
                    f3:8b:53:2c:e2:9a:96:a5:f3:62:e5:c4:e3:23:f2:
                    d2:fc:21:ea:0f:62:76:8d:d5:99:48:ce:dc:58:c4:
                    bb:7f:da:94:2c:80:74:83:c5:e0:b0:15:7e:41:fd:
                    0e:f2:f4:f0:78:76:7b:ad:26:0d:aa:48:96:17:2f:
                    21:e3:95:2b:26:37:f9:aa:80:2f:fe:de:f6:5e:bc:
                    97:7f
                Exponent: 65537 (0x10001)
        X509v3 extensions:
            X509v3 Basic Constraints: 
                CA:TRUE
            X509v3 Subject Key Identifier: 
                83:C6:3A:89:2C:81:F4:02:D7:9D:4C:E2:2A:C0:71:82:64:44:DA:0E
            X509v3 Authority Key Identifier: 
                keyid:73:B0:1C:A4:2F:82:CB:CF:47:A5:38:D7:B0:04:82:3A:7E:72:15:21
                DirName:/C=US/ST=Washington/L=Seattle/O=wolfSSL/OU=Engineering/CN=wolfSSL root CA/emailAddress=info@wolfssl.com
                serial:63

            X509v3 Key Usage: 
                Certificate Sign, CRL Sign
            Authority Information Access: 
                OCSP - URI:http://localhost:22220

    Signature Algorithm: sha256WithRSAEncryption
         1b:83:ce:ad:1e:50:0f:3c:f0:26:17:23:c1:d5:98:88:c8:bc:
         30:5b:bb:01:bd:9b:cc:b3:45:0b:a3:7b:30:0a:54:3f:c7:36:
         16:4b:8b:cb:dd:d1:b3:7b:00:40:48:24:cb:46:3b:e7:e0:5c:
         7b:ec:ca:f8:e0:e5:34:5d:ae:e7:ac:87:15:cd:6c:7e:13:52:
         28:84:55:2b:2a:14:d9:fa:34:ce:fb:15:6c:10:47:c9:e6:ed:
         35:5b:4c:97:9c:dd:51:46:ac:2c:60:b7:2e:9d:2f:cb:0d:83:
         86:f0:a6:1b:6d:26:cb:7f:c4:97:51:6c:a1:a3:8d:6e:be:41:
         4a:ec:b0:cf:b4:ae:ad:e4:65:57:12:5d:bf:a0:78:ce:bf:4b:
         35:fe:bb:94:7a:f1:43:7d:0f:01:45:eb:d1:53:8b:19:db:bf:
         3e:4a:26:77:a1:b5:06:2a:64:ec:53:ca:ec:93:23:a2:4e:6a:
         82:8f:11:f4:cd:5f:6c:6e:22:cd:e1:1c:76:ce:49:f7:ca:43:
         65:aa:f5:9e:e7:ad:eb:99:4f:ff:db:fe:b8:91:ef:2c:ea:92:
         5f:bf:08:78:c1:90:22:37:f3:7e:c3:5b:fc:31:f0:5b:83:65:
         00:d6:5a:55:3a:a2:a8:3f:02:e5:ae:7a:37:7b:3c:39:e7:91:
         4a:2e:53:04
-----BEGIN CERTIFICATE-----
MIIE7jCCA9agAwIBAgIBATANBgkqhkiG9w0BAQsFADCBlzELMAkGA1UEBhMCVVMx
EzARBgNVBAgMCldhc2hpbmd0b24xEDAOBgNVBAcMB1NlYXR0bGUxEDAOBgNVBAoM
B3dvbGZTU0wxFDASBgNVBAsMC0VuZ2luZWVyaW5nMRgwFgYDVQQDDA93b2xmU1NM
IHJvb3QgQ0ExHzAdBgkqhkiG9w0BCQEWEGluZm9Ad29sZnNzbC5jb20wHhcNMTUx
MjE0MjIyNTIzWhcNMTgwOTA5MjIyNTIzWjCBnzELMAkGA1UEBhMCVVMxEzARBgNV
BAgMCldhc2hpbmd0b24xEDAOBgNVBAcMB1NlYXR0bGUxEDAOBgNVBAoMB3dvbGZT
U0wxFDASBgNVBAsMC0VuZ2luZWVyaW5nMSAwHgYDVQQDDBd3b2xmU1NMIGludGVy
bWVkaWF0ZSBDQTEfMB0GCSqGSIb3DQEJARYQaW5mb0B3b2xmc3NsLmNvbTCCASIw
DQYJKoZIhvcNAQEBBQADggEPADCCAQoCggEBAN60yFx34C2x9bmtFkc1oDVlZcbh
QKsetLkTt8uMu3eldtpth4f2Sk0T5CY+J4fuW8dqP0UwYVVc9jXRZfqYEaOnVdW+
kYJL/L6Q1lBTY5osIuE1Edx4ApeK5EaSnFMIdt4fU7a4ync+eW680OMNMFtM9pQN
MClknwTl2/uJYGe7ryaDUXckLysLoZSBEJjo6yaoHnzkxGxnBpVVSt1S9PJgbQEr
GZE1baQIRwZxJADZ3sZW84tTLOKalqXzYuXE4yPy0vwh6g9ido3VmUjO3FjEu3/a
lCyAdIPF4LAVfkH9DvL08Hh2e60mDapIlhcvIeOVKyY3+aqAL/7e9l68l38CAwEA
AaOCATkwggE1MAwGA1UdEwQFMAMBAf8wHQYDVR0OBBYEFIPGOoksgfQC151M4irA
cYJkRNoOMIHEBgNVHSMEgbwwgbmAFHOwHKQvgsvPR6U417AEgjp+chUhoYGdpIGa
MIGXMQswCQYDVQQGEwJVUzETMBEGA1UECAwKV2FzaGluZ3RvbjEQMA4GA1UEBwwH
U2VhdHRsZTEQMA4GA1UECgwHd29sZlNTTDEUMBIGA1UECwwLRW5naW5lZXJpbmcx
GDAWBgNVBAMMD3dvbGZTU0wgcm9vdCBDQTEfMB0GCSqGSIb3DQEJARYQaW5mb0B3
b2xmc3NsLmNvbYIBYzALBgNVHQ8EBAMCAQYwMgYIKwYBBQUHAQEEJjAkMCIGCCsG
AQUFBzABhhZodHRwOi8vbG9jYWxob3N0OjIyMjIwMA0GCSqGSIb3DQEBCwUAA4IB
AQAbg86tHlAPPPAmFyPB1ZiIyLwwW7sBvZvMs0ULo3swClQ/xzYWS4vL3dGzewBA
SCTLRjvn4Fx77Mr44OU0Xa7nrIcVzWx+E1IohFUrKhTZ+jTO+xVsEEfJ5u01W0yX
nN1RRqwsYLcunS/LDYOG8KYbbSbLf8SXUWyho41uvkFK7LDPtK6t5GVXEl2/oHjO
v0s1/ruUevFDfQ8BRevRU4sZ278+SiZ3obUGKmTsU8rskyOiTmqCjxH0zV9sbiLN
4Rx2zkn3ykNlqvWe563rmU//2/64ke8s6pJfvwh4wZAiN/N+w1v8MfBbg2UA1lpV
OqKoPwLlrno3ezw555FKLlME
-----END CERTIFICATE-----
Certificate:
    Data:
        Version: 3 (0x2)
        Serial Number: 99 (0x63)
    Signature Algorithm: sha256WithRSAEncryption
        Issuer: C=US, ST=Washington, L=Seattle, O=wolfSSL, OU=Engineering, CN=wolfSSL root CA/emailAddress=info@wolfssl.com
        Validity
            Not Before: Dec 14 22:25:23 2015 GMT
            Not After : Sep  9 22:25:23 2018 GMT
        Subject: C=US, ST=Washington, L=Seattle, O=wolfSSL, OU=Engineering, CN=wolfSSL root CA/emailAddress=info@wolfssl.com
        Subject Public Key Info:
            Public Key Algorithm: rsaEncryption
                Public-Key: (2048 bit)
                Modulus:
                    00:ab:2c:b4:2f:1d:06:09:ef:4e:29:86:84:7e:cc:
                    bf:a6:79:7c:f0:c0:c1:64:25:8c:75:b7:10:05:ca:
                    48:27:0c:0e:32:1c:b0:fe:99:85:39:b6:b9:a2:f7:
                    27:ff:6d:3c:8c:16:73:29:21:7f:8b:a6:54:71:90:
                    ad:cc:05:b9:9f:15:c7:0a:3f:5f:69:f4:0a:5f:8c:
                    71:b5:2c:bf:66:e2:03:9a:32:f4:d2:ec:2a:89:4b:
                    f9:35:88:14:33:47:4e:2e:05:79:01:ed:64:36:76:
                    b9:f8:85:cd:01:88:ac:c5:b2:b1:59:b8:cd:5a:f4:
                    09:09:38:9b:da:5a:cf:ce:78:99:1f:49:3d:41:d6:
                    06:7c:52:99:c8:97:d1:b3:80:3a:a2:4f:36:c4:c5:
                    96:30:77:31:38:c8:70:cc:e1:67:06:b3:2b:2f:93:
                    b5:69:cf:83:7e:88:53:9b:0f:46:21:4c:d6:05:36:
                    44:99:60:68:47:e5:32:01:12:d4:10:73:ae:9a:34:
                    94:fa:6e:b8:58:4f:7b:5b:8a:92:97:ad:fd:97:b9:
                    75:ca:c2:d4:45:7d:17:6b:cd:2f:f3:63:7a:0e:30:
                    b5:0b:a9:d9:a6:7c:74:60:9d:cc:09:03:43:f1:0f:
                    90:d3:b7:fe:6c:9f:d9:cd:78:4b:15:ae:8c:5b:f9:
                    99:81
                Exponent: 65537 (0x10001)
        X509v3 extensions:
            X509v3 Basic Constraints: 
                CA:TRUE
            X509v3 Subject Key Identifier: 
                73:B0:1C:A4:2F:82:CB:CF:47:A5:38:D7:B0:04:82:3A:7E:72:15:21
            X509v3 Authority Key Identifier: 
                keyid:73:B0:1C:A4:2F:82:CB:CF:47:A5:38:D7:B0:04:82:3A:7E:72:15:21
                DirName:/C=US/ST=Washington/L=Seattle/O=wolfSSL/OU=Engineering/CN=wolfSSL root CA/emailAddress=info@wolfssl.com
                serial:63

            X509v3 Key Usage: 
                Certificate Sign, CRL Sign
            Authority Information Access: 
                OCSP - URI:http://localhost:22220

    Signature Algorithm: sha256WithRSAEncryption
         99:fc:b4:e2:1b:08:32:4b:8e:b3:fa:b4:08:53:f6:55:36:01:
         ec:25:89:80:64:60:31:3b:0c:a3:6f:be:73:f7:1a:12:d1:7e:
         3d:db:80:30:72:a8:26:63:35:80:81:b6:61:16:34:c0:fd:e6:
         f3:dd:a5:4a:dc:7e:85:87:57:5d:48:8e:09:46:89:89:f8:66:
         56:b5:7d:57:8e:d2:b7:77:3a:b7:51:15:97:fa:e9:d7:72:a5:
         e0:e6:51:9a:f3:d8:89:7d:2c:a5:bf:34:7b:d8:f4:2f:b5:4e:
         63:97:a7:5b:69:1a:e2:1c:d8:5f:ca:a8:61:79:dc:01:40:b7:
         43:09:a7:31:a2:dd:b2:c2:0d:98:06:41:c6:60:a7:25:21:cd:
         45:84:fb:34:c7:3b:74:ed:92:c9:d9:34:8e:dc:d5:43:9e:e4:
         60:ff:b1:d8:a0:5a:5d:7d:53:8e:62:e7:b3:8c:64:cf:42:0d:
         c6:e5:13:20:20:be:4b:60:5f:6f:f3:15:5b:9c:82:62:03:9f:
         94:d4:b2:8b:86:af:ed:3b:8f:20:68:4d:14:78:23:37:d7:aa:
         d9:5e:89:e5:80:7a:6b:a4:b8:63:6f:df:32:ad:cd:5e:5f:60:
         f8:e4:fc:3a:ce:67:e7:7a:3b:68:36:98:15:4c:05:f0:53:e7:
         d5:08:52:a3
-----BEGIN CERTIFICATE-----
MIIE5jCCA86gAwIBAgIBYzANBgkqhkiG9w0BAQsFADCBlzELMAkGA1UEBhMCVVMx
EzARBgNVBAgMCldhc2hpbmd0b24xEDAOBgNVBAcMB1NlYXR0bGUxEDAOBgNVBAoM
B3dvbGZTU0wxFDASBgNVBAsMC0VuZ2luZWVyaW5nMRgwFgYDVQQDDA93b2xmU1NM
IHJvb3QgQ0ExHzAdBgkqhkiG9w0BCQEWEGluZm9Ad29sZnNzbC5jb20wHhcNMTUx
MjE0MjIyNTIzWhcNMTgwOTA5MjIyNTIzWjCBlzELMAkGA1UEBhMCVVMxEzARBgNV
BAgMCldhc2hpbmd0b24xEDAOBgNVBAcMB1NlYXR0bGUxEDAOBgNVBAoMB3dvbGZT
U0wxFDASBgNVBAsMC0VuZ2luZWVyaW5nMRgwFgYDVQQDDA93b2xmU1NMIHJvb3Qg
Q0ExHzAdBgkqhkiG9w0BCQEWEGluZm9Ad29sZnNzbC5jb20wggEiMA0GCSqGSIb3
DQEBAQUAA4IBDwAwggEKAoIBAQCrLLQvHQYJ704phoR+zL+meXzwwMFkJYx1txAF
ykgnDA4yHLD+mYU5trmi9yf/bTyMFnMpIX+LplRxkK3MBbmfFccKP19p9ApfjHG1
LL9m4gOaMvTS7CqJS/k1iBQzR04uBXkB7WQ2drn4hc0BiKzFsrFZuM1a9AkJOJva
Ws/OeJkfST1B1gZ8UpnIl9GzgDqiTzbExZYwdzE4yHDM4WcGsysvk7Vpz4N+iFOb
D0YhTNYFNkSZYGhH5TIBEtQQc66aNJT6brhYT3tbipKXrf2XuXXKwtRFfRdrzS/z
Y3oOMLULqdmmfHRgncwJA0PxD5DTt/5sn9nNeEsVroxb+ZmBAgMBAAGjggE5MIIB
NTAMBgNVHRMEBTADAQH/MB0GA1UdDgQWBBRzsBykL4LLz0elONewBII6fnIVITCB
xAYDVR0jBIG8MIG5gBRzsBykL4LLz0elONewBII6fnIVIaGBnaSBmjCBlzELMAkG
A1UEBhMCVVMxEzARBgNVBAgMCldhc2hpbmd0b24xEDAOBgNVBAcMB1NlYXR0bGUx
EDAOBgNVBAoMB3dvbGZTU0wxFDASBgNVBAsMC0VuZ2luZWVyaW5nMRgwFgYDVQQD
DA93b2xmU1NMIHJvb3QgQ0ExHzAdBgkqhkiG9w0BCQEWEGluZm9Ad29sZnNzbC5j
b22CAWMwCwYDVR0PBAQDAgEGMDIGCCsGAQUFBwEBBCYwJDAiBggrBgEFBQcwAYYW
aHR0cDovL2xvY2FsaG9zdDoyMjIyMDANBgkqhkiG9w0BAQsFAAOCAQEAmfy04hsI
MkuOs/q0CFP2VTYB7CWJgGRgMTsMo2++c/caEtF+PduAMHKoJmM1gIG2YRY0wP3m
892lStx+hYdXXUiOCUaJifhmVrV9V47St3c6t1EVl/rp13Kl4OZRmvPYiX0spb80
e9j0L7VOY5enW2ka4hzYX8qoYXncAUC3QwmnMaLdssINmAZBxmCnJSHNRYT7NMc7
dO2Sydk0jtzVQ57kYP+x2KBaXX1TjmLns4xkz0INxuUTICC+S2Bfb/MVW5yCYgOf
lNSyi4av7TuPIGhNFHgjN9eq2V6J5YB6a6S4Y2/fMq3NXl9g+OT8Os5n53o7aDaY
FUwF8FPn1QhSow==
-----END CERTIFICATE-----
