Certificate:
    Data:
        Version: 3 (0x2)
        Serial Number: 6 (0x6)
    Signature Algorithm: sha256WithRSAEncryption
        Issuer: C=US, ST=Washington, L=Seattle, O=wolfSSL, OU=Engineering, CN=wolfSSL REVOKED intermediate CA/emailAddress=info@wolfssl.com
        Validity
            Not Before: Dec 14 22:25:23 2015 GMT
            Not After : Sep  9 22:25:23 2018 GMT
        Subject: C=US, ST=Washington, L=Seattle, O=wolfSSL, OU=Engineering, CN=www3.wolfssl.com/emailAddress=info@wolfssl.com
        Subject Public Key Info:
            Public Key Algorithm: rsaEncryption
                Public-Key: (2048 bit)
                Modulus:
                    00:be:19:65:1e:17:39:d4:33:fc:97:64:69:80:51:
                    fb:6c:7c:ca:e1:ba:2a:ab:d2:dd:30:61:f3:2e:47:
                    c1:d4:33:c0:ff:53:21:ba:2d:14:a6:b9:7c:66:ca:
                    45:7b:1c:7d:8f:fc:75:f3:9a:69:f1:6c:25:46:a0:
                    92:5d:00:93:e3:22:a6:60:b9:97:05:37:7f:a1:aa:
                    cd:22:81:72:b1:22:47:3d:7c:8d:46:55:bc:32:4d:
                    d2:84:43:5c:15:43:07:22:70:36:39:93:1b:e8:a1:
                    46:bb:02:85:ba:1d:31:ac:b1:3c:84:5b:eb:8f:1f:
                    62:8a:71:52:9e:0b:63:b6:e6:d6:46:cc:19:06:d6:
                    bb:06:81:e4:0b:25:14:6c:63:94:70:1a:27:37:95:
                    24:40:07:30:f5:24:73:c3:bd:f9:0e:5f:b6:cd:4f:
                    18:88:f0:d7:a3:9b:f5:b0:1e:fe:04:03:a5:8d:73:
                    f7:6b:31:74:85:fd:61:fa:9e:53:37:75:90:e6:f8:
                    b5:98:66:e8:52:4d:4a:4c:39:05:65:c1:34:f9:c6:
                    95:27:b0:07:c1:51:96:a8:82:1b:22:cf:41:df:de:
                    b4:94:b7:0d:ba:61:fb:f4:40:7c:a1:fc:a2:29:a3:
                    47:4d:b4:94:9d:7b:51:ec:e4:13:fb:cd:e9:26:ca:
                    a7:93
                Exponent: 65537 (0x10001)
        X509v3 extensions:
            X509v3 Basic Constraints: 
                CA:FALSE
            X509v3 Subject Key Identifier: 
                C1:CD:C0:2C:34:F4:3B:BB:E3:CA:98:35:7D:6A:15:33:94:5C:11:3A
            X509v3 Authority Key Identifier: 
                keyid:05:D1:BA:86:00:A2:EE:2A:05:24:B7:11:AD:2D:60:F1:90:14:8F:17
                DirName:/C=US/ST=Washington/L=Seattle/O=wolfSSL/OU=Engineering/CN=wolfSSL root CA/emailAddress=info@wolfssl.com
                serial:02

            X509v3 Key Usage: 
                Digital Signature, Non Repudiation, Key Encipherment
            Authority Information Access: 
                OCSP - URI:http://localhost:22222

    Signature Algorithm: sha256WithRSAEncryption
         c6:3a:40:31:ac:3c:32:72:03:a9:35:86:b5:04:db:d9:39:e0:
         9a:96:54:d4:7f:b8:fe:49:2a:86:37:d8:30:a7:df:1f:08:c6:
         34:77:e3:95:6e:b8:5f:7a:2f:cd:71:04:55:e7:c1:a3:d5:14:
         93:13:b2:69:7c:6a:36:bc:09:15:f8:5a:ab:af:c8:d2:f6:ba:
         ee:2b:6b:30:d4:a6:4a:48:08:f8:58:39:1b:6b:67:dd:4c:f9:
         ee:9f:c7:cc:e7:19:68:b1:cb:d1:9d:7c:42:12:c5:25:ff:6d:
         81:24:cf:76:06:9c:a6:39:53:60:08:fe:d6:5b:ef:9e:2c:3d:
         bf:23:1e:8b:db:0f:57:ae:c4:ee:af:b3:0a:54:86:ad:65:a4:
         6b:a2:c3:ec:34:0a:c3:75:a5:06:2e:67:1c:61:52:61:61:6c:
         c4:86:15:71:ea:ac:e2:9f:b7:ae:65:59:89:ab:41:ec:4a:a1:
         d8:17:d6:15:cc:98:d7:67:a2:0b:2f:2e:85:ce:e5:32:5a:e1:
         c6:54:aa:37:31:ba:f8:31:16:bb:de:3a:d7:9d:9e:63:5d:69:
         25:9f:0e:5a:f3:9d:7f:86:0a:15:3e:64:04:8a:0c:f7:b7:e8:
         ec:4f:9f:4e:25:ef:1e:44:a0:73:ca:2e:5b:c0:f1:38:c5:15:
         29:45:04:11
-----BEGIN CERTIFICATE-----
MIIE9DCCA9ygAwIBAgIBBjANBgkqhkiG9w0BAQsFADCBpzELMAkGA1UEBhMCVVMx
EzARBgNVBAgMCldhc2hpbmd0b24xEDAOBgNVBAcMB1NlYXR0bGUxEDAOBgNVBAoM
B3dvbGZTU0wxFDASBgNVBAsMC0VuZ2luZWVyaW5nMSgwJgYDVQQDDB93b2xmU1NM
IFJFVk9LRUQgaW50ZXJtZWRpYXRlIENBMR8wHQYJKoZIhvcNAQkBFhBpbmZvQHdv
bGZzc2wuY29tMB4XDTE1MTIxNDIyMjUyM1oXDTE4MDkwOTIyMjUyM1owgZgxCzAJ
BgNVBAYTAlVTMRMwEQYDVQQIDApXYXNoaW5ndG9uMRAwDgYDVQQHDAdTZWF0dGxl
MRAwDgYDVQQKDAd3b2xmU1NMMRQwEgYDVQQLDAtFbmdpbmVlcmluZzEZMBcGA1UE
AwwQd3d3My53b2xmc3NsLmNvbTEfMB0GCSqGSIb3DQEJARYQaW5mb0B3b2xmc3Ns
LmNvbTCCASIwDQYJKoZIhvcNAQEBBQADggEPADCCAQoCggEBAL4ZZR4XOdQz/Jdk
aYBR+2x8yuG6KqvS3TBh8y5HwdQzwP9TIbotFKa5fGbKRXscfY/8dfOaafFsJUag
kl0Ak+MipmC5lwU3f6GqzSKBcrEiRz18jUZVvDJN0oRDXBVDByJwNjmTG+ihRrsC
hbodMayxPIRb648fYopxUp4LY7bm1kbMGQbWuwaB5AslFGxjlHAaJzeVJEAHMPUk
c8O9+Q5fts1PGIjw16Ob9bAe/gQDpY1z92sxdIX9YfqeUzd1kOb4tZhm6FJNSkw5
BWXBNPnGlSewB8FRlqiCGyLPQd/etJS3Dbph+/RAfKH8oimjR020lJ17UezkE/vN
6SbKp5MCAwEAAaOCATYwggEyMAkGA1UdEwQCMAAwHQYDVR0OBBYEFMHNwCw09Du7
48qYNX1qFTOUXBE6MIHEBgNVHSMEgbwwgbmAFAXRuoYAou4qBSS3Ea0tYPGQFI8X
oYGdpIGaMIGXMQswCQYDVQQGEwJVUzETMBEGA1UECAwKV2FzaGluZ3RvbjEQMA4G
A1UEBwwHU2VhdHRsZTEQMA4GA1UECgwHd29sZlNTTDEUMBIGA1UECwwLRW5naW5l
ZXJpbmcxGDAWBgNVBAMMD3dvbGZTU0wgcm9vdCBDQTEfMB0GCSqGSIb3DQEJARYQ
aW5mb0B3b2xmc3NsLmNvbYIBAjALBgNVHQ8EBAMCBeAwMgYIKwYBBQUHAQEEJjAk
MCIGCCsGAQUFBzABhhZodHRwOi8vbG9jYWxob3N0OjIyMjIyMA0GCSqGSIb3DQEB
CwUAA4IBAQDGOkAxrDwycgOpNYa1BNvZOeCallTUf7j+SSqGN9gwp98fCMY0d+OV
brhfei/NcQRV58Gj1RSTE7JpfGo2vAkV+Fqrr8jS9rruK2sw1KZKSAj4WDkba2fd
TPnun8fM5xloscvRnXxCEsUl/22BJM92BpymOVNgCP7WW++eLD2/Ix6L2w9XrsTu
r7MKVIatZaRrosPsNArDdaUGLmccYVJhYWzEhhVx6qzin7euZVmJq0HsSqHYF9YV
zJjXZ6ILLy6FzuUyWuHGVKo3Mbr4MRa73jrXnZ5jXWklnw5a851/hgoVPmQEigz3
t+jsT59OJe8eRKBzyi5bwPE4xRUpRQQR
-----END CERTIFICATE-----
Certificate:
    Data:
        Version: 3 (0x2)
        Serial Number: 2 (0x2)
    Signature Algorithm: sha256WithRSAEncryption
        Issuer: C=US, ST=Washington, L=Seattle, O=wolfSSL, OU=Engineering, CN=wolfSSL root CA/emailAddress=info@wolfssl.com
        Validity
            Not Before: Dec 14 22:25:23 2015 GMT
            Not After : Sep  9 22:25:23 2018 GMT
        Subject: C=US, ST=Washington, L=Seattle, O=wolfSSL, OU=Engineering, CN=wolfSSL REVOKED intermediate CA/emailAddress=info@wolfssl.com
        Subject Public Key Info:
            Public Key Algorithm: rsaEncryption
                Public-Key: (2048 bit)
                Modulus:
                    00:d0:20:3c:35:19:6f:2c:44:b4:7e:42:c7:75:b4:
                    6a:2b:a9:23:85:bf:87:b4:ee:ca:d7:4b:1f:31:d7:
                    11:02:a1:ab:58:3d:fb:dc:51:ca:3a:1d:1f:95:a6:
                    56:82:f7:8f:ff:6b:50:bb:ea:10:e1:47:1d:35:77:
                    2e:4b:28:c5:53:46:23:2b:82:fd:5a:d3:f4:21:db:
                    0e:e0:f2:76:33:47:b3:00:be:3a:b1:23:98:53:eb:
                    ea:a0:de:1b:cc:05:4e:ee:63:a8:2c:93:24:d6:98:
                    78:74:03:e4:c8:89:43:61:f1:25:b8:cd:3b:87:c1:
                    31:25:fd:ba:4c:fc:29:94:45:9e:69:d7:67:0a:8a:
                    8e:d5:52:93:30:a2:0e:dd:6a:1c:b0:94:77:db:52:
                    52:b7:89:21:be:96:75:24:cb:e9:49:df:81:9d:9d:
                    f8:55:7d:01:2a:eb:78:03:12:e2:20:6e:db:63:35:
                    cd:a1:96:f0:f8:8c:20:35:69:87:01:ca:b4:54:36:
                    a0:15:e0:23:7d:b9:fb:be:99:05:50:f0:bf:ec:7f:
                    12:e1:3d:75:15:4e:c8:c2:30:e6:8b:fe:e5:8b:55:
                    f8:44:5e:e5:e3:56:e0:66:2d:6f:42:5a:45:6b:96:
                    aa:c7:5d:41:08:5f:ce:d7:dc:9f:20:e4:46:78:ff:
                    d9:99
                Exponent: 65537 (0x10001)
        X509v3 extensions:
            X509v3 Basic Constraints: 
                CA:TRUE
            X509v3 Subject Key Identifier: 
                05:D1:BA:86:00:A2:EE:2A:05:24:B7:11:AD:2D:60:F1:90:14:8F:17
            X509v3 Authority Key Identifier: 
                keyid:73:B0:1C:A4:2F:82:CB:CF:47:A5:38:D7:B0:04:82:3A:7E:72:15:21
                DirName:/C=US/ST=Washington/L=Seattle/O=wolfSSL/OU=Engineering/CN=wolfSSL root CA/emailAddress=info@wolfssl.com
                serial:63

            X509v3 Key Usage: 
                Certificate Sign, CRL Sign
            Authority Information Access: 
                OCSP - URI:http://localhost:22220

    Signature Algorithm: sha256WithRSAEncryption
         85:95:3d:99:83:f5:4b:6f:b5:87:88:7a:2f:fe:02:c6:a5:2d:
         55:ff:e6:f3:72:c2:ed:2b:3f:cd:b5:59:5b:30:19:6e:5f:7b:
         2d:48:1e:d1:8e:65:04:86:0e:ef:01:50:ed:d7:ff:23:7e:2c:
         40:37:48:9d:aa:82:cb:82:c9:d7:f4:07:8b:73:6a:3a:fb:1b:
         2f:9d:e7:af:14:5f:2b:49:b2:87:3a:eb:c3:0f:f2:13:d7:49:
         6c:9a:d2:26:39:fa:f8:48:f4:9b:19:30:95:39:67:d8:63:37:
         d6:b9:bf:fd:32:e1:fc:a9:2a:97:99:cb:cf:f6:fa:42:4b:ee:
         0e:87:92:16:dc:7e:70:dc:46:ee:8d:52:14:74:b5:6c:4b:9e:
         e4:e7:b6:46:1c:82:2b:c5:4c:7d:84:f0:65:15:78:8c:2c:c7:
         7e:6d:db:8d:fc:64:4c:61:a0:b4:87:83:f6:04:59:71:43:8b:
         40:03:ad:e0:18:b9:94:0e:b9:05:22:6a:52:92:fe:48:04:cf:
         a4:8c:ca:f6:f6:1c:29:c8:b0:83:a1:79:1a:9a:49:5a:73:c4:
         3d:16:4a:f7:c9:b5:dd:67:2b:bd:7c:11:ac:7f:74:8f:4b:dd:
         ed:d3:ea:b8:6d:3a:3e:e7:ff:fc:d8:05:7b:47:49:c0:cc:6e:
         9a:71:23:96
-----BEGIN CERTIFICATE-----
MIIE9jCCA96gAwIBAgIBAjANBgkqhkiG9w0BAQsFADCBlzELMAkGA1UEBhMCVVMx
EzARBgNVBAgMCldhc2hpbmd0b24xEDAOBgNVBAcMB1NlYXR0bGUxEDAOBgNVBAoM
B3dvbGZTU0wxFDASBgNVBAsMC0VuZ2luZWVyaW5nMRgwFgYDVQQDDA93b2xmU1NM
IHJvb3QgQ0ExHzAdBgkqhkiG9w0BCQEWEGluZm9Ad29sZnNzbC5jb20wHhcNMTUx
MjE0MjIyNTIzWhcNMTgwOTA5MjIyNTIzWjCBpzELMAkGA1UEBhMCVVMxEzARBgNV
BAgMCldhc2hpbmd0b24xEDAOBgNVBAcMB1NlYXR0bGUxEDAOBgNVBAoMB3dvbGZT
U0wxFDASBgNVBAsMC0VuZ2luZWVyaW5nMSgwJgYDVQQDDB93b2xmU1NMIFJFVk9L
RUQgaW50ZXJtZWRpYXRlIENBMR8wHQYJKoZIhvcNAQkBFhBpbmZvQHdvbGZzc2wu
Y29tMIIBIjANBgkqhkiG9w0BAQEFAAOCAQ8AMIIBCgKCAQEA0CA8NRlvLES0fkLH
dbRqK6kjhb+HtO7K10sfMdcRAqGrWD373FHKOh0flaZWgveP/2tQu+oQ4UcdNXcu
SyjFU0YjK4L9WtP0IdsO4PJ2M0ezAL46sSOYU+vqoN4bzAVO7mOoLJMk1ph4dAPk
yIlDYfEluM07h8ExJf26TPwplEWeaddnCoqO1VKTMKIO3WocsJR321JSt4khvpZ1
JMvpSd+BnZ34VX0BKut4AxLiIG7bYzXNoZbw+IwgNWmHAcq0VDagFeAjfbn7vpkF
UPC/7H8S4T11FU7IwjDmi/7li1X4RF7l41bgZi1vQlpFa5aqx11BCF/O19yfIORG
eP/ZmQIDAQABo4IBOTCCATUwDAYDVR0TBAUwAwEB/zAdBgNVHQ4EFgQUBdG6hgCi
7ioFJLcRrS1g8ZAUjxcwgcQGA1UdIwSBvDCBuYAUc7AcpC+Cy89HpTjXsASCOn5y
FSGhgZ2kgZowgZcxCzAJBgNVBAYTAlVTMRMwEQYDVQQIDApXYXNoaW5ndG9uMRAw
DgYDVQQHDAdTZWF0dGxlMRAwDgYDVQQKDAd3b2xmU1NMMRQwEgYDVQQLDAtFbmdp
bmVlcmluZzEYMBYGA1UEAwwPd29sZlNTTCByb290IENBMR8wHQYJKoZIhvcNAQkB
FhBpbmZvQHdvbGZzc2wuY29tggFjMAsGA1UdDwQEAwIBBjAyBggrBgEFBQcBAQQm
MCQwIgYIKwYBBQUHMAGGFmh0dHA6Ly9sb2NhbGhvc3Q6MjIyMjAwDQYJKoZIhvcN
AQELBQADggEBAIWVPZmD9UtvtYeIei/+AsalLVX/5vNywu0rP821WVswGW5fey1I
HtGOZQSGDu8BUO3X/yN+LEA3SJ2qgsuCydf0B4tzajr7Gy+d568UXytJsoc668MP
8hPXSWya0iY5+vhI9JsZMJU5Z9hjN9a5v/0y4fypKpeZy8/2+kJL7g6HkhbcfnDc
Ru6NUhR0tWxLnuTntkYcgivFTH2E8GUVeIwsx35t2438ZExhoLSHg/YEWXFDi0AD
reAYuZQOuQUialKS/kgEz6SMyvb2HCnIsIOheRqaSVpzxD0WSvfJtd1nK718Eax/
dI9L3e3T6rhtOj7n//zYBXtHScDMbppxI5Y=
-----END CERTIFICATE-----
Certificate:
    Data:
        Version: 3 (0x2)
        Serial Number: 99 (0x63)
    Signature Algorithm: sha256WithRSAEncryption
        Issuer: C=US, ST=Washington, L=Seattle, O=wolfSSL, OU=Engineering, CN=wolfSSL root CA/emailAddress=info@wolfssl.com
        Validity
            Not Before: Dec 14 22:25:23 2015 GMT
            Not After : Sep  9 22:25:23 2018 GMT
        Subject: C=US, ST=Washington, L=Seattle, O=wolfSSL, OU=Engineering, CN=wolfSSL root CA/emailAddress=info@wolfssl.com
        Subject Public Key Info:
            Public Key Algorithm: rsaEncryption
                Public-Key: (2048 bit)
                Modulus:
                    00:ab:2c:b4:2f:1d:06:09:ef:4e:29:86:84:7e:cc:
                    bf:a6:79:7c:f0:c0:c1:64:25:8c:75:b7:10:05:ca:
                    48:27:0c:0e:32:1c:b0:fe:99:85:39:b6:b9:a2:f7:
                    27:ff:6d:3c:8c:16:73:29:21:7f:8b:a6:54:71:90:
                    ad:cc:05:b9:9f:15:c7:0a:3f:5f:69:f4:0a:5f:8c:
                    71:b5:2c:bf:66:e2:03:9a:32:f4:d2:ec:2a:89:4b:
                    f9:35:88:14:33:47:4e:2e:05:79:01:ed:64:36:76:
                    b9:f8:85:cd:01:88:ac:c5:b2:b1:59:b8:cd:5a:f4:
                    09:09:38:9b:da:5a:cf:ce:78:99:1f:49:3d:41:d6:
                    06:7c:52:99:c8:97:d1:b3:80:3a:a2:4f:36:c4:c5:
                    96:30:77:31:38:c8:70:cc:e1:67:06:b3:2b:2f:93:
                    b5:69:cf:83:7e:88:53:9b:0f:46:21:4c:d6:05:36:
                    44:99:60:68:47:e5:32:01:12:d4:10:73:ae:9a:34:
                    94:fa:6e:b8:58:4f:7b:5b:8a:92:97:ad:fd:97:b9:
                    75:ca:c2:d4:45:7d:17:6b:cd:2f:f3:63:7a:0e:30:
                    b5:0b:a9:d9:a6:7c:74:60:9d:cc:09:03:43:f1:0f:
                    90:d3:b7:fe:6c:9f:d9:cd:78:4b:15:ae:8c:5b:f9:
                    99:81
                Exponent: 65537 (0x10001)
        X509v3 extensions:
            X509v3 Basic Constraints: 
                CA:TRUE
            X509v3 Subject Key Identifier: 
                73:B0:1C:A4:2F:82:CB:CF:47:A5:38:D7:B0:04:82:3A:7E:72:15:21
            X509v3 Authority Key Identifier: 
                keyid:73:B0:1C:A4:2F:82:CB:CF:47:A5:38:D7:B0:04:82:3A:7E:72:15:21
                DirName:/C=US/ST=Washington/L=Seattle/O=wolfSSL/OU=Engineering/CN=wolfSSL root CA/emailAddress=info@wolfssl.com
                serial:63

            X509v3 Key Usage: 
                Certificate Sign, CRL Sign
            Authority Information Access: 
                OCSP - URI:http://localhost:22220

    Signature Algorithm: sha256WithRSAEncryption
         99:fc:b4:e2:1b:08:32:4b:8e:b3:fa:b4:08:53:f6:55:36:01:
         ec:25:89:80:64:60:31:3b:0c:a3:6f:be:73:f7:1a:12:d1:7e:
         3d:db:80:30:72:a8:26:63:35:80:81:b6:61:16:34:c0:fd:e6:
         f3:dd:a5:4a:dc:7e:85:87:57:5d:48:8e:09:46:89:89:f8:66:
         56:b5:7d:57:8e:d2:b7:77:3a:b7:51:15:97:fa:e9:d7:72:a5:
         e0:e6:51:9a:f3:d8:89:7d:2c:a5:bf:34:7b:d8:f4:2f:b5:4e:
         63:97:a7:5b:69:1a:e2:1c:d8:5f:ca:a8:61:79:dc:01:40:b7:
         43:09:a7:31:a2:dd:b2:c2:0d:98:06:41:c6:60:a7:25:21:cd:
         45:84:fb:34:c7:3b:74:ed:92:c9:d9:34:8e:dc:d5:43:9e:e4:
         60:ff:b1:d8:a0:5a:5d:7d:53:8e:62:e7:b3:8c:64:cf:42:0d:
         c6:e5:13:20:20:be:4b:60:5f:6f:f3:15:5b:9c:82:62:03:9f:
         94:d4:b2:8b:86:af:ed:3b:8f:20:68:4d:14:78:23:37:d7:aa:
         d9:5e:89:e5:80:7a:6b:a4:b8:63:6f:df:32:ad:cd:5e:5f:60:
         f8:e4:fc:3a:ce:67:e7:7a:3b:68:36:98:15:4c:05:f0:53:e7:
         d5:08:52:a3
-----BEGIN CERTIFICATE-----
MIIE5jCCA86gAwIBAgIBYzANBgkqhkiG9w0BAQsFADCBlzELMAkGA1UEBhMCVVMx
EzARBgNVBAgMCldhc2hpbmd0b24xEDAOBgNVBAcMB1NlYXR0bGUxEDAOBgNVBAoM
B3dvbGZTU0wxFDASBgNVBAsMC0VuZ2luZWVyaW5nMRgwFgYDVQQDDA93b2xmU1NM
IHJvb3QgQ0ExHzAdBgkqhkiG9w0BCQEWEGluZm9Ad29sZnNzbC5jb20wHhcNMTUx
MjE0MjIyNTIzWhcNMTgwOTA5MjIyNTIzWjCBlzELMAkGA1UEBhMCVVMxEzARBgNV
BAgMCldhc2hpbmd0b24xEDAOBgNVBAcMB1NlYXR0bGUxEDAOBgNVBAoMB3dvbGZT
U0wxFDASBgNVBAsMC0VuZ2luZWVyaW5nMRgwFgYDVQQDDA93b2xmU1NMIHJvb3Qg
Q0ExHzAdBgkqhkiG9w0BCQEWEGluZm9Ad29sZnNzbC5jb20wggEiMA0GCSqGSIb3
DQEBAQUAA4IBDwAwggEKAoIBAQCrLLQvHQYJ704phoR+zL+meXzwwMFkJYx1txAF
ykgnDA4yHLD+mYU5trmi9yf/bTyMFnMpIX+LplRxkK3MBbmfFccKP19p9ApfjHG1
LL9m4gOaMvTS7CqJS/k1iBQzR04uBXkB7WQ2drn4hc0BiKzFsrFZuM1a9AkJOJva
Ws/OeJkfST1B1gZ8UpnIl9GzgDqiTzbExZYwdzE4yHDM4WcGsysvk7Vpz4N+iFOb
D0YhTNYFNkSZYGhH5TIBEtQQc66aNJT6brhYT3tbipKXrf2XuXXKwtRFfRdrzS/z
Y3oOMLULqdmmfHRgncwJA0PxD5DTt/5sn9nNeEsVroxb+ZmBAgMBAAGjggE5MIIB
NTAMBgNVHRMEBTADAQH/MB0GA1UdDgQWBBRzsBykL4LLz0elONewBII6fnIVITCB
xAYDVR0jBIG8MIG5gBRzsBykL4LLz0elONewBII6fnIVIaGBnaSBmjCBlzELMAkG
A1UEBhMCVVMxEzARBgNVBAgMCldhc2hpbmd0b24xEDAOBgNVBAcMB1NlYXR0bGUx
EDAOBgNVBAoMB3dvbGZTU0wxFDASBgNVBAsMC0VuZ2luZWVyaW5nMRgwFgYDVQQD
DA93b2xmU1NMIHJvb3QgQ0ExHzAdBgkqhkiG9w0BCQEWEGluZm9Ad29sZnNzbC5j
b22CAWMwCwYDVR0PBAQDAgEGMDIGCCsGAQUFBwEBBCYwJDAiBggrBgEFBQcwAYYW
aHR0cDovL2xvY2FsaG9zdDoyMjIyMDANBgkqhkiG9w0BAQsFAAOCAQEAmfy04hsI
MkuOs/q0CFP2VTYB7CWJgGRgMTsMo2++c/caEtF+PduAMHKoJmM1gIG2YRY0wP3m
892lStx+hYdXXUiOCUaJifhmVrV9V47St3c6t1EVl/rp13Kl4OZRmvPYiX0spb80
e9j0L7VOY5enW2ka4hzYX8qoYXncAUC3QwmnMaLdssINmAZBxmCnJSHNRYT7NMc7
dO2Sydk0jtzVQ57kYP+x2KBaXX1TjmLns4xkz0INxuUTICC+S2Bfb/MVW5yCYgOf
lNSyi4av7TuPIGhNFHgjN9eq2V6J5YB6a6S4Y2/fMq3NXl9g+OT8Os5n53o7aDaY
FUwF8FPn1QhSow==
-----END CERTIFICATE-----
