Certificate:
    Data:
        Version: 3 (0x2)
        Serial Number: 7 (0x7)
        Signature Algorithm: sha256WithRSAEncryption
        Issuer: C=US, ST=Washington, L=Seattle, O=wolfSSL, OU=Engineering, CN=wolfSSL intermediate CA 2, emailAddress=facts@wolfssl.com
        Validity
            Not Before: Jun 11 21:44:35 2026 GMT
            Not After : Mar  7 21:44:35 2029 GMT
        Subject: C=US, ST=Washington, L=Seattle, O=wolfSSL, OU=Engineering, CN=www3.wolfssl.com, emailAddress=facts@wolfssl.com
        Subject Public Key Info:
            Public Key Algorithm: rsaEncryption
                Public-Key: (2048 bit)
                Modulus:
                    00:be:19:65:1e:17:39:d4:33:fc:97:64:69:80:51:
                    fb:6c:7c:ca:e1:ba:2a:ab:d2:dd:30:61:f3:2e:47:
                    c1:d4:33:c0:ff:53:21:ba:2d:14:a6:b9:7c:66:ca:
                    45:7b:1c:7d:8f:fc:75:f3:9a:69:f1:6c:25:46:a0:
                    92:5d:00:93:e3:22:a6:60:b9:97:05:37:7f:a1:aa:
                    cd:22:81:72:b1:22:47:3d:7c:8d:46:55:bc:32:4d:
                    d2:84:43:5c:15:43:07:22:70:36:39:93:1b:e8:a1:
                    46:bb:02:85:ba:1d:31:ac:b1:3c:84:5b:eb:8f:1f:
                    62:8a:71:52:9e:0b:63:b6:e6:d6:46:cc:19:06:d6:
                    bb:06:81:e4:0b:25:14:6c:63:94:70:1a:27:37:95:
                    24:40:07:30:f5:24:73:c3:bd:f9:0e:5f:b6:cd:4f:
                    18:88:f0:d7:a3:9b:f5:b0:1e:fe:04:03:a5:8d:73:
                    f7:6b:31:74:85:fd:61:fa:9e:53:37:75:90:e6:f8:
                    b5:98:66:e8:52:4d:4a:4c:39:05:65:c1:34:f9:c6:
                    95:27:b0:07:c1:51:96:a8:82:1b:22:cf:41:df:de:
                    b4:94:b7:0d:ba:61:fb:f4:40:7c:a1:fc:a2:29:a3:
                    47:4d:b4:94:9d:7b:51:ec:e4:13:fb:cd:e9:26:ca:
                    a7:93
                Exponent: 65537 (0x10001)
        X509v3 extensions:
            X509v3 Basic Constraints: 
                CA:FALSE
            X509v3 Subject Key Identifier: 
                C1:CD:C0:2C:34:F4:3B:BB:E3:CA:98:35:7D:6A:15:33:94:5C:11:3A
            X509v3 Authority Key Identifier: 
                keyid:05:D1:BA:86:00:A2:EE:2A:05:24:B7:11:AD:2D:60:F1:90:14:8F:17
                DirName:/C=US/ST=Washington/L=Seattle/O=wolfSSL/OU=Engineering/CN=wolfSSL root CA/emailAddress=facts@wolfssl.com
                serial:02
            X509v3 Key Usage: 
                Digital Signature, Non Repudiation, Key Encipherment
            Authority Information Access: 
                OCSP - URI:http://127.0.0.1:22222
    Signature Algorithm: sha256WithRSAEncryption
    Signature Value:
        ad:99:39:3e:af:18:f2:ae:f9:ad:a2:91:ab:4b:84:9f:53:a8:
        28:b8:31:91:41:6d:c2:24:a8:5b:d4:bd:d2:e9:60:6c:a2:98:
        33:91:bd:86:ba:b0:0d:c1:e8:2a:8d:2a:45:90:40:56:cf:6a:
        52:cc:a5:f9:f1:95:04:6e:06:85:6c:a0:c7:b5:9f:09:8f:0c:
        f3:14:79:49:25:b7:84:c2:88:a4:ef:27:7c:49:33:5f:d5:f7:
        45:2c:36:63:c7:4a:a8:ff:7f:cb:4a:79:c0:e4:dd:10:f7:f7:
        97:9b:0b:d4:92:0c:4e:8b:b2:27:ac:83:10:0a:f0:8e:7f:72:
        2e:73:bc:9d:10:3c:a4:f8:ae:71:3e:f7:fb:1d:31:a8:6c:57:
        c4:39:3e:64:bb:65:95:46:77:39:d2:4e:31:c7:95:84:a8:cb:
        8f:5b:e3:23:1b:e0:6e:4e:ea:22:19:29:d2:df:58:30:66:2b:
        93:ad:af:09:61:9d:88:13:52:e4:ee:09:4f:12:10:c1:77:c2:
        32:a0:ac:b4:27:97:51:ba:83:b7:5a:00:68:0a:93:8b:50:16:
        da:c9:74:5c:de:1e:13:ef:b3:5b:a0:b0:2b:86:a5:17:ce:49:
        bc:56:52:70:4d:26:00:f7:a5:11:59:70:9d:27:c7:81:cb:7d:
        f8:22:39:8f
-----BEGIN CERTIFICATE-----
MIIE8TCCA9mgAwIBAgIBBzANBgkqhkiG9w0BAQsFADCBojELMAkGA1UEBhMCVVMx
EzARBgNVBAgMCldhc2hpbmd0b24xEDAOBgNVBAcMB1NlYXR0bGUxEDAOBgNVBAoM
B3dvbGZTU0wxFDASBgNVBAsMC0VuZ2luZWVyaW5nMSIwIAYDVQQDDBl3b2xmU1NM
IGludGVybWVkaWF0ZSBDQSAyMSAwHgYJKoZIhvcNAQkBFhFmYWN0c0B3b2xmc3Ns
LmNvbTAeFw0yNjA2MTEyMTQ0MzVaFw0yOTAzMDcyMTQ0MzVaMIGZMQswCQYDVQQG
EwJVUzETMBEGA1UECAwKV2FzaGluZ3RvbjEQMA4GA1UEBwwHU2VhdHRsZTEQMA4G
A1UECgwHd29sZlNTTDEUMBIGA1UECwwLRW5naW5lZXJpbmcxGTAXBgNVBAMMEHd3
dzMud29sZnNzbC5jb20xIDAeBgkqhkiG9w0BCQEWEWZhY3RzQHdvbGZzc2wuY29t
MIIBIjANBgkqhkiG9w0BAQEFAAOCAQ8AMIIBCgKCAQEAvhllHhc51DP8l2RpgFH7
bHzK4boqq9LdMGHzLkfB1DPA/1Mhui0Uprl8ZspFexx9j/x185pp8WwlRqCSXQCT
4yKmYLmXBTd/oarNIoFysSJHPXyNRlW8Mk3ShENcFUMHInA2OZMb6KFGuwKFuh0x
rLE8hFvrjx9iinFSngtjtubWRswZBta7BoHkCyUUbGOUcBonN5UkQAcw9SRzw735
Dl+2zU8YiPDXo5v1sB7+BAOljXP3azF0hf1h+p5TN3WQ5vi1mGboUk1KTDkFZcE0
+caVJ7AHwVGWqIIbIs9B3960lLcNumH79EB8ofyiKaNHTbSUnXtR7OQT+83pJsqn
kwIDAQABo4IBNzCCATMwCQYDVR0TBAIwADAdBgNVHQ4EFgQUwc3ALDT0O7vjypg1
fWoVM5RcETowgcUGA1UdIwSBvTCBuoAUBdG6hgCi7ioFJLcRrS1g8ZAUjxehgZ6k
gZswgZgxCzAJBgNVBAYTAlVTMRMwEQYDVQQIDApXYXNoaW5ndG9uMRAwDgYDVQQH
DAdTZWF0dGxlMRAwDgYDVQQKDAd3b2xmU1NMMRQwEgYDVQQLDAtFbmdpbmVlcmlu
ZzEYMBYGA1UEAwwPd29sZlNTTCByb290IENBMSAwHgYJKoZIhvcNAQkBFhFmYWN0
c0B3b2xmc3NsLmNvbYIBAjALBgNVHQ8EBAMCBeAwMgYIKwYBBQUHAQEEJjAkMCIG
CCsGAQUFBzABhhZodHRwOi8vMTI3LjAuMC4xOjIyMjIyMA0GCSqGSIb3DQEBCwUA
A4IBAQCtmTk+rxjyrvmtopGrS4SfU6gouDGRQW3CJKhb1L3S6WBsopgzkb2GurAN
wegqjSpFkEBWz2pSzKX58ZUEbgaFbKDHtZ8JjwzzFHlJJbeEwoik7yd8STNf1fdF
LDZjx0qo/3/LSnnA5N0Q9/eXmwvUkgxOi7InrIMQCvCOf3Iuc7ydEDyk+K5xPvf7
HTGobFfEOT5ku2WVRnc50k4xx5WEqMuPW+MjG+BuTuoiGSnS31gwZiuTra8JYZ2I
E1Lk7glPEhDBd8IyoKy0J5dRuoO3WgBoCpOLUBbayXRc3h4T77NboLArhqUXzkm8
VlJwTSYA96URWXCdJ8eBy334IjmP
-----END CERTIFICATE-----
Certificate:
    Data:
        Version: 3 (0x2)
        Serial Number: 2 (0x2)
        Signature Algorithm: sha256WithRSAEncryption
        Issuer: C=US, ST=Washington, L=Seattle, O=wolfSSL, OU=Engineering, CN=wolfSSL root CA, emailAddress=facts@wolfssl.com
        Validity
            Not Before: Jun 11 21:44:34 2026 GMT
            Not After : Mar  7 21:44:34 2029 GMT
        Subject: C=US, ST=Washington, L=Seattle, O=wolfSSL, OU=Engineering, CN=wolfSSL intermediate CA 2, emailAddress=facts@wolfssl.com
        Subject Public Key Info:
            Public Key Algorithm: rsaEncryption
                Public-Key: (2048 bit)
                Modulus:
                    00:d0:20:3c:35:19:6f:2c:44:b4:7e:42:c7:75:b4:
                    6a:2b:a9:23:85:bf:87:b4:ee:ca:d7:4b:1f:31:d7:
                    11:02:a1:ab:58:3d:fb:dc:51:ca:3a:1d:1f:95:a6:
                    56:82:f7:8f:ff:6b:50:bb:ea:10:e1:47:1d:35:77:
                    2e:4b:28:c5:53:46:23:2b:82:fd:5a:d3:f4:21:db:
                    0e:e0:f2:76:33:47:b3:00:be:3a:b1:23:98:53:eb:
                    ea:a0:de:1b:cc:05:4e:ee:63:a8:2c:93:24:d6:98:
                    78:74:03:e4:c8:89:43:61:f1:25:b8:cd:3b:87:c1:
                    31:25:fd:ba:4c:fc:29:94:45:9e:69:d7:67:0a:8a:
                    8e:d5:52:93:30:a2:0e:dd:6a:1c:b0:94:77:db:52:
                    52:b7:89:21:be:96:75:24:cb:e9:49:df:81:9d:9d:
                    f8:55:7d:01:2a:eb:78:03:12:e2:20:6e:db:63:35:
                    cd:a1:96:f0:f8:8c:20:35:69:87:01:ca:b4:54:36:
                    a0:15:e0:23:7d:b9:fb:be:99:05:50:f0:bf:ec:7f:
                    12:e1:3d:75:15:4e:c8:c2:30:e6:8b:fe:e5:8b:55:
                    f8:44:5e:e5:e3:56:e0:66:2d:6f:42:5a:45:6b:96:
                    aa:c7:5d:41:08:5f:ce:d7:dc:9f:20:e4:46:78:ff:
                    d9:99
                Exponent: 65537 (0x10001)
        X509v3 extensions:
            X509v3 Basic Constraints: 
                CA:TRUE
            X509v3 Subject Key Identifier: 
                05:D1:BA:86:00:A2:EE:2A:05:24:B7:11:AD:2D:60:F1:90:14:8F:17
            X509v3 Authority Key Identifier: 
                keyid:73:B0:1C:A4:2F:82:CB:CF:47:A5:38:D7:B0:04:82:3A:7E:72:15:21
                DirName:/C=US/ST=Washington/L=Seattle/O=wolfSSL/OU=Engineering/CN=wolfSSL root CA/emailAddress=facts@wolfssl.com
                serial:63
            X509v3 Key Usage: 
                Certificate Sign, CRL Sign
            Authority Information Access: 
                OCSP - URI:http://127.0.0.1:22220
    Signature Algorithm: sha256WithRSAEncryption
    Signature Value:
        6d:e6:62:40:43:2e:2e:52:40:03:3f:7d:05:b8:d9:4c:7b:b8:
        20:29:90:0c:b7:48:73:36:43:b1:57:20:7c:78:fe:77:ec:ef:
        67:08:a9:d7:dc:66:34:d6:9a:d3:a6:1f:ae:62:f2:9e:2e:c4:
        6b:47:b5:6f:f0:e5:57:22:8a:6e:ac:26:12:ab:ef:df:4c:0c:
        f5:b3:eb:79:e2:36:c6:2a:d4:30:5b:8c:a9:51:f8:fe:5a:40:
        6f:4a:91:5b:6d:65:9a:93:36:c3:cb:53:4e:28:bc:92:1e:39:
        2c:12:e5:0a:d7:b1:3d:d1:93:88:c4:c3:4a:38:8d:b2:ef:7f:
        14:63:de:e1:71:4f:2a:46:23:d6:eb:08:91:4f:35:e0:12:43:
        2a:f2:92:36:e6:cd:bf:d0:50:60:7b:35:17:cf:2f:e8:41:9f:
        fa:73:ae:ec:36:b9:c5:6c:f4:a2:75:03:e2:46:02:76:11:ae:
        35:c6:94:72:8a:ef:60:09:0b:18:88:be:2d:3d:b7:e8:2f:40:
        ab:c3:db:d6:d8:c7:7f:44:c1:7a:23:23:6c:36:dc:69:49:32:
        c9:09:77:57:af:e5:de:b7:c6:c8:e6:2e:d0:83:b2:22:a4:8c:
        7c:32:ed:4c:e8:f8:62:fc:10:d1:fb:e4:11:0f:ab:ac:47:e3:
        26:bf:58:e0
-----BEGIN CERTIFICATE-----
MIIE8zCCA9ugAwIBAgIBAjANBgkqhkiG9w0BAQsFADCBmDELMAkGA1UEBhMCVVMx
EzARBgNVBAgMCldhc2hpbmd0b24xEDAOBgNVBAcMB1NlYXR0bGUxEDAOBgNVBAoM
B3dvbGZTU0wxFDASBgNVBAsMC0VuZ2luZWVyaW5nMRgwFgYDVQQDDA93b2xmU1NM
IHJvb3QgQ0ExIDAeBgkqhkiG9w0BCQEWEWZhY3RzQHdvbGZzc2wuY29tMB4XDTI2
MDYxMTIxNDQzNFoXDTI5MDMwNzIxNDQzNFowgaIxCzAJBgNVBAYTAlVTMRMwEQYD
VQQIDApXYXNoaW5ndG9uMRAwDgYDVQQHDAdTZWF0dGxlMRAwDgYDVQQKDAd3b2xm
U1NMMRQwEgYDVQQLDAtFbmdpbmVlcmluZzEiMCAGA1UEAwwZd29sZlNTTCBpbnRl
cm1lZGlhdGUgQ0EgMjEgMB4GCSqGSIb3DQEJARYRZmFjdHNAd29sZnNzbC5jb20w
ggEiMA0GCSqGSIb3DQEBAQUAA4IBDwAwggEKAoIBAQDQIDw1GW8sRLR+Qsd1tGor
qSOFv4e07srXSx8x1xECoatYPfvcUco6HR+VplaC94//a1C76hDhRx01dy5LKMVT
RiMrgv1a0/Qh2w7g8nYzR7MAvjqxI5hT6+qg3hvMBU7uY6gskyTWmHh0A+TIiUNh
8SW4zTuHwTEl/bpM/CmURZ5p12cKio7VUpMwog7dahywlHfbUlK3iSG+lnUky+lJ
34GdnfhVfQEq63gDEuIgbttjNc2hlvD4jCA1aYcByrRUNqAV4CN9ufu+mQVQ8L/s
fxLhPXUVTsjCMOaL/uWLVfhEXuXjVuBmLW9CWkVrlqrHXUEIX87X3J8g5EZ4/9mZ
AgMBAAGjggE6MIIBNjAMBgNVHRMEBTADAQH/MB0GA1UdDgQWBBQF0bqGAKLuKgUk
txGtLWDxkBSPFzCBxQYDVR0jBIG9MIG6gBRzsBykL4LLz0elONewBII6fnIVIaGB
nqSBmzCBmDELMAkGA1UEBhMCVVMxEzARBgNVBAgMCldhc2hpbmd0b24xEDAOBgNV
BAcMB1NlYXR0bGUxEDAOBgNVBAoMB3dvbGZTU0wxFDASBgNVBAsMC0VuZ2luZWVy
aW5nMRgwFgYDVQQDDA93b2xmU1NMIHJvb3QgQ0ExIDAeBgkqhkiG9w0BCQEWEWZh
Y3RzQHdvbGZzc2wuY29tggFjMAsGA1UdDwQEAwIBBjAyBggrBgEFBQcBAQQmMCQw
IgYIKwYBBQUHMAGGFmh0dHA6Ly8xMjcuMC4wLjE6MjIyMjAwDQYJKoZIhvcNAQEL
BQADggEBAG3mYkBDLi5SQAM/fQW42Ux7uCApkAy3SHM2Q7FXIHx4/nfs72cIqdfc
ZjTWmtOmH65i8p4uxGtHtW/w5Vciim6sJhKr799MDPWz63niNsYq1DBbjKlR+P5a
QG9KkVttZZqTNsPLU04ovJIeOSwS5QrXsT3Rk4jEw0o4jbLvfxRj3uFxTypGI9br
CJFPNeASQyrykjbmzb/QUGB7NRfPL+hBn/pzruw2ucVs9KJ1A+JGAnYRrjXGlHKK
72AJCxiIvi09t+gvQKvD29bYx39EwXojI2w23GlJMskJd1ev5d63xsjmLtCDsiKk
jHwy7Uzo+GL8ENH75BEPq6xH4ya/WOA=
-----END CERTIFICATE-----
Certificate:
    Data:
        Version: 3 (0x2)
        Serial Number: 99 (0x63)
        Signature Algorithm: sha256WithRSAEncryption
        Issuer: C=US, ST=Washington, L=Seattle, O=wolfSSL, OU=Engineering, CN=wolfSSL root CA, emailAddress=facts@wolfssl.com
        Validity
            Not Before: Jun 11 21:44:34 2026 GMT
            Not After : Mar  7 21:44:34 2029 GMT
        Subject: C=US, ST=Washington, L=Seattle, O=wolfSSL, OU=Engineering, CN=wolfSSL root CA, emailAddress=facts@wolfssl.com
        Subject Public Key Info:
            Public Key Algorithm: rsaEncryption
                Public-Key: (2048 bit)
                Modulus:
                    00:ab:2c:b4:2f:1d:06:09:ef:4e:29:86:84:7e:cc:
                    bf:a6:79:7c:f0:c0:c1:64:25:8c:75:b7:10:05:ca:
                    48:27:0c:0e:32:1c:b0:fe:99:85:39:b6:b9:a2:f7:
                    27:ff:6d:3c:8c:16:73:29:21:7f:8b:a6:54:71:90:
                    ad:cc:05:b9:9f:15:c7:0a:3f:5f:69:f4:0a:5f:8c:
                    71:b5:2c:bf:66:e2:03:9a:32:f4:d2:ec:2a:89:4b:
                    f9:35:88:14:33:47:4e:2e:05:79:01:ed:64:36:76:
                    b9:f8:85:cd:01:88:ac:c5:b2:b1:59:b8:cd:5a:f4:
                    09:09:38:9b:da:5a:cf:ce:78:99:1f:49:3d:41:d6:
                    06:7c:52:99:c8:97:d1:b3:80:3a:a2:4f:36:c4:c5:
                    96:30:77:31:38:c8:70:cc:e1:67:06:b3:2b:2f:93:
                    b5:69:cf:83:7e:88:53:9b:0f:46:21:4c:d6:05:36:
                    44:99:60:68:47:e5:32:01:12:d4:10:73:ae:9a:34:
                    94:fa:6e:b8:58:4f:7b:5b:8a:92:97:ad:fd:97:b9:
                    75:ca:c2:d4:45:7d:17:6b:cd:2f:f3:63:7a:0e:30:
                    b5:0b:a9:d9:a6:7c:74:60:9d:cc:09:03:43:f1:0f:
                    90:d3:b7:fe:6c:9f:d9:cd:78:4b:15:ae:8c:5b:f9:
                    99:81
                Exponent: 65537 (0x10001)
        X509v3 extensions:
            X509v3 Basic Constraints: 
                CA:TRUE
            X509v3 Subject Key Identifier: 
                73:B0:1C:A4:2F:82:CB:CF:47:A5:38:D7:B0:04:82:3A:7E:72:15:21
            X509v3 Authority Key Identifier: 
                keyid:73:B0:1C:A4:2F:82:CB:CF:47:A5:38:D7:B0:04:82:3A:7E:72:15:21
                DirName:/C=US/ST=Washington/L=Seattle/O=wolfSSL/OU=Engineering/CN=wolfSSL root CA/emailAddress=facts@wolfssl.com
                serial:63
            X509v3 Key Usage: 
                Certificate Sign, CRL Sign
            Authority Information Access: 
                OCSP - URI:http://127.0.0.1:22220
    Signature Algorithm: sha256WithRSAEncryption
    Signature Value:
        36:b1:86:d6:72:f8:e7:6a:ae:43:fb:c0:ed:f1:36:64:8a:da:
        8e:5f:f7:c4:ad:64:c8:29:03:74:58:b0:9e:ee:41:89:5b:2a:
        12:f4:82:a4:03:a5:f0:df:a2:84:cb:2b:b3:16:0f:dc:cf:cc:
        56:99:61:a9:f9:3d:3a:7e:e4:12:43:c3:b1:4f:58:26:79:e7:
        e4:0d:a5:88:3d:79:33:a1:09:7d:78:af:bd:59:71:11:54:4a:
        cc:d6:d2:6d:1f:88:27:ac:d5:bf:75:fc:c3:05:0b:cd:c8:0e:
        72:41:1d:d8:68:62:be:94:d7:60:be:05:4a:42:9c:50:b7:45:
        71:6d:83:9a:ef:08:5c:41:db:c8:62:33:3c:69:a2:8a:b4:0f:
        db:65:c4:b7:92:0a:76:f7:55:06:77:8c:ff:8c:84:84:d9:dd:
        46:11:2a:2d:27:96:a7:f5:47:c1:43:4b:fe:53:d8:be:16:94:
        36:0a:d4:be:c3:6c:9b:0c:52:31:4a:eb:62:b4:81:4b:2d:f7:
        f1:65:c1:ee:36:79:19:f7:ab:16:f8:38:d2:ea:87:8d:f8:f9:
        14:82:db:67:b6:94:a8:55:0b:90:6b:af:b0:e9:42:64:42:6d:
        2c:e3:f1:b6:e0:f9:58:ed:69:66:62:98:dc:5a:7b:fa:35:5a:
        23:84:91:0e
-----BEGIN CERTIFICATE-----
MIIE6TCCA9GgAwIBAgIBYzANBgkqhkiG9w0BAQsFADCBmDELMAkGA1UEBhMCVVMx
EzARBgNVBAgMCldhc2hpbmd0b24xEDAOBgNVBAcMB1NlYXR0bGUxEDAOBgNVBAoM
B3dvbGZTU0wxFDASBgNVBAsMC0VuZ2luZWVyaW5nMRgwFgYDVQQDDA93b2xmU1NM
IHJvb3QgQ0ExIDAeBgkqhkiG9w0BCQEWEWZhY3RzQHdvbGZzc2wuY29tMB4XDTI2
MDYxMTIxNDQzNFoXDTI5MDMwNzIxNDQzNFowgZgxCzAJBgNVBAYTAlVTMRMwEQYD
VQQIDApXYXNoaW5ndG9uMRAwDgYDVQQHDAdTZWF0dGxlMRAwDgYDVQQKDAd3b2xm
U1NMMRQwEgYDVQQLDAtFbmdpbmVlcmluZzEYMBYGA1UEAwwPd29sZlNTTCByb290
IENBMSAwHgYJKoZIhvcNAQkBFhFmYWN0c0B3b2xmc3NsLmNvbTCCASIwDQYJKoZI
hvcNAQEBBQADggEPADCCAQoCggEBAKsstC8dBgnvTimGhH7Mv6Z5fPDAwWQljHW3
EAXKSCcMDjIcsP6ZhTm2uaL3J/9tPIwWcykhf4umVHGQrcwFuZ8Vxwo/X2n0Cl+M
cbUsv2biA5oy9NLsKolL+TWIFDNHTi4FeQHtZDZ2ufiFzQGIrMWysVm4zVr0CQk4
m9paz854mR9JPUHWBnxSmciX0bOAOqJPNsTFljB3MTjIcMzhZwazKy+TtWnPg36I
U5sPRiFM1gU2RJlgaEflMgES1BBzrpo0lPpuuFhPe1uKkpet/Ze5dcrC1EV9F2vN
L/Njeg4wtQup2aZ8dGCdzAkDQ/EPkNO3/myf2c14SxWujFv5mYECAwEAAaOCATow
ggE2MAwGA1UdEwQFMAMBAf8wHQYDVR0OBBYEFHOwHKQvgsvPR6U417AEgjp+chUh
MIHFBgNVHSMEgb0wgbqAFHOwHKQvgsvPR6U417AEgjp+chUhoYGepIGbMIGYMQsw
CQYDVQQGEwJVUzETMBEGA1UECAwKV2FzaGluZ3RvbjEQMA4GA1UEBwwHU2VhdHRs
ZTEQMA4GA1UECgwHd29sZlNTTDEUMBIGA1UECwwLRW5naW5lZXJpbmcxGDAWBgNV
BAMMD3dvbGZTU0wgcm9vdCBDQTEgMB4GCSqGSIb3DQEJARYRZmFjdHNAd29sZnNz
bC5jb22CAWMwCwYDVR0PBAQDAgEGMDIGCCsGAQUFBwEBBCYwJDAiBggrBgEFBQcw
AYYWaHR0cDovLzEyNy4wLjAuMToyMjIyMDANBgkqhkiG9w0BAQsFAAOCAQEANrGG
1nL452quQ/vA7fE2ZIrajl/3xK1kyCkDdFiwnu5BiVsqEvSCpAOl8N+ihMsrsxYP
3M/MVplhqfk9On7kEkPDsU9YJnnn5A2liD15M6EJfXivvVlxEVRKzNbSbR+IJ6zV
v3X8wwULzcgOckEd2GhivpTXYL4FSkKcULdFcW2Dmu8IXEHbyGIzPGmiirQP22XE
t5IKdvdVBneM/4yEhNndRhEqLSeWp/VHwUNL/lPYvhaUNgrUvsNsmwxSMUrrYrSB
Sy338WXB7jZ5GferFvg40uqHjfj5FILbZ7aUqFULkGuvsOlCZEJtLOPxtuD5WO1p
ZmKY3Fp7+jVaI4SRDg==
-----END CERTIFICATE-----
