Certificate:
    Data:
        Version: 3 (0x2)
        Serial Number: 5 (0x5)
    Signature Algorithm: sha256WithRSAEncryption
        Issuer: C=US, ST=Washington, L=Seattle, O=wolfSSL, OU=Engineering, CN=wolfSSL intermediate CA 1/emailAddress=info@wolfssl.com
        Validity
            Not Before: Dec 15 01:27:23 2015 GMT
            Not After : Sep 10 01:27:23 2018 GMT
        Subject: C=US, ST=Washington, L=Seattle, O=wolfSSL, OU=Engineering, CN=www1.wolfssl.com/emailAddress=info@wolfssl.com
        Subject Public Key Info:
            Public Key Algorithm: rsaEncryption
                Public-Key: (2048 bit)
                Modulus:
                    00:e6:96:55:75:cf:8a:97:68:8c:b6:38:f6:7a:05:
                    be:33:b6:51:47:37:8a:f7:db:91:be:92:6b:b7:00:
                    8c:f2:c5:24:6e:18:e9:92:00:81:01:dc:b3:4c:28:
                    a9:b7:80:f1:96:cf:23:7a:2f:ae:f8:e3:0f:2d:d3:
                    5e:23:e7:db:4c:b2:5d:89:16:17:be:be:81:db:fb:
                    12:6d:28:4b:10:a0:12:04:27:c1:c9:d0:79:95:ef:
                    e8:8d:8c:59:9b:4e:72:7d:bc:49:2b:22:4e:f8:4f:
                    e2:0c:f1:e9:e9:97:f9:df:8c:5a:0a:aa:38:1d:43:
                    04:a3:a7:89:a1:e2:83:a4:4b:b5:4e:45:88:a6:22:
                    5d:ac:a9:58:67:88:c1:d5:61:ef:bd:11:05:27:94:
                    47:bb:33:a5:8a:ca:ee:1f:8d:c0:6e:24:af:cd:ca:
                    bf:80:47:71:95:ac:a9:f1:5d:23:6c:f5:4b:b4:a9:
                    e1:c4:66:fb:e5:c4:a1:9f:a7:51:d1:78:cd:2e:b4:
                    3f:2e:e2:82:f3:7f:c4:a7:f4:31:cf:76:27:3f:db:
                    2e:d2:6e:c3:47:23:82:a3:48:40:8c:a7:c1:13:f0:
                    63:50:54:43:f6:71:12:e1:6f:a5:7a:58:26:f7:fd:
                    8b:3b:70:18:a0:43:ba:01:6b:b3:f8:d5:be:05:13:
                    64:31
                Exponent: 65537 (0x10001)
        X509v3 extensions:
            X509v3 Basic Constraints: 
                CA:FALSE
            X509v3 Subject Key Identifier: 
                CC:55:15:00:E2:44:89:92:63:6D:10:5D:B9:9E:73:B6:5D:3A:19:CA
            X509v3 Authority Key Identifier: 
                keyid:83:C6:3A:89:2C:81:F4:02:D7:9D:4C:E2:2A:C0:71:82:64:44:DA:0E
                DirName:/C=US/ST=Washington/L=Seattle/O=wolfSSL/OU=Engineering/CN=wolfSSL root CA/emailAddress=info@wolfssl.com
                serial:01

            X509v3 Key Usage: 
                Digital Signature, Non Repudiation, Key Encipherment
            Authority Information Access: 
                OCSP - URI:http://localhost:22221

    Signature Algorithm: sha256WithRSAEncryption
         cc:2e:e2:e4:a8:f6:e8:73:e4:e8:d9:ee:05:e6:2c:a9:0f:54:
         d5:b0:be:ce:20:a6:12:38:63:b8:19:32:c1:12:2f:d4:ee:a5:
         73:2b:72:5c:ad:c7:ed:d7:a4:5e:97:d2:a4:fd:9e:db:3d:e0:
         df:a2:96:a9:36:c8:e3:f9:93:d6:84:dc:ad:a4:5f:1e:d4:af:
         de:b4:05:9a:e5:ac:c6:b4:f4:9b:69:a0:e8:81:28:32:d7:a0:
         83:1b:2d:18:92:87:33:3f:23:11:11:f5:c9:01:11:35:de:44:
         8d:1d:6b:c4:3a:20:72:64:5d:c1:59:60:cb:5c:3b:ca:a0:27:
         ab:e6:6c:ac:31:ec:a9:3a:a0:ec:10:e5:48:34:9b:d3:1c:9e:
         1e:93:2a:ba:47:40:b6:5d:45:c4:b9:cb:d6:63:5b:1a:70:26:
         23:f6:0a:41:53:de:ba:02:db:df:ce:df:6d:7a:9c:85:55:a4:
         01:3e:f5:d1:9c:4a:59:bf:1f:f5:83:fa:92:9a:3d:80:4d:49:
         aa:f6:92:5f:94:ee:ef:38:b3:71:9f:96:30:7d:b2:d2:8d:bb:
         16:ed:e1:6f:cd:8e:4e:d2:e0:5b:59:5c:dd:95:de:9f:69:63:
         d4:b2:54:52:51:40:e5:50:5c:4b:1c:5e:51:5b:10:b7:19:1f:
         31:08:70:cb
-----BEGIN CERTIFICATE-----
MIIE7jCCA9agAwIBAgIBBTANBgkqhkiG9w0BAQsFADCBoTELMAkGA1UEBhMCVVMx
EzARBgNVBAgMCldhc2hpbmd0b24xEDAOBgNVBAcMB1NlYXR0bGUxEDAOBgNVBAoM
B3dvbGZTU0wxFDASBgNVBAsMC0VuZ2luZWVyaW5nMSIwIAYDVQQDDBl3b2xmU1NM
IGludGVybWVkaWF0ZSBDQSAxMR8wHQYJKoZIhvcNAQkBFhBpbmZvQHdvbGZzc2wu
Y29tMB4XDTE1MTIxNTAxMjcyM1oXDTE4MDkxMDAxMjcyM1owgZgxCzAJBgNVBAYT
AlVTMRMwEQYDVQQIDApXYXNoaW5ndG9uMRAwDgYDVQQHDAdTZWF0dGxlMRAwDgYD
VQQKDAd3b2xmU1NMMRQwEgYDVQQLDAtFbmdpbmVlcmluZzEZMBcGA1UEAwwQd3d3
MS53b2xmc3NsLmNvbTEfMB0GCSqGSIb3DQEJARYQaW5mb0B3b2xmc3NsLmNvbTCC
ASIwDQYJKoZIhvcNAQEBBQADggEPADCCAQoCggEBAOaWVXXPipdojLY49noFvjO2
UUc3ivfbkb6Sa7cAjPLFJG4Y6ZIAgQHcs0woqbeA8ZbPI3ovrvjjDy3TXiPn20yy
XYkWF76+gdv7Em0oSxCgEgQnwcnQeZXv6I2MWZtOcn28SSsiTvhP4gzx6emX+d+M
WgqqOB1DBKOniaHig6RLtU5FiKYiXaypWGeIwdVh770RBSeUR7szpYrK7h+NwG4k
r83Kv4BHcZWsqfFdI2z1S7Sp4cRm++XEoZ+nUdF4zS60Py7igvN/xKf0Mc92Jz/b
LtJuw0cjgqNIQIynwRPwY1BUQ/ZxEuFvpXpYJvf9iztwGKBDugFrs/jVvgUTZDEC
AwEAAaOCATYwggEyMAkGA1UdEwQCMAAwHQYDVR0OBBYEFMxVFQDiRImSY20QXbme
c7ZdOhnKMIHEBgNVHSMEgbwwgbmAFIPGOoksgfQC151M4irAcYJkRNoOoYGdpIGa
MIGXMQswCQYDVQQGEwJVUzETMBEGA1UECAwKV2FzaGluZ3RvbjEQMA4GA1UEBwwH
U2VhdHRsZTEQMA4GA1UECgwHd29sZlNTTDEUMBIGA1UECwwLRW5naW5lZXJpbmcx
GDAWBgNVBAMMD3dvbGZTU0wgcm9vdCBDQTEfMB0GCSqGSIb3DQEJARYQaW5mb0B3
b2xmc3NsLmNvbYIBATALBgNVHQ8EBAMCBeAwMgYIKwYBBQUHAQEEJjAkMCIGCCsG
AQUFBzABhhZodHRwOi8vbG9jYWxob3N0OjIyMjIxMA0GCSqGSIb3DQEBCwUAA4IB
AQDMLuLkqPboc+To2e4F5iypD1TVsL7OIKYSOGO4GTLBEi/U7qVzK3Jcrcft16Re
l9Kk/Z7bPeDfopapNsjj+ZPWhNytpF8e1K/etAWa5azGtPSbaaDogSgy16CDGy0Y
koczPyMREfXJARE13kSNHWvEOiByZF3BWWDLXDvKoCer5mysMeypOqDsEOVINJvT
HJ4ekyq6R0C2XUXEucvWY1sacCYj9gpBU966Atvfzt9tepyFVaQBPvXRnEpZvx/1
g/qSmj2ATUmq9pJflO7vOLNxn5YwfbLSjbsW7eFvzY5O0uBbWVzdld6faWPUslRS
UUDlUFxLHF5RWxC3GR8xCHDL
-----END CERTIFICATE-----
Certificate:
    Data:
        Version: 3 (0x2)
        Serial Number: 1 (0x1)
    Signature Algorithm: sha256WithRSAEncryption
        Issuer: C=US, ST=Washington, L=Seattle, O=wolfSSL, OU=Engineering, CN=wolfSSL root CA/emailAddress=info@wolfssl.com
        Validity
            Not Before: Dec 15 01:27:23 2015 GMT
            Not After : Sep 10 01:27:23 2018 GMT
        Subject: C=US, ST=Washington, L=Seattle, O=wolfSSL, OU=Engineering, CN=wolfSSL intermediate CA 1/emailAddress=info@wolfssl.com
        Subject Public Key Info:
            Public Key Algorithm: rsaEncryption
                Public-Key: (2048 bit)
                Modulus:
                    00:de:b4:c8:5c:77:e0:2d:b1:f5:b9:ad:16:47:35:
                    a0:35:65:65:c6:e1:40:ab:1e:b4:b9:13:b7:cb:8c:
                    bb:77:a5:76:da:6d:87:87:f6:4a:4d:13:e4:26:3e:
                    27:87:ee:5b:c7:6a:3f:45:30:61:55:5c:f6:35:d1:
                    65:fa:98:11:a3:a7:55:d5:be:91:82:4b:fc:be:90:
                    d6:50:53:63:9a:2c:22:e1:35:11:dc:78:02:97:8a:
                    e4:46:92:9c:53:08:76:de:1f:53:b6:b8:ca:77:3e:
                    79:6e:bc:d0:e3:0d:30:5b:4c:f6:94:0d:30:29:64:
                    9f:04:e5:db:fb:89:60:67:bb:af:26:83:51:77:24:
                    2f:2b:0b:a1:94:81:10:98:e8:eb:26:a8:1e:7c:e4:
                    c4:6c:67:06:95:55:4a:dd:52:f4:f2:60:6d:01:2b:
                    19:91:35:6d:a4:08:47:06:71:24:00:d9:de:c6:56:
                    f3:8b:53:2c:e2:9a:96:a5:f3:62:e5:c4:e3:23:f2:
                    d2:fc:21:ea:0f:62:76:8d:d5:99:48:ce:dc:58:c4:
                    bb:7f:da:94:2c:80:74:83:c5:e0:b0:15:7e:41:fd:
                    0e:f2:f4:f0:78:76:7b:ad:26:0d:aa:48:96:17:2f:
                    21:e3:95:2b:26:37:f9:aa:80:2f:fe:de:f6:5e:bc:
                    97:7f
                Exponent: 65537 (0x10001)
        X509v3 extensions:
            X509v3 Basic Constraints: 
                CA:TRUE
            X509v3 Subject Key Identifier: 
                83:C6:3A:89:2C:81:F4:02:D7:9D:4C:E2:2A:C0:71:82:64:44:DA:0E
            X509v3 Authority Key Identifier: 
                keyid:73:B0:1C:A4:2F:82:CB:CF:47:A5:38:D7:B0:04:82:3A:7E:72:15:21
                DirName:/C=US/ST=Washington/L=Seattle/O=wolfSSL/OU=Engineering/CN=wolfSSL root CA/emailAddress=info@wolfssl.com
                serial:63

            X509v3 Key Usage: 
                Certificate Sign, CRL Sign
            Authority Information Access: 
                OCSP - URI:http://localhost:22220

    Signature Algorithm: sha256WithRSAEncryption
         1e:07:eb:03:66:a7:54:e8:c5:e1:fe:c9:08:58:91:d8:1b:d6:
         c8:69:a5:65:03:a3:1a:f4:eb:9d:cd:4a:c1:9d:cd:ac:39:0b:
         49:09:e7:9c:0f:12:cb:3f:29:e1:9c:d1:f4:68:14:02:2e:d3:
         fe:3d:63:3c:26:80:38:91:03:c3:52:52:9e:66:4d:59:d1:80:
         97:eb:91:99:5f:e7:d5:8e:e7:c4:c0:d3:f3:12:2e:c9:05:3a:
         54:ed:38:f3:6f:f3:ae:74:18:47:b5:25:c6:e3:44:8c:27:bd:
         3f:bc:e3:f1:0e:e4:50:ff:4c:ec:30:d6:0d:9f:8f:d0:f6:be:
         43:73:94:8f:48:97:38:7c:e8:8a:53:fd:02:4e:0f:2c:14:53:
         f4:4c:80:8a:09:b2:b8:a8:0e:11:75:a6:15:6a:5f:c8:06:7b:
         ff:a3:76:d0:e8:70:0a:e0:b1:6d:88:54:06:c2:04:f9:81:b0:
         77:af:a4:80:1b:88:64:5e:db:ff:36:dc:e8:d2:7b:4e:55:40:
         3c:f7:cd:33:f9:66:59:2e:9c:18:c7:50:e6:b5:b9:c1:94:3b:
         78:46:05:a6:24:41:2a:28:b5:e8:92:d0:0d:47:18:e8:cc:6e:
         e8:11:d2:2a:94:47:75:b5:80:f2:e8:83:34:cc:7f:22:8a:9e:
         49:be:30:c1
-----BEGIN CERTIFICATE-----
MIIE8DCCA9igAwIBAgIBATANBgkqhkiG9w0BAQsFADCBlzELMAkGA1UEBhMCVVMx
EzARBgNVBAgMCldhc2hpbmd0b24xEDAOBgNVBAcMB1NlYXR0bGUxEDAOBgNVBAoM
B3dvbGZTU0wxFDASBgNVBAsMC0VuZ2luZWVyaW5nMRgwFgYDVQQDDA93b2xmU1NM
IHJvb3QgQ0ExHzAdBgkqhkiG9w0BCQEWEGluZm9Ad29sZnNzbC5jb20wHhcNMTUx
MjE1MDEyNzIzWhcNMTgwOTEwMDEyNzIzWjCBoTELMAkGA1UEBhMCVVMxEzARBgNV
BAgMCldhc2hpbmd0b24xEDAOBgNVBAcMB1NlYXR0bGUxEDAOBgNVBAoMB3dvbGZT
U0wxFDASBgNVBAsMC0VuZ2luZWVyaW5nMSIwIAYDVQQDDBl3b2xmU1NMIGludGVy
bWVkaWF0ZSBDQSAxMR8wHQYJKoZIhvcNAQkBFhBpbmZvQHdvbGZzc2wuY29tMIIB
IjANBgkqhkiG9w0BAQEFAAOCAQ8AMIIBCgKCAQEA3rTIXHfgLbH1ua0WRzWgNWVl
xuFAqx60uRO3y4y7d6V22m2Hh/ZKTRPkJj4nh+5bx2o/RTBhVVz2NdFl+pgRo6dV
1b6Rgkv8vpDWUFNjmiwi4TUR3HgCl4rkRpKcUwh23h9TtrjKdz55brzQ4w0wW0z2
lA0wKWSfBOXb+4lgZ7uvJoNRdyQvKwuhlIEQmOjrJqgefOTEbGcGlVVK3VL08mBt
ASsZkTVtpAhHBnEkANnexlbzi1Ms4pqWpfNi5cTjI/LS/CHqD2J2jdWZSM7cWMS7
f9qULIB0g8XgsBV+Qf0O8vTweHZ7rSYNqkiWFy8h45UrJjf5qoAv/t72XryXfwID
AQABo4IBOTCCATUwDAYDVR0TBAUwAwEB/zAdBgNVHQ4EFgQUg8Y6iSyB9ALXnUzi
KsBxgmRE2g4wgcQGA1UdIwSBvDCBuYAUc7AcpC+Cy89HpTjXsASCOn5yFSGhgZ2k
gZowgZcxCzAJBgNVBAYTAlVTMRMwEQYDVQQIDApXYXNoaW5ndG9uMRAwDgYDVQQH
DAdTZWF0dGxlMRAwDgYDVQQKDAd3b2xmU1NMMRQwEgYDVQQLDAtFbmdpbmVlcmlu
ZzEYMBYGA1UEAwwPd29sZlNTTCByb290IENBMR8wHQYJKoZIhvcNAQkBFhBpbmZv
QHdvbGZzc2wuY29tggFjMAsGA1UdDwQEAwIBBjAyBggrBgEFBQcBAQQmMCQwIgYI
KwYBBQUHMAGGFmh0dHA6Ly9sb2NhbGhvc3Q6MjIyMjAwDQYJKoZIhvcNAQELBQAD
ggEBAB4H6wNmp1ToxeH+yQhYkdgb1shppWUDoxr0653NSsGdzaw5C0kJ55wPEss/
KeGc0fRoFAIu0/49YzwmgDiRA8NSUp5mTVnRgJfrkZlf59WO58TA0/MSLskFOlTt
OPNv8650GEe1JcbjRIwnvT+84/EO5FD/TOww1g2fj9D2vkNzlI9Ilzh86IpT/QJO
DywUU/RMgIoJsrioDhF1phVqX8gGe/+jdtDocArgsW2IVAbCBPmBsHevpIAbiGRe
2/823OjSe05VQDz3zTP5ZlkunBjHUOa1ucGUO3hGBaYkQSooteiS0A1HGOjMbugR
0iqUR3W1gPLogzTMfyKKnkm+MME=
-----END CERTIFICATE-----
Certificate:
    Data:
        Version: 3 (0x2)
        Serial Number: 99 (0x63)
    Signature Algorithm: sha256WithRSAEncryption
        Issuer: C=US, ST=Washington, L=Seattle, O=wolfSSL, OU=Engineering, CN=wolfSSL root CA/emailAddress=info@wolfssl.com
        Validity
            Not Before: Dec 15 01:27:23 2015 GMT
            Not After : Sep 10 01:27:23 2018 GMT
        Subject: C=US, ST=Washington, L=Seattle, O=wolfSSL, OU=Engineering, CN=wolfSSL root CA/emailAddress=info@wolfssl.com
        Subject Public Key Info:
            Public Key Algorithm: rsaEncryption
                Public-Key: (2048 bit)
                Modulus:
                    00:ab:2c:b4:2f:1d:06:09:ef:4e:29:86:84:7e:cc:
                    bf:a6:79:7c:f0:c0:c1:64:25:8c:75:b7:10:05:ca:
                    48:27:0c:0e:32:1c:b0:fe:99:85:39:b6:b9:a2:f7:
                    27:ff:6d:3c:8c:16:73:29:21:7f:8b:a6:54:71:90:
                    ad:cc:05:b9:9f:15:c7:0a:3f:5f:69:f4:0a:5f:8c:
                    71:b5:2c:bf:66:e2:03:9a:32:f4:d2:ec:2a:89:4b:
                    f9:35:88:14:33:47:4e:2e:05:79:01:ed:64:36:76:
                    b9:f8:85:cd:01:88:ac:c5:b2:b1:59:b8:cd:5a:f4:
                    09:09:38:9b:da:5a:cf:ce:78:99:1f:49:3d:41:d6:
                    06:7c:52:99:c8:97:d1:b3:80:3a:a2:4f:36:c4:c5:
                    96:30:77:31:38:c8:70:cc:e1:67:06:b3:2b:2f:93:
                    b5:69:cf:83:7e:88:53:9b:0f:46:21:4c:d6:05:36:
                    44:99:60:68:47:e5:32:01:12:d4:10:73:ae:9a:34:
                    94:fa:6e:b8:58:4f:7b:5b:8a:92:97:ad:fd:97:b9:
                    75:ca:c2:d4:45:7d:17:6b:cd:2f:f3:63:7a:0e:30:
                    b5:0b:a9:d9:a6:7c:74:60:9d:cc:09:03:43:f1:0f:
                    90:d3:b7:fe:6c:9f:d9:cd:78:4b:15:ae:8c:5b:f9:
                    99:81
                Exponent: 65537 (0x10001)
        X509v3 extensions:
            X509v3 Basic Constraints: 
                CA:TRUE
            X509v3 Subject Key Identifier: 
                73:B0:1C:A4:2F:82:CB:CF:47:A5:38:D7:B0:04:82:3A:7E:72:15:21
            X509v3 Authority Key Identifier: 
                keyid:73:B0:1C:A4:2F:82:CB:CF:47:A5:38:D7:B0:04:82:3A:7E:72:15:21
                DirName:/C=US/ST=Washington/L=Seattle/O=wolfSSL/OU=Engineering/CN=wolfSSL root CA/emailAddress=info@wolfssl.com
                serial:63

            X509v3 Key Usage: 
                Certificate Sign, CRL Sign
            Authority Information Access: 
                OCSP - URI:http://localhost:22220

    Signature Algorithm: sha256WithRSAEncryption
         5a:9d:7f:40:a7:10:51:e5:d7:b3:23:dd:e7:25:c2:bc:00:5a:
         d0:6e:cf:26:bb:c1:1d:38:89:ac:3c:0c:37:60:6c:aa:8a:54:
         6b:a4:44:79:d5:49:f5:13:ed:bc:00:4c:dd:ed:eb:2e:64:44:
         9c:4c:96:8a:6a:e6:f6:4d:0a:63:f0:f5:18:e3:5e:72:fc:5a:
         3f:1b:4c:27:eb:6e:57:9d:d5:8e:3d:ee:28:3f:1b:7b:e0:25:
         b9:0c:95:21:cd:bd:12:8f:4a:c4:b2:cc:80:da:b5:59:49:4d:
         32:d5:96:90:a0:ec:47:8c:15:0b:de:2a:22:be:d6:d4:d7:09:
         d1:85:48:4f:33:92:04:30:d1:d5:14:cb:bd:ab:96:06:93:18:
         62:ed:8f:29:f8:b6:66:06:a7:f1:3a:ae:15:62:36:90:89:de:
         41:41:f2:44:35:ea:4c:7b:fc:0b:6f:08:46:09:de:35:5f:e3:
         e6:f3:5a:08:70:a4:28:df:a6:c7:17:d1:c3:ec:70:09:c2:06:
         c7:12:29:b9:d6:d6:26:7d:2c:df:86:c7:4d:0a:c6:98:2b:61:
         14:b3:b3:29:8e:c1:85:18:db:fd:54:9d:fe:99:a9:90:d1:c6:
         08:2b:4f:6c:16:47:d9:16:fc:7b:0c:84:a7:15:b0:78:41:48:
         87:f5:98:78
-----BEGIN CERTIFICATE-----
MIIE5jCCA86gAwIBAgIBYzANBgkqhkiG9w0BAQsFADCBlzELMAkGA1UEBhMCVVMx
EzARBgNVBAgMCldhc2hpbmd0b24xEDAOBgNVBAcMB1NlYXR0bGUxEDAOBgNVBAoM
B3dvbGZTU0wxFDASBgNVBAsMC0VuZ2luZWVyaW5nMRgwFgYDVQQDDA93b2xmU1NM
IHJvb3QgQ0ExHzAdBgkqhkiG9w0BCQEWEGluZm9Ad29sZnNzbC5jb20wHhcNMTUx
MjE1MDEyNzIzWhcNMTgwOTEwMDEyNzIzWjCBlzELMAkGA1UEBhMCVVMxEzARBgNV
BAgMCldhc2hpbmd0b24xEDAOBgNVBAcMB1NlYXR0bGUxEDAOBgNVBAoMB3dvbGZT
U0wxFDASBgNVBAsMC0VuZ2luZWVyaW5nMRgwFgYDVQQDDA93b2xmU1NMIHJvb3Qg
Q0ExHzAdBgkqhkiG9w0BCQEWEGluZm9Ad29sZnNzbC5jb20wggEiMA0GCSqGSIb3
DQEBAQUAA4IBDwAwggEKAoIBAQCrLLQvHQYJ704phoR+zL+meXzwwMFkJYx1txAF
ykgnDA4yHLD+mYU5trmi9yf/bTyMFnMpIX+LplRxkK3MBbmfFccKP19p9ApfjHG1
LL9m4gOaMvTS7CqJS/k1iBQzR04uBXkB7WQ2drn4hc0BiKzFsrFZuM1a9AkJOJva
Ws/OeJkfST1B1gZ8UpnIl9GzgDqiTzbExZYwdzE4yHDM4WcGsysvk7Vpz4N+iFOb
D0YhTNYFNkSZYGhH5TIBEtQQc66aNJT6brhYT3tbipKXrf2XuXXKwtRFfRdrzS/z
Y3oOMLULqdmmfHRgncwJA0PxD5DTt/5sn9nNeEsVroxb+ZmBAgMBAAGjggE5MIIB
NTAMBgNVHRMEBTADAQH/MB0GA1UdDgQWBBRzsBykL4LLz0elONewBII6fnIVITCB
xAYDVR0jBIG8MIG5gBRzsBykL4LLz0elONewBII6fnIVIaGBnaSBmjCBlzELMAkG
A1UEBhMCVVMxEzARBgNVBAgMCldhc2hpbmd0b24xEDAOBgNVBAcMB1NlYXR0bGUx
EDAOBgNVBAoMB3dvbGZTU0wxFDASBgNVBAsMC0VuZ2luZWVyaW5nMRgwFgYDVQQD
DA93b2xmU1NMIHJvb3QgQ0ExHzAdBgkqhkiG9w0BCQEWEGluZm9Ad29sZnNzbC5j
b22CAWMwCwYDVR0PBAQDAgEGMDIGCCsGAQUFBwEBBCYwJDAiBggrBgEFBQcwAYYW
aHR0cDovL2xvY2FsaG9zdDoyMjIyMDANBgkqhkiG9w0BAQsFAAOCAQEAWp1/QKcQ
UeXXsyPd5yXCvABa0G7PJrvBHTiJrDwMN2BsqopUa6REedVJ9RPtvABM3e3rLmRE
nEyWimrm9k0KY/D1GONecvxaPxtMJ+tuV53Vjj3uKD8be+AluQyVIc29Eo9KxLLM
gNq1WUlNMtWWkKDsR4wVC94qIr7W1NcJ0YVITzOSBDDR1RTLvauWBpMYYu2PKfi2
Zgan8TquFWI2kIneQUHyRDXqTHv8C28IRgneNV/j5vNaCHCkKN+mxxfRw+xwCcIG
xxIpudbWJn0s34bHTQrGmCthFLOzKY7BhRjb/VSd/pmpkNHGCCtPbBZH2Rb8ewyE
pxWweEFIh/WYeA==
-----END CERTIFICATE-----
