Certificate:
    Data:
        Version: 3 (0x2)
        Serial Number:
            02:14:a4:42:6d:46:df:fc:0d:53:f3:d5:e1:e9:bf:39:b7:8f:99:15
        Signature Algorithm: sha256WithRSAEncryption
        Issuer: CN=wolfssl-aia-test
        Validity
            Not Before: Jun 11 21:44:28 2026 GMT
            Not After : Jun 11 21:44:28 2027 GMT
        Subject: CN=wolfssl-aia-test
        Subject Public Key Info:
            Public Key Algorithm: rsaEncryption
                Public-Key: (2048 bit)
                Modulus:
                    00:cd:3e:7c:5e:f1:04:e8:54:36:04:90:91:6b:df:
                    38:d5:80:ed:64:d5:39:a8:1a:cd:c5:96:02:58:52:
                    a0:9c:a6:63:3e:0c:13:d2:b4:41:f7:02:bf:b0:96:
                    69:53:5d:49:70:e0:42:82:a1:32:ea:ba:07:a2:0f:
                    78:ca:84:fb:8f:9f:6f:eb:a7:1d:b8:65:16:65:74:
                    3a:99:d5:24:29:d9:09:aa:57:42:2b:81:57:ea:81:
                    66:56:b5:00:77:1c:8e:44:bb:08:fd:44:f0:00:3f:
                    1b:4d:ea:e6:ec:e0:c9:63:bf:ce:da:f4:07:4e:c0:
                    a2:15:db:71:8c:5f:61:e7:8d:d2:47:21:b8:23:fa:
                    fd:c2:72:11:3f:8d:be:34:ea:b4:2e:60:0a:ff:27:
                    03:56:c9:af:87:18:79:0b:1c:84:b9:e8:63:d4:49:
                    38:51:60:bf:0d:d6:c1:43:b5:b4:a5:80:60:50:48:
                    e6:71:fc:58:30:19:e9:12:3b:3a:6d:f4:bf:3b:89:
                    2c:77:c7:f8:7b:4c:56:a0:e2:75:11:b3:81:c1:4f:
                    76:01:0d:ee:33:bb:4c:cb:0a:22:7c:f8:e9:0d:00:
                    18:ee:3f:6b:8c:2e:1b:f5:98:31:66:2f:92:40:73:
                    ad:98:7e:91:66:15:5e:57:42:ef:2d:bb:fe:54:70:
                    6b:27
                Exponent: 65537 (0x10001)
        X509v3 extensions:
            X509v3 Subject Key Identifier: 
                76:29:B9:2D:FE:E8:47:1C:27:E7:C7:65:1D:97:B0:4B:5C:73:37:54
            X509v3 Authority Key Identifier: 
                keyid:76:29:B9:2D:FE:E8:47:1C:27:E7:C7:65:1D:97:B0:4B:5C:73:37:54
                DirName:/CN=wolfssl-aia-test
                serial:02:14:A4:42:6D:46:DF:FC:0D:53:F3:D5:E1:E9:BF:39:B7:8F:99:15
            X509v3 Basic Constraints: critical
                CA:TRUE
            Authority Information Access: 
                CA Issuers - URI:http://example.com/ca.pem
    Signature Algorithm: sha256WithRSAEncryption
    Signature Value:
        01:b5:e8:8c:38:c5:3c:9a:50:d7:c5:bc:a0:d6:9d:8b:2a:57:
        a5:81:9f:cc:d1:1b:54:6e:b8:6d:18:2a:22:d5:cc:2b:55:7e:
        52:49:6b:db:d9:87:36:b6:a1:c8:37:a6:e1:ab:7a:cb:9d:7d:
        15:22:54:51:db:ae:52:29:e5:ef:9e:9c:af:e9:c7:aa:8f:50:
        fc:e8:20:e5:8c:6b:60:5d:7d:7e:c4:b6:cb:22:0a:05:64:67:
        a0:c1:4c:4a:b3:cf:05:21:13:bd:13:b4:a5:4a:ec:76:b2:7b:
        03:56:f8:9b:8a:38:62:f5:05:ce:a5:fe:e7:9d:d9:c8:00:10:
        fb:7b:42:2f:50:cc:1d:f6:d2:c3:5e:cd:aa:a5:90:91:e6:00:
        75:65:0a:96:34:81:69:13:c5:10:82:85:76:e1:4a:0b:90:1b:
        d2:e3:78:4d:b2:ac:4e:e1:ec:c7:89:34:87:2e:90:41:50:a6:
        9f:48:ea:5f:e4:a9:9f:e6:b8:ba:08:c4:f8:c0:94:0e:a3:2d:
        fb:ad:68:b6:9d:16:d4:b8:7b:4f:ea:51:e3:53:60:d6:39:41:
        b1:8b:3f:16:dc:f6:ec:b4:aa:22:47:90:cb:d9:2b:ad:c0:41:
        f6:e4:b2:48:34:e8:20:51:7e:66:67:1c:cf:2d:b7:bc:df:19:
        63:8a:81:19
-----BEGIN CERTIFICATE-----
MIIDhzCCAm+gAwIBAgIUAhSkQm1G3/wNU/PV4em/ObePmRUwDQYJKoZIhvcNAQEL
BQAwGzEZMBcGA1UEAwwQd29sZnNzbC1haWEtdGVzdDAeFw0yNjA2MTEyMTQ0Mjha
Fw0yNzA2MTEyMTQ0MjhaMBsxGTAXBgNVBAMMEHdvbGZzc2wtYWlhLXRlc3QwggEi
MA0GCSqGSIb3DQEBAQUAA4IBDwAwggEKAoIBAQDNPnxe8QToVDYEkJFr3zjVgO1k
1TmoGs3FlgJYUqCcpmM+DBPStEH3Ar+wlmlTXUlw4EKCoTLqugeiD3jKhPuPn2/r
px24ZRZldDqZ1SQp2QmqV0IrgVfqgWZWtQB3HI5Euwj9RPAAPxtN6ubs4Mljv87a
9AdOwKIV23GMX2HnjdJHIbgj+v3CchE/jb406rQuYAr/JwNWya+HGHkLHIS56GPU
SThRYL8N1sFDtbSlgGBQSOZx/FgwGekSOzpt9L87iSx3x/h7TFag4nURs4HBT3YB
De4zu0zLCiJ8+OkNABjuP2uMLhv1mDFmL5JAc62YfpFmFV5XQu8tu/5UcGsnAgMB
AAGjgcIwgb8wHQYDVR0OBBYEFHYpuS3+6EccJ+fHZR2XsEtcczdUMFYGA1UdIwRP
ME2AFHYpuS3+6EccJ+fHZR2XsEtcczdUoR+kHTAbMRkwFwYDVQQDDBB3b2xmc3Ns
LWFpYS10ZXN0ghQCFKRCbUbf/A1T89Xh6b85t4+ZFTAPBgNVHRMBAf8EBTADAQH/
MDUGCCsGAQUFBwEBBCkwJzAlBggrBgEFBQcwAoYZaHR0cDovL2V4YW1wbGUuY29t
L2NhLnBlbTANBgkqhkiG9w0BAQsFAAOCAQEAAbXojDjFPJpQ18W8oNadiypXpYGf
zNEbVG64bRgqItXMK1V+Uklr29mHNrahyDem4at6y519FSJUUduuUinl756cr+nH
qo9Q/Ogg5YxrYF19fsS2yyIKBWRnoMFMSrPPBSETvRO0pUrsdrJ7A1b4m4o4YvUF
zqX+553ZyAAQ+3tCL1DMHfbSw17NqqWQkeYAdWUKljSBaRPFEIKFduFKC5Ab0uN4
TbKsTuHsx4k0hy6QQVCmn0jqX+Spn+a4ugjE+MCUDqMt+61otp0W1Lh7T+pR41Ng
1jlBsYs/Ftz27LSqIkeQy9krrcBB9uSySDToIFF+Zmcczy23vN8ZY4qBGQ==
-----END CERTIFICATE-----
