Certificate:
    Data:
        Version: 3 (0x2)
        Serial Number:
            52:89:e9:fe:f4:71:88:9b:b0:00:93:08:87:e6:2a:6d:7d:2b:00:00
        Signature Algorithm: sha256WithRSAEncryption
        Issuer: CN=wolfssl-aia-multi-test
        Validity
            Not Before: Jun 11 21:44:28 2026 GMT
            Not After : Jun 11 21:44:28 2027 GMT
        Subject: CN=wolfssl-aia-multi-test
        Subject Public Key Info:
            Public Key Algorithm: rsaEncryption
                Public-Key: (2048 bit)
                Modulus:
                    00:cb:32:38:b3:1a:20:0c:9c:6e:b6:fd:2a:53:8e:
                    84:43:71:30:bb:19:7c:52:54:91:93:64:ca:38:8e:
                    c2:93:56:a5:72:76:94:b4:6e:52:55:e1:f2:cc:f0:
                    88:35:13:b7:b2:8e:e8:23:cd:53:24:cd:fa:10:6d:
                    05:db:bc:61:18:89:15:67:51:91:40:45:ec:4d:c2:
                    09:3c:8f:ff:d6:43:c3:5b:1c:61:45:36:d4:9b:28:
                    ea:7b:3f:e6:86:a7:96:a4:8d:5c:ff:6b:04:f1:00:
                    ac:cb:52:6b:1e:8c:ab:dc:8e:44:84:38:f8:8e:f6:
                    b7:ee:de:ff:26:6b:03:32:db:3c:75:7b:75:25:c2:
                    88:64:7c:4e:ea:73:17:04:a4:7b:3d:de:06:a6:62:
                    f1:f5:ad:49:af:2c:b2:2f:96:b0:ba:73:5a:ef:b9:
                    be:33:ad:2a:1e:22:b1:7d:52:a3:a5:48:38:c8:b7:
                    46:09:99:28:56:67:1d:a7:93:22:08:6b:d0:fc:cd:
                    14:b4:97:ea:d5:92:1e:33:10:29:7b:e7:77:ce:ca:
                    35:5e:bf:9b:e8:8e:bf:bf:51:ca:85:56:18:75:b8:
                    a8:e8:bb:ed:a6:68:7a:be:c9:28:df:77:41:97:62:
                    60:2f:3e:0a:45:95:c4:6c:90:c5:4f:8d:d1:7e:d3:
                    88:97
                Exponent: 65537 (0x10001)
        X509v3 extensions:
            X509v3 Subject Key Identifier: 
                7E:6F:56:89:B0:07:C4:C1:C4:D4:6F:48:E9:E3:C9:9E:0D:F4:32:60
            X509v3 Basic Constraints: 
                CA:TRUE
            X509v3 Key Usage: 
                Digital Signature, Certificate Sign
            Authority Information Access: 
                OCSP - URI:http://127.0.0.1:22221
                OCSP - URI:http://127.0.0.1:22222
                CA Issuers - URI:http://www.wolfssl.com/ca.pem
                CA Issuers - URI:https://www.wolfssl.com/ca2.pem
    Signature Algorithm: sha256WithRSAEncryption
    Signature Value:
        b5:bb:c4:bf:fc:9f:b2:60:71:af:15:76:a1:05:8e:f1:48:a5:
        84:05:9b:65:e8:53:9e:b0:b5:0a:3e:aa:ea:aa:8e:e0:dd:0f:
        95:4d:20:29:3d:36:1f:cd:fb:73:5f:27:d4:e8:a2:29:ec:04:
        eb:2c:ed:7b:4b:5b:fd:a8:23:06:fb:19:a2:a4:cf:b6:3e:cc:
        84:1c:82:89:89:f9:82:e3:06:f4:a4:48:66:9f:fa:91:80:60:
        30:98:93:a5:4d:42:ec:03:8d:ab:37:57:2c:4b:34:5a:fa:61:
        1e:ed:f2:b7:92:38:9d:04:8a:7d:9a:52:2d:2d:6f:b6:4d:ca:
        e4:66:5c:f6:b5:a6:a9:46:ce:2e:9b:7c:9b:50:45:72:cd:28:
        93:a2:e0:90:f7:1d:e2:19:e9:2e:03:a0:01:17:04:40:2f:47:
        c8:6a:2d:4e:ab:67:10:07:18:91:97:e9:84:b8:17:1e:51:5c:
        f4:8d:79:1c:b1:d7:c3:21:0c:70:3f:2f:de:77:6a:49:53:74:
        86:7f:f7:c9:86:88:21:5f:15:a2:9c:e3:55:49:6f:c0:3c:ee:
        1d:36:56:90:0b:ad:58:74:5c:3d:39:f5:67:27:77:b6:5a:22:
        76:50:9b:b4:82:9f:3b:23:5e:44:97:52:75:02:af:21:aa:6b:
        7f:56:36:9d
-----BEGIN CERTIFICATE-----
MIIDwTCCAqmgAwIBAgIUUonp/vRxiJuwAJMIh+YqbX0rAAAwDQYJKoZIhvcNAQEL
BQAwITEfMB0GA1UEAwwWd29sZnNzbC1haWEtbXVsdGktdGVzdDAeFw0yNjA2MTEy
MTQ0MjhaFw0yNzA2MTEyMTQ0MjhaMCExHzAdBgNVBAMMFndvbGZzc2wtYWlhLW11
bHRpLXRlc3QwggEiMA0GCSqGSIb3DQEBAQUAA4IBDwAwggEKAoIBAQDLMjizGiAM
nG62/SpTjoRDcTC7GXxSVJGTZMo4jsKTVqVydpS0blJV4fLM8Ig1E7eyjugjzVMk
zfoQbQXbvGEYiRVnUZFARexNwgk8j//WQ8NbHGFFNtSbKOp7P+aGp5akjVz/awTx
AKzLUmsejKvcjkSEOPiO9rfu3v8mawMy2zx1e3UlwohkfE7qcxcEpHs93gamYvH1
rUmvLLIvlrC6c1rvub4zrSoeIrF9UqOlSDjIt0YJmShWZx2nkyIIa9D8zRS0l+rV
kh4zECl753fOyjVev5vojr+/UcqFVhh1uKjou+2maHq+ySjfd0GXYmAvPgpFlcRs
kMVPjdF+04iXAgMBAAGjgfAwge0wHQYDVR0OBBYEFH5vVomwB8TBxNRvSOnjyZ4N
9DJgMAwGA1UdEwQFMAMBAf8wCwYDVR0PBAQDAgKEMIGwBggrBgEFBQcBAQSBozCB
oDAiBggrBgEFBQcwAYYWaHR0cDovLzEyNy4wLjAuMToyMjIyMTAiBggrBgEFBQcw
AYYWaHR0cDovLzEyNy4wLjAuMToyMjIyMjApBggrBgEFBQcwAoYdaHR0cDovL3d3
dy53b2xmc3NsLmNvbS9jYS5wZW0wKwYIKwYBBQUHMAKGH2h0dHBzOi8vd3d3Lndv
bGZzc2wuY29tL2NhMi5wZW0wDQYJKoZIhvcNAQELBQADggEBALW7xL/8n7Jgca8V
dqEFjvFIpYQFm2XoU56wtQo+quqqjuDdD5VNICk9Nh/N+3NfJ9TooinsBOss7XtL
W/2oIwb7GaKkz7Y+zIQcgomJ+YLjBvSkSGaf+pGAYDCYk6VNQuwDjas3VyxLNFr6
YR7t8reSOJ0Ein2aUi0tb7ZNyuRmXPa1pqlGzi6bfJtQRXLNKJOi4JD3HeIZ6S4D
oAEXBEAvR8hqLU6rZxAHGJGX6YS4Fx5RXPSNeRyx18MhDHA/L953aklTdIZ/98mG
iCFfFaKc41VJb8A87h02VpALrVh0XD059Wcnd7ZaInZQm7SCnzsjXkSXUnUCryGq
a39WNp0=
-----END CERTIFICATE-----
