Certificate:
    Data:
        Version: 3 (0x2)
        Serial Number:
            54:0a:0d:d6:db:61:0b:a2:3d:8f:40:07:5f:7a:1d:c3:6f:61:9d:cb
        Signature Algorithm: sha256WithRSAEncryption
        Issuer: CN=wolfssl-aia-overflow-test
        Validity
            Not Before: Jun 11 21:44:28 2026 GMT
            Not After : Jun 11 21:44:28 2027 GMT
        Subject: CN=wolfssl-aia-overflow-test
        Subject Public Key Info:
            Public Key Algorithm: rsaEncryption
                Public-Key: (2048 bit)
                Modulus:
                    00:9d:c6:cc:f8:99:4a:cf:86:a2:71:65:ec:cd:50:
                    99:77:82:53:05:21:c5:a2:25:60:1d:1c:51:a6:17:
                    16:d6:da:43:63:33:8f:ce:31:58:2f:64:a2:6b:7a:
                    fa:08:be:3d:2d:c7:aa:6b:23:6b:13:16:c0:37:23:
                    48:ec:78:5a:11:17:7c:ef:e7:7e:d5:dd:a1:56:c8:
                    cd:4e:fd:ad:a3:8e:38:fc:7d:f2:50:b7:d6:75:aa:
                    33:26:23:5e:e8:05:0e:82:ff:32:b8:3c:0e:7d:ea:
                    aa:a0:db:18:98:d3:87:d2:81:56:b8:98:a5:86:fa:
                    53:91:b4:31:4e:d3:64:9f:14:9c:33:9c:60:10:a5:
                    e8:3b:db:78:2e:14:25:87:6b:cb:70:ba:20:7d:13:
                    cd:13:db:17:9a:9c:5b:59:9d:88:7f:87:4a:74:a8:
                    aa:1f:5e:34:fe:20:57:f6:8c:92:34:0d:34:ef:a8:
                    db:f7:85:09:46:74:90:83:de:56:40:9d:cd:10:b8:
                    c2:5c:09:28:e8:dd:9f:35:f8:25:73:d9:ed:31:10:
                    50:df:34:36:2e:17:7c:e0:46:bd:2b:57:a4:75:11:
                    13:b2:15:e9:39:36:9c:d6:ea:3f:03:88:3a:43:ae:
                    e7:b7:b5:59:e1:b3:cc:1e:52:17:f7:82:b2:74:ce:
                    56:1b
                Exponent: 65537 (0x10001)
        X509v3 extensions:
            X509v3 Subject Key Identifier: 
                C6:45:E1:AD:51:A7:4E:B2:31:3C:97:76:E0:EF:28:3B:05:F2:DB:3B
            X509v3 Basic Constraints: 
                CA:TRUE
            X509v3 Key Usage: 
                Digital Signature, Certificate Sign
            Authority Information Access: 
                OCSP - URI:http://127.0.0.1:22220
                OCSP - URI:http://127.0.0.1:22221
                OCSP - URI:http://127.0.0.1:22222
                OCSP - URI:http://127.0.0.1:22223
                OCSP - URI:http://127.0.0.1:22224
                OCSP - URI:http://127.0.0.1:22225
                OCSP - URI:http://127.0.0.1:22226
                OCSP - URI:http://127.0.0.1:22227
                OCSP - URI:http://127.0.0.1:22228
    Signature Algorithm: sha256WithRSAEncryption
    Signature Value:
        67:58:a5:88:18:3b:78:bd:07:1e:89:1c:f1:a7:04:6c:3c:e0:
        b1:55:0a:52:92:b6:f5:48:e0:01:0b:28:08:f7:64:bf:7d:a3:
        d4:02:e4:93:59:6a:ef:7d:c9:c1:2b:ca:f9:ad:16:89:67:c7:
        44:f6:80:b0:b4:58:14:6c:61:4c:06:1e:44:0c:03:fe:27:92:
        c2:a4:a5:41:31:f9:7d:e2:14:ae:b6:6a:85:6c:dc:f0:b4:9b:
        73:b4:2e:62:1d:25:65:d5:5a:86:e7:40:af:ea:9e:92:b2:ce:
        91:34:b9:2a:19:ed:87:fd:ba:37:7a:cc:b5:b5:88:c7:19:3f:
        9f:ca:bb:9f:83:da:97:e1:af:f9:6d:ce:74:2f:62:45:78:ea:
        5b:5a:79:6a:00:ee:51:b4:cc:cf:75:bd:8a:b3:18:f0:a2:7b:
        cc:d6:8c:dd:c9:76:f7:7d:b1:ae:5a:1e:21:88:79:35:13:cc:
        08:0d:d4:a7:e8:95:03:95:e8:84:f4:7c:18:92:40:73:7a:be:
        03:ab:c9:6f:12:97:8a:0b:e6:4f:a7:11:f7:e7:22:d6:2c:67:
        91:81:b6:f0:de:01:ec:05:0c:ca:6a:8d:07:4e:8f:4e:80:4e:
        a8:32:25:1a:52:ba:85:e0:aa:da:bc:5b:61:b5:31:d9:d0:f1:
        e8:19:3b:da
-----BEGIN CERTIFICATE-----
MIIEcDCCA1igAwIBAgIUVAoN1tthC6I9j0AHX3odw29hncswDQYJKoZIhvcNAQEL
BQAwJDEiMCAGA1UEAwwZd29sZnNzbC1haWEtb3ZlcmZsb3ctdGVzdDAeFw0yNjA2
MTEyMTQ0MjhaFw0yNzA2MTEyMTQ0MjhaMCQxIjAgBgNVBAMMGXdvbGZzc2wtYWlh
LW92ZXJmbG93LXRlc3QwggEiMA0GCSqGSIb3DQEBAQUAA4IBDwAwggEKAoIBAQCd
xsz4mUrPhqJxZezNUJl3glMFIcWiJWAdHFGmFxbW2kNjM4/OMVgvZKJrevoIvj0t
x6prI2sTFsA3I0jseFoRF3zv537V3aFWyM1O/a2jjjj8ffJQt9Z1qjMmI17oBQ6C
/zK4PA596qqg2xiY04fSgVa4mKWG+lORtDFO02SfFJwznGAQpeg723guFCWHa8tw
uiB9E80T2xeanFtZnYh/h0p0qKofXjT+IFf2jJI0DTTvqNv3hQlGdJCD3lZAnc0Q
uMJcCSjo3Z81+CVz2e0xEFDfNDYuF3zgRr0rV6R1EROyFek5NpzW6j8DiDpDrue3
tVnhs8weUhf3grJ0zlYbAgMBAAGjggGYMIIBlDAdBgNVHQ4EFgQUxkXhrVGnTrIx
PJd24O8oOwXy2zswDAYDVR0TBAUwAwEB/zALBgNVHQ8EBAMCAoQwggFWBggrBgEF
BQcBAQSCAUgwggFEMCIGCCsGAQUFBzABhhZodHRwOi8vMTI3LjAuMC4xOjIyMjIw
MCIGCCsGAQUFBzABhhZodHRwOi8vMTI3LjAuMC4xOjIyMjIxMCIGCCsGAQUFBzAB
hhZodHRwOi8vMTI3LjAuMC4xOjIyMjIyMCIGCCsGAQUFBzABhhZodHRwOi8vMTI3
LjAuMC4xOjIyMjIzMCIGCCsGAQUFBzABhhZodHRwOi8vMTI3LjAuMC4xOjIyMjI0
MCIGCCsGAQUFBzABhhZodHRwOi8vMTI3LjAuMC4xOjIyMjI1MCIGCCsGAQUFBzAB
hhZodHRwOi8vMTI3LjAuMC4xOjIyMjI2MCIGCCsGAQUFBzABhhZodHRwOi8vMTI3
LjAuMC4xOjIyMjI3MCIGCCsGAQUFBzABhhZodHRwOi8vMTI3LjAuMC4xOjIyMjI4
MA0GCSqGSIb3DQEBCwUAA4IBAQBnWKWIGDt4vQceiRzxpwRsPOCxVQpSkrb1SOAB
CygI92S/faPUAuSTWWrvfcnBK8r5rRaJZ8dE9oCwtFgUbGFMBh5EDAP+J5LCpKVB
Mfl94hSutmqFbNzwtJtztC5iHSVl1VqG50Cv6p6Sss6RNLkqGe2H/bo3esy1tYjH
GT+fyrufg9qX4a/5bc50L2JFeOpbWnlqAO5RtMzPdb2KsxjwonvM1ozdyXb3fbGu
Wh4hiHk1E8wIDdSn6JUDleiE9HwYkkBzer4Dq8lvEpeKC+ZPpxH35yLWLGeRgbbw
3gHsBQzKao0HTo9OgE6oMiUaUrqF4KravFthtTHZ0PHoGTva
-----END CERTIFICATE-----
