Certificate:
    Data:
        Version: 3 (0x2)
        Serial Number: 4096 (0x1000)
        Signature Algorithm: sha256WithRSAEncryption
        Issuer: CN=www.wolfssl.com, ST=Montana, C=US, emailAddress=facts@wolfssl.com, OU=Engineering
        Validity
            Not Before: Jul 31 00:00:00 2018 GMT
            Not After : Aug 30 00:00:00 2018 GMT
        Subject: CN=www.wolfssl.com, ST=Montana, C=US, emailAddress=facts@wolfssl.com, OU=Engineering
        Subject Public Key Info:
            Public Key Algorithm: rsaEncryption
                Public-Key: (2048 bit)
                Modulus:
                    00:c0:95:08:e1:57:41:f2:71:6d:b7:d2:45:41:27:
                    01:65:c6:45:ae:f2:bc:24:30:b8:95:ce:2f:4e:d6:
                    f6:1c:88:bc:7c:9f:fb:a8:67:7f:fe:5c:9c:51:75:
                    f7:8a:ca:07:e7:35:2f:8f:e1:bd:7b:c0:2f:7c:ab:
                    64:a8:17:fc:ca:5d:7b:ba:e0:21:e5:72:2e:6f:2e:
                    86:d8:95:73:da:ac:1b:53:b9:5f:3f:d7:19:0d:25:
                    4f:e1:63:63:51:8b:0b:64:3f:ad:43:b8:a5:1c:5c:
                    34:b3:ae:00:a0:63:c5:f6:7f:0b:59:68:78:73:a6:
                    8c:18:a9:02:6d:af:c3:19:01:2e:b8:10:e3:c6:cc:
                    40:b4:69:a3:46:33:69:87:6e:c4:bb:17:a6:f3:e8:
                    dd:ad:73:bc:7b:2f:21:b5:fd:66:51:0c:bd:54:b3:
                    e1:6d:5f:1c:bc:23:73:d1:09:03:89:14:d2:10:b9:
                    64:c3:2a:d0:a1:96:4a:bc:e1:d4:1a:5b:c7:a0:c0:
                    c1:63:78:0f:44:37:30:32:96:80:32:23:95:a1:77:
                    ba:13:d2:97:73:e2:5d:25:c9:6a:0d:c3:39:60:a4:
                    b4:b0:69:42:42:09:e9:d8:08:bc:33:20:b3:58:22:
                    a7:aa:eb:c4:e1:e6:61:83:c5:d2:96:df:d9:d0:4f:
                    ad:d7
                Exponent: 65537 (0x10001)
        X509v3 extensions:
            X509v3 Subject Key Identifier: 
                B3:11:32:C9:92:98:84:E2:C9:F8:D0:3B:6E:03:42:CA:1F:0E:8E:3C
    Signature Algorithm: sha256WithRSAEncryption
    Signature Value:
        11:43:da:29:a7:ee:24:6f:02:b4:5e:8a:d4:19:32:c3:c4:95:
        13:2f:1c:21:f9:f1:74:ba:18:0f:81:d9:d1:bd:0b:62:f9:20:
        7c:fc:c7:52:5d:08:1a:d6:19:58:d8:27:da:f2:d7:e2:ea:54:
        39:12:a3:05:7a:9e:fd:4e:11:92:d4:e8:b4:89:73:1e:ec:ee:
        2d:03:58:de:3e:2c:3b:cf:bc:89:cb:11:b4:d3:6b:2c:e5:c3:
        be:44:7a:35:3f:1d:35:2b:34:2b:45:97:69:86:1a:67:8b:75:
        e1:df:48:6c:28:af:1d:55:11:1e:7e:52:90:61:70:dc:f9:de:
        4b:f4:d1:06:58:d2:2f:de:fc:35:cd:cb:65:e3:0b:80:d8:13:
        06:f0:47:43:b0:e7:a3:e8:76:bf:c1:66:07:0b:1a:c5:d3:3f:
        4d:34:56:b3:b9:a3:05:48:1f:e8:d7:73:a8:d3:68:e2:8d:0b:
        1f:ff:4c:c9:7a:71:e1:8f:25:fc:7d:ad:39:6e:4b:76:d5:2a:
        33:e2:d5:98:5c:21:56:dd:8b:05:72:32:bb:40:1e:c6:4a:82:
        56:a0:65:98:d0:07:aa:cb:a4:89:57:3b:ff:5e:7c:96:4a:ca:
        43:80:84:2d:c6:ee:f4:30:c9:fc:5c:f7:ce:fd:e3:8d:76:d7:
        71:1a:f1:b0
-----BEGIN CERTIFICATE-----
MIIDfzCCAmegAwIBAgICEAAwDQYJKoZIhvcNAQELBQAwcTEYMBYGA1UEAwwPd3d3
LndvbGZzc2wuY29tMRAwDgYDVQQIDAdNb250YW5hMQswCQYDVQQGEwJVUzEgMB4G
CSqGSIb3DQEJARYRZmFjdHNAd29sZnNzbC5jb20xFDASBgNVBAsMC0VuZ2luZWVy
aW5nMB4XDTE4MDczMTAwMDAwMFoXDTE4MDgzMDAwMDAwMFowcTEYMBYGA1UEAwwP
d3d3LndvbGZzc2wuY29tMRAwDgYDVQQIDAdNb250YW5hMQswCQYDVQQGEwJVUzEg
MB4GCSqGSIb3DQEJARYRZmFjdHNAd29sZnNzbC5jb20xFDASBgNVBAsMC0VuZ2lu
ZWVyaW5nMIIBIjANBgkqhkiG9w0BAQEFAAOCAQ8AMIIBCgKCAQEAwJUI4VdB8nFt
t9JFQScBZcZFrvK8JDC4lc4vTtb2HIi8fJ/7qGd//lycUXX3isoH5zUvj+G9e8Av
fKtkqBf8yl17uuAh5XIuby6G2JVz2qwbU7lfP9cZDSVP4WNjUYsLZD+tQ7ilHFw0
s64AoGPF9n8LWWh4c6aMGKkCba/DGQEuuBDjxsxAtGmjRjNph27Euxem8+jdrXO8
ey8htf1mUQy9VLPhbV8cvCNz0QkDiRTSELlkwyrQoZZKvOHUGlvHoMDBY3gPRDcw
MpaAMiOVoXe6E9KXc+JdJclqDcM5YKS0sGlCQgnp2Ai8MyCzWCKnquvE4eZhg8XS
lt/Z0E+t1wIDAQABoyEwHzAdBgNVHQ4EFgQUsxEyyZKYhOLJ+NA7bgNCyh8Ojjww
DQYJKoZIhvcNAQELBQADggEBABFD2imn7iRvArReitQZMsPElRMvHCH58XS6GA+B
2dG9C2L5IHz8x1JdCBrWGVjYJ9ry1+LqVDkSowV6nv1OEZLU6LSJcx7s7i0DWN4+
LDvPvInLEbTTayzlw75EejU/HTUrNCtFl2mGGmeLdeHfSGworx1VER5+UpBhcNz5
3kv00QZY0i/e/DXNy2XjC4DYEwbwR0Ow56Podr/BZgcLGsXTP000VrO5owVIH+jX
c6jTaOKNCx//TMl6ceGPJfx9rTluS3bVKjPi1ZhcIVbdiwVyMrtAHsZKglagZZjQ
B6rLpIlXO/9efJZKykOAhC3G7vQwyfxc9879441213Ea8bA=
-----END CERTIFICATE-----
