Certificate:
    Data:
        Version: 3 (0x2)
        Serial Number: 4096 (0x1000)
        Signature Algorithm: sha256WithRSAEncryption
        Issuer: CN=www.wolfssl.com, ST=Montana, C=US, emailAddress=info@wolfssl.com, OU=Engineering
        Validity
            Not Before: Jul 31 00:00:00 2018 GMT
            Not After : Aug 30 00:00:00 2018 GMT
        Subject: CN=www.wolfssl.com, ST=Montana, C=US, emailAddress=info@wolfssl.com, OU=Engineering
        Subject Public Key Info:
            Public Key Algorithm: rsaEncryption
                Public-Key: (2048 bit)
                Modulus:
                    00:bf:0c:ca:2d:14:b2:1e:84:42:5b:cd:38:1f:4a:
                    f2:4d:75:10:f1:b6:35:9f:df:ca:7d:03:98:d3:ac:
                    de:03:66:ee:2a:f1:d8:b0:7d:6e:07:54:0b:10:98:
                    21:4d:80:cb:12:20:e7:cc:4f:de:45:7d:c9:72:77:
                    32:ea:ca:90:bb:69:52:10:03:2f:a8:f3:95:c5:f1:
                    8b:62:56:1b:ef:67:6f:a4:10:41:95:ad:0a:9b:e3:
                    a5:c0:b0:d2:70:76:50:30:5b:a8:e8:08:2c:7c:ed:
                    a7:a2:7a:8d:38:29:1c:ac:c7:ed:f2:7c:95:b0:95:
                    82:7d:49:5c:38:cd:77:25:ef:bd:80:75:53:94:3c:
                    3d:ca:63:5b:9f:15:b5:d3:1d:13:2f:19:d1:3c:db:
                    76:3a:cc:b8:7d:c9:e5:c2:d7:da:40:6f:d8:21:dc:
                    73:1b:42:2d:53:9c:fe:1a:fc:7d:ab:7a:36:3f:98:
                    de:84:7c:05:67:ce:6a:14:38:87:a9:f1:8c:b5:68:
                    cb:68:7f:71:20:2b:f5:a0:63:f5:56:2f:a3:26:d2:
                    b7:6f:b1:5a:17:d7:38:99:08:fe:93:58:6f:fe:c3:
                    13:49:08:16:0b:a7:4d:67:00:52:31:67:23:4e:98:
                    ed:51:45:1d:b9:04:d9:0b:ec:d8:28:b3:4b:bd:ed:
                    36:79
                Exponent: 65537 (0x10001)
        X509v3 extensions:
            X509v3 Subject Key Identifier: 
                27:8E:67:11:74:C3:26:1D:3F:ED:33:63:B3:A4:D8:1D:30:E5:E8:D5
    Signature Algorithm: sha256WithRSAEncryption
    Signature Value:
        50:63:4f:03:4f:d0:3b:c6:05:2a:d7:d0:da:b1:6e:62:8a:27:
        c8:67:89:c9:0f:41:86:a7:75:9c:db:5f:02:b9:d8:48:5f:f5:
        ae:3b:97:1f:24:b4:1c:22:cd:27:2e:31:15:7a:94:b3:7c:7e:
        68:e2:86:63:b5:2d:74:71:f2:3d:fa:b4:1a:23:4c:5c:70:e8:
        82:c2:b4:72:31:f9:49:d0:3a:63:b7:ad:7d:aa:3e:34:30:33:
        07:07:cb:cb:36:8a:42:98:19:64:e0:3d:17:6a:3b:f5:6b:ce:
        5b:4b:1e:ca:ff:74:58:66:8f:71:23:a2:56:f9:b5:9a:01:65:
        74:e0:70:9a:60:de:a3:ee:0c:08:cb:dd:0b:49:d5:15:25:52:
        f1:73:dc:62:7a:45:65:ea:eb:40:32:86:6b:08:05:7d:5a:75:
        90:3d:87:65:1b:da:97:ed:26:c5:66:c3:cd:7f:75:c8:23:41:
        ab:7d:dd:7a:ec:16:f7:0c:80:6b:22:b1:5a:4b:bf:4c:b8:63:
        52:95:8d:c9:66:5e:0d:0b:aa:9a:ef:ef:c7:3d:10:86:bf:18:
        fc:a4:18:2c:ad:59:b6:a4:47:d2:e8:b2:81:d1:99:ca:fe:1d:
        22:59:f0:de:67:fc:3e:50:b7:1f:9e:95:23:5c:b6:35:8a:dc:
        98:b9:a3:63
-----BEGIN CERTIFICATE-----
MIIDfTCCAmWgAwIBAgICEAAwDQYJKoZIhvcNAQELBQAwcDEYMBYGA1UEAwwPd3d3
LndvbGZzc2wuY29tMRAwDgYDVQQIDAdNb250YW5hMQswCQYDVQQGEwJVUzEfMB0G
CSqGSIb3DQEJARYQaW5mb0B3b2xmc3NsLmNvbTEUMBIGA1UECwwLRW5naW5lZXJp
bmcwHhcNMTgwNzMxMDAwMDAwWhcNMTgwODMwMDAwMDAwWjBwMRgwFgYDVQQDDA93
d3cud29sZnNzbC5jb20xEDAOBgNVBAgMB01vbnRhbmExCzAJBgNVBAYTAlVTMR8w
HQYJKoZIhvcNAQkBFhBpbmZvQHdvbGZzc2wuY29tMRQwEgYDVQQLDAtFbmdpbmVl
cmluZzCCASIwDQYJKoZIhvcNAQEBBQADggEPADCCAQoCggEBAL8Myi0Ush6EQlvN
OB9K8k11EPG2NZ/fyn0DmNOs3gNm7irx2LB9bgdUCxCYIU2AyxIg58xP3kV9yXJ3
MurKkLtpUhADL6jzlcXxi2JWG+9nb6QQQZWtCpvjpcCw0nB2UDBbqOgILHztp6J6
jTgpHKzH7fJ8lbCVgn1JXDjNdyXvvYB1U5Q8PcpjW58VtdMdEy8Z0TzbdjrMuH3J
5cLX2kBv2CHccxtCLVOc/hr8fat6Nj+Y3oR8BWfOahQ4h6nxjLVoy2h/cSAr9aBj
9VYvoybSt2+xWhfXOJkI/pNYb/7DE0kIFgunTWcAUjFnI06Y7VFFHbkE2Qvs2Ciz
S73tNnkCAwEAAaMhMB8wHQYDVR0OBBYEFCeOZxF0wyYdP+0zY7Ok2B0w5ejVMA0G
CSqGSIb3DQEBCwUAA4IBAQBQY08DT9A7xgUq19DasW5iiifIZ4nJD0GGp3Wc218C
udhIX/WuO5cfJLQcIs0nLjEVepSzfH5o4oZjtS10cfI9+rQaI0xccOiCwrRyMflJ
0Dpjt619qj40MDMHB8vLNopCmBlk4D0Xajv1a85bSx7K/3RYZo9xI6JW+bWaAWV0
4HCaYN6j7gwIy90LSdUVJVLxc9xiekVl6utAMoZrCAV9WnWQPYdlG9qX7SbFZsPN
f3XII0Grfd167Bb3DIBrIrFaS79MuGNSlY3JZl4NC6qa7+/HPRCGvxj8pBgsrVm2
pEfS6LKB0ZnK/h0iWfDeZ/w+ULcfnpUjXLY1ityYuaNj
-----END CERTIFICATE-----
