Certificate:
    Data:
        Version: 3 (0x2)
        Serial Number: 4096 (0x1000)
        Signature Algorithm: sha256WithRSAEncryption
        Issuer: CN=www.wolfssl.com, ST=Montana, C=US, emailAddress=info@wolfssl.com, OU=Engineering
        Validity
            Not Before: Jul 31 00:00:00 2018 GMT
            Not After : Aug 30 00:00:00 2018 GMT
        Subject: CN=www.wolfssl.com, ST=Montana, C=US, emailAddress=info@wolfssl.com, OU=Engineering
        Subject Public Key Info:
            Public Key Algorithm: rsaEncryption
                Public-Key: (2048 bit)
                Modulus:
                    00:c0:95:08:e1:57:41:f2:71:6d:b7:d2:45:41:27:
                    01:65:c6:45:ae:f2:bc:24:30:b8:95:ce:2f:4e:d6:
                    f6:1c:88:bc:7c:9f:fb:a8:67:7f:fe:5c:9c:51:75:
                    f7:8a:ca:07:e7:35:2f:8f:e1:bd:7b:c0:2f:7c:ab:
                    64:a8:17:fc:ca:5d:7b:ba:e0:21:e5:72:2e:6f:2e:
                    86:d8:95:73:da:ac:1b:53:b9:5f:3f:d7:19:0d:25:
                    4f:e1:63:63:51:8b:0b:64:3f:ad:43:b8:a5:1c:5c:
                    34:b3:ae:00:a0:63:c5:f6:7f:0b:59:68:78:73:a6:
                    8c:18:a9:02:6d:af:c3:19:01:2e:b8:10:e3:c6:cc:
                    40:b4:69:a3:46:33:69:87:6e:c4:bb:17:a6:f3:e8:
                    dd:ad:73:bc:7b:2f:21:b5:fd:66:51:0c:bd:54:b3:
                    e1:6d:5f:1c:bc:23:73:d1:09:03:89:14:d2:10:b9:
                    64:c3:2a:d0:a1:96:4a:bc:e1:d4:1a:5b:c7:a0:c0:
                    c1:63:78:0f:44:37:30:32:96:80:32:23:95:a1:77:
                    ba:13:d2:97:73:e2:5d:25:c9:6a:0d:c3:39:60:a4:
                    b4:b0:69:42:42:09:e9:d8:08:bc:33:20:b3:58:22:
                    a7:aa:eb:c4:e1:e6:61:83:c5:d2:96:df:d9:d0:4f:
                    ad:d7
                Exponent: 65537 (0x10001)
        X509v3 extensions:
            X509v3 Subject Key Identifier: 
                B3:11:32:C9:92:98:84:E2:C9:F8:D0:3B:6E:03:42:CA:1F:0E:8E:3C
    Signature Algorithm: sha256WithRSAEncryption
    Signature Value:
        76:3b:86:49:e7:63:a9:1f:8d:84:c0:84:ff:3d:b0:5a:be:5c:
        7a:36:b2:13:ac:0e:a4:90:71:c6:b7:ba:5e:42:92:d0:83:9e:
        4e:42:e7:c7:17:c8:ff:ee:dc:16:8d:ca:8b:05:c8:b8:98:e6:
        b4:67:88:7d:b0:e5:3a:fc:9c:4c:4c:f1:25:4a:50:48:21:cc:
        ef:cf:a8:84:b2:db:0e:b0:26:8c:59:e1:78:15:81:12:54:03:
        c8:fe:af:ef:02:a1:d7:3a:da:a2:58:2c:48:42:4b:40:7f:85:
        d7:1b:4d:24:20:70:ab:5d:25:65:92:b6:35:69:17:74:9c:c3:
        d9:72:64:a4:43:34:56:c6:c6:8e:4f:23:3b:e2:11:aa:f4:5f:
        f7:4f:2c:eb:e5:38:b6:40:6c:8b:56:c4:6a:02:b7:c3:7d:8a:
        f5:6a:b4:76:e1:2b:14:90:c7:53:ce:7b:2e:9e:a8:58:39:c1:
        14:c6:72:fd:8a:a2:b2:49:7d:f0:bd:1b:af:9f:c9:12:b5:38:
        61:f6:e0:2f:bb:69:d0:d2:1a:37:a1:09:74:c0:72:a6:0a:6f:
        b4:7b:fd:a0:b1:58:b8:bf:aa:dc:34:c4:34:8f:b1:e2:b1:aa:
        39:2e:b2:e6:36:6a:6e:dc:08:09:b2:01:4d:6a:49:0d:54:2b:
        94:89:20:5d
-----BEGIN CERTIFICATE-----
MIIDfTCCAmWgAwIBAgICEAAwDQYJKoZIhvcNAQELBQAwcDEYMBYGA1UEAwwPd3d3
LndvbGZzc2wuY29tMRAwDgYDVQQIDAdNb250YW5hMQswCQYDVQQGEwJVUzEfMB0G
CSqGSIb3DQEJARYQaW5mb0B3b2xmc3NsLmNvbTEUMBIGA1UECwwLRW5naW5lZXJp
bmcwHhcNMTgwNzMxMDAwMDAwWhcNMTgwODMwMDAwMDAwWjBwMRgwFgYDVQQDDA93
d3cud29sZnNzbC5jb20xEDAOBgNVBAgMB01vbnRhbmExCzAJBgNVBAYTAlVTMR8w
HQYJKoZIhvcNAQkBFhBpbmZvQHdvbGZzc2wuY29tMRQwEgYDVQQLDAtFbmdpbmVl
cmluZzCCASIwDQYJKoZIhvcNAQEBBQADggEPADCCAQoCggEBAMCVCOFXQfJxbbfS
RUEnAWXGRa7yvCQwuJXOL07W9hyIvHyf+6hnf/5cnFF194rKB+c1L4/hvXvAL3yr
ZKgX/Mpde7rgIeVyLm8uhtiVc9qsG1O5Xz/XGQ0lT+FjY1GLC2Q/rUO4pRxcNLOu
AKBjxfZ/C1loeHOmjBipAm2vwxkBLrgQ48bMQLRpo0YzaYduxLsXpvPo3a1zvHsv
IbX9ZlEMvVSz4W1fHLwjc9EJA4kU0hC5ZMMq0KGWSrzh1Bpbx6DAwWN4D0Q3MDKW
gDIjlaF3uhPSl3PiXSXJag3DOWCktLBpQkIJ6dgIvDMgs1gip6rrxOHmYYPF0pbf
2dBPrdcCAwEAAaMhMB8wHQYDVR0OBBYEFLMRMsmSmITiyfjQO24DQsofDo48MA0G
CSqGSIb3DQEBCwUAA4IBAQB2O4ZJ52OpH42EwIT/PbBavlx6NrITrA6kkHHGt7pe
QpLQg55OQufHF8j/7twWjcqLBci4mOa0Z4h9sOU6/JxMTPElSlBIIczvz6iEstsO
sCaMWeF4FYESVAPI/q/vAqHXOtqiWCxIQktAf4XXG00kIHCrXSVlkrY1aRd0nMPZ
cmSkQzRWxsaOTyM74hGq9F/3Tyzr5Ti2QGyLVsRqArfDfYr1arR24SsUkMdTznsu
nqhYOcEUxnL9iqKySX3wvRuvn8kStThh9uAvu2nQ0ho3oQl0wHKmCm+0e/2gsVi4
v6rcNMQ0j7Hisao5LrLmNmpu3AgJsgFNakkNVCuUiSBd
-----END CERTIFICATE-----
