Certificate:
    Data:
        Version: 3 (0x2)
        Serial Number: 4096 (0x1000)
        Signature Algorithm: sha256WithRSAEncryption
        Issuer: CN=www.wolfssl.com, ST=Montana, C=US, emailAddress=facts@wolfssl.com, OU=Engineering
        Validity
            Not Before: Jul 31 00:00:00 2018 GMT
            Not After : Aug 30 00:00:00 2018 GMT
        Subject: CN=www.wolfssl.com, ST=Montana, C=US, emailAddress=facts@wolfssl.com, OU=Engineering
        Subject Public Key Info:
            Public Key Algorithm: rsaEncryption
                Public-Key: (2048 bit)
                Modulus:
                    00:bf:0c:ca:2d:14:b2:1e:84:42:5b:cd:38:1f:4a:
                    f2:4d:75:10:f1:b6:35:9f:df:ca:7d:03:98:d3:ac:
                    de:03:66:ee:2a:f1:d8:b0:7d:6e:07:54:0b:10:98:
                    21:4d:80:cb:12:20:e7:cc:4f:de:45:7d:c9:72:77:
                    32:ea:ca:90:bb:69:52:10:03:2f:a8:f3:95:c5:f1:
                    8b:62:56:1b:ef:67:6f:a4:10:41:95:ad:0a:9b:e3:
                    a5:c0:b0:d2:70:76:50:30:5b:a8:e8:08:2c:7c:ed:
                    a7:a2:7a:8d:38:29:1c:ac:c7:ed:f2:7c:95:b0:95:
                    82:7d:49:5c:38:cd:77:25:ef:bd:80:75:53:94:3c:
                    3d:ca:63:5b:9f:15:b5:d3:1d:13:2f:19:d1:3c:db:
                    76:3a:cc:b8:7d:c9:e5:c2:d7:da:40:6f:d8:21:dc:
                    73:1b:42:2d:53:9c:fe:1a:fc:7d:ab:7a:36:3f:98:
                    de:84:7c:05:67:ce:6a:14:38:87:a9:f1:8c:b5:68:
                    cb:68:7f:71:20:2b:f5:a0:63:f5:56:2f:a3:26:d2:
                    b7:6f:b1:5a:17:d7:38:99:08:fe:93:58:6f:fe:c3:
                    13:49:08:16:0b:a7:4d:67:00:52:31:67:23:4e:98:
                    ed:51:45:1d:b9:04:d9:0b:ec:d8:28:b3:4b:bd:ed:
                    36:79
                Exponent: 65537 (0x10001)
        X509v3 extensions:
            X509v3 Subject Key Identifier: 
                27:8E:67:11:74:C3:26:1D:3F:ED:33:63:B3:A4:D8:1D:30:E5:E8:D5
    Signature Algorithm: sha256WithRSAEncryption
    Signature Value:
        75:b8:82:fe:2f:8e:3f:34:87:25:97:73:82:2f:58:a2:b0:23:
        8e:73:a3:ce:04:9b:93:2d:3d:c5:89:bd:7e:1f:7b:79:71:c7:
        10:5a:99:d1:06:14:85:8a:3c:41:ba:db:81:8d:5f:76:5b:fe:
        ad:39:a5:42:43:ec:12:92:19:8a:a9:42:c9:77:0d:37:c4:e5:
        ca:de:09:da:0c:cc:d4:07:a2:08:62:f3:56:ef:f4:86:33:80:
        76:7d:f3:a9:08:23:3c:55:22:a6:a3:ec:fb:94:c3:a5:99:39:
        a6:d7:c8:b9:0f:9c:1f:e3:26:18:41:94:12:0d:33:d9:7c:0f:
        88:c5:4a:7a:60:ea:aa:1f:93:78:ef:a3:09:d0:1a:31:73:f1:
        7d:60:90:81:a3:32:35:6e:d4:9e:3d:7b:89:ed:12:2b:6a:b9:
        9e:d8:98:48:47:c1:75:6d:16:88:95:51:5a:e9:00:72:8b:f6:
        53:90:1e:6a:c4:84:e4:a3:c1:6f:2b:93:49:2f:c1:a5:aa:94:
        ec:f1:63:a3:1b:4d:14:48:79:0c:4f:9e:40:e5:05:26:2c:a1:
        c8:8b:1a:d3:d3:a7:cc:76:b4:96:0c:00:a4:db:28:90:29:fb:
        9f:3d:8d:b8:de:cb:db:17:f4:40:00:dc:41:0d:c2:84:78:e0:
        cb:3b:b8:6c
-----BEGIN CERTIFICATE-----
MIIDfzCCAmegAwIBAgICEAAwDQYJKoZIhvcNAQELBQAwcTEYMBYGA1UEAwwPd3d3
LndvbGZzc2wuY29tMRAwDgYDVQQIDAdNb250YW5hMQswCQYDVQQGEwJVUzEgMB4G
CSqGSIb3DQEJARYRZmFjdHNAd29sZnNzbC5jb20xFDASBgNVBAsMC0VuZ2luZWVy
aW5nMB4XDTE4MDczMTAwMDAwMFoXDTE4MDgzMDAwMDAwMFowcTEYMBYGA1UEAwwP
d3d3LndvbGZzc2wuY29tMRAwDgYDVQQIDAdNb250YW5hMQswCQYDVQQGEwJVUzEg
MB4GCSqGSIb3DQEJARYRZmFjdHNAd29sZnNzbC5jb20xFDASBgNVBAsMC0VuZ2lu
ZWVyaW5nMIIBIjANBgkqhkiG9w0BAQEFAAOCAQ8AMIIBCgKCAQEAvwzKLRSyHoRC
W804H0ryTXUQ8bY1n9/KfQOY06zeA2buKvHYsH1uB1QLEJghTYDLEiDnzE/eRX3J
cncy6sqQu2lSEAMvqPOVxfGLYlYb72dvpBBBla0Km+OlwLDScHZQMFuo6AgsfO2n
onqNOCkcrMft8nyVsJWCfUlcOM13Je+9gHVTlDw9ymNbnxW10x0TLxnRPNt2Osy4
fcnlwtfaQG/YIdxzG0ItU5z+Gvx9q3o2P5jehHwFZ85qFDiHqfGMtWjLaH9xICv1
oGP1Vi+jJtK3b7FaF9c4mQj+k1hv/sMTSQgWC6dNZwBSMWcjTpjtUUUduQTZC+zY
KLNLve02eQIDAQABoyEwHzAdBgNVHQ4EFgQUJ45nEXTDJh0/7TNjs6TYHTDl6NUw
DQYJKoZIhvcNAQELBQADggEBAHW4gv4vjj80hyWXc4IvWKKwI45zo84Em5MtPcWJ
vX4fe3lxxxBamdEGFIWKPEG624GNX3Zb/q05pUJD7BKSGYqpQsl3DTfE5creCdoM
zNQHoghi81bv9IYzgHZ986kIIzxVIqaj7PuUw6WZOabXyLkPnB/jJhhBlBINM9l8
D4jFSnpg6qofk3jvownQGjFz8X1gkIGjMjVu1J49e4ntEitquZ7YmEhHwXVtFoiV
UVrpAHKL9lOQHmrEhOSjwW8rk0kvwaWqlOzxY6MbTRRIeQxPnkDlBSYsociLGtPT
p8x2tJYMAKTbKJAp+589jbjey9sX9EAA3EENwoR44Ms7uGw=
-----END CERTIFICATE-----
