Certificate:
    Data:
        Version: 3 (0x2)
        Serial Number:
            e3:81:4b:48:a5:70:61:70
        Signature Algorithm: ecdsa-with-SHA1
        Issuer: C=US, ST=Washington, L=Seattle, O=Foofarah, OU=Arglebargle, CN=foobarbaz/emailAddress=info@worlss.com
        Validity
            Not Before: Sep 10 00:45:36 2014 GMT
            Not After : Jun  6 00:45:36 2017 GMT
        Subject: C=US, ST=Washington, L=Seattle, O=Foofarah, OU=Arglebargle, CN=foobarbaz/emailAddress=info@worlss.com
        Subject Public Key Info:
            Public Key Algorithm: id-ecPublicKey
            EC Public Key:
                pub: 
                    04:bb:33:ac:4c:27:50:4a:c6:4a:a5:04:c3:3c:de:
                    9f:36:db:72:2d:ce:94:ea:2b:fa:cb:20:09:39:2c:
                    16:e8:61:02:e9:af:4d:d3:02:93:9a:31:5b:97:92:
                    21:7f:f0:cf:18:da:91:11:02:34:86:e8:20:58:33:
                    0b:80:34:89:d8
                ASN1 OID: prime256v1
        X509v3 extensions:
            X509v3 Subject Key Identifier: 
                5D:5D:26:EF:AC:7E:36:F9:9B:76:15:2B:4A:25:02:23:EF:B2:89:30
            X509v3 Authority Key Identifier: 
                keyid:5D:5D:26:EF:AC:7E:36:F9:9B:76:15:2B:4A:25:02:23:EF:B2:89:30

            X509v3 Basic Constraints: critical
                CA:TRUE
            X509v3 Key Usage: critical
                Non Repudiation, Key Encipherment
    Signature Algorithm: ecdsa-with-SHA1
        30:46:02:21:00:f4:36:ee:86:21:d5:c7:1f:2d:0d:bb:29:ae:
        c1:74:ff:a3:ce:41:fe:cb:93:eb:ff:ef:fe:e3:4d:20:e5:18:
        65:02:21:00:b1:39:13:12:e2:b5:19:f2:8f:5b:40:ac:7a:5c:
        e2:a6:e3:d3:e6:9f:79:3c:29:d8:c6:7d:88:f4:60:0c:48:00
-----BEGIN CERTIFICATE-----
MIICfTCCAiOgAwIBAgIJAOOBS0ilcGFwMAkGByqGSM49BAEwgZExCzAJBgNVBAYT
AlVTMRMwEQYDVQQIDApXYXNoaW5ndG9uMRAwDgYDVQQHDAdTZWF0dGxlMREwDwYD
VQQKDAhGb29mYXJhaDEUMBIGA1UECwwLQXJnbGViYXJnbGUxEjAQBgNVBAMMCWZv
b2JhcmJhejEeMBwGCSqGSIb3DQEJARYPaW5mb0B3b3Jsc3MuY29tMB4XDTE0MDkx
MDAwNDUzNloXDTE3MDYwNjAwNDUzNlowgZExCzAJBgNVBAYTAlVTMRMwEQYDVQQI
DApXYXNoaW5ndG9uMRAwDgYDVQQHDAdTZWF0dGxlMREwDwYDVQQKDAhGb29mYXJh
aDEUMBIGA1UECwwLQXJnbGViYXJnbGUxEjAQBgNVBAMMCWZvb2JhcmJhejEeMBwG
CSqGSIb3DQEJARYPaW5mb0B3b3Jsc3MuY29tMFkwEwYHKoZIzj0CAQYIKoZIzj0D
AQcDQgAEuzOsTCdQSsZKpQTDPN6fNttyLc6U6iv6yyAJOSwW6GEC6a9N0wKTmjFb
l5Ihf/DPGNqREQI0huggWDMLgDSJ2KNjMGEwHQYDVR0OBBYEFF1dJu+sfjb5m3YV
K0olAiPvsokwMB8GA1UdIwQYMBaAFF1dJu+sfjb5m3YVK0olAiPvsokwMA8GA1Ud
EwEB/wQFMAMBAf8wDgYDVR0PAQH/BAQDAgVgMAkGByqGSM49BAEDSQAwRgIhAPQ2
7oYh1ccfLQ27Ka7BdP+jzkH+y5Pr/+/+400g5RhlAiEAsTkTEuK1GfKPW0Cselzi
puPT5p95PCnYxn2I9GAMSAA=
-----END CERTIFICATE-----
