Certificate:
    Data:
        Version: 3 (0x2)
        Serial Number: 16393466893990650224 (0xe3814b48a5706170)
    Signature Algorithm: ecdsa-with-SHA1
        Issuer: C=US, ST=Washington, L=Seattle, O=Foofarah, OU=Arglebargle, CN=foobarbaz/emailAddress=info@worlss.com
        Validity
            Not Before: Feb 10 19:49:53 2021 GMT
            Not After : Nov  7 19:49:53 2023 GMT
        Subject: C=US, ST=Washington, L=Seattle, O=Foofarah, OU=Arglebargle, CN=foobarbaz/emailAddress=info@worlss.com
        Subject Public Key Info:
            Public Key Algorithm: id-ecPublicKey
                Public-Key: (256 bit)
                pub: 
                    04:bb:33:ac:4c:27:50:4a:c6:4a:a5:04:c3:3c:de:
                    9f:36:db:72:2d:ce:94:ea:2b:fa:cb:20:09:39:2c:
                    16:e8:61:02:e9:af:4d:d3:02:93:9a:31:5b:97:92:
                    21:7f:f0:cf:18:da:91:11:02:34:86:e8:20:58:33:
                    0b:80:34:89:d8
                ASN1 OID: prime256v1
                NIST CURVE: P-256
        X509v3 extensions:
            X509v3 Subject Key Identifier: 
                5D:5D:26:EF:AC:7E:36:F9:9B:76:15:2B:4A:25:02:23:EF:B2:89:30
            X509v3 Authority Key Identifier: 
                keyid:5D:5D:26:EF:AC:7E:36:F9:9B:76:15:2B:4A:25:02:23:EF:B2:89:30
                DirName:/C=US/ST=Washington/L=Seattle/O=Foofarah/OU=Arglebargle/CN=foobarbaz/emailAddress=info@worlss.com
                serial:E3:81:4B:48:A5:70:61:70

            X509v3 Basic Constraints: critical
                CA:TRUE
            X509v3 Key Usage: critical
                Non Repudiation, Key Encipherment
    Signature Algorithm: ecdsa-with-SHA1
         30:45:02:20:1e:4a:b5:ea:29:e5:e2:da:d7:89:26:58:c4:43:
         23:da:9d:bc:a9:7c:2d:28:db:e6:a0:41:63:a0:c3:3a:bf:65:
         02:21:00:db:c0:7d:8f:e5:cc:0b:2b:08:57:c4:ba:dc:86:8c:
         e6:da:ba:2e:b2:fa:7e:0c:b0:26:b8:c6:a4:94:12:93:2a
-----BEGIN CERTIFICATE-----
MIIDKDCCAs+gAwIBAgIJAOOBS0ilcGFwMAkGByqGSM49BAEwgZExCzAJBgNVBAYT
AlVTMRMwEQYDVQQIDApXYXNoaW5ndG9uMRAwDgYDVQQHDAdTZWF0dGxlMREwDwYD
VQQKDAhGb29mYXJhaDEUMBIGA1UECwwLQXJnbGViYXJnbGUxEjAQBgNVBAMMCWZv
b2JhcmJhejEeMBwGCSqGSIb3DQEJARYPaW5mb0B3b3Jsc3MuY29tMB4XDTIxMDIx
MDE5NDk1M1oXDTIzMTEwNzE5NDk1M1owgZExCzAJBgNVBAYTAlVTMRMwEQYDVQQI
DApXYXNoaW5ndG9uMRAwDgYDVQQHDAdTZWF0dGxlMREwDwYDVQQKDAhGb29mYXJh
aDEUMBIGA1UECwwLQXJnbGViYXJnbGUxEjAQBgNVBAMMCWZvb2JhcmJhejEeMBwG
CSqGSIb3DQEJARYPaW5mb0B3b3Jsc3MuY29tMFkwEwYHKoZIzj0CAQYIKoZIzj0D
AQcDQgAEuzOsTCdQSsZKpQTDPN6fNttyLc6U6iv6yyAJOSwW6GEC6a9N0wKTmjFb
l5Ihf/DPGNqREQI0huggWDMLgDSJ2KOCAQ0wggEJMB0GA1UdDgQWBBRdXSbvrH42
+Zt2FStKJQIj77KJMDCBxgYDVR0jBIG+MIG7gBRdXSbvrH42+Zt2FStKJQIj77KJ
MKGBl6SBlDCBkTELMAkGA1UEBhMCVVMxEzARBgNVBAgMCldhc2hpbmd0b24xEDAO
BgNVBAcMB1NlYXR0bGUxETAPBgNVBAoMCEZvb2ZhcmFoMRQwEgYDVQQLDAtBcmds
ZWJhcmdsZTESMBAGA1UEAwwJZm9vYmFyYmF6MR4wHAYJKoZIhvcNAQkBFg9pbmZv
QHdvcmxzcy5jb22CCQDjgUtIpXBhcDAPBgNVHRMBAf8EBTADAQH/MA4GA1UdDwEB
/wQEAwIFYDAJBgcqhkjOPQQBA0gAMEUCIB5Kteop5eLa14kmWMRDI9qdvKl8LSjb
5qBBY6DDOr9lAiEA28B9j+XMCysIV8S63IaM5tq6LrL6fgywJrjGpJQSkyo=
-----END CERTIFICATE-----
