Certificate:
    Data:
        Version: 3 (0x2)
        Serial Number:
            e3:81:4b:48:a5:70:61:70
        Signature Algorithm: ecdsa-with-SHA1
        Issuer: C = US, ST = Washington, L = Seattle, O = Foofarah, OU = Arglebargle, CN = foobarbaz, emailAddress = info@worlss.com
        Validity
            Not Before: Dec 13 22:19:28 2023 GMT
            Not After : Sep  8 22:19:28 2026 GMT
        Subject: C = US, ST = Washington, L = Seattle, O = Foofarah, OU = Arglebargle, CN = foobarbaz, emailAddress = info@worlss.com
        Subject Public Key Info:
            Public Key Algorithm: id-ecPublicKey
                Public-Key: (256 bit)
                pub:
                    04:bb:33:ac:4c:27:50:4a:c6:4a:a5:04:c3:3c:de:
                    9f:36:db:72:2d:ce:94:ea:2b:fa:cb:20:09:39:2c:
                    16:e8:61:02:e9:af:4d:d3:02:93:9a:31:5b:97:92:
                    21:7f:f0:cf:18:da:91:11:02:34:86:e8:20:58:33:
                    0b:80:34:89:d8
                ASN1 OID: prime256v1
                NIST CURVE: P-256
        X509v3 extensions:
            X509v3 Subject Key Identifier: 
                5D:5D:26:EF:AC:7E:36:F9:9B:76:15:2B:4A:25:02:23:EF:B2:89:30
            X509v3 Authority Key Identifier: 
                keyid:5D:5D:26:EF:AC:7E:36:F9:9B:76:15:2B:4A:25:02:23:EF:B2:89:30
                DirName:/C=US/ST=Washington/L=Seattle/O=Foofarah/OU=Arglebargle/CN=foobarbaz/emailAddress=info@worlss.com
                serial:E3:81:4B:48:A5:70:61:70

            X509v3 Basic Constraints: critical
                CA:TRUE
            X509v3 Key Usage: critical
                Non Repudiation, Key Encipherment
    Signature Algorithm: ecdsa-with-SHA1
         30:45:02:20:21:e7:44:3e:5a:98:1a:49:25:db:d1:db:d3:fb:
         2f:ec:4d:c6:2c:2f:92:f6:cd:7d:a3:b9:5c:25:93:9f:4d:83:
         02:21:00:82:da:52:9f:37:0c:81:9e:26:9c:fb:da:6f:4f:84:
         b8:5d:19:69:94:a2:08:68:ed:99:4e:51:9e:45:28:74:0c
-----BEGIN CERTIFICATE-----
MIIDKDCCAs+gAwIBAgIJAOOBS0ilcGFwMAkGByqGSM49BAEwgZExCzAJBgNVBAYT
AlVTMRMwEQYDVQQIDApXYXNoaW5ndG9uMRAwDgYDVQQHDAdTZWF0dGxlMREwDwYD
VQQKDAhGb29mYXJhaDEUMBIGA1UECwwLQXJnbGViYXJnbGUxEjAQBgNVBAMMCWZv
b2JhcmJhejEeMBwGCSqGSIb3DQEJARYPaW5mb0B3b3Jsc3MuY29tMB4XDTIzMTIx
MzIyMTkyOFoXDTI2MDkwODIyMTkyOFowgZExCzAJBgNVBAYTAlVTMRMwEQYDVQQI
DApXYXNoaW5ndG9uMRAwDgYDVQQHDAdTZWF0dGxlMREwDwYDVQQKDAhGb29mYXJh
aDEUMBIGA1UECwwLQXJnbGViYXJnbGUxEjAQBgNVBAMMCWZvb2JhcmJhejEeMBwG
CSqGSIb3DQEJARYPaW5mb0B3b3Jsc3MuY29tMFkwEwYHKoZIzj0CAQYIKoZIzj0D
AQcDQgAEuzOsTCdQSsZKpQTDPN6fNttyLc6U6iv6yyAJOSwW6GEC6a9N0wKTmjFb
l5Ihf/DPGNqREQI0huggWDMLgDSJ2KOCAQ0wggEJMB0GA1UdDgQWBBRdXSbvrH42
+Zt2FStKJQIj77KJMDCBxgYDVR0jBIG+MIG7gBRdXSbvrH42+Zt2FStKJQIj77KJ
MKGBl6SBlDCBkTELMAkGA1UEBhMCVVMxEzARBgNVBAgMCldhc2hpbmd0b24xEDAO
BgNVBAcMB1NlYXR0bGUxETAPBgNVBAoMCEZvb2ZhcmFoMRQwEgYDVQQLDAtBcmds
ZWJhcmdsZTESMBAGA1UEAwwJZm9vYmFyYmF6MR4wHAYJKoZIhvcNAQkBFg9pbmZv
QHdvcmxzcy5jb22CCQDjgUtIpXBhcDAPBgNVHRMBAf8EBTADAQH/MA4GA1UdDwEB
/wQEAwIFYDAJBgcqhkjOPQQBA0gAMEUCICHnRD5amBpJJdvR29P7L+xNxiwvkvbN
faO5XCWTn02DAiEAgtpSnzcMgZ4mnPvab0+EuF0ZaZSiCGjtmU5RnkUodAw=
-----END CERTIFICATE-----
