Certificate:
    Data:
        Version: 3 (0x2)
        Serial Number:
            17:94:c2:a9:62:50:9d:86:e1:29:9f:9b:fc:aa:fd:1c:ea:5f:d9:d2
        Signature Algorithm: sha256WithRSAEncryption
        Issuer: C = US, ST = Montana, L = Bozeman, OU = Engineering, CN = DER:30:0d:82:0b:6c:6f:63:61:6c:68:6f:73:74:00:68, emailAddress = info@wolfssl.com
        Validity
            Not Before: Dec 18 23:11:23 2024 GMT
            Not After : Sep 14 23:11:23 2027 GMT
        Subject: C = US, ST = Montana, L = Bozeman, OU = Engineering, CN = DER:30:0d:82:0b:6c:6f:63:61:6c:68:6f:73:74:00:68, emailAddress = info@wolfssl.com
        Subject Public Key Info:
            Public Key Algorithm: rsaEncryption
                Public-Key: (2048 bit)
                Modulus:
                    00:c0:95:08:e1:57:41:f2:71:6d:b7:d2:45:41:27:
                    01:65:c6:45:ae:f2:bc:24:30:b8:95:ce:2f:4e:d6:
                    f6:1c:88:bc:7c:9f:fb:a8:67:7f:fe:5c:9c:51:75:
                    f7:8a:ca:07:e7:35:2f:8f:e1:bd:7b:c0:2f:7c:ab:
                    64:a8:17:fc:ca:5d:7b:ba:e0:21:e5:72:2e:6f:2e:
                    86:d8:95:73:da:ac:1b:53:b9:5f:3f:d7:19:0d:25:
                    4f:e1:63:63:51:8b:0b:64:3f:ad:43:b8:a5:1c:5c:
                    34:b3:ae:00:a0:63:c5:f6:7f:0b:59:68:78:73:a6:
                    8c:18:a9:02:6d:af:c3:19:01:2e:b8:10:e3:c6:cc:
                    40:b4:69:a3:46:33:69:87:6e:c4:bb:17:a6:f3:e8:
                    dd:ad:73:bc:7b:2f:21:b5:fd:66:51:0c:bd:54:b3:
                    e1:6d:5f:1c:bc:23:73:d1:09:03:89:14:d2:10:b9:
                    64:c3:2a:d0:a1:96:4a:bc:e1:d4:1a:5b:c7:a0:c0:
                    c1:63:78:0f:44:37:30:32:96:80:32:23:95:a1:77:
                    ba:13:d2:97:73:e2:5d:25:c9:6a:0d:c3:39:60:a4:
                    b4:b0:69:42:42:09:e9:d8:08:bc:33:20:b3:58:22:
                    a7:aa:eb:c4:e1:e6:61:83:c5:d2:96:df:d9:d0:4f:
                    ad:d7
                Exponent: 65537 (0x10001)
        X509v3 extensions:
            X509v3 Subject Key Identifier: 
                B3:11:32:C9:92:98:84:E2:C9:F8:D0:3B:6E:03:42:CA:1F:0E:8E:3C
    Signature Algorithm: sha256WithRSAEncryption
    Signature Value:
        17:68:5d:de:f1:0e:17:a5:79:89:e1:75:ec:32:c7:91:92:19:
        80:57:05:c7:ed:0d:ee:ba:62:79:d0:16:0e:68:82:69:65:c9:
        f3:a7:d0:cc:88:8b:29:62:cd:b5:ba:ae:7b:9f:50:8f:5e:97:
        94:ce:9c:b4:20:6c:0c:e7:8f:0a:b6:fd:42:36:a3:9f:da:c6:
        ee:d4:0a:2b:ea:60:06:5f:1d:f2:e9:33:87:51:44:a2:15:c2:
        8f:32:82:ef:ff:24:e5:8f:e7:23:98:1c:5c:22:c4:d7:27:12:
        33:8e:ad:77:5b:35:d4:87:6e:c3:92:1b:df:a6:b3:df:66:16:
        e0:d6:85:42:78:eb:b4:1a:0d:56:89:a5:e7:d4:db:b0:23:48:
        c8:5f:a3:a7:c0:cc:46:40:96:3d:be:bb:b9:10:03:46:2d:67:
        c8:e7:f1:6b:25:f3:ae:57:3d:dc:c8:06:1b:d3:8d:97:35:c1:
        07:b9:0e:c1:26:a1:30:71:90:e8:79:84:8a:c6:36:8f:36:cc:
        a5:0a:12:90:dd:19:a2:cc:e2:d6:c5:7d:53:b2:a5:86:fd:b8:
        8f:bd:5f:6c:59:49:5a:ef:8b:d6:ac:d3:cc:ae:d7:6b:6a:fc:
        f1:df:17:48:c0:11:42:a1:29:5e:3f:57:ed:2d:c1:b9:09:b5:
        6e:dc:3f:3f
-----BEGIN CERTIFICATE-----
MIID9zCCAt+gAwIBAgIUF5TCqWJQnYbhKZ+b/Kr9HOpf2dIwDQYJKoZIhvcNAQEL
BQAwgaMxCzAJBgNVBAYTAlVTMRAwDgYDVQQIDAdNb250YW5hMRAwDgYDVQQHDAdC
b3plbWFuMRQwEgYDVQQLDAtFbmdpbmVlcmluZzE5MDcGA1UEAwwwREVSOjMwOjBk
OjgyOjBiOjZjOjZmOjYzOjYxOjZjOjY4OjZmOjczOjc0OjAwOjY4MR8wHQYJKoZI
hvcNAQkBFhBpbmZvQHdvbGZzc2wuY29tMB4XDTI0MTIxODIzMTEyM1oXDTI3MDkx
NDIzMTEyM1owgaMxCzAJBgNVBAYTAlVTMRAwDgYDVQQIDAdNb250YW5hMRAwDgYD
VQQHDAdCb3plbWFuMRQwEgYDVQQLDAtFbmdpbmVlcmluZzE5MDcGA1UEAwwwREVS
OjMwOjBkOjgyOjBiOjZjOjZmOjYzOjYxOjZjOjY4OjZmOjczOjc0OjAwOjY4MR8w
HQYJKoZIhvcNAQkBFhBpbmZvQHdvbGZzc2wuY29tMIIBIjANBgkqhkiG9w0BAQEF
AAOCAQ8AMIIBCgKCAQEAwJUI4VdB8nFtt9JFQScBZcZFrvK8JDC4lc4vTtb2HIi8
fJ/7qGd//lycUXX3isoH5zUvj+G9e8AvfKtkqBf8yl17uuAh5XIuby6G2JVz2qwb
U7lfP9cZDSVP4WNjUYsLZD+tQ7ilHFw0s64AoGPF9n8LWWh4c6aMGKkCba/DGQEu
uBDjxsxAtGmjRjNph27Euxem8+jdrXO8ey8htf1mUQy9VLPhbV8cvCNz0QkDiRTS
ELlkwyrQoZZKvOHUGlvHoMDBY3gPRDcwMpaAMiOVoXe6E9KXc+JdJclqDcM5YKS0
sGlCQgnp2Ai8MyCzWCKnquvE4eZhg8XSlt/Z0E+t1wIDAQABoyEwHzAdBgNVHQ4E
FgQUsxEyyZKYhOLJ+NA7bgNCyh8OjjwwDQYJKoZIhvcNAQELBQADggEBABdoXd7x
DheleYnhdewyx5GSGYBXBcftDe66YnnQFg5ogmllyfOn0MyIiylizbW6rnufUI9e
l5TOnLQgbAznjwq2/UI2o5/axu7UCivqYAZfHfLpM4dRRKIVwo8ygu//JOWP5yOY
HFwixNcnEjOOrXdbNdSHbsOSG9+ms99mFuDWhUJ467QaDVaJpefU27AjSMhfo6fA
zEZAlj2+u7kQA0YtZ8jn8Wsl865XPdzIBhvTjZc1wQe5DsEmoTBxkOh5hIrGNo82
zKUKEpDdGaLM4tbFfVOypYb9uI+9X2xZSVrvi9as08yu12tq/PHfF0jAEUKhKV4/
V+0twbkJtW7cPz8=
-----END CERTIFICATE-----
