Certificate:
    Data:
        Version: 3 (0x2)
        Serial Number:
            1e:c8:e3:7d:6d:b5:15:1a:9f:4d:96:3c:4d:2c:82:98:fd:70:88:21
        Signature Algorithm: sha256WithRSAEncryption
        Issuer: C = US, ST = Montana, L = Bozeman, OU = Engineering, CN = www.nomatch.com, emailAddress = info@wolfssl.com
        Validity
            Not Before: Feb 15 12:50:25 2022 GMT
            Not After : Nov 11 12:50:25 2024 GMT
        Subject: C = US, ST = Montana, L = Bozeman, OU = Engineering, CN = www.nomatch.com, emailAddress = info@wolfssl.com
        Subject Public Key Info:
            Public Key Algorithm: rsaEncryption
                RSA Public-Key: (2048 bit)
                Modulus:
                    00:c0:95:08:e1:57:41:f2:71:6d:b7:d2:45:41:27:
                    01:65:c6:45:ae:f2:bc:24:30:b8:95:ce:2f:4e:d6:
                    f6:1c:88:bc:7c:9f:fb:a8:67:7f:fe:5c:9c:51:75:
                    f7:8a:ca:07:e7:35:2f:8f:e1:bd:7b:c0:2f:7c:ab:
                    64:a8:17:fc:ca:5d:7b:ba:e0:21:e5:72:2e:6f:2e:
                    86:d8:95:73:da:ac:1b:53:b9:5f:3f:d7:19:0d:25:
                    4f:e1:63:63:51:8b:0b:64:3f:ad:43:b8:a5:1c:5c:
                    34:b3:ae:00:a0:63:c5:f6:7f:0b:59:68:78:73:a6:
                    8c:18:a9:02:6d:af:c3:19:01:2e:b8:10:e3:c6:cc:
                    40:b4:69:a3:46:33:69:87:6e:c4:bb:17:a6:f3:e8:
                    dd:ad:73:bc:7b:2f:21:b5:fd:66:51:0c:bd:54:b3:
                    e1:6d:5f:1c:bc:23:73:d1:09:03:89:14:d2:10:b9:
                    64:c3:2a:d0:a1:96:4a:bc:e1:d4:1a:5b:c7:a0:c0:
                    c1:63:78:0f:44:37:30:32:96:80:32:23:95:a1:77:
                    ba:13:d2:97:73:e2:5d:25:c9:6a:0d:c3:39:60:a4:
                    b4:b0:69:42:42:09:e9:d8:08:bc:33:20:b3:58:22:
                    a7:aa:eb:c4:e1:e6:61:83:c5:d2:96:df:d9:d0:4f:
                    ad:d7
                Exponent: 65537 (0x10001)
        X509v3 extensions:
            X509v3 Subject Alternative Name: 
                DNS:*localhost
    Signature Algorithm: sha256WithRSAEncryption
         74:0e:ec:a9:6b:64:db:34:a8:05:e0:83:49:0b:33:a0:1e:51:
         30:b4:da:0f:08:75:d2:3d:a5:64:03:6f:3a:83:f3:b5:70:4f:
         2d:cd:c5:ba:f0:7b:b6:f4:36:bf:4a:6f:fa:52:b3:25:b5:b7:
         68:54:6d:ca:2d:1a:5a:58:c6:c5:88:3b:77:b8:ed:da:4d:e1:
         27:ce:6d:db:eb:13:3a:84:3c:3f:9a:e2:49:08:94:ae:46:5b:
         7c:53:9c:cf:4c:13:fa:7d:6e:fc:ad:73:60:e1:ec:26:d1:7f:
         3a:ea:e2:82:63:cd:4b:ac:dc:7b:31:15:16:5b:37:25:66:cf:
         d3:dd:a2:95:26:80:00:b3:1e:82:74:86:12:e7:99:b3:9e:0e:
         b3:2d:28:5c:f9:b0:f6:24:9b:7f:17:74:65:af:31:a9:fc:6a:
         1a:7d:86:4e:a3:ec:c6:e7:2f:6d:15:10:62:78:4e:1a:f1:86:
         70:c6:01:5c:5f:7b:88:b2:1b:bb:3b:e1:cf:22:19:8e:c5:c3:
         fb:56:de:db:aa:4d:40:e9:97:84:ce:bb:3d:9c:cd:47:90:e4:
         da:f5:d6:14:d8:b6:68:de:0b:a4:64:2e:ab:01:31:7b:2a:35:
         a5:52:49:dc:ab:18:47:0c:17:2e:79:6d:9c:56:76:b5:9f:37:
         41:62:94:a9
-----BEGIN CERTIFICATE-----
MIIDrTCCApWgAwIBAgIUHsjjfW21FRqfTZY8TSyCmP1wiCEwDQYJKoZIhvcNAQEL
BQAwgYIxCzAJBgNVBAYTAlVTMRAwDgYDVQQIDAdNb250YW5hMRAwDgYDVQQHDAdC
b3plbWFuMRQwEgYDVQQLDAtFbmdpbmVlcmluZzEYMBYGA1UEAwwPd3d3Lm5vbWF0
Y2guY29tMR8wHQYJKoZIhvcNAQkBFhBpbmZvQHdvbGZzc2wuY29tMB4XDTIyMDIx
NTEyNTAyNVoXDTI0MTExMTEyNTAyNVowgYIxCzAJBgNVBAYTAlVTMRAwDgYDVQQI
DAdNb250YW5hMRAwDgYDVQQHDAdCb3plbWFuMRQwEgYDVQQLDAtFbmdpbmVlcmlu
ZzEYMBYGA1UEAwwPd3d3Lm5vbWF0Y2guY29tMR8wHQYJKoZIhvcNAQkBFhBpbmZv
QHdvbGZzc2wuY29tMIIBIjANBgkqhkiG9w0BAQEFAAOCAQ8AMIIBCgKCAQEAwJUI
4VdB8nFtt9JFQScBZcZFrvK8JDC4lc4vTtb2HIi8fJ/7qGd//lycUXX3isoH5zUv
j+G9e8AvfKtkqBf8yl17uuAh5XIuby6G2JVz2qwbU7lfP9cZDSVP4WNjUYsLZD+t
Q7ilHFw0s64AoGPF9n8LWWh4c6aMGKkCba/DGQEuuBDjxsxAtGmjRjNph27Euxem
8+jdrXO8ey8htf1mUQy9VLPhbV8cvCNz0QkDiRTSELlkwyrQoZZKvOHUGlvHoMDB
Y3gPRDcwMpaAMiOVoXe6E9KXc+JdJclqDcM5YKS0sGlCQgnp2Ai8MyCzWCKnquvE
4eZhg8XSlt/Z0E+t1wIDAQABoxkwFzAVBgNVHREEDjAMggoqbG9jYWxob3N0MA0G
CSqGSIb3DQEBCwUAA4IBAQB0Duypa2TbNKgF4INJCzOgHlEwtNoPCHXSPaVkA286
g/O1cE8tzcW68Hu29Da/Sm/6UrMltbdoVG3KLRpaWMbFiDt3uO3aTeEnzm3b6xM6
hDw/muJJCJSuRlt8U5zPTBP6fW78rXNg4ewm0X866uKCY81LrNx7MRUWWzclZs/T
3aKVJoAAsx6CdIYS55mzng6zLShc+bD2JJt/F3RlrzGp/GoafYZOo+zG5y9tFRBi
eE4a8YZwxgFcX3uIshu7O+HPIhmOxcP7Vt7bqk1A6ZeEzrs9nM1HkOTa9dYU2LZo
3gukZC6rATF7KjWlUkncqxhHDBcueW2cVna1nzdBYpSp
-----END CERTIFICATE-----
