Certificate:
    Data:
        Version: 3 (0x2)
        Serial Number:
            6c:ef:3b:0c:10:e5:0d:62:01:3d:75:08:4d:cb:2e:b4:4f:6f:a4:ce
        Signature Algorithm: sha256WithRSAEncryption
        Issuer: C=US, ST=Montana, L=Bozeman, OU=Engineering, CN=www.nomatch.com, emailAddress=info@wolfssl.com
        Validity
            Not Before: Nov 13 20:41:31 2025 GMT
            Not After : Aug  9 20:41:31 2028 GMT
        Subject: C=US, ST=Montana, L=Bozeman, OU=Engineering, CN=www.nomatch.com, emailAddress=info@wolfssl.com
        Subject Public Key Info:
            Public Key Algorithm: rsaEncryption
                Public-Key: (2048 bit)
                Modulus:
                    00:c0:95:08:e1:57:41:f2:71:6d:b7:d2:45:41:27:
                    01:65:c6:45:ae:f2:bc:24:30:b8:95:ce:2f:4e:d6:
                    f6:1c:88:bc:7c:9f:fb:a8:67:7f:fe:5c:9c:51:75:
                    f7:8a:ca:07:e7:35:2f:8f:e1:bd:7b:c0:2f:7c:ab:
                    64:a8:17:fc:ca:5d:7b:ba:e0:21:e5:72:2e:6f:2e:
                    86:d8:95:73:da:ac:1b:53:b9:5f:3f:d7:19:0d:25:
                    4f:e1:63:63:51:8b:0b:64:3f:ad:43:b8:a5:1c:5c:
                    34:b3:ae:00:a0:63:c5:f6:7f:0b:59:68:78:73:a6:
                    8c:18:a9:02:6d:af:c3:19:01:2e:b8:10:e3:c6:cc:
                    40:b4:69:a3:46:33:69:87:6e:c4:bb:17:a6:f3:e8:
                    dd:ad:73:bc:7b:2f:21:b5:fd:66:51:0c:bd:54:b3:
                    e1:6d:5f:1c:bc:23:73:d1:09:03:89:14:d2:10:b9:
                    64:c3:2a:d0:a1:96:4a:bc:e1:d4:1a:5b:c7:a0:c0:
                    c1:63:78:0f:44:37:30:32:96:80:32:23:95:a1:77:
                    ba:13:d2:97:73:e2:5d:25:c9:6a:0d:c3:39:60:a4:
                    b4:b0:69:42:42:09:e9:d8:08:bc:33:20:b3:58:22:
                    a7:aa:eb:c4:e1:e6:61:83:c5:d2:96:df:d9:d0:4f:
                    ad:d7
                Exponent: 65537 (0x10001)
        X509v3 extensions:
            X509v3 Subject Alternative Name: 
                DNS:www.nomatch.com
            X509v3 Subject Key Identifier: 
                B3:11:32:C9:92:98:84:E2:C9:F8:D0:3B:6E:03:42:CA:1F:0E:8E:3C
    Signature Algorithm: sha256WithRSAEncryption
    Signature Value:
        11:d2:3e:94:67:fd:53:87:2c:13:2c:ee:8f:dc:4f:7c:ae:bc:
        5c:8c:18:f0:66:95:fe:84:49:0f:ac:b6:8f:8d:e6:cd:b1:96:
        1e:38:ec:0d:de:2d:09:52:f2:c6:3a:80:f4:c4:d7:97:03:96:
        e8:41:4f:dd:82:00:25:a9:d5:66:41:71:03:06:4a:3e:b8:f4:
        eb:7a:27:90:00:0a:b1:eb:4a:a4:d9:83:7f:45:a6:55:c7:c4:
        f0:2e:69:12:27:ee:1d:fa:52:e2:98:59:56:1f:42:10:91:fa:
        8a:04:09:2f:0e:5e:dc:14:cd:d6:85:bd:32:e2:cd:77:3b:be:
        55:23:9a:58:7a:1f:20:74:1c:78:e3:de:d5:10:e2:27:54:41:
        a1:57:1e:1e:ea:9a:da:a7:35:46:7a:da:b1:90:2f:a2:26:a0:
        c8:e6:62:39:77:a1:c7:c0:fe:bd:d7:0a:dc:ff:09:1b:2c:01:
        31:b1:0b:e7:d0:a1:d9:52:8c:81:50:f8:cd:a5:a0:23:73:c0:
        95:47:c1:77:c0:d1:4e:da:13:f2:03:fe:65:9f:60:81:23:6f:
        2d:dd:16:99:69:1c:df:10:a7:37:4f:b6:f5:97:fa:cb:46:63:
        63:1d:7f:72:2f:3b:bb:cd:76:a8:51:ef:46:7f:26:6d:3e:b1:
        69:d5:6e:46
-----BEGIN CERTIFICATE-----
MIID0TCCArmgAwIBAgIUbO87DBDlDWIBPXUITcsutE9vpM4wDQYJKoZIhvcNAQEL
BQAwgYIxCzAJBgNVBAYTAlVTMRAwDgYDVQQIDAdNb250YW5hMRAwDgYDVQQHDAdC
b3plbWFuMRQwEgYDVQQLDAtFbmdpbmVlcmluZzEYMBYGA1UEAwwPd3d3Lm5vbWF0
Y2guY29tMR8wHQYJKoZIhvcNAQkBFhBpbmZvQHdvbGZzc2wuY29tMB4XDTI1MTEx
MzIwNDEzMVoXDTI4MDgwOTIwNDEzMVowgYIxCzAJBgNVBAYTAlVTMRAwDgYDVQQI
DAdNb250YW5hMRAwDgYDVQQHDAdCb3plbWFuMRQwEgYDVQQLDAtFbmdpbmVlcmlu
ZzEYMBYGA1UEAwwPd3d3Lm5vbWF0Y2guY29tMR8wHQYJKoZIhvcNAQkBFhBpbmZv
QHdvbGZzc2wuY29tMIIBIjANBgkqhkiG9w0BAQEFAAOCAQ8AMIIBCgKCAQEAwJUI
4VdB8nFtt9JFQScBZcZFrvK8JDC4lc4vTtb2HIi8fJ/7qGd//lycUXX3isoH5zUv
j+G9e8AvfKtkqBf8yl17uuAh5XIuby6G2JVz2qwbU7lfP9cZDSVP4WNjUYsLZD+t
Q7ilHFw0s64AoGPF9n8LWWh4c6aMGKkCba/DGQEuuBDjxsxAtGmjRjNph27Euxem
8+jdrXO8ey8htf1mUQy9VLPhbV8cvCNz0QkDiRTSELlkwyrQoZZKvOHUGlvHoMDB
Y3gPRDcwMpaAMiOVoXe6E9KXc+JdJclqDcM5YKS0sGlCQgnp2Ai8MyCzWCKnquvE
4eZhg8XSlt/Z0E+t1wIDAQABoz0wOzAaBgNVHREEEzARgg93d3cubm9tYXRjaC5j
b20wHQYDVR0OBBYEFLMRMsmSmITiyfjQO24DQsofDo48MA0GCSqGSIb3DQEBCwUA
A4IBAQAR0j6UZ/1ThywTLO6P3E98rrxcjBjwZpX+hEkPrLaPjebNsZYeOOwN3i0J
UvLGOoD0xNeXA5boQU/dggAlqdVmQXEDBko+uPTreieQAAqx60qk2YN/RaZVx8Tw
LmkSJ+4d+lLimFlWH0IQkfqKBAkvDl7cFM3Whb0y4s13O75VI5pYeh8gdBx4497V
EOInVEGhVx4e6prapzVGetqxkC+iJqDI5mI5d6HHwP691wrc/wkbLAExsQvn0KHZ
UoyBUPjNpaAjc8CVR8F3wNFO2hPyA/5ln2CBI28t3RaZaRzfEKc3T7b1l/rLRmNj
HX9yLzu7zXaoUe9GfyZtPrFp1W5G
-----END CERTIFICATE-----
