Certificate:
    Data:
        Version: 3 (0x2)
        Serial Number:
            4f:03:31:aa:6f:30:9c:34:d5:1b:52:35:d2:96:b0:30:e4:d5:07:96
        Signature Algorithm: sha256WithRSAEncryption
        Issuer: C = US, ST = Montana, L = Bozeman, OU = Engineering, CN = localhost, emailAddress = info@wolfssl.com
        Validity
            Not Before: Sep 26 17:22:43 2023 GMT
            Not After : Jun 22 17:22:43 2026 GMT
        Subject: C = US, ST = Montana, L = Bozeman, OU = Engineering, CN = localhost, emailAddress = info@wolfssl.com
        Subject Public Key Info:
            Public Key Algorithm: rsaEncryption
                Public-Key: (2048 bit)
                Modulus:
                    00:c0:95:08:e1:57:41:f2:71:6d:b7:d2:45:41:27:
                    01:65:c6:45:ae:f2:bc:24:30:b8:95:ce:2f:4e:d6:
                    f6:1c:88:bc:7c:9f:fb:a8:67:7f:fe:5c:9c:51:75:
                    f7:8a:ca:07:e7:35:2f:8f:e1:bd:7b:c0:2f:7c:ab:
                    64:a8:17:fc:ca:5d:7b:ba:e0:21:e5:72:2e:6f:2e:
                    86:d8:95:73:da:ac:1b:53:b9:5f:3f:d7:19:0d:25:
                    4f:e1:63:63:51:8b:0b:64:3f:ad:43:b8:a5:1c:5c:
                    34:b3:ae:00:a0:63:c5:f6:7f:0b:59:68:78:73:a6:
                    8c:18:a9:02:6d:af:c3:19:01:2e:b8:10:e3:c6:cc:
                    40:b4:69:a3:46:33:69:87:6e:c4:bb:17:a6:f3:e8:
                    dd:ad:73:bc:7b:2f:21:b5:fd:66:51:0c:bd:54:b3:
                    e1:6d:5f:1c:bc:23:73:d1:09:03:89:14:d2:10:b9:
                    64:c3:2a:d0:a1:96:4a:bc:e1:d4:1a:5b:c7:a0:c0:
                    c1:63:78:0f:44:37:30:32:96:80:32:23:95:a1:77:
                    ba:13:d2:97:73:e2:5d:25:c9:6a:0d:c3:39:60:a4:
                    b4:b0:69:42:42:09:e9:d8:08:bc:33:20:b3:58:22:
                    a7:aa:eb:c4:e1:e6:61:83:c5:d2:96:df:d9:d0:4f:
                    ad:d7
                Exponent: 65537 (0x10001)
        X509v3 extensions:
            X509v3 Subject Alternative Name: 
                DNS:garbage
            X509v3 Subject Key Identifier: 
                B3:11:32:C9:92:98:84:E2:C9:F8:D0:3B:6E:03:42:CA:1F:0E:8E:3C
    Signature Algorithm: sha256WithRSAEncryption
    Signature Value:
        40:0f:ce:91:d4:92:4e:d9:a7:87:53:92:c9:5a:9d:61:d7:b3:
        07:a6:61:e5:1a:da:56:c5:b3:f1:d6:c7:e4:1f:9a:b2:83:70:
        24:eb:54:41:c0:1d:93:bb:b4:f6:68:e6:2e:81:c3:6e:ca:ed:
        7e:d0:e7:1f:de:4a:ca:a9:a0:24:a3:a8:77:9a:4e:81:a1:10:
        02:31:e4:5e:77:b0:90:32:51:3d:bc:18:45:d4:f5:5d:f8:f2:
        1b:5a:de:8f:73:78:23:be:4b:47:83:61:ac:44:e8:66:b7:68:
        85:94:c5:18:46:bb:2b:44:57:d8:3e:ec:42:1e:ed:a8:00:0a:
        b8:4f:16:2c:9e:ef:66:b5:9c:ba:da:d9:e9:82:bc:07:3c:1c:
        d7:27:1b:e5:ea:4d:2d:d7:f0:a2:15:c9:60:02:92:6a:05:24:
        a7:c2:ef:cd:be:fa:71:d9:af:3b:31:ae:c7:45:13:97:42:84:
        1c:3a:42:c6:23:2d:7d:a3:f6:cc:45:ca:e7:ed:22:5e:d1:ea:
        78:6b:e0:30:b5:2e:ba:d9:01:af:4e:fe:0e:f6:e0:5a:9a:85:
        54:ad:7b:2b:07:08:bf:73:f1:59:10:ff:49:98:d7:e3:e3:52:
        54:5a:88:44:8b:04:ab:29:e9:c1:6c:1b:5b:a6:8d:e7:a6:1c:
        3b:81:ad:93
-----BEGIN CERTIFICATE-----
MIIDuzCCAqOgAwIBAgIUTwMxqm8wnDTVG1I10pawMOTVB5YwDQYJKoZIhvcNAQEL
BQAwfDELMAkGA1UEBhMCVVMxEDAOBgNVBAgMB01vbnRhbmExEDAOBgNVBAcMB0Jv
emVtYW4xFDASBgNVBAsMC0VuZ2luZWVyaW5nMRIwEAYDVQQDDAlsb2NhbGhvc3Qx
HzAdBgkqhkiG9w0BCQEWEGluZm9Ad29sZnNzbC5jb20wHhcNMjMwOTI2MTcyMjQz
WhcNMjYwNjIyMTcyMjQzWjB8MQswCQYDVQQGEwJVUzEQMA4GA1UECAwHTW9udGFu
YTEQMA4GA1UEBwwHQm96ZW1hbjEUMBIGA1UECwwLRW5naW5lZXJpbmcxEjAQBgNV
BAMMCWxvY2FsaG9zdDEfMB0GCSqGSIb3DQEJARYQaW5mb0B3b2xmc3NsLmNvbTCC
ASIwDQYJKoZIhvcNAQEBBQADggEPADCCAQoCggEBAMCVCOFXQfJxbbfSRUEnAWXG
Ra7yvCQwuJXOL07W9hyIvHyf+6hnf/5cnFF194rKB+c1L4/hvXvAL3yrZKgX/Mpd
e7rgIeVyLm8uhtiVc9qsG1O5Xz/XGQ0lT+FjY1GLC2Q/rUO4pRxcNLOuAKBjxfZ/
C1loeHOmjBipAm2vwxkBLrgQ48bMQLRpo0YzaYduxLsXpvPo3a1zvHsvIbX9ZlEM
vVSz4W1fHLwjc9EJA4kU0hC5ZMMq0KGWSrzh1Bpbx6DAwWN4D0Q3MDKWgDIjlaF3
uhPSl3PiXSXJag3DOWCktLBpQkIJ6dgIvDMgs1gip6rrxOHmYYPF0pbf2dBPrdcC
AwEAAaM1MDMwEgYDVR0RBAswCYIHZ2FyYmFnZTAdBgNVHQ4EFgQUsxEyyZKYhOLJ
+NA7bgNCyh8OjjwwDQYJKoZIhvcNAQELBQADggEBAEAPzpHUkk7Zp4dTkslanWHX
swemYeUa2lbFs/HWx+QfmrKDcCTrVEHAHZO7tPZo5i6Bw27K7X7Q5x/eSsqpoCSj
qHeaToGhEAIx5F53sJAyUT28GEXU9V348hta3o9zeCO+S0eDYaxE6Ga3aIWUxRhG
uytEV9g+7EIe7agACrhPFiye72a1nLra2emCvAc8HNcnG+XqTS3X8KIVyWACkmoF
JKfC782++nHZrzsxrsdFE5dChBw6QsYjLX2j9sxFyuftIl7R6nhr4DC1LrrZAa9O
/g724FqahVSteysHCL9z8VkQ/0mY1+PjUlRaiESLBKsp6cFsG1umjeemHDuBrZM=
-----END CERTIFICATE-----
