Certificate:
    Data:
        Version: 3 (0x2)
        Serial Number:
            2c:c4:53:99:0a:3f:5a:3f:a6:60:03:5e:b9:e8:9e:6e:88:14:fc:44
        Signature Algorithm: sha256WithRSAEncryption
        Issuer: C=US, ST=Montana, L=Bozeman, OU=Engineering, CN=localhost, emailAddress=facts@wolfssl.com
        Validity
            Not Before: Jun 11 21:44:34 2026 GMT
            Not After : Mar  7 21:44:34 2029 GMT
        Subject: C=US, ST=Montana, L=Bozeman, OU=Engineering, CN=localhost, emailAddress=facts@wolfssl.com
        Subject Public Key Info:
            Public Key Algorithm: rsaEncryption
                Public-Key: (2048 bit)
                Modulus:
                    00:c0:95:08:e1:57:41:f2:71:6d:b7:d2:45:41:27:
                    01:65:c6:45:ae:f2:bc:24:30:b8:95:ce:2f:4e:d6:
                    f6:1c:88:bc:7c:9f:fb:a8:67:7f:fe:5c:9c:51:75:
                    f7:8a:ca:07:e7:35:2f:8f:e1:bd:7b:c0:2f:7c:ab:
                    64:a8:17:fc:ca:5d:7b:ba:e0:21:e5:72:2e:6f:2e:
                    86:d8:95:73:da:ac:1b:53:b9:5f:3f:d7:19:0d:25:
                    4f:e1:63:63:51:8b:0b:64:3f:ad:43:b8:a5:1c:5c:
                    34:b3:ae:00:a0:63:c5:f6:7f:0b:59:68:78:73:a6:
                    8c:18:a9:02:6d:af:c3:19:01:2e:b8:10:e3:c6:cc:
                    40:b4:69:a3:46:33:69:87:6e:c4:bb:17:a6:f3:e8:
                    dd:ad:73:bc:7b:2f:21:b5:fd:66:51:0c:bd:54:b3:
                    e1:6d:5f:1c:bc:23:73:d1:09:03:89:14:d2:10:b9:
                    64:c3:2a:d0:a1:96:4a:bc:e1:d4:1a:5b:c7:a0:c0:
                    c1:63:78:0f:44:37:30:32:96:80:32:23:95:a1:77:
                    ba:13:d2:97:73:e2:5d:25:c9:6a:0d:c3:39:60:a4:
                    b4:b0:69:42:42:09:e9:d8:08:bc:33:20:b3:58:22:
                    a7:aa:eb:c4:e1:e6:61:83:c5:d2:96:df:d9:d0:4f:
                    ad:d7
                Exponent: 65537 (0x10001)
        X509v3 extensions:
            X509v3 Subject Alternative Name: 
                DNS:garbage
            X509v3 Subject Key Identifier: 
                B3:11:32:C9:92:98:84:E2:C9:F8:D0:3B:6E:03:42:CA:1F:0E:8E:3C
    Signature Algorithm: sha256WithRSAEncryption
    Signature Value:
        68:c0:64:90:98:c8:d1:e6:92:e2:21:dc:5a:64:44:7a:bf:b2:
        f1:1f:8a:5f:14:36:2b:cd:d0:7b:59:66:79:84:13:58:91:d4:
        60:f6:d3:9f:87:f1:11:5e:b7:63:53:1a:e0:f8:54:4f:2b:2b:
        e4:c9:48:5b:b0:76:8c:37:d8:fd:3e:b9:c7:a3:99:1a:89:6a:
        3f:5a:ad:4a:74:f2:05:a0:64:72:1a:12:ac:dc:a9:45:de:d6:
        6a:34:40:b7:0f:7e:a9:c0:b8:7f:3b:ff:37:09:89:a6:9b:84:
        fc:8d:de:68:c7:a9:1e:de:3d:03:3f:65:f0:eb:b3:f9:d6:0f:
        92:ef:ab:31:19:27:15:45:bf:69:3f:1c:d0:03:05:79:f1:3f:
        e0:a7:2f:92:d5:8a:78:42:3b:d4:34:13:1a:0d:e8:90:8a:09:
        58:5b:9e:c8:44:73:69:42:a8:40:44:53:9e:84:47:8d:19:7f:
        92:7c:13:75:44:4b:24:2e:e4:e9:b3:a2:6a:b9:01:da:ee:82:
        18:2a:6f:b8:fa:39:3f:85:15:1a:12:42:e5:2f:a6:6f:3f:eb:
        25:9b:04:46:74:57:73:6d:6e:ee:c1:9f:bb:3a:68:ce:d0:e2:
        62:c1:02:ca:25:92:10:74:b6:0a:77:1b:40:ab:dc:96:3d:d2:
        56:37:f0:50
-----BEGIN CERTIFICATE-----
MIIDvTCCAqWgAwIBAgIULMRTmQo/Wj+mYANeueiebogU/EQwDQYJKoZIhvcNAQEL
BQAwfTELMAkGA1UEBhMCVVMxEDAOBgNVBAgMB01vbnRhbmExEDAOBgNVBAcMB0Jv
emVtYW4xFDASBgNVBAsMC0VuZ2luZWVyaW5nMRIwEAYDVQQDDAlsb2NhbGhvc3Qx
IDAeBgkqhkiG9w0BCQEWEWZhY3RzQHdvbGZzc2wuY29tMB4XDTI2MDYxMTIxNDQz
NFoXDTI5MDMwNzIxNDQzNFowfTELMAkGA1UEBhMCVVMxEDAOBgNVBAgMB01vbnRh
bmExEDAOBgNVBAcMB0JvemVtYW4xFDASBgNVBAsMC0VuZ2luZWVyaW5nMRIwEAYD
VQQDDAlsb2NhbGhvc3QxIDAeBgkqhkiG9w0BCQEWEWZhY3RzQHdvbGZzc2wuY29t
MIIBIjANBgkqhkiG9w0BAQEFAAOCAQ8AMIIBCgKCAQEAwJUI4VdB8nFtt9JFQScB
ZcZFrvK8JDC4lc4vTtb2HIi8fJ/7qGd//lycUXX3isoH5zUvj+G9e8AvfKtkqBf8
yl17uuAh5XIuby6G2JVz2qwbU7lfP9cZDSVP4WNjUYsLZD+tQ7ilHFw0s64AoGPF
9n8LWWh4c6aMGKkCba/DGQEuuBDjxsxAtGmjRjNph27Euxem8+jdrXO8ey8htf1m
UQy9VLPhbV8cvCNz0QkDiRTSELlkwyrQoZZKvOHUGlvHoMDBY3gPRDcwMpaAMiOV
oXe6E9KXc+JdJclqDcM5YKS0sGlCQgnp2Ai8MyCzWCKnquvE4eZhg8XSlt/Z0E+t
1wIDAQABozUwMzASBgNVHREECzAJggdnYXJiYWdlMB0GA1UdDgQWBBSzETLJkpiE
4sn40DtuA0LKHw6OPDANBgkqhkiG9w0BAQsFAAOCAQEAaMBkkJjI0eaS4iHcWmRE
er+y8R+KXxQ2K83Qe1lmeYQTWJHUYPbTn4fxEV63Y1Ma4PhUTysr5MlIW7B2jDfY
/T65x6OZGolqP1qtSnTyBaBkchoSrNypRd7WajRAtw9+qcC4fzv/NwmJppuE/I3e
aMepHt49Az9l8Ouz+dYPku+rMRknFUW/aT8c0AMFefE/4KcvktWKeEI71DQTGg3o
kIoJWFueyERzaUKoQERTnoRHjRl/knwTdURLJC7k6bOiarkB2u6CGCpvuPo5P4UV
GhJC5S+mbz/rJZsERnRXc21u7sGfuzpoztDiYsECyiWSEHS2CncbQKvclj3SVjfw
UA==
-----END CERTIFICATE-----
