Certificate:
    Data:
        Version: 3 (0x2)
        Serial Number: 3 (0x3)
    Signature Algorithm: ecdsa-with-SHA256
        Issuer: C=US, ST=Washington, L=Seattle, O=wolfSSL, OU=Development, CN=www.wolfssl.com/emailAddress=info@wolfssl.com
        Validity
            Not Before: Feb 10 19:49:53 2021 GMT
            Not After : Nov  7 19:49:53 2023 GMT
        Subject: C=US, ST=Washington, L=Seattle, O=Eliptic, OU=ECC, CN=www.wolfssl.com/emailAddress=info@wolfssl.com
        Subject Public Key Info:
            Public Key Algorithm: id-ecPublicKey
                Public-Key: (256 bit)
                pub: 
                    04:bb:33:ac:4c:27:50:4a:c6:4a:a5:04:c3:3c:de:
                    9f:36:db:72:2d:ce:94:ea:2b:fa:cb:20:09:39:2c:
                    16:e8:61:02:e9:af:4d:d3:02:93:9a:31:5b:97:92:
                    21:7f:f0:cf:18:da:91:11:02:34:86:e8:20:58:33:
                    0b:80:34:89:d8
                ASN1 OID: prime256v1
                NIST CURVE: P-256
        X509v3 extensions:
            X509v3 Subject Key Identifier: 
                5D:5D:26:EF:AC:7E:36:F9:9B:76:15:2B:4A:25:02:23:EF:B2:89:30
            X509v3 Authority Key Identifier: 
                keyid:56:8E:9A:C3:F0:42:DE:18:B9:45:55:6E:F9:93:CF:EA:C3:F3:A5:21

            X509v3 Basic Constraints: critical
                CA:FALSE
            X509v3 Key Usage: critical
                Digital Signature, Key Encipherment, Key Agreement
            X509v3 Extended Key Usage: 
                TLS Web Server Authentication
            Netscape Cert Type: 
                SSL Server
    Signature Algorithm: ecdsa-with-SHA256
         30:45:02:20:61:6f:e8:b9:ad:cc:c9:1a:81:17:02:64:07:c3:
         18:44:01:81:76:18:9d:6d:3d:7d:cb:c1:5a:76:4a:ad:71:55:
         02:21:00:cd:22:35:04:19:c2:23:21:02:88:4b:51:da:db:51:
         ab:54:8c:cb:38:ac:8e:bb:ee:18:07:bf:88:36:88:ff:d5
-----BEGIN CERTIFICATE-----
MIICoTCCAkegAwIBAgIBAzAKBggqhkjOPQQDAjCBlzELMAkGA1UEBhMCVVMxEzAR
BgNVBAgMCldhc2hpbmd0b24xEDAOBgNVBAcMB1NlYXR0bGUxEDAOBgNVBAoMB3dv
bGZTU0wxFDASBgNVBAsMC0RldmVsb3BtZW50MRgwFgYDVQQDDA93d3cud29sZnNz
bC5jb20xHzAdBgkqhkiG9w0BCQEWEGluZm9Ad29sZnNzbC5jb20wHhcNMjEwMjEw
MTk0OTUzWhcNMjMxMTA3MTk0OTUzWjCBjzELMAkGA1UEBhMCVVMxEzARBgNVBAgM
Cldhc2hpbmd0b24xEDAOBgNVBAcMB1NlYXR0bGUxEDAOBgNVBAoMB0VsaXB0aWMx
DDAKBgNVBAsMA0VDQzEYMBYGA1UEAwwPd3d3LndvbGZzc2wuY29tMR8wHQYJKoZI
hvcNAQkBFhBpbmZvQHdvbGZzc2wuY29tMFkwEwYHKoZIzj0CAQYIKoZIzj0DAQcD
QgAEuzOsTCdQSsZKpQTDPN6fNttyLc6U6iv6yyAJOSwW6GEC6a9N0wKTmjFbl5Ih
f/DPGNqREQI0huggWDMLgDSJ2KOBiTCBhjAdBgNVHQ4EFgQUXV0m76x+NvmbdhUr
SiUCI++yiTAwHwYDVR0jBBgwFoAUVo6aw/BC3hi5RVVu+ZPP6sPzpSEwDAYDVR0T
AQH/BAIwADAOBgNVHQ8BAf8EBAMCA6gwEwYDVR0lBAwwCgYIKwYBBQUHAwEwEQYJ
YIZIAYb4QgEBBAQDAgZAMAoGCCqGSM49BAMCA0gAMEUCIGFv6LmtzMkagRcCZAfD
GEQBgXYYnW09fcvBWnZKrXFVAiEAzSI1BBnCIyECiEtR2ttRq1SMyzisjrvuGAe/
iDaIx9U=
-----END CERTIFICATE-----
