Certificate:
    Data:
        Version: 3 (0x2)
        Serial Number:
            14:4c:31:5c:d4:28:bd:9b:b0:46:a2:80:b0:c8:00:6f:09:f1:01:52
        Signature Algorithm: sha256WithRSAEncryption
        Issuer: C=US, ST=Montana, L=Bozeman, OU=Engineering, CN=*localhost, emailAddress=facts@wolfssl.com
        Validity
            Not Before: Jun 11 21:44:33 2026 GMT
            Not After : Mar  7 21:44:33 2029 GMT
        Subject: C=US, ST=Montana, L=Bozeman, OU=Engineering, CN=*localhost, emailAddress=facts@wolfssl.com
        Subject Public Key Info:
            Public Key Algorithm: rsaEncryption
                Public-Key: (2048 bit)
                Modulus:
                    00:c0:95:08:e1:57:41:f2:71:6d:b7:d2:45:41:27:
                    01:65:c6:45:ae:f2:bc:24:30:b8:95:ce:2f:4e:d6:
                    f6:1c:88:bc:7c:9f:fb:a8:67:7f:fe:5c:9c:51:75:
                    f7:8a:ca:07:e7:35:2f:8f:e1:bd:7b:c0:2f:7c:ab:
                    64:a8:17:fc:ca:5d:7b:ba:e0:21:e5:72:2e:6f:2e:
                    86:d8:95:73:da:ac:1b:53:b9:5f:3f:d7:19:0d:25:
                    4f:e1:63:63:51:8b:0b:64:3f:ad:43:b8:a5:1c:5c:
                    34:b3:ae:00:a0:63:c5:f6:7f:0b:59:68:78:73:a6:
                    8c:18:a9:02:6d:af:c3:19:01:2e:b8:10:e3:c6:cc:
                    40:b4:69:a3:46:33:69:87:6e:c4:bb:17:a6:f3:e8:
                    dd:ad:73:bc:7b:2f:21:b5:fd:66:51:0c:bd:54:b3:
                    e1:6d:5f:1c:bc:23:73:d1:09:03:89:14:d2:10:b9:
                    64:c3:2a:d0:a1:96:4a:bc:e1:d4:1a:5b:c7:a0:c0:
                    c1:63:78:0f:44:37:30:32:96:80:32:23:95:a1:77:
                    ba:13:d2:97:73:e2:5d:25:c9:6a:0d:c3:39:60:a4:
                    b4:b0:69:42:42:09:e9:d8:08:bc:33:20:b3:58:22:
                    a7:aa:eb:c4:e1:e6:61:83:c5:d2:96:df:d9:d0:4f:
                    ad:d7
                Exponent: 65537 (0x10001)
        X509v3 extensions:
            X509v3 Subject Key Identifier: 
                B3:11:32:C9:92:98:84:E2:C9:F8:D0:3B:6E:03:42:CA:1F:0E:8E:3C
    Signature Algorithm: sha256WithRSAEncryption
    Signature Value:
        65:ba:32:8b:0c:53:29:df:93:71:d7:e2:90:9e:49:78:bc:b1:
        bc:00:c7:1e:db:e7:8f:e4:39:62:82:7d:b6:4c:7d:43:47:fe:
        d4:68:5c:58:b5:2d:46:ac:c3:86:23:38:97:4d:ef:1f:b4:cb:
        e6:69:cf:74:89:52:62:0f:a3:8c:3a:7a:9a:cb:c2:75:5b:e5:
        5e:be:1e:76:59:eb:4b:c6:45:b4:55:bd:9a:7d:d4:39:8a:e3:
        e5:d4:a6:28:1b:4c:eb:d9:7d:0d:9e:fb:b9:66:45:e0:a9:61:
        8c:92:81:1e:ae:c9:49:c4:1c:57:bd:2e:b6:8e:9a:5b:3e:e1:
        73:bc:67:97:0d:32:1e:b2:ca:b4:ff:aa:40:5d:47:e8:e2:56:
        d6:ae:b3:b4:77:61:61:93:e9:09:c9:6b:72:bb:a3:8b:f4:1f:
        5b:01:8e:6e:23:ff:46:f0:fb:bb:d4:f9:da:e6:8d:af:15:ee:
        06:ca:9d:c2:eb:f5:55:14:5a:fc:e4:52:46:dd:8e:ad:e6:83:
        e6:26:b5:f7:df:d1:65:fc:d5:5f:18:4d:77:2c:52:3d:1a:13:
        81:eb:a2:16:7c:38:83:da:48:c6:ca:f9:86:e9:a6:eb:eb:ba:
        e3:13:98:99:b2:c8:2e:a9:90:22:96:d5:b5:3f:ed:1a:2b:b9:
        93:42:a0:89
-----BEGIN CERTIFICATE-----
MIIDqzCCApOgAwIBAgIUFEwxXNQovZuwRqKAsMgAbwnxAVIwDQYJKoZIhvcNAQEL
BQAwfjELMAkGA1UEBhMCVVMxEDAOBgNVBAgMB01vbnRhbmExEDAOBgNVBAcMB0Jv
emVtYW4xFDASBgNVBAsMC0VuZ2luZWVyaW5nMRMwEQYDVQQDDAoqbG9jYWxob3N0
MSAwHgYJKoZIhvcNAQkBFhFmYWN0c0B3b2xmc3NsLmNvbTAeFw0yNjA2MTEyMTQ0
MzNaFw0yOTAzMDcyMTQ0MzNaMH4xCzAJBgNVBAYTAlVTMRAwDgYDVQQIDAdNb250
YW5hMRAwDgYDVQQHDAdCb3plbWFuMRQwEgYDVQQLDAtFbmdpbmVlcmluZzETMBEG
A1UEAwwKKmxvY2FsaG9zdDEgMB4GCSqGSIb3DQEJARYRZmFjdHNAd29sZnNzbC5j
b20wggEiMA0GCSqGSIb3DQEBAQUAA4IBDwAwggEKAoIBAQDAlQjhV0HycW230kVB
JwFlxkWu8rwkMLiVzi9O1vYciLx8n/uoZ3/+XJxRdfeKygfnNS+P4b17wC98q2So
F/zKXXu64CHlci5vLobYlXParBtTuV8/1xkNJU/hY2NRiwtkP61DuKUcXDSzrgCg
Y8X2fwtZaHhzpowYqQJtr8MZAS64EOPGzEC0aaNGM2mHbsS7F6bz6N2tc7x7LyG1
/WZRDL1Us+FtXxy8I3PRCQOJFNIQuWTDKtChlkq84dQaW8egwMFjeA9ENzAyloAy
I5Whd7oT0pdz4l0lyWoNwzlgpLSwaUJCCenYCLwzILNYIqeq68Th5mGDxdKW39nQ
T63XAgMBAAGjITAfMB0GA1UdDgQWBBSzETLJkpiE4sn40DtuA0LKHw6OPDANBgkq
hkiG9w0BAQsFAAOCAQEAZboyiwxTKd+TcdfikJ5JeLyxvADHHtvnj+Q5YoJ9tkx9
Q0f+1GhcWLUtRqzDhiM4l03vH7TL5mnPdIlSYg+jjDp6msvCdVvlXr4edlnrS8ZF
tFW9mn3UOYrj5dSmKBtM69l9DZ77uWZF4KlhjJKBHq7JScQcV70uto6aWz7hc7xn
lw0yHrLKtP+qQF1H6OJW1q6ztHdhYZPpCclrcruji/QfWwGObiP/RvD7u9T52uaN
rxXuBsqdwuv1VRRa/ORSRt2OreaD5ia199/RZfzVXxhNdyxSPRoTgeuiFnw4g9pI
xsr5humm6+u64xOYmbLILqmQIpbVtT/tGiu5k0KgiQ==
-----END CERTIFICATE-----
