Certificate:
    Data:
        Version: 3 (0x2)
        Serial Number:
            25:ef:9b:e6:38:f8:17:6d:18:5d:6a:f7:ac:e4:6a:29:9e:ba:4d:71
        Signature Algorithm: sha256WithRSAEncryption
        Issuer: C=US, ST=Montana, L=Bozeman, OU=Engineering, CN=localhost, emailAddress=info@wolfssl.com
        Validity
            Not Before: Nov 13 20:41:32 2025 GMT
            Not After : Aug  9 20:41:32 2028 GMT
        Subject: C=US, ST=Montana, L=Bozeman, OU=Engineering, CN=localhost, emailAddress=info@wolfssl.com
        Subject Public Key Info:
            Public Key Algorithm: rsaEncryption
                Public-Key: (2048 bit)
                Modulus:
                    00:c0:95:08:e1:57:41:f2:71:6d:b7:d2:45:41:27:
                    01:65:c6:45:ae:f2:bc:24:30:b8:95:ce:2f:4e:d6:
                    f6:1c:88:bc:7c:9f:fb:a8:67:7f:fe:5c:9c:51:75:
                    f7:8a:ca:07:e7:35:2f:8f:e1:bd:7b:c0:2f:7c:ab:
                    64:a8:17:fc:ca:5d:7b:ba:e0:21:e5:72:2e:6f:2e:
                    86:d8:95:73:da:ac:1b:53:b9:5f:3f:d7:19:0d:25:
                    4f:e1:63:63:51:8b:0b:64:3f:ad:43:b8:a5:1c:5c:
                    34:b3:ae:00:a0:63:c5:f6:7f:0b:59:68:78:73:a6:
                    8c:18:a9:02:6d:af:c3:19:01:2e:b8:10:e3:c6:cc:
                    40:b4:69:a3:46:33:69:87:6e:c4:bb:17:a6:f3:e8:
                    dd:ad:73:bc:7b:2f:21:b5:fd:66:51:0c:bd:54:b3:
                    e1:6d:5f:1c:bc:23:73:d1:09:03:89:14:d2:10:b9:
                    64:c3:2a:d0:a1:96:4a:bc:e1:d4:1a:5b:c7:a0:c0:
                    c1:63:78:0f:44:37:30:32:96:80:32:23:95:a1:77:
                    ba:13:d2:97:73:e2:5d:25:c9:6a:0d:c3:39:60:a4:
                    b4:b0:69:42:42:09:e9:d8:08:bc:33:20:b3:58:22:
                    a7:aa:eb:c4:e1:e6:61:83:c5:d2:96:df:d9:d0:4f:
                    ad:d7
                Exponent: 65537 (0x10001)
        X509v3 extensions:
            X509v3 Subject Alternative Name: 
                DNS:garbage
            X509v3 Subject Key Identifier: 
                B3:11:32:C9:92:98:84:E2:C9:F8:D0:3B:6E:03:42:CA:1F:0E:8E:3C
    Signature Algorithm: sha256WithRSAEncryption
    Signature Value:
        86:37:43:7e:b4:3e:6e:cf:24:d7:ea:d7:29:7d:e7:37:e8:a7:
        b0:d3:c7:cf:cd:1b:80:2a:be:c5:cd:e3:4d:bd:fa:22:f4:d4:
        04:a5:63:16:60:0f:ab:10:17:13:b5:b6:07:23:e4:1d:92:aa:
        69:f6:c1:23:4b:92:e4:63:dc:7d:22:f7:6a:b3:ba:24:6f:a5:
        46:ab:54:10:07:1b:ba:7b:ae:70:ed:49:36:f8:43:fc:24:ff:
        d5:a4:5a:50:80:0b:1c:3a:31:77:3f:c3:14:f5:f4:90:23:89:
        c9:be:43:7b:04:b4:52:99:d3:2c:cd:92:5e:52:ac:66:55:a8:
        de:ff:05:0a:6b:54:72:52:a7:aa:d6:dc:80:d4:6a:eb:69:c1:
        ed:f7:55:8a:87:f4:5b:8a:f6:9a:2f:f3:ef:6e:7e:ba:e5:cf:
        88:63:04:f8:88:c5:bd:9c:ed:aa:67:e7:01:1a:c6:c4:51:ed:
        5d:17:8d:ba:2c:0a:94:81:b3:70:a8:76:1d:85:5e:b8:81:d4:
        4d:3a:24:b6:64:eb:eb:0e:1f:c5:04:32:5c:79:ff:3e:29:08:
        12:b0:6f:08:b9:9f:dc:8f:34:30:31:79:de:9b:bc:74:71:f1:
        88:1d:63:52:bc:d3:d2:ab:73:83:51:58:d3:4e:90:42:6e:8c:
        7e:ac:fb:34
-----BEGIN CERTIFICATE-----
MIIDuzCCAqOgAwIBAgIUJe+b5jj4F20YXWr3rORqKZ66TXEwDQYJKoZIhvcNAQEL
BQAwfDELMAkGA1UEBhMCVVMxEDAOBgNVBAgMB01vbnRhbmExEDAOBgNVBAcMB0Jv
emVtYW4xFDASBgNVBAsMC0VuZ2luZWVyaW5nMRIwEAYDVQQDDAlsb2NhbGhvc3Qx
HzAdBgkqhkiG9w0BCQEWEGluZm9Ad29sZnNzbC5jb20wHhcNMjUxMTEzMjA0MTMy
WhcNMjgwODA5MjA0MTMyWjB8MQswCQYDVQQGEwJVUzEQMA4GA1UECAwHTW9udGFu
YTEQMA4GA1UEBwwHQm96ZW1hbjEUMBIGA1UECwwLRW5naW5lZXJpbmcxEjAQBgNV
BAMMCWxvY2FsaG9zdDEfMB0GCSqGSIb3DQEJARYQaW5mb0B3b2xmc3NsLmNvbTCC
ASIwDQYJKoZIhvcNAQEBBQADggEPADCCAQoCggEBAMCVCOFXQfJxbbfSRUEnAWXG
Ra7yvCQwuJXOL07W9hyIvHyf+6hnf/5cnFF194rKB+c1L4/hvXvAL3yrZKgX/Mpd
e7rgIeVyLm8uhtiVc9qsG1O5Xz/XGQ0lT+FjY1GLC2Q/rUO4pRxcNLOuAKBjxfZ/
C1loeHOmjBipAm2vwxkBLrgQ48bMQLRpo0YzaYduxLsXpvPo3a1zvHsvIbX9ZlEM
vVSz4W1fHLwjc9EJA4kU0hC5ZMMq0KGWSrzh1Bpbx6DAwWN4D0Q3MDKWgDIjlaF3
uhPSl3PiXSXJag3DOWCktLBpQkIJ6dgIvDMgs1gip6rrxOHmYYPF0pbf2dBPrdcC
AwEAAaM1MDMwEgYDVR0RBAswCYIHZ2FyYmFnZTAdBgNVHQ4EFgQUsxEyyZKYhOLJ
+NA7bgNCyh8OjjwwDQYJKoZIhvcNAQELBQADggEBAIY3Q360Pm7PJNfq1yl95zfo
p7DTx8/NG4AqvsXN4029+iL01ASlYxZgD6sQFxO1tgcj5B2Sqmn2wSNLkuRj3H0i
92qzuiRvpUarVBAHG7p7rnDtSTb4Q/wk/9WkWlCACxw6MXc/wxT19JAjicm+Q3sE
tFKZ0yzNkl5SrGZVqN7/BQprVHJSp6rW3IDUautpwe33VYqH9FuK9pov8+9ufrrl
z4hjBPiIxb2c7apn5wEaxsRR7V0XjbosCpSBs3Codh2FXriB1E06JLZk6+sOH8UE
Mlx5/z4pCBKwbwi5n9yPNDAxed6bvHRx8YgdY1K809Krc4NRWNNOkEJujH6s+zQ=
-----END CERTIFICATE-----
