Certificate:
    Data:
        Version: 3 (0x2)
        Serial Number:
            04:38:1c:a9:70:85:1c:e8:68:75:9e:a6:9d:80:59:1f:54:05:e7:32
        Signature Algorithm: sha256WithRSAEncryption
        Issuer: C = US, ST = Montana, L = Bozeman, OU = Engineering, CN = localhost, emailAddress = info@wolfssl.com
        Validity
            Not Before: Sep 26 17:22:43 2023 GMT
            Not After : Jun 22 17:22:43 2026 GMT
        Subject: C = US, ST = Montana, L = Bozeman, OU = Engineering, CN = localhost, emailAddress = info@wolfssl.com
        Subject Public Key Info:
            Public Key Algorithm: rsaEncryption
                Public-Key: (2048 bit)
                Modulus:
                    00:c0:95:08:e1:57:41:f2:71:6d:b7:d2:45:41:27:
                    01:65:c6:45:ae:f2:bc:24:30:b8:95:ce:2f:4e:d6:
                    f6:1c:88:bc:7c:9f:fb:a8:67:7f:fe:5c:9c:51:75:
                    f7:8a:ca:07:e7:35:2f:8f:e1:bd:7b:c0:2f:7c:ab:
                    64:a8:17:fc:ca:5d:7b:ba:e0:21:e5:72:2e:6f:2e:
                    86:d8:95:73:da:ac:1b:53:b9:5f:3f:d7:19:0d:25:
                    4f:e1:63:63:51:8b:0b:64:3f:ad:43:b8:a5:1c:5c:
                    34:b3:ae:00:a0:63:c5:f6:7f:0b:59:68:78:73:a6:
                    8c:18:a9:02:6d:af:c3:19:01:2e:b8:10:e3:c6:cc:
                    40:b4:69:a3:46:33:69:87:6e:c4:bb:17:a6:f3:e8:
                    dd:ad:73:bc:7b:2f:21:b5:fd:66:51:0c:bd:54:b3:
                    e1:6d:5f:1c:bc:23:73:d1:09:03:89:14:d2:10:b9:
                    64:c3:2a:d0:a1:96:4a:bc:e1:d4:1a:5b:c7:a0:c0:
                    c1:63:78:0f:44:37:30:32:96:80:32:23:95:a1:77:
                    ba:13:d2:97:73:e2:5d:25:c9:6a:0d:c3:39:60:a4:
                    b4:b0:69:42:42:09:e9:d8:08:bc:33:20:b3:58:22:
                    a7:aa:eb:c4:e1:e6:61:83:c5:d2:96:df:d9:d0:4f:
                    ad:d7
                Exponent: 65537 (0x10001)
        X509v3 extensions:
            X509v3 Subject Alternative Name: 
                DNS:localhost
            X509v3 Subject Key Identifier: 
                B3:11:32:C9:92:98:84:E2:C9:F8:D0:3B:6E:03:42:CA:1F:0E:8E:3C
    Signature Algorithm: sha256WithRSAEncryption
    Signature Value:
        07:38:0d:96:c0:6c:f0:d9:0b:56:e5:8f:07:2b:ab:b3:47:a3:
        a1:7a:f4:40:f9:aa:11:c3:df:37:57:fd:d1:e5:77:36:a2:14:
        33:92:1a:b4:ff:a9:58:53:09:7a:a5:af:0f:c4:52:35:7b:68:
        59:67:b6:b2:ec:fc:8c:85:85:46:3b:1b:60:b2:a0:c2:58:98:
        96:e2:89:47:bf:1e:32:de:bb:d6:8b:04:c0:4e:d9:80:2b:40:
        d7:a1:52:25:2b:64:d2:13:17:f2:f5:1f:3d:eb:57:1e:ba:2f:
        49:7a:7d:2a:37:65:f5:fb:81:db:69:92:aa:64:f2:90:bc:f0:
        5a:33:c3:a9:ac:41:8a:31:3f:a5:a9:36:6d:ba:71:d6:27:8e:
        4a:11:23:52:95:c2:2b:e1:0d:40:b1:99:61:88:15:58:75:75:
        c9:76:41:10:d4:8c:22:cf:e7:d8:62:3e:e1:12:41:be:84:8b:
        a8:cb:db:e6:7c:01:42:92:be:43:c9:38:09:59:08:7e:d2:08:
        ed:55:d2:65:3a:fc:b6:f1:99:e1:e2:44:5e:c3:90:15:6d:f0:
        46:dd:97:1f:7e:fc:b2:5a:d8:9a:85:10:9f:22:af:dc:4b:95:
        2c:de:0a:2e:93:08:6d:1a:63:44:ef:4f:69:65:06:07:ca:80:
        56:20:c0:ef
-----BEGIN CERTIFICATE-----
MIIDvTCCAqWgAwIBAgIUBDgcqXCFHOhodZ6mnYBZH1QF5zIwDQYJKoZIhvcNAQEL
BQAwfDELMAkGA1UEBhMCVVMxEDAOBgNVBAgMB01vbnRhbmExEDAOBgNVBAcMB0Jv
emVtYW4xFDASBgNVBAsMC0VuZ2luZWVyaW5nMRIwEAYDVQQDDAlsb2NhbGhvc3Qx
HzAdBgkqhkiG9w0BCQEWEGluZm9Ad29sZnNzbC5jb20wHhcNMjMwOTI2MTcyMjQz
WhcNMjYwNjIyMTcyMjQzWjB8MQswCQYDVQQGEwJVUzEQMA4GA1UECAwHTW9udGFu
YTEQMA4GA1UEBwwHQm96ZW1hbjEUMBIGA1UECwwLRW5naW5lZXJpbmcxEjAQBgNV
BAMMCWxvY2FsaG9zdDEfMB0GCSqGSIb3DQEJARYQaW5mb0B3b2xmc3NsLmNvbTCC
ASIwDQYJKoZIhvcNAQEBBQADggEPADCCAQoCggEBAMCVCOFXQfJxbbfSRUEnAWXG
Ra7yvCQwuJXOL07W9hyIvHyf+6hnf/5cnFF194rKB+c1L4/hvXvAL3yrZKgX/Mpd
e7rgIeVyLm8uhtiVc9qsG1O5Xz/XGQ0lT+FjY1GLC2Q/rUO4pRxcNLOuAKBjxfZ/
C1loeHOmjBipAm2vwxkBLrgQ48bMQLRpo0YzaYduxLsXpvPo3a1zvHsvIbX9ZlEM
vVSz4W1fHLwjc9EJA4kU0hC5ZMMq0KGWSrzh1Bpbx6DAwWN4D0Q3MDKWgDIjlaF3
uhPSl3PiXSXJag3DOWCktLBpQkIJ6dgIvDMgs1gip6rrxOHmYYPF0pbf2dBPrdcC
AwEAAaM3MDUwFAYDVR0RBA0wC4IJbG9jYWxob3N0MB0GA1UdDgQWBBSzETLJkpiE
4sn40DtuA0LKHw6OPDANBgkqhkiG9w0BAQsFAAOCAQEABzgNlsBs8NkLVuWPByur
s0ejoXr0QPmqEcPfN1f90eV3NqIUM5IatP+pWFMJeqWvD8RSNXtoWWe2suz8jIWF
RjsbYLKgwliYluKJR78eMt671osEwE7ZgCtA16FSJStk0hMX8vUfPetXHrovSXp9
Kjdl9fuB22mSqmTykLzwWjPDqaxBijE/pak2bbpx1ieOShEjUpXCK+ENQLGZYYgV
WHV1yXZBENSMIs/n2GI+4RJBvoSLqMvb5nwBQpK+Q8k4CVkIftII7VXSZTr8tvGZ
4eJEXsOQFW3wRt2XH378slrYmoUQnyKv3EuVLN4KLpMIbRpjRO9PaWUGB8qAViDA
7w==
-----END CERTIFICATE-----
