Certificate:
    Data:
        Version: 3 (0x2)
        Serial Number:
            6c:05:f4:cb:6c:24:47:d0:22:f6:d5:1c:7e:be:99:d9:52:b7:49:23
        Signature Algorithm: sha256WithRSAEncryption
        Issuer: C = US, ST = Montana, L = Bozeman, OU = Engineering, CN = www.nomatch.com, emailAddress = info@wolfssl.com
        Validity
            Not Before: Feb 15 12:50:25 2022 GMT
            Not After : Nov 11 12:50:25 2024 GMT
        Subject: C = US, ST = Montana, L = Bozeman, OU = Engineering, CN = www.nomatch.com, emailAddress = info@wolfssl.com
        Subject Public Key Info:
            Public Key Algorithm: rsaEncryption
                RSA Public-Key: (2048 bit)
                Modulus:
                    00:c0:95:08:e1:57:41:f2:71:6d:b7:d2:45:41:27:
                    01:65:c6:45:ae:f2:bc:24:30:b8:95:ce:2f:4e:d6:
                    f6:1c:88:bc:7c:9f:fb:a8:67:7f:fe:5c:9c:51:75:
                    f7:8a:ca:07:e7:35:2f:8f:e1:bd:7b:c0:2f:7c:ab:
                    64:a8:17:fc:ca:5d:7b:ba:e0:21:e5:72:2e:6f:2e:
                    86:d8:95:73:da:ac:1b:53:b9:5f:3f:d7:19:0d:25:
                    4f:e1:63:63:51:8b:0b:64:3f:ad:43:b8:a5:1c:5c:
                    34:b3:ae:00:a0:63:c5:f6:7f:0b:59:68:78:73:a6:
                    8c:18:a9:02:6d:af:c3:19:01:2e:b8:10:e3:c6:cc:
                    40:b4:69:a3:46:33:69:87:6e:c4:bb:17:a6:f3:e8:
                    dd:ad:73:bc:7b:2f:21:b5:fd:66:51:0c:bd:54:b3:
                    e1:6d:5f:1c:bc:23:73:d1:09:03:89:14:d2:10:b9:
                    64:c3:2a:d0:a1:96:4a:bc:e1:d4:1a:5b:c7:a0:c0:
                    c1:63:78:0f:44:37:30:32:96:80:32:23:95:a1:77:
                    ba:13:d2:97:73:e2:5d:25:c9:6a:0d:c3:39:60:a4:
                    b4:b0:69:42:42:09:e9:d8:08:bc:33:20:b3:58:22:
                    a7:aa:eb:c4:e1:e6:61:83:c5:d2:96:df:d9:d0:4f:
                    ad:d7
                Exponent: 65537 (0x10001)
    Signature Algorithm: sha256WithRSAEncryption
         7d:09:ac:48:54:86:c5:1b:0c:11:18:36:7f:81:4a:bf:ba:85:
         f4:b5:79:64:b1:f7:25:3d:c4:11:d9:e1:40:d5:ba:21:3a:1f:
         77:16:0f:a0:ac:73:0b:90:38:cb:d5:8a:42:ae:9a:b2:77:7b:
         bd:22:3e:9f:b3:64:72:27:ac:d3:44:46:f4:ad:63:32:55:95:
         3e:59:2c:fa:36:3b:84:f3:82:98:ef:fa:57:ca:78:74:d2:7b:
         66:47:d0:0a:89:05:3a:78:a8:7c:81:ce:00:5f:89:18:60:b3:
         cc:51:fc:32:6e:13:b7:46:f6:5c:d4:80:6d:c1:92:ae:1b:65:
         a4:49:68:91:3b:19:b6:8d:27:5b:ae:96:25:8c:57:59:74:c7:
         ef:51:32:8e:f6:01:c7:ba:1c:58:70:2a:d9:67:b6:17:bc:5d:
         6c:cb:ec:94:cf:75:1f:f0:b1:ae:62:a5:3d:7f:97:7b:88:b3:
         19:17:76:60:a1:76:65:56:e6:c7:b1:c6:02:13:d6:88:4a:0e:
         04:6e:49:7f:73:bd:90:8f:cb:80:de:d8:da:e5:32:49:d7:1b:
         1b:49:eb:05:a9:19:d1:5c:5e:ad:de:68:10:07:d4:da:e4:ed:
         37:e5:73:a8:74:07:8e:56:ec:a2:f1:a9:0f:2c:0d:76:38:25:
         c5:4d:0e:25
-----BEGIN CERTIFICATE-----
MIIDkjCCAnqgAwIBAgIUbAX0y2wkR9Ai9tUcfr6Z2VK3SSMwDQYJKoZIhvcNAQEL
BQAwgYIxCzAJBgNVBAYTAlVTMRAwDgYDVQQIDAdNb250YW5hMRAwDgYDVQQHDAdC
b3plbWFuMRQwEgYDVQQLDAtFbmdpbmVlcmluZzEYMBYGA1UEAwwPd3d3Lm5vbWF0
Y2guY29tMR8wHQYJKoZIhvcNAQkBFhBpbmZvQHdvbGZzc2wuY29tMB4XDTIyMDIx
NTEyNTAyNVoXDTI0MTExMTEyNTAyNVowgYIxCzAJBgNVBAYTAlVTMRAwDgYDVQQI
DAdNb250YW5hMRAwDgYDVQQHDAdCb3plbWFuMRQwEgYDVQQLDAtFbmdpbmVlcmlu
ZzEYMBYGA1UEAwwPd3d3Lm5vbWF0Y2guY29tMR8wHQYJKoZIhvcNAQkBFhBpbmZv
QHdvbGZzc2wuY29tMIIBIjANBgkqhkiG9w0BAQEFAAOCAQ8AMIIBCgKCAQEAwJUI
4VdB8nFtt9JFQScBZcZFrvK8JDC4lc4vTtb2HIi8fJ/7qGd//lycUXX3isoH5zUv
j+G9e8AvfKtkqBf8yl17uuAh5XIuby6G2JVz2qwbU7lfP9cZDSVP4WNjUYsLZD+t
Q7ilHFw0s64AoGPF9n8LWWh4c6aMGKkCba/DGQEuuBDjxsxAtGmjRjNph27Euxem
8+jdrXO8ey8htf1mUQy9VLPhbV8cvCNz0QkDiRTSELlkwyrQoZZKvOHUGlvHoMDB
Y3gPRDcwMpaAMiOVoXe6E9KXc+JdJclqDcM5YKS0sGlCQgnp2Ai8MyCzWCKnquvE
4eZhg8XSlt/Z0E+t1wIDAQABMA0GCSqGSIb3DQEBCwUAA4IBAQB9CaxIVIbFGwwR
GDZ/gUq/uoX0tXlksfclPcQR2eFA1bohOh93Fg+grHMLkDjL1YpCrpqyd3u9Ij6f
s2RyJ6zTREb0rWMyVZU+WSz6NjuE84KY7/pXynh00ntmR9AKiQU6eKh8gc4AX4kY
YLPMUfwybhO3RvZc1IBtwZKuG2WkSWiROxm2jSdbrpYljFdZdMfvUTKO9gHHuhxY
cCrZZ7YXvF1sy+yUz3Uf8LGuYqU9f5d7iLMZF3ZgoXZlVubHscYCE9aISg4Ebkl/
c72Qj8uA3tja5TJJ1xsbSesFqRnRXF6t3mgQB9Ta5O035XOodAeOVuyi8akPLA12
OCXFTQ4l
-----END CERTIFICATE-----
