Certificate:
    Data:
        Version: 3 (0x2)
        Serial Number:
            29:47:9f:c7:bf:82:56:a7:62:e2:58:0d:50:f7:2e:cc:94:2c:87:f1
        Signature Algorithm: sha256WithRSAEncryption
        Issuer: C = US, ST = Montana, L = Bozeman, OU = Engineering, CN = www.nomatch.com, emailAddress = info@wolfssl.com
        Validity
            Not Before: Sep 26 17:22:43 2023 GMT
            Not After : Jun 22 17:22:43 2026 GMT
        Subject: C = US, ST = Montana, L = Bozeman, OU = Engineering, CN = www.nomatch.com, emailAddress = info@wolfssl.com
        Subject Public Key Info:
            Public Key Algorithm: rsaEncryption
                Public-Key: (2048 bit)
                Modulus:
                    00:c0:95:08:e1:57:41:f2:71:6d:b7:d2:45:41:27:
                    01:65:c6:45:ae:f2:bc:24:30:b8:95:ce:2f:4e:d6:
                    f6:1c:88:bc:7c:9f:fb:a8:67:7f:fe:5c:9c:51:75:
                    f7:8a:ca:07:e7:35:2f:8f:e1:bd:7b:c0:2f:7c:ab:
                    64:a8:17:fc:ca:5d:7b:ba:e0:21:e5:72:2e:6f:2e:
                    86:d8:95:73:da:ac:1b:53:b9:5f:3f:d7:19:0d:25:
                    4f:e1:63:63:51:8b:0b:64:3f:ad:43:b8:a5:1c:5c:
                    34:b3:ae:00:a0:63:c5:f6:7f:0b:59:68:78:73:a6:
                    8c:18:a9:02:6d:af:c3:19:01:2e:b8:10:e3:c6:cc:
                    40:b4:69:a3:46:33:69:87:6e:c4:bb:17:a6:f3:e8:
                    dd:ad:73:bc:7b:2f:21:b5:fd:66:51:0c:bd:54:b3:
                    e1:6d:5f:1c:bc:23:73:d1:09:03:89:14:d2:10:b9:
                    64:c3:2a:d0:a1:96:4a:bc:e1:d4:1a:5b:c7:a0:c0:
                    c1:63:78:0f:44:37:30:32:96:80:32:23:95:a1:77:
                    ba:13:d2:97:73:e2:5d:25:c9:6a:0d:c3:39:60:a4:
                    b4:b0:69:42:42:09:e9:d8:08:bc:33:20:b3:58:22:
                    a7:aa:eb:c4:e1:e6:61:83:c5:d2:96:df:d9:d0:4f:
                    ad:d7
                Exponent: 65537 (0x10001)
        X509v3 extensions:
            X509v3 Subject Alternative Name: 
                DNS:www.nomatch.com
            X509v3 Subject Key Identifier: 
                B3:11:32:C9:92:98:84:E2:C9:F8:D0:3B:6E:03:42:CA:1F:0E:8E:3C
    Signature Algorithm: sha256WithRSAEncryption
    Signature Value:
        7c:fa:aa:f6:91:b4:72:bd:22:e1:ae:87:ad:9e:04:2c:4d:e5:
        cc:4f:ba:f5:28:51:1a:e3:c5:1c:fc:75:94:4c:52:1e:32:e7:
        1d:b6:8b:8e:24:a5:f6:24:63:1c:9f:d1:1f:71:a1:ac:15:61:
        76:24:7c:f8:65:fd:95:87:b8:5e:38:0f:6b:17:61:ff:94:dc:
        0b:67:28:6e:6f:87:67:02:09:16:ee:a8:97:09:b4:dc:af:80:
        2c:08:ec:b9:0d:04:25:81:8d:5b:3e:8c:89:42:50:b2:02:80:
        82:79:19:6c:69:6d:0f:f6:04:3d:d5:02:7b:fd:42:87:b7:ce:
        17:ca:fa:80:51:14:95:56:b2:03:92:63:4d:8f:5f:67:2d:ea:
        60:ae:4d:59:2e:b8:4c:8b:e0:18:13:8e:61:3e:07:1d:f8:26:
        30:a7:ee:cd:70:da:9b:c9:ad:50:34:a7:b5:41:7a:9a:4b:5d:
        7e:d7:d7:d5:c5:ce:47:cf:19:d7:77:f7:02:7c:f8:10:dc:0f:
        1c:e0:2f:af:86:a3:58:0e:56:8d:59:a9:66:2d:b0:60:9c:16:
        f2:be:67:4c:63:33:cb:26:3d:fe:a5:c0:2a:72:09:1a:23:2f:
        b9:71:fc:4c:0e:e6:22:d8:8d:3c:1c:7e:fa:3a:f6:38:e2:39:
        24:c1:5f:42
-----BEGIN CERTIFICATE-----
MIID0TCCArmgAwIBAgIUKUefx7+CVqdi4lgNUPcuzJQsh/EwDQYJKoZIhvcNAQEL
BQAwgYIxCzAJBgNVBAYTAlVTMRAwDgYDVQQIDAdNb250YW5hMRAwDgYDVQQHDAdC
b3plbWFuMRQwEgYDVQQLDAtFbmdpbmVlcmluZzEYMBYGA1UEAwwPd3d3Lm5vbWF0
Y2guY29tMR8wHQYJKoZIhvcNAQkBFhBpbmZvQHdvbGZzc2wuY29tMB4XDTIzMDky
NjE3MjI0M1oXDTI2MDYyMjE3MjI0M1owgYIxCzAJBgNVBAYTAlVTMRAwDgYDVQQI
DAdNb250YW5hMRAwDgYDVQQHDAdCb3plbWFuMRQwEgYDVQQLDAtFbmdpbmVlcmlu
ZzEYMBYGA1UEAwwPd3d3Lm5vbWF0Y2guY29tMR8wHQYJKoZIhvcNAQkBFhBpbmZv
QHdvbGZzc2wuY29tMIIBIjANBgkqhkiG9w0BAQEFAAOCAQ8AMIIBCgKCAQEAwJUI
4VdB8nFtt9JFQScBZcZFrvK8JDC4lc4vTtb2HIi8fJ/7qGd//lycUXX3isoH5zUv
j+G9e8AvfKtkqBf8yl17uuAh5XIuby6G2JVz2qwbU7lfP9cZDSVP4WNjUYsLZD+t
Q7ilHFw0s64AoGPF9n8LWWh4c6aMGKkCba/DGQEuuBDjxsxAtGmjRjNph27Euxem
8+jdrXO8ey8htf1mUQy9VLPhbV8cvCNz0QkDiRTSELlkwyrQoZZKvOHUGlvHoMDB
Y3gPRDcwMpaAMiOVoXe6E9KXc+JdJclqDcM5YKS0sGlCQgnp2Ai8MyCzWCKnquvE
4eZhg8XSlt/Z0E+t1wIDAQABoz0wOzAaBgNVHREEEzARgg93d3cubm9tYXRjaC5j
b20wHQYDVR0OBBYEFLMRMsmSmITiyfjQO24DQsofDo48MA0GCSqGSIb3DQEBCwUA
A4IBAQB8+qr2kbRyvSLhroetngQsTeXMT7r1KFEa48Uc/HWUTFIeMucdtouOJKX2
JGMcn9EfcaGsFWF2JHz4Zf2Vh7heOA9rF2H/lNwLZyhub4dnAgkW7qiXCbTcr4As
COy5DQQlgY1bPoyJQlCyAoCCeRlsaW0P9gQ91QJ7/UKHt84XyvqAURSVVrIDkmNN
j19nLepgrk1ZLrhMi+AYE45hPgcd+CYwp+7NcNqbya1QNKe1QXqaS11+19fVxc5H
zxnXd/cCfPgQ3A8c4C+vhqNYDlaNWalmLbBgnBbyvmdMYzPLJj3+pcAqcgkaIy+5
cfxMDuYi2I08HH76OvY44jkkwV9C
-----END CERTIFICATE-----
