Certificate:
    Data:
        Version: 3 (0x2)
        Serial Number:
            23:0d:5f:9d:bb:22:36:fc:26:fb:9d:8a:51:fc:42:fb:a3:f0:b1:7b
        Signature Algorithm: sha256WithRSAEncryption
        Issuer: C = US, ST = Montana, L = Bozeman, OU = Engineering, CN = localhost, emailAddress = info@wolfssl.com
        Validity
            Not Before: Feb 15 12:50:25 2022 GMT
            Not After : Nov 11 12:50:25 2024 GMT
        Subject: C = US, ST = Montana, L = Bozeman, OU = Engineering, CN = localhost, emailAddress = info@wolfssl.com
        Subject Public Key Info:
            Public Key Algorithm: rsaEncryption
                RSA Public-Key: (2048 bit)
                Modulus:
                    00:c0:95:08:e1:57:41:f2:71:6d:b7:d2:45:41:27:
                    01:65:c6:45:ae:f2:bc:24:30:b8:95:ce:2f:4e:d6:
                    f6:1c:88:bc:7c:9f:fb:a8:67:7f:fe:5c:9c:51:75:
                    f7:8a:ca:07:e7:35:2f:8f:e1:bd:7b:c0:2f:7c:ab:
                    64:a8:17:fc:ca:5d:7b:ba:e0:21:e5:72:2e:6f:2e:
                    86:d8:95:73:da:ac:1b:53:b9:5f:3f:d7:19:0d:25:
                    4f:e1:63:63:51:8b:0b:64:3f:ad:43:b8:a5:1c:5c:
                    34:b3:ae:00:a0:63:c5:f6:7f:0b:59:68:78:73:a6:
                    8c:18:a9:02:6d:af:c3:19:01:2e:b8:10:e3:c6:cc:
                    40:b4:69:a3:46:33:69:87:6e:c4:bb:17:a6:f3:e8:
                    dd:ad:73:bc:7b:2f:21:b5:fd:66:51:0c:bd:54:b3:
                    e1:6d:5f:1c:bc:23:73:d1:09:03:89:14:d2:10:b9:
                    64:c3:2a:d0:a1:96:4a:bc:e1:d4:1a:5b:c7:a0:c0:
                    c1:63:78:0f:44:37:30:32:96:80:32:23:95:a1:77:
                    ba:13:d2:97:73:e2:5d:25:c9:6a:0d:c3:39:60:a4:
                    b4:b0:69:42:42:09:e9:d8:08:bc:33:20:b3:58:22:
                    a7:aa:eb:c4:e1:e6:61:83:c5:d2:96:df:d9:d0:4f:
                    ad:d7
                Exponent: 65537 (0x10001)
        X509v3 extensions:
            X509v3 Subject Alternative Name: 
                DNS:garbage
    Signature Algorithm: sha256WithRSAEncryption
         b8:3d:9c:ae:41:97:d4:a8:89:2b:6f:a2:04:49:44:09:ad:a6:
         3d:6e:b7:b4:05:01:65:bc:20:52:27:4b:6e:85:77:6d:94:e9:
         5b:fd:8f:46:bf:57:57:5f:42:17:d8:04:78:f0:95:91:1e:31:
         67:e9:fe:10:41:0b:76:cd:1e:9f:57:3c:83:29:7c:7c:e0:c8:
         4b:4a:c1:c7:14:aa:3d:37:03:79:39:8f:0a:6b:e2:58:8c:25:
         52:40:b2:56:f0:0d:57:9a:31:96:d6:ea:33:38:36:82:e9:33:
         07:bb:75:74:4b:a7:71:dd:9f:a2:e1:b9:f2:fe:6b:a1:06:2c:
         d8:4a:9b:a5:a5:15:11:68:8b:7f:5a:3e:f3:79:dd:4a:0c:b6:
         ec:13:31:ef:8d:08:1d:42:17:2d:1d:31:4b:24:cb:ef:54:8b:
         c7:76:d7:95:7c:d9:33:15:c6:dc:e0:d4:44:7d:48:18:76:5b:
         f0:c2:21:45:1c:b6:f4:6c:4b:a8:1f:fe:fd:79:77:dc:44:99:
         38:b3:58:bf:19:e5:37:78:ff:e4:f0:3f:53:ad:33:76:d5:e1:
         24:53:ef:f6:83:2e:3e:1e:c4:dd:04:5a:3d:b0:19:12:d2:5d:
         ec:e5:4e:7d:2a:f1:1a:5e:9e:fa:c4:d5:50:af:2d:ff:5d:a6:
         7f:a0:40:7f
-----BEGIN CERTIFICATE-----
MIIDnDCCAoSgAwIBAgIUIw1fnbsiNvwm+52KUfxC+6PwsXswDQYJKoZIhvcNAQEL
BQAwfDELMAkGA1UEBhMCVVMxEDAOBgNVBAgMB01vbnRhbmExEDAOBgNVBAcMB0Jv
emVtYW4xFDASBgNVBAsMC0VuZ2luZWVyaW5nMRIwEAYDVQQDDAlsb2NhbGhvc3Qx
HzAdBgkqhkiG9w0BCQEWEGluZm9Ad29sZnNzbC5jb20wHhcNMjIwMjE1MTI1MDI1
WhcNMjQxMTExMTI1MDI1WjB8MQswCQYDVQQGEwJVUzEQMA4GA1UECAwHTW9udGFu
YTEQMA4GA1UEBwwHQm96ZW1hbjEUMBIGA1UECwwLRW5naW5lZXJpbmcxEjAQBgNV
BAMMCWxvY2FsaG9zdDEfMB0GCSqGSIb3DQEJARYQaW5mb0B3b2xmc3NsLmNvbTCC
ASIwDQYJKoZIhvcNAQEBBQADggEPADCCAQoCggEBAMCVCOFXQfJxbbfSRUEnAWXG
Ra7yvCQwuJXOL07W9hyIvHyf+6hnf/5cnFF194rKB+c1L4/hvXvAL3yrZKgX/Mpd
e7rgIeVyLm8uhtiVc9qsG1O5Xz/XGQ0lT+FjY1GLC2Q/rUO4pRxcNLOuAKBjxfZ/
C1loeHOmjBipAm2vwxkBLrgQ48bMQLRpo0YzaYduxLsXpvPo3a1zvHsvIbX9ZlEM
vVSz4W1fHLwjc9EJA4kU0hC5ZMMq0KGWSrzh1Bpbx6DAwWN4D0Q3MDKWgDIjlaF3
uhPSl3PiXSXJag3DOWCktLBpQkIJ6dgIvDMgs1gip6rrxOHmYYPF0pbf2dBPrdcC
AwEAAaMWMBQwEgYDVR0RBAswCYIHZ2FyYmFnZTANBgkqhkiG9w0BAQsFAAOCAQEA
uD2crkGX1KiJK2+iBElECa2mPW63tAUBZbwgUidLboV3bZTpW/2PRr9XV19CF9gE
ePCVkR4xZ+n+EEELds0en1c8gyl8fODIS0rBxxSqPTcDeTmPCmviWIwlUkCyVvAN
V5oxltbqMzg2gukzB7t1dEuncd2fouG58v5roQYs2EqbpaUVEWiLf1o+83ndSgy2
7BMx740IHUIXLR0xSyTL71SLx3bXlXzZMxXG3ODURH1IGHZb8MIhRRy29GxLqB/+
/Xl33ESZOLNYvxnlN3j/5PA/U60zdtXhJFPv9oMuPh7E3QRaPbAZEtJd7OVOfSrx
Gl6e+sTVUK8t/12mf6BAfw==
-----END CERTIFICATE-----
