Certificate:
    Data:
        Version: 3 (0x2)
        Serial Number:
            3c:36:dc:ec:d4:9a:ea:69:a7:7a:86:f8:3d:2b:e6:e4:2e:d0:7c:f0
        Signature Algorithm: sha256WithRSAEncryption
        Issuer: C=US, ST=Montana, L=Bozeman, OU=Engineering, CN=www.nomatch.com, emailAddress=facts@wolfssl.com
        Validity
            Not Before: Jun 11 21:44:33 2026 GMT
            Not After : Mar  7 21:44:33 2029 GMT
        Subject: C=US, ST=Montana, L=Bozeman, OU=Engineering, CN=www.nomatch.com, emailAddress=facts@wolfssl.com
        Subject Public Key Info:
            Public Key Algorithm: rsaEncryption
                Public-Key: (2048 bit)
                Modulus:
                    00:c0:95:08:e1:57:41:f2:71:6d:b7:d2:45:41:27:
                    01:65:c6:45:ae:f2:bc:24:30:b8:95:ce:2f:4e:d6:
                    f6:1c:88:bc:7c:9f:fb:a8:67:7f:fe:5c:9c:51:75:
                    f7:8a:ca:07:e7:35:2f:8f:e1:bd:7b:c0:2f:7c:ab:
                    64:a8:17:fc:ca:5d:7b:ba:e0:21:e5:72:2e:6f:2e:
                    86:d8:95:73:da:ac:1b:53:b9:5f:3f:d7:19:0d:25:
                    4f:e1:63:63:51:8b:0b:64:3f:ad:43:b8:a5:1c:5c:
                    34:b3:ae:00:a0:63:c5:f6:7f:0b:59:68:78:73:a6:
                    8c:18:a9:02:6d:af:c3:19:01:2e:b8:10:e3:c6:cc:
                    40:b4:69:a3:46:33:69:87:6e:c4:bb:17:a6:f3:e8:
                    dd:ad:73:bc:7b:2f:21:b5:fd:66:51:0c:bd:54:b3:
                    e1:6d:5f:1c:bc:23:73:d1:09:03:89:14:d2:10:b9:
                    64:c3:2a:d0:a1:96:4a:bc:e1:d4:1a:5b:c7:a0:c0:
                    c1:63:78:0f:44:37:30:32:96:80:32:23:95:a1:77:
                    ba:13:d2:97:73:e2:5d:25:c9:6a:0d:c3:39:60:a4:
                    b4:b0:69:42:42:09:e9:d8:08:bc:33:20:b3:58:22:
                    a7:aa:eb:c4:e1:e6:61:83:c5:d2:96:df:d9:d0:4f:
                    ad:d7
                Exponent: 65537 (0x10001)
        X509v3 extensions:
            X509v3 Subject Alternative Name: 
                0..localhost.h
            X509v3 Subject Key Identifier: 
                B3:11:32:C9:92:98:84:E2:C9:F8:D0:3B:6E:03:42:CA:1F:0E:8E:3C
    Signature Algorithm: sha256WithRSAEncryption
    Signature Value:
        90:8f:75:55:25:53:2d:6d:e2:00:02:24:f5:ae:08:ca:ba:60:
        92:dd:3c:b1:7c:1c:c3:b5:f1:52:80:84:e2:a3:c6:62:12:a7:
        b6:30:a6:69:43:12:78:a6:88:36:a9:b4:e8:15:88:d9:b6:fc:
        36:cb:66:5a:03:de:18:31:59:41:a2:e5:d3:be:05:9a:54:17:
        1b:1b:c6:20:74:0e:7d:d6:d6:11:3e:4f:7f:c8:0a:28:f7:4a:
        51:3f:7d:a0:59:b5:de:70:25:f4:27:ec:95:7b:af:b7:35:27:
        0e:0b:c8:92:0c:8d:74:c1:56:b9:38:7b:2f:fc:a3:ca:86:b8:
        15:7c:2e:0d:d0:3a:b0:cf:ff:ce:7d:a5:f7:11:c7:75:c9:da:
        c7:3a:cf:aa:92:8d:86:82:0f:af:2f:76:75:bf:18:6e:13:97:
        14:ba:98:a7:05:a5:63:25:28:a3:4d:af:5d:e9:62:37:e4:2f:
        f4:e4:fb:3c:93:9a:79:2d:85:95:b6:e3:21:63:65:a7:f5:53:
        1d:8e:34:f5:51:1a:d2:29:9a:75:97:dd:de:c1:9a:c1:4e:52:
        75:42:6e:66:01:8a:ad:ec:13:31:13:12:4f:9b:17:4b:2a:40:
        81:3d:10:0a:38:b7:67:5a:bf:8a:b5:76:4e:de:7b:22:f3:f5:
        45:60:d5:97
-----BEGIN CERTIFICATE-----
MIIDzzCCAregAwIBAgIUPDbc7NSa6mmneob4PSvm5C7QfPAwDQYJKoZIhvcNAQEL
BQAwgYMxCzAJBgNVBAYTAlVTMRAwDgYDVQQIDAdNb250YW5hMRAwDgYDVQQHDAdC
b3plbWFuMRQwEgYDVQQLDAtFbmdpbmVlcmluZzEYMBYGA1UEAwwPd3d3Lm5vbWF0
Y2guY29tMSAwHgYJKoZIhvcNAQkBFhFmYWN0c0B3b2xmc3NsLmNvbTAeFw0yNjA2
MTEyMTQ0MzNaFw0yOTAzMDcyMTQ0MzNaMIGDMQswCQYDVQQGEwJVUzEQMA4GA1UE
CAwHTW9udGFuYTEQMA4GA1UEBwwHQm96ZW1hbjEUMBIGA1UECwwLRW5naW5lZXJp
bmcxGDAWBgNVBAMMD3d3dy5ub21hdGNoLmNvbTEgMB4GCSqGSIb3DQEJARYRZmFj
dHNAd29sZnNzbC5jb20wggEiMA0GCSqGSIb3DQEBAQUAA4IBDwAwggEKAoIBAQDA
lQjhV0HycW230kVBJwFlxkWu8rwkMLiVzi9O1vYciLx8n/uoZ3/+XJxRdfeKygfn
NS+P4b17wC98q2SoF/zKXXu64CHlci5vLobYlXParBtTuV8/1xkNJU/hY2NRiwtk
P61DuKUcXDSzrgCgY8X2fwtZaHhzpowYqQJtr8MZAS64EOPGzEC0aaNGM2mHbsS7
F6bz6N2tc7x7LyG1/WZRDL1Us+FtXxy8I3PRCQOJFNIQuWTDKtChlkq84dQaW8eg
wMFjeA9ENzAyloAyI5Whd7oT0pdz4l0lyWoNwzlgpLSwaUJCCenYCLwzILNYIqeq
68Th5mGDxdKW39nQT63XAgMBAAGjOTA3MBYGA1UdEQQPMA2CC2xvY2FsaG9zdABo
MB0GA1UdDgQWBBSzETLJkpiE4sn40DtuA0LKHw6OPDANBgkqhkiG9w0BAQsFAAOC
AQEAkI91VSVTLW3iAAIk9a4Iyrpgkt08sXwcw7XxUoCE4qPGYhKntjCmaUMSeKaI
Nqm06BWI2bb8NstmWgPeGDFZQaLl074FmlQXGxvGIHQOfdbWET5Pf8gKKPdKUT99
oFm13nAl9CfslXuvtzUnDgvIkgyNdMFWuTh7L/yjyoa4FXwuDdA6sM//zn2l9xHH
dcnaxzrPqpKNhoIPry92db8YbhOXFLqYpwWlYyUoo02vXeliN+Qv9OT7PJOaeS2F
lbbjIWNlp/VTHY409VEa0imadZfd3sGawU5SdUJuZgGKrewTMRMST5sXSypAgT0Q
Cji3Z1q/irV2Tt57IvP1RWDVlw==
-----END CERTIFICATE-----
