Certificate:
    Data:
        Version: 3 (0x2)
        Serial Number:
            44:af:a7:b0:61:69:50:85:94:af:87:41:9b:43:ea:eb:6e:ce:bc:1c
        Signature Algorithm: sha256WithRSAEncryption
        Issuer: C = US, ST = Montana, L = Bozeman, OU = Engineering, CN = localhost, emailAddress = info@wolfssl.com
        Validity
            Not Before: Dec 18 23:11:23 2024 GMT
            Not After : Sep 14 23:11:23 2027 GMT
        Subject: C = US, ST = Montana, L = Bozeman, OU = Engineering, CN = localhost, emailAddress = info@wolfssl.com
        Subject Public Key Info:
            Public Key Algorithm: rsaEncryption
                Public-Key: (2048 bit)
                Modulus:
                    00:c0:95:08:e1:57:41:f2:71:6d:b7:d2:45:41:27:
                    01:65:c6:45:ae:f2:bc:24:30:b8:95:ce:2f:4e:d6:
                    f6:1c:88:bc:7c:9f:fb:a8:67:7f:fe:5c:9c:51:75:
                    f7:8a:ca:07:e7:35:2f:8f:e1:bd:7b:c0:2f:7c:ab:
                    64:a8:17:fc:ca:5d:7b:ba:e0:21:e5:72:2e:6f:2e:
                    86:d8:95:73:da:ac:1b:53:b9:5f:3f:d7:19:0d:25:
                    4f:e1:63:63:51:8b:0b:64:3f:ad:43:b8:a5:1c:5c:
                    34:b3:ae:00:a0:63:c5:f6:7f:0b:59:68:78:73:a6:
                    8c:18:a9:02:6d:af:c3:19:01:2e:b8:10:e3:c6:cc:
                    40:b4:69:a3:46:33:69:87:6e:c4:bb:17:a6:f3:e8:
                    dd:ad:73:bc:7b:2f:21:b5:fd:66:51:0c:bd:54:b3:
                    e1:6d:5f:1c:bc:23:73:d1:09:03:89:14:d2:10:b9:
                    64:c3:2a:d0:a1:96:4a:bc:e1:d4:1a:5b:c7:a0:c0:
                    c1:63:78:0f:44:37:30:32:96:80:32:23:95:a1:77:
                    ba:13:d2:97:73:e2:5d:25:c9:6a:0d:c3:39:60:a4:
                    b4:b0:69:42:42:09:e9:d8:08:bc:33:20:b3:58:22:
                    a7:aa:eb:c4:e1:e6:61:83:c5:d2:96:df:d9:d0:4f:
                    ad:d7
                Exponent: 65537 (0x10001)
        X509v3 extensions:
            X509v3 Subject Alternative Name: 
                DNS:garbage
            X509v3 Subject Key Identifier: 
                B3:11:32:C9:92:98:84:E2:C9:F8:D0:3B:6E:03:42:CA:1F:0E:8E:3C
    Signature Algorithm: sha256WithRSAEncryption
    Signature Value:
        7f:66:0a:08:a6:40:ae:0b:3f:2e:ab:e7:fb:16:93:d4:88:15:
        a1:fe:e5:ef:1e:64:95:66:60:d4:59:4a:e5:3a:f0:12:40:6c:
        8f:9f:42:b2:61:09:76:a0:bc:9c:49:90:17:29:3b:db:87:20:
        ab:61:f7:73:e4:ea:45:08:56:2f:f4:11:32:b8:5c:30:b5:4f:
        39:e6:32:41:5a:4c:a9:27:5a:a5:fa:29:44:b0:f0:88:39:1a:
        0d:bc:4c:44:05:c5:5b:80:b1:75:5f:88:af:6b:65:f7:cd:96:
        1b:cb:25:f9:90:83:bf:58:74:4d:2e:d5:e0:d3:a0:78:bb:79:
        46:6c:3f:23:1f:f7:78:48:56:30:1a:1f:61:d7:a0:a3:10:78:
        9f:32:1a:d7:c8:e0:67:0b:bd:5d:e5:77:54:54:af:e4:40:64:
        f9:3e:13:5a:6f:f0:e7:bf:e5:a4:ef:7f:b9:23:e3:b0:75:b9:
        e8:fa:d5:12:e8:df:5f:1e:09:1c:0a:89:c4:f5:a5:d1:af:eb:
        37:fe:cf:19:85:5b:ce:fd:ad:7b:2c:b3:4c:44:3f:3e:45:c9:
        83:0e:16:9b:a3:6d:25:a9:88:3f:46:7e:dd:21:8d:4a:a5:96:
        3d:3e:71:fb:f7:4a:ea:ee:ab:b2:5d:ad:3d:3b:62:c8:bb:66:
        a6:ac:07:7f
-----BEGIN CERTIFICATE-----
MIIDuzCCAqOgAwIBAgIURK+nsGFpUIWUr4dBm0Pq627OvBwwDQYJKoZIhvcNAQEL
BQAwfDELMAkGA1UEBhMCVVMxEDAOBgNVBAgMB01vbnRhbmExEDAOBgNVBAcMB0Jv
emVtYW4xFDASBgNVBAsMC0VuZ2luZWVyaW5nMRIwEAYDVQQDDAlsb2NhbGhvc3Qx
HzAdBgkqhkiG9w0BCQEWEGluZm9Ad29sZnNzbC5jb20wHhcNMjQxMjE4MjMxMTIz
WhcNMjcwOTE0MjMxMTIzWjB8MQswCQYDVQQGEwJVUzEQMA4GA1UECAwHTW9udGFu
YTEQMA4GA1UEBwwHQm96ZW1hbjEUMBIGA1UECwwLRW5naW5lZXJpbmcxEjAQBgNV
BAMMCWxvY2FsaG9zdDEfMB0GCSqGSIb3DQEJARYQaW5mb0B3b2xmc3NsLmNvbTCC
ASIwDQYJKoZIhvcNAQEBBQADggEPADCCAQoCggEBAMCVCOFXQfJxbbfSRUEnAWXG
Ra7yvCQwuJXOL07W9hyIvHyf+6hnf/5cnFF194rKB+c1L4/hvXvAL3yrZKgX/Mpd
e7rgIeVyLm8uhtiVc9qsG1O5Xz/XGQ0lT+FjY1GLC2Q/rUO4pRxcNLOuAKBjxfZ/
C1loeHOmjBipAm2vwxkBLrgQ48bMQLRpo0YzaYduxLsXpvPo3a1zvHsvIbX9ZlEM
vVSz4W1fHLwjc9EJA4kU0hC5ZMMq0KGWSrzh1Bpbx6DAwWN4D0Q3MDKWgDIjlaF3
uhPSl3PiXSXJag3DOWCktLBpQkIJ6dgIvDMgs1gip6rrxOHmYYPF0pbf2dBPrdcC
AwEAAaM1MDMwEgYDVR0RBAswCYIHZ2FyYmFnZTAdBgNVHQ4EFgQUsxEyyZKYhOLJ
+NA7bgNCyh8OjjwwDQYJKoZIhvcNAQELBQADggEBAH9mCgimQK4LPy6r5/sWk9SI
FaH+5e8eZJVmYNRZSuU68BJAbI+fQrJhCXagvJxJkBcpO9uHIKth93Pk6kUIVi/0
ETK4XDC1TznmMkFaTKknWqX6KUSw8Ig5Gg28TEQFxVuAsXVfiK9rZffNlhvLJfmQ
g79YdE0u1eDToHi7eUZsPyMf93hIVjAaH2HXoKMQeJ8yGtfI4GcLvV3ld1RUr+RA
ZPk+E1pv8Oe/5aTvf7kj47B1uej61RLo318eCRwKicT1pdGv6zf+zxmFW879rXss
s0xEPz5FyYMOFpujbSWpiD9Gft0hjUqllj0+cfv3Suruq7JdrT07Ysi7ZqasB38=
-----END CERTIFICATE-----
