Certificate:
    Data:
        Version: 1 (0x0)
        Serial Number:
            18:de:e0:3b:89:87:8e:4f:24:bf:64:80:ea:74:1d:ce:f7:43:5a:b4
        Signature Algorithm: sha256WithRSAEncryption
        Issuer: C = US, ST = Montana, L = Bozeman, OU = Engineering, CN = localhost, emailAddress = info@wolfssl.com
        Validity
            Not Before: Dec 18 21:25:31 2024 GMT
            Not After : Sep 14 21:25:31 2027 GMT
        Subject: C = US, ST = Montana, L = Bozeman, OU = Engineering, CN = localhost, emailAddress = info@wolfssl.com
        Subject Public Key Info:
            Public Key Algorithm: rsaEncryption
                Public-Key: (2048 bit)
                Modulus:
                    00:c0:95:08:e1:57:41:f2:71:6d:b7:d2:45:41:27:
                    01:65:c6:45:ae:f2:bc:24:30:b8:95:ce:2f:4e:d6:
                    f6:1c:88:bc:7c:9f:fb:a8:67:7f:fe:5c:9c:51:75:
                    f7:8a:ca:07:e7:35:2f:8f:e1:bd:7b:c0:2f:7c:ab:
                    64:a8:17:fc:ca:5d:7b:ba:e0:21:e5:72:2e:6f:2e:
                    86:d8:95:73:da:ac:1b:53:b9:5f:3f:d7:19:0d:25:
                    4f:e1:63:63:51:8b:0b:64:3f:ad:43:b8:a5:1c:5c:
                    34:b3:ae:00:a0:63:c5:f6:7f:0b:59:68:78:73:a6:
                    8c:18:a9:02:6d:af:c3:19:01:2e:b8:10:e3:c6:cc:
                    40:b4:69:a3:46:33:69:87:6e:c4:bb:17:a6:f3:e8:
                    dd:ad:73:bc:7b:2f:21:b5:fd:66:51:0c:bd:54:b3:
                    e1:6d:5f:1c:bc:23:73:d1:09:03:89:14:d2:10:b9:
                    64:c3:2a:d0:a1:96:4a:bc:e1:d4:1a:5b:c7:a0:c0:
                    c1:63:78:0f:44:37:30:32:96:80:32:23:95:a1:77:
                    ba:13:d2:97:73:e2:5d:25:c9:6a:0d:c3:39:60:a4:
                    b4:b0:69:42:42:09:e9:d8:08:bc:33:20:b3:58:22:
                    a7:aa:eb:c4:e1:e6:61:83:c5:d2:96:df:d9:d0:4f:
                    ad:d7
                Exponent: 65537 (0x10001)
    Signature Algorithm: sha256WithRSAEncryption
    Signature Value:
        54:fe:15:59:26:f8:58:cb:47:50:c6:9d:27:7a:f2:38:bb:c4:
        79:00:1b:aa:2c:dc:3d:c8:d2:95:39:35:fc:8e:c1:1d:33:1d:
        a6:73:8a:2e:a9:59:23:fd:75:5c:a5:dd:2c:e6:3e:05:ce:c1:
        0e:a8:35:27:fb:25:61:54:2a:00:f4:7e:d8:d2:f8:4b:fe:94:
        2f:9d:e8:8f:a5:18:f8:12:b7:c0:e9:da:c3:27:dc:bd:03:cf:
        9b:44:ff:a4:53:13:ce:2b:9e:d4:0a:c7:fd:c7:33:1a:f3:26:
        a4:15:25:ef:0e:65:c0:56:48:ee:0b:41:e5:42:82:b6:1f:d6:
        2f:be:47:34:1b:d1:76:d3:05:cd:88:fe:fc:3a:e0:50:12:94:
        62:0e:fd:ae:96:30:c8:d2:ac:3a:87:8c:f0:32:70:54:0b:d7:
        2c:37:d1:ba:4d:cb:3e:c4:57:55:ce:d0:18:56:32:d5:1c:f7:
        b7:f7:06:23:41:3f:f2:04:30:23:80:39:7b:ab:74:b3:a7:1c:
        b1:da:57:9c:44:60:e6:82:01:60:75:4a:5d:20:16:b7:bb:ff:
        d9:6b:61:d2:87:ce:f5:38:45:67:82:60:30:bf:1e:11:4d:d3:
        5d:14:d9:28:2e:b9:ab:5e:35:0b:cb:98:9b:fe:1e:d5:1c:2b:
        02:fb:c4:c2
-----BEGIN CERTIFICATE-----
MIIDfzCCAmcCFBje4DuJh45PJL9kgOp0Hc73Q1q0MA0GCSqGSIb3DQEBCwUAMHwx
CzAJBgNVBAYTAlVTMRAwDgYDVQQIDAdNb250YW5hMRAwDgYDVQQHDAdCb3plbWFu
MRQwEgYDVQQLDAtFbmdpbmVlcmluZzESMBAGA1UEAwwJbG9jYWxob3N0MR8wHQYJ
KoZIhvcNAQkBFhBpbmZvQHdvbGZzc2wuY29tMB4XDTI0MTIxODIxMjUzMVoXDTI3
MDkxNDIxMjUzMVowfDELMAkGA1UEBhMCVVMxEDAOBgNVBAgMB01vbnRhbmExEDAO
BgNVBAcMB0JvemVtYW4xFDASBgNVBAsMC0VuZ2luZWVyaW5nMRIwEAYDVQQDDAls
b2NhbGhvc3QxHzAdBgkqhkiG9w0BCQEWEGluZm9Ad29sZnNzbC5jb20wggEiMA0G
CSqGSIb3DQEBAQUAA4IBDwAwggEKAoIBAQDAlQjhV0HycW230kVBJwFlxkWu8rwk
MLiVzi9O1vYciLx8n/uoZ3/+XJxRdfeKygfnNS+P4b17wC98q2SoF/zKXXu64CHl
ci5vLobYlXParBtTuV8/1xkNJU/hY2NRiwtkP61DuKUcXDSzrgCgY8X2fwtZaHhz
powYqQJtr8MZAS64EOPGzEC0aaNGM2mHbsS7F6bz6N2tc7x7LyG1/WZRDL1Us+Ft
Xxy8I3PRCQOJFNIQuWTDKtChlkq84dQaW8egwMFjeA9ENzAyloAyI5Whd7oT0pdz
4l0lyWoNwzlgpLSwaUJCCenYCLwzILNYIqeq68Th5mGDxdKW39nQT63XAgMBAAEw
DQYJKoZIhvcNAQELBQADggEBAFT+FVkm+FjLR1DGnSd68ji7xHkAG6os3D3I0pU5
NfyOwR0zHaZzii6pWSP9dVyl3SzmPgXOwQ6oNSf7JWFUKgD0ftjS+Ev+lC+d6I+l
GPgSt8Dp2sMn3L0Dz5tE/6RTE84rntQKx/3HMxrzJqQVJe8OZcBWSO4LQeVCgrYf
1i++RzQb0XbTBc2I/vw64FASlGIO/a6WMMjSrDqHjPAycFQL1yw30bpNyz7EV1XO
0BhWMtUc97f3BiNBP/IEMCOAOXurdLOnHLHaV5xEYOaCAWB1Sl0gFre7/9lrYdKH
zvU4RWeCYDC/HhFN010U2SguuateNQvLmJv+HtUcKwL7xMI=
-----END CERTIFICATE-----
