Certificate:
    Data:
        Version: 3 (0x2)
        Serial Number:
            0b:8f:fc:fa:c7:70:2a:92:f9:ba:32:4e:79:14:00:72:d9:ec:7d:b6
        Signature Algorithm: sha256WithRSAEncryption
        Issuer: C = US, ST = Montana, L = Bozeman, OU = Engineering, CN = www.nomatch.com, emailAddress = info@wolfssl.com
        Validity
            Not Before: Jun 15 22:02:33 2021 GMT
            Not After : Mar 11 22:02:33 2024 GMT
        Subject: C = US, ST = Montana, L = Bozeman, OU = Engineering, CN = www.nomatch.com, emailAddress = info@wolfssl.com
        Subject Public Key Info:
            Public Key Algorithm: rsaEncryption
                RSA Public-Key: (2048 bit)
                Modulus:
                    00:c0:95:08:e1:57:41:f2:71:6d:b7:d2:45:41:27:
                    01:65:c6:45:ae:f2:bc:24:30:b8:95:ce:2f:4e:d6:
                    f6:1c:88:bc:7c:9f:fb:a8:67:7f:fe:5c:9c:51:75:
                    f7:8a:ca:07:e7:35:2f:8f:e1:bd:7b:c0:2f:7c:ab:
                    64:a8:17:fc:ca:5d:7b:ba:e0:21:e5:72:2e:6f:2e:
                    86:d8:95:73:da:ac:1b:53:b9:5f:3f:d7:19:0d:25:
                    4f:e1:63:63:51:8b:0b:64:3f:ad:43:b8:a5:1c:5c:
                    34:b3:ae:00:a0:63:c5:f6:7f:0b:59:68:78:73:a6:
                    8c:18:a9:02:6d:af:c3:19:01:2e:b8:10:e3:c6:cc:
                    40:b4:69:a3:46:33:69:87:6e:c4:bb:17:a6:f3:e8:
                    dd:ad:73:bc:7b:2f:21:b5:fd:66:51:0c:bd:54:b3:
                    e1:6d:5f:1c:bc:23:73:d1:09:03:89:14:d2:10:b9:
                    64:c3:2a:d0:a1:96:4a:bc:e1:d4:1a:5b:c7:a0:c0:
                    c1:63:78:0f:44:37:30:32:96:80:32:23:95:a1:77:
                    ba:13:d2:97:73:e2:5d:25:c9:6a:0d:c3:39:60:a4:
                    b4:b0:69:42:42:09:e9:d8:08:bc:33:20:b3:58:22:
                    a7:aa:eb:c4:e1:e6:61:83:c5:d2:96:df:d9:d0:4f:
                    ad:d7
                Exponent: 65537 (0x10001)
    Signature Algorithm: sha256WithRSAEncryption
         86:ba:df:88:f4:26:fc:ac:e6:a3:98:c6:4b:11:c6:f0:de:e8:
         79:6b:84:09:bc:38:83:a1:23:bd:c7:50:9a:8e:a9:8f:e8:84:
         77:68:94:a1:58:5a:5b:71:49:2d:d5:23:7c:67:1a:fe:8a:a6:
         f6:9e:6a:e6:5a:65:73:e7:42:78:a9:10:8d:c4:69:bb:1d:7c:
         1e:c0:b0:cf:d5:e4:3c:44:8d:85:a9:76:94:a2:b3:1b:b1:94:
         42:7e:cd:ef:da:88:f1:62:a9:ed:d6:70:85:26:2b:2d:b2:e7:
         e6:af:0d:76:0c:73:48:c6:ab:18:d4:97:cb:d8:bd:24:8f:bd:
         c1:9a:79:aa:f4:1c:10:8c:6d:71:71:b9:1c:2e:49:21:2a:dc:
         33:83:5b:2c:8a:d2:6b:06:9e:23:47:6b:72:12:b8:43:6a:94:
         d6:c5:25:df:ae:77:7f:b4:4a:6c:39:b9:47:04:68:58:23:e1:
         c1:24:f3:f2:e1:b8:72:27:fb:4a:3e:7f:bf:8b:bc:69:79:74:
         28:8c:33:b0:9d:7a:cb:c4:5b:6b:82:43:60:53:85:87:db:0b:
         1a:e4:83:bb:6c:a3:87:b9:87:42:a0:7f:ff:ec:db:ec:8e:89:
         83:d6:af:f3:80:d0:5d:fe:e5:15:c1:7a:bc:d6:cf:14:b8:d5:
         25:92:ef:b1
-----BEGIN CERTIFICATE-----
MIIDkjCCAnqgAwIBAgIUC4/8+sdwKpL5ujJOeRQActnsfbYwDQYJKoZIhvcNAQEL
BQAwgYIxCzAJBgNVBAYTAlVTMRAwDgYDVQQIDAdNb250YW5hMRAwDgYDVQQHDAdC
b3plbWFuMRQwEgYDVQQLDAtFbmdpbmVlcmluZzEYMBYGA1UEAwwPd3d3Lm5vbWF0
Y2guY29tMR8wHQYJKoZIhvcNAQkBFhBpbmZvQHdvbGZzc2wuY29tMB4XDTIxMDYx
NTIyMDIzM1oXDTI0MDMxMTIyMDIzM1owgYIxCzAJBgNVBAYTAlVTMRAwDgYDVQQI
DAdNb250YW5hMRAwDgYDVQQHDAdCb3plbWFuMRQwEgYDVQQLDAtFbmdpbmVlcmlu
ZzEYMBYGA1UEAwwPd3d3Lm5vbWF0Y2guY29tMR8wHQYJKoZIhvcNAQkBFhBpbmZv
QHdvbGZzc2wuY29tMIIBIjANBgkqhkiG9w0BAQEFAAOCAQ8AMIIBCgKCAQEAwJUI
4VdB8nFtt9JFQScBZcZFrvK8JDC4lc4vTtb2HIi8fJ/7qGd//lycUXX3isoH5zUv
j+G9e8AvfKtkqBf8yl17uuAh5XIuby6G2JVz2qwbU7lfP9cZDSVP4WNjUYsLZD+t
Q7ilHFw0s64AoGPF9n8LWWh4c6aMGKkCba/DGQEuuBDjxsxAtGmjRjNph27Euxem
8+jdrXO8ey8htf1mUQy9VLPhbV8cvCNz0QkDiRTSELlkwyrQoZZKvOHUGlvHoMDB
Y3gPRDcwMpaAMiOVoXe6E9KXc+JdJclqDcM5YKS0sGlCQgnp2Ai8MyCzWCKnquvE
4eZhg8XSlt/Z0E+t1wIDAQABMA0GCSqGSIb3DQEBCwUAA4IBAQCGut+I9Cb8rOaj
mMZLEcbw3uh5a4QJvDiDoSO9x1CajqmP6IR3aJShWFpbcUkt1SN8Zxr+iqb2nmrm
WmVz50J4qRCNxGm7HXwewLDP1eQ8RI2FqXaUorMbsZRCfs3v2ojxYqnt1nCFJist
sufmrw12DHNIxqsY1JfL2L0kj73Bmnmq9BwQjG1xcbkcLkkhKtwzg1ssitJrBp4j
R2tyErhDapTWxSXfrnd/tEpsOblHBGhYI+HBJPPy4bhyJ/tKPn+/i7xpeXQojDOw
nXrLxFtrgkNgU4WH2wsa5IO7bKOHuYdCoH//7NvsjomD1q/zgNBd/uUVwXq81s8U
uNUlku+x
-----END CERTIFICATE-----
