Certificate:
    Data:
        Version: 3 (0x2)
        Serial Number:
            54:28:61:98:f6:94:1e:cd:01:47:65:7a:64:cd:f6:1e:37:0a:e4:f3
        Signature Algorithm: sha256WithRSAEncryption
        Issuer: C = US, ST = Montana, L = Bozeman, OU = Engineering, CN = *localhost, emailAddress = info@wolfssl.com
        Validity
            Not Before: Jun 15 22:02:33 2021 GMT
            Not After : Mar 11 22:02:33 2024 GMT
        Subject: C = US, ST = Montana, L = Bozeman, OU = Engineering, CN = *localhost, emailAddress = info@wolfssl.com
        Subject Public Key Info:
            Public Key Algorithm: rsaEncryption
                RSA Public-Key: (2048 bit)
                Modulus:
                    00:c0:95:08:e1:57:41:f2:71:6d:b7:d2:45:41:27:
                    01:65:c6:45:ae:f2:bc:24:30:b8:95:ce:2f:4e:d6:
                    f6:1c:88:bc:7c:9f:fb:a8:67:7f:fe:5c:9c:51:75:
                    f7:8a:ca:07:e7:35:2f:8f:e1:bd:7b:c0:2f:7c:ab:
                    64:a8:17:fc:ca:5d:7b:ba:e0:21:e5:72:2e:6f:2e:
                    86:d8:95:73:da:ac:1b:53:b9:5f:3f:d7:19:0d:25:
                    4f:e1:63:63:51:8b:0b:64:3f:ad:43:b8:a5:1c:5c:
                    34:b3:ae:00:a0:63:c5:f6:7f:0b:59:68:78:73:a6:
                    8c:18:a9:02:6d:af:c3:19:01:2e:b8:10:e3:c6:cc:
                    40:b4:69:a3:46:33:69:87:6e:c4:bb:17:a6:f3:e8:
                    dd:ad:73:bc:7b:2f:21:b5:fd:66:51:0c:bd:54:b3:
                    e1:6d:5f:1c:bc:23:73:d1:09:03:89:14:d2:10:b9:
                    64:c3:2a:d0:a1:96:4a:bc:e1:d4:1a:5b:c7:a0:c0:
                    c1:63:78:0f:44:37:30:32:96:80:32:23:95:a1:77:
                    ba:13:d2:97:73:e2:5d:25:c9:6a:0d:c3:39:60:a4:
                    b4:b0:69:42:42:09:e9:d8:08:bc:33:20:b3:58:22:
                    a7:aa:eb:c4:e1:e6:61:83:c5:d2:96:df:d9:d0:4f:
                    ad:d7
                Exponent: 65537 (0x10001)
    Signature Algorithm: sha256WithRSAEncryption
         56:75:ba:9c:6f:c1:b8:3a:4b:a9:11:53:19:78:a8:92:8d:69:
         b1:30:d8:54:70:dc:db:c8:e2:87:66:f0:a3:82:8c:c7:8a:1a:
         7b:7b:c7:07:25:ad:ed:7b:7d:21:9b:32:64:54:6b:37:70:ce:
         fa:f9:86:dc:44:a9:3b:47:4b:90:e6:91:67:29:a1:80:85:74:
         5c:80:8b:27:87:84:7d:eb:af:96:0a:a5:3d:88:aa:db:0a:8c:
         ec:6f:4f:bc:ab:f3:8e:bf:13:03:b0:25:87:e4:da:81:ef:06:
         4c:dd:bf:d4:8b:96:a4:a4:cd:ce:1e:17:98:ac:ed:44:92:82:
         48:0e:67:c2:8f:2f:cb:3e:e8:cd:9b:80:1c:5a:ed:83:51:be:
         78:ec:ab:e7:e8:f1:4c:af:50:aa:5b:47:68:31:21:de:88:32:
         af:cb:74:d4:ba:86:bb:db:5a:78:1e:27:4b:b8:16:53:83:20:
         84:a4:df:67:68:c0:a1:ab:59:3c:14:8b:3c:f5:37:41:60:d8:
         7c:bf:bf:fe:d1:72:d2:a5:0b:f5:fc:97:ce:c4:c4:d9:ce:6f:
         cb:ee:27:7c:a0:9a:d0:ae:0d:a6:85:3e:ed:a6:3e:90:09:c7:
         5e:df:e9:89:fb:44:dc:64:a9:c1:1b:ef:d7:1f:98:c1:28:0b:
         f5:33:d3:25
-----BEGIN CERTIFICATE-----
MIIDhjCCAm6gAwIBAgIUVChhmPaUHs0BR2V6ZM32HjcK5PMwDQYJKoZIhvcNAQEL
BQAwfTELMAkGA1UEBhMCVVMxEDAOBgNVBAgMB01vbnRhbmExEDAOBgNVBAcMB0Jv
emVtYW4xFDASBgNVBAsMC0VuZ2luZWVyaW5nMRMwEQYDVQQDDAoqbG9jYWxob3N0
MR8wHQYJKoZIhvcNAQkBFhBpbmZvQHdvbGZzc2wuY29tMB4XDTIxMDYxNTIyMDIz
M1oXDTI0MDMxMTIyMDIzM1owfTELMAkGA1UEBhMCVVMxEDAOBgNVBAgMB01vbnRh
bmExEDAOBgNVBAcMB0JvemVtYW4xFDASBgNVBAsMC0VuZ2luZWVyaW5nMRMwEQYD
VQQDDAoqbG9jYWxob3N0MR8wHQYJKoZIhvcNAQkBFhBpbmZvQHdvbGZzc2wuY29t
MIIBIjANBgkqhkiG9w0BAQEFAAOCAQ8AMIIBCgKCAQEAwJUI4VdB8nFtt9JFQScB
ZcZFrvK8JDC4lc4vTtb2HIi8fJ/7qGd//lycUXX3isoH5zUvj+G9e8AvfKtkqBf8
yl17uuAh5XIuby6G2JVz2qwbU7lfP9cZDSVP4WNjUYsLZD+tQ7ilHFw0s64AoGPF
9n8LWWh4c6aMGKkCba/DGQEuuBDjxsxAtGmjRjNph27Euxem8+jdrXO8ey8htf1m
UQy9VLPhbV8cvCNz0QkDiRTSELlkwyrQoZZKvOHUGlvHoMDBY3gPRDcwMpaAMiOV
oXe6E9KXc+JdJclqDcM5YKS0sGlCQgnp2Ai8MyCzWCKnquvE4eZhg8XSlt/Z0E+t
1wIDAQABMA0GCSqGSIb3DQEBCwUAA4IBAQBWdbqcb8G4OkupEVMZeKiSjWmxMNhU
cNzbyOKHZvCjgozHihp7e8cHJa3te30hmzJkVGs3cM76+YbcRKk7R0uQ5pFnKaGA
hXRcgIsnh4R966+WCqU9iKrbCozsb0+8q/OOvxMDsCWH5NqB7wZM3b/Ui5akpM3O
HheYrO1EkoJIDmfCjy/LPujNm4AcWu2DUb547Kvn6PFMr1CqW0doMSHeiDKvy3TU
uoa721p4HidLuBZTgyCEpN9naMChq1k8FIs89TdBYNh8v7/+0XLSpQv1/JfOxMTZ
zm/L7id8oJrQrg2mhT7tpj6QCcde3+mJ+0TcZKnBG+/XH5jBKAv1M9Ml
-----END CERTIFICATE-----
