Certificate:
    Data:
        Version: 3 (0x2)
        Serial Number:
            19:ad:b5:3e:0f:9b:4a:6a:0b:15:a8:5a:f1:ac:02:39:8f:6d:77:1c
        Signature Algorithm: sha256WithRSAEncryption
        Issuer: C = US, ST = Montana, L = Bozeman, OU = Engineering, CN = localhost, emailAddress = info@wolfssl.com
        Validity
            Not Before: Dec 20 23:07:25 2021 GMT
            Not After : Sep 15 23:07:25 2024 GMT
        Subject: C = US, ST = Montana, L = Bozeman, OU = Engineering, CN = localhost, emailAddress = info@wolfssl.com
        Subject Public Key Info:
            Public Key Algorithm: rsaEncryption
                RSA Public-Key: (2048 bit)
                Modulus:
                    00:c0:95:08:e1:57:41:f2:71:6d:b7:d2:45:41:27:
                    01:65:c6:45:ae:f2:bc:24:30:b8:95:ce:2f:4e:d6:
                    f6:1c:88:bc:7c:9f:fb:a8:67:7f:fe:5c:9c:51:75:
                    f7:8a:ca:07:e7:35:2f:8f:e1:bd:7b:c0:2f:7c:ab:
                    64:a8:17:fc:ca:5d:7b:ba:e0:21:e5:72:2e:6f:2e:
                    86:d8:95:73:da:ac:1b:53:b9:5f:3f:d7:19:0d:25:
                    4f:e1:63:63:51:8b:0b:64:3f:ad:43:b8:a5:1c:5c:
                    34:b3:ae:00:a0:63:c5:f6:7f:0b:59:68:78:73:a6:
                    8c:18:a9:02:6d:af:c3:19:01:2e:b8:10:e3:c6:cc:
                    40:b4:69:a3:46:33:69:87:6e:c4:bb:17:a6:f3:e8:
                    dd:ad:73:bc:7b:2f:21:b5:fd:66:51:0c:bd:54:b3:
                    e1:6d:5f:1c:bc:23:73:d1:09:03:89:14:d2:10:b9:
                    64:c3:2a:d0:a1:96:4a:bc:e1:d4:1a:5b:c7:a0:c0:
                    c1:63:78:0f:44:37:30:32:96:80:32:23:95:a1:77:
                    ba:13:d2:97:73:e2:5d:25:c9:6a:0d:c3:39:60:a4:
                    b4:b0:69:42:42:09:e9:d8:08:bc:33:20:b3:58:22:
                    a7:aa:eb:c4:e1:e6:61:83:c5:d2:96:df:d9:d0:4f:
                    ad:d7
                Exponent: 65537 (0x10001)
        X509v3 extensions:
            X509v3 Subject Alternative Name: 
                DNS:localhost
    Signature Algorithm: sha256WithRSAEncryption
         31:f1:f2:e1:ea:37:cb:0b:cc:13:9c:75:3a:b1:5d:fe:e4:e6:
         cc:08:99:52:cf:25:96:78:bb:6a:4b:92:6b:b8:16:47:a6:b1:
         4c:73:05:0b:33:e2:58:b6:a0:5d:84:46:3b:a6:b2:37:f8:97:
         cc:8b:de:ac:12:0c:94:4c:9a:9d:46:0a:29:22:24:c4:ae:20:
         24:1c:a9:e6:3c:79:fe:27:fb:3d:bb:d0:6c:b5:f7:db:a5:1c:
         da:77:64:84:f0:54:ff:cc:b8:ae:8d:46:8e:6d:56:43:cd:4a:
         e5:79:a6:eb:01:2d:58:ee:d3:2d:ca:d9:c9:9d:55:99:dc:c0:
         88:ef:63:cc:0a:75:9d:60:ba:5a:10:43:e7:db:82:e0:3b:b4:
         d3:f4:1a:e0:09:44:8a:da:29:7b:c4:68:01:f7:0b:92:5f:30:
         2a:68:ed:a8:96:bf:a7:29:92:d2:14:1d:f5:5b:26:0d:fa:13:
         dc:38:07:95:c5:90:dc:e1:c9:f5:fc:aa:02:2c:d6:a4:7b:80:
         f9:00:ee:13:15:81:05:33:9f:54:bf:a4:38:fe:fb:c6:29:35:
         28:97:39:8f:f2:60:b8:c8:a9:10:bb:ab:bd:bd:fb:d5:8d:e0:
         e2:9e:84:44:15:ff:8d:d7:b1:1c:4b:3e:bd:fc:3c:02:b0:b4:
         a4:27:ef:2b
-----BEGIN CERTIFICATE-----
MIIDnjCCAoagAwIBAgIUGa21Pg+bSmoLFaha8awCOY9tdxwwDQYJKoZIhvcNAQEL
BQAwfDELMAkGA1UEBhMCVVMxEDAOBgNVBAgMB01vbnRhbmExEDAOBgNVBAcMB0Jv
emVtYW4xFDASBgNVBAsMC0VuZ2luZWVyaW5nMRIwEAYDVQQDDAlsb2NhbGhvc3Qx
HzAdBgkqhkiG9w0BCQEWEGluZm9Ad29sZnNzbC5jb20wHhcNMjExMjIwMjMwNzI1
WhcNMjQwOTE1MjMwNzI1WjB8MQswCQYDVQQGEwJVUzEQMA4GA1UECAwHTW9udGFu
YTEQMA4GA1UEBwwHQm96ZW1hbjEUMBIGA1UECwwLRW5naW5lZXJpbmcxEjAQBgNV
BAMMCWxvY2FsaG9zdDEfMB0GCSqGSIb3DQEJARYQaW5mb0B3b2xmc3NsLmNvbTCC
ASIwDQYJKoZIhvcNAQEBBQADggEPADCCAQoCggEBAMCVCOFXQfJxbbfSRUEnAWXG
Ra7yvCQwuJXOL07W9hyIvHyf+6hnf/5cnFF194rKB+c1L4/hvXvAL3yrZKgX/Mpd
e7rgIeVyLm8uhtiVc9qsG1O5Xz/XGQ0lT+FjY1GLC2Q/rUO4pRxcNLOuAKBjxfZ/
C1loeHOmjBipAm2vwxkBLrgQ48bMQLRpo0YzaYduxLsXpvPo3a1zvHsvIbX9ZlEM
vVSz4W1fHLwjc9EJA4kU0hC5ZMMq0KGWSrzh1Bpbx6DAwWN4D0Q3MDKWgDIjlaF3
uhPSl3PiXSXJag3DOWCktLBpQkIJ6dgIvDMgs1gip6rrxOHmYYPF0pbf2dBPrdcC
AwEAAaMYMBYwFAYDVR0RBA0wC4IJbG9jYWxob3N0MA0GCSqGSIb3DQEBCwUAA4IB
AQAx8fLh6jfLC8wTnHU6sV3+5ObMCJlSzyWWeLtqS5JruBZHprFMcwULM+JYtqBd
hEY7prI3+JfMi96sEgyUTJqdRgopIiTEriAkHKnmPHn+J/s9u9BstffbpRzad2SE
8FT/zLiujUaObVZDzUrleabrAS1Y7tMtytnJnVWZ3MCI72PMCnWdYLpaEEPn24Lg
O7TT9BrgCUSK2il7xGgB9wuSXzAqaO2olr+nKZLSFB31WyYN+hPcOAeVxZDc4cn1
/KoCLNake4D5AO4TFYEFM59Uv6Q4/vvGKTUolzmP8mC4yKkQu6u9vfvVjeDinoRE
Ff+N17EcSz69/DwCsLSkJ+8r
-----END CERTIFICATE-----
