Certificate:
    Data:
        Version: 3 (0x2)
        Serial Number:
            75:94:fd:49:d7:c1:2b:ca:02:75:4d:37:61:ca:48:1b:60:40:bc:e2
        Signature Algorithm: sha256WithRSAEncryption
        Issuer: C = US, ST = Montana, L = Bozeman, OU = Engineering, CN = www.nomatch.com, emailAddress = info@wolfssl.com
        Validity
            Not Before: Dec 13 22:19:29 2023 GMT
            Not After : Sep  8 22:19:29 2026 GMT
        Subject: C = US, ST = Montana, L = Bozeman, OU = Engineering, CN = www.nomatch.com, emailAddress = info@wolfssl.com
        Subject Public Key Info:
            Public Key Algorithm: rsaEncryption
                RSA Public-Key: (2048 bit)
                Modulus:
                    00:c0:95:08:e1:57:41:f2:71:6d:b7:d2:45:41:27:
                    01:65:c6:45:ae:f2:bc:24:30:b8:95:ce:2f:4e:d6:
                    f6:1c:88:bc:7c:9f:fb:a8:67:7f:fe:5c:9c:51:75:
                    f7:8a:ca:07:e7:35:2f:8f:e1:bd:7b:c0:2f:7c:ab:
                    64:a8:17:fc:ca:5d:7b:ba:e0:21:e5:72:2e:6f:2e:
                    86:d8:95:73:da:ac:1b:53:b9:5f:3f:d7:19:0d:25:
                    4f:e1:63:63:51:8b:0b:64:3f:ad:43:b8:a5:1c:5c:
                    34:b3:ae:00:a0:63:c5:f6:7f:0b:59:68:78:73:a6:
                    8c:18:a9:02:6d:af:c3:19:01:2e:b8:10:e3:c6:cc:
                    40:b4:69:a3:46:33:69:87:6e:c4:bb:17:a6:f3:e8:
                    dd:ad:73:bc:7b:2f:21:b5:fd:66:51:0c:bd:54:b3:
                    e1:6d:5f:1c:bc:23:73:d1:09:03:89:14:d2:10:b9:
                    64:c3:2a:d0:a1:96:4a:bc:e1:d4:1a:5b:c7:a0:c0:
                    c1:63:78:0f:44:37:30:32:96:80:32:23:95:a1:77:
                    ba:13:d2:97:73:e2:5d:25:c9:6a:0d:c3:39:60:a4:
                    b4:b0:69:42:42:09:e9:d8:08:bc:33:20:b3:58:22:
                    a7:aa:eb:c4:e1:e6:61:83:c5:d2:96:df:d9:d0:4f:
                    ad:d7
                Exponent: 65537 (0x10001)
        X509v3 extensions:
            X509v3 Subject Alternative Name: 
                0..localhost.h
    Signature Algorithm: sha256WithRSAEncryption
         9c:a2:c0:49:d7:4b:a2:cf:6d:83:b7:06:a0:b2:60:4e:a3:ca:
         57:8e:0f:8f:65:0a:e5:3b:12:8f:06:5e:f7:7c:4c:22:09:8e:
         88:a9:34:c4:ed:5a:01:45:8e:c6:06:bc:f9:41:96:6f:dc:7c:
         3e:5b:b9:19:ff:77:f1:49:a1:84:e9:11:8a:d2:d7:6c:13:53:
         cd:48:61:7d:a4:0b:30:e9:62:32:f5:01:a4:27:5c:3b:d1:cf:
         cb:cb:c6:8d:2d:9d:3f:89:46:13:4f:2c:5b:4c:a8:ab:7d:23:
         a5:98:9f:ad:ba:fc:2c:4b:44:17:3d:99:8d:7a:53:21:f7:8f:
         25:d8:84:ba:41:c2:c9:0f:24:d7:06:6e:cc:93:f7:13:f3:21:
         64:05:b0:82:96:44:d0:1d:dd:e0:5c:d1:32:f2:55:08:25:05:
         2a:23:d6:ae:bc:e5:29:8d:13:06:1d:d0:cc:9e:b0:04:c2:1c:
         3e:c5:6d:60:6b:d8:25:d8:23:0a:8c:f9:74:7a:e5:5b:21:b6:
         b5:74:de:c9:34:2d:75:c5:01:41:47:c6:76:08:8c:21:59:4f:
         4d:9b:16:05:c1:43:15:a2:17:b2:ab:70:6a:51:18:3f:c9:ac:
         48:16:a1:23:38:e2:90:ea:ac:df:5a:b5:7f:ed:be:9b:42:a5:
         e2:2b:5c:c7
-----BEGIN CERTIFICATE-----
MIIDrjCCApagAwIBAgIUdZT9SdfBK8oCdU03YcpIG2BAvOIwDQYJKoZIhvcNAQEL
BQAwgYIxCzAJBgNVBAYTAlVTMRAwDgYDVQQIDAdNb250YW5hMRAwDgYDVQQHDAdC
b3plbWFuMRQwEgYDVQQLDAtFbmdpbmVlcmluZzEYMBYGA1UEAwwPd3d3Lm5vbWF0
Y2guY29tMR8wHQYJKoZIhvcNAQkBFhBpbmZvQHdvbGZzc2wuY29tMB4XDTIzMTIx
MzIyMTkyOVoXDTI2MDkwODIyMTkyOVowgYIxCzAJBgNVBAYTAlVTMRAwDgYDVQQI
DAdNb250YW5hMRAwDgYDVQQHDAdCb3plbWFuMRQwEgYDVQQLDAtFbmdpbmVlcmlu
ZzEYMBYGA1UEAwwPd3d3Lm5vbWF0Y2guY29tMR8wHQYJKoZIhvcNAQkBFhBpbmZv
QHdvbGZzc2wuY29tMIIBIjANBgkqhkiG9w0BAQEFAAOCAQ8AMIIBCgKCAQEAwJUI
4VdB8nFtt9JFQScBZcZFrvK8JDC4lc4vTtb2HIi8fJ/7qGd//lycUXX3isoH5zUv
j+G9e8AvfKtkqBf8yl17uuAh5XIuby6G2JVz2qwbU7lfP9cZDSVP4WNjUYsLZD+t
Q7ilHFw0s64AoGPF9n8LWWh4c6aMGKkCba/DGQEuuBDjxsxAtGmjRjNph27Euxem
8+jdrXO8ey8htf1mUQy9VLPhbV8cvCNz0QkDiRTSELlkwyrQoZZKvOHUGlvHoMDB
Y3gPRDcwMpaAMiOVoXe6E9KXc+JdJclqDcM5YKS0sGlCQgnp2Ai8MyCzWCKnquvE
4eZhg8XSlt/Z0E+t1wIDAQABoxowGDAWBgNVHREEDzANggtsb2NhbGhvc3QAaDAN
BgkqhkiG9w0BAQsFAAOCAQEAnKLASddLos9tg7cGoLJgTqPKV44Pj2UK5TsSjwZe
93xMIgmOiKk0xO1aAUWOxga8+UGWb9x8Plu5Gf938UmhhOkRitLXbBNTzUhhfaQL
MOliMvUBpCdcO9HPy8vGjS2dP4lGE08sW0yoq30jpZifrbr8LEtEFz2ZjXpTIfeP
JdiEukHCyQ8k1wZuzJP3E/MhZAWwgpZE0B3d4FzRMvJVCCUFKiPWrrzlKY0TBh3Q
zJ6wBMIcPsVtYGvYJdgjCoz5dHrlWyG2tXTeyTQtdcUBQUfGdgiMIVlPTZsWBcFD
FaIXsqtwalEYP8msSBahIzjikOqs31q1f+2+m0Kl4itcxw==
-----END CERTIFICATE-----
