Certificate:
    Data:
        Version: 3 (0x2)
        Serial Number: 14980506928471650860 (0xcfe573ae6ad4b22c)
    Signature Algorithm: sha1WithRSAEncryption
        Issuer: C=US, ST=Montana, L=Bozeman, OU=Engineering, CN=www.nomatch.com/emailAddress=info@wolfssl.com
        Validity
            Not Before: Jun 12 21:08:33 2018 GMT
            Not After : Mar  8 21:08:33 2021 GMT
        Subject: C=US, ST=Montana, L=Bozeman, OU=Engineering, CN=www.nomatch.com/emailAddress=info@wolfssl.com
        Subject Public Key Info:
            Public Key Algorithm: rsaEncryption
                Public-Key: (2048 bit)
                Modulus:
                    00:c0:95:08:e1:57:41:f2:71:6d:b7:d2:45:41:27:
                    01:65:c6:45:ae:f2:bc:24:30:b8:95:ce:2f:4e:d6:
                    f6:1c:88:bc:7c:9f:fb:a8:67:7f:fe:5c:9c:51:75:
                    f7:8a:ca:07:e7:35:2f:8f:e1:bd:7b:c0:2f:7c:ab:
                    64:a8:17:fc:ca:5d:7b:ba:e0:21:e5:72:2e:6f:2e:
                    86:d8:95:73:da:ac:1b:53:b9:5f:3f:d7:19:0d:25:
                    4f:e1:63:63:51:8b:0b:64:3f:ad:43:b8:a5:1c:5c:
                    34:b3:ae:00:a0:63:c5:f6:7f:0b:59:68:78:73:a6:
                    8c:18:a9:02:6d:af:c3:19:01:2e:b8:10:e3:c6:cc:
                    40:b4:69:a3:46:33:69:87:6e:c4:bb:17:a6:f3:e8:
                    dd:ad:73:bc:7b:2f:21:b5:fd:66:51:0c:bd:54:b3:
                    e1:6d:5f:1c:bc:23:73:d1:09:03:89:14:d2:10:b9:
                    64:c3:2a:d0:a1:96:4a:bc:e1:d4:1a:5b:c7:a0:c0:
                    c1:63:78:0f:44:37:30:32:96:80:32:23:95:a1:77:
                    ba:13:d2:97:73:e2:5d:25:c9:6a:0d:c3:39:60:a4:
                    b4:b0:69:42:42:09:e9:d8:08:bc:33:20:b3:58:22:
                    a7:aa:eb:c4:e1:e6:61:83:c5:d2:96:df:d9:d0:4f:
                    ad:d7
                Exponent: 65537 (0x10001)
        X509v3 extensions:
            X509v3 Subject Alternative Name: 
                DNS:*localhost
    Signature Algorithm: sha1WithRSAEncryption
         5c:8a:c0:87:6d:e8:af:91:5b:fb:43:86:c3:63:ca:3d:d7:5c:
         5b:1a:7a:c2:53:78:f3:7c:32:b3:f0:cf:d0:60:0a:53:22:b1:
         c6:50:fe:a8:67:91:90:56:05:67:cf:15:ff:e9:c9:b1:ae:f2:
         9d:97:0e:f5:ec:41:b2:e5:40:0b:8f:83:e1:b9:e4:59:bd:7e:
         5c:a0:d5:31:df:c4:78:1a:ca:13:1b:e3:2f:a8:b7:9f:4e:86:
         59:33:c6:a1:96:c5:f1:5b:83:7c:21:60:97:d1:77:25:40:ac:
         86:cb:c5:b0:d7:db:07:98:0f:63:48:b1:b5:d3:f4:bc:1b:90:
         fc:d1:bf:95:53:8f:03:ec:9e:ac:b3:bc:18:c8:53:ca:36:38:
         64:5b:65:65:27:e7:23:f8:6d:68:a3:f2:48:ac:26:00:73:ff:
         68:cd:62:98:65:04:a5:0f:bb:c7:11:a4:7a:6f:0e:79:14:e6:
         19:c4:4f:54:c0:a7:4f:60:99:c1:7c:17:74:6d:38:1c:72:90:
         8d:72:6b:52:dd:68:4a:2c:8b:4e:9d:c3:35:f8:1b:31:6e:eb:
         76:b7:bb:7e:54:86:6f:ac:2e:e4:f6:58:7e:23:75:b0:af:9b:
         fc:66:82:4a:e6:47:1d:4b:10:15:26:81:7a:f5:17:b4:44:01:
         1e:84:41:62
-----BEGIN CERTIFICATE-----
MIIDojCCAoqgAwIBAgIJAM/lc65q1LIsMA0GCSqGSIb3DQEBBQUAMIGCMQswCQYD
VQQGEwJVUzEQMA4GA1UECAwHTW9udGFuYTEQMA4GA1UEBwwHQm96ZW1hbjEUMBIG
A1UECwwLRW5naW5lZXJpbmcxGDAWBgNVBAMMD3d3dy5ub21hdGNoLmNvbTEfMB0G
CSqGSIb3DQEJARYQaW5mb0B3b2xmc3NsLmNvbTAeFw0xODA2MTIyMTA4MzNaFw0y
MTAzMDgyMTA4MzNaMIGCMQswCQYDVQQGEwJVUzEQMA4GA1UECAwHTW9udGFuYTEQ
MA4GA1UEBwwHQm96ZW1hbjEUMBIGA1UECwwLRW5naW5lZXJpbmcxGDAWBgNVBAMM
D3d3dy5ub21hdGNoLmNvbTEfMB0GCSqGSIb3DQEJARYQaW5mb0B3b2xmc3NsLmNv
bTCCASIwDQYJKoZIhvcNAQEBBQADggEPADCCAQoCggEBAMCVCOFXQfJxbbfSRUEn
AWXGRa7yvCQwuJXOL07W9hyIvHyf+6hnf/5cnFF194rKB+c1L4/hvXvAL3yrZKgX
/Mpde7rgIeVyLm8uhtiVc9qsG1O5Xz/XGQ0lT+FjY1GLC2Q/rUO4pRxcNLOuAKBj
xfZ/C1loeHOmjBipAm2vwxkBLrgQ48bMQLRpo0YzaYduxLsXpvPo3a1zvHsvIbX9
ZlEMvVSz4W1fHLwjc9EJA4kU0hC5ZMMq0KGWSrzh1Bpbx6DAwWN4D0Q3MDKWgDIj
laF3uhPSl3PiXSXJag3DOWCktLBpQkIJ6dgIvDMgs1gip6rrxOHmYYPF0pbf2dBP
rdcCAwEAAaMZMBcwFQYDVR0RBA4wDIIKKmxvY2FsaG9zdDANBgkqhkiG9w0BAQUF
AAOCAQEAXIrAh23or5Fb+0OGw2PKPddcWxp6wlN483wys/DP0GAKUyKxxlD+qGeR
kFYFZ88V/+nJsa7ynZcO9exBsuVAC4+D4bnkWb1+XKDVMd/EeBrKExvjL6i3n06G
WTPGoZbF8VuDfCFgl9F3JUCshsvFsNfbB5gPY0ixtdP0vBuQ/NG/lVOPA+yerLO8
GMhTyjY4ZFtlZSfnI/htaKPySKwmAHP/aM1imGUEpQ+7xxGkem8OeRTmGcRPVMCn
T2CZwXwXdG04HHKQjXJrUt1oSiyLTp3DNfgbMW7rdre7flSGb6wu5PZYfiN1sK+b
/GaCSuZHHUsQFSaBevUXtEQBHoRBYg==
-----END CERTIFICATE-----
