Certificate:
    Data:
        Version: 3 (0x2)
        Serial Number:
            37:d7:9a:b7:14:ef:49:b1:50:10:46:e4:0d:f2:cb:88:8f:fc:22:a6
        Signature Algorithm: sha256WithRSAEncryption
        Issuer: C = US, ST = Montana, L = Bozeman, OU = Engineering, CN = www.nomatch.com, emailAddress = info@wolfssl.com
        Validity
            Not Before: Sep 26 17:22:43 2023 GMT
            Not After : Jun 22 17:22:43 2026 GMT
        Subject: C = US, ST = Montana, L = Bozeman, OU = Engineering, CN = www.nomatch.com, emailAddress = info@wolfssl.com
        Subject Public Key Info:
            Public Key Algorithm: rsaEncryption
                Public-Key: (2048 bit)
                Modulus:
                    00:c0:95:08:e1:57:41:f2:71:6d:b7:d2:45:41:27:
                    01:65:c6:45:ae:f2:bc:24:30:b8:95:ce:2f:4e:d6:
                    f6:1c:88:bc:7c:9f:fb:a8:67:7f:fe:5c:9c:51:75:
                    f7:8a:ca:07:e7:35:2f:8f:e1:bd:7b:c0:2f:7c:ab:
                    64:a8:17:fc:ca:5d:7b:ba:e0:21:e5:72:2e:6f:2e:
                    86:d8:95:73:da:ac:1b:53:b9:5f:3f:d7:19:0d:25:
                    4f:e1:63:63:51:8b:0b:64:3f:ad:43:b8:a5:1c:5c:
                    34:b3:ae:00:a0:63:c5:f6:7f:0b:59:68:78:73:a6:
                    8c:18:a9:02:6d:af:c3:19:01:2e:b8:10:e3:c6:cc:
                    40:b4:69:a3:46:33:69:87:6e:c4:bb:17:a6:f3:e8:
                    dd:ad:73:bc:7b:2f:21:b5:fd:66:51:0c:bd:54:b3:
                    e1:6d:5f:1c:bc:23:73:d1:09:03:89:14:d2:10:b9:
                    64:c3:2a:d0:a1:96:4a:bc:e1:d4:1a:5b:c7:a0:c0:
                    c1:63:78:0f:44:37:30:32:96:80:32:23:95:a1:77:
                    ba:13:d2:97:73:e2:5d:25:c9:6a:0d:c3:39:60:a4:
                    b4:b0:69:42:42:09:e9:d8:08:bc:33:20:b3:58:22:
                    a7:aa:eb:c4:e1:e6:61:83:c5:d2:96:df:d9:d0:4f:
                    ad:d7
                Exponent: 65537 (0x10001)
        X509v3 extensions:
            X509v3 Subject Alternative Name: 
                0..localhost.h
            X509v3 Subject Key Identifier: 
                B3:11:32:C9:92:98:84:E2:C9:F8:D0:3B:6E:03:42:CA:1F:0E:8E:3C
    Signature Algorithm: sha256WithRSAEncryption
    Signature Value:
        76:db:05:d9:d2:90:9a:9e:db:6c:c0:a6:1f:65:81:22:97:b1:
        61:63:da:97:08:15:07:3e:1d:70:6b:d2:db:75:92:41:7e:20:
        0e:20:75:e4:08:0d:4a:0d:d0:e7:f9:a0:d8:e6:f1:9a:5b:55:
        4e:24:42:0f:b5:c8:d9:81:0a:2a:18:5d:5c:0a:a3:f6:2e:ec:
        a0:67:8b:69:3a:df:93:6d:cb:f1:84:25:cf:cc:55:7d:ec:7e:
        60:16:6d:b6:e1:e0:be:b8:99:c0:8d:20:d9:bf:71:62:f1:a1:
        fc:43:17:eb:e0:ce:36:c5:a1:3f:c7:d2:7a:5e:33:7c:9d:8e:
        ba:1e:28:7f:de:59:49:28:58:a3:43:80:6f:c2:19:4a:00:66:
        c6:52:ca:40:59:94:e8:68:5a:90:a9:0c:31:34:a1:f3:d5:b7:
        f8:30:55:91:ce:4a:a1:0b:a8:7d:7f:3f:c8:b6:e3:4b:cb:a1:
        32:3d:ad:01:df:bb:0f:32:f0:51:2b:43:1b:71:3e:42:6d:00:
        af:87:d7:72:b0:dd:13:3a:5a:88:ea:66:60:6f:16:49:36:c6:
        b9:9a:e6:ba:8a:48:c2:e4:5c:66:0e:bb:fc:46:3c:8a:6e:8e:
        55:a3:ec:aa:5e:be:fd:52:d7:68:90:1c:c5:5b:f2:89:58:7c:
        22:d2:21:70
-----BEGIN CERTIFICATE-----
MIIDzTCCArWgAwIBAgIUN9eatxTvSbFQEEbkDfLLiI/8IqYwDQYJKoZIhvcNAQEL
BQAwgYIxCzAJBgNVBAYTAlVTMRAwDgYDVQQIDAdNb250YW5hMRAwDgYDVQQHDAdC
b3plbWFuMRQwEgYDVQQLDAtFbmdpbmVlcmluZzEYMBYGA1UEAwwPd3d3Lm5vbWF0
Y2guY29tMR8wHQYJKoZIhvcNAQkBFhBpbmZvQHdvbGZzc2wuY29tMB4XDTIzMDky
NjE3MjI0M1oXDTI2MDYyMjE3MjI0M1owgYIxCzAJBgNVBAYTAlVTMRAwDgYDVQQI
DAdNb250YW5hMRAwDgYDVQQHDAdCb3plbWFuMRQwEgYDVQQLDAtFbmdpbmVlcmlu
ZzEYMBYGA1UEAwwPd3d3Lm5vbWF0Y2guY29tMR8wHQYJKoZIhvcNAQkBFhBpbmZv
QHdvbGZzc2wuY29tMIIBIjANBgkqhkiG9w0BAQEFAAOCAQ8AMIIBCgKCAQEAwJUI
4VdB8nFtt9JFQScBZcZFrvK8JDC4lc4vTtb2HIi8fJ/7qGd//lycUXX3isoH5zUv
j+G9e8AvfKtkqBf8yl17uuAh5XIuby6G2JVz2qwbU7lfP9cZDSVP4WNjUYsLZD+t
Q7ilHFw0s64AoGPF9n8LWWh4c6aMGKkCba/DGQEuuBDjxsxAtGmjRjNph27Euxem
8+jdrXO8ey8htf1mUQy9VLPhbV8cvCNz0QkDiRTSELlkwyrQoZZKvOHUGlvHoMDB
Y3gPRDcwMpaAMiOVoXe6E9KXc+JdJclqDcM5YKS0sGlCQgnp2Ai8MyCzWCKnquvE
4eZhg8XSlt/Z0E+t1wIDAQABozkwNzAWBgNVHREEDzANggtsb2NhbGhvc3QAaDAd
BgNVHQ4EFgQUsxEyyZKYhOLJ+NA7bgNCyh8OjjwwDQYJKoZIhvcNAQELBQADggEB
AHbbBdnSkJqe22zAph9lgSKXsWFj2pcIFQc+HXBr0tt1kkF+IA4gdeQIDUoN0Of5
oNjm8ZpbVU4kQg+1yNmBCioYXVwKo/Yu7KBni2k635Nty/GEJc/MVX3sfmAWbbbh
4L64mcCNINm/cWLxofxDF+vgzjbFoT/H0npeM3ydjroeKH/eWUkoWKNDgG/CGUoA
ZsZSykBZlOhoWpCpDDE0ofPVt/gwVZHOSqELqH1/P8i240vLoTI9rQHfuw8y8FEr
QxtxPkJtAK+H13Kw3RM6WojqZmBvFkk2xrma5rqKSMLkXGYOu/xGPIpujlWj7Kpe
vv1S12iQHMVb8olYfCLSIXA=
-----END CERTIFICATE-----
