Certificate:
    Data:
        Version: 3 (0x2)
        Serial Number:
            4b:f3:78:21:72:18:e4:c5:f3:3f:3c:e9:d2:05:7a:b1:49:d2:c1:2d
        Signature Algorithm: sha256WithRSAEncryption
        Issuer: C=US, ST=Montana, L=Bozeman, OU=Engineering, CN=www.nomatch.com, emailAddress=info@wolfssl.com
        Validity
            Not Before: Nov 13 20:41:30 2025 GMT
            Not After : Aug  9 20:41:30 2028 GMT
        Subject: C=US, ST=Montana, L=Bozeman, OU=Engineering, CN=www.nomatch.com, emailAddress=info@wolfssl.com
        Subject Public Key Info:
            Public Key Algorithm: rsaEncryption
                Public-Key: (2048 bit)
                Modulus:
                    00:c0:95:08:e1:57:41:f2:71:6d:b7:d2:45:41:27:
                    01:65:c6:45:ae:f2:bc:24:30:b8:95:ce:2f:4e:d6:
                    f6:1c:88:bc:7c:9f:fb:a8:67:7f:fe:5c:9c:51:75:
                    f7:8a:ca:07:e7:35:2f:8f:e1:bd:7b:c0:2f:7c:ab:
                    64:a8:17:fc:ca:5d:7b:ba:e0:21:e5:72:2e:6f:2e:
                    86:d8:95:73:da:ac:1b:53:b9:5f:3f:d7:19:0d:25:
                    4f:e1:63:63:51:8b:0b:64:3f:ad:43:b8:a5:1c:5c:
                    34:b3:ae:00:a0:63:c5:f6:7f:0b:59:68:78:73:a6:
                    8c:18:a9:02:6d:af:c3:19:01:2e:b8:10:e3:c6:cc:
                    40:b4:69:a3:46:33:69:87:6e:c4:bb:17:a6:f3:e8:
                    dd:ad:73:bc:7b:2f:21:b5:fd:66:51:0c:bd:54:b3:
                    e1:6d:5f:1c:bc:23:73:d1:09:03:89:14:d2:10:b9:
                    64:c3:2a:d0:a1:96:4a:bc:e1:d4:1a:5b:c7:a0:c0:
                    c1:63:78:0f:44:37:30:32:96:80:32:23:95:a1:77:
                    ba:13:d2:97:73:e2:5d:25:c9:6a:0d:c3:39:60:a4:
                    b4:b0:69:42:42:09:e9:d8:08:bc:33:20:b3:58:22:
                    a7:aa:eb:c4:e1:e6:61:83:c5:d2:96:df:d9:d0:4f:
                    ad:d7
                Exponent: 65537 (0x10001)
        X509v3 extensions:
            X509v3 Subject Key Identifier: 
                B3:11:32:C9:92:98:84:E2:C9:F8:D0:3B:6E:03:42:CA:1F:0E:8E:3C
    Signature Algorithm: sha256WithRSAEncryption
    Signature Value:
        1b:09:2f:91:10:37:40:f4:df:a1:97:e1:ad:15:f3:dd:1f:eb:
        cc:ff:bb:4a:6f:d1:82:78:5c:dd:8e:ca:09:53:4d:02:5e:b2:
        4e:b0:96:86:db:08:b3:f2:9b:16:25:e0:c9:6d:f2:ab:76:0b:
        db:0e:b7:c5:24:b4:ad:73:52:1e:26:b7:de:78:76:b1:4a:b2:
        4f:f4:02:03:e5:7b:09:13:77:3c:c2:22:7a:82:90:fe:00:f4:
        b1:d8:1e:42:88:18:bc:be:dc:4c:9c:fe:59:04:ca:53:8f:c0:
        bb:9c:5c:ca:3c:73:33:f9:82:13:62:58:a3:a1:4e:a2:5a:8a:
        ea:98:4c:02:5f:7b:57:97:b1:80:6e:df:6e:ae:1a:89:8c:fd:
        29:36:93:09:6a:32:0a:08:33:eb:f7:b8:79:b5:06:5d:84:54:
        b9:f6:c4:8f:56:1e:4f:6a:5e:ea:8e:af:3b:01:f6:78:ac:e6:
        51:e6:83:f3:68:94:ed:09:04:fa:8c:c8:75:de:72:fc:c2:cc:
        3b:3e:25:a9:de:c8:6b:fd:5d:de:ca:fd:4c:b8:a3:99:e7:30:
        fc:d9:c4:90:81:1d:6d:89:2b:4b:22:5e:7b:9d:39:51:3b:2f:
        81:14:ea:8e:0a:3f:c2:bf:6d:ee:79:5d:45:7d:28:1e:39:6c:
        11:10:50:75
-----BEGIN CERTIFICATE-----
MIIDtTCCAp2gAwIBAgIUS/N4IXIY5MXzPzzp0gV6sUnSwS0wDQYJKoZIhvcNAQEL
BQAwgYIxCzAJBgNVBAYTAlVTMRAwDgYDVQQIDAdNb250YW5hMRAwDgYDVQQHDAdC
b3plbWFuMRQwEgYDVQQLDAtFbmdpbmVlcmluZzEYMBYGA1UEAwwPd3d3Lm5vbWF0
Y2guY29tMR8wHQYJKoZIhvcNAQkBFhBpbmZvQHdvbGZzc2wuY29tMB4XDTI1MTEx
MzIwNDEzMFoXDTI4MDgwOTIwNDEzMFowgYIxCzAJBgNVBAYTAlVTMRAwDgYDVQQI
DAdNb250YW5hMRAwDgYDVQQHDAdCb3plbWFuMRQwEgYDVQQLDAtFbmdpbmVlcmlu
ZzEYMBYGA1UEAwwPd3d3Lm5vbWF0Y2guY29tMR8wHQYJKoZIhvcNAQkBFhBpbmZv
QHdvbGZzc2wuY29tMIIBIjANBgkqhkiG9w0BAQEFAAOCAQ8AMIIBCgKCAQEAwJUI
4VdB8nFtt9JFQScBZcZFrvK8JDC4lc4vTtb2HIi8fJ/7qGd//lycUXX3isoH5zUv
j+G9e8AvfKtkqBf8yl17uuAh5XIuby6G2JVz2qwbU7lfP9cZDSVP4WNjUYsLZD+t
Q7ilHFw0s64AoGPF9n8LWWh4c6aMGKkCba/DGQEuuBDjxsxAtGmjRjNph27Euxem
8+jdrXO8ey8htf1mUQy9VLPhbV8cvCNz0QkDiRTSELlkwyrQoZZKvOHUGlvHoMDB
Y3gPRDcwMpaAMiOVoXe6E9KXc+JdJclqDcM5YKS0sGlCQgnp2Ai8MyCzWCKnquvE
4eZhg8XSlt/Z0E+t1wIDAQABoyEwHzAdBgNVHQ4EFgQUsxEyyZKYhOLJ+NA7bgNC
yh8OjjwwDQYJKoZIhvcNAQELBQADggEBABsJL5EQN0D036GX4a0V890f68z/u0pv
0YJ4XN2OyglTTQJesk6wlobbCLPymxYl4Mlt8qt2C9sOt8UktK1zUh4mt954drFK
sk/0AgPlewkTdzzCInqCkP4A9LHYHkKIGLy+3Eyc/lkEylOPwLucXMo8czP5ghNi
WKOhTqJaiuqYTAJfe1eXsYBu326uGomM/Sk2kwlqMgoIM+v3uHm1Bl2EVLn2xI9W
Hk9qXuqOrzsB9nis5lHmg/NolO0JBPqMyHXecvzCzDs+JaneyGv9Xd7K/Uy4o5nn
MPzZxJCBHW2JK0siXnudOVE7L4EU6o4KP8K/be55XUV9KB45bBEQUHU=
-----END CERTIFICATE-----
