Certificate:
    Data:
        Version: 3 (0x2)
        Serial Number:
            05:76:3e:49:7a:74:ff:a6:16:4b:39:45:5d:68:5a:f2:23:15:29:d2
        Signature Algorithm: sha256WithRSAEncryption
        Issuer: C=US, ST=Montana, L=Bozeman, OU=Engineering, CN=localhost, emailAddress=facts@wolfssl.com
        Validity
            Not Before: Jun 11 21:44:33 2026 GMT
            Not After : Mar  7 21:44:33 2029 GMT
        Subject: C=US, ST=Montana, L=Bozeman, OU=Engineering, CN=localhost, emailAddress=facts@wolfssl.com
        Subject Public Key Info:
            Public Key Algorithm: rsaEncryption
                Public-Key: (2048 bit)
                Modulus:
                    00:c0:95:08:e1:57:41:f2:71:6d:b7:d2:45:41:27:
                    01:65:c6:45:ae:f2:bc:24:30:b8:95:ce:2f:4e:d6:
                    f6:1c:88:bc:7c:9f:fb:a8:67:7f:fe:5c:9c:51:75:
                    f7:8a:ca:07:e7:35:2f:8f:e1:bd:7b:c0:2f:7c:ab:
                    64:a8:17:fc:ca:5d:7b:ba:e0:21:e5:72:2e:6f:2e:
                    86:d8:95:73:da:ac:1b:53:b9:5f:3f:d7:19:0d:25:
                    4f:e1:63:63:51:8b:0b:64:3f:ad:43:b8:a5:1c:5c:
                    34:b3:ae:00:a0:63:c5:f6:7f:0b:59:68:78:73:a6:
                    8c:18:a9:02:6d:af:c3:19:01:2e:b8:10:e3:c6:cc:
                    40:b4:69:a3:46:33:69:87:6e:c4:bb:17:a6:f3:e8:
                    dd:ad:73:bc:7b:2f:21:b5:fd:66:51:0c:bd:54:b3:
                    e1:6d:5f:1c:bc:23:73:d1:09:03:89:14:d2:10:b9:
                    64:c3:2a:d0:a1:96:4a:bc:e1:d4:1a:5b:c7:a0:c0:
                    c1:63:78:0f:44:37:30:32:96:80:32:23:95:a1:77:
                    ba:13:d2:97:73:e2:5d:25:c9:6a:0d:c3:39:60:a4:
                    b4:b0:69:42:42:09:e9:d8:08:bc:33:20:b3:58:22:
                    a7:aa:eb:c4:e1:e6:61:83:c5:d2:96:df:d9:d0:4f:
                    ad:d7
                Exponent: 65537 (0x10001)
        X509v3 extensions:
            X509v3 Subject Key Identifier: 
                B3:11:32:C9:92:98:84:E2:C9:F8:D0:3B:6E:03:42:CA:1F:0E:8E:3C
    Signature Algorithm: sha256WithRSAEncryption
    Signature Value:
        1f:25:90:25:de:77:a8:ec:da:b9:94:83:04:12:0b:9a:9a:df:
        61:30:5d:c5:0e:7f:23:fd:a7:3e:46:53:cf:e6:6d:f7:52:1e:
        1f:07:76:d3:9a:41:08:3e:93:ef:d6:96:44:35:21:96:d5:10:
        f9:b0:f6:ec:51:ea:16:9f:47:15:8d:d6:05:5d:12:be:73:84:
        42:e2:9b:bb:66:1e:a1:04:a9:a9:b7:71:5a:45:59:62:df:ed:
        db:5a:44:64:88:dd:98:90:80:30:36:77:3c:98:8a:4b:88:95:
        fb:3e:98:b5:d4:8a:1f:76:d9:d7:90:23:10:86:ce:90:26:d2:
        0f:18:ed:b2:11:48:35:99:f7:1f:49:52:66:dc:9e:d9:d8:e8:
        a3:06:9d:f7:b5:2a:bb:52:27:c4:04:53:56:79:19:0e:e2:40:
        bc:b2:a2:69:0c:f9:bc:9b:be:bd:52:e2:22:74:a4:32:19:e0:
        b2:88:d5:92:84:61:11:05:4c:3b:93:59:4d:f6:ae:3e:50:8f:
        83:bd:f4:27:c5:02:5b:67:a5:91:86:77:42:42:81:d3:c1:31:
        d7:8a:9f:8b:ba:47:9f:9e:c6:42:92:c9:7b:eb:68:81:bf:6e:
        4c:12:f7:e2:2b:01:b5:ae:98:c7:37:7c:66:a8:31:be:09:f4:
        c3:03:db:94
-----BEGIN CERTIFICATE-----
MIIDqTCCApGgAwIBAgIUBXY+SXp0/6YWSzlFXWha8iMVKdIwDQYJKoZIhvcNAQEL
BQAwfTELMAkGA1UEBhMCVVMxEDAOBgNVBAgMB01vbnRhbmExEDAOBgNVBAcMB0Jv
emVtYW4xFDASBgNVBAsMC0VuZ2luZWVyaW5nMRIwEAYDVQQDDAlsb2NhbGhvc3Qx
IDAeBgkqhkiG9w0BCQEWEWZhY3RzQHdvbGZzc2wuY29tMB4XDTI2MDYxMTIxNDQz
M1oXDTI5MDMwNzIxNDQzM1owfTELMAkGA1UEBhMCVVMxEDAOBgNVBAgMB01vbnRh
bmExEDAOBgNVBAcMB0JvemVtYW4xFDASBgNVBAsMC0VuZ2luZWVyaW5nMRIwEAYD
VQQDDAlsb2NhbGhvc3QxIDAeBgkqhkiG9w0BCQEWEWZhY3RzQHdvbGZzc2wuY29t
MIIBIjANBgkqhkiG9w0BAQEFAAOCAQ8AMIIBCgKCAQEAwJUI4VdB8nFtt9JFQScB
ZcZFrvK8JDC4lc4vTtb2HIi8fJ/7qGd//lycUXX3isoH5zUvj+G9e8AvfKtkqBf8
yl17uuAh5XIuby6G2JVz2qwbU7lfP9cZDSVP4WNjUYsLZD+tQ7ilHFw0s64AoGPF
9n8LWWh4c6aMGKkCba/DGQEuuBDjxsxAtGmjRjNph27Euxem8+jdrXO8ey8htf1m
UQy9VLPhbV8cvCNz0QkDiRTSELlkwyrQoZZKvOHUGlvHoMDBY3gPRDcwMpaAMiOV
oXe6E9KXc+JdJclqDcM5YKS0sGlCQgnp2Ai8MyCzWCKnquvE4eZhg8XSlt/Z0E+t
1wIDAQABoyEwHzAdBgNVHQ4EFgQUsxEyyZKYhOLJ+NA7bgNCyh8OjjwwDQYJKoZI
hvcNAQELBQADggEBAB8lkCXed6js2rmUgwQSC5qa32EwXcUOfyP9pz5GU8/mbfdS
Hh8HdtOaQQg+k+/WlkQ1IZbVEPmw9uxR6hafRxWN1gVdEr5zhELim7tmHqEEqam3
cVpFWWLf7dtaRGSI3ZiQgDA2dzyYikuIlfs+mLXUih922deQIxCGzpAm0g8Y7bIR
SDWZ9x9JUmbcntnY6KMGnfe1KrtSJ8QEU1Z5GQ7iQLyyomkM+bybvr1S4iJ0pDIZ
4LKI1ZKEYREFTDuTWU32rj5Qj4O99CfFAltnpZGGd0JCgdPBMdeKn4u6R5+exkKS
yXvraIG/bkwS9+IrAbWumMc3fGaoMb4J9MMD25Q=
-----END CERTIFICATE-----
