Certificate:
    Data:
        Version: 3 (0x2)
        Serial Number:
            76:31:fe:b4:f4:ed:14:f1:b8:24:69:74:77:72:59:ce:c1:61:05:a0
        Signature Algorithm: sha256WithRSAEncryption
        Issuer: C = US, ST = Montana, L = Bozeman, OU = Engineering, CN = www.nomatch.com, emailAddress = info@wolfssl.com
        Validity
            Not Before: Dec 13 22:19:29 2023 GMT
            Not After : Sep  8 22:19:29 2026 GMT
        Subject: C = US, ST = Montana, L = Bozeman, OU = Engineering, CN = www.nomatch.com, emailAddress = info@wolfssl.com
        Subject Public Key Info:
            Public Key Algorithm: rsaEncryption
                RSA Public-Key: (2048 bit)
                Modulus:
                    00:c0:95:08:e1:57:41:f2:71:6d:b7:d2:45:41:27:
                    01:65:c6:45:ae:f2:bc:24:30:b8:95:ce:2f:4e:d6:
                    f6:1c:88:bc:7c:9f:fb:a8:67:7f:fe:5c:9c:51:75:
                    f7:8a:ca:07:e7:35:2f:8f:e1:bd:7b:c0:2f:7c:ab:
                    64:a8:17:fc:ca:5d:7b:ba:e0:21:e5:72:2e:6f:2e:
                    86:d8:95:73:da:ac:1b:53:b9:5f:3f:d7:19:0d:25:
                    4f:e1:63:63:51:8b:0b:64:3f:ad:43:b8:a5:1c:5c:
                    34:b3:ae:00:a0:63:c5:f6:7f:0b:59:68:78:73:a6:
                    8c:18:a9:02:6d:af:c3:19:01:2e:b8:10:e3:c6:cc:
                    40:b4:69:a3:46:33:69:87:6e:c4:bb:17:a6:f3:e8:
                    dd:ad:73:bc:7b:2f:21:b5:fd:66:51:0c:bd:54:b3:
                    e1:6d:5f:1c:bc:23:73:d1:09:03:89:14:d2:10:b9:
                    64:c3:2a:d0:a1:96:4a:bc:e1:d4:1a:5b:c7:a0:c0:
                    c1:63:78:0f:44:37:30:32:96:80:32:23:95:a1:77:
                    ba:13:d2:97:73:e2:5d:25:c9:6a:0d:c3:39:60:a4:
                    b4:b0:69:42:42:09:e9:d8:08:bc:33:20:b3:58:22:
                    a7:aa:eb:c4:e1:e6:61:83:c5:d2:96:df:d9:d0:4f:
                    ad:d7
                Exponent: 65537 (0x10001)
        X509v3 extensions:
            X509v3 Subject Alternative Name: 
                DNS:www.nomatch.com
    Signature Algorithm: sha256WithRSAEncryption
         3c:65:49:0e:32:4f:66:4b:ab:7d:a1:10:d4:ac:1f:8f:ed:70:
         a5:62:eb:83:90:26:30:9a:2b:3e:fd:6c:d0:5d:ae:ac:3f:96:
         89:76:31:8a:72:ab:c7:f7:25:a4:f5:d5:87:47:ec:71:d8:04:
         a1:32:56:a0:b1:60:11:e8:11:3e:97:87:1f:d8:39:03:e1:22:
         91:01:bd:ec:38:f3:26:d9:d0:0a:67:99:c2:c4:06:89:5a:45:
         d9:cb:49:ba:df:ee:f3:a9:11:0b:7b:89:7d:e4:e1:78:c7:60:
         ed:d6:66:4e:54:9a:9b:07:f8:f8:cb:86:bd:1a:5a:56:ae:9e:
         89:74:01:d0:a8:47:c5:be:22:b1:a1:0c:d1:5e:cb:0a:df:46:
         8f:f6:ed:2c:a0:fa:24:41:92:f5:eb:28:e6:5e:a1:04:c2:b2:
         51:f0:55:78:fc:e0:52:e7:ac:dd:ff:59:f0:36:d7:d0:c3:b7:
         0e:b4:d9:8d:cb:df:23:28:aa:df:bd:07:e9:65:24:76:10:28:
         09:43:7a:be:20:2d:e3:3c:0d:4a:18:e0:b4:15:c9:be:d7:bf:
         b5:46:ae:92:94:c2:b6:c1:b4:26:9d:0a:ef:17:0e:dd:c4:25:
         44:78:a8:e2:08:b9:65:3d:05:de:54:17:c9:74:71:f9:c8:bb:
         66:4e:c9:85
-----BEGIN CERTIFICATE-----
MIIDsjCCApqgAwIBAgIUdjH+tPTtFPG4JGl0d3JZzsFhBaAwDQYJKoZIhvcNAQEL
BQAwgYIxCzAJBgNVBAYTAlVTMRAwDgYDVQQIDAdNb250YW5hMRAwDgYDVQQHDAdC
b3plbWFuMRQwEgYDVQQLDAtFbmdpbmVlcmluZzEYMBYGA1UEAwwPd3d3Lm5vbWF0
Y2guY29tMR8wHQYJKoZIhvcNAQkBFhBpbmZvQHdvbGZzc2wuY29tMB4XDTIzMTIx
MzIyMTkyOVoXDTI2MDkwODIyMTkyOVowgYIxCzAJBgNVBAYTAlVTMRAwDgYDVQQI
DAdNb250YW5hMRAwDgYDVQQHDAdCb3plbWFuMRQwEgYDVQQLDAtFbmdpbmVlcmlu
ZzEYMBYGA1UEAwwPd3d3Lm5vbWF0Y2guY29tMR8wHQYJKoZIhvcNAQkBFhBpbmZv
QHdvbGZzc2wuY29tMIIBIjANBgkqhkiG9w0BAQEFAAOCAQ8AMIIBCgKCAQEAwJUI
4VdB8nFtt9JFQScBZcZFrvK8JDC4lc4vTtb2HIi8fJ/7qGd//lycUXX3isoH5zUv
j+G9e8AvfKtkqBf8yl17uuAh5XIuby6G2JVz2qwbU7lfP9cZDSVP4WNjUYsLZD+t
Q7ilHFw0s64AoGPF9n8LWWh4c6aMGKkCba/DGQEuuBDjxsxAtGmjRjNph27Euxem
8+jdrXO8ey8htf1mUQy9VLPhbV8cvCNz0QkDiRTSELlkwyrQoZZKvOHUGlvHoMDB
Y3gPRDcwMpaAMiOVoXe6E9KXc+JdJclqDcM5YKS0sGlCQgnp2Ai8MyCzWCKnquvE
4eZhg8XSlt/Z0E+t1wIDAQABox4wHDAaBgNVHREEEzARgg93d3cubm9tYXRjaC5j
b20wDQYJKoZIhvcNAQELBQADggEBADxlSQ4yT2ZLq32hENSsH4/tcKVi64OQJjCa
Kz79bNBdrqw/lol2MYpyq8f3JaT11YdH7HHYBKEyVqCxYBHoET6Xhx/YOQPhIpEB
vew48ybZ0ApnmcLEBolaRdnLSbrf7vOpEQt7iX3k4XjHYO3WZk5UmpsH+PjLhr0a
Wlaunol0AdCoR8W+IrGhDNFeywrfRo/27Syg+iRBkvXrKOZeoQTCslHwVXj84FLn
rN3/WfA219DDtw602Y3L3yMoqt+9B+llJHYQKAlDer4gLeM8DUoY4LQVyb7Xv7VG
rpKUwrbBtCadCu8XDt3EJUR4qOIIuWU9Bd5UF8l0cfnIu2ZOyYU=
-----END CERTIFICATE-----
