Certificate:
    Data:
        Version: 3 (0x2)
        Serial Number:
            29:58:d0:14:fc:30:87:e9:92:88:93:69:43:1d:3d:3e:d1:c4:4f:09
        Signature Algorithm: sha256WithRSAEncryption
        Issuer: C = US, ST = Montana, L = Bozeman, OU = Engineering, CN = www.nomatch.com, emailAddress = info@wolfssl.com
        Validity
            Not Before: Dec 18 23:11:23 2024 GMT
            Not After : Sep 14 23:11:23 2027 GMT
        Subject: C = US, ST = Montana, L = Bozeman, OU = Engineering, CN = www.nomatch.com, emailAddress = info@wolfssl.com
        Subject Public Key Info:
            Public Key Algorithm: rsaEncryption
                Public-Key: (2048 bit)
                Modulus:
                    00:c0:95:08:e1:57:41:f2:71:6d:b7:d2:45:41:27:
                    01:65:c6:45:ae:f2:bc:24:30:b8:95:ce:2f:4e:d6:
                    f6:1c:88:bc:7c:9f:fb:a8:67:7f:fe:5c:9c:51:75:
                    f7:8a:ca:07:e7:35:2f:8f:e1:bd:7b:c0:2f:7c:ab:
                    64:a8:17:fc:ca:5d:7b:ba:e0:21:e5:72:2e:6f:2e:
                    86:d8:95:73:da:ac:1b:53:b9:5f:3f:d7:19:0d:25:
                    4f:e1:63:63:51:8b:0b:64:3f:ad:43:b8:a5:1c:5c:
                    34:b3:ae:00:a0:63:c5:f6:7f:0b:59:68:78:73:a6:
                    8c:18:a9:02:6d:af:c3:19:01:2e:b8:10:e3:c6:cc:
                    40:b4:69:a3:46:33:69:87:6e:c4:bb:17:a6:f3:e8:
                    dd:ad:73:bc:7b:2f:21:b5:fd:66:51:0c:bd:54:b3:
                    e1:6d:5f:1c:bc:23:73:d1:09:03:89:14:d2:10:b9:
                    64:c3:2a:d0:a1:96:4a:bc:e1:d4:1a:5b:c7:a0:c0:
                    c1:63:78:0f:44:37:30:32:96:80:32:23:95:a1:77:
                    ba:13:d2:97:73:e2:5d:25:c9:6a:0d:c3:39:60:a4:
                    b4:b0:69:42:42:09:e9:d8:08:bc:33:20:b3:58:22:
                    a7:aa:eb:c4:e1:e6:61:83:c5:d2:96:df:d9:d0:4f:
                    ad:d7
                Exponent: 65537 (0x10001)
        X509v3 extensions:
            X509v3 Subject Alternative Name: 
                DNS:localhost
            X509v3 Subject Key Identifier: 
                B3:11:32:C9:92:98:84:E2:C9:F8:D0:3B:6E:03:42:CA:1F:0E:8E:3C
    Signature Algorithm: sha256WithRSAEncryption
    Signature Value:
        3a:11:87:c4:39:d0:6b:90:68:03:07:14:9a:dd:4c:ec:2d:01:
        d6:95:86:f9:75:43:66:9c:49:db:b9:a9:c0:79:fd:da:0d:d7:
        fd:1e:a9:04:88:d8:b3:c3:45:c5:2b:1a:9f:e2:89:af:77:44:
        ae:6e:e8:b4:1d:70:f6:16:f6:cf:fa:47:f5:b8:38:d2:60:b3:
        e6:7f:62:27:cf:0b:ff:16:f2:27:7b:1d:d1:56:e3:f2:1f:21:
        35:58:49:3a:a8:3b:d8:e6:db:39:e2:52:d5:39:1e:f2:31:23:
        da:fe:34:af:98:fe:d5:2e:d6:a6:0a:4d:cc:48:60:bd:a0:1e:
        c9:13:08:f6:0f:f5:fc:9d:00:09:e0:64:a8:af:1b:8f:0c:3f:
        b5:17:be:68:47:65:81:8e:68:a6:ac:f8:ea:fa:bd:01:e2:f7:
        54:d3:00:7e:a1:3b:ee:cb:d4:3f:42:8f:ef:85:a8:46:92:15:
        da:0d:02:54:fa:c4:86:ef:80:be:29:d1:d5:a2:43:f8:79:a9:
        53:f2:01:74:f6:31:80:85:61:a1:2c:98:da:7b:d5:3f:42:53:
        55:d5:fd:c7:be:8f:57:78:db:dc:8b:e6:78:92:40:e9:33:53:
        bc:3d:e7:4f:64:ec:32:c0:bf:12:d6:34:e3:94:1f:a7:6b:b2:
        52:5b:56:27
-----BEGIN CERTIFICATE-----
MIIDyzCCArOgAwIBAgIUKVjQFPwwh+mSiJNpQx09PtHETwkwDQYJKoZIhvcNAQEL
BQAwgYIxCzAJBgNVBAYTAlVTMRAwDgYDVQQIDAdNb250YW5hMRAwDgYDVQQHDAdC
b3plbWFuMRQwEgYDVQQLDAtFbmdpbmVlcmluZzEYMBYGA1UEAwwPd3d3Lm5vbWF0
Y2guY29tMR8wHQYJKoZIhvcNAQkBFhBpbmZvQHdvbGZzc2wuY29tMB4XDTI0MTIx
ODIzMTEyM1oXDTI3MDkxNDIzMTEyM1owgYIxCzAJBgNVBAYTAlVTMRAwDgYDVQQI
DAdNb250YW5hMRAwDgYDVQQHDAdCb3plbWFuMRQwEgYDVQQLDAtFbmdpbmVlcmlu
ZzEYMBYGA1UEAwwPd3d3Lm5vbWF0Y2guY29tMR8wHQYJKoZIhvcNAQkBFhBpbmZv
QHdvbGZzc2wuY29tMIIBIjANBgkqhkiG9w0BAQEFAAOCAQ8AMIIBCgKCAQEAwJUI
4VdB8nFtt9JFQScBZcZFrvK8JDC4lc4vTtb2HIi8fJ/7qGd//lycUXX3isoH5zUv
j+G9e8AvfKtkqBf8yl17uuAh5XIuby6G2JVz2qwbU7lfP9cZDSVP4WNjUYsLZD+t
Q7ilHFw0s64AoGPF9n8LWWh4c6aMGKkCba/DGQEuuBDjxsxAtGmjRjNph27Euxem
8+jdrXO8ey8htf1mUQy9VLPhbV8cvCNz0QkDiRTSELlkwyrQoZZKvOHUGlvHoMDB
Y3gPRDcwMpaAMiOVoXe6E9KXc+JdJclqDcM5YKS0sGlCQgnp2Ai8MyCzWCKnquvE
4eZhg8XSlt/Z0E+t1wIDAQABozcwNTAUBgNVHREEDTALgglsb2NhbGhvc3QwHQYD
VR0OBBYEFLMRMsmSmITiyfjQO24DQsofDo48MA0GCSqGSIb3DQEBCwUAA4IBAQA6
EYfEOdBrkGgDBxSa3UzsLQHWlYb5dUNmnEnbuanAef3aDdf9HqkEiNizw0XFKxqf
4omvd0Subui0HXD2FvbP+kf1uDjSYLPmf2Inzwv/FvInex3RVuPyHyE1WEk6qDvY
5ts54lLVOR7yMSPa/jSvmP7VLtamCk3MSGC9oB7JEwj2D/X8nQAJ4GSorxuPDD+1
F75oR2WBjmimrPjq+r0B4vdU0wB+oTvuy9Q/Qo/vhahGkhXaDQJU+sSG74C+KdHV
okP4ealT8gF09jGAhWGhLJjae9U/QlNV1f3Hvo9XeNvci+Z4kkDpM1O8PedPZOwy
wL8S1jTjlB+na7JSW1Yn
-----END CERTIFICATE-----
