Certificate:
    Data:
        Version: 3 (0x2)
        Serial Number: 2 (0x2)
        Signature Algorithm: sha256WithRSAEncryption
        Issuer: C = US, ST = Montana, L = Bozeman, O = Sawtooth, OU = Consulting, CN = www.wolfssl.com, emailAddress = info@wolfssl.com
        Validity
            Not Before: Dec 18 21:25:30 2024 GMT
            Not After : Sep 14 21:25:30 2027 GMT
        Subject: C = US, ST = Montana, L = Bozeman, O = wolfSSL, OU = testing duplicate policy, CN = www.wolfssl.com, emailAddress = info@wolfssl.com
        Subject Public Key Info:
            Public Key Algorithm: rsaEncryption
                Public-Key: (2048 bit)
                Modulus:
                    00:c0:95:08:e1:57:41:f2:71:6d:b7:d2:45:41:27:
                    01:65:c6:45:ae:f2:bc:24:30:b8:95:ce:2f:4e:d6:
                    f6:1c:88:bc:7c:9f:fb:a8:67:7f:fe:5c:9c:51:75:
                    f7:8a:ca:07:e7:35:2f:8f:e1:bd:7b:c0:2f:7c:ab:
                    64:a8:17:fc:ca:5d:7b:ba:e0:21:e5:72:2e:6f:2e:
                    86:d8:95:73:da:ac:1b:53:b9:5f:3f:d7:19:0d:25:
                    4f:e1:63:63:51:8b:0b:64:3f:ad:43:b8:a5:1c:5c:
                    34:b3:ae:00:a0:63:c5:f6:7f:0b:59:68:78:73:a6:
                    8c:18:a9:02:6d:af:c3:19:01:2e:b8:10:e3:c6:cc:
                    40:b4:69:a3:46:33:69:87:6e:c4:bb:17:a6:f3:e8:
                    dd:ad:73:bc:7b:2f:21:b5:fd:66:51:0c:bd:54:b3:
                    e1:6d:5f:1c:bc:23:73:d1:09:03:89:14:d2:10:b9:
                    64:c3:2a:d0:a1:96:4a:bc:e1:d4:1a:5b:c7:a0:c0:
                    c1:63:78:0f:44:37:30:32:96:80:32:23:95:a1:77:
                    ba:13:d2:97:73:e2:5d:25:c9:6a:0d:c3:39:60:a4:
                    b4:b0:69:42:42:09:e9:d8:08:bc:33:20:b3:58:22:
                    a7:aa:eb:c4:e1:e6:61:83:c5:d2:96:df:d9:d0:4f:
                    ad:d7
                Exponent: 65537 (0x10001)
        X509v3 extensions:
            X509v3 Subject Key Identifier: 
                B3:11:32:C9:92:98:84:E2:C9:F8:D0:3B:6E:03:42:CA:1F:0E:8E:3C
            X509v3 Authority Key Identifier: 
                keyid:27:8E:67:11:74:C3:26:1D:3F:ED:33:63:B3:A4:D8:1D:30:E5:E8:D5
                DirName:/C=US/ST=Montana/L=Bozeman/O=Sawtooth/OU=Consulting/CN=www.wolfssl.com/emailAddress=info@wolfssl.com
                serial:6B:9B:70:C6:F1:A3:94:65:19:A1:08:58:EF:A7:8D:2B:7A:83:C1:DA
            X509v3 Basic Constraints: 
                CA:FALSE
            X509v3 Certificate Policies: 
                Policy: 1.2.3.4
                Policy: 1.2.3.4
                  CPS: www.wolfssl.com
                  User Notice:
                    Explicit Text: Test of duplicate OIDs with different qualifiers
    Signature Algorithm: sha256WithRSAEncryption
    Signature Value:
        57:df:4f:80:68:25:ae:e1:7e:dd:de:db:f9:73:17:bb:20:c7:
        b9:32:fa:c6:3e:23:f7:36:e7:26:ac:8c:a3:f5:b4:09:1f:4d:
        4e:fd:57:8b:4b:bb:4c:3f:87:4b:67:48:6b:1e:fa:45:a6:51:
        c4:38:86:70:34:30:97:4f:93:79:a3:6c:3a:00:62:1b:65:8c:
        38:1a:11:5b:e1:52:bb:20:df:4f:ba:e9:a9:2a:fe:96:44:09:
        32:ae:50:7a:ef:eb:d3:cb:8a:31:39:da:db:42:82:96:56:a2:
        37:ec:ac:92:a8:9d:f8:2a:11:cc:be:55:f8:f0:0c:ff:2d:3b:
        da:4f:3d:50:01:17:b8:79:ac:95:f7:31:7b:74:de:df:e1:68:
        08:f4:3d:5b:7c:c2:fe:87:b6:81:35:79:3b:ed:14:be:07:04:
        70:b7:46:7f:de:a5:4f:3c:37:f8:40:85:9a:46:b7:8e:62:78:
        74:81:69:ce:d7:1b:d1:e8:c1:2e:8a:f2:cf:4d:56:ff:4c:ec:
        b9:05:da:fb:a1:f7:58:18:b0:29:6e:9c:15:03:e7:8c:e5:37:
        59:52:4c:d3:c6:be:68:62:87:09:ca:25:3d:e3:a4:e2:bf:d0:
        85:de:de:d0:b5:04:48:91:05:75:c3:d9:64:e0:69:70:d7:ed:
        79:6a:3d:7f
-----BEGIN CERTIFICATE-----
MIIFMTCCBBmgAwIBAgIBAjANBgkqhkiG9w0BAQsFADCBlDELMAkGA1UEBhMCVVMx
EDAOBgNVBAgMB01vbnRhbmExEDAOBgNVBAcMB0JvemVtYW4xETAPBgNVBAoMCFNh
d3Rvb3RoMRMwEQYDVQQLDApDb25zdWx0aW5nMRgwFgYDVQQDDA93d3cud29sZnNz
bC5jb20xHzAdBgkqhkiG9w0BCQEWEGluZm9Ad29sZnNzbC5jb20wHhcNMjQxMjE4
MjEyNTMwWhcNMjcwOTE0MjEyNTMwWjCBoTELMAkGA1UEBhMCVVMxEDAOBgNVBAgM
B01vbnRhbmExEDAOBgNVBAcMB0JvemVtYW4xEDAOBgNVBAoMB3dvbGZTU0wxITAf
BgNVBAsMGHRlc3RpbmcgZHVwbGljYXRlIHBvbGljeTEYMBYGA1UEAwwPd3d3Lndv
bGZzc2wuY29tMR8wHQYJKoZIhvcNAQkBFhBpbmZvQHdvbGZzc2wuY29tMIIBIjAN
BgkqhkiG9w0BAQEFAAOCAQ8AMIIBCgKCAQEAwJUI4VdB8nFtt9JFQScBZcZFrvK8
JDC4lc4vTtb2HIi8fJ/7qGd//lycUXX3isoH5zUvj+G9e8AvfKtkqBf8yl17uuAh
5XIuby6G2JVz2qwbU7lfP9cZDSVP4WNjUYsLZD+tQ7ilHFw0s64AoGPF9n8LWWh4
c6aMGKkCba/DGQEuuBDjxsxAtGmjRjNph27Euxem8+jdrXO8ey8htf1mUQy9VLPh
bV8cvCNz0QkDiRTSELlkwyrQoZZKvOHUGlvHoMDBY3gPRDcwMpaAMiOVoXe6E9KX
c+JdJclqDcM5YKS0sGlCQgnp2Ai8MyCzWCKnquvE4eZhg8XSlt/Z0E+t1wIDAQAB
o4IBfTCCAXkwHQYDVR0OBBYEFLMRMsmSmITiyfjQO24DQsofDo48MIHUBgNVHSME
gcwwgcmAFCeOZxF0wyYdP+0zY7Ok2B0w5ejVoYGapIGXMIGUMQswCQYDVQQGEwJV
UzEQMA4GA1UECAwHTW9udGFuYTEQMA4GA1UEBwwHQm96ZW1hbjERMA8GA1UECgwI
U2F3dG9vdGgxEzARBgNVBAsMCkNvbnN1bHRpbmcxGDAWBgNVBAMMD3d3dy53b2xm
c3NsLmNvbTEfMB0GCSqGSIb3DQEJARYQaW5mb0B3b2xmc3NsLmNvbYIUa5twxvGj
lGUZoQhY76eNK3qDwdowCQYDVR0TBAIwADB2BgNVHSAEbzBtMAUGAyoDBDBkBgMq
AwQwXTAbBggrBgEFBQcCARYPd3d3LndvbGZzc2wuY29tMD4GCCsGAQUFBwICMDIa
MFRlc3Qgb2YgZHVwbGljYXRlIE9JRHMgd2l0aCBkaWZmZXJlbnQgcXVhbGlmaWVy
czANBgkqhkiG9w0BAQsFAAOCAQEAV99PgGglruF+3d7b+XMXuyDHuTL6xj4j9zbn
JqyMo/W0CR9NTv1Xi0u7TD+HS2dIax76RaZRxDiGcDQwl0+TeaNsOgBiG2WMOBoR
W+FSuyDfT7rpqSr+lkQJMq5Qeu/r08uKMTna20KCllaiN+yskqid+CoRzL5V+PAM
/y072k89UAEXuHmslfcxe3Te3+FoCPQ9W3zC/oe2gTV5O+0UvgcEcLdGf96lTzw3
+ECFmka3jmJ4dIFpztcb0ejBLoryz01W/0zsuQXa+6H3WBiwKW6cFQPnjOU3WVJM
08a+aGKHCcolPeOk4r/Qhd7e0LUESJEFdcPZZOBpcNfteWo9fw==
-----END CERTIFICATE-----
Certificate:
    Data:
        Version: 3 (0x2)
        Serial Number:
            6b:9b:70:c6:f1:a3:94:65:19:a1:08:58:ef:a7:8d:2b:7a:83:c1:da
        Signature Algorithm: sha256WithRSAEncryption
        Issuer: C = US, ST = Montana, L = Bozeman, O = Sawtooth, OU = Consulting, CN = www.wolfssl.com, emailAddress = info@wolfssl.com
        Validity
            Not Before: Dec 18 21:25:29 2024 GMT
            Not After : Sep 14 21:25:29 2027 GMT
        Subject: C = US, ST = Montana, L = Bozeman, O = Sawtooth, OU = Consulting, CN = www.wolfssl.com, emailAddress = info@wolfssl.com
        Subject Public Key Info:
            Public Key Algorithm: rsaEncryption
                Public-Key: (2048 bit)
                Modulus:
                    00:bf:0c:ca:2d:14:b2:1e:84:42:5b:cd:38:1f:4a:
                    f2:4d:75:10:f1:b6:35:9f:df:ca:7d:03:98:d3:ac:
                    de:03:66:ee:2a:f1:d8:b0:7d:6e:07:54:0b:10:98:
                    21:4d:80:cb:12:20:e7:cc:4f:de:45:7d:c9:72:77:
                    32:ea:ca:90:bb:69:52:10:03:2f:a8:f3:95:c5:f1:
                    8b:62:56:1b:ef:67:6f:a4:10:41:95:ad:0a:9b:e3:
                    a5:c0:b0:d2:70:76:50:30:5b:a8:e8:08:2c:7c:ed:
                    a7:a2:7a:8d:38:29:1c:ac:c7:ed:f2:7c:95:b0:95:
                    82:7d:49:5c:38:cd:77:25:ef:bd:80:75:53:94:3c:
                    3d:ca:63:5b:9f:15:b5:d3:1d:13:2f:19:d1:3c:db:
                    76:3a:cc:b8:7d:c9:e5:c2:d7:da:40:6f:d8:21:dc:
                    73:1b:42:2d:53:9c:fe:1a:fc:7d:ab:7a:36:3f:98:
                    de:84:7c:05:67:ce:6a:14:38:87:a9:f1:8c:b5:68:
                    cb:68:7f:71:20:2b:f5:a0:63:f5:56:2f:a3:26:d2:
                    b7:6f:b1:5a:17:d7:38:99:08:fe:93:58:6f:fe:c3:
                    13:49:08:16:0b:a7:4d:67:00:52:31:67:23:4e:98:
                    ed:51:45:1d:b9:04:d9:0b:ec:d8:28:b3:4b:bd:ed:
                    36:79
                Exponent: 65537 (0x10001)
        X509v3 extensions:
            X509v3 Subject Key Identifier: 
                27:8E:67:11:74:C3:26:1D:3F:ED:33:63:B3:A4:D8:1D:30:E5:E8:D5
            X509v3 Authority Key Identifier: 
                keyid:27:8E:67:11:74:C3:26:1D:3F:ED:33:63:B3:A4:D8:1D:30:E5:E8:D5
                DirName:/C=US/ST=Montana/L=Bozeman/O=Sawtooth/OU=Consulting/CN=www.wolfssl.com/emailAddress=info@wolfssl.com
                serial:6B:9B:70:C6:F1:A3:94:65:19:A1:08:58:EF:A7:8D:2B:7A:83:C1:DA
            X509v3 Basic Constraints: 
                CA:TRUE
            X509v3 Subject Alternative Name: 
                DNS:example.com, IP Address:127.0.0.1
            X509v3 Extended Key Usage: 
                TLS Web Server Authentication, TLS Web Client Authentication
    Signature Algorithm: sha256WithRSAEncryption
    Signature Value:
        77:3b:3d:66:74:bc:97:fe:40:16:e6:ba:a5:d5:d1:84:08:89:
        69:4f:88:0d:57:a9:ef:8c:c3:97:52:c8:bd:8b:a2:49:3b:b7:
        f7:5d:1e:d6:14:7f:b2:80:33:da:a0:8a:d3:e1:2f:d5:bc:33:
        9f:ea:5a:72:24:e5:f8:b8:4b:b3:df:62:90:3b:a8:21:ef:27:
        42:75:bc:60:02:8e:37:35:99:eb:a3:28:f2:65:4c:ff:7a:f8:
        8e:cc:23:6d:e5:6a:fe:22:5a:d9:b2:4f:47:c7:e0:ae:98:ef:
        94:ac:b6:4f:61:81:29:8e:e1:79:2c:46:fc:e9:1a:c3:96:1f:
        19:93:64:2e:9f:37:72:c5:e4:93:4e:61:5f:38:8e:ae:e8:39:
        19:e6:97:a8:91:d4:23:7e:1e:d2:d0:53:ec:cc:ac:a0:1d:d0:
        b7:dd:b1:b7:01:2e:96:cd:85:27:e0:e7:47:e2:c1:c1:00:f6:
        94:df:77:e7:fa:c6:ef:8a:c0:7c:67:bc:ff:a0:7c:94:3b:7d:
        86:42:af:3d:83:31:ee:2a:3b:7b:f0:2c:9e:6f:e9:c4:07:81:
        24:da:05:70:4d:dd:09:ae:9e:72:b8:21:0e:8c:b2:ab:aa:4c:
        49:10:f7:76:f9:b5:0d:6c:20:d3:df:7a:06:32:8d:29:1f:28:
        1d:8d:26:33
-----BEGIN CERTIFICATE-----
MIIE/zCCA+egAwIBAgIUa5twxvGjlGUZoQhY76eNK3qDwdowDQYJKoZIhvcNAQEL
BQAwgZQxCzAJBgNVBAYTAlVTMRAwDgYDVQQIDAdNb250YW5hMRAwDgYDVQQHDAdC
b3plbWFuMREwDwYDVQQKDAhTYXd0b290aDETMBEGA1UECwwKQ29uc3VsdGluZzEY
MBYGA1UEAwwPd3d3LndvbGZzc2wuY29tMR8wHQYJKoZIhvcNAQkBFhBpbmZvQHdv
bGZzc2wuY29tMB4XDTI0MTIxODIxMjUyOVoXDTI3MDkxNDIxMjUyOVowgZQxCzAJ
BgNVBAYTAlVTMRAwDgYDVQQIDAdNb250YW5hMRAwDgYDVQQHDAdCb3plbWFuMREw
DwYDVQQKDAhTYXd0b290aDETMBEGA1UECwwKQ29uc3VsdGluZzEYMBYGA1UEAwwP
d3d3LndvbGZzc2wuY29tMR8wHQYJKoZIhvcNAQkBFhBpbmZvQHdvbGZzc2wuY29t
MIIBIjANBgkqhkiG9w0BAQEFAAOCAQ8AMIIBCgKCAQEAvwzKLRSyHoRCW804H0ry
TXUQ8bY1n9/KfQOY06zeA2buKvHYsH1uB1QLEJghTYDLEiDnzE/eRX3Jcncy6sqQ
u2lSEAMvqPOVxfGLYlYb72dvpBBBla0Km+OlwLDScHZQMFuo6AgsfO2nonqNOCkc
rMft8nyVsJWCfUlcOM13Je+9gHVTlDw9ymNbnxW10x0TLxnRPNt2Osy4fcnlwtfa
QG/YIdxzG0ItU5z+Gvx9q3o2P5jehHwFZ85qFDiHqfGMtWjLaH9xICv1oGP1Vi+j
JtK3b7FaF9c4mQj+k1hv/sMTSQgWC6dNZwBSMWcjTpjtUUUduQTZC+zYKLNLve02
eQIDAQABo4IBRTCCAUEwHQYDVR0OBBYEFCeOZxF0wyYdP+0zY7Ok2B0w5ejVMIHU
BgNVHSMEgcwwgcmAFCeOZxF0wyYdP+0zY7Ok2B0w5ejVoYGapIGXMIGUMQswCQYD
VQQGEwJVUzEQMA4GA1UECAwHTW9udGFuYTEQMA4GA1UEBwwHQm96ZW1hbjERMA8G
A1UECgwIU2F3dG9vdGgxEzARBgNVBAsMCkNvbnN1bHRpbmcxGDAWBgNVBAMMD3d3
dy53b2xmc3NsLmNvbTEfMB0GCSqGSIb3DQEJARYQaW5mb0B3b2xmc3NsLmNvbYIU
a5twxvGjlGUZoQhY76eNK3qDwdowDAYDVR0TBAUwAwEB/zAcBgNVHREEFTATggtl
eGFtcGxlLmNvbYcEfwAAATAdBgNVHSUEFjAUBggrBgEFBQcDAQYIKwYBBQUHAwIw
DQYJKoZIhvcNAQELBQADggEBAHc7PWZ0vJf+QBbmuqXV0YQIiWlPiA1Xqe+Mw5dS
yL2Lokk7t/ddHtYUf7KAM9qgitPhL9W8M5/qWnIk5fi4S7PfYpA7qCHvJ0J1vGAC
jjc1meujKPJlTP96+I7MI23lav4iWtmyT0fH4K6Y75Sstk9hgSmO4XksRvzpGsOW
HxmTZC6fN3LF5JNOYV84jq7oORnml6iR1CN+HtLQU+zMrKAd0LfdsbcBLpbNhSfg
50fiwcEA9pTfd+f6xu+KwHxnvP+gfJQ7fYZCrz2DMe4qO3vwLJ5v6cQHgSTaBXBN
3QmunnK4IQ6MsquqTEkQ93b5tQ1sINPfegYyjSkfKB2NJjM=
-----END CERTIFICATE-----
