Certificate:
    Data:
        Version: 3 (0x2)
        Serial Number: 10048089567140838698 (0x8b71fc3968bcfd2a)
    Signature Algorithm: sha1WithRSAEncryption
        Issuer: C=US, ST=Montana, L=Bozeman, OU=Engineering, CN=www.nomatch.com/emailAddress=info@wolfssl.com
        Validity
            Not Before: Jun 12 21:08:33 2018 GMT
            Not After : Mar  8 21:08:33 2021 GMT
        Subject: C=US, ST=Montana, L=Bozeman, OU=Engineering, CN=www.nomatch.com/emailAddress=info@wolfssl.com
        Subject Public Key Info:
            Public Key Algorithm: rsaEncryption
                Public-Key: (2048 bit)
                Modulus:
                    00:c0:95:08:e1:57:41:f2:71:6d:b7:d2:45:41:27:
                    01:65:c6:45:ae:f2:bc:24:30:b8:95:ce:2f:4e:d6:
                    f6:1c:88:bc:7c:9f:fb:a8:67:7f:fe:5c:9c:51:75:
                    f7:8a:ca:07:e7:35:2f:8f:e1:bd:7b:c0:2f:7c:ab:
                    64:a8:17:fc:ca:5d:7b:ba:e0:21:e5:72:2e:6f:2e:
                    86:d8:95:73:da:ac:1b:53:b9:5f:3f:d7:19:0d:25:
                    4f:e1:63:63:51:8b:0b:64:3f:ad:43:b8:a5:1c:5c:
                    34:b3:ae:00:a0:63:c5:f6:7f:0b:59:68:78:73:a6:
                    8c:18:a9:02:6d:af:c3:19:01:2e:b8:10:e3:c6:cc:
                    40:b4:69:a3:46:33:69:87:6e:c4:bb:17:a6:f3:e8:
                    dd:ad:73:bc:7b:2f:21:b5:fd:66:51:0c:bd:54:b3:
                    e1:6d:5f:1c:bc:23:73:d1:09:03:89:14:d2:10:b9:
                    64:c3:2a:d0:a1:96:4a:bc:e1:d4:1a:5b:c7:a0:c0:
                    c1:63:78:0f:44:37:30:32:96:80:32:23:95:a1:77:
                    ba:13:d2:97:73:e2:5d:25:c9:6a:0d:c3:39:60:a4:
                    b4:b0:69:42:42:09:e9:d8:08:bc:33:20:b3:58:22:
                    a7:aa:eb:c4:e1:e6:61:83:c5:d2:96:df:d9:d0:4f:
                    ad:d7
                Exponent: 65537 (0x10001)
    Signature Algorithm: sha1WithRSAEncryption
         21:99:a9:30:5e:1d:61:ba:64:88:4e:a1:15:6d:ea:8b:57:ef:
         40:5e:f7:99:64:12:f8:03:dc:4f:cf:d4:fa:8b:34:62:ad:f1:
         d4:6e:94:45:80:b0:4c:cb:a0:12:cc:a1:b5:b7:85:d5:21:c4:
         20:5b:f3:f6:10:c5:46:21:e9:5a:ce:1e:bc:e1:47:a4:0f:8d:
         7f:92:92:af:4a:ea:cb:01:53:9e:f1:07:53:14:22:2b:b1:db:
         47:1f:59:15:87:a0:fd:33:23:03:e7:79:10:7c:90:a1:63:0d:
         06:41:cc:4a:8d:34:4e:ea:fb:ea:4f:c8:85:44:0d:92:29:15:
         85:de:cf:53:85:4b:29:3b:22:a8:7c:6d:3a:62:4c:f5:4c:15:
         18:ea:96:e6:4c:77:a2:eb:48:d7:ca:f5:9f:44:b5:83:02:a1:
         68:9c:38:88:56:db:69:08:b9:8a:7c:78:3d:4d:42:dc:ab:be:
         01:8d:2c:d8:76:5a:7d:1c:67:19:fb:a5:2e:76:60:fe:d6:11:
         b7:1f:f9:09:7a:d5:a0:b0:2e:a3:a8:c0:fc:30:7d:72:68:3b:
         6c:26:0d:27:3e:61:1d:56:d2:4d:08:32:13:c3:5b:7c:84:e7:
         e1:c6:9e:9b:32:28:0d:a1:84:b1:49:26:3b:15:ea:bc:5f:97:
         7a:27:52:88
-----BEGIN CERTIFICATE-----
MIIDhzCCAm+gAwIBAgIJAItx/DlovP0qMA0GCSqGSIb3DQEBBQUAMIGCMQswCQYD
VQQGEwJVUzEQMA4GA1UECAwHTW9udGFuYTEQMA4GA1UEBwwHQm96ZW1hbjEUMBIG
A1UECwwLRW5naW5lZXJpbmcxGDAWBgNVBAMMD3d3dy5ub21hdGNoLmNvbTEfMB0G
CSqGSIb3DQEJARYQaW5mb0B3b2xmc3NsLmNvbTAeFw0xODA2MTIyMTA4MzNaFw0y
MTAzMDgyMTA4MzNaMIGCMQswCQYDVQQGEwJVUzEQMA4GA1UECAwHTW9udGFuYTEQ
MA4GA1UEBwwHQm96ZW1hbjEUMBIGA1UECwwLRW5naW5lZXJpbmcxGDAWBgNVBAMM
D3d3dy5ub21hdGNoLmNvbTEfMB0GCSqGSIb3DQEJARYQaW5mb0B3b2xmc3NsLmNv
bTCCASIwDQYJKoZIhvcNAQEBBQADggEPADCCAQoCggEBAMCVCOFXQfJxbbfSRUEn
AWXGRa7yvCQwuJXOL07W9hyIvHyf+6hnf/5cnFF194rKB+c1L4/hvXvAL3yrZKgX
/Mpde7rgIeVyLm8uhtiVc9qsG1O5Xz/XGQ0lT+FjY1GLC2Q/rUO4pRxcNLOuAKBj
xfZ/C1loeHOmjBipAm2vwxkBLrgQ48bMQLRpo0YzaYduxLsXpvPo3a1zvHsvIbX9
ZlEMvVSz4W1fHLwjc9EJA4kU0hC5ZMMq0KGWSrzh1Bpbx6DAwWN4D0Q3MDKWgDIj
laF3uhPSl3PiXSXJag3DOWCktLBpQkIJ6dgIvDMgs1gip6rrxOHmYYPF0pbf2dBP
rdcCAwEAATANBgkqhkiG9w0BAQUFAAOCAQEAIZmpMF4dYbpkiE6hFW3qi1fvQF73
mWQS+APcT8/U+os0Yq3x1G6URYCwTMugEsyhtbeF1SHEIFvz9hDFRiHpWs4evOFH
pA+Nf5KSr0rqywFTnvEHUxQiK7HbRx9ZFYeg/TMjA+d5EHyQoWMNBkHMSo00Tur7
6k/IhUQNkikVhd7PU4VLKTsiqHxtOmJM9UwVGOqW5kx3outI18r1n0S1gwKhaJw4
iFbbaQi5inx4PU1C3Ku+AY0s2HZafRxnGfulLnZg/tYRtx/5CXrVoLAuo6jA/DB9
cmg7bCYNJz5hHVbSTQgyE8NbfITn4caemzIoDaGEsUkmOxXqvF+XeidSiA==
-----END CERTIFICATE-----
