Certificate:
    Data:
        Version: 3 (0x2)
        Serial Number:
            56:8a:4f:5c:94:1d:ba:77:87:b3:96:d6:b4:58:fd:de:d4:db:5a:aa
        Signature Algorithm: sha256WithRSAEncryption
        Issuer: C = US, ST = Montana, L = Bozeman, OU = Engineering, CN = www.nomatch.com, emailAddress = info@wolfssl.com
        Validity
            Not Before: Feb 15 12:50:25 2022 GMT
            Not After : Nov 11 12:50:25 2024 GMT
        Subject: C = US, ST = Montana, L = Bozeman, OU = Engineering, CN = www.nomatch.com, emailAddress = info@wolfssl.com
        Subject Public Key Info:
            Public Key Algorithm: rsaEncryption
                RSA Public-Key: (2048 bit)
                Modulus:
                    00:c0:95:08:e1:57:41:f2:71:6d:b7:d2:45:41:27:
                    01:65:c6:45:ae:f2:bc:24:30:b8:95:ce:2f:4e:d6:
                    f6:1c:88:bc:7c:9f:fb:a8:67:7f:fe:5c:9c:51:75:
                    f7:8a:ca:07:e7:35:2f:8f:e1:bd:7b:c0:2f:7c:ab:
                    64:a8:17:fc:ca:5d:7b:ba:e0:21:e5:72:2e:6f:2e:
                    86:d8:95:73:da:ac:1b:53:b9:5f:3f:d7:19:0d:25:
                    4f:e1:63:63:51:8b:0b:64:3f:ad:43:b8:a5:1c:5c:
                    34:b3:ae:00:a0:63:c5:f6:7f:0b:59:68:78:73:a6:
                    8c:18:a9:02:6d:af:c3:19:01:2e:b8:10:e3:c6:cc:
                    40:b4:69:a3:46:33:69:87:6e:c4:bb:17:a6:f3:e8:
                    dd:ad:73:bc:7b:2f:21:b5:fd:66:51:0c:bd:54:b3:
                    e1:6d:5f:1c:bc:23:73:d1:09:03:89:14:d2:10:b9:
                    64:c3:2a:d0:a1:96:4a:bc:e1:d4:1a:5b:c7:a0:c0:
                    c1:63:78:0f:44:37:30:32:96:80:32:23:95:a1:77:
                    ba:13:d2:97:73:e2:5d:25:c9:6a:0d:c3:39:60:a4:
                    b4:b0:69:42:42:09:e9:d8:08:bc:33:20:b3:58:22:
                    a7:aa:eb:c4:e1:e6:61:83:c5:d2:96:df:d9:d0:4f:
                    ad:d7
                Exponent: 65537 (0x10001)
        X509v3 extensions:
            X509v3 Subject Alternative Name: 
                DNS:localhost
    Signature Algorithm: sha256WithRSAEncryption
         05:04:68:cf:1a:66:03:f4:f2:d5:11:78:ca:31:da:a9:ed:1e:
         0a:04:b8:6d:47:37:11:2b:55:fe:a4:5d:1e:f6:1e:4e:ee:59:
         c2:c8:1a:6f:f5:d8:50:79:68:b6:14:a2:17:4b:26:51:31:e4:
         10:9f:a8:2c:53:86:ee:42:72:33:6a:71:48:ad:38:29:29:7a:
         99:26:25:0f:e9:42:73:f6:a0:5a:be:a6:ca:1d:1e:04:73:dd:
         8c:17:e8:52:b5:e8:40:9d:41:9c:57:f1:5f:04:77:87:6c:fa:
         c4:44:e0:25:7b:3a:98:2e:af:9f:98:10:df:18:12:76:ac:6c:
         9b:b8:7d:ac:2c:b4:74:58:b1:9c:39:5f:e5:fe:18:3a:81:42:
         71:28:5f:c1:66:23:86:cc:8d:96:ae:e6:01:c0:e2:e4:10:69:
         4c:1d:ba:32:2a:51:67:4a:a7:41:99:a9:a5:2b:82:72:96:69:
         66:f3:1a:07:76:e1:59:5f:bb:8e:6e:b3:ca:e3:78:b2:58:f8:
         e5:ac:46:ac:ac:b1:1e:88:6b:3a:79:f0:17:15:f1:6a:ee:7b:
         76:c4:c0:7b:b8:d1:b5:dc:38:d7:9e:32:9d:3c:7b:a9:16:7a:
         02:4d:31:98:6f:0c:5f:27:ab:43:54:3f:86:45:ea:b2:ab:94:
         c5:bc:f7:9b
-----BEGIN CERTIFICATE-----
MIIDrDCCApSgAwIBAgIUVopPXJQduneHs5bWtFj93tTbWqowDQYJKoZIhvcNAQEL
BQAwgYIxCzAJBgNVBAYTAlVTMRAwDgYDVQQIDAdNb250YW5hMRAwDgYDVQQHDAdC
b3plbWFuMRQwEgYDVQQLDAtFbmdpbmVlcmluZzEYMBYGA1UEAwwPd3d3Lm5vbWF0
Y2guY29tMR8wHQYJKoZIhvcNAQkBFhBpbmZvQHdvbGZzc2wuY29tMB4XDTIyMDIx
NTEyNTAyNVoXDTI0MTExMTEyNTAyNVowgYIxCzAJBgNVBAYTAlVTMRAwDgYDVQQI
DAdNb250YW5hMRAwDgYDVQQHDAdCb3plbWFuMRQwEgYDVQQLDAtFbmdpbmVlcmlu
ZzEYMBYGA1UEAwwPd3d3Lm5vbWF0Y2guY29tMR8wHQYJKoZIhvcNAQkBFhBpbmZv
QHdvbGZzc2wuY29tMIIBIjANBgkqhkiG9w0BAQEFAAOCAQ8AMIIBCgKCAQEAwJUI
4VdB8nFtt9JFQScBZcZFrvK8JDC4lc4vTtb2HIi8fJ/7qGd//lycUXX3isoH5zUv
j+G9e8AvfKtkqBf8yl17uuAh5XIuby6G2JVz2qwbU7lfP9cZDSVP4WNjUYsLZD+t
Q7ilHFw0s64AoGPF9n8LWWh4c6aMGKkCba/DGQEuuBDjxsxAtGmjRjNph27Euxem
8+jdrXO8ey8htf1mUQy9VLPhbV8cvCNz0QkDiRTSELlkwyrQoZZKvOHUGlvHoMDB
Y3gPRDcwMpaAMiOVoXe6E9KXc+JdJclqDcM5YKS0sGlCQgnp2Ai8MyCzWCKnquvE
4eZhg8XSlt/Z0E+t1wIDAQABoxgwFjAUBgNVHREEDTALgglsb2NhbGhvc3QwDQYJ
KoZIhvcNAQELBQADggEBAAUEaM8aZgP08tUReMox2qntHgoEuG1HNxErVf6kXR72
Hk7uWcLIGm/12FB5aLYUohdLJlEx5BCfqCxThu5CcjNqcUitOCkpepkmJQ/pQnP2
oFq+psodHgRz3YwX6FK16ECdQZxX8V8Ed4ds+sRE4CV7Opgur5+YEN8YEnasbJu4
fawstHRYsZw5X+X+GDqBQnEoX8FmI4bMjZau5gHA4uQQaUwdujIqUWdKp0GZqaUr
gnKWaWbzGgd24Vlfu45us8rjeLJY+OWsRqyssR6Iazp58BcV8Wrue3bEwHu40bXc
ONeeMp08e6kWegJNMZhvDF8nq0NUP4ZF6rKrlMW895s=
-----END CERTIFICATE-----
