Certificate:
    Data:
        Version: 3 (0x2)
        Serial Number:
            5b:d1:6a:7d:d9:c4:9a:1a:c6:11:44:12:fc:ca:a1:f4:79:6b:1b:a2
        Signature Algorithm: sha256WithRSAEncryption
        Issuer: C = US, ST = Montana, L = Bozeman, OU = Engineering, CN = localhost, emailAddress = info@wolfssl.com
        Validity
            Not Before: Jun 15 22:02:34 2021 GMT
            Not After : Mar 11 22:02:34 2024 GMT
        Subject: C = US, ST = Montana, L = Bozeman, OU = Engineering, CN = localhost, emailAddress = info@wolfssl.com
        Subject Public Key Info:
            Public Key Algorithm: rsaEncryption
                RSA Public-Key: (2048 bit)
                Modulus:
                    00:c0:95:08:e1:57:41:f2:71:6d:b7:d2:45:41:27:
                    01:65:c6:45:ae:f2:bc:24:30:b8:95:ce:2f:4e:d6:
                    f6:1c:88:bc:7c:9f:fb:a8:67:7f:fe:5c:9c:51:75:
                    f7:8a:ca:07:e7:35:2f:8f:e1:bd:7b:c0:2f:7c:ab:
                    64:a8:17:fc:ca:5d:7b:ba:e0:21:e5:72:2e:6f:2e:
                    86:d8:95:73:da:ac:1b:53:b9:5f:3f:d7:19:0d:25:
                    4f:e1:63:63:51:8b:0b:64:3f:ad:43:b8:a5:1c:5c:
                    34:b3:ae:00:a0:63:c5:f6:7f:0b:59:68:78:73:a6:
                    8c:18:a9:02:6d:af:c3:19:01:2e:b8:10:e3:c6:cc:
                    40:b4:69:a3:46:33:69:87:6e:c4:bb:17:a6:f3:e8:
                    dd:ad:73:bc:7b:2f:21:b5:fd:66:51:0c:bd:54:b3:
                    e1:6d:5f:1c:bc:23:73:d1:09:03:89:14:d2:10:b9:
                    64:c3:2a:d0:a1:96:4a:bc:e1:d4:1a:5b:c7:a0:c0:
                    c1:63:78:0f:44:37:30:32:96:80:32:23:95:a1:77:
                    ba:13:d2:97:73:e2:5d:25:c9:6a:0d:c3:39:60:a4:
                    b4:b0:69:42:42:09:e9:d8:08:bc:33:20:b3:58:22:
                    a7:aa:eb:c4:e1:e6:61:83:c5:d2:96:df:d9:d0:4f:
                    ad:d7
                Exponent: 65537 (0x10001)
        X509v3 extensions:
            X509v3 Subject Alternative Name: 
                DNS:garbage
    Signature Algorithm: sha256WithRSAEncryption
         b1:e4:67:79:4d:83:e3:5a:49:d3:8e:33:18:a2:ee:bd:c4:66:
         40:d2:81:19:c8:fa:95:0a:e9:8f:dd:58:cd:10:8a:c3:43:fd:
         62:2f:ca:2b:0d:e9:7d:28:4f:5f:45:3b:27:3b:7d:06:39:12:
         75:c3:e7:2e:8e:82:f7:b1:28:7f:7f:76:83:db:f5:ea:d2:87:
         5b:90:a4:b1:3e:4b:64:a3:3d:0a:d7:41:31:71:28:3b:54:89:
         20:b5:17:65:20:c9:f8:1b:25:11:44:a3:0b:b5:60:37:f0:92:
         fc:3b:1d:4a:03:ef:e1:b4:61:23:33:8c:48:2f:e8:dd:4b:f8:
         3d:97:00:55:c7:49:be:35:6a:3f:e1:db:32:ef:7f:b3:6a:ab:
         5d:8b:f1:fb:45:1e:75:1f:d1:e6:93:24:7f:b2:57:97:57:08:
         27:3d:94:3b:b3:97:b4:07:c0:e7:ed:77:9a:e1:f7:90:2d:af:
         1e:2f:15:7c:da:2c:d7:db:a2:b1:e5:4e:27:4c:0c:52:0c:54:
         a1:d3:b9:31:aa:d1:1f:20:91:b6:c1:7f:72:43:02:63:f4:13:
         1d:66:7b:80:7c:1e:b5:17:03:2b:95:53:47:eb:10:63:e6:8e:
         23:ca:c7:2d:05:eb:ad:db:24:a4:e6:f0:2b:a2:7a:37:d7:20:
         5c:ed:82:ce
-----BEGIN CERTIFICATE-----
MIIDnDCCAoSgAwIBAgIUW9FqfdnEmhrGEUQS/Mqh9HlrG6IwDQYJKoZIhvcNAQEL
BQAwfDELMAkGA1UEBhMCVVMxEDAOBgNVBAgMB01vbnRhbmExEDAOBgNVBAcMB0Jv
emVtYW4xFDASBgNVBAsMC0VuZ2luZWVyaW5nMRIwEAYDVQQDDAlsb2NhbGhvc3Qx
HzAdBgkqhkiG9w0BCQEWEGluZm9Ad29sZnNzbC5jb20wHhcNMjEwNjE1MjIwMjM0
WhcNMjQwMzExMjIwMjM0WjB8MQswCQYDVQQGEwJVUzEQMA4GA1UECAwHTW9udGFu
YTEQMA4GA1UEBwwHQm96ZW1hbjEUMBIGA1UECwwLRW5naW5lZXJpbmcxEjAQBgNV
BAMMCWxvY2FsaG9zdDEfMB0GCSqGSIb3DQEJARYQaW5mb0B3b2xmc3NsLmNvbTCC
ASIwDQYJKoZIhvcNAQEBBQADggEPADCCAQoCggEBAMCVCOFXQfJxbbfSRUEnAWXG
Ra7yvCQwuJXOL07W9hyIvHyf+6hnf/5cnFF194rKB+c1L4/hvXvAL3yrZKgX/Mpd
e7rgIeVyLm8uhtiVc9qsG1O5Xz/XGQ0lT+FjY1GLC2Q/rUO4pRxcNLOuAKBjxfZ/
C1loeHOmjBipAm2vwxkBLrgQ48bMQLRpo0YzaYduxLsXpvPo3a1zvHsvIbX9ZlEM
vVSz4W1fHLwjc9EJA4kU0hC5ZMMq0KGWSrzh1Bpbx6DAwWN4D0Q3MDKWgDIjlaF3
uhPSl3PiXSXJag3DOWCktLBpQkIJ6dgIvDMgs1gip6rrxOHmYYPF0pbf2dBPrdcC
AwEAAaMWMBQwEgYDVR0RBAswCYIHZ2FyYmFnZTANBgkqhkiG9w0BAQsFAAOCAQEA
seRneU2D41pJ044zGKLuvcRmQNKBGcj6lQrpj91YzRCKw0P9Yi/KKw3pfShPX0U7
Jzt9BjkSdcPnLo6C97Eof392g9v16tKHW5CksT5LZKM9CtdBMXEoO1SJILUXZSDJ
+BslEUSjC7VgN/CS/DsdSgPv4bRhIzOMSC/o3Uv4PZcAVcdJvjVqP+HbMu9/s2qr
XYvx+0UedR/R5pMkf7JXl1cIJz2UO7OXtAfA5+13muH3kC2vHi8VfNos19uiseVO
J0wMUgxUodO5MarRHyCRtsF/ckMCY/QTHWZ7gHwetRcDK5VTR+sQY+aOI8rHLQXr
rdskpObwK6J6N9cgXO2Czg==
-----END CERTIFICATE-----
