Certificate:
    Data:
        Version: 1 (0x0)
        Serial Number:
            40:3d:7d:38:b5:bf:8f:33:eb:79:48:a0:4b:ec:94:d6:1b:2a:1a:19
        Signature Algorithm: sha256WithRSAEncryption
        Issuer: C = US, ST = Montana, L = Bozeman, OU = Engineering, CN = DER:30:0d:82:0b:6c:6f:63:61:6c:68:6f:73:74:00:68, emailAddress = info@wolfssl.com
        Validity
            Not Before: Sep 26 17:22:43 2023 GMT
            Not After : Jun 22 17:22:43 2026 GMT
        Subject: C = US, ST = Montana, L = Bozeman, OU = Engineering, CN = DER:30:0d:82:0b:6c:6f:63:61:6c:68:6f:73:74:00:68, emailAddress = info@wolfssl.com
        Subject Public Key Info:
            Public Key Algorithm: rsaEncryption
                Public-Key: (2048 bit)
                Modulus:
                    00:c0:95:08:e1:57:41:f2:71:6d:b7:d2:45:41:27:
                    01:65:c6:45:ae:f2:bc:24:30:b8:95:ce:2f:4e:d6:
                    f6:1c:88:bc:7c:9f:fb:a8:67:7f:fe:5c:9c:51:75:
                    f7:8a:ca:07:e7:35:2f:8f:e1:bd:7b:c0:2f:7c:ab:
                    64:a8:17:fc:ca:5d:7b:ba:e0:21:e5:72:2e:6f:2e:
                    86:d8:95:73:da:ac:1b:53:b9:5f:3f:d7:19:0d:25:
                    4f:e1:63:63:51:8b:0b:64:3f:ad:43:b8:a5:1c:5c:
                    34:b3:ae:00:a0:63:c5:f6:7f:0b:59:68:78:73:a6:
                    8c:18:a9:02:6d:af:c3:19:01:2e:b8:10:e3:c6:cc:
                    40:b4:69:a3:46:33:69:87:6e:c4:bb:17:a6:f3:e8:
                    dd:ad:73:bc:7b:2f:21:b5:fd:66:51:0c:bd:54:b3:
                    e1:6d:5f:1c:bc:23:73:d1:09:03:89:14:d2:10:b9:
                    64:c3:2a:d0:a1:96:4a:bc:e1:d4:1a:5b:c7:a0:c0:
                    c1:63:78:0f:44:37:30:32:96:80:32:23:95:a1:77:
                    ba:13:d2:97:73:e2:5d:25:c9:6a:0d:c3:39:60:a4:
                    b4:b0:69:42:42:09:e9:d8:08:bc:33:20:b3:58:22:
                    a7:aa:eb:c4:e1:e6:61:83:c5:d2:96:df:d9:d0:4f:
                    ad:d7
                Exponent: 65537 (0x10001)
    Signature Algorithm: sha256WithRSAEncryption
    Signature Value:
        1b:e5:7c:fd:1f:ed:0c:2c:60:41:8f:c0:31:7b:5f:8b:2f:c5:
        b2:5c:fc:8e:c6:81:5c:a5:07:d0:de:3d:a3:21:b3:d5:31:1f:
        0c:c5:fa:de:6b:d8:3b:f0:c5:99:d1:36:42:ff:92:77:b9:a2:
        a1:f2:99:81:f0:5e:da:9f:4a:f6:77:97:91:94:4e:7d:9f:a3:
        75:98:b1:8a:2f:13:df:1e:21:fd:32:ed:eb:ad:cc:16:73:50:
        b4:7e:da:dd:0e:66:1a:3d:43:f1:7d:5b:27:0e:f0:82:29:ec:
        a3:f5:8e:3e:07:6d:b7:20:56:84:b9:42:38:23:a3:eb:50:2d:
        71:96:b4:bf:76:29:59:eb:51:f4:c9:f1:fb:46:20:4b:4c:5f:
        06:a5:b0:13:ff:15:22:ee:50:6b:5c:58:41:ea:a1:47:0d:ed:
        bb:66:eb:4c:29:6d:32:24:6a:a2:cb:57:8a:b8:9a:8c:54:d7:
        7d:8c:8d:d3:d3:a3:1a:21:2a:4d:ad:a9:9b:46:4f:5a:da:01:
        72:29:b4:30:c8:81:fc:19:28:e2:db:22:69:89:83:42:dc:4e:
        c8:8b:90:e6:d9:08:59:26:ab:ff:f2:cd:e2:c3:ce:53:e3:fc:
        a0:54:d2:cf:66:ae:22:f1:85:1b:65:59:34:33:23:ec:7c:9c:
        08:57:99:46
-----BEGIN CERTIFICATE-----
MIIDzzCCArcCFEA9fTi1v48z63lIoEvslNYbKhoZMA0GCSqGSIb3DQEBCwUAMIGj
MQswCQYDVQQGEwJVUzEQMA4GA1UECAwHTW9udGFuYTEQMA4GA1UEBwwHQm96ZW1h
bjEUMBIGA1UECwwLRW5naW5lZXJpbmcxOTA3BgNVBAMMMERFUjozMDowZDo4Mjow
Yjo2Yzo2Zjo2Mzo2MTo2Yzo2ODo2Zjo3Mzo3NDowMDo2ODEfMB0GCSqGSIb3DQEJ
ARYQaW5mb0B3b2xmc3NsLmNvbTAeFw0yMzA5MjYxNzIyNDNaFw0yNjA2MjIxNzIy
NDNaMIGjMQswCQYDVQQGEwJVUzEQMA4GA1UECAwHTW9udGFuYTEQMA4GA1UEBwwH
Qm96ZW1hbjEUMBIGA1UECwwLRW5naW5lZXJpbmcxOTA3BgNVBAMMMERFUjozMDow
ZDo4MjowYjo2Yzo2Zjo2Mzo2MTo2Yzo2ODo2Zjo3Mzo3NDowMDo2ODEfMB0GCSqG
SIb3DQEJARYQaW5mb0B3b2xmc3NsLmNvbTCCASIwDQYJKoZIhvcNAQEBBQADggEP
ADCCAQoCggEBAMCVCOFXQfJxbbfSRUEnAWXGRa7yvCQwuJXOL07W9hyIvHyf+6hn
f/5cnFF194rKB+c1L4/hvXvAL3yrZKgX/Mpde7rgIeVyLm8uhtiVc9qsG1O5Xz/X
GQ0lT+FjY1GLC2Q/rUO4pRxcNLOuAKBjxfZ/C1loeHOmjBipAm2vwxkBLrgQ48bM
QLRpo0YzaYduxLsXpvPo3a1zvHsvIbX9ZlEMvVSz4W1fHLwjc9EJA4kU0hC5ZMMq
0KGWSrzh1Bpbx6DAwWN4D0Q3MDKWgDIjlaF3uhPSl3PiXSXJag3DOWCktLBpQkIJ
6dgIvDMgs1gip6rrxOHmYYPF0pbf2dBPrdcCAwEAATANBgkqhkiG9w0BAQsFAAOC
AQEAG+V8/R/tDCxgQY/AMXtfiy/Fslz8jsaBXKUH0N49oyGz1TEfDMX63mvYO/DF
mdE2Qv+Sd7miofKZgfBe2p9K9neXkZROfZ+jdZixii8T3x4h/TLt663MFnNQtH7a
3Q5mGj1D8X1bJw7wginso/WOPgdttyBWhLlCOCOj61AtcZa0v3YpWetR9Mnx+0Yg
S0xfBqWwE/8VIu5Qa1xYQeqhRw3tu2brTCltMiRqostXiriajFTXfYyN09OjGiEq
Ta2pm0ZPWtoBcim0MMiB/Bko4tsiaYmDQtxOyIuQ5tkIWSar//LN4sPOU+P8oFTS
z2auIvGFG2VZNDMj7HycCFeZRg==
-----END CERTIFICATE-----
