Certificate:
    Data:
        Version: 3 (0x2)
        Serial Number: 2 (0x2)
        Signature Algorithm: sha256WithRSAEncryption
        Issuer: C = US, ST = Montana, L = Bozeman, O = Sawtooth, OU = Consulting, CN = www.wolfssl.com, emailAddress = info@wolfssl.com
        Validity
            Not Before: May  7 07:39:04 2020 GMT
            Not After : Feb  1 07:39:04 2023 GMT
        Subject: C = US, ST = Montana, L = Bozeman, O = wolfSSL, OU = testing duplicate policy, CN = www.wolfssl.com, emailAddress = info@wolfssl.com
        Subject Public Key Info:
            Public Key Algorithm: rsaEncryption
                RSA Public-Key: (2048 bit)
                Modulus:
                    00:c0:95:08:e1:57:41:f2:71:6d:b7:d2:45:41:27:
                    01:65:c6:45:ae:f2:bc:24:30:b8:95:ce:2f:4e:d6:
                    f6:1c:88:bc:7c:9f:fb:a8:67:7f:fe:5c:9c:51:75:
                    f7:8a:ca:07:e7:35:2f:8f:e1:bd:7b:c0:2f:7c:ab:
                    64:a8:17:fc:ca:5d:7b:ba:e0:21:e5:72:2e:6f:2e:
                    86:d8:95:73:da:ac:1b:53:b9:5f:3f:d7:19:0d:25:
                    4f:e1:63:63:51:8b:0b:64:3f:ad:43:b8:a5:1c:5c:
                    34:b3:ae:00:a0:63:c5:f6:7f:0b:59:68:78:73:a6:
                    8c:18:a9:02:6d:af:c3:19:01:2e:b8:10:e3:c6:cc:
                    40:b4:69:a3:46:33:69:87:6e:c4:bb:17:a6:f3:e8:
                    dd:ad:73:bc:7b:2f:21:b5:fd:66:51:0c:bd:54:b3:
                    e1:6d:5f:1c:bc:23:73:d1:09:03:89:14:d2:10:b9:
                    64:c3:2a:d0:a1:96:4a:bc:e1:d4:1a:5b:c7:a0:c0:
                    c1:63:78:0f:44:37:30:32:96:80:32:23:95:a1:77:
                    ba:13:d2:97:73:e2:5d:25:c9:6a:0d:c3:39:60:a4:
                    b4:b0:69:42:42:09:e9:d8:08:bc:33:20:b3:58:22:
                    a7:aa:eb:c4:e1:e6:61:83:c5:d2:96:df:d9:d0:4f:
                    ad:d7
                Exponent: 65537 (0x10001)
        X509v3 extensions:
            X509v3 Subject Key Identifier: 
                B3:11:32:C9:92:98:84:E2:C9:F8:D0:3B:6E:03:42:CA:1F:0E:8E:3C
            X509v3 Authority Key Identifier: 
                keyid:27:8E:67:11:74:C3:26:1D:3F:ED:33:63:B3:A4:D8:1D:30:E5:E8:D5
                DirName:/C=US/ST=Montana/L=Bozeman/O=Sawtooth/OU=Consulting/CN=www.wolfssl.com/emailAddress=info@wolfssl.com
                serial:3F:32:13:52:92:C6:DF:4A:D5:42:05:6C:B0:B2:2E:46:C2:F8:B8:67

            X509v3 Basic Constraints: 
                CA:FALSE
            X509v3 Certificate Policies: 
                Policy: 1.2.3.4
                Policy: 1.2.3.4
                  CPS: www.wolfssl.com
                  User Notice:
                    Explicit Text: Test of duplicate OIDs with different qualifiers

    Signature Algorithm: sha256WithRSAEncryption
         15:7a:97:1b:9d:73:c0:51:05:a1:4a:2b:44:34:cb:6b:8d:aa:
         e3:16:41:d3:c6:01:1f:be:c4:79:11:13:be:bd:96:3a:a5:9e:
         e8:17:83:df:9a:c4:96:f9:8b:d4:22:1a:ec:b2:96:83:24:10:
         e8:e8:5c:e5:c7:75:d6:78:bb:79:7f:56:72:5c:f3:2a:00:12:
         fc:05:49:fb:39:91:19:63:ab:57:78:d3:e9:e9:78:a7:e9:30:
         1c:68:d2:ca:a3:8f:13:0b:35:dc:3c:76:9f:2d:89:01:7a:27:
         03:01:36:7e:33:69:d9:10:20:d1:1a:29:7d:81:15:9c:70:5c:
         73:19:96:d4:69:0d:96:56:81:a7:bd:85:a8:0a:6e:f5:5e:d7:
         ff:42:77:ab:20:f3:85:df:3f:d2:39:a8:65:87:52:1a:3f:0f:
         4f:f9:c1:06:d7:04:8e:3f:0f:55:06:ab:42:10:51:57:8e:72:
         84:94:1a:ef:54:33:89:60:39:58:30:c2:b1:e3:8c:04:2b:9d:
         56:41:b1:5c:ae:1c:c3:e7:3a:9e:a3:bb:6a:43:5e:47:0a:a6:
         45:af:f4:ab:64:08:41:f9:1b:12:3f:f5:b5:07:87:f1:19:7a:
         8c:76:af:6d:8a:c7:14:0f:d6:7a:7f:d2:6e:25:dc:5b:32:19:
         bd:c6:a5:1e
-----BEGIN CERTIFICATE-----
MIIFMTCCBBmgAwIBAgIBAjANBgkqhkiG9w0BAQsFADCBlDELMAkGA1UEBhMCVVMx
EDAOBgNVBAgMB01vbnRhbmExEDAOBgNVBAcMB0JvemVtYW4xETAPBgNVBAoMCFNh
d3Rvb3RoMRMwEQYDVQQLDApDb25zdWx0aW5nMRgwFgYDVQQDDA93d3cud29sZnNz
bC5jb20xHzAdBgkqhkiG9w0BCQEWEGluZm9Ad29sZnNzbC5jb20wHhcNMjAwNTA3
MDczOTA0WhcNMjMwMjAxMDczOTA0WjCBoTELMAkGA1UEBhMCVVMxEDAOBgNVBAgM
B01vbnRhbmExEDAOBgNVBAcMB0JvemVtYW4xEDAOBgNVBAoMB3dvbGZTU0wxITAf
BgNVBAsMGHRlc3RpbmcgZHVwbGljYXRlIHBvbGljeTEYMBYGA1UEAwwPd3d3Lndv
bGZzc2wuY29tMR8wHQYJKoZIhvcNAQkBFhBpbmZvQHdvbGZzc2wuY29tMIIBIjAN
BgkqhkiG9w0BAQEFAAOCAQ8AMIIBCgKCAQEAwJUI4VdB8nFtt9JFQScBZcZFrvK8
JDC4lc4vTtb2HIi8fJ/7qGd//lycUXX3isoH5zUvj+G9e8AvfKtkqBf8yl17uuAh
5XIuby6G2JVz2qwbU7lfP9cZDSVP4WNjUYsLZD+tQ7ilHFw0s64AoGPF9n8LWWh4
c6aMGKkCba/DGQEuuBDjxsxAtGmjRjNph27Euxem8+jdrXO8ey8htf1mUQy9VLPh
bV8cvCNz0QkDiRTSELlkwyrQoZZKvOHUGlvHoMDBY3gPRDcwMpaAMiOVoXe6E9KX
c+JdJclqDcM5YKS0sGlCQgnp2Ai8MyCzWCKnquvE4eZhg8XSlt/Z0E+t1wIDAQAB
o4IBfTCCAXkwHQYDVR0OBBYEFLMRMsmSmITiyfjQO24DQsofDo48MIHUBgNVHSME
gcwwgcmAFCeOZxF0wyYdP+0zY7Ok2B0w5ejVoYGapIGXMIGUMQswCQYDVQQGEwJV
UzEQMA4GA1UECAwHTW9udGFuYTEQMA4GA1UEBwwHQm96ZW1hbjERMA8GA1UECgwI
U2F3dG9vdGgxEzARBgNVBAsMCkNvbnN1bHRpbmcxGDAWBgNVBAMMD3d3dy53b2xm
c3NsLmNvbTEfMB0GCSqGSIb3DQEJARYQaW5mb0B3b2xmc3NsLmNvbYIUPzITUpLG
30rVQgVssLIuRsL4uGcwCQYDVR0TBAIwADB2BgNVHSAEbzBtMAUGAyoDBDBkBgMq
AwQwXTAbBggrBgEFBQcCARYPd3d3LndvbGZzc2wuY29tMD4GCCsGAQUFBwICMDIa
MFRlc3Qgb2YgZHVwbGljYXRlIE9JRHMgd2l0aCBkaWZmZXJlbnQgcXVhbGlmaWVy
czANBgkqhkiG9w0BAQsFAAOCAQEAFXqXG51zwFEFoUorRDTLa42q4xZB08YBH77E
eRETvr2WOqWe6BeD35rElvmL1CIa7LKWgyQQ6Ohc5cd11ni7eX9WclzzKgAS/AVJ
+zmRGWOrV3jT6el4p+kwHGjSyqOPEws13Dx2ny2JAXonAwE2fjNp2RAg0RopfYEV
nHBccxmW1GkNllaBp72FqApu9V7X/0J3qyDzhd8/0jmoZYdSGj8PT/nBBtcEjj8P
VQarQhBRV45yhJQa71QziWA5WDDCseOMBCudVkGxXK4cw+c6nqO7akNeRwqmRa/0
q2QIQfkbEj/1tQeH8Rl6jHavbYrHFA/Wen/SbiXcWzIZvcalHg==
-----END CERTIFICATE-----
Certificate:
    Data:
        Version: 3 (0x2)
        Serial Number:
            3f:32:13:52:92:c6:df:4a:d5:42:05:6c:b0:b2:2e:46:c2:f8:b8:67
        Signature Algorithm: sha256WithRSAEncryption
        Issuer: C = US, ST = Montana, L = Bozeman, O = Sawtooth, OU = Consulting, CN = www.wolfssl.com, emailAddress = info@wolfssl.com
        Validity
            Not Before: May  7 07:39:04 2020 GMT
            Not After : Feb  1 07:39:04 2023 GMT
        Subject: C = US, ST = Montana, L = Bozeman, O = Sawtooth, OU = Consulting, CN = www.wolfssl.com, emailAddress = info@wolfssl.com
        Subject Public Key Info:
            Public Key Algorithm: rsaEncryption
                RSA Public-Key: (2048 bit)
                Modulus:
                    00:bf:0c:ca:2d:14:b2:1e:84:42:5b:cd:38:1f:4a:
                    f2:4d:75:10:f1:b6:35:9f:df:ca:7d:03:98:d3:ac:
                    de:03:66:ee:2a:f1:d8:b0:7d:6e:07:54:0b:10:98:
                    21:4d:80:cb:12:20:e7:cc:4f:de:45:7d:c9:72:77:
                    32:ea:ca:90:bb:69:52:10:03:2f:a8:f3:95:c5:f1:
                    8b:62:56:1b:ef:67:6f:a4:10:41:95:ad:0a:9b:e3:
                    a5:c0:b0:d2:70:76:50:30:5b:a8:e8:08:2c:7c:ed:
                    a7:a2:7a:8d:38:29:1c:ac:c7:ed:f2:7c:95:b0:95:
                    82:7d:49:5c:38:cd:77:25:ef:bd:80:75:53:94:3c:
                    3d:ca:63:5b:9f:15:b5:d3:1d:13:2f:19:d1:3c:db:
                    76:3a:cc:b8:7d:c9:e5:c2:d7:da:40:6f:d8:21:dc:
                    73:1b:42:2d:53:9c:fe:1a:fc:7d:ab:7a:36:3f:98:
                    de:84:7c:05:67:ce:6a:14:38:87:a9:f1:8c:b5:68:
                    cb:68:7f:71:20:2b:f5:a0:63:f5:56:2f:a3:26:d2:
                    b7:6f:b1:5a:17:d7:38:99:08:fe:93:58:6f:fe:c3:
                    13:49:08:16:0b:a7:4d:67:00:52:31:67:23:4e:98:
                    ed:51:45:1d:b9:04:d9:0b:ec:d8:28:b3:4b:bd:ed:
                    36:79
                Exponent: 65537 (0x10001)
        X509v3 extensions:
            X509v3 Subject Key Identifier: 
                27:8E:67:11:74:C3:26:1D:3F:ED:33:63:B3:A4:D8:1D:30:E5:E8:D5
            X509v3 Authority Key Identifier: 
                keyid:27:8E:67:11:74:C3:26:1D:3F:ED:33:63:B3:A4:D8:1D:30:E5:E8:D5
                DirName:/C=US/ST=Montana/L=Bozeman/O=Sawtooth/OU=Consulting/CN=www.wolfssl.com/emailAddress=info@wolfssl.com
                serial:3F:32:13:52:92:C6:DF:4A:D5:42:05:6C:B0:B2:2E:46:C2:F8:B8:67

            X509v3 Basic Constraints: 
                CA:TRUE
            X509v3 Subject Alternative Name: 
                DNS:example.com, IP Address:127.0.0.1
    Signature Algorithm: sha256WithRSAEncryption
         b0:7b:84:c9:1f:41:97:b8:03:14:0f:59:5b:6f:2c:15:45:1b:
         c4:02:6f:d9:92:e7:1a:dc:cc:db:0e:56:3d:59:db:71:f2:f1:
         08:9a:06:eb:ab:c5:25:9f:df:6a:6d:6e:6b:d0:a8:90:39:d9:
         48:6f:61:7f:bd:cd:ed:60:8b:e3:6c:23:52:b7:86:bc:2a:ff:
         90:f7:6d:5c:47:69:f3:8d:ee:9e:76:62:5c:7b:b3:22:e5:4e:
         ce:26:f6:3f:2f:b7:00:8c:20:d2:71:f6:31:4e:e1:4d:03:b9:
         f3:07:dd:04:a7:a6:9a:9c:b0:2e:99:0a:a7:fc:59:97:63:a5:
         7c:77:dd:77:61:a6:86:6a:b2:32:33:06:b4:bc:ca:ae:c2:c7:
         8e:dc:85:dc:ac:c2:e7:2b:fb:b9:50:6b:d4:5b:0f:6d:93:a9:
         51:d2:dd:75:5e:88:ae:bc:ca:40:c7:2b:e9:5e:5b:a7:cf:e2:
         e2:5d:0b:c9:69:20:d3:41:5a:7a:b9:14:17:f1:85:d7:b9:17:
         b0:ad:ca:17:6c:38:8d:73:8d:74:25:01:70:c1:34:cf:62:02:
         48:9a:56:d8:44:a4:0d:e7:32:a0:b0:4b:c5:a4:9b:95:66:00:
         fa:7e:97:0a:6b:08:ec:a0:9f:3f:90:99:57:39:63:81:76:f7:
         ed:ea:01:1d
-----BEGIN CERTIFICATE-----
MIIE4DCCA8igAwIBAgIUPzITUpLG30rVQgVssLIuRsL4uGcwDQYJKoZIhvcNAQEL
BQAwgZQxCzAJBgNVBAYTAlVTMRAwDgYDVQQIDAdNb250YW5hMRAwDgYDVQQHDAdC
b3plbWFuMREwDwYDVQQKDAhTYXd0b290aDETMBEGA1UECwwKQ29uc3VsdGluZzEY
MBYGA1UEAwwPd3d3LndvbGZzc2wuY29tMR8wHQYJKoZIhvcNAQkBFhBpbmZvQHdv
bGZzc2wuY29tMB4XDTIwMDUwNzA3MzkwNFoXDTIzMDIwMTA3MzkwNFowgZQxCzAJ
BgNVBAYTAlVTMRAwDgYDVQQIDAdNb250YW5hMRAwDgYDVQQHDAdCb3plbWFuMREw
DwYDVQQKDAhTYXd0b290aDETMBEGA1UECwwKQ29uc3VsdGluZzEYMBYGA1UEAwwP
d3d3LndvbGZzc2wuY29tMR8wHQYJKoZIhvcNAQkBFhBpbmZvQHdvbGZzc2wuY29t
MIIBIjANBgkqhkiG9w0BAQEFAAOCAQ8AMIIBCgKCAQEAvwzKLRSyHoRCW804H0ry
TXUQ8bY1n9/KfQOY06zeA2buKvHYsH1uB1QLEJghTYDLEiDnzE/eRX3Jcncy6sqQ
u2lSEAMvqPOVxfGLYlYb72dvpBBBla0Km+OlwLDScHZQMFuo6AgsfO2nonqNOCkc
rMft8nyVsJWCfUlcOM13Je+9gHVTlDw9ymNbnxW10x0TLxnRPNt2Osy4fcnlwtfa
QG/YIdxzG0ItU5z+Gvx9q3o2P5jehHwFZ85qFDiHqfGMtWjLaH9xICv1oGP1Vi+j
JtK3b7FaF9c4mQj+k1hv/sMTSQgWC6dNZwBSMWcjTpjtUUUduQTZC+zYKLNLve02
eQIDAQABo4IBJjCCASIwHQYDVR0OBBYEFCeOZxF0wyYdP+0zY7Ok2B0w5ejVMIHU
BgNVHSMEgcwwgcmAFCeOZxF0wyYdP+0zY7Ok2B0w5ejVoYGapIGXMIGUMQswCQYD
VQQGEwJVUzEQMA4GA1UECAwHTW9udGFuYTEQMA4GA1UEBwwHQm96ZW1hbjERMA8G
A1UECgwIU2F3dG9vdGgxEzARBgNVBAsMCkNvbnN1bHRpbmcxGDAWBgNVBAMMD3d3
dy53b2xmc3NsLmNvbTEfMB0GCSqGSIb3DQEJARYQaW5mb0B3b2xmc3NsLmNvbYIU
PzITUpLG30rVQgVssLIuRsL4uGcwDAYDVR0TBAUwAwEB/zAcBgNVHREEFTATggtl
eGFtcGxlLmNvbYcEfwAAATANBgkqhkiG9w0BAQsFAAOCAQEAsHuEyR9Bl7gDFA9Z
W28sFUUbxAJv2ZLnGtzM2w5WPVnbcfLxCJoG66vFJZ/fam1ua9CokDnZSG9hf73N
7WCL42wjUreGvCr/kPdtXEdp843unnZiXHuzIuVOzib2Py+3AIwg0nH2MU7hTQO5
8wfdBKemmpywLpkKp/xZl2OlfHfdd2GmhmqyMjMGtLzKrsLHjtyF3KzC5yv7uVBr
1FsPbZOpUdLddV6IrrzKQMcr6V5bp8/i4l0LyWkg00FaerkUF/GF17kXsK3KF2w4
jXONdCUBcME0z2ICSJpW2ESkDecyoLBLxaSblWYA+n6XCmsI7KCfP5CZVzljgXb3
7eoBHQ==
-----END CERTIFICATE-----
