Certificate:
    Data:
        Version: 1 (0x0)
        Serial Number:
            0f:54:71:2f:7f:be:57:48:59:a5:1b:e0:e4:80:33:31:cc:0a:81:39
        Signature Algorithm: sha256WithRSAEncryption
        Issuer: C = US, ST = Montana, L = Bozeman, OU = Engineering, CN = localhost, emailAddress = info@wolfssl.com
        Validity
            Not Before: Sep 26 17:22:43 2023 GMT
            Not After : Jun 22 17:22:43 2026 GMT
        Subject: C = US, ST = Montana, L = Bozeman, OU = Engineering, CN = localhost, emailAddress = info@wolfssl.com
        Subject Public Key Info:
            Public Key Algorithm: rsaEncryption
                Public-Key: (2048 bit)
                Modulus:
                    00:c0:95:08:e1:57:41:f2:71:6d:b7:d2:45:41:27:
                    01:65:c6:45:ae:f2:bc:24:30:b8:95:ce:2f:4e:d6:
                    f6:1c:88:bc:7c:9f:fb:a8:67:7f:fe:5c:9c:51:75:
                    f7:8a:ca:07:e7:35:2f:8f:e1:bd:7b:c0:2f:7c:ab:
                    64:a8:17:fc:ca:5d:7b:ba:e0:21:e5:72:2e:6f:2e:
                    86:d8:95:73:da:ac:1b:53:b9:5f:3f:d7:19:0d:25:
                    4f:e1:63:63:51:8b:0b:64:3f:ad:43:b8:a5:1c:5c:
                    34:b3:ae:00:a0:63:c5:f6:7f:0b:59:68:78:73:a6:
                    8c:18:a9:02:6d:af:c3:19:01:2e:b8:10:e3:c6:cc:
                    40:b4:69:a3:46:33:69:87:6e:c4:bb:17:a6:f3:e8:
                    dd:ad:73:bc:7b:2f:21:b5:fd:66:51:0c:bd:54:b3:
                    e1:6d:5f:1c:bc:23:73:d1:09:03:89:14:d2:10:b9:
                    64:c3:2a:d0:a1:96:4a:bc:e1:d4:1a:5b:c7:a0:c0:
                    c1:63:78:0f:44:37:30:32:96:80:32:23:95:a1:77:
                    ba:13:d2:97:73:e2:5d:25:c9:6a:0d:c3:39:60:a4:
                    b4:b0:69:42:42:09:e9:d8:08:bc:33:20:b3:58:22:
                    a7:aa:eb:c4:e1:e6:61:83:c5:d2:96:df:d9:d0:4f:
                    ad:d7
                Exponent: 65537 (0x10001)
    Signature Algorithm: sha256WithRSAEncryption
    Signature Value:
        69:5d:c3:ee:ae:2e:a6:46:93:c8:d3:03:e8:32:9a:0a:44:32:
        10:19:d1:ac:48:49:38:28:d1:cc:d6:d3:07:69:fb:9d:5c:6f:
        c4:60:10:50:7b:50:21:67:dc:ad:fd:46:c3:91:a9:4a:90:0d:
        ee:4a:d2:f0:13:88:c4:d4:b3:0c:89:95:b4:3e:17:66:7e:a2:
        04:51:c7:3e:4f:d6:86:aa:c9:70:2e:a6:12:ce:fd:4d:d9:a8:
        7c:bf:3a:60:22:d9:cb:1b:98:c1:67:cd:54:79:2c:3d:8d:f4:
        2a:cd:06:80:fa:17:bc:d0:f4:f5:00:b7:e3:93:c3:33:4b:ac:
        c6:d1:e2:fb:0e:21:43:31:52:a9:08:f3:c4:ae:21:8d:d2:3d:
        08:02:4d:50:2a:e2:8c:50:2d:95:75:bf:99:db:a2:0c:ce:72:
        e0:69:36:89:80:a7:3c:ac:f6:48:99:e4:c1:6d:89:a7:1f:37:
        af:21:3b:39:32:67:32:bd:0b:ff:87:8d:0a:36:a3:31:bd:1c:
        6e:f4:ad:4e:a3:11:ab:ef:b2:49:86:2a:c7:5f:f2:f8:b4:ea:
        4e:53:f7:ad:64:44:a4:0d:90:2f:d7:93:f4:ba:6f:a4:8d:38:
        16:0f:dc:bf:6a:71:f6:02:f7:78:b4:9b:cc:3b:27:f4:1e:bd:
        3b:15:3e:2d
-----BEGIN CERTIFICATE-----
MIIDfzCCAmcCFA9UcS9/vldIWaUb4OSAMzHMCoE5MA0GCSqGSIb3DQEBCwUAMHwx
CzAJBgNVBAYTAlVTMRAwDgYDVQQIDAdNb250YW5hMRAwDgYDVQQHDAdCb3plbWFu
MRQwEgYDVQQLDAtFbmdpbmVlcmluZzESMBAGA1UEAwwJbG9jYWxob3N0MR8wHQYJ
KoZIhvcNAQkBFhBpbmZvQHdvbGZzc2wuY29tMB4XDTIzMDkyNjE3MjI0M1oXDTI2
MDYyMjE3MjI0M1owfDELMAkGA1UEBhMCVVMxEDAOBgNVBAgMB01vbnRhbmExEDAO
BgNVBAcMB0JvemVtYW4xFDASBgNVBAsMC0VuZ2luZWVyaW5nMRIwEAYDVQQDDAls
b2NhbGhvc3QxHzAdBgkqhkiG9w0BCQEWEGluZm9Ad29sZnNzbC5jb20wggEiMA0G
CSqGSIb3DQEBAQUAA4IBDwAwggEKAoIBAQDAlQjhV0HycW230kVBJwFlxkWu8rwk
MLiVzi9O1vYciLx8n/uoZ3/+XJxRdfeKygfnNS+P4b17wC98q2SoF/zKXXu64CHl
ci5vLobYlXParBtTuV8/1xkNJU/hY2NRiwtkP61DuKUcXDSzrgCgY8X2fwtZaHhz
powYqQJtr8MZAS64EOPGzEC0aaNGM2mHbsS7F6bz6N2tc7x7LyG1/WZRDL1Us+Ft
Xxy8I3PRCQOJFNIQuWTDKtChlkq84dQaW8egwMFjeA9ENzAyloAyI5Whd7oT0pdz
4l0lyWoNwzlgpLSwaUJCCenYCLwzILNYIqeq68Th5mGDxdKW39nQT63XAgMBAAEw
DQYJKoZIhvcNAQELBQADggEBAGldw+6uLqZGk8jTA+gymgpEMhAZ0axISTgo0czW
0wdp+51cb8RgEFB7UCFn3K39RsORqUqQDe5K0vATiMTUswyJlbQ+F2Z+ogRRxz5P
1oaqyXAuphLO/U3ZqHy/OmAi2csbmMFnzVR5LD2N9CrNBoD6F7zQ9PUAt+OTwzNL
rMbR4vsOIUMxUqkI88SuIY3SPQgCTVAq4oxQLZV1v5nbogzOcuBpNomApzys9kiZ
5MFtiacfN68hOzkyZzK9C/+HjQo2ozG9HG70rU6jEavvskmGKsdf8vi06k5T961k
RKQNkC/Xk/S6b6SNOBYP3L9qcfYC93i0m8w7J/QevTsVPi0=
-----END CERTIFICATE-----
