Certificate:
    Data:
        Version: 3 (0x2)
        Serial Number:
            3a:51:0d:27:49:65:c8:68:e5:f0:ac:8c:19:46:fc:9b:b3:12:f5:fe
        Signature Algorithm: sha256WithRSAEncryption
        Issuer: C = US, ST = Montana, L = Bozeman, OU = Engineering, CN = localhost, emailAddress = info@wolfssl.com
        Validity
            Not Before: Feb 15 12:50:25 2022 GMT
            Not After : Nov 11 12:50:25 2024 GMT
        Subject: C = US, ST = Montana, L = Bozeman, OU = Engineering, CN = localhost, emailAddress = info@wolfssl.com
        Subject Public Key Info:
            Public Key Algorithm: rsaEncryption
                RSA Public-Key: (2048 bit)
                Modulus:
                    00:c0:95:08:e1:57:41:f2:71:6d:b7:d2:45:41:27:
                    01:65:c6:45:ae:f2:bc:24:30:b8:95:ce:2f:4e:d6:
                    f6:1c:88:bc:7c:9f:fb:a8:67:7f:fe:5c:9c:51:75:
                    f7:8a:ca:07:e7:35:2f:8f:e1:bd:7b:c0:2f:7c:ab:
                    64:a8:17:fc:ca:5d:7b:ba:e0:21:e5:72:2e:6f:2e:
                    86:d8:95:73:da:ac:1b:53:b9:5f:3f:d7:19:0d:25:
                    4f:e1:63:63:51:8b:0b:64:3f:ad:43:b8:a5:1c:5c:
                    34:b3:ae:00:a0:63:c5:f6:7f:0b:59:68:78:73:a6:
                    8c:18:a9:02:6d:af:c3:19:01:2e:b8:10:e3:c6:cc:
                    40:b4:69:a3:46:33:69:87:6e:c4:bb:17:a6:f3:e8:
                    dd:ad:73:bc:7b:2f:21:b5:fd:66:51:0c:bd:54:b3:
                    e1:6d:5f:1c:bc:23:73:d1:09:03:89:14:d2:10:b9:
                    64:c3:2a:d0:a1:96:4a:bc:e1:d4:1a:5b:c7:a0:c0:
                    c1:63:78:0f:44:37:30:32:96:80:32:23:95:a1:77:
                    ba:13:d2:97:73:e2:5d:25:c9:6a:0d:c3:39:60:a4:
                    b4:b0:69:42:42:09:e9:d8:08:bc:33:20:b3:58:22:
                    a7:aa:eb:c4:e1:e6:61:83:c5:d2:96:df:d9:d0:4f:
                    ad:d7
                Exponent: 65537 (0x10001)
        X509v3 extensions:
            X509v3 Subject Alternative Name: 
                DNS:localhost
    Signature Algorithm: sha256WithRSAEncryption
         9b:a4:ed:7d:d5:0c:7e:80:78:8c:91:4f:c7:c4:12:8d:04:c1:
         ab:9f:79:ca:6a:3c:a4:1b:13:cd:bc:42:f3:23:f2:3c:4c:c3:
         42:d0:64:15:42:2a:19:51:64:db:a9:7e:6d:78:0f:e9:5f:cd:
         9f:a8:be:4a:0a:10:35:45:a5:8b:af:ea:7c:11:56:b7:2d:42:
         6f:9b:9f:88:28:92:a8:31:8e:37:44:fa:ea:58:d5:01:7f:71:
         b1:b8:9b:b1:a1:19:01:1d:b2:85:bf:f8:35:92:7a:71:07:11:
         35:69:5e:98:f6:41:51:33:02:22:4f:e3:f6:12:b2:b2:2b:5a:
         c3:d8:47:b5:c1:67:53:2d:cf:ee:53:b2:86:c9:49:5d:2d:31:
         7b:2c:88:d7:4c:55:be:b6:d9:9b:2f:7b:04:d8:e5:60:a3:ec:
         f6:b7:b1:3f:a3:2f:34:b1:df:1c:f9:ba:6b:65:6b:aa:d5:5e:
         bb:ea:6a:46:c5:e1:b4:27:0e:24:d4:c4:24:97:70:41:4a:7a:
         12:91:6d:e2:fa:51:91:99:e6:e9:96:8b:67:b5:85:f2:be:85:
         29:58:75:b6:99:dd:c7:18:bd:87:db:4b:c2:8c:69:51:78:28:
         a3:08:8a:c8:90:64:15:02:fd:95:a3:4d:90:95:35:26:86:4b:
         d9:20:96:eb
-----BEGIN CERTIFICATE-----
MIIDnjCCAoagAwIBAgIUOlENJ0llyGjl8KyMGUb8m7MS9f4wDQYJKoZIhvcNAQEL
BQAwfDELMAkGA1UEBhMCVVMxEDAOBgNVBAgMB01vbnRhbmExEDAOBgNVBAcMB0Jv
emVtYW4xFDASBgNVBAsMC0VuZ2luZWVyaW5nMRIwEAYDVQQDDAlsb2NhbGhvc3Qx
HzAdBgkqhkiG9w0BCQEWEGluZm9Ad29sZnNzbC5jb20wHhcNMjIwMjE1MTI1MDI1
WhcNMjQxMTExMTI1MDI1WjB8MQswCQYDVQQGEwJVUzEQMA4GA1UECAwHTW9udGFu
YTEQMA4GA1UEBwwHQm96ZW1hbjEUMBIGA1UECwwLRW5naW5lZXJpbmcxEjAQBgNV
BAMMCWxvY2FsaG9zdDEfMB0GCSqGSIb3DQEJARYQaW5mb0B3b2xmc3NsLmNvbTCC
ASIwDQYJKoZIhvcNAQEBBQADggEPADCCAQoCggEBAMCVCOFXQfJxbbfSRUEnAWXG
Ra7yvCQwuJXOL07W9hyIvHyf+6hnf/5cnFF194rKB+c1L4/hvXvAL3yrZKgX/Mpd
e7rgIeVyLm8uhtiVc9qsG1O5Xz/XGQ0lT+FjY1GLC2Q/rUO4pRxcNLOuAKBjxfZ/
C1loeHOmjBipAm2vwxkBLrgQ48bMQLRpo0YzaYduxLsXpvPo3a1zvHsvIbX9ZlEM
vVSz4W1fHLwjc9EJA4kU0hC5ZMMq0KGWSrzh1Bpbx6DAwWN4D0Q3MDKWgDIjlaF3
uhPSl3PiXSXJag3DOWCktLBpQkIJ6dgIvDMgs1gip6rrxOHmYYPF0pbf2dBPrdcC
AwEAAaMYMBYwFAYDVR0RBA0wC4IJbG9jYWxob3N0MA0GCSqGSIb3DQEBCwUAA4IB
AQCbpO191Qx+gHiMkU/HxBKNBMGrn3nKajykGxPNvELzI/I8TMNC0GQVQioZUWTb
qX5teA/pX82fqL5KChA1RaWLr+p8EVa3LUJvm5+IKJKoMY43RPrqWNUBf3GxuJux
oRkBHbKFv/g1knpxBxE1aV6Y9kFRMwIiT+P2ErKyK1rD2Ee1wWdTLc/uU7KGyUld
LTF7LIjXTFW+ttmbL3sE2OVgo+z2t7E/oy80sd8c+bprZWuq1V676mpGxeG0Jw4k
1MQkl3BBSnoSkW3i+lGRmebplotntYXyvoUpWHW2md3HGL2H20vCjGlReCijCIrI
kGQVAv2Vo02QlTUmhkvZIJbr
-----END CERTIFICATE-----
