Certificate:
    Data:
        Version: 1 (0x0)
        Serial Number:
            23:b5:9f:82:f2:9a:7a:ad:0e:93:75:bd:5f:80:fa:f6:1e:45:46:e7
        Signature Algorithm: sha256WithRSAEncryption
        Issuer: C = US, ST = Montana, L = Bozeman, OU = Engineering, CN = DER:30:0d:82:0b:6c:6f:63:61:6c:68:6f:73:74:00:68, emailAddress = info@wolfssl.com
        Validity
            Not Before: Dec 18 21:25:31 2024 GMT
            Not After : Sep 14 21:25:31 2027 GMT
        Subject: C = US, ST = Montana, L = Bozeman, OU = Engineering, CN = DER:30:0d:82:0b:6c:6f:63:61:6c:68:6f:73:74:00:68, emailAddress = info@wolfssl.com
        Subject Public Key Info:
            Public Key Algorithm: rsaEncryption
                Public-Key: (2048 bit)
                Modulus:
                    00:c0:95:08:e1:57:41:f2:71:6d:b7:d2:45:41:27:
                    01:65:c6:45:ae:f2:bc:24:30:b8:95:ce:2f:4e:d6:
                    f6:1c:88:bc:7c:9f:fb:a8:67:7f:fe:5c:9c:51:75:
                    f7:8a:ca:07:e7:35:2f:8f:e1:bd:7b:c0:2f:7c:ab:
                    64:a8:17:fc:ca:5d:7b:ba:e0:21:e5:72:2e:6f:2e:
                    86:d8:95:73:da:ac:1b:53:b9:5f:3f:d7:19:0d:25:
                    4f:e1:63:63:51:8b:0b:64:3f:ad:43:b8:a5:1c:5c:
                    34:b3:ae:00:a0:63:c5:f6:7f:0b:59:68:78:73:a6:
                    8c:18:a9:02:6d:af:c3:19:01:2e:b8:10:e3:c6:cc:
                    40:b4:69:a3:46:33:69:87:6e:c4:bb:17:a6:f3:e8:
                    dd:ad:73:bc:7b:2f:21:b5:fd:66:51:0c:bd:54:b3:
                    e1:6d:5f:1c:bc:23:73:d1:09:03:89:14:d2:10:b9:
                    64:c3:2a:d0:a1:96:4a:bc:e1:d4:1a:5b:c7:a0:c0:
                    c1:63:78:0f:44:37:30:32:96:80:32:23:95:a1:77:
                    ba:13:d2:97:73:e2:5d:25:c9:6a:0d:c3:39:60:a4:
                    b4:b0:69:42:42:09:e9:d8:08:bc:33:20:b3:58:22:
                    a7:aa:eb:c4:e1:e6:61:83:c5:d2:96:df:d9:d0:4f:
                    ad:d7
                Exponent: 65537 (0x10001)
    Signature Algorithm: sha256WithRSAEncryption
    Signature Value:
        b9:25:d3:2c:c8:09:92:6b:7f:00:9f:9c:ab:f2:96:ac:e7:76:
        a3:0a:84:2b:e2:43:f0:b8:ee:17:8e:42:4e:8e:35:57:17:0c:
        9c:ec:03:66:0d:ea:e8:d8:10:32:7a:6e:31:83:f8:b9:85:37:
        a0:08:04:4d:87:5b:72:db:37:a7:4e:8a:e8:88:29:5d:4e:09:
        81:b8:83:8c:9b:68:5d:4b:a5:f2:07:32:93:a4:28:bd:8b:bc:
        54:fb:ef:40:59:11:fd:bd:57:20:13:79:37:c6:63:15:94:a4:
        cd:2d:40:ae:bf:cb:97:43:82:a7:c8:1e:6f:81:58:5c:03:59:
        20:3a:d8:b7:99:f0:5c:94:49:71:55:8e:10:83:fe:58:b4:b1:
        fb:41:bf:ef:9b:b6:12:f5:91:e4:33:a9:95:0b:50:8c:48:77:
        bd:45:16:8d:11:50:5a:85:71:9a:7a:b9:1b:e5:e3:e1:af:f0:
        3d:fb:19:3a:ef:a5:e1:94:3b:aa:74:12:43:00:fe:27:1e:c5:
        c4:c2:60:56:63:17:aa:69:39:7d:e0:95:74:7e:6e:b2:e3:75:
        d3:a8:6c:b0:36:60:6d:f1:46:7d:ca:08:ad:54:6f:1f:1f:47:
        1e:9f:2e:45:be:35:71:b5:97:aa:92:d4:f9:6c:e9:a9:b6:ce:
        63:1a:86:1d
-----BEGIN CERTIFICATE-----
MIIDzzCCArcCFCO1n4LymnqtDpN1vV+A+vYeRUbnMA0GCSqGSIb3DQEBCwUAMIGj
MQswCQYDVQQGEwJVUzEQMA4GA1UECAwHTW9udGFuYTEQMA4GA1UEBwwHQm96ZW1h
bjEUMBIGA1UECwwLRW5naW5lZXJpbmcxOTA3BgNVBAMMMERFUjozMDowZDo4Mjow
Yjo2Yzo2Zjo2Mzo2MTo2Yzo2ODo2Zjo3Mzo3NDowMDo2ODEfMB0GCSqGSIb3DQEJ
ARYQaW5mb0B3b2xmc3NsLmNvbTAeFw0yNDEyMTgyMTI1MzFaFw0yNzA5MTQyMTI1
MzFaMIGjMQswCQYDVQQGEwJVUzEQMA4GA1UECAwHTW9udGFuYTEQMA4GA1UEBwwH
Qm96ZW1hbjEUMBIGA1UECwwLRW5naW5lZXJpbmcxOTA3BgNVBAMMMERFUjozMDow
ZDo4MjowYjo2Yzo2Zjo2Mzo2MTo2Yzo2ODo2Zjo3Mzo3NDowMDo2ODEfMB0GCSqG
SIb3DQEJARYQaW5mb0B3b2xmc3NsLmNvbTCCASIwDQYJKoZIhvcNAQEBBQADggEP
ADCCAQoCggEBAMCVCOFXQfJxbbfSRUEnAWXGRa7yvCQwuJXOL07W9hyIvHyf+6hn
f/5cnFF194rKB+c1L4/hvXvAL3yrZKgX/Mpde7rgIeVyLm8uhtiVc9qsG1O5Xz/X
GQ0lT+FjY1GLC2Q/rUO4pRxcNLOuAKBjxfZ/C1loeHOmjBipAm2vwxkBLrgQ48bM
QLRpo0YzaYduxLsXpvPo3a1zvHsvIbX9ZlEMvVSz4W1fHLwjc9EJA4kU0hC5ZMMq
0KGWSrzh1Bpbx6DAwWN4D0Q3MDKWgDIjlaF3uhPSl3PiXSXJag3DOWCktLBpQkIJ
6dgIvDMgs1gip6rrxOHmYYPF0pbf2dBPrdcCAwEAATANBgkqhkiG9w0BAQsFAAOC
AQEAuSXTLMgJkmt/AJ+cq/KWrOd2owqEK+JD8LjuF45CTo41VxcMnOwDZg3q6NgQ
MnpuMYP4uYU3oAgETYdbcts3p06K6IgpXU4JgbiDjJtoXUul8gcyk6QovYu8VPvv
QFkR/b1XIBN5N8ZjFZSkzS1Arr/Ll0OCp8geb4FYXANZIDrYt5nwXJRJcVWOEIP+
WLSx+0G/75u2EvWR5DOplQtQjEh3vUUWjRFQWoVxmnq5G+Xj4a/wPfsZOu+l4ZQ7
qnQSQwD+Jx7FxMJgVmMXqmk5feCVdH5usuN106hssDZgbfFGfcoIrVRvHx9HHp8u
Rb41cbWXqpLU+WzpqbbOYxqGHQ==
-----END CERTIFICATE-----
