Certificate:
    Data:
        Version: 3 (0x2)
        Serial Number:
            55:6f:ba:c1:27:17:d6:05:e5:7e:2b:64:44:77:37:6c:43:27:53:1c
        Signature Algorithm: sha256WithRSAEncryption
        Issuer: C = US, ST = Montana, L = Bozeman, OU = Engineering, CN = www.nomatch.com, emailAddress = info@wolfssl.com
        Validity
            Not Before: Dec 18 23:11:23 2024 GMT
            Not After : Sep 14 23:11:23 2027 GMT
        Subject: C = US, ST = Montana, L = Bozeman, OU = Engineering, CN = www.nomatch.com, emailAddress = info@wolfssl.com
        Subject Public Key Info:
            Public Key Algorithm: rsaEncryption
                Public-Key: (2048 bit)
                Modulus:
                    00:c0:95:08:e1:57:41:f2:71:6d:b7:d2:45:41:27:
                    01:65:c6:45:ae:f2:bc:24:30:b8:95:ce:2f:4e:d6:
                    f6:1c:88:bc:7c:9f:fb:a8:67:7f:fe:5c:9c:51:75:
                    f7:8a:ca:07:e7:35:2f:8f:e1:bd:7b:c0:2f:7c:ab:
                    64:a8:17:fc:ca:5d:7b:ba:e0:21:e5:72:2e:6f:2e:
                    86:d8:95:73:da:ac:1b:53:b9:5f:3f:d7:19:0d:25:
                    4f:e1:63:63:51:8b:0b:64:3f:ad:43:b8:a5:1c:5c:
                    34:b3:ae:00:a0:63:c5:f6:7f:0b:59:68:78:73:a6:
                    8c:18:a9:02:6d:af:c3:19:01:2e:b8:10:e3:c6:cc:
                    40:b4:69:a3:46:33:69:87:6e:c4:bb:17:a6:f3:e8:
                    dd:ad:73:bc:7b:2f:21:b5:fd:66:51:0c:bd:54:b3:
                    e1:6d:5f:1c:bc:23:73:d1:09:03:89:14:d2:10:b9:
                    64:c3:2a:d0:a1:96:4a:bc:e1:d4:1a:5b:c7:a0:c0:
                    c1:63:78:0f:44:37:30:32:96:80:32:23:95:a1:77:
                    ba:13:d2:97:73:e2:5d:25:c9:6a:0d:c3:39:60:a4:
                    b4:b0:69:42:42:09:e9:d8:08:bc:33:20:b3:58:22:
                    a7:aa:eb:c4:e1:e6:61:83:c5:d2:96:df:d9:d0:4f:
                    ad:d7
                Exponent: 65537 (0x10001)
        X509v3 extensions:
            X509v3 Subject Alternative Name: 
                DNS:*localhost
            X509v3 Subject Key Identifier: 
                B3:11:32:C9:92:98:84:E2:C9:F8:D0:3B:6E:03:42:CA:1F:0E:8E:3C
    Signature Algorithm: sha256WithRSAEncryption
    Signature Value:
        40:87:46:bf:1e:07:d3:d6:b2:aa:e1:57:60:18:63:cd:98:d0:
        12:81:55:c7:87:62:d4:f8:6d:49:a4:b2:8d:25:5a:7b:10:47:
        1a:21:72:59:fe:47:b8:7e:e2:24:e8:a4:42:e0:30:06:f3:9d:
        aa:47:c5:a2:48:71:30:3b:f8:99:f7:fc:bb:5d:44:59:81:da:
        b9:bb:3c:d3:9c:e5:d7:2d:59:35:2a:0a:48:5f:12:a7:ec:bc:
        0f:34:43:7b:76:eb:1e:c8:25:0a:84:74:da:4a:dc:8b:52:34:
        56:ab:2f:c1:f3:bd:3e:71:94:a5:3c:61:79:1f:5b:28:cd:66:
        3b:d4:e9:82:eb:e5:55:65:eb:44:2b:54:35:d9:1d:6c:d5:c4:
        1d:bf:a7:e0:6f:4b:b9:14:d5:b1:80:82:d6:9e:da:49:e8:7f:
        d1:08:8f:ea:ec:e1:ba:cb:4f:1d:e0:4e:31:39:34:0d:98:62:
        c4:a8:93:28:4a:76:9e:70:c9:43:cd:93:21:ae:38:9e:81:1a:
        aa:0d:91:cc:3a:39:7e:ce:12:6b:7c:4d:6c:26:9a:1a:cb:68:
        af:e4:06:be:8d:36:cc:37:19:0a:67:77:1c:13:c0:42:d6:24:
        52:e3:8e:2c:94:01:f2:54:11:21:8c:1a:08:18:a8:07:8c:73:
        26:53:05:09
-----BEGIN CERTIFICATE-----
MIIDzDCCArSgAwIBAgIUVW+6wScX1gXlfitkRHc3bEMnUxwwDQYJKoZIhvcNAQEL
BQAwgYIxCzAJBgNVBAYTAlVTMRAwDgYDVQQIDAdNb250YW5hMRAwDgYDVQQHDAdC
b3plbWFuMRQwEgYDVQQLDAtFbmdpbmVlcmluZzEYMBYGA1UEAwwPd3d3Lm5vbWF0
Y2guY29tMR8wHQYJKoZIhvcNAQkBFhBpbmZvQHdvbGZzc2wuY29tMB4XDTI0MTIx
ODIzMTEyM1oXDTI3MDkxNDIzMTEyM1owgYIxCzAJBgNVBAYTAlVTMRAwDgYDVQQI
DAdNb250YW5hMRAwDgYDVQQHDAdCb3plbWFuMRQwEgYDVQQLDAtFbmdpbmVlcmlu
ZzEYMBYGA1UEAwwPd3d3Lm5vbWF0Y2guY29tMR8wHQYJKoZIhvcNAQkBFhBpbmZv
QHdvbGZzc2wuY29tMIIBIjANBgkqhkiG9w0BAQEFAAOCAQ8AMIIBCgKCAQEAwJUI
4VdB8nFtt9JFQScBZcZFrvK8JDC4lc4vTtb2HIi8fJ/7qGd//lycUXX3isoH5zUv
j+G9e8AvfKtkqBf8yl17uuAh5XIuby6G2JVz2qwbU7lfP9cZDSVP4WNjUYsLZD+t
Q7ilHFw0s64AoGPF9n8LWWh4c6aMGKkCba/DGQEuuBDjxsxAtGmjRjNph27Euxem
8+jdrXO8ey8htf1mUQy9VLPhbV8cvCNz0QkDiRTSELlkwyrQoZZKvOHUGlvHoMDB
Y3gPRDcwMpaAMiOVoXe6E9KXc+JdJclqDcM5YKS0sGlCQgnp2Ai8MyCzWCKnquvE
4eZhg8XSlt/Z0E+t1wIDAQABozgwNjAVBgNVHREEDjAMggoqbG9jYWxob3N0MB0G
A1UdDgQWBBSzETLJkpiE4sn40DtuA0LKHw6OPDANBgkqhkiG9w0BAQsFAAOCAQEA
QIdGvx4H09ayquFXYBhjzZjQEoFVx4di1PhtSaSyjSVaexBHGiFyWf5HuH7iJOik
QuAwBvOdqkfFokhxMDv4mff8u11EWYHaubs805zl1y1ZNSoKSF8Sp+y8DzRDe3br
HsglCoR02krci1I0VqsvwfO9PnGUpTxheR9bKM1mO9TpguvlVWXrRCtUNdkdbNXE
Hb+n4G9LuRTVsYCC1p7aSeh/0QiP6uzhustPHeBOMTk0DZhixKiTKEp2nnDJQ82T
Ia44noEaqg2RzDo5fs4Sa3xNbCaaGstor+QGvo02zDcZCmd3HBPAQtYkUuOOLJQB
8lQRIYwaCBioB4xzJlMFCQ==
-----END CERTIFICATE-----
