Certificate:
    Data:
        Version: 3 (0x2)
        Serial Number:
            33:9d:a3:77:36:7a:b9:40:c0:3f:62:ae:d7:80:c0:a4:88:f9:82:5f
        Signature Algorithm: sha256WithRSAEncryption
        Issuer: C = US, ST = Montana, L = Bozeman, OU = Engineering, CN = www.nomatch.com, emailAddress = info@wolfssl.com
        Validity
            Not Before: Dec 13 22:19:29 2023 GMT
            Not After : Sep  8 22:19:29 2026 GMT
        Subject: C = US, ST = Montana, L = Bozeman, OU = Engineering, CN = www.nomatch.com, emailAddress = info@wolfssl.com
        Subject Public Key Info:
            Public Key Algorithm: rsaEncryption
                RSA Public-Key: (2048 bit)
                Modulus:
                    00:c0:95:08:e1:57:41:f2:71:6d:b7:d2:45:41:27:
                    01:65:c6:45:ae:f2:bc:24:30:b8:95:ce:2f:4e:d6:
                    f6:1c:88:bc:7c:9f:fb:a8:67:7f:fe:5c:9c:51:75:
                    f7:8a:ca:07:e7:35:2f:8f:e1:bd:7b:c0:2f:7c:ab:
                    64:a8:17:fc:ca:5d:7b:ba:e0:21:e5:72:2e:6f:2e:
                    86:d8:95:73:da:ac:1b:53:b9:5f:3f:d7:19:0d:25:
                    4f:e1:63:63:51:8b:0b:64:3f:ad:43:b8:a5:1c:5c:
                    34:b3:ae:00:a0:63:c5:f6:7f:0b:59:68:78:73:a6:
                    8c:18:a9:02:6d:af:c3:19:01:2e:b8:10:e3:c6:cc:
                    40:b4:69:a3:46:33:69:87:6e:c4:bb:17:a6:f3:e8:
                    dd:ad:73:bc:7b:2f:21:b5:fd:66:51:0c:bd:54:b3:
                    e1:6d:5f:1c:bc:23:73:d1:09:03:89:14:d2:10:b9:
                    64:c3:2a:d0:a1:96:4a:bc:e1:d4:1a:5b:c7:a0:c0:
                    c1:63:78:0f:44:37:30:32:96:80:32:23:95:a1:77:
                    ba:13:d2:97:73:e2:5d:25:c9:6a:0d:c3:39:60:a4:
                    b4:b0:69:42:42:09:e9:d8:08:bc:33:20:b3:58:22:
                    a7:aa:eb:c4:e1:e6:61:83:c5:d2:96:df:d9:d0:4f:
                    ad:d7
                Exponent: 65537 (0x10001)
    Signature Algorithm: sha256WithRSAEncryption
         2f:03:d9:42:ae:10:f3:4b:42:c1:9d:6a:aa:09:da:f1:55:8a:
         0b:76:ce:51:d5:16:95:24:49:ac:14:1b:f6:b4:81:bd:c4:2b:
         9c:f2:34:8b:a5:18:a6:00:82:70:00:c1:8f:26:90:da:70:70:
         60:bf:c8:98:d2:d1:c7:86:fd:68:60:f2:54:46:e5:e0:d9:58:
         c4:85:01:32:b1:02:43:06:61:f5:61:3f:fd:80:b0:75:2c:3a:
         50:d8:c9:11:6e:36:17:8e:e0:a6:3f:b1:bd:17:96:31:c9:04:
         e9:53:84:6a:e6:bc:c3:82:1a:fc:8f:63:e9:68:c9:b3:ed:61:
         8d:08:a2:9d:c8:4e:57:09:50:2c:16:6f:9a:c7:31:cc:6c:fd:
         3c:37:01:06:f1:c7:98:e6:c5:ee:cb:3e:6f:6b:20:bc:dc:64:
         17:2e:d7:5b:95:2a:18:e5:ab:4c:5e:97:1c:e5:7d:e5:72:cd:
         fe:b6:6d:9b:36:c6:4b:70:dc:97:5f:49:31:93:1b:2b:ca:d1:
         c8:12:24:31:c2:78:50:bf:aa:28:e6:42:78:ae:e1:08:7a:64:
         da:46:89:d6:07:4a:cb:51:36:69:11:6c:a9:61:fc:b1:03:21:
         c2:82:6a:15:d7:98:58:1c:40:55:08:e0:32:9e:05:78:c6:a0:
         b8:d9:11:2f
-----BEGIN CERTIFICATE-----
MIIDkjCCAnqgAwIBAgIUM52jdzZ6uUDAP2Ku14DApIj5gl8wDQYJKoZIhvcNAQEL
BQAwgYIxCzAJBgNVBAYTAlVTMRAwDgYDVQQIDAdNb250YW5hMRAwDgYDVQQHDAdC
b3plbWFuMRQwEgYDVQQLDAtFbmdpbmVlcmluZzEYMBYGA1UEAwwPd3d3Lm5vbWF0
Y2guY29tMR8wHQYJKoZIhvcNAQkBFhBpbmZvQHdvbGZzc2wuY29tMB4XDTIzMTIx
MzIyMTkyOVoXDTI2MDkwODIyMTkyOVowgYIxCzAJBgNVBAYTAlVTMRAwDgYDVQQI
DAdNb250YW5hMRAwDgYDVQQHDAdCb3plbWFuMRQwEgYDVQQLDAtFbmdpbmVlcmlu
ZzEYMBYGA1UEAwwPd3d3Lm5vbWF0Y2guY29tMR8wHQYJKoZIhvcNAQkBFhBpbmZv
QHdvbGZzc2wuY29tMIIBIjANBgkqhkiG9w0BAQEFAAOCAQ8AMIIBCgKCAQEAwJUI
4VdB8nFtt9JFQScBZcZFrvK8JDC4lc4vTtb2HIi8fJ/7qGd//lycUXX3isoH5zUv
j+G9e8AvfKtkqBf8yl17uuAh5XIuby6G2JVz2qwbU7lfP9cZDSVP4WNjUYsLZD+t
Q7ilHFw0s64AoGPF9n8LWWh4c6aMGKkCba/DGQEuuBDjxsxAtGmjRjNph27Euxem
8+jdrXO8ey8htf1mUQy9VLPhbV8cvCNz0QkDiRTSELlkwyrQoZZKvOHUGlvHoMDB
Y3gPRDcwMpaAMiOVoXe6E9KXc+JdJclqDcM5YKS0sGlCQgnp2Ai8MyCzWCKnquvE
4eZhg8XSlt/Z0E+t1wIDAQABMA0GCSqGSIb3DQEBCwUAA4IBAQAvA9lCrhDzS0LB
nWqqCdrxVYoLds5R1RaVJEmsFBv2tIG9xCuc8jSLpRimAIJwAMGPJpDacHBgv8iY
0tHHhv1oYPJURuXg2VjEhQEysQJDBmH1YT/9gLB1LDpQ2MkRbjYXjuCmP7G9F5Yx
yQTpU4Rq5rzDghr8j2PpaMmz7WGNCKKdyE5XCVAsFm+axzHMbP08NwEG8ceY5sXu
yz5vayC83GQXLtdblSoY5atMXpcc5X3lcs3+tm2bNsZLcNyXX0kxkxsrytHIEiQx
wnhQv6oo5kJ4ruEIemTaRonWB0rLUTZpEWypYfyxAyHCgmoV15hYHEBVCOAyngV4
xqC42REv
-----END CERTIFICATE-----
