Certificate:
    Data:
        Version: 3 (0x2)
        Serial Number:
            02:17:be:98:88:b8:ac:3f:f9:f3:e3:55:4a:f8:57:4b:73:62:6c:e5
        Signature Algorithm: sha256WithRSAEncryption
        Issuer: C = US, ST = Montana, L = Bozeman, OU = Engineering, CN = localhost, emailAddress = info@wolfssl.com
        Validity
            Not Before: Dec 20 23:07:25 2021 GMT
            Not After : Sep 15 23:07:25 2024 GMT
        Subject: C = US, ST = Montana, L = Bozeman, OU = Engineering, CN = localhost, emailAddress = info@wolfssl.com
        Subject Public Key Info:
            Public Key Algorithm: rsaEncryption
                RSA Public-Key: (2048 bit)
                Modulus:
                    00:c0:95:08:e1:57:41:f2:71:6d:b7:d2:45:41:27:
                    01:65:c6:45:ae:f2:bc:24:30:b8:95:ce:2f:4e:d6:
                    f6:1c:88:bc:7c:9f:fb:a8:67:7f:fe:5c:9c:51:75:
                    f7:8a:ca:07:e7:35:2f:8f:e1:bd:7b:c0:2f:7c:ab:
                    64:a8:17:fc:ca:5d:7b:ba:e0:21:e5:72:2e:6f:2e:
                    86:d8:95:73:da:ac:1b:53:b9:5f:3f:d7:19:0d:25:
                    4f:e1:63:63:51:8b:0b:64:3f:ad:43:b8:a5:1c:5c:
                    34:b3:ae:00:a0:63:c5:f6:7f:0b:59:68:78:73:a6:
                    8c:18:a9:02:6d:af:c3:19:01:2e:b8:10:e3:c6:cc:
                    40:b4:69:a3:46:33:69:87:6e:c4:bb:17:a6:f3:e8:
                    dd:ad:73:bc:7b:2f:21:b5:fd:66:51:0c:bd:54:b3:
                    e1:6d:5f:1c:bc:23:73:d1:09:03:89:14:d2:10:b9:
                    64:c3:2a:d0:a1:96:4a:bc:e1:d4:1a:5b:c7:a0:c0:
                    c1:63:78:0f:44:37:30:32:96:80:32:23:95:a1:77:
                    ba:13:d2:97:73:e2:5d:25:c9:6a:0d:c3:39:60:a4:
                    b4:b0:69:42:42:09:e9:d8:08:bc:33:20:b3:58:22:
                    a7:aa:eb:c4:e1:e6:61:83:c5:d2:96:df:d9:d0:4f:
                    ad:d7
                Exponent: 65537 (0x10001)
    Signature Algorithm: sha256WithRSAEncryption
         70:02:b0:eb:28:06:0d:32:9e:0c:9d:da:7a:79:67:f6:ea:77:
         f1:e8:6b:fe:d0:30:bf:38:8c:40:71:27:d4:b9:13:ac:94:59:
         63:b4:81:f3:d9:cf:65:7a:09:3f:ab:87:35:35:cb:1f:84:a2:
         18:26:4a:7e:3b:59:04:34:c1:3b:b4:df:92:76:2e:d3:16:09:
         e7:cf:de:05:e5:39:27:ff:ed:55:fc:c5:66:81:07:d3:ac:e7:
         45:7f:9c:37:2f:4d:44:d1:09:9f:98:1f:27:17:5f:cf:7d:bc:
         47:90:94:97:4f:47:d3:d3:8a:ea:09:61:8d:11:a6:0f:f8:90:
         48:f8:c7:a6:35:4c:c6:f9:be:70:aa:ae:88:af:03:77:62:9c:
         d0:a1:20:f5:f8:33:d9:63:53:07:93:65:3b:d9:8e:17:9a:67:
         26:26:9e:c5:1e:25:f7:b9:66:39:4b:39:fe:85:17:e7:94:1c:
         2a:4e:82:22:c5:46:19:70:5b:55:e6:7c:b1:9d:64:c4:d2:6a:
         34:99:43:7f:df:d8:c6:43:e9:77:e2:f0:5a:3e:73:ab:30:b7:
         8f:d5:c6:5a:41:66:fd:5a:a4:c4:27:9a:5e:99:83:1d:cc:8c:
         e1:91:9b:fd:9d:f4:a0:b4:0f:22:cc:7d:29:cd:43:18:3a:4d:
         f0:bb:9c:82
-----BEGIN CERTIFICATE-----
MIIDhDCCAmygAwIBAgIUAhe+mIi4rD/58+NVSvhXS3NibOUwDQYJKoZIhvcNAQEL
BQAwfDELMAkGA1UEBhMCVVMxEDAOBgNVBAgMB01vbnRhbmExEDAOBgNVBAcMB0Jv
emVtYW4xFDASBgNVBAsMC0VuZ2luZWVyaW5nMRIwEAYDVQQDDAlsb2NhbGhvc3Qx
HzAdBgkqhkiG9w0BCQEWEGluZm9Ad29sZnNzbC5jb20wHhcNMjExMjIwMjMwNzI1
WhcNMjQwOTE1MjMwNzI1WjB8MQswCQYDVQQGEwJVUzEQMA4GA1UECAwHTW9udGFu
YTEQMA4GA1UEBwwHQm96ZW1hbjEUMBIGA1UECwwLRW5naW5lZXJpbmcxEjAQBgNV
BAMMCWxvY2FsaG9zdDEfMB0GCSqGSIb3DQEJARYQaW5mb0B3b2xmc3NsLmNvbTCC
ASIwDQYJKoZIhvcNAQEBBQADggEPADCCAQoCggEBAMCVCOFXQfJxbbfSRUEnAWXG
Ra7yvCQwuJXOL07W9hyIvHyf+6hnf/5cnFF194rKB+c1L4/hvXvAL3yrZKgX/Mpd
e7rgIeVyLm8uhtiVc9qsG1O5Xz/XGQ0lT+FjY1GLC2Q/rUO4pRxcNLOuAKBjxfZ/
C1loeHOmjBipAm2vwxkBLrgQ48bMQLRpo0YzaYduxLsXpvPo3a1zvHsvIbX9ZlEM
vVSz4W1fHLwjc9EJA4kU0hC5ZMMq0KGWSrzh1Bpbx6DAwWN4D0Q3MDKWgDIjlaF3
uhPSl3PiXSXJag3DOWCktLBpQkIJ6dgIvDMgs1gip6rrxOHmYYPF0pbf2dBPrdcC
AwEAATANBgkqhkiG9w0BAQsFAAOCAQEAcAKw6ygGDTKeDJ3aenln9up38ehr/tAw
vziMQHEn1LkTrJRZY7SB89nPZXoJP6uHNTXLH4SiGCZKfjtZBDTBO7TfknYu0xYJ
58/eBeU5J//tVfzFZoEH06znRX+cNy9NRNEJn5gfJxdfz328R5CUl09H09OK6glh
jRGmD/iQSPjHpjVMxvm+cKquiK8Dd2Kc0KEg9fgz2WNTB5NlO9mOF5pnJiaexR4l
97lmOUs5/oUX55QcKk6CIsVGGXBbVeZ8sZ1kxNJqNJlDf9/YxkPpd+LwWj5zqzC3
j9XGWkFm/VqkxCeaXpmDHcyM4ZGb/Z30oLQPIsx9Kc1DGDpN8Lucgg==
-----END CERTIFICATE-----
