Certificate:
    Data:
        Version: 3 (0x2)
        Serial Number: 2 (0x2)
    Signature Algorithm: sha256WithRSAEncryption
        Issuer: C=US, ST=Montana, L=Bozeman, O=Sawtooth, OU=Consulting, CN=www.wolfssl.com/emailAddress=info@wolfssl.com
        Validity
            Not Before: Feb 10 19:49:53 2021 GMT
            Not After : Nov  7 19:49:53 2023 GMT
        Subject: C=US, ST=Montana, L=Bozeman, O=wolfSSL, OU=testing duplicate policy, CN=www.wolfssl.com/emailAddress=info@wolfssl.com
        Subject Public Key Info:
            Public Key Algorithm: rsaEncryption
                Public-Key: (2048 bit)
                Modulus:
                    00:c0:95:08:e1:57:41:f2:71:6d:b7:d2:45:41:27:
                    01:65:c6:45:ae:f2:bc:24:30:b8:95:ce:2f:4e:d6:
                    f6:1c:88:bc:7c:9f:fb:a8:67:7f:fe:5c:9c:51:75:
                    f7:8a:ca:07:e7:35:2f:8f:e1:bd:7b:c0:2f:7c:ab:
                    64:a8:17:fc:ca:5d:7b:ba:e0:21:e5:72:2e:6f:2e:
                    86:d8:95:73:da:ac:1b:53:b9:5f:3f:d7:19:0d:25:
                    4f:e1:63:63:51:8b:0b:64:3f:ad:43:b8:a5:1c:5c:
                    34:b3:ae:00:a0:63:c5:f6:7f:0b:59:68:78:73:a6:
                    8c:18:a9:02:6d:af:c3:19:01:2e:b8:10:e3:c6:cc:
                    40:b4:69:a3:46:33:69:87:6e:c4:bb:17:a6:f3:e8:
                    dd:ad:73:bc:7b:2f:21:b5:fd:66:51:0c:bd:54:b3:
                    e1:6d:5f:1c:bc:23:73:d1:09:03:89:14:d2:10:b9:
                    64:c3:2a:d0:a1:96:4a:bc:e1:d4:1a:5b:c7:a0:c0:
                    c1:63:78:0f:44:37:30:32:96:80:32:23:95:a1:77:
                    ba:13:d2:97:73:e2:5d:25:c9:6a:0d:c3:39:60:a4:
                    b4:b0:69:42:42:09:e9:d8:08:bc:33:20:b3:58:22:
                    a7:aa:eb:c4:e1:e6:61:83:c5:d2:96:df:d9:d0:4f:
                    ad:d7
                Exponent: 65537 (0x10001)
        X509v3 extensions:
            X509v3 Subject Key Identifier: 
                B3:11:32:C9:92:98:84:E2:C9:F8:D0:3B:6E:03:42:CA:1F:0E:8E:3C
            X509v3 Authority Key Identifier: 
                keyid:27:8E:67:11:74:C3:26:1D:3F:ED:33:63:B3:A4:D8:1D:30:E5:E8:D5
                DirName:/C=US/ST=Montana/L=Bozeman/O=Sawtooth/OU=Consulting/CN=www.wolfssl.com/emailAddress=info@wolfssl.com
                serial:AA:D3:3F:AC:18:0A:37:4D

            X509v3 Basic Constraints: 
                CA:FALSE
            X509v3 Certificate Policies: 
                Policy: 1.2.3.4
                Policy: 1.2.3.4
                  CPS: www.wolfssl.com
                  User Notice:
                    Explicit Text: Test of duplicate OIDs with different qualifiers

    Signature Algorithm: sha256WithRSAEncryption
         89:48:e9:bf:9d:98:fc:e3:b5:32:80:9c:b8:18:31:37:df:6b:
         5b:f9:ca:f1:50:b2:10:d2:97:91:31:7b:3b:e0:f9:ec:d3:45:
         83:47:c0:a6:86:e0:f9:a2:46:f8:7a:22:54:9e:37:b5:43:3d:
         de:13:7f:a1:79:2b:1e:c9:a5:1f:96:23:fb:43:cb:94:7f:55:
         37:9a:7e:4e:73:90:1f:aa:07:92:b7:86:f9:0d:36:c0:94:53:
         91:86:ec:ed:b3:e7:44:b4:9e:27:d2:b7:ff:f8:d0:98:32:5e:
         9d:24:9d:59:3a:06:82:3e:58:0f:93:f3:c5:85:23:ef:ec:1a:
         05:a0:0c:db:ac:e1:7c:67:84:0c:92:0e:81:e3:57:4e:5a:8a:
         a9:05:f2:38:73:78:c9:12:8a:45:c5:5a:f0:a6:2a:de:b9:29:
         7d:9f:69:07:af:06:2a:e8:cc:3b:35:ea:7b:f3:43:2f:24:15:
         1b:93:f2:3a:1d:0f:e5:e6:20:4c:a8:6a:42:32:71:5a:f8:3a:
         41:5e:35:bb:0a:c3:4e:b5:12:6a:ae:e1:97:cb:94:b9:71:14:
         a2:63:a4:f0:c4:07:31:57:6e:f8:f8:05:25:dd:36:bb:83:f8:
         60:53:b2:4c:75:92:44:fc:24:21:1e:65:94:9e:0a:86:73:34:
         45:f7:1b:88
-----BEGIN CERTIFICATE-----
MIIFJjCCBA6gAwIBAgIBAjANBgkqhkiG9w0BAQsFADCBlDELMAkGA1UEBhMCVVMx
EDAOBgNVBAgMB01vbnRhbmExEDAOBgNVBAcMB0JvemVtYW4xETAPBgNVBAoMCFNh
d3Rvb3RoMRMwEQYDVQQLDApDb25zdWx0aW5nMRgwFgYDVQQDDA93d3cud29sZnNz
bC5jb20xHzAdBgkqhkiG9w0BCQEWEGluZm9Ad29sZnNzbC5jb20wHhcNMjEwMjEw
MTk0OTUzWhcNMjMxMTA3MTk0OTUzWjCBoTELMAkGA1UEBhMCVVMxEDAOBgNVBAgM
B01vbnRhbmExEDAOBgNVBAcMB0JvemVtYW4xEDAOBgNVBAoMB3dvbGZTU0wxITAf
BgNVBAsMGHRlc3RpbmcgZHVwbGljYXRlIHBvbGljeTEYMBYGA1UEAwwPd3d3Lndv
bGZzc2wuY29tMR8wHQYJKoZIhvcNAQkBFhBpbmZvQHdvbGZzc2wuY29tMIIBIjAN
BgkqhkiG9w0BAQEFAAOCAQ8AMIIBCgKCAQEAwJUI4VdB8nFtt9JFQScBZcZFrvK8
JDC4lc4vTtb2HIi8fJ/7qGd//lycUXX3isoH5zUvj+G9e8AvfKtkqBf8yl17uuAh
5XIuby6G2JVz2qwbU7lfP9cZDSVP4WNjUYsLZD+tQ7ilHFw0s64AoGPF9n8LWWh4
c6aMGKkCba/DGQEuuBDjxsxAtGmjRjNph27Euxem8+jdrXO8ey8htf1mUQy9VLPh
bV8cvCNz0QkDiRTSELlkwyrQoZZKvOHUGlvHoMDBY3gPRDcwMpaAMiOVoXe6E9KX
c+JdJclqDcM5YKS0sGlCQgnp2Ai8MyCzWCKnquvE4eZhg8XSlt/Z0E+t1wIDAQAB
o4IBcjCCAW4wHQYDVR0OBBYEFLMRMsmSmITiyfjQO24DQsofDo48MIHJBgNVHSME
gcEwgb6AFCeOZxF0wyYdP+0zY7Ok2B0w5ejVoYGapIGXMIGUMQswCQYDVQQGEwJV
UzEQMA4GA1UECAwHTW9udGFuYTEQMA4GA1UEBwwHQm96ZW1hbjERMA8GA1UECgwI
U2F3dG9vdGgxEzARBgNVBAsMCkNvbnN1bHRpbmcxGDAWBgNVBAMMD3d3dy53b2xm
c3NsLmNvbTEfMB0GCSqGSIb3DQEJARYQaW5mb0B3b2xmc3NsLmNvbYIJAKrTP6wY
CjdNMAkGA1UdEwQCMAAwdgYDVR0gBG8wbTAFBgMqAwQwZAYDKgMEMF0wGwYIKwYB
BQUHAgEWD3d3dy53b2xmc3NsLmNvbTA+BggrBgEFBQcCAjAyGjBUZXN0IG9mIGR1
cGxpY2F0ZSBPSURzIHdpdGggZGlmZmVyZW50IHF1YWxpZmllcnMwDQYJKoZIhvcN
AQELBQADggEBAIlI6b+dmPzjtTKAnLgYMTffa1v5yvFQshDSl5Exezvg+ezTRYNH
wKaG4PmiRvh6IlSeN7VDPd4Tf6F5Kx7JpR+WI/tDy5R/VTeafk5zkB+qB5K3hvkN
NsCUU5GG7O2z50S0nifSt//40JgyXp0knVk6BoI+WA+T88WFI+/sGgWgDNus4Xxn
hAySDoHjV05aiqkF8jhzeMkSikXFWvCmKt65KX2faQevBirozDs16nvzQy8kFRuT
8jodD+XmIEyoakIycVr4OkFeNbsKw061Emqu4ZfLlLlxFKJjpPDEBzFXbvj4BSXd
NruD+GBTskx1kkT8JCEeZZSeCoZzNEX3G4g=
-----END CERTIFICATE-----
Certificate:
    Data:
        Version: 3 (0x2)
        Serial Number: 12309252214903945037 (0xaad33fac180a374d)
    Signature Algorithm: sha256WithRSAEncryption
        Issuer: C=US, ST=Montana, L=Bozeman, O=Sawtooth, OU=Consulting, CN=www.wolfssl.com/emailAddress=info@wolfssl.com
        Validity
            Not Before: Feb 10 19:49:52 2021 GMT
            Not After : Nov  7 19:49:52 2023 GMT
        Subject: C=US, ST=Montana, L=Bozeman, O=Sawtooth, OU=Consulting, CN=www.wolfssl.com/emailAddress=info@wolfssl.com
        Subject Public Key Info:
            Public Key Algorithm: rsaEncryption
                Public-Key: (2048 bit)
                Modulus:
                    00:bf:0c:ca:2d:14:b2:1e:84:42:5b:cd:38:1f:4a:
                    f2:4d:75:10:f1:b6:35:9f:df:ca:7d:03:98:d3:ac:
                    de:03:66:ee:2a:f1:d8:b0:7d:6e:07:54:0b:10:98:
                    21:4d:80:cb:12:20:e7:cc:4f:de:45:7d:c9:72:77:
                    32:ea:ca:90:bb:69:52:10:03:2f:a8:f3:95:c5:f1:
                    8b:62:56:1b:ef:67:6f:a4:10:41:95:ad:0a:9b:e3:
                    a5:c0:b0:d2:70:76:50:30:5b:a8:e8:08:2c:7c:ed:
                    a7:a2:7a:8d:38:29:1c:ac:c7:ed:f2:7c:95:b0:95:
                    82:7d:49:5c:38:cd:77:25:ef:bd:80:75:53:94:3c:
                    3d:ca:63:5b:9f:15:b5:d3:1d:13:2f:19:d1:3c:db:
                    76:3a:cc:b8:7d:c9:e5:c2:d7:da:40:6f:d8:21:dc:
                    73:1b:42:2d:53:9c:fe:1a:fc:7d:ab:7a:36:3f:98:
                    de:84:7c:05:67:ce:6a:14:38:87:a9:f1:8c:b5:68:
                    cb:68:7f:71:20:2b:f5:a0:63:f5:56:2f:a3:26:d2:
                    b7:6f:b1:5a:17:d7:38:99:08:fe:93:58:6f:fe:c3:
                    13:49:08:16:0b:a7:4d:67:00:52:31:67:23:4e:98:
                    ed:51:45:1d:b9:04:d9:0b:ec:d8:28:b3:4b:bd:ed:
                    36:79
                Exponent: 65537 (0x10001)
        X509v3 extensions:
            X509v3 Subject Key Identifier: 
                27:8E:67:11:74:C3:26:1D:3F:ED:33:63:B3:A4:D8:1D:30:E5:E8:D5
            X509v3 Authority Key Identifier: 
                keyid:27:8E:67:11:74:C3:26:1D:3F:ED:33:63:B3:A4:D8:1D:30:E5:E8:D5
                DirName:/C=US/ST=Montana/L=Bozeman/O=Sawtooth/OU=Consulting/CN=www.wolfssl.com/emailAddress=info@wolfssl.com
                serial:AA:D3:3F:AC:18:0A:37:4D

            X509v3 Basic Constraints: 
                CA:TRUE
            X509v3 Subject Alternative Name: 
                DNS:example.com, IP Address:127.0.0.1
            X509v3 Extended Key Usage: 
                TLS Web Server Authentication, TLS Web Client Authentication
    Signature Algorithm: sha256WithRSAEncryption
         62:98:c8:58:cf:56:03:86:5b:1b:71:49:7d:05:03:5d:e0:08:
         86:ad:db:4a:de:ab:22:96:a8:c3:59:68:c1:37:90:40:df:bd:
         89:d0:bc:da:8e:ef:87:b2:c2:62:52:e1:1a:29:17:6a:96:99:
         c8:4e:d8:32:fe:b8:d1:5c:3b:0a:c2:3c:5f:a1:1e:98:7f:ce:
         89:26:21:1f:64:9c:15:7a:9c:ef:fb:1d:85:6a:fa:98:ce:a8:
         a9:ab:c3:a2:c0:eb:87:ed:bc:21:df:f3:07:5b:ae:fd:40:d4:
         ae:20:d0:76:8a:31:0a:a2:62:7c:61:0d:ce:5d:9a:1e:e4:20:
         88:51:49:fb:77:a9:cd:4d:c6:bf:54:99:33:ef:4b:a0:73:70:
         6d:2e:d9:3d:08:f6:12:39:31:68:c6:61:5c:41:b5:1b:f4:38:
         7d:fc:be:73:66:2d:f7:ca:5b:2c:5b:31:aa:cf:f6:7f:30:e4:
         12:2c:8e:d6:38:51:e6:45:ee:d5:da:c3:83:d6:ed:5e:ec:d6:
         b6:14:b3:93:59:e1:55:4a:7f:04:df:ce:65:d4:df:18:4f:dd:
         b4:45:7f:a6:56:30:c4:05:44:98:9d:4f:26:6d:84:80:a0:5e:
         ed:23:d1:48:87:0e:05:06:91:3b:b0:3c:bb:8c:8f:3c:7b:4c:
         4f:a1:ca:98
-----BEGIN CERTIFICATE-----
MIIE6TCCA9GgAwIBAgIJAKrTP6wYCjdNMA0GCSqGSIb3DQEBCwUAMIGUMQswCQYD
VQQGEwJVUzEQMA4GA1UECAwHTW9udGFuYTEQMA4GA1UEBwwHQm96ZW1hbjERMA8G
A1UECgwIU2F3dG9vdGgxEzARBgNVBAsMCkNvbnN1bHRpbmcxGDAWBgNVBAMMD3d3
dy53b2xmc3NsLmNvbTEfMB0GCSqGSIb3DQEJARYQaW5mb0B3b2xmc3NsLmNvbTAe
Fw0yMTAyMTAxOTQ5NTJaFw0yMzExMDcxOTQ5NTJaMIGUMQswCQYDVQQGEwJVUzEQ
MA4GA1UECAwHTW9udGFuYTEQMA4GA1UEBwwHQm96ZW1hbjERMA8GA1UECgwIU2F3
dG9vdGgxEzARBgNVBAsMCkNvbnN1bHRpbmcxGDAWBgNVBAMMD3d3dy53b2xmc3Ns
LmNvbTEfMB0GCSqGSIb3DQEJARYQaW5mb0B3b2xmc3NsLmNvbTCCASIwDQYJKoZI
hvcNAQEBBQADggEPADCCAQoCggEBAL8Myi0Ush6EQlvNOB9K8k11EPG2NZ/fyn0D
mNOs3gNm7irx2LB9bgdUCxCYIU2AyxIg58xP3kV9yXJ3MurKkLtpUhADL6jzlcXx
i2JWG+9nb6QQQZWtCpvjpcCw0nB2UDBbqOgILHztp6J6jTgpHKzH7fJ8lbCVgn1J
XDjNdyXvvYB1U5Q8PcpjW58VtdMdEy8Z0TzbdjrMuH3J5cLX2kBv2CHccxtCLVOc
/hr8fat6Nj+Y3oR8BWfOahQ4h6nxjLVoy2h/cSAr9aBj9VYvoybSt2+xWhfXOJkI
/pNYb/7DE0kIFgunTWcAUjFnI06Y7VFFHbkE2Qvs2CizS73tNnkCAwEAAaOCATow
ggE2MB0GA1UdDgQWBBQnjmcRdMMmHT/tM2OzpNgdMOXo1TCByQYDVR0jBIHBMIG+
gBQnjmcRdMMmHT/tM2OzpNgdMOXo1aGBmqSBlzCBlDELMAkGA1UEBhMCVVMxEDAO
BgNVBAgMB01vbnRhbmExEDAOBgNVBAcMB0JvemVtYW4xETAPBgNVBAoMCFNhd3Rv
b3RoMRMwEQYDVQQLDApDb25zdWx0aW5nMRgwFgYDVQQDDA93d3cud29sZnNzbC5j
b20xHzAdBgkqhkiG9w0BCQEWEGluZm9Ad29sZnNzbC5jb22CCQCq0z+sGAo3TTAM
BgNVHRMEBTADAQH/MBwGA1UdEQQVMBOCC2V4YW1wbGUuY29thwR/AAABMB0GA1Ud
JQQWMBQGCCsGAQUFBwMBBggrBgEFBQcDAjANBgkqhkiG9w0BAQsFAAOCAQEAYpjI
WM9WA4ZbG3FJfQUDXeAIhq3bSt6rIpaow1lowTeQQN+9idC82o7vh7LCYlLhGikX
apaZyE7YMv640Vw7CsI8X6EemH/OiSYhH2ScFXqc7/sdhWr6mM6oqavDosDrh+28
Id/zB1uu/UDUriDQdooxCqJifGENzl2aHuQgiFFJ+3epzU3Gv1SZM+9LoHNwbS7Z
PQj2EjkxaMZhXEG1G/Q4ffy+c2Yt98pbLFsxqs/2fzDkEiyO1jhR5kXu1drDg9bt
XuzWthSzk1nhVUp/BN/OZdTfGE/dtEV/plYwxAVEmJ1PJm2EgKBe7SPRSIcOBQaR
O7A8u4yPPHtMT6HKmA==
-----END CERTIFICATE-----
