Certificate:
    Data:
        Version: 3 (0x2)
        Serial Number:
            5b:6e:37:ff:6f:59:9b:23:63:13:8f:d2:c3:a7:c6:8a:6a:14:92:31
        Signature Algorithm: sha256WithRSAEncryption
        Issuer: C = US, ST = Montana, L = Bozeman, OU = Engineering, CN = www.nomatch.com, emailAddress = info@wolfssl.com
        Validity
            Not Before: Dec 18 23:11:23 2024 GMT
            Not After : Sep 14 23:11:23 2027 GMT
        Subject: C = US, ST = Montana, L = Bozeman, OU = Engineering, CN = www.nomatch.com, emailAddress = info@wolfssl.com
        Subject Public Key Info:
            Public Key Algorithm: rsaEncryption
                Public-Key: (2048 bit)
                Modulus:
                    00:c0:95:08:e1:57:41:f2:71:6d:b7:d2:45:41:27:
                    01:65:c6:45:ae:f2:bc:24:30:b8:95:ce:2f:4e:d6:
                    f6:1c:88:bc:7c:9f:fb:a8:67:7f:fe:5c:9c:51:75:
                    f7:8a:ca:07:e7:35:2f:8f:e1:bd:7b:c0:2f:7c:ab:
                    64:a8:17:fc:ca:5d:7b:ba:e0:21:e5:72:2e:6f:2e:
                    86:d8:95:73:da:ac:1b:53:b9:5f:3f:d7:19:0d:25:
                    4f:e1:63:63:51:8b:0b:64:3f:ad:43:b8:a5:1c:5c:
                    34:b3:ae:00:a0:63:c5:f6:7f:0b:59:68:78:73:a6:
                    8c:18:a9:02:6d:af:c3:19:01:2e:b8:10:e3:c6:cc:
                    40:b4:69:a3:46:33:69:87:6e:c4:bb:17:a6:f3:e8:
                    dd:ad:73:bc:7b:2f:21:b5:fd:66:51:0c:bd:54:b3:
                    e1:6d:5f:1c:bc:23:73:d1:09:03:89:14:d2:10:b9:
                    64:c3:2a:d0:a1:96:4a:bc:e1:d4:1a:5b:c7:a0:c0:
                    c1:63:78:0f:44:37:30:32:96:80:32:23:95:a1:77:
                    ba:13:d2:97:73:e2:5d:25:c9:6a:0d:c3:39:60:a4:
                    b4:b0:69:42:42:09:e9:d8:08:bc:33:20:b3:58:22:
                    a7:aa:eb:c4:e1:e6:61:83:c5:d2:96:df:d9:d0:4f:
                    ad:d7
                Exponent: 65537 (0x10001)
        X509v3 extensions:
            X509v3 Subject Alternative Name: 
                0..localhost.h
            X509v3 Subject Key Identifier: 
                B3:11:32:C9:92:98:84:E2:C9:F8:D0:3B:6E:03:42:CA:1F:0E:8E:3C
    Signature Algorithm: sha256WithRSAEncryption
    Signature Value:
        7b:28:fc:26:31:e7:6f:e7:da:82:ea:7e:e8:f4:f6:f4:23:fb:
        c8:97:e9:c8:f2:25:50:f6:02:90:4c:ad:df:5d:9b:0e:02:e8:
        93:94:30:88:0b:09:7d:fd:0f:90:2b:d1:06:b0:4f:96:1a:9e:
        ca:1e:3b:13:97:96:3f:fe:b4:d7:73:bc:c3:ad:c3:31:90:c9:
        85:87:63:1a:75:29:74:b5:3c:79:a7:5f:b8:83:16:98:03:a8:
        9e:09:9c:91:97:67:78:ba:6b:96:f6:fa:fc:56:81:bc:3d:3e:
        47:5f:01:c4:ad:e1:8d:65:24:ca:31:37:49:d0:cf:8e:cc:9e:
        c6:3f:3e:b7:98:62:0c:6c:f0:01:8f:03:0b:79:06:69:1c:52:
        7d:01:80:4e:09:b1:fb:80:64:19:76:bd:42:be:bf:59:85:e5:
        70:88:a9:8d:19:19:e1:64:54:ed:71:1e:08:04:cf:64:23:e7:
        6e:23:d1:5d:cc:46:3c:c2:00:14:dc:84:91:b5:bc:ae:e4:a1:
        d0:f5:92:3f:9c:eb:28:02:cd:ca:e8:90:cd:68:41:20:a3:ed:
        d3:73:99:ac:74:da:91:21:79:ca:5f:8d:d7:93:b6:14:66:8b:
        f4:0f:bd:17:fd:9c:d6:40:e0:52:42:26:dd:45:f3:f5:7b:53:
        14:7f:a5:08
-----BEGIN CERTIFICATE-----
MIIDzTCCArWgAwIBAgIUW243/29ZmyNjE4/Sw6fGimoUkjEwDQYJKoZIhvcNAQEL
BQAwgYIxCzAJBgNVBAYTAlVTMRAwDgYDVQQIDAdNb250YW5hMRAwDgYDVQQHDAdC
b3plbWFuMRQwEgYDVQQLDAtFbmdpbmVlcmluZzEYMBYGA1UEAwwPd3d3Lm5vbWF0
Y2guY29tMR8wHQYJKoZIhvcNAQkBFhBpbmZvQHdvbGZzc2wuY29tMB4XDTI0MTIx
ODIzMTEyM1oXDTI3MDkxNDIzMTEyM1owgYIxCzAJBgNVBAYTAlVTMRAwDgYDVQQI
DAdNb250YW5hMRAwDgYDVQQHDAdCb3plbWFuMRQwEgYDVQQLDAtFbmdpbmVlcmlu
ZzEYMBYGA1UEAwwPd3d3Lm5vbWF0Y2guY29tMR8wHQYJKoZIhvcNAQkBFhBpbmZv
QHdvbGZzc2wuY29tMIIBIjANBgkqhkiG9w0BAQEFAAOCAQ8AMIIBCgKCAQEAwJUI
4VdB8nFtt9JFQScBZcZFrvK8JDC4lc4vTtb2HIi8fJ/7qGd//lycUXX3isoH5zUv
j+G9e8AvfKtkqBf8yl17uuAh5XIuby6G2JVz2qwbU7lfP9cZDSVP4WNjUYsLZD+t
Q7ilHFw0s64AoGPF9n8LWWh4c6aMGKkCba/DGQEuuBDjxsxAtGmjRjNph27Euxem
8+jdrXO8ey8htf1mUQy9VLPhbV8cvCNz0QkDiRTSELlkwyrQoZZKvOHUGlvHoMDB
Y3gPRDcwMpaAMiOVoXe6E9KXc+JdJclqDcM5YKS0sGlCQgnp2Ai8MyCzWCKnquvE
4eZhg8XSlt/Z0E+t1wIDAQABozkwNzAWBgNVHREEDzANggtsb2NhbGhvc3QAaDAd
BgNVHQ4EFgQUsxEyyZKYhOLJ+NA7bgNCyh8OjjwwDQYJKoZIhvcNAQELBQADggEB
AHso/CYx52/n2oLqfuj09vQj+8iX6cjyJVD2ApBMrd9dmw4C6JOUMIgLCX39D5Ar
0QawT5YansoeOxOXlj/+tNdzvMOtwzGQyYWHYxp1KXS1PHmnX7iDFpgDqJ4JnJGX
Z3i6a5b2+vxWgbw9PkdfAcSt4Y1lJMoxN0nQz47MnsY/PreYYgxs8AGPAwt5Bmkc
Un0BgE4JsfuAZBl2vUK+v1mF5XCIqY0ZGeFkVO1xHggEz2Qj524j0V3MRjzCABTc
hJG1vK7kodD1kj+c6ygCzcrokM1oQSCj7dNzmax02pEhecpfjdeTthRmi/QPvRf9
nNZA4FJCJt1F8/V7UxR/pQg=
-----END CERTIFICATE-----
