Certificate:
    Data:
        Version: 3 (0x2)
        Serial Number:
            5a:fd:bf:e2:17:5e:10:61:ee:ab:dd:c8:73:b9:3c:cb:ae:85:05:b4
        Signature Algorithm: sha256WithRSAEncryption
        Issuer: C = US, ST = Montana, L = Bozeman, OU = Engineering, CN = localhost, emailAddress = info@wolfssl.com
        Validity
            Not Before: Feb 15 12:50:25 2022 GMT
            Not After : Nov 11 12:50:25 2024 GMT
        Subject: C = US, ST = Montana, L = Bozeman, OU = Engineering, CN = localhost, emailAddress = info@wolfssl.com
        Subject Public Key Info:
            Public Key Algorithm: rsaEncryption
                RSA Public-Key: (2048 bit)
                Modulus:
                    00:c0:95:08:e1:57:41:f2:71:6d:b7:d2:45:41:27:
                    01:65:c6:45:ae:f2:bc:24:30:b8:95:ce:2f:4e:d6:
                    f6:1c:88:bc:7c:9f:fb:a8:67:7f:fe:5c:9c:51:75:
                    f7:8a:ca:07:e7:35:2f:8f:e1:bd:7b:c0:2f:7c:ab:
                    64:a8:17:fc:ca:5d:7b:ba:e0:21:e5:72:2e:6f:2e:
                    86:d8:95:73:da:ac:1b:53:b9:5f:3f:d7:19:0d:25:
                    4f:e1:63:63:51:8b:0b:64:3f:ad:43:b8:a5:1c:5c:
                    34:b3:ae:00:a0:63:c5:f6:7f:0b:59:68:78:73:a6:
                    8c:18:a9:02:6d:af:c3:19:01:2e:b8:10:e3:c6:cc:
                    40:b4:69:a3:46:33:69:87:6e:c4:bb:17:a6:f3:e8:
                    dd:ad:73:bc:7b:2f:21:b5:fd:66:51:0c:bd:54:b3:
                    e1:6d:5f:1c:bc:23:73:d1:09:03:89:14:d2:10:b9:
                    64:c3:2a:d0:a1:96:4a:bc:e1:d4:1a:5b:c7:a0:c0:
                    c1:63:78:0f:44:37:30:32:96:80:32:23:95:a1:77:
                    ba:13:d2:97:73:e2:5d:25:c9:6a:0d:c3:39:60:a4:
                    b4:b0:69:42:42:09:e9:d8:08:bc:33:20:b3:58:22:
                    a7:aa:eb:c4:e1:e6:61:83:c5:d2:96:df:d9:d0:4f:
                    ad:d7
                Exponent: 65537 (0x10001)
    Signature Algorithm: sha256WithRSAEncryption
         bc:4e:00:4a:a9:cc:db:f9:51:20:22:ab:7a:bd:39:18:d4:30:
         4b:c0:61:92:3c:09:75:76:f2:ee:33:73:be:f1:5f:e7:17:13:
         55:8f:41:db:ae:f1:10:dd:8a:d0:b5:08:38:22:be:2e:99:36:
         8e:d2:c2:18:04:73:16:1f:ba:bc:96:b5:8b:51:64:e8:81:bb:
         ab:10:0c:ce:62:3a:03:72:f6:70:39:53:34:4c:83:87:b0:3b:
         0e:9c:d7:19:a8:93:81:1c:94:80:dc:a5:c1:e6:7c:52:b0:b8:
         d9:67:f1:a4:59:59:c0:13:c7:68:cb:c0:a1:e7:b7:7f:8b:88:
         73:eb:4b:1d:6a:64:ba:42:d7:13:2b:ac:2e:10:1e:7d:c2:8a:
         f6:87:e6:de:74:42:03:cc:0f:b3:f5:44:b7:24:ae:46:92:59:
         70:00:12:33:d7:6a:16:02:47:5c:27:d4:05:ee:f5:34:bf:9e:
         95:5b:99:78:c0:3e:1e:83:3e:75:6d:58:cd:42:04:8e:3b:1b:
         83:ab:16:f1:72:50:2e:fe:ee:b0:7e:7d:f6:25:2b:a7:5d:95:
         b8:86:74:ac:76:17:b5:4e:5b:9c:ef:bd:47:c5:e1:10:12:ee:
         60:e8:b0:96:d8:3f:e0:dc:77:18:f1:b8:d9:44:e6:77:2f:17:
         9e:4b:eb:f7
-----BEGIN CERTIFICATE-----
MIIDhDCCAmygAwIBAgIUWv2/4hdeEGHuq93Ic7k8y66FBbQwDQYJKoZIhvcNAQEL
BQAwfDELMAkGA1UEBhMCVVMxEDAOBgNVBAgMB01vbnRhbmExEDAOBgNVBAcMB0Jv
emVtYW4xFDASBgNVBAsMC0VuZ2luZWVyaW5nMRIwEAYDVQQDDAlsb2NhbGhvc3Qx
HzAdBgkqhkiG9w0BCQEWEGluZm9Ad29sZnNzbC5jb20wHhcNMjIwMjE1MTI1MDI1
WhcNMjQxMTExMTI1MDI1WjB8MQswCQYDVQQGEwJVUzEQMA4GA1UECAwHTW9udGFu
YTEQMA4GA1UEBwwHQm96ZW1hbjEUMBIGA1UECwwLRW5naW5lZXJpbmcxEjAQBgNV
BAMMCWxvY2FsaG9zdDEfMB0GCSqGSIb3DQEJARYQaW5mb0B3b2xmc3NsLmNvbTCC
ASIwDQYJKoZIhvcNAQEBBQADggEPADCCAQoCggEBAMCVCOFXQfJxbbfSRUEnAWXG
Ra7yvCQwuJXOL07W9hyIvHyf+6hnf/5cnFF194rKB+c1L4/hvXvAL3yrZKgX/Mpd
e7rgIeVyLm8uhtiVc9qsG1O5Xz/XGQ0lT+FjY1GLC2Q/rUO4pRxcNLOuAKBjxfZ/
C1loeHOmjBipAm2vwxkBLrgQ48bMQLRpo0YzaYduxLsXpvPo3a1zvHsvIbX9ZlEM
vVSz4W1fHLwjc9EJA4kU0hC5ZMMq0KGWSrzh1Bpbx6DAwWN4D0Q3MDKWgDIjlaF3
uhPSl3PiXSXJag3DOWCktLBpQkIJ6dgIvDMgs1gip6rrxOHmYYPF0pbf2dBPrdcC
AwEAATANBgkqhkiG9w0BAQsFAAOCAQEAvE4ASqnM2/lRICKrer05GNQwS8BhkjwJ
dXby7jNzvvFf5xcTVY9B267xEN2K0LUIOCK+Lpk2jtLCGARzFh+6vJa1i1Fk6IG7
qxAMzmI6A3L2cDlTNEyDh7A7DpzXGaiTgRyUgNylweZ8UrC42WfxpFlZwBPHaMvA
oee3f4uIc+tLHWpkukLXEyusLhAefcKK9ofm3nRCA8wPs/VEtySuRpJZcAASM9dq
FgJHXCfUBe71NL+elVuZeMA+HoM+dW1YzUIEjjsbg6sW8XJQLv7usH599iUrp12V
uIZ0rHYXtU5bnO+9R8XhEBLuYOiwltg/4Nx3GPG42UTmdy8Xnkvr9w==
-----END CERTIFICATE-----
