Certificate:
    Data:
        Version: 3 (0x2)
        Serial Number:
            62:9e:92:00:8a:b6:e6:80:80:c6:d5:d6:bb:1a:9e:ee:1d:29:2e:2f
        Signature Algorithm: sha256WithRSAEncryption
        Issuer: C = US, ST = Montana, L = Bozeman, OU = Engineering, CN = DER:30:0d:82:0b:6c:6f:63:61:6c:68:6f:73:74:00:68, emailAddress = info@wolfssl.com
        Validity
            Not Before: Dec 20 23:07:25 2021 GMT
            Not After : Sep 15 23:07:25 2024 GMT
        Subject: C = US, ST = Montana, L = Bozeman, OU = Engineering, CN = DER:30:0d:82:0b:6c:6f:63:61:6c:68:6f:73:74:00:68, emailAddress = info@wolfssl.com
        Subject Public Key Info:
            Public Key Algorithm: rsaEncryption
                RSA Public-Key: (2048 bit)
                Modulus:
                    00:c0:95:08:e1:57:41:f2:71:6d:b7:d2:45:41:27:
                    01:65:c6:45:ae:f2:bc:24:30:b8:95:ce:2f:4e:d6:
                    f6:1c:88:bc:7c:9f:fb:a8:67:7f:fe:5c:9c:51:75:
                    f7:8a:ca:07:e7:35:2f:8f:e1:bd:7b:c0:2f:7c:ab:
                    64:a8:17:fc:ca:5d:7b:ba:e0:21:e5:72:2e:6f:2e:
                    86:d8:95:73:da:ac:1b:53:b9:5f:3f:d7:19:0d:25:
                    4f:e1:63:63:51:8b:0b:64:3f:ad:43:b8:a5:1c:5c:
                    34:b3:ae:00:a0:63:c5:f6:7f:0b:59:68:78:73:a6:
                    8c:18:a9:02:6d:af:c3:19:01:2e:b8:10:e3:c6:cc:
                    40:b4:69:a3:46:33:69:87:6e:c4:bb:17:a6:f3:e8:
                    dd:ad:73:bc:7b:2f:21:b5:fd:66:51:0c:bd:54:b3:
                    e1:6d:5f:1c:bc:23:73:d1:09:03:89:14:d2:10:b9:
                    64:c3:2a:d0:a1:96:4a:bc:e1:d4:1a:5b:c7:a0:c0:
                    c1:63:78:0f:44:37:30:32:96:80:32:23:95:a1:77:
                    ba:13:d2:97:73:e2:5d:25:c9:6a:0d:c3:39:60:a4:
                    b4:b0:69:42:42:09:e9:d8:08:bc:33:20:b3:58:22:
                    a7:aa:eb:c4:e1:e6:61:83:c5:d2:96:df:d9:d0:4f:
                    ad:d7
                Exponent: 65537 (0x10001)
    Signature Algorithm: sha256WithRSAEncryption
         64:e3:ba:6f:73:2f:d1:4e:7c:30:e7:8a:c6:97:45:1b:87:41:
         82:31:7e:5e:69:7d:b5:de:3f:00:1f:cb:0d:cb:ec:94:24:aa:
         10:0b:ec:6a:92:ff:3d:4c:47:7a:d0:f8:58:54:31:86:a5:ab:
         f7:31:e1:18:93:cf:94:9b:40:df:7d:7e:9b:a9:b4:8b:3e:4f:
         0c:90:26:a0:89:1f:46:95:8c:e3:5b:7b:b4:69:f8:7f:7d:33:
         f8:1f:d6:db:53:4a:e1:52:86:76:0b:8e:e4:06:cf:1f:7f:3e:
         0d:df:a2:9f:da:91:bb:a0:37:24:e5:88:f8:ec:69:84:76:b6:
         3a:ee:01:38:f4:d4:f7:71:50:40:14:68:e8:1a:6f:52:84:ec:
         36:46:40:78:65:e8:22:56:d3:22:33:53:df:88:78:8e:78:95:
         a6:14:67:53:cc:40:d3:32:75:ea:07:e0:b3:90:4f:dc:69:a2:
         b5:2c:b1:89:07:28:e5:a4:70:9b:a1:3a:80:83:31:04:d4:d8:
         73:06:ca:b4:9d:ff:7e:b3:b3:83:dc:38:a4:39:d4:a8:cf:0a:
         d4:97:8b:70:bc:45:b5:20:ad:8b:c7:b9:1b:f2:72:f5:05:2c:
         31:76:1a:cb:a8:bb:d2:cb:40:f7:ec:2e:11:ac:cd:41:54:7a:
         b2:04:5d:68
-----BEGIN CERTIFICATE-----
MIID1DCCArygAwIBAgIUYp6SAIq25oCAxtXWuxqe7h0pLi8wDQYJKoZIhvcNAQEL
BQAwgaMxCzAJBgNVBAYTAlVTMRAwDgYDVQQIDAdNb250YW5hMRAwDgYDVQQHDAdC
b3plbWFuMRQwEgYDVQQLDAtFbmdpbmVlcmluZzE5MDcGA1UEAwwwREVSOjMwOjBk
OjgyOjBiOjZjOjZmOjYzOjYxOjZjOjY4OjZmOjczOjc0OjAwOjY4MR8wHQYJKoZI
hvcNAQkBFhBpbmZvQHdvbGZzc2wuY29tMB4XDTIxMTIyMDIzMDcyNVoXDTI0MDkx
NTIzMDcyNVowgaMxCzAJBgNVBAYTAlVTMRAwDgYDVQQIDAdNb250YW5hMRAwDgYD
VQQHDAdCb3plbWFuMRQwEgYDVQQLDAtFbmdpbmVlcmluZzE5MDcGA1UEAwwwREVS
OjMwOjBkOjgyOjBiOjZjOjZmOjYzOjYxOjZjOjY4OjZmOjczOjc0OjAwOjY4MR8w
HQYJKoZIhvcNAQkBFhBpbmZvQHdvbGZzc2wuY29tMIIBIjANBgkqhkiG9w0BAQEF
AAOCAQ8AMIIBCgKCAQEAwJUI4VdB8nFtt9JFQScBZcZFrvK8JDC4lc4vTtb2HIi8
fJ/7qGd//lycUXX3isoH5zUvj+G9e8AvfKtkqBf8yl17uuAh5XIuby6G2JVz2qwb
U7lfP9cZDSVP4WNjUYsLZD+tQ7ilHFw0s64AoGPF9n8LWWh4c6aMGKkCba/DGQEu
uBDjxsxAtGmjRjNph27Euxem8+jdrXO8ey8htf1mUQy9VLPhbV8cvCNz0QkDiRTS
ELlkwyrQoZZKvOHUGlvHoMDBY3gPRDcwMpaAMiOVoXe6E9KXc+JdJclqDcM5YKS0
sGlCQgnp2Ai8MyCzWCKnquvE4eZhg8XSlt/Z0E+t1wIDAQABMA0GCSqGSIb3DQEB
CwUAA4IBAQBk47pvcy/RTnww54rGl0Ubh0GCMX5eaX213j8AH8sNy+yUJKoQC+xq
kv89TEd60PhYVDGGpav3MeEYk8+Um0DffX6bqbSLPk8MkCagiR9GlYzjW3u0afh/
fTP4H9bbU0rhUoZ2C47kBs8ffz4N36Kf2pG7oDck5Yj47GmEdrY67gE49NT3cVBA
FGjoGm9ShOw2RkB4ZegiVtMiM1PfiHiOeJWmFGdTzEDTMnXqB+CzkE/caaK1LLGJ
ByjlpHCboTqAgzEE1NhzBsq0nf9+s7OD3DikOdSozwrUl4twvEW1IK2Lx7kb8nL1
BSwxdhrLqLvSy0D37C4RrM1BVHqyBF1o
-----END CERTIFICATE-----
