Certificate:
    Data:
        Version: 3 (0x2)
        Serial Number:
            64:f2:d4:d2:af:4e:fb:8a:b2:32:ff:0c:ab:80:ee:5a:5c:47:52:6b
        Signature Algorithm: sha256WithRSAEncryption
        Issuer: C = US, ST = Montana, L = Bozeman, OU = Engineering, CN = www.nomatch.com, emailAddress = info@wolfssl.com
        Validity
            Not Before: Dec 20 23:07:25 2021 GMT
            Not After : Sep 15 23:07:25 2024 GMT
        Subject: C = US, ST = Montana, L = Bozeman, OU = Engineering, CN = www.nomatch.com, emailAddress = info@wolfssl.com
        Subject Public Key Info:
            Public Key Algorithm: rsaEncryption
                RSA Public-Key: (2048 bit)
                Modulus:
                    00:c0:95:08:e1:57:41:f2:71:6d:b7:d2:45:41:27:
                    01:65:c6:45:ae:f2:bc:24:30:b8:95:ce:2f:4e:d6:
                    f6:1c:88:bc:7c:9f:fb:a8:67:7f:fe:5c:9c:51:75:
                    f7:8a:ca:07:e7:35:2f:8f:e1:bd:7b:c0:2f:7c:ab:
                    64:a8:17:fc:ca:5d:7b:ba:e0:21:e5:72:2e:6f:2e:
                    86:d8:95:73:da:ac:1b:53:b9:5f:3f:d7:19:0d:25:
                    4f:e1:63:63:51:8b:0b:64:3f:ad:43:b8:a5:1c:5c:
                    34:b3:ae:00:a0:63:c5:f6:7f:0b:59:68:78:73:a6:
                    8c:18:a9:02:6d:af:c3:19:01:2e:b8:10:e3:c6:cc:
                    40:b4:69:a3:46:33:69:87:6e:c4:bb:17:a6:f3:e8:
                    dd:ad:73:bc:7b:2f:21:b5:fd:66:51:0c:bd:54:b3:
                    e1:6d:5f:1c:bc:23:73:d1:09:03:89:14:d2:10:b9:
                    64:c3:2a:d0:a1:96:4a:bc:e1:d4:1a:5b:c7:a0:c0:
                    c1:63:78:0f:44:37:30:32:96:80:32:23:95:a1:77:
                    ba:13:d2:97:73:e2:5d:25:c9:6a:0d:c3:39:60:a4:
                    b4:b0:69:42:42:09:e9:d8:08:bc:33:20:b3:58:22:
                    a7:aa:eb:c4:e1:e6:61:83:c5:d2:96:df:d9:d0:4f:
                    ad:d7
                Exponent: 65537 (0x10001)
        X509v3 extensions:
            X509v3 Subject Alternative Name: 
                DNS:*localhost
    Signature Algorithm: sha256WithRSAEncryption
         4d:6d:8a:2d:3f:12:f3:09:c1:a5:19:1c:62:33:f9:5c:f9:6e:
         3c:78:5f:cd:73:be:f5:a9:43:54:44:85:2d:17:62:e3:24:ce:
         11:dc:83:89:41:d3:f1:24:0c:e4:76:01:8c:e4:7a:94:e5:cc:
         d8:5e:6d:91:f9:c4:76:a8:c9:6c:dc:1d:a6:74:29:a8:9e:87:
         a7:f1:16:08:51:fb:eb:a7:34:e0:2c:f5:ee:d7:1c:09:11:c9:
         a5:78:55:ba:e4:57:95:b8:13:8c:e4:40:44:da:eb:4e:e6:de:
         74:4c:b1:d9:c7:60:e3:a1:d1:c6:d5:de:52:ec:7e:92:3e:0b:
         a9:e6:c7:46:73:ad:4b:f6:45:2b:4e:f2:4f:be:9c:fb:59:8f:
         b4:0d:66:36:bb:27:54:cc:bb:3f:10:44:b0:ce:b8:b3:fd:fb:
         7e:63:5d:1f:cb:85:cf:af:35:62:df:a6:08:6e:34:a8:00:53:
         09:da:79:7d:e2:b5:60:55:ec:42:43:df:58:72:c1:f4:b6:ae:
         0f:70:c9:83:96:7a:61:b5:e9:d3:17:7c:51:20:7c:1a:1a:d9:
         bc:9f:d3:b1:aa:86:17:86:1c:91:cd:53:c9:a7:2c:dd:b3:dd:
         42:3b:cc:c7:c8:0a:2d:88:cb:93:a0:33:ea:87:38:31:25:87:
         b6:85:a1:af
-----BEGIN CERTIFICATE-----
MIIDrTCCApWgAwIBAgIUZPLU0q9O+4qyMv8Mq4DuWlxHUmswDQYJKoZIhvcNAQEL
BQAwgYIxCzAJBgNVBAYTAlVTMRAwDgYDVQQIDAdNb250YW5hMRAwDgYDVQQHDAdC
b3plbWFuMRQwEgYDVQQLDAtFbmdpbmVlcmluZzEYMBYGA1UEAwwPd3d3Lm5vbWF0
Y2guY29tMR8wHQYJKoZIhvcNAQkBFhBpbmZvQHdvbGZzc2wuY29tMB4XDTIxMTIy
MDIzMDcyNVoXDTI0MDkxNTIzMDcyNVowgYIxCzAJBgNVBAYTAlVTMRAwDgYDVQQI
DAdNb250YW5hMRAwDgYDVQQHDAdCb3plbWFuMRQwEgYDVQQLDAtFbmdpbmVlcmlu
ZzEYMBYGA1UEAwwPd3d3Lm5vbWF0Y2guY29tMR8wHQYJKoZIhvcNAQkBFhBpbmZv
QHdvbGZzc2wuY29tMIIBIjANBgkqhkiG9w0BAQEFAAOCAQ8AMIIBCgKCAQEAwJUI
4VdB8nFtt9JFQScBZcZFrvK8JDC4lc4vTtb2HIi8fJ/7qGd//lycUXX3isoH5zUv
j+G9e8AvfKtkqBf8yl17uuAh5XIuby6G2JVz2qwbU7lfP9cZDSVP4WNjUYsLZD+t
Q7ilHFw0s64AoGPF9n8LWWh4c6aMGKkCba/DGQEuuBDjxsxAtGmjRjNph27Euxem
8+jdrXO8ey8htf1mUQy9VLPhbV8cvCNz0QkDiRTSELlkwyrQoZZKvOHUGlvHoMDB
Y3gPRDcwMpaAMiOVoXe6E9KXc+JdJclqDcM5YKS0sGlCQgnp2Ai8MyCzWCKnquvE
4eZhg8XSlt/Z0E+t1wIDAQABoxkwFzAVBgNVHREEDjAMggoqbG9jYWxob3N0MA0G
CSqGSIb3DQEBCwUAA4IBAQBNbYotPxLzCcGlGRxiM/lc+W48eF/Nc771qUNURIUt
F2LjJM4R3IOJQdPxJAzkdgGM5HqU5czYXm2R+cR2qMls3B2mdCmonoen8RYIUfvr
pzTgLPXu1xwJEcmleFW65FeVuBOM5EBE2utO5t50TLHZx2DjodHG1d5S7H6SPgup
5sdGc61L9kUrTvJPvpz7WY+0DWY2uydUzLs/EESwzriz/ft+Y10fy4XPrzVi36YI
bjSoAFMJ2nl94rVgVexCQ99YcsH0tq4PcMmDlnphtenTF3xRIHwaGtm8n9OxqoYX
hhyRzVPJpyzds91CO8zHyAotiMuToDPqhzgxJYe2haGv
-----END CERTIFICATE-----
