Certificate:
    Data:
        Version: 3 (0x2)
        Serial Number:
            20:e4:76:1c:be:16:94:8a:8c:e8:34:37:a5:1b:37:c9:f9:42:c9:30
        Signature Algorithm: sha256WithRSAEncryption
        Issuer: C = US, ST = Montana, L = Bozeman, OU = Engineering, CN = localhost, emailAddress = info@wolfssl.com
        Validity
            Not Before: Dec 18 23:11:23 2024 GMT
            Not After : Sep 14 23:11:23 2027 GMT
        Subject: C = US, ST = Montana, L = Bozeman, OU = Engineering, CN = localhost, emailAddress = info@wolfssl.com
        Subject Public Key Info:
            Public Key Algorithm: rsaEncryption
                Public-Key: (2048 bit)
                Modulus:
                    00:c0:95:08:e1:57:41:f2:71:6d:b7:d2:45:41:27:
                    01:65:c6:45:ae:f2:bc:24:30:b8:95:ce:2f:4e:d6:
                    f6:1c:88:bc:7c:9f:fb:a8:67:7f:fe:5c:9c:51:75:
                    f7:8a:ca:07:e7:35:2f:8f:e1:bd:7b:c0:2f:7c:ab:
                    64:a8:17:fc:ca:5d:7b:ba:e0:21:e5:72:2e:6f:2e:
                    86:d8:95:73:da:ac:1b:53:b9:5f:3f:d7:19:0d:25:
                    4f:e1:63:63:51:8b:0b:64:3f:ad:43:b8:a5:1c:5c:
                    34:b3:ae:00:a0:63:c5:f6:7f:0b:59:68:78:73:a6:
                    8c:18:a9:02:6d:af:c3:19:01:2e:b8:10:e3:c6:cc:
                    40:b4:69:a3:46:33:69:87:6e:c4:bb:17:a6:f3:e8:
                    dd:ad:73:bc:7b:2f:21:b5:fd:66:51:0c:bd:54:b3:
                    e1:6d:5f:1c:bc:23:73:d1:09:03:89:14:d2:10:b9:
                    64:c3:2a:d0:a1:96:4a:bc:e1:d4:1a:5b:c7:a0:c0:
                    c1:63:78:0f:44:37:30:32:96:80:32:23:95:a1:77:
                    ba:13:d2:97:73:e2:5d:25:c9:6a:0d:c3:39:60:a4:
                    b4:b0:69:42:42:09:e9:d8:08:bc:33:20:b3:58:22:
                    a7:aa:eb:c4:e1:e6:61:83:c5:d2:96:df:d9:d0:4f:
                    ad:d7
                Exponent: 65537 (0x10001)
        X509v3 extensions:
            X509v3 Subject Key Identifier: 
                B3:11:32:C9:92:98:84:E2:C9:F8:D0:3B:6E:03:42:CA:1F:0E:8E:3C
    Signature Algorithm: sha256WithRSAEncryption
    Signature Value:
        66:a2:01:32:ef:f2:60:53:90:50:4e:11:cf:80:0c:66:32:fc:
        f2:16:d1:26:15:57:fe:43:2f:ee:f4:ab:05:cd:db:b7:b7:f7:
        9d:b4:11:b3:4a:b5:4f:bf:01:ba:3d:89:05:7c:2e:42:66:fd:
        a9:c9:e8:9d:9a:85:95:7e:1f:35:41:eb:45:d3:ea:de:a3:1c:
        eb:36:ad:3e:c9:a0:1c:31:c3:e3:f5:4c:bc:a7:7e:04:52:70:
        e7:89:dd:a3:fc:32:a2:7b:26:b9:ea:2b:9e:06:9d:a7:6d:1f:
        1d:52:e9:11:3f:a1:1d:87:1e:82:17:eb:05:78:e5:70:f3:23:
        3f:15:73:12:31:cd:11:b3:b1:fa:2b:7c:6b:5d:2d:04:6c:5f:
        28:9c:39:ba:50:0e:8a:ec:4b:2b:11:fb:09:e8:c6:05:5c:b4:
        45:7a:e5:52:78:fe:c0:c3:57:c1:df:ce:a8:9b:86:d5:c6:6a:
        61:c6:36:7a:50:3d:7e:b9:3e:e6:6e:40:6e:d9:08:65:ef:88:
        11:bc:37:f2:cb:5f:04:ec:9e:c8:4c:48:2f:26:6c:1c:e4:e0:
        b6:a8:63:b7:42:4c:81:2e:f0:3d:d8:a0:e1:6c:16:3e:40:4b:
        ec:1b:43:9d:99:c8:36:99:cd:d7:1c:6d:c7:98:88:ce:05:b6:
        93:de:19:d1
-----BEGIN CERTIFICATE-----
MIIDpzCCAo+gAwIBAgIUIOR2HL4WlIqM6DQ3pRs3yflCyTAwDQYJKoZIhvcNAQEL
BQAwfDELMAkGA1UEBhMCVVMxEDAOBgNVBAgMB01vbnRhbmExEDAOBgNVBAcMB0Jv
emVtYW4xFDASBgNVBAsMC0VuZ2luZWVyaW5nMRIwEAYDVQQDDAlsb2NhbGhvc3Qx
HzAdBgkqhkiG9w0BCQEWEGluZm9Ad29sZnNzbC5jb20wHhcNMjQxMjE4MjMxMTIz
WhcNMjcwOTE0MjMxMTIzWjB8MQswCQYDVQQGEwJVUzEQMA4GA1UECAwHTW9udGFu
YTEQMA4GA1UEBwwHQm96ZW1hbjEUMBIGA1UECwwLRW5naW5lZXJpbmcxEjAQBgNV
BAMMCWxvY2FsaG9zdDEfMB0GCSqGSIb3DQEJARYQaW5mb0B3b2xmc3NsLmNvbTCC
ASIwDQYJKoZIhvcNAQEBBQADggEPADCCAQoCggEBAMCVCOFXQfJxbbfSRUEnAWXG
Ra7yvCQwuJXOL07W9hyIvHyf+6hnf/5cnFF194rKB+c1L4/hvXvAL3yrZKgX/Mpd
e7rgIeVyLm8uhtiVc9qsG1O5Xz/XGQ0lT+FjY1GLC2Q/rUO4pRxcNLOuAKBjxfZ/
C1loeHOmjBipAm2vwxkBLrgQ48bMQLRpo0YzaYduxLsXpvPo3a1zvHsvIbX9ZlEM
vVSz4W1fHLwjc9EJA4kU0hC5ZMMq0KGWSrzh1Bpbx6DAwWN4D0Q3MDKWgDIjlaF3
uhPSl3PiXSXJag3DOWCktLBpQkIJ6dgIvDMgs1gip6rrxOHmYYPF0pbf2dBPrdcC
AwEAAaMhMB8wHQYDVR0OBBYEFLMRMsmSmITiyfjQO24DQsofDo48MA0GCSqGSIb3
DQEBCwUAA4IBAQBmogEy7/JgU5BQThHPgAxmMvzyFtEmFVf+Qy/u9KsFzdu3t/ed
tBGzSrVPvwG6PYkFfC5CZv2pyeidmoWVfh81QetF0+reoxzrNq0+yaAcMcPj9Uy8
p34EUnDnid2j/DKieya56iueBp2nbR8dUukRP6Edhx6CF+sFeOVw8yM/FXMSMc0R
s7H6K3xrXS0EbF8onDm6UA6K7EsrEfsJ6MYFXLRFeuVSeP7Aw1fB386om4bVxmph
xjZ6UD1+uT7mbkBu2Qhl74gRvDfyy18E7J7ITEgvJmwc5OC2qGO3QkyBLvA92KDh
bBY+QEvsG0Odmcg2mc3XHG3HmIjOBbaT3hnR
-----END CERTIFICATE-----
