Certificate:
    Data:
        Version: 3 (0x2)
        Serial Number:
            29:9c:4e:32:2d:67:08:52:16:03:ba:4f:eb:47:e3:a2:ef:55:06:15
        Signature Algorithm: sha256WithRSAEncryption
        Issuer: C = US, ST = Montana, L = Bozeman, OU = Engineering, CN = DER:30:0d:82:0b:6c:6f:63:61:6c:68:6f:73:74:00:68, emailAddress = info@wolfssl.com
        Validity
            Not Before: Dec 13 22:19:29 2023 GMT
            Not After : Sep  8 22:19:29 2026 GMT
        Subject: C = US, ST = Montana, L = Bozeman, OU = Engineering, CN = DER:30:0d:82:0b:6c:6f:63:61:6c:68:6f:73:74:00:68, emailAddress = info@wolfssl.com
        Subject Public Key Info:
            Public Key Algorithm: rsaEncryption
                RSA Public-Key: (2048 bit)
                Modulus:
                    00:c0:95:08:e1:57:41:f2:71:6d:b7:d2:45:41:27:
                    01:65:c6:45:ae:f2:bc:24:30:b8:95:ce:2f:4e:d6:
                    f6:1c:88:bc:7c:9f:fb:a8:67:7f:fe:5c:9c:51:75:
                    f7:8a:ca:07:e7:35:2f:8f:e1:bd:7b:c0:2f:7c:ab:
                    64:a8:17:fc:ca:5d:7b:ba:e0:21:e5:72:2e:6f:2e:
                    86:d8:95:73:da:ac:1b:53:b9:5f:3f:d7:19:0d:25:
                    4f:e1:63:63:51:8b:0b:64:3f:ad:43:b8:a5:1c:5c:
                    34:b3:ae:00:a0:63:c5:f6:7f:0b:59:68:78:73:a6:
                    8c:18:a9:02:6d:af:c3:19:01:2e:b8:10:e3:c6:cc:
                    40:b4:69:a3:46:33:69:87:6e:c4:bb:17:a6:f3:e8:
                    dd:ad:73:bc:7b:2f:21:b5:fd:66:51:0c:bd:54:b3:
                    e1:6d:5f:1c:bc:23:73:d1:09:03:89:14:d2:10:b9:
                    64:c3:2a:d0:a1:96:4a:bc:e1:d4:1a:5b:c7:a0:c0:
                    c1:63:78:0f:44:37:30:32:96:80:32:23:95:a1:77:
                    ba:13:d2:97:73:e2:5d:25:c9:6a:0d:c3:39:60:a4:
                    b4:b0:69:42:42:09:e9:d8:08:bc:33:20:b3:58:22:
                    a7:aa:eb:c4:e1:e6:61:83:c5:d2:96:df:d9:d0:4f:
                    ad:d7
                Exponent: 65537 (0x10001)
    Signature Algorithm: sha256WithRSAEncryption
         b7:a0:3f:bf:60:6d:0e:49:aa:e4:a8:00:b6:7d:d5:15:58:60:
         5d:cb:40:70:46:04:6c:e3:6d:04:b0:2a:eb:e2:64:b3:4f:a6:
         47:ae:22:c8:41:a1:cc:01:0c:1a:b2:6f:d2:e5:cf:b8:ac:c7:
         3c:a8:04:0d:7e:53:c5:9f:ec:f6:26:1e:d7:ed:6d:44:a5:8f:
         64:7b:bd:f4:19:fd:70:d5:39:7a:d9:22:72:2d:ec:09:0d:61:
         e9:1f:3d:61:70:13:1c:d6:34:44:1d:04:a7:2c:96:08:0b:e6:
         63:e5:02:e6:95:d3:49:75:a9:e2:d0:e4:6e:9c:87:17:3a:30:
         d4:dd:16:58:f8:cc:39:ff:a4:2d:3f:26:bf:40:92:6e:b2:b6:
         6d:03:d8:68:a2:4a:3d:cf:b9:00:93:58:54:5a:ef:ea:6d:28:
         c3:8c:c1:0e:60:5a:8c:df:5d:d5:0b:cb:b5:e5:6c:57:7a:b6:
         ac:8c:64:67:f4:68:8d:73:50:41:11:6c:14:b6:65:7d:57:ff:
         27:b5:f3:5e:7e:d4:07:29:49:6b:0c:aa:ed:b2:aa:32:a3:b4:
         78:bc:2d:18:6f:a6:fa:ea:b2:c8:a4:a3:f2:cc:da:43:9c:eb:
         92:ea:7a:1a:8f:4b:ed:87:eb:f6:80:ea:6a:de:d7:ac:0e:9e:
         47:2d:37:30
-----BEGIN CERTIFICATE-----
MIID1DCCArygAwIBAgIUKZxOMi1nCFIWA7pP60fjou9VBhUwDQYJKoZIhvcNAQEL
BQAwgaMxCzAJBgNVBAYTAlVTMRAwDgYDVQQIDAdNb250YW5hMRAwDgYDVQQHDAdC
b3plbWFuMRQwEgYDVQQLDAtFbmdpbmVlcmluZzE5MDcGA1UEAwwwREVSOjMwOjBk
OjgyOjBiOjZjOjZmOjYzOjYxOjZjOjY4OjZmOjczOjc0OjAwOjY4MR8wHQYJKoZI
hvcNAQkBFhBpbmZvQHdvbGZzc2wuY29tMB4XDTIzMTIxMzIyMTkyOVoXDTI2MDkw
ODIyMTkyOVowgaMxCzAJBgNVBAYTAlVTMRAwDgYDVQQIDAdNb250YW5hMRAwDgYD
VQQHDAdCb3plbWFuMRQwEgYDVQQLDAtFbmdpbmVlcmluZzE5MDcGA1UEAwwwREVS
OjMwOjBkOjgyOjBiOjZjOjZmOjYzOjYxOjZjOjY4OjZmOjczOjc0OjAwOjY4MR8w
HQYJKoZIhvcNAQkBFhBpbmZvQHdvbGZzc2wuY29tMIIBIjANBgkqhkiG9w0BAQEF
AAOCAQ8AMIIBCgKCAQEAwJUI4VdB8nFtt9JFQScBZcZFrvK8JDC4lc4vTtb2HIi8
fJ/7qGd//lycUXX3isoH5zUvj+G9e8AvfKtkqBf8yl17uuAh5XIuby6G2JVz2qwb
U7lfP9cZDSVP4WNjUYsLZD+tQ7ilHFw0s64AoGPF9n8LWWh4c6aMGKkCba/DGQEu
uBDjxsxAtGmjRjNph27Euxem8+jdrXO8ey8htf1mUQy9VLPhbV8cvCNz0QkDiRTS
ELlkwyrQoZZKvOHUGlvHoMDBY3gPRDcwMpaAMiOVoXe6E9KXc+JdJclqDcM5YKS0
sGlCQgnp2Ai8MyCzWCKnquvE4eZhg8XSlt/Z0E+t1wIDAQABMA0GCSqGSIb3DQEB
CwUAA4IBAQC3oD+/YG0OSarkqAC2fdUVWGBdy0BwRgRs420EsCrr4mSzT6ZHriLI
QaHMAQwasm/S5c+4rMc8qAQNflPFn+z2Jh7X7W1EpY9ke730Gf1w1Tl62SJyLewJ
DWHpHz1hcBMc1jREHQSnLJYIC+Zj5QLmldNJdani0ORunIcXOjDU3RZY+Mw5/6Qt
Pya/QJJusrZtA9hooko9z7kAk1hUWu/qbSjDjMEOYFqM313VC8u15WxXerasjGRn
9GiNc1BBEWwUtmV9V/8ntfNeftQHKUlrDKrtsqoyo7R4vC0Yb6b66rLIpKPyzNpD
nOuS6noaj0vth+v2gOpq3tesDp5HLTcw
-----END CERTIFICATE-----
