Certificate:
    Data:
        Version: 3 (0x2)
        Serial Number:
            5b:0c:b9:6c:9b:24:9a:bc:9c:80:ca:7b:22:8c:2e:d4:7a:31:46:ae
        Signature Algorithm: sha256WithRSAEncryption
        Issuer: C = US, ST = Montana, L = Bozeman, OU = Engineering, CN = www.nomatch.com, emailAddress = info@wolfssl.com
        Validity
            Not Before: Dec 20 23:07:25 2021 GMT
            Not After : Sep 15 23:07:25 2024 GMT
        Subject: C = US, ST = Montana, L = Bozeman, OU = Engineering, CN = www.nomatch.com, emailAddress = info@wolfssl.com
        Subject Public Key Info:
            Public Key Algorithm: rsaEncryption
                RSA Public-Key: (2048 bit)
                Modulus:
                    00:c0:95:08:e1:57:41:f2:71:6d:b7:d2:45:41:27:
                    01:65:c6:45:ae:f2:bc:24:30:b8:95:ce:2f:4e:d6:
                    f6:1c:88:bc:7c:9f:fb:a8:67:7f:fe:5c:9c:51:75:
                    f7:8a:ca:07:e7:35:2f:8f:e1:bd:7b:c0:2f:7c:ab:
                    64:a8:17:fc:ca:5d:7b:ba:e0:21:e5:72:2e:6f:2e:
                    86:d8:95:73:da:ac:1b:53:b9:5f:3f:d7:19:0d:25:
                    4f:e1:63:63:51:8b:0b:64:3f:ad:43:b8:a5:1c:5c:
                    34:b3:ae:00:a0:63:c5:f6:7f:0b:59:68:78:73:a6:
                    8c:18:a9:02:6d:af:c3:19:01:2e:b8:10:e3:c6:cc:
                    40:b4:69:a3:46:33:69:87:6e:c4:bb:17:a6:f3:e8:
                    dd:ad:73:bc:7b:2f:21:b5:fd:66:51:0c:bd:54:b3:
                    e1:6d:5f:1c:bc:23:73:d1:09:03:89:14:d2:10:b9:
                    64:c3:2a:d0:a1:96:4a:bc:e1:d4:1a:5b:c7:a0:c0:
                    c1:63:78:0f:44:37:30:32:96:80:32:23:95:a1:77:
                    ba:13:d2:97:73:e2:5d:25:c9:6a:0d:c3:39:60:a4:
                    b4:b0:69:42:42:09:e9:d8:08:bc:33:20:b3:58:22:
                    a7:aa:eb:c4:e1:e6:61:83:c5:d2:96:df:d9:d0:4f:
                    ad:d7
                Exponent: 65537 (0x10001)
    Signature Algorithm: sha256WithRSAEncryption
         8f:f5:55:1c:7d:68:6f:d2:73:94:11:61:64:42:d1:8e:f9:ea:
         0d:a5:0f:1f:e3:f4:f6:f0:4d:fd:9f:f6:b0:c5:34:e9:f5:3d:
         5a:e2:da:60:47:ec:89:f0:c0:05:78:b1:06:a3:51:0e:c7:5f:
         6a:76:c1:2d:6a:80:1a:e2:d4:11:28:16:3f:ce:55:a8:a1:38:
         2e:3c:81:57:0b:46:c3:59:f3:f8:a9:f5:a3:4a:97:8a:5b:aa:
         00:f5:05:92:bb:58:4e:8f:cd:8a:6f:fc:d1:71:58:95:05:36:
         90:67:ae:0c:35:16:de:a3:c4:db:1e:7a:a4:e5:57:20:ce:f0:
         e4:d2:7d:9a:d2:a0:46:bf:27:16:c0:4d:ab:a0:61:7d:c9:c2:
         0c:42:39:6a:0a:e2:e4:46:94:53:92:34:56:84:09:20:35:77:
         29:43:33:33:66:dd:ae:b5:24:a7:66:0f:d2:99:ee:76:2d:d0:
         81:ff:41:87:3d:af:8a:ea:41:4c:43:62:15:d0:30:57:40:99:
         41:f3:2b:31:16:a9:a2:eb:50:62:0e:d3:4d:84:cc:99:2f:16:
         84:37:b7:c7:99:fc:0d:bd:6d:4d:bf:90:a5:eb:6b:a7:75:6c:
         73:28:45:49:02:18:4c:af:d9:09:97:ac:80:64:9d:f4:dd:91:
         a0:3a:74:7f
-----BEGIN CERTIFICATE-----
MIIDkjCCAnqgAwIBAgIUWwy5bJskmrycgMp7Iowu1HoxRq4wDQYJKoZIhvcNAQEL
BQAwgYIxCzAJBgNVBAYTAlVTMRAwDgYDVQQIDAdNb250YW5hMRAwDgYDVQQHDAdC
b3plbWFuMRQwEgYDVQQLDAtFbmdpbmVlcmluZzEYMBYGA1UEAwwPd3d3Lm5vbWF0
Y2guY29tMR8wHQYJKoZIhvcNAQkBFhBpbmZvQHdvbGZzc2wuY29tMB4XDTIxMTIy
MDIzMDcyNVoXDTI0MDkxNTIzMDcyNVowgYIxCzAJBgNVBAYTAlVTMRAwDgYDVQQI
DAdNb250YW5hMRAwDgYDVQQHDAdCb3plbWFuMRQwEgYDVQQLDAtFbmdpbmVlcmlu
ZzEYMBYGA1UEAwwPd3d3Lm5vbWF0Y2guY29tMR8wHQYJKoZIhvcNAQkBFhBpbmZv
QHdvbGZzc2wuY29tMIIBIjANBgkqhkiG9w0BAQEFAAOCAQ8AMIIBCgKCAQEAwJUI
4VdB8nFtt9JFQScBZcZFrvK8JDC4lc4vTtb2HIi8fJ/7qGd//lycUXX3isoH5zUv
j+G9e8AvfKtkqBf8yl17uuAh5XIuby6G2JVz2qwbU7lfP9cZDSVP4WNjUYsLZD+t
Q7ilHFw0s64AoGPF9n8LWWh4c6aMGKkCba/DGQEuuBDjxsxAtGmjRjNph27Euxem
8+jdrXO8ey8htf1mUQy9VLPhbV8cvCNz0QkDiRTSELlkwyrQoZZKvOHUGlvHoMDB
Y3gPRDcwMpaAMiOVoXe6E9KXc+JdJclqDcM5YKS0sGlCQgnp2Ai8MyCzWCKnquvE
4eZhg8XSlt/Z0E+t1wIDAQABMA0GCSqGSIb3DQEBCwUAA4IBAQCP9VUcfWhv0nOU
EWFkQtGO+eoNpQ8f4/T28E39n/awxTTp9T1a4tpgR+yJ8MAFeLEGo1EOx19qdsEt
aoAa4tQRKBY/zlWooTguPIFXC0bDWfP4qfWjSpeKW6oA9QWSu1hOj82Kb/zRcViV
BTaQZ64MNRbeo8TbHnqk5VcgzvDk0n2a0qBGvycWwE2roGF9ycIMQjlqCuLkRpRT
kjRWhAkgNXcpQzMzZt2utSSnZg/Sme52LdCB/0GHPa+K6kFMQ2IV0DBXQJlB8ysx
Fqmi61BiDtNNhMyZLxaEN7fHmfwNvW1Nv5Cl62undWxzKEVJAhhMr9kJl6yAZJ30
3ZGgOnR/
-----END CERTIFICATE-----
