Certificate:
    Data:
        Version: 3 (0x2)
        Serial Number:
            2d:7b:2c:3d:f3:84:21:4d:32:61:3f:1a:d7:fb:c0:f0:e7:63:68:65
        Signature Algorithm: sha256WithRSAEncryption
        Issuer: C=US, ST=Montana, L=Bozeman, OU=Engineering, CN=www.nomatch.com, emailAddress=facts@wolfssl.com
        Validity
            Not Before: Jun 11 21:44:33 2026 GMT
            Not After : Mar  7 21:44:33 2029 GMT
        Subject: C=US, ST=Montana, L=Bozeman, OU=Engineering, CN=www.nomatch.com, emailAddress=facts@wolfssl.com
        Subject Public Key Info:
            Public Key Algorithm: rsaEncryption
                Public-Key: (2048 bit)
                Modulus:
                    00:c0:95:08:e1:57:41:f2:71:6d:b7:d2:45:41:27:
                    01:65:c6:45:ae:f2:bc:24:30:b8:95:ce:2f:4e:d6:
                    f6:1c:88:bc:7c:9f:fb:a8:67:7f:fe:5c:9c:51:75:
                    f7:8a:ca:07:e7:35:2f:8f:e1:bd:7b:c0:2f:7c:ab:
                    64:a8:17:fc:ca:5d:7b:ba:e0:21:e5:72:2e:6f:2e:
                    86:d8:95:73:da:ac:1b:53:b9:5f:3f:d7:19:0d:25:
                    4f:e1:63:63:51:8b:0b:64:3f:ad:43:b8:a5:1c:5c:
                    34:b3:ae:00:a0:63:c5:f6:7f:0b:59:68:78:73:a6:
                    8c:18:a9:02:6d:af:c3:19:01:2e:b8:10:e3:c6:cc:
                    40:b4:69:a3:46:33:69:87:6e:c4:bb:17:a6:f3:e8:
                    dd:ad:73:bc:7b:2f:21:b5:fd:66:51:0c:bd:54:b3:
                    e1:6d:5f:1c:bc:23:73:d1:09:03:89:14:d2:10:b9:
                    64:c3:2a:d0:a1:96:4a:bc:e1:d4:1a:5b:c7:a0:c0:
                    c1:63:78:0f:44:37:30:32:96:80:32:23:95:a1:77:
                    ba:13:d2:97:73:e2:5d:25:c9:6a:0d:c3:39:60:a4:
                    b4:b0:69:42:42:09:e9:d8:08:bc:33:20:b3:58:22:
                    a7:aa:eb:c4:e1:e6:61:83:c5:d2:96:df:d9:d0:4f:
                    ad:d7
                Exponent: 65537 (0x10001)
        X509v3 extensions:
            X509v3 Subject Key Identifier: 
                B3:11:32:C9:92:98:84:E2:C9:F8:D0:3B:6E:03:42:CA:1F:0E:8E:3C
    Signature Algorithm: sha256WithRSAEncryption
    Signature Value:
        93:00:3f:1b:8a:f7:f6:e5:14:a2:fa:0d:13:bf:3d:f6:34:31:
        aa:5c:d7:2a:1c:9b:45:ed:e2:be:af:67:53:ca:e7:11:e1:8c:
        f6:c5:29:5f:af:2a:89:fe:30:5a:29:01:b8:32:7e:53:8d:2e:
        20:14:b1:0e:9f:2f:1e:ec:01:59:41:7f:38:5e:ab:c5:c8:8e:
        d2:fb:d0:4e:8a:45:63:ab:b1:78:ef:67:87:de:9f:a6:08:1f:
        69:e1:56:45:23:dd:18:54:11:14:82:59:85:39:ed:99:e9:fe:
        55:7c:b2:42:0e:b1:8f:59:fd:68:c9:25:dc:9d:9a:a6:e1:6d:
        ab:7e:8d:a8:3b:9f:76:af:2e:53:b6:2e:2d:88:20:e4:78:9f:
        43:27:7f:47:5e:7e:38:ed:42:ec:1c:ca:90:94:e8:c2:89:06:
        f7:7b:65:1e:0c:7d:44:5c:fb:64:8c:51:48:fb:23:68:61:17:
        8a:4b:81:d1:90:10:1b:c1:3e:95:ba:48:c2:6e:15:99:97:39:
        d2:0e:d9:4c:be:cd:ad:a8:72:b2:6e:eb:23:a4:7a:a3:3a:b1:
        39:ea:b1:79:be:d7:29:df:51:be:1d:21:39:aa:72:01:a6:54:
        25:fc:16:b6:b7:14:ab:d2:d5:29:04:7d:f5:c2:ed:cb:cc:dd:
        93:90:39:e8
-----BEGIN CERTIFICATE-----
MIIDtzCCAp+gAwIBAgIULXssPfOEIU0yYT8a1/vA8OdjaGUwDQYJKoZIhvcNAQEL
BQAwgYMxCzAJBgNVBAYTAlVTMRAwDgYDVQQIDAdNb250YW5hMRAwDgYDVQQHDAdC
b3plbWFuMRQwEgYDVQQLDAtFbmdpbmVlcmluZzEYMBYGA1UEAwwPd3d3Lm5vbWF0
Y2guY29tMSAwHgYJKoZIhvcNAQkBFhFmYWN0c0B3b2xmc3NsLmNvbTAeFw0yNjA2
MTEyMTQ0MzNaFw0yOTAzMDcyMTQ0MzNaMIGDMQswCQYDVQQGEwJVUzEQMA4GA1UE
CAwHTW9udGFuYTEQMA4GA1UEBwwHQm96ZW1hbjEUMBIGA1UECwwLRW5naW5lZXJp
bmcxGDAWBgNVBAMMD3d3dy5ub21hdGNoLmNvbTEgMB4GCSqGSIb3DQEJARYRZmFj
dHNAd29sZnNzbC5jb20wggEiMA0GCSqGSIb3DQEBAQUAA4IBDwAwggEKAoIBAQDA
lQjhV0HycW230kVBJwFlxkWu8rwkMLiVzi9O1vYciLx8n/uoZ3/+XJxRdfeKygfn
NS+P4b17wC98q2SoF/zKXXu64CHlci5vLobYlXParBtTuV8/1xkNJU/hY2NRiwtk
P61DuKUcXDSzrgCgY8X2fwtZaHhzpowYqQJtr8MZAS64EOPGzEC0aaNGM2mHbsS7
F6bz6N2tc7x7LyG1/WZRDL1Us+FtXxy8I3PRCQOJFNIQuWTDKtChlkq84dQaW8eg
wMFjeA9ENzAyloAyI5Whd7oT0pdz4l0lyWoNwzlgpLSwaUJCCenYCLwzILNYIqeq
68Th5mGDxdKW39nQT63XAgMBAAGjITAfMB0GA1UdDgQWBBSzETLJkpiE4sn40Dtu
A0LKHw6OPDANBgkqhkiG9w0BAQsFAAOCAQEAkwA/G4r39uUUovoNE7899jQxqlzX
KhybRe3ivq9nU8rnEeGM9sUpX68qif4wWikBuDJ+U40uIBSxDp8vHuwBWUF/OF6r
xciO0vvQTopFY6uxeO9nh96fpggfaeFWRSPdGFQRFIJZhTntmen+VXyyQg6xj1n9
aMkl3J2apuFtq36NqDufdq8uU7YuLYgg5HifQyd/R15+OO1C7BzKkJTowokG93tl
Hgx9RFz7ZIxRSPsjaGEXikuB0ZAQG8E+lbpIwm4VmZc50g7ZTL7Nrahysm7rI6R6
ozqxOeqxeb7XKd9Rvh0hOapyAaZUJfwWtrcUq9LVKQR99cLty8zdk5A56A==
-----END CERTIFICATE-----
