Certificate:
    Data:
        Version: 3 (0x2)
        Serial Number:
            6b:d5:4f:73:be:43:aa:47:d4:ce:30:d4:5b:39:58:1e:05:94:6d:48
        Signature Algorithm: sha256WithRSAEncryption
        Issuer: C = US, ST = Montana, L = Bozeman, OU = Engineering, CN = localhost, emailAddress = info@wolfssl.com
        Validity
            Not Before: Dec 18 23:11:23 2024 GMT
            Not After : Sep 14 23:11:23 2027 GMT
        Subject: C = US, ST = Montana, L = Bozeman, OU = Engineering, CN = localhost, emailAddress = info@wolfssl.com
        Subject Public Key Info:
            Public Key Algorithm: rsaEncryption
                Public-Key: (2048 bit)
                Modulus:
                    00:c0:95:08:e1:57:41:f2:71:6d:b7:d2:45:41:27:
                    01:65:c6:45:ae:f2:bc:24:30:b8:95:ce:2f:4e:d6:
                    f6:1c:88:bc:7c:9f:fb:a8:67:7f:fe:5c:9c:51:75:
                    f7:8a:ca:07:e7:35:2f:8f:e1:bd:7b:c0:2f:7c:ab:
                    64:a8:17:fc:ca:5d:7b:ba:e0:21:e5:72:2e:6f:2e:
                    86:d8:95:73:da:ac:1b:53:b9:5f:3f:d7:19:0d:25:
                    4f:e1:63:63:51:8b:0b:64:3f:ad:43:b8:a5:1c:5c:
                    34:b3:ae:00:a0:63:c5:f6:7f:0b:59:68:78:73:a6:
                    8c:18:a9:02:6d:af:c3:19:01:2e:b8:10:e3:c6:cc:
                    40:b4:69:a3:46:33:69:87:6e:c4:bb:17:a6:f3:e8:
                    dd:ad:73:bc:7b:2f:21:b5:fd:66:51:0c:bd:54:b3:
                    e1:6d:5f:1c:bc:23:73:d1:09:03:89:14:d2:10:b9:
                    64:c3:2a:d0:a1:96:4a:bc:e1:d4:1a:5b:c7:a0:c0:
                    c1:63:78:0f:44:37:30:32:96:80:32:23:95:a1:77:
                    ba:13:d2:97:73:e2:5d:25:c9:6a:0d:c3:39:60:a4:
                    b4:b0:69:42:42:09:e9:d8:08:bc:33:20:b3:58:22:
                    a7:aa:eb:c4:e1:e6:61:83:c5:d2:96:df:d9:d0:4f:
                    ad:d7
                Exponent: 65537 (0x10001)
        X509v3 extensions:
            X509v3 Subject Alternative Name: 
                DNS:localhost
            X509v3 Subject Key Identifier: 
                B3:11:32:C9:92:98:84:E2:C9:F8:D0:3B:6E:03:42:CA:1F:0E:8E:3C
    Signature Algorithm: sha256WithRSAEncryption
    Signature Value:
        5b:8e:ee:b0:95:5c:91:e1:60:2f:ad:7e:c4:57:50:5f:32:4c:
        77:3c:2f:db:a2:ad:75:15:02:e1:3f:10:d5:3f:8c:4f:47:91:
        5c:3e:dd:98:15:52:a9:bf:57:65:f6:2a:40:64:07:89:4a:38:
        10:fd:54:e8:70:32:bd:f0:fe:cf:82:67:f4:4b:b5:18:aa:95:
        c8:2f:8f:75:7a:33:dc:9f:5e:82:5e:38:eb:2b:45:1d:95:ea:
        62:74:56:b4:ce:a2:eb:90:c3:42:6c:31:4e:30:d7:d1:3c:85:
        81:1b:82:f0:58:0e:be:55:da:ab:2c:69:4d:6f:e5:8d:af:fe:
        7d:ad:a9:62:a2:b5:ab:29:a7:f7:0c:78:12:ed:a3:db:32:99:
        41:90:11:4e:ee:97:99:0a:b6:89:19:c7:dd:1c:98:bf:d4:c4:
        8a:6b:0b:52:8a:0a:e9:c5:96:be:cc:95:9c:78:27:b8:5b:41:
        d8:05:47:0c:99:49:21:b0:26:76:6f:bc:7b:a0:b3:75:77:05:
        95:a5:4a:28:4a:8e:f6:4a:07:6b:f9:26:a3:4f:f2:9e:de:af:
        52:3e:36:30:57:f8:13:6b:66:a9:20:26:55:d1:e4:62:54:0c:
        dd:a7:7d:4a:66:5f:af:53:98:53:c6:72:57:4c:15:5f:c4:08:
        3c:ed:1d:30
-----BEGIN CERTIFICATE-----
MIIDvTCCAqWgAwIBAgIUa9VPc75DqkfUzjDUWzlYHgWUbUgwDQYJKoZIhvcNAQEL
BQAwfDELMAkGA1UEBhMCVVMxEDAOBgNVBAgMB01vbnRhbmExEDAOBgNVBAcMB0Jv
emVtYW4xFDASBgNVBAsMC0VuZ2luZWVyaW5nMRIwEAYDVQQDDAlsb2NhbGhvc3Qx
HzAdBgkqhkiG9w0BCQEWEGluZm9Ad29sZnNzbC5jb20wHhcNMjQxMjE4MjMxMTIz
WhcNMjcwOTE0MjMxMTIzWjB8MQswCQYDVQQGEwJVUzEQMA4GA1UECAwHTW9udGFu
YTEQMA4GA1UEBwwHQm96ZW1hbjEUMBIGA1UECwwLRW5naW5lZXJpbmcxEjAQBgNV
BAMMCWxvY2FsaG9zdDEfMB0GCSqGSIb3DQEJARYQaW5mb0B3b2xmc3NsLmNvbTCC
ASIwDQYJKoZIhvcNAQEBBQADggEPADCCAQoCggEBAMCVCOFXQfJxbbfSRUEnAWXG
Ra7yvCQwuJXOL07W9hyIvHyf+6hnf/5cnFF194rKB+c1L4/hvXvAL3yrZKgX/Mpd
e7rgIeVyLm8uhtiVc9qsG1O5Xz/XGQ0lT+FjY1GLC2Q/rUO4pRxcNLOuAKBjxfZ/
C1loeHOmjBipAm2vwxkBLrgQ48bMQLRpo0YzaYduxLsXpvPo3a1zvHsvIbX9ZlEM
vVSz4W1fHLwjc9EJA4kU0hC5ZMMq0KGWSrzh1Bpbx6DAwWN4D0Q3MDKWgDIjlaF3
uhPSl3PiXSXJag3DOWCktLBpQkIJ6dgIvDMgs1gip6rrxOHmYYPF0pbf2dBPrdcC
AwEAAaM3MDUwFAYDVR0RBA0wC4IJbG9jYWxob3N0MB0GA1UdDgQWBBSzETLJkpiE
4sn40DtuA0LKHw6OPDANBgkqhkiG9w0BAQsFAAOCAQEAW47usJVckeFgL61+xFdQ
XzJMdzwv26KtdRUC4T8Q1T+MT0eRXD7dmBVSqb9XZfYqQGQHiUo4EP1U6HAyvfD+
z4Jn9Eu1GKqVyC+PdXoz3J9egl446ytFHZXqYnRWtM6i65DDQmwxTjDX0TyFgRuC
8FgOvlXaqyxpTW/lja/+fa2pYqK1qymn9wx4Eu2j2zKZQZARTu6XmQq2iRnH3RyY
v9TEimsLUooK6cWWvsyVnHgnuFtB2AVHDJlJIbAmdm+8e6CzdXcFlaVKKEqO9koH
a/kmo0/ynt6vUj42MFf4E2tmqSAmVdHkYlQM3ad9SmZfr1OYU8ZyV0wVX8QIPO0d
MA==
-----END CERTIFICATE-----
