Certificate:
    Data:
        Version: 3 (0x2)
        Serial Number:
            49:22:dc:b8:bd:8f:5d:a9:4a:05:ac:ef:e2:21:51:5e:1f:40:60:46
        Signature Algorithm: sha256WithRSAEncryption
        Issuer: C=US, ST=Montana, L=Bozeman, OU=Engineering, CN=www.nomatch.com, emailAddress=facts@wolfssl.com
        Validity
            Not Before: Jun 11 21:44:33 2026 GMT
            Not After : Mar  7 21:44:33 2029 GMT
        Subject: C=US, ST=Montana, L=Bozeman, OU=Engineering, CN=www.nomatch.com, emailAddress=facts@wolfssl.com
        Subject Public Key Info:
            Public Key Algorithm: rsaEncryption
                Public-Key: (2048 bit)
                Modulus:
                    00:c0:95:08:e1:57:41:f2:71:6d:b7:d2:45:41:27:
                    01:65:c6:45:ae:f2:bc:24:30:b8:95:ce:2f:4e:d6:
                    f6:1c:88:bc:7c:9f:fb:a8:67:7f:fe:5c:9c:51:75:
                    f7:8a:ca:07:e7:35:2f:8f:e1:bd:7b:c0:2f:7c:ab:
                    64:a8:17:fc:ca:5d:7b:ba:e0:21:e5:72:2e:6f:2e:
                    86:d8:95:73:da:ac:1b:53:b9:5f:3f:d7:19:0d:25:
                    4f:e1:63:63:51:8b:0b:64:3f:ad:43:b8:a5:1c:5c:
                    34:b3:ae:00:a0:63:c5:f6:7f:0b:59:68:78:73:a6:
                    8c:18:a9:02:6d:af:c3:19:01:2e:b8:10:e3:c6:cc:
                    40:b4:69:a3:46:33:69:87:6e:c4:bb:17:a6:f3:e8:
                    dd:ad:73:bc:7b:2f:21:b5:fd:66:51:0c:bd:54:b3:
                    e1:6d:5f:1c:bc:23:73:d1:09:03:89:14:d2:10:b9:
                    64:c3:2a:d0:a1:96:4a:bc:e1:d4:1a:5b:c7:a0:c0:
                    c1:63:78:0f:44:37:30:32:96:80:32:23:95:a1:77:
                    ba:13:d2:97:73:e2:5d:25:c9:6a:0d:c3:39:60:a4:
                    b4:b0:69:42:42:09:e9:d8:08:bc:33:20:b3:58:22:
                    a7:aa:eb:c4:e1:e6:61:83:c5:d2:96:df:d9:d0:4f:
                    ad:d7
                Exponent: 65537 (0x10001)
        X509v3 extensions:
            X509v3 Subject Alternative Name: 
                DNS:*localhost
            X509v3 Subject Key Identifier: 
                B3:11:32:C9:92:98:84:E2:C9:F8:D0:3B:6E:03:42:CA:1F:0E:8E:3C
    Signature Algorithm: sha256WithRSAEncryption
    Signature Value:
        99:86:91:13:4d:8a:17:28:fd:2d:1e:c9:43:d0:df:86:3b:ee:
        72:3b:36:6f:57:2e:c4:9f:8a:81:90:16:a1:2a:c7:18:0e:40:
        40:3a:a0:e9:7e:4e:65:8c:0b:5b:c7:5b:43:e2:a5:bf:5f:d3:
        6b:dc:cc:d9:01:36:07:08:e5:f9:a9:54:f6:7f:5e:77:6b:43:
        c4:de:8a:82:7b:5a:7c:50:69:1e:79:0e:f4:33:94:c0:4e:06:
        37:30:50:7c:13:49:21:95:9d:be:3a:73:ea:e5:74:b1:b0:ed:
        98:a3:d9:86:b9:a4:c8:64:50:50:d2:1c:77:ab:5c:c6:92:19:
        6a:e7:52:4e:7b:f0:1d:54:fc:8b:0b:e3:d7:4a:4e:db:30:28:
        fb:e7:77:df:63:f8:8b:a4:eb:ab:97:27:9f:50:b7:83:26:fc:
        7b:a8:b9:bd:6d:04:0f:28:47:5b:b5:9c:c8:6e:ef:6d:c3:df:
        e6:33:8f:e3:d2:8a:03:b6:db:38:cb:d7:43:0c:f3:52:fa:6f:
        37:f5:59:e7:a5:e3:0f:77:f6:05:00:be:55:ae:93:53:a2:d1:
        6f:3e:ba:ea:cc:9d:a2:75:f9:5c:fe:45:57:93:16:ce:87:51:
        a8:ba:57:f3:d3:0a:3a:b2:09:87:dc:6b:6e:b6:d0:c4:a9:29:
        83:45:27:fd
-----BEGIN CERTIFICATE-----
MIIDzjCCAragAwIBAgIUSSLcuL2PXalKBazv4iFRXh9AYEYwDQYJKoZIhvcNAQEL
BQAwgYMxCzAJBgNVBAYTAlVTMRAwDgYDVQQIDAdNb250YW5hMRAwDgYDVQQHDAdC
b3plbWFuMRQwEgYDVQQLDAtFbmdpbmVlcmluZzEYMBYGA1UEAwwPd3d3Lm5vbWF0
Y2guY29tMSAwHgYJKoZIhvcNAQkBFhFmYWN0c0B3b2xmc3NsLmNvbTAeFw0yNjA2
MTEyMTQ0MzNaFw0yOTAzMDcyMTQ0MzNaMIGDMQswCQYDVQQGEwJVUzEQMA4GA1UE
CAwHTW9udGFuYTEQMA4GA1UEBwwHQm96ZW1hbjEUMBIGA1UECwwLRW5naW5lZXJp
bmcxGDAWBgNVBAMMD3d3dy5ub21hdGNoLmNvbTEgMB4GCSqGSIb3DQEJARYRZmFj
dHNAd29sZnNzbC5jb20wggEiMA0GCSqGSIb3DQEBAQUAA4IBDwAwggEKAoIBAQDA
lQjhV0HycW230kVBJwFlxkWu8rwkMLiVzi9O1vYciLx8n/uoZ3/+XJxRdfeKygfn
NS+P4b17wC98q2SoF/zKXXu64CHlci5vLobYlXParBtTuV8/1xkNJU/hY2NRiwtk
P61DuKUcXDSzrgCgY8X2fwtZaHhzpowYqQJtr8MZAS64EOPGzEC0aaNGM2mHbsS7
F6bz6N2tc7x7LyG1/WZRDL1Us+FtXxy8I3PRCQOJFNIQuWTDKtChlkq84dQaW8eg
wMFjeA9ENzAyloAyI5Whd7oT0pdz4l0lyWoNwzlgpLSwaUJCCenYCLwzILNYIqeq
68Th5mGDxdKW39nQT63XAgMBAAGjODA2MBUGA1UdEQQOMAyCCipsb2NhbGhvc3Qw
HQYDVR0OBBYEFLMRMsmSmITiyfjQO24DQsofDo48MA0GCSqGSIb3DQEBCwUAA4IB
AQCZhpETTYoXKP0tHslD0N+GO+5yOzZvVy7En4qBkBahKscYDkBAOqDpfk5ljAtb
x1tD4qW/X9Nr3MzZATYHCOX5qVT2f153a0PE3oqCe1p8UGkeeQ70M5TATgY3MFB8
E0khlZ2+OnPq5XSxsO2Yo9mGuaTIZFBQ0hx3q1zGkhlq51JOe/AdVPyLC+PXSk7b
MCj753ffY/iLpOurlyefULeDJvx7qLm9bQQPKEdbtZzIbu9tw9/mM4/j0ooDtts4
y9dDDPNS+m839VnnpeMPd/YFAL5VrpNTotFvPrrqzJ2idflc/kVXkxbOh1Goulfz
0wo6sgmH3GtuttDEqSmDRSf9
-----END CERTIFICATE-----
