Certificate:
    Data:
        Version: 3 (0x2)
        Serial Number:
            15:3a:56:1d:51:c0:ae:88:62:45:33:20:be:53:e6:4d:2c:e6:35:47
        Signature Algorithm: sha256WithRSAEncryption
        Issuer: C=US, ST=Montana, L=Bozeman, OU=Engineering, CN=DER:30:0d:82:0b:6c:6f:63:61:6c:68:6f:73:74:00:68, emailAddress=info@wolfssl.com
        Validity
            Not Before: Nov 13 20:41:30 2025 GMT
            Not After : Aug  9 20:41:30 2028 GMT
        Subject: C=US, ST=Montana, L=Bozeman, OU=Engineering, CN=DER:30:0d:82:0b:6c:6f:63:61:6c:68:6f:73:74:00:68, emailAddress=info@wolfssl.com
        Subject Public Key Info:
            Public Key Algorithm: rsaEncryption
                Public-Key: (2048 bit)
                Modulus:
                    00:c0:95:08:e1:57:41:f2:71:6d:b7:d2:45:41:27:
                    01:65:c6:45:ae:f2:bc:24:30:b8:95:ce:2f:4e:d6:
                    f6:1c:88:bc:7c:9f:fb:a8:67:7f:fe:5c:9c:51:75:
                    f7:8a:ca:07:e7:35:2f:8f:e1:bd:7b:c0:2f:7c:ab:
                    64:a8:17:fc:ca:5d:7b:ba:e0:21:e5:72:2e:6f:2e:
                    86:d8:95:73:da:ac:1b:53:b9:5f:3f:d7:19:0d:25:
                    4f:e1:63:63:51:8b:0b:64:3f:ad:43:b8:a5:1c:5c:
                    34:b3:ae:00:a0:63:c5:f6:7f:0b:59:68:78:73:a6:
                    8c:18:a9:02:6d:af:c3:19:01:2e:b8:10:e3:c6:cc:
                    40:b4:69:a3:46:33:69:87:6e:c4:bb:17:a6:f3:e8:
                    dd:ad:73:bc:7b:2f:21:b5:fd:66:51:0c:bd:54:b3:
                    e1:6d:5f:1c:bc:23:73:d1:09:03:89:14:d2:10:b9:
                    64:c3:2a:d0:a1:96:4a:bc:e1:d4:1a:5b:c7:a0:c0:
                    c1:63:78:0f:44:37:30:32:96:80:32:23:95:a1:77:
                    ba:13:d2:97:73:e2:5d:25:c9:6a:0d:c3:39:60:a4:
                    b4:b0:69:42:42:09:e9:d8:08:bc:33:20:b3:58:22:
                    a7:aa:eb:c4:e1:e6:61:83:c5:d2:96:df:d9:d0:4f:
                    ad:d7
                Exponent: 65537 (0x10001)
        X509v3 extensions:
            X509v3 Subject Key Identifier: 
                B3:11:32:C9:92:98:84:E2:C9:F8:D0:3B:6E:03:42:CA:1F:0E:8E:3C
    Signature Algorithm: sha256WithRSAEncryption
    Signature Value:
        6f:67:40:a9:60:02:97:1a:49:96:d1:50:91:f7:85:6a:c4:09:
        c6:87:ce:cb:3d:2a:cf:ea:6c:3b:de:35:8c:d8:89:70:4b:3c:
        cc:19:ed:e0:b7:2b:d8:b8:dd:d4:ae:5c:52:0e:ba:92:6e:a3:
        b1:af:41:75:99:27:f6:c7:22:c8:87:0a:40:a6:cd:67:83:63:
        c4:92:05:32:b6:3e:fe:15:ba:2f:f2:d5:40:c6:18:66:41:bd:
        cb:3e:a4:07:33:2a:2e:48:2c:05:22:8e:9b:d9:da:a2:57:30:
        ea:06:10:6a:88:b4:16:59:cb:65:a2:7c:e7:98:79:ab:14:be:
        1d:bc:35:64:29:f3:85:0c:d0:b9:c8:76:69:6b:db:cf:bf:f5:
        94:fb:f2:ca:cf:d5:23:99:e0:ca:3e:fd:93:ac:63:ab:1a:33:
        40:a3:41:6e:52:e2:40:aa:ea:d1:67:9d:fe:57:bc:ca:32:b9:
        46:aa:3d:4b:b3:db:b5:2d:b1:15:de:30:df:37:73:d4:0a:a3:
        b8:e0:1c:73:03:75:ad:97:fe:76:ee:8a:e9:97:5c:a3:9a:be:
        0e:c4:20:56:1e:dc:e4:62:10:0a:ce:ae:f1:1b:b5:6e:59:4f:
        fa:1f:0a:2b:75:78:37:3e:a4:af:b1:2d:3a:79:71:25:65:16:
        3d:63:f1:79
-----BEGIN CERTIFICATE-----
MIID9zCCAt+gAwIBAgIUFTpWHVHArohiRTMgvlPmTSzmNUcwDQYJKoZIhvcNAQEL
BQAwgaMxCzAJBgNVBAYTAlVTMRAwDgYDVQQIDAdNb250YW5hMRAwDgYDVQQHDAdC
b3plbWFuMRQwEgYDVQQLDAtFbmdpbmVlcmluZzE5MDcGA1UEAwwwREVSOjMwOjBk
OjgyOjBiOjZjOjZmOjYzOjYxOjZjOjY4OjZmOjczOjc0OjAwOjY4MR8wHQYJKoZI
hvcNAQkBFhBpbmZvQHdvbGZzc2wuY29tMB4XDTI1MTExMzIwNDEzMFoXDTI4MDgw
OTIwNDEzMFowgaMxCzAJBgNVBAYTAlVTMRAwDgYDVQQIDAdNb250YW5hMRAwDgYD
VQQHDAdCb3plbWFuMRQwEgYDVQQLDAtFbmdpbmVlcmluZzE5MDcGA1UEAwwwREVS
OjMwOjBkOjgyOjBiOjZjOjZmOjYzOjYxOjZjOjY4OjZmOjczOjc0OjAwOjY4MR8w
HQYJKoZIhvcNAQkBFhBpbmZvQHdvbGZzc2wuY29tMIIBIjANBgkqhkiG9w0BAQEF
AAOCAQ8AMIIBCgKCAQEAwJUI4VdB8nFtt9JFQScBZcZFrvK8JDC4lc4vTtb2HIi8
fJ/7qGd//lycUXX3isoH5zUvj+G9e8AvfKtkqBf8yl17uuAh5XIuby6G2JVz2qwb
U7lfP9cZDSVP4WNjUYsLZD+tQ7ilHFw0s64AoGPF9n8LWWh4c6aMGKkCba/DGQEu
uBDjxsxAtGmjRjNph27Euxem8+jdrXO8ey8htf1mUQy9VLPhbV8cvCNz0QkDiRTS
ELlkwyrQoZZKvOHUGlvHoMDBY3gPRDcwMpaAMiOVoXe6E9KXc+JdJclqDcM5YKS0
sGlCQgnp2Ai8MyCzWCKnquvE4eZhg8XSlt/Z0E+t1wIDAQABoyEwHzAdBgNVHQ4E
FgQUsxEyyZKYhOLJ+NA7bgNCyh8OjjwwDQYJKoZIhvcNAQELBQADggEBAG9nQKlg
ApcaSZbRUJH3hWrECcaHzss9Ks/qbDveNYzYiXBLPMwZ7eC3K9i43dSuXFIOupJu
o7GvQXWZJ/bHIsiHCkCmzWeDY8SSBTK2Pv4Vui/y1UDGGGZBvcs+pAczKi5ILAUi
jpvZ2qJXMOoGEGqItBZZy2WifOeYeasUvh28NWQp84UM0LnIdmlr28+/9ZT78srP
1SOZ4Mo+/ZOsY6saM0CjQW5S4kCq6tFnnf5XvMoyuUaqPUuz27UtsRXeMN83c9QK
o7jgHHMDda2X/nbuiumXXKOavg7EIFYe3ORiEArOrvEbtW5ZT/ofCit1eDc+pK+x
LTp5cSVlFj1j8Xk=
-----END CERTIFICATE-----
