Certificate:
    Data:
        Version: 3 (0x2)
        Serial Number: 2 (0x2)
        Signature Algorithm: sha256WithRSAEncryption
        Issuer: C = US, ST = Montana, L = Bozeman, O = Sawtooth, OU = Consulting, CN = www.wolfssl.com, emailAddress = info@wolfssl.com
        Validity
            Not Before: Sep 26 17:22:42 2023 GMT
            Not After : Jun 22 17:22:42 2026 GMT
        Subject: C = US, ST = Montana, L = Bozeman, O = wolfSSL, OU = testing duplicate policy, CN = www.wolfssl.com, emailAddress = info@wolfssl.com
        Subject Public Key Info:
            Public Key Algorithm: rsaEncryption
                Public-Key: (2048 bit)
                Modulus:
                    00:c0:95:08:e1:57:41:f2:71:6d:b7:d2:45:41:27:
                    01:65:c6:45:ae:f2:bc:24:30:b8:95:ce:2f:4e:d6:
                    f6:1c:88:bc:7c:9f:fb:a8:67:7f:fe:5c:9c:51:75:
                    f7:8a:ca:07:e7:35:2f:8f:e1:bd:7b:c0:2f:7c:ab:
                    64:a8:17:fc:ca:5d:7b:ba:e0:21:e5:72:2e:6f:2e:
                    86:d8:95:73:da:ac:1b:53:b9:5f:3f:d7:19:0d:25:
                    4f:e1:63:63:51:8b:0b:64:3f:ad:43:b8:a5:1c:5c:
                    34:b3:ae:00:a0:63:c5:f6:7f:0b:59:68:78:73:a6:
                    8c:18:a9:02:6d:af:c3:19:01:2e:b8:10:e3:c6:cc:
                    40:b4:69:a3:46:33:69:87:6e:c4:bb:17:a6:f3:e8:
                    dd:ad:73:bc:7b:2f:21:b5:fd:66:51:0c:bd:54:b3:
                    e1:6d:5f:1c:bc:23:73:d1:09:03:89:14:d2:10:b9:
                    64:c3:2a:d0:a1:96:4a:bc:e1:d4:1a:5b:c7:a0:c0:
                    c1:63:78:0f:44:37:30:32:96:80:32:23:95:a1:77:
                    ba:13:d2:97:73:e2:5d:25:c9:6a:0d:c3:39:60:a4:
                    b4:b0:69:42:42:09:e9:d8:08:bc:33:20:b3:58:22:
                    a7:aa:eb:c4:e1:e6:61:83:c5:d2:96:df:d9:d0:4f:
                    ad:d7
                Exponent: 65537 (0x10001)
        X509v3 extensions:
            X509v3 Subject Key Identifier: 
                B3:11:32:C9:92:98:84:E2:C9:F8:D0:3B:6E:03:42:CA:1F:0E:8E:3C
            X509v3 Authority Key Identifier: 
                keyid:27:8E:67:11:74:C3:26:1D:3F:ED:33:63:B3:A4:D8:1D:30:E5:E8:D5
                DirName:/C=US/ST=Montana/L=Bozeman/O=Sawtooth/OU=Consulting/CN=www.wolfssl.com/emailAddress=info@wolfssl.com
                serial:4F:1D:F3:64:BA:21:A8:E6:CB:74:3A:4E:44:A5:E6:79:19:E8:5B:81
            X509v3 Basic Constraints: 
                CA:FALSE
            X509v3 Certificate Policies: 
                Policy: 1.2.3.4
                Policy: 1.2.3.4
                  CPS: www.wolfssl.com
                  User Notice:
                    Explicit Text: Test of duplicate OIDs with different qualifiers
    Signature Algorithm: sha256WithRSAEncryption
    Signature Value:
        49:c4:fd:b6:f5:a5:0e:dd:e8:6c:f4:38:0d:35:00:b4:e7:f2:
        cd:c7:fa:a6:7c:7b:01:7a:c5:a0:f0:67:08:2d:10:b9:95:ba:
        21:e7:55:a6:88:0d:90:58:19:7a:c2:ac:60:5f:d2:2c:09:9b:
        e1:99:cb:1e:20:15:ac:f7:e3:f3:14:42:e7:77:29:fc:9c:bf:
        49:4b:10:7a:8e:c9:cb:60:73:21:09:ed:06:01:e8:a7:32:f2:
        ee:3e:f3:a7:85:00:9e:3f:bd:0b:ea:1f:d7:6e:e1:22:f3:9f:
        2a:b2:10:cf:d7:b9:71:72:f0:b0:ff:32:87:68:a2:ea:fb:d9:
        1c:cc:c2:29:5d:18:94:86:b4:8a:90:ed:88:4f:77:49:b6:34:
        22:3f:a3:62:0e:ee:5f:56:82:c5:f8:3c:7c:7a:68:a4:53:db:
        e2:c1:95:a7:e8:99:86:c1:f6:6c:12:22:e8:29:88:0f:54:42:
        57:70:e3:a0:0c:2b:75:44:b4:02:5a:79:3c:6f:42:14:cb:32:
        39:32:86:cb:01:cd:a4:0c:08:fa:1c:0e:c2:4b:72:a2:ea:e3:
        93:26:3a:b5:f5:2d:75:6c:0f:e3:55:bc:28:6f:73:2f:35:19:
        29:e0:e8:79:58:f8:d9:99:38:86:35:a9:f7:c5:9e:56:eb:83:
        54:fd:5e:e0
-----BEGIN CERTIFICATE-----
MIIFMTCCBBmgAwIBAgIBAjANBgkqhkiG9w0BAQsFADCBlDELMAkGA1UEBhMCVVMx
EDAOBgNVBAgMB01vbnRhbmExEDAOBgNVBAcMB0JvemVtYW4xETAPBgNVBAoMCFNh
d3Rvb3RoMRMwEQYDVQQLDApDb25zdWx0aW5nMRgwFgYDVQQDDA93d3cud29sZnNz
bC5jb20xHzAdBgkqhkiG9w0BCQEWEGluZm9Ad29sZnNzbC5jb20wHhcNMjMwOTI2
MTcyMjQyWhcNMjYwNjIyMTcyMjQyWjCBoTELMAkGA1UEBhMCVVMxEDAOBgNVBAgM
B01vbnRhbmExEDAOBgNVBAcMB0JvemVtYW4xEDAOBgNVBAoMB3dvbGZTU0wxITAf
BgNVBAsMGHRlc3RpbmcgZHVwbGljYXRlIHBvbGljeTEYMBYGA1UEAwwPd3d3Lndv
bGZzc2wuY29tMR8wHQYJKoZIhvcNAQkBFhBpbmZvQHdvbGZzc2wuY29tMIIBIjAN
BgkqhkiG9w0BAQEFAAOCAQ8AMIIBCgKCAQEAwJUI4VdB8nFtt9JFQScBZcZFrvK8
JDC4lc4vTtb2HIi8fJ/7qGd//lycUXX3isoH5zUvj+G9e8AvfKtkqBf8yl17uuAh
5XIuby6G2JVz2qwbU7lfP9cZDSVP4WNjUYsLZD+tQ7ilHFw0s64AoGPF9n8LWWh4
c6aMGKkCba/DGQEuuBDjxsxAtGmjRjNph27Euxem8+jdrXO8ey8htf1mUQy9VLPh
bV8cvCNz0QkDiRTSELlkwyrQoZZKvOHUGlvHoMDBY3gPRDcwMpaAMiOVoXe6E9KX
c+JdJclqDcM5YKS0sGlCQgnp2Ai8MyCzWCKnquvE4eZhg8XSlt/Z0E+t1wIDAQAB
o4IBfTCCAXkwHQYDVR0OBBYEFLMRMsmSmITiyfjQO24DQsofDo48MIHUBgNVHSME
gcwwgcmAFCeOZxF0wyYdP+0zY7Ok2B0w5ejVoYGapIGXMIGUMQswCQYDVQQGEwJV
UzEQMA4GA1UECAwHTW9udGFuYTEQMA4GA1UEBwwHQm96ZW1hbjERMA8GA1UECgwI
U2F3dG9vdGgxEzARBgNVBAsMCkNvbnN1bHRpbmcxGDAWBgNVBAMMD3d3dy53b2xm
c3NsLmNvbTEfMB0GCSqGSIb3DQEJARYQaW5mb0B3b2xmc3NsLmNvbYIUTx3zZLoh
qObLdDpORKXmeRnoW4EwCQYDVR0TBAIwADB2BgNVHSAEbzBtMAUGAyoDBDBkBgMq
AwQwXTAbBggrBgEFBQcCARYPd3d3LndvbGZzc2wuY29tMD4GCCsGAQUFBwICMDIa
MFRlc3Qgb2YgZHVwbGljYXRlIE9JRHMgd2l0aCBkaWZmZXJlbnQgcXVhbGlmaWVy
czANBgkqhkiG9w0BAQsFAAOCAQEAScT9tvWlDt3obPQ4DTUAtOfyzcf6pnx7AXrF
oPBnCC0QuZW6IedVpogNkFgZesKsYF/SLAmb4ZnLHiAVrPfj8xRC53cp/Jy/SUsQ
eo7Jy2BzIQntBgHopzLy7j7zp4UAnj+9C+of127hIvOfKrIQz9e5cXLwsP8yh2ii
6vvZHMzCKV0YlIa0ipDtiE93SbY0Ij+jYg7uX1aCxfg8fHpopFPb4sGVp+iZhsH2
bBIi6CmID1RCV3DjoAwrdUS0Alp5PG9CFMsyOTKGywHNpAwI+hwOwktyourjkyY6
tfUtdWwP41W8KG9zLzUZKeDoeVj42Zk4hjWp98WeVuuDVP1e4A==
-----END CERTIFICATE-----
Certificate:
    Data:
        Version: 3 (0x2)
        Serial Number:
            4f:1d:f3:64:ba:21:a8:e6:cb:74:3a:4e:44:a5:e6:79:19:e8:5b:81
        Signature Algorithm: sha256WithRSAEncryption
        Issuer: C = US, ST = Montana, L = Bozeman, O = Sawtooth, OU = Consulting, CN = www.wolfssl.com, emailAddress = info@wolfssl.com
        Validity
            Not Before: Sep 26 17:22:42 2023 GMT
            Not After : Jun 22 17:22:42 2026 GMT
        Subject: C = US, ST = Montana, L = Bozeman, O = Sawtooth, OU = Consulting, CN = www.wolfssl.com, emailAddress = info@wolfssl.com
        Subject Public Key Info:
            Public Key Algorithm: rsaEncryption
                Public-Key: (2048 bit)
                Modulus:
                    00:bf:0c:ca:2d:14:b2:1e:84:42:5b:cd:38:1f:4a:
                    f2:4d:75:10:f1:b6:35:9f:df:ca:7d:03:98:d3:ac:
                    de:03:66:ee:2a:f1:d8:b0:7d:6e:07:54:0b:10:98:
                    21:4d:80:cb:12:20:e7:cc:4f:de:45:7d:c9:72:77:
                    32:ea:ca:90:bb:69:52:10:03:2f:a8:f3:95:c5:f1:
                    8b:62:56:1b:ef:67:6f:a4:10:41:95:ad:0a:9b:e3:
                    a5:c0:b0:d2:70:76:50:30:5b:a8:e8:08:2c:7c:ed:
                    a7:a2:7a:8d:38:29:1c:ac:c7:ed:f2:7c:95:b0:95:
                    82:7d:49:5c:38:cd:77:25:ef:bd:80:75:53:94:3c:
                    3d:ca:63:5b:9f:15:b5:d3:1d:13:2f:19:d1:3c:db:
                    76:3a:cc:b8:7d:c9:e5:c2:d7:da:40:6f:d8:21:dc:
                    73:1b:42:2d:53:9c:fe:1a:fc:7d:ab:7a:36:3f:98:
                    de:84:7c:05:67:ce:6a:14:38:87:a9:f1:8c:b5:68:
                    cb:68:7f:71:20:2b:f5:a0:63:f5:56:2f:a3:26:d2:
                    b7:6f:b1:5a:17:d7:38:99:08:fe:93:58:6f:fe:c3:
                    13:49:08:16:0b:a7:4d:67:00:52:31:67:23:4e:98:
                    ed:51:45:1d:b9:04:d9:0b:ec:d8:28:b3:4b:bd:ed:
                    36:79
                Exponent: 65537 (0x10001)
        X509v3 extensions:
            X509v3 Subject Key Identifier: 
                27:8E:67:11:74:C3:26:1D:3F:ED:33:63:B3:A4:D8:1D:30:E5:E8:D5
            X509v3 Authority Key Identifier: 
                keyid:27:8E:67:11:74:C3:26:1D:3F:ED:33:63:B3:A4:D8:1D:30:E5:E8:D5
                DirName:/C=US/ST=Montana/L=Bozeman/O=Sawtooth/OU=Consulting/CN=www.wolfssl.com/emailAddress=info@wolfssl.com
                serial:4F:1D:F3:64:BA:21:A8:E6:CB:74:3A:4E:44:A5:E6:79:19:E8:5B:81
            X509v3 Basic Constraints: 
                CA:TRUE
            X509v3 Subject Alternative Name: 
                DNS:example.com, IP Address:127.0.0.1
            X509v3 Extended Key Usage: 
                TLS Web Server Authentication, TLS Web Client Authentication
    Signature Algorithm: sha256WithRSAEncryption
    Signature Value:
        37:93:7f:df:07:03:36:9d:cf:07:b8:a1:85:9b:ca:6b:8d:db:
        d0:bd:2d:06:9c:03:f5:af:4a:1c:16:ad:9e:37:5a:2a:eb:08:
        9e:62:64:41:30:2e:6e:44:ed:68:55:00:53:74:7e:9f:bb:6c:
        56:54:f1:9f:00:e7:27:73:5c:26:d7:25:74:f7:4d:38:24:78:
        32:a1:f5:5a:e3:7e:c6:b5:71:3d:f6:d6:79:8b:ea:e2:97:51:
        74:fa:89:72:56:be:56:fc:ff:7e:cf:d8:39:37:bf:c8:d2:47:
        43:7d:23:07:93:e9:06:80:0e:2f:80:fb:61:a9:81:1e:c1:f8:
        02:f9:97:85:ce:89:99:ea:42:03:53:46:53:40:ab:11:80:78:
        63:84:94:ab:e7:52:8d:60:60:ff:82:83:34:bb:51:4c:8e:2a:
        46:1d:a7:a5:dd:0d:eb:ce:78:4a:7f:c2:96:4a:78:97:4d:02:
        b1:23:8a:58:45:eb:28:6b:ef:f1:2a:4b:1b:51:28:06:ee:97:
        c8:45:6b:46:4e:64:e0:b0:7c:e7:51:57:11:bc:fd:b9:38:a0:
        fa:ac:cf:44:d4:ea:3f:96:9d:40:98:c7:fa:1d:8e:f4:7e:fe:
        21:59:9d:54:e3:ab:94:3d:72:c7:a3:b0:62:9b:b2:22:8f:b1:
        71:e8:1e:9d
-----BEGIN CERTIFICATE-----
MIIE/zCCA+egAwIBAgIUTx3zZLohqObLdDpORKXmeRnoW4EwDQYJKoZIhvcNAQEL
BQAwgZQxCzAJBgNVBAYTAlVTMRAwDgYDVQQIDAdNb250YW5hMRAwDgYDVQQHDAdC
b3plbWFuMREwDwYDVQQKDAhTYXd0b290aDETMBEGA1UECwwKQ29uc3VsdGluZzEY
MBYGA1UEAwwPd3d3LndvbGZzc2wuY29tMR8wHQYJKoZIhvcNAQkBFhBpbmZvQHdv
bGZzc2wuY29tMB4XDTIzMDkyNjE3MjI0MloXDTI2MDYyMjE3MjI0MlowgZQxCzAJ
BgNVBAYTAlVTMRAwDgYDVQQIDAdNb250YW5hMRAwDgYDVQQHDAdCb3plbWFuMREw
DwYDVQQKDAhTYXd0b290aDETMBEGA1UECwwKQ29uc3VsdGluZzEYMBYGA1UEAwwP
d3d3LndvbGZzc2wuY29tMR8wHQYJKoZIhvcNAQkBFhBpbmZvQHdvbGZzc2wuY29t
MIIBIjANBgkqhkiG9w0BAQEFAAOCAQ8AMIIBCgKCAQEAvwzKLRSyHoRCW804H0ry
TXUQ8bY1n9/KfQOY06zeA2buKvHYsH1uB1QLEJghTYDLEiDnzE/eRX3Jcncy6sqQ
u2lSEAMvqPOVxfGLYlYb72dvpBBBla0Km+OlwLDScHZQMFuo6AgsfO2nonqNOCkc
rMft8nyVsJWCfUlcOM13Je+9gHVTlDw9ymNbnxW10x0TLxnRPNt2Osy4fcnlwtfa
QG/YIdxzG0ItU5z+Gvx9q3o2P5jehHwFZ85qFDiHqfGMtWjLaH9xICv1oGP1Vi+j
JtK3b7FaF9c4mQj+k1hv/sMTSQgWC6dNZwBSMWcjTpjtUUUduQTZC+zYKLNLve02
eQIDAQABo4IBRTCCAUEwHQYDVR0OBBYEFCeOZxF0wyYdP+0zY7Ok2B0w5ejVMIHU
BgNVHSMEgcwwgcmAFCeOZxF0wyYdP+0zY7Ok2B0w5ejVoYGapIGXMIGUMQswCQYD
VQQGEwJVUzEQMA4GA1UECAwHTW9udGFuYTEQMA4GA1UEBwwHQm96ZW1hbjERMA8G
A1UECgwIU2F3dG9vdGgxEzARBgNVBAsMCkNvbnN1bHRpbmcxGDAWBgNVBAMMD3d3
dy53b2xmc3NsLmNvbTEfMB0GCSqGSIb3DQEJARYQaW5mb0B3b2xmc3NsLmNvbYIU
Tx3zZLohqObLdDpORKXmeRnoW4EwDAYDVR0TBAUwAwEB/zAcBgNVHREEFTATggtl
eGFtcGxlLmNvbYcEfwAAATAdBgNVHSUEFjAUBggrBgEFBQcDAQYIKwYBBQUHAwIw
DQYJKoZIhvcNAQELBQADggEBADeTf98HAzadzwe4oYWbymuN29C9LQacA/WvShwW
rZ43WirrCJ5iZEEwLm5E7WhVAFN0fp+7bFZU8Z8A5ydzXCbXJXT3TTgkeDKh9Vrj
fsa1cT321nmL6uKXUXT6iXJWvlb8/37P2Dk3v8jSR0N9IweT6QaADi+A+2GpgR7B
+AL5l4XOiZnqQgNTRlNAqxGAeGOElKvnUo1gYP+CgzS7UUyOKkYdp6XdDevOeEp/
wpZKeJdNArEjilhF6yhr7/EqSxtRKAbul8hFa0ZOZOCwfOdRVxG8/bk4oPqsz0TU
6j+WnUCYx/odjvR+/iFZnVTjq5Q9csejsGKbsiKPsXHoHp0=
-----END CERTIFICATE-----
