Certificate:
    Data:
        Version: 3 (0x2)
        Serial Number:
            77:f0:7a:e3:b9:07:5c:49:0d:05:03:01:ea:13:42:36:15:7f:24:f0
        Signature Algorithm: sha256WithRSAEncryption
        Issuer: C=US, ST=Montana, L=Bozeman, OU=Engineering, CN=www.nomatch.com, emailAddress=info@wolfssl.com
        Validity
            Not Before: Nov 13 20:41:29 2025 GMT
            Not After : Aug  9 20:41:29 2028 GMT
        Subject: C=US, ST=Montana, L=Bozeman, OU=Engineering, CN=www.nomatch.com, emailAddress=info@wolfssl.com
        Subject Public Key Info:
            Public Key Algorithm: rsaEncryption
                Public-Key: (2048 bit)
                Modulus:
                    00:c0:95:08:e1:57:41:f2:71:6d:b7:d2:45:41:27:
                    01:65:c6:45:ae:f2:bc:24:30:b8:95:ce:2f:4e:d6:
                    f6:1c:88:bc:7c:9f:fb:a8:67:7f:fe:5c:9c:51:75:
                    f7:8a:ca:07:e7:35:2f:8f:e1:bd:7b:c0:2f:7c:ab:
                    64:a8:17:fc:ca:5d:7b:ba:e0:21:e5:72:2e:6f:2e:
                    86:d8:95:73:da:ac:1b:53:b9:5f:3f:d7:19:0d:25:
                    4f:e1:63:63:51:8b:0b:64:3f:ad:43:b8:a5:1c:5c:
                    34:b3:ae:00:a0:63:c5:f6:7f:0b:59:68:78:73:a6:
                    8c:18:a9:02:6d:af:c3:19:01:2e:b8:10:e3:c6:cc:
                    40:b4:69:a3:46:33:69:87:6e:c4:bb:17:a6:f3:e8:
                    dd:ad:73:bc:7b:2f:21:b5:fd:66:51:0c:bd:54:b3:
                    e1:6d:5f:1c:bc:23:73:d1:09:03:89:14:d2:10:b9:
                    64:c3:2a:d0:a1:96:4a:bc:e1:d4:1a:5b:c7:a0:c0:
                    c1:63:78:0f:44:37:30:32:96:80:32:23:95:a1:77:
                    ba:13:d2:97:73:e2:5d:25:c9:6a:0d:c3:39:60:a4:
                    b4:b0:69:42:42:09:e9:d8:08:bc:33:20:b3:58:22:
                    a7:aa:eb:c4:e1:e6:61:83:c5:d2:96:df:d9:d0:4f:
                    ad:d7
                Exponent: 65537 (0x10001)
        X509v3 extensions:
            X509v3 Subject Alternative Name: 
                DNS:*localhost
            X509v3 Subject Key Identifier: 
                B3:11:32:C9:92:98:84:E2:C9:F8:D0:3B:6E:03:42:CA:1F:0E:8E:3C
    Signature Algorithm: sha256WithRSAEncryption
    Signature Value:
        9a:1e:e4:0b:44:ea:1a:c9:4d:15:ca:f6:c2:2a:5d:1a:e9:64:
        15:1c:83:d4:ba:7e:40:0b:fe:25:60:dc:53:66:58:a8:77:37:
        ab:c3:46:68:72:92:70:10:35:da:d2:f0:bb:74:bb:98:06:3b:
        1e:76:e7:36:d1:7d:4b:d0:4b:c9:73:8e:e6:f9:2c:f6:33:c1:
        39:f8:a1:85:95:9f:82:18:76:b8:f3:c9:85:5e:f0:ac:eb:5c:
        aa:46:ab:04:06:49:8a:1c:1c:6d:ab:02:fc:58:85:39:34:97:
        2d:39:88:6d:f1:d1:c6:eb:fc:6e:f1:e7:47:4e:63:ad:8b:96:
        a7:92:ce:64:d5:1a:70:ac:01:21:b2:41:10:cb:bf:bc:bb:5b:
        c6:20:4b:db:28:40:78:93:a8:df:92:73:44:41:ab:2e:76:df:
        1e:2e:20:9f:82:24:79:3b:05:ce:3c:00:6c:bc:67:43:2e:fc:
        16:42:1a:b0:6f:2d:bf:55:61:32:4a:c1:64:a6:56:42:56:29:
        19:6b:12:cb:84:27:0e:5f:92:b4:e5:11:60:71:38:1b:45:4b:
        eb:29:69:b7:44:0b:e9:79:cd:54:d8:32:d5:77:ed:53:21:c1:
        7e:1c:ec:04:fb:25:09:34:dc:a7:8b:9e:38:8b:b3:ff:95:5e:
        93:81:7c:72
-----BEGIN CERTIFICATE-----
MIIDzDCCArSgAwIBAgIUd/B647kHXEkNBQMB6hNCNhV/JPAwDQYJKoZIhvcNAQEL
BQAwgYIxCzAJBgNVBAYTAlVTMRAwDgYDVQQIDAdNb250YW5hMRAwDgYDVQQHDAdC
b3plbWFuMRQwEgYDVQQLDAtFbmdpbmVlcmluZzEYMBYGA1UEAwwPd3d3Lm5vbWF0
Y2guY29tMR8wHQYJKoZIhvcNAQkBFhBpbmZvQHdvbGZzc2wuY29tMB4XDTI1MTEx
MzIwNDEyOVoXDTI4MDgwOTIwNDEyOVowgYIxCzAJBgNVBAYTAlVTMRAwDgYDVQQI
DAdNb250YW5hMRAwDgYDVQQHDAdCb3plbWFuMRQwEgYDVQQLDAtFbmdpbmVlcmlu
ZzEYMBYGA1UEAwwPd3d3Lm5vbWF0Y2guY29tMR8wHQYJKoZIhvcNAQkBFhBpbmZv
QHdvbGZzc2wuY29tMIIBIjANBgkqhkiG9w0BAQEFAAOCAQ8AMIIBCgKCAQEAwJUI
4VdB8nFtt9JFQScBZcZFrvK8JDC4lc4vTtb2HIi8fJ/7qGd//lycUXX3isoH5zUv
j+G9e8AvfKtkqBf8yl17uuAh5XIuby6G2JVz2qwbU7lfP9cZDSVP4WNjUYsLZD+t
Q7ilHFw0s64AoGPF9n8LWWh4c6aMGKkCba/DGQEuuBDjxsxAtGmjRjNph27Euxem
8+jdrXO8ey8htf1mUQy9VLPhbV8cvCNz0QkDiRTSELlkwyrQoZZKvOHUGlvHoMDB
Y3gPRDcwMpaAMiOVoXe6E9KXc+JdJclqDcM5YKS0sGlCQgnp2Ai8MyCzWCKnquvE
4eZhg8XSlt/Z0E+t1wIDAQABozgwNjAVBgNVHREEDjAMggoqbG9jYWxob3N0MB0G
A1UdDgQWBBSzETLJkpiE4sn40DtuA0LKHw6OPDANBgkqhkiG9w0BAQsFAAOCAQEA
mh7kC0TqGslNFcr2wipdGulkFRyD1Lp+QAv+JWDcU2ZYqHc3q8NGaHKScBA12tLw
u3S7mAY7HnbnNtF9S9BLyXOO5vks9jPBOfihhZWfghh2uPPJhV7wrOtcqkarBAZJ
ihwcbasC/FiFOTSXLTmIbfHRxuv8bvHnR05jrYuWp5LOZNUacKwBIbJBEMu/vLtb
xiBL2yhAeJOo35JzREGrLnbfHi4gn4IkeTsFzjwAbLxnQy78FkIasG8tv1VhMkrB
ZKZWQlYpGWsSy4QnDl+StOURYHE4G0VL6ylpt0QL6XnNVNgy1XftUyHBfhzsBPsl
CTTcp4ueOIuz/5Vek4F8cg==
-----END CERTIFICATE-----
