Certificate:
    Data:
        Version: 3 (0x2)
        Serial Number: 3 (0x3)
        Signature Algorithm: ecdsa-with-SHA256
        Issuer: C=US, ST=Washington, L=Seattle, O=wolfSSL, OU=Development, CN=www.wolfssl.com, emailAddress=info@wolfssl.com
        Validity
            Not Before: Nov 13 20:41:15 2025 GMT
            Not After : Aug  9 20:41:15 2028 GMT
        Subject: C=US, ST=Washington, L=Seattle, O=Elliptic, OU=ECC, CN=www.wolfssl.com, emailAddress=info@wolfssl.com
        Subject Public Key Info:
            Public Key Algorithm: id-ecPublicKey
                Public-Key: (256 bit)
                pub:
                    04:bb:33:ac:4c:27:50:4a:c6:4a:a5:04:c3:3c:de:
                    9f:36:db:72:2d:ce:94:ea:2b:fa:cb:20:09:39:2c:
                    16:e8:61:02:e9:af:4d:d3:02:93:9a:31:5b:97:92:
                    21:7f:f0:cf:18:da:91:11:02:34:86:e8:20:58:33:
                    0b:80:34:89:d8
                ASN1 OID: prime256v1
                NIST CURVE: P-256
        X509v3 extensions:
            X509v3 Subject Key Identifier: 
                5D:5D:26:EF:AC:7E:36:F9:9B:76:15:2B:4A:25:02:23:EF:B2:89:30
            X509v3 Authority Key Identifier: 
                56:8E:9A:C3:F0:42:DE:18:B9:45:55:6E:F9:93:CF:EA:C3:F3:A5:21
            X509v3 Basic Constraints: critical
                CA:FALSE
            X509v3 Key Usage: critical
                Digital Signature, Key Encipherment, Key Agreement
            X509v3 Extended Key Usage: 
                TLS Web Server Authentication
            Netscape Cert Type: 
                SSL Server
    Signature Algorithm: ecdsa-with-SHA256
    Signature Value:
        30:46:02:21:00:f8:2f:f4:39:99:19:97:11:37:9f:d8:d7:7f:
        04:a6:ca:74:59:9a:fe:30:5b:4d:e5:31:06:55:9c:e8:f6:b4:
        71:02:21:00:a1:52:c9:72:89:c6:4f:22:e7:bf:97:68:dc:ff:
        7d:97:15:05:9d:d8:56:29:f5:df:de:a7:2d:90:d1:c5:27:30
-----BEGIN CERTIFICATE-----
MIICozCCAkigAwIBAgIBAzAKBggqhkjOPQQDAjCBlzELMAkGA1UEBhMCVVMxEzAR
BgNVBAgMCldhc2hpbmd0b24xEDAOBgNVBAcMB1NlYXR0bGUxEDAOBgNVBAoMB3dv
bGZTU0wxFDASBgNVBAsMC0RldmVsb3BtZW50MRgwFgYDVQQDDA93d3cud29sZnNz
bC5jb20xHzAdBgkqhkiG9w0BCQEWEGluZm9Ad29sZnNzbC5jb20wHhcNMjUxMTEz
MjA0MTE1WhcNMjgwODA5MjA0MTE1WjCBkDELMAkGA1UEBhMCVVMxEzARBgNVBAgM
Cldhc2hpbmd0b24xEDAOBgNVBAcMB1NlYXR0bGUxETAPBgNVBAoMCEVsbGlwdGlj
MQwwCgYDVQQLDANFQ0MxGDAWBgNVBAMMD3d3dy53b2xmc3NsLmNvbTEfMB0GCSqG
SIb3DQEJARYQaW5mb0B3b2xmc3NsLmNvbTBZMBMGByqGSM49AgEGCCqGSM49AwEH
A0IABLszrEwnUErGSqUEwzzenzbbci3OlOor+ssgCTksFuhhAumvTdMCk5oxW5eS
IX/wzxjakRECNIboIFgzC4A0idijgYkwgYYwHQYDVR0OBBYEFF1dJu+sfjb5m3YV
K0olAiPvsokwMB8GA1UdIwQYMBaAFFaOmsPwQt4YuUVVbvmTz+rD86UhMAwGA1Ud
EwEB/wQCMAAwDgYDVR0PAQH/BAQDAgOoMBMGA1UdJQQMMAoGCCsGAQUFBwMBMBEG
CWCGSAGG+EIBAQQEAwIGQDAKBggqhkjOPQQDAgNJADBGAiEA+C/0OZkZlxE3n9jX
fwSmynRZmv4wW03lMQZVnOj2tHECIQChUslyicZPIue/l2jc/32XFQWd2FYp9d/e
py2Q0cUnxA==
-----END CERTIFICATE-----
