Certificate:
    Data:
        Version: 3 (0x2)
        Serial Number:
            01:f2:4d:b8:22:2c:16:8b:1e:eb:b2:f6:26:2c:4d:97:f7:71:78:be
        Signature Algorithm: sha256WithRSAEncryption
        Issuer: C = US, ST = Montana, L = Bozeman, OU = Engineering, CN = www.nomatch.com, emailAddress = info@wolfssl.com
        Validity
            Not Before: Dec 18 21:25:31 2024 GMT
            Not After : Sep 14 21:25:31 2027 GMT
        Subject: C = US, ST = Montana, L = Bozeman, OU = Engineering, CN = www.nomatch.com, emailAddress = info@wolfssl.com
        Subject Public Key Info:
            Public Key Algorithm: rsaEncryption
                Public-Key: (2048 bit)
                Modulus:
                    00:c0:95:08:e1:57:41:f2:71:6d:b7:d2:45:41:27:
                    01:65:c6:45:ae:f2:bc:24:30:b8:95:ce:2f:4e:d6:
                    f6:1c:88:bc:7c:9f:fb:a8:67:7f:fe:5c:9c:51:75:
                    f7:8a:ca:07:e7:35:2f:8f:e1:bd:7b:c0:2f:7c:ab:
                    64:a8:17:fc:ca:5d:7b:ba:e0:21:e5:72:2e:6f:2e:
                    86:d8:95:73:da:ac:1b:53:b9:5f:3f:d7:19:0d:25:
                    4f:e1:63:63:51:8b:0b:64:3f:ad:43:b8:a5:1c:5c:
                    34:b3:ae:00:a0:63:c5:f6:7f:0b:59:68:78:73:a6:
                    8c:18:a9:02:6d:af:c3:19:01:2e:b8:10:e3:c6:cc:
                    40:b4:69:a3:46:33:69:87:6e:c4:bb:17:a6:f3:e8:
                    dd:ad:73:bc:7b:2f:21:b5:fd:66:51:0c:bd:54:b3:
                    e1:6d:5f:1c:bc:23:73:d1:09:03:89:14:d2:10:b9:
                    64:c3:2a:d0:a1:96:4a:bc:e1:d4:1a:5b:c7:a0:c0:
                    c1:63:78:0f:44:37:30:32:96:80:32:23:95:a1:77:
                    ba:13:d2:97:73:e2:5d:25:c9:6a:0d:c3:39:60:a4:
                    b4:b0:69:42:42:09:e9:d8:08:bc:33:20:b3:58:22:
                    a7:aa:eb:c4:e1:e6:61:83:c5:d2:96:df:d9:d0:4f:
                    ad:d7
                Exponent: 65537 (0x10001)
        X509v3 extensions:
            X509v3 Subject Alternative Name: 
                DNS:www.nomatch.com
            X509v3 Subject Key Identifier: 
                B3:11:32:C9:92:98:84:E2:C9:F8:D0:3B:6E:03:42:CA:1F:0E:8E:3C
    Signature Algorithm: sha256WithRSAEncryption
    Signature Value:
        81:d2:b4:2d:ef:78:75:39:2b:20:f5:bd:26:50:9e:b5:23:f7:
        c4:31:c9:7a:c2:6d:70:ce:cc:92:ba:c8:94:72:10:6a:a0:fb:
        82:79:df:36:bf:03:1f:25:f4:f9:f8:de:6c:39:66:91:fa:71:
        f2:fa:86:ed:2d:cc:a8:ab:c6:ee:fc:77:16:8f:0f:6a:6e:0f:
        b4:32:16:46:0a:44:40:3e:51:af:bc:d2:48:fb:47:18:69:16:
        c7:99:3e:12:24:71:9f:55:dd:10:76:88:dd:84:ee:12:19:6d:
        40:0f:8e:95:30:d1:4c:e3:9c:9c:0c:91:b3:53:69:dd:1b:ee:
        01:e9:99:d1:8a:8e:07:9a:85:e1:5f:d5:60:74:6c:41:bc:ef:
        6f:d9:8d:27:55:d4:1f:01:c6:18:3c:36:ec:11:e6:d1:81:4c:
        a6:19:69:26:72:7a:38:2a:a5:6c:9b:fa:95:6f:29:b2:7c:2a:
        88:88:9b:58:16:f5:9d:43:d9:a1:3e:b5:44:f3:80:25:02:a5:
        1e:09:ef:17:8a:ca:1d:b9:eb:cd:4a:fd:a4:c5:0a:4b:4e:73:
        50:74:1b:42:d1:ae:bc:2f:44:00:9b:9c:ea:0c:d1:66:eb:fb:
        fb:ce:47:48:5d:91:a7:3a:ee:39:9f:d6:38:54:5b:a7:13:44:
        8c:6d:69:94
-----BEGIN CERTIFICATE-----
MIID0TCCArmgAwIBAgIUAfJNuCIsFose67L2JixNl/dxeL4wDQYJKoZIhvcNAQEL
BQAwgYIxCzAJBgNVBAYTAlVTMRAwDgYDVQQIDAdNb250YW5hMRAwDgYDVQQHDAdC
b3plbWFuMRQwEgYDVQQLDAtFbmdpbmVlcmluZzEYMBYGA1UEAwwPd3d3Lm5vbWF0
Y2guY29tMR8wHQYJKoZIhvcNAQkBFhBpbmZvQHdvbGZzc2wuY29tMB4XDTI0MTIx
ODIxMjUzMVoXDTI3MDkxNDIxMjUzMVowgYIxCzAJBgNVBAYTAlVTMRAwDgYDVQQI
DAdNb250YW5hMRAwDgYDVQQHDAdCb3plbWFuMRQwEgYDVQQLDAtFbmdpbmVlcmlu
ZzEYMBYGA1UEAwwPd3d3Lm5vbWF0Y2guY29tMR8wHQYJKoZIhvcNAQkBFhBpbmZv
QHdvbGZzc2wuY29tMIIBIjANBgkqhkiG9w0BAQEFAAOCAQ8AMIIBCgKCAQEAwJUI
4VdB8nFtt9JFQScBZcZFrvK8JDC4lc4vTtb2HIi8fJ/7qGd//lycUXX3isoH5zUv
j+G9e8AvfKtkqBf8yl17uuAh5XIuby6G2JVz2qwbU7lfP9cZDSVP4WNjUYsLZD+t
Q7ilHFw0s64AoGPF9n8LWWh4c6aMGKkCba/DGQEuuBDjxsxAtGmjRjNph27Euxem
8+jdrXO8ey8htf1mUQy9VLPhbV8cvCNz0QkDiRTSELlkwyrQoZZKvOHUGlvHoMDB
Y3gPRDcwMpaAMiOVoXe6E9KXc+JdJclqDcM5YKS0sGlCQgnp2Ai8MyCzWCKnquvE
4eZhg8XSlt/Z0E+t1wIDAQABoz0wOzAaBgNVHREEEzARgg93d3cubm9tYXRjaC5j
b20wHQYDVR0OBBYEFLMRMsmSmITiyfjQO24DQsofDo48MA0GCSqGSIb3DQEBCwUA
A4IBAQCB0rQt73h1OSsg9b0mUJ61I/fEMcl6wm1wzsySusiUchBqoPuCed82vwMf
JfT5+N5sOWaR+nHy+obtLcyoq8bu/HcWjw9qbg+0MhZGCkRAPlGvvNJI+0cYaRbH
mT4SJHGfVd0QdojdhO4SGW1AD46VMNFM45ycDJGzU2ndG+4B6ZnRio4HmoXhX9Vg
dGxBvO9v2Y0nVdQfAcYYPDbsEebRgUymGWkmcno4KqVsm/qVbymyfCqIiJtYFvWd
Q9mhPrVE84AlAqUeCe8XisoduevNSv2kxQpLTnNQdBtC0a68L0QAm5zqDNFm6/v7
zkdIXZGnOu45n9Y4VFunE0SMbWmU
-----END CERTIFICATE-----
