Certificate:
    Data:
        Version: 3 (0x2)
        Serial Number:
            34:02:dc:97:39:1b:12:0e:0a:de:be:7f:43:a3:28:73:8c:ab:e5:ca
        Signature Algorithm: sha256WithRSAEncryption
        Issuer: C = US, ST = Montana, L = Bozeman, OU = Engineering, CN = www.nomatch.com, emailAddress = info@wolfssl.com
        Validity
            Not Before: Dec 20 23:07:25 2021 GMT
            Not After : Sep 15 23:07:25 2024 GMT
        Subject: C = US, ST = Montana, L = Bozeman, OU = Engineering, CN = www.nomatch.com, emailAddress = info@wolfssl.com
        Subject Public Key Info:
            Public Key Algorithm: rsaEncryption
                RSA Public-Key: (2048 bit)
                Modulus:
                    00:c0:95:08:e1:57:41:f2:71:6d:b7:d2:45:41:27:
                    01:65:c6:45:ae:f2:bc:24:30:b8:95:ce:2f:4e:d6:
                    f6:1c:88:bc:7c:9f:fb:a8:67:7f:fe:5c:9c:51:75:
                    f7:8a:ca:07:e7:35:2f:8f:e1:bd:7b:c0:2f:7c:ab:
                    64:a8:17:fc:ca:5d:7b:ba:e0:21:e5:72:2e:6f:2e:
                    86:d8:95:73:da:ac:1b:53:b9:5f:3f:d7:19:0d:25:
                    4f:e1:63:63:51:8b:0b:64:3f:ad:43:b8:a5:1c:5c:
                    34:b3:ae:00:a0:63:c5:f6:7f:0b:59:68:78:73:a6:
                    8c:18:a9:02:6d:af:c3:19:01:2e:b8:10:e3:c6:cc:
                    40:b4:69:a3:46:33:69:87:6e:c4:bb:17:a6:f3:e8:
                    dd:ad:73:bc:7b:2f:21:b5:fd:66:51:0c:bd:54:b3:
                    e1:6d:5f:1c:bc:23:73:d1:09:03:89:14:d2:10:b9:
                    64:c3:2a:d0:a1:96:4a:bc:e1:d4:1a:5b:c7:a0:c0:
                    c1:63:78:0f:44:37:30:32:96:80:32:23:95:a1:77:
                    ba:13:d2:97:73:e2:5d:25:c9:6a:0d:c3:39:60:a4:
                    b4:b0:69:42:42:09:e9:d8:08:bc:33:20:b3:58:22:
                    a7:aa:eb:c4:e1:e6:61:83:c5:d2:96:df:d9:d0:4f:
                    ad:d7
                Exponent: 65537 (0x10001)
        X509v3 extensions:
            X509v3 Subject Alternative Name: 
                DNS:www.nomatch.com
    Signature Algorithm: sha256WithRSAEncryption
         4f:ba:8e:61:30:f7:ae:20:b6:b8:ab:74:99:3b:89:e0:17:8f:
         f4:8d:d3:81:92:4b:b5:fd:6c:aa:6e:77:bb:51:67:f2:e1:69:
         08:b5:3f:79:63:2b:5c:85:09:2f:fe:23:36:29:3a:cd:2f:3a:
         0e:d5:ff:23:6d:69:ec:f6:f4:49:2a:1a:ef:0a:5d:76:50:4b:
         9c:04:b2:70:70:42:ae:eb:fc:ea:42:c8:df:5d:c9:7c:43:4f:
         e7:4c:0c:90:3b:35:2f:3c:1c:cc:d0:4d:67:f6:47:db:c1:ec:
         ca:07:29:dd:91:2c:0e:9c:4e:44:4b:13:5d:93:35:6a:02:43:
         82:80:d9:59:dc:5c:5a:b1:63:11:62:d0:fa:55:85:ac:09:30:
         f7:02:db:e2:01:b5:f1:30:f4:f5:b2:49:f2:40:cb:52:c0:24:
         a3:19:72:c9:ac:d9:53:ef:12:77:0b:dc:d1:6e:1f:4d:0b:53:
         6b:f9:9e:8e:21:55:d2:6e:f5:34:f2:03:6a:7b:0a:d0:df:b3:
         ca:a8:8e:34:79:50:4e:f6:e2:e1:f0:4f:5a:e8:a6:e0:27:81:
         e3:04:55:f3:ac:72:d5:7f:6f:da:51:cc:3b:30:5c:e6:a5:2f:
         a4:88:f4:65:dc:56:d2:f1:37:32:84:5d:97:5c:24:40:9e:b5:
         72:63:2c:b4
-----BEGIN CERTIFICATE-----
MIIDsjCCApqgAwIBAgIUNALclzkbEg4K3r5/Q6Moc4yr5cowDQYJKoZIhvcNAQEL
BQAwgYIxCzAJBgNVBAYTAlVTMRAwDgYDVQQIDAdNb250YW5hMRAwDgYDVQQHDAdC
b3plbWFuMRQwEgYDVQQLDAtFbmdpbmVlcmluZzEYMBYGA1UEAwwPd3d3Lm5vbWF0
Y2guY29tMR8wHQYJKoZIhvcNAQkBFhBpbmZvQHdvbGZzc2wuY29tMB4XDTIxMTIy
MDIzMDcyNVoXDTI0MDkxNTIzMDcyNVowgYIxCzAJBgNVBAYTAlVTMRAwDgYDVQQI
DAdNb250YW5hMRAwDgYDVQQHDAdCb3plbWFuMRQwEgYDVQQLDAtFbmdpbmVlcmlu
ZzEYMBYGA1UEAwwPd3d3Lm5vbWF0Y2guY29tMR8wHQYJKoZIhvcNAQkBFhBpbmZv
QHdvbGZzc2wuY29tMIIBIjANBgkqhkiG9w0BAQEFAAOCAQ8AMIIBCgKCAQEAwJUI
4VdB8nFtt9JFQScBZcZFrvK8JDC4lc4vTtb2HIi8fJ/7qGd//lycUXX3isoH5zUv
j+G9e8AvfKtkqBf8yl17uuAh5XIuby6G2JVz2qwbU7lfP9cZDSVP4WNjUYsLZD+t
Q7ilHFw0s64AoGPF9n8LWWh4c6aMGKkCba/DGQEuuBDjxsxAtGmjRjNph27Euxem
8+jdrXO8ey8htf1mUQy9VLPhbV8cvCNz0QkDiRTSELlkwyrQoZZKvOHUGlvHoMDB
Y3gPRDcwMpaAMiOVoXe6E9KXc+JdJclqDcM5YKS0sGlCQgnp2Ai8MyCzWCKnquvE
4eZhg8XSlt/Z0E+t1wIDAQABox4wHDAaBgNVHREEEzARgg93d3cubm9tYXRjaC5j
b20wDQYJKoZIhvcNAQELBQADggEBAE+6jmEw964gtrirdJk7ieAXj/SN04GSS7X9
bKpud7tRZ/LhaQi1P3ljK1yFCS/+IzYpOs0vOg7V/yNtaez29EkqGu8KXXZQS5wE
snBwQq7r/OpCyN9dyXxDT+dMDJA7NS88HMzQTWf2R9vB7MoHKd2RLA6cTkRLE12T
NWoCQ4KA2VncXFqxYxFi0PpVhawJMPcC2+IBtfEw9PWySfJAy1LAJKMZcsms2VPv
EncL3NFuH00LU2v5no4hVdJu9TTyA2p7CtDfs8qojjR5UE724uHwT1ropuAngeME
VfOsctV/b9pRzDswXOalL6SI9GXcVtLxNzKEXZdcJECetXJjLLQ=
-----END CERTIFICATE-----
