Certificate:
    Data:
        Version: 3 (0x2)
        Serial Number:
            71:8f:a1:ae:aa:b4:f3:7c:c3:2c:f9:3a:31:06:28:a3:78:f4:fe:1c
        Signature Algorithm: sha256WithRSAEncryption
        Issuer: C = US, ST = Montana, L = Bozeman, OU = Engineering, CN = localhost, emailAddress = info@wolfssl.com
        Validity
            Not Before: Jun 15 22:02:33 2021 GMT
            Not After : Mar 11 22:02:33 2024 GMT
        Subject: C = US, ST = Montana, L = Bozeman, OU = Engineering, CN = localhost, emailAddress = info@wolfssl.com
        Subject Public Key Info:
            Public Key Algorithm: rsaEncryption
                RSA Public-Key: (2048 bit)
                Modulus:
                    00:c0:95:08:e1:57:41:f2:71:6d:b7:d2:45:41:27:
                    01:65:c6:45:ae:f2:bc:24:30:b8:95:ce:2f:4e:d6:
                    f6:1c:88:bc:7c:9f:fb:a8:67:7f:fe:5c:9c:51:75:
                    f7:8a:ca:07:e7:35:2f:8f:e1:bd:7b:c0:2f:7c:ab:
                    64:a8:17:fc:ca:5d:7b:ba:e0:21:e5:72:2e:6f:2e:
                    86:d8:95:73:da:ac:1b:53:b9:5f:3f:d7:19:0d:25:
                    4f:e1:63:63:51:8b:0b:64:3f:ad:43:b8:a5:1c:5c:
                    34:b3:ae:00:a0:63:c5:f6:7f:0b:59:68:78:73:a6:
                    8c:18:a9:02:6d:af:c3:19:01:2e:b8:10:e3:c6:cc:
                    40:b4:69:a3:46:33:69:87:6e:c4:bb:17:a6:f3:e8:
                    dd:ad:73:bc:7b:2f:21:b5:fd:66:51:0c:bd:54:b3:
                    e1:6d:5f:1c:bc:23:73:d1:09:03:89:14:d2:10:b9:
                    64:c3:2a:d0:a1:96:4a:bc:e1:d4:1a:5b:c7:a0:c0:
                    c1:63:78:0f:44:37:30:32:96:80:32:23:95:a1:77:
                    ba:13:d2:97:73:e2:5d:25:c9:6a:0d:c3:39:60:a4:
                    b4:b0:69:42:42:09:e9:d8:08:bc:33:20:b3:58:22:
                    a7:aa:eb:c4:e1:e6:61:83:c5:d2:96:df:d9:d0:4f:
                    ad:d7
                Exponent: 65537 (0x10001)
    Signature Algorithm: sha256WithRSAEncryption
         94:fb:ed:5e:58:16:79:bd:08:1c:6c:04:eb:00:59:b2:f8:2f:
         cf:8f:d3:22:80:4c:df:ad:6d:ef:42:0a:f7:70:ce:4a:2f:9a:
         69:33:05:de:1f:0e:f5:55:a5:55:de:e0:da:82:28:da:bc:b5:
         8f:22:d9:fe:bf:5d:37:6c:a0:13:1b:f0:94:ff:ee:90:2a:6c:
         9c:bc:ff:7b:cd:85:65:59:f1:08:8e:fc:10:f3:38:8b:7e:37:
         b0:82:71:24:0f:b9:02:94:61:21:d1:cd:7e:a3:ba:e9:59:80:
         32:ac:42:f3:81:92:22:ac:bf:6c:3f:be:5b:c3:72:30:cc:89:
         f8:34:0c:fb:cd:28:94:3d:8c:c5:2b:64:77:73:94:6f:4e:bb:
         ce:ab:68:77:70:b0:6d:88:5f:3c:9f:dd:8e:94:44:02:87:8c:
         33:64:44:a6:a5:b2:d0:5e:d6:cf:1b:92:7b:de:7d:97:6f:4a:
         cd:d1:d2:75:86:1d:85:d1:24:7d:33:e0:58:8f:d8:0f:cf:b3:
         2b:22:00:25:d8:7d:e5:94:19:b6:33:c5:c0:89:a5:d2:b9:3b:
         27:3f:57:f9:1b:9e:40:16:2a:d1:9e:3b:ed:61:53:9a:38:58:
         bf:0c:68:ce:e5:f8:4d:a3:fa:98:1b:81:74:7d:ae:5d:c3:11:
         f8:55:2d:11
-----BEGIN CERTIFICATE-----
MIIDhDCCAmygAwIBAgIUcY+hrqq083zDLPk6MQYoo3j0/hwwDQYJKoZIhvcNAQEL
BQAwfDELMAkGA1UEBhMCVVMxEDAOBgNVBAgMB01vbnRhbmExEDAOBgNVBAcMB0Jv
emVtYW4xFDASBgNVBAsMC0VuZ2luZWVyaW5nMRIwEAYDVQQDDAlsb2NhbGhvc3Qx
HzAdBgkqhkiG9w0BCQEWEGluZm9Ad29sZnNzbC5jb20wHhcNMjEwNjE1MjIwMjMz
WhcNMjQwMzExMjIwMjMzWjB8MQswCQYDVQQGEwJVUzEQMA4GA1UECAwHTW9udGFu
YTEQMA4GA1UEBwwHQm96ZW1hbjEUMBIGA1UECwwLRW5naW5lZXJpbmcxEjAQBgNV
BAMMCWxvY2FsaG9zdDEfMB0GCSqGSIb3DQEJARYQaW5mb0B3b2xmc3NsLmNvbTCC
ASIwDQYJKoZIhvcNAQEBBQADggEPADCCAQoCggEBAMCVCOFXQfJxbbfSRUEnAWXG
Ra7yvCQwuJXOL07W9hyIvHyf+6hnf/5cnFF194rKB+c1L4/hvXvAL3yrZKgX/Mpd
e7rgIeVyLm8uhtiVc9qsG1O5Xz/XGQ0lT+FjY1GLC2Q/rUO4pRxcNLOuAKBjxfZ/
C1loeHOmjBipAm2vwxkBLrgQ48bMQLRpo0YzaYduxLsXpvPo3a1zvHsvIbX9ZlEM
vVSz4W1fHLwjc9EJA4kU0hC5ZMMq0KGWSrzh1Bpbx6DAwWN4D0Q3MDKWgDIjlaF3
uhPSl3PiXSXJag3DOWCktLBpQkIJ6dgIvDMgs1gip6rrxOHmYYPF0pbf2dBPrdcC
AwEAATANBgkqhkiG9w0BAQsFAAOCAQEAlPvtXlgWeb0IHGwE6wBZsvgvz4/TIoBM
361t70IK93DOSi+aaTMF3h8O9VWlVd7g2oIo2ry1jyLZ/r9dN2ygExvwlP/ukCps
nLz/e82FZVnxCI78EPM4i343sIJxJA+5ApRhIdHNfqO66VmAMqxC84GSIqy/bD++
W8NyMMyJ+DQM+80olD2MxStkd3OUb067zqtod3CwbYhfPJ/djpREAoeMM2REpqWy
0F7WzxuSe959l29KzdHSdYYdhdEkfTPgWI/YD8+zKyIAJdh95ZQZtjPFwIml0rk7
Jz9X+RueQBYq0Z477WFTmjhYvwxozuX4TaP6mBuBdH2uXcMR+FUtEQ==
-----END CERTIFICATE-----
