Certificate:
    Data:
        Version: 3 (0x2)
        Serial Number:
            7c:c0:69:44:bd:22:dd:2c:29:c1:55:88:f4:14:63:f5:ac:07:6d:c5
        Signature Algorithm: sha256WithRSAEncryption
        Issuer: C = US, ST = Montana, L = Bozeman, OU = Engineering, CN = localhost, emailAddress = info@wolfssl.com
        Validity
            Not Before: Dec 13 22:19:29 2023 GMT
            Not After : Sep  8 22:19:29 2026 GMT
        Subject: C = US, ST = Montana, L = Bozeman, OU = Engineering, CN = localhost, emailAddress = info@wolfssl.com
        Subject Public Key Info:
            Public Key Algorithm: rsaEncryption
                RSA Public-Key: (2048 bit)
                Modulus:
                    00:c0:95:08:e1:57:41:f2:71:6d:b7:d2:45:41:27:
                    01:65:c6:45:ae:f2:bc:24:30:b8:95:ce:2f:4e:d6:
                    f6:1c:88:bc:7c:9f:fb:a8:67:7f:fe:5c:9c:51:75:
                    f7:8a:ca:07:e7:35:2f:8f:e1:bd:7b:c0:2f:7c:ab:
                    64:a8:17:fc:ca:5d:7b:ba:e0:21:e5:72:2e:6f:2e:
                    86:d8:95:73:da:ac:1b:53:b9:5f:3f:d7:19:0d:25:
                    4f:e1:63:63:51:8b:0b:64:3f:ad:43:b8:a5:1c:5c:
                    34:b3:ae:00:a0:63:c5:f6:7f:0b:59:68:78:73:a6:
                    8c:18:a9:02:6d:af:c3:19:01:2e:b8:10:e3:c6:cc:
                    40:b4:69:a3:46:33:69:87:6e:c4:bb:17:a6:f3:e8:
                    dd:ad:73:bc:7b:2f:21:b5:fd:66:51:0c:bd:54:b3:
                    e1:6d:5f:1c:bc:23:73:d1:09:03:89:14:d2:10:b9:
                    64:c3:2a:d0:a1:96:4a:bc:e1:d4:1a:5b:c7:a0:c0:
                    c1:63:78:0f:44:37:30:32:96:80:32:23:95:a1:77:
                    ba:13:d2:97:73:e2:5d:25:c9:6a:0d:c3:39:60:a4:
                    b4:b0:69:42:42:09:e9:d8:08:bc:33:20:b3:58:22:
                    a7:aa:eb:c4:e1:e6:61:83:c5:d2:96:df:d9:d0:4f:
                    ad:d7
                Exponent: 65537 (0x10001)
    Signature Algorithm: sha256WithRSAEncryption
         49:ff:59:9d:20:42:36:a3:d1:3d:5d:c1:37:24:42:22:9d:8a:
         f9:61:98:45:0b:0d:9d:f7:1a:30:0b:54:9a:65:e7:e4:68:84:
         59:c1:28:43:8f:59:08:43:83:4e:95:9c:0d:91:43:53:6a:19:
         cc:f1:d0:af:74:5a:12:34:8e:0c:18:21:83:ad:4f:a9:a5:fe:
         df:af:9d:96:22:1b:21:0d:fd:99:6f:58:0c:cb:4a:e6:7f:32:
         df:d5:10:b2:70:f0:4d:49:6e:1f:64:82:58:27:a8:58:c9:9b:
         f1:de:30:b6:bd:8b:a6:23:3c:58:a5:d9:f5:74:b2:c1:96:b3:
         6b:56:d5:45:47:3d:ba:f9:0e:ba:59:73:43:31:cc:2a:2c:bd:
         87:01:f9:f0:bc:6e:f2:6e:20:a3:07:ca:f7:43:e7:1b:35:85:
         bc:f7:84:1e:ff:33:21:74:19:45:85:b4:81:77:64:41:1b:02:
         c9:e3:a4:39:48:62:8d:fd:1b:96:6f:64:dc:e9:75:a5:74:c3:
         a5:3c:55:87:0d:cd:4c:ec:f5:9a:e9:9f:a3:0b:a4:80:ef:c7:
         58:4b:f4:60:b7:5a:4c:dc:93:10:79:43:c3:ac:1b:b1:6d:d8:
         8f:b6:f5:db:82:0d:6e:58:38:9d:23:97:41:7d:39:cd:9c:89:
         7d:64:bc:4f
-----BEGIN CERTIFICATE-----
MIIDhDCCAmygAwIBAgIUfMBpRL0i3SwpwVWI9BRj9awHbcUwDQYJKoZIhvcNAQEL
BQAwfDELMAkGA1UEBhMCVVMxEDAOBgNVBAgMB01vbnRhbmExEDAOBgNVBAcMB0Jv
emVtYW4xFDASBgNVBAsMC0VuZ2luZWVyaW5nMRIwEAYDVQQDDAlsb2NhbGhvc3Qx
HzAdBgkqhkiG9w0BCQEWEGluZm9Ad29sZnNzbC5jb20wHhcNMjMxMjEzMjIxOTI5
WhcNMjYwOTA4MjIxOTI5WjB8MQswCQYDVQQGEwJVUzEQMA4GA1UECAwHTW9udGFu
YTEQMA4GA1UEBwwHQm96ZW1hbjEUMBIGA1UECwwLRW5naW5lZXJpbmcxEjAQBgNV
BAMMCWxvY2FsaG9zdDEfMB0GCSqGSIb3DQEJARYQaW5mb0B3b2xmc3NsLmNvbTCC
ASIwDQYJKoZIhvcNAQEBBQADggEPADCCAQoCggEBAMCVCOFXQfJxbbfSRUEnAWXG
Ra7yvCQwuJXOL07W9hyIvHyf+6hnf/5cnFF194rKB+c1L4/hvXvAL3yrZKgX/Mpd
e7rgIeVyLm8uhtiVc9qsG1O5Xz/XGQ0lT+FjY1GLC2Q/rUO4pRxcNLOuAKBjxfZ/
C1loeHOmjBipAm2vwxkBLrgQ48bMQLRpo0YzaYduxLsXpvPo3a1zvHsvIbX9ZlEM
vVSz4W1fHLwjc9EJA4kU0hC5ZMMq0KGWSrzh1Bpbx6DAwWN4D0Q3MDKWgDIjlaF3
uhPSl3PiXSXJag3DOWCktLBpQkIJ6dgIvDMgs1gip6rrxOHmYYPF0pbf2dBPrdcC
AwEAATANBgkqhkiG9w0BAQsFAAOCAQEASf9ZnSBCNqPRPV3BNyRCIp2K+WGYRQsN
nfcaMAtUmmXn5GiEWcEoQ49ZCEODTpWcDZFDU2oZzPHQr3RaEjSODBghg61PqaX+
36+dliIbIQ39mW9YDMtK5n8y39UQsnDwTUluH2SCWCeoWMmb8d4wtr2LpiM8WKXZ
9XSywZaza1bVRUc9uvkOullzQzHMKiy9hwH58Lxu8m4gowfK90PnGzWFvPeEHv8z
IXQZRYW0gXdkQRsCyeOkOUhijf0blm9k3Ol1pXTDpTxVhw3NTOz1mumfowukgO/H
WEv0YLdaTNyTEHlDw6wbsW3Yj7b124INblg4nSOXQX05zZyJfWS8Tw==
-----END CERTIFICATE-----
