Certificate:
    Data:
        Version: 3 (0x2)
        Serial Number:
            69:bf:60:cc:e8:28:ed:6c:10:04:4a:5a:60:0b:b4:6b:f7:54:3f:cb
        Signature Algorithm: sha256WithRSAEncryption
        Issuer: C = US, ST = Montana, L = Bozeman, OU = Engineering, CN = *localhost, emailAddress = info@wolfssl.com
        Validity
            Not Before: Feb 15 12:50:25 2022 GMT
            Not After : Nov 11 12:50:25 2024 GMT
        Subject: C = US, ST = Montana, L = Bozeman, OU = Engineering, CN = *localhost, emailAddress = info@wolfssl.com
        Subject Public Key Info:
            Public Key Algorithm: rsaEncryption
                RSA Public-Key: (2048 bit)
                Modulus:
                    00:c0:95:08:e1:57:41:f2:71:6d:b7:d2:45:41:27:
                    01:65:c6:45:ae:f2:bc:24:30:b8:95:ce:2f:4e:d6:
                    f6:1c:88:bc:7c:9f:fb:a8:67:7f:fe:5c:9c:51:75:
                    f7:8a:ca:07:e7:35:2f:8f:e1:bd:7b:c0:2f:7c:ab:
                    64:a8:17:fc:ca:5d:7b:ba:e0:21:e5:72:2e:6f:2e:
                    86:d8:95:73:da:ac:1b:53:b9:5f:3f:d7:19:0d:25:
                    4f:e1:63:63:51:8b:0b:64:3f:ad:43:b8:a5:1c:5c:
                    34:b3:ae:00:a0:63:c5:f6:7f:0b:59:68:78:73:a6:
                    8c:18:a9:02:6d:af:c3:19:01:2e:b8:10:e3:c6:cc:
                    40:b4:69:a3:46:33:69:87:6e:c4:bb:17:a6:f3:e8:
                    dd:ad:73:bc:7b:2f:21:b5:fd:66:51:0c:bd:54:b3:
                    e1:6d:5f:1c:bc:23:73:d1:09:03:89:14:d2:10:b9:
                    64:c3:2a:d0:a1:96:4a:bc:e1:d4:1a:5b:c7:a0:c0:
                    c1:63:78:0f:44:37:30:32:96:80:32:23:95:a1:77:
                    ba:13:d2:97:73:e2:5d:25:c9:6a:0d:c3:39:60:a4:
                    b4:b0:69:42:42:09:e9:d8:08:bc:33:20:b3:58:22:
                    a7:aa:eb:c4:e1:e6:61:83:c5:d2:96:df:d9:d0:4f:
                    ad:d7
                Exponent: 65537 (0x10001)
    Signature Algorithm: sha256WithRSAEncryption
         24:7a:78:32:c0:42:bf:98:0d:b0:31:38:5f:01:18:00:57:e0:
         bb:bf:7b:cc:fc:5d:04:d4:6e:5c:cc:c3:1d:4e:a3:19:99:02:
         92:cf:91:4f:46:3e:4a:65:71:c1:38:90:9a:ff:e8:07:59:a8:
         d4:03:0e:d5:ed:3b:0f:56:46:2f:1f:d1:18:8c:88:aa:2c:c2:
         6c:d9:34:ed:fd:f4:1b:2a:33:a5:13:d0:d5:ff:99:11:d9:39:
         00:f3:23:3c:97:31:0a:1d:2c:36:57:42:e8:87:f1:8c:29:2d:
         d3:5f:03:a6:5a:e2:ff:81:1a:36:3f:a0:c6:84:01:75:0e:a0:
         9a:0a:be:05:8b:34:42:e8:48:a2:dc:19:f5:bc:95:64:37:54:
         0e:13:1a:b3:d5:20:aa:6e:21:a9:76:72:53:57:8b:7a:fe:1b:
         28:51:37:80:7d:77:ab:e8:a1:7d:f5:89:d1:68:f3:24:52:5b:
         08:08:0f:85:0c:bd:d5:e4:42:37:39:5c:47:73:1e:fb:39:8d:
         24:8f:ba:7f:6d:88:06:66:1b:77:a8:79:a7:bc:14:19:e5:95:
         19:fa:94:b9:75:86:05:d1:5a:09:d7:83:29:ab:2f:76:70:19:
         80:8b:64:5a:a5:d9:92:f1:a0:4f:a6:2f:18:0e:11:5c:16:cf:
         f9:7e:20:6c
-----BEGIN CERTIFICATE-----
MIIDhjCCAm6gAwIBAgIUab9gzOgo7WwQBEpaYAu0a/dUP8swDQYJKoZIhvcNAQEL
BQAwfTELMAkGA1UEBhMCVVMxEDAOBgNVBAgMB01vbnRhbmExEDAOBgNVBAcMB0Jv
emVtYW4xFDASBgNVBAsMC0VuZ2luZWVyaW5nMRMwEQYDVQQDDAoqbG9jYWxob3N0
MR8wHQYJKoZIhvcNAQkBFhBpbmZvQHdvbGZzc2wuY29tMB4XDTIyMDIxNTEyNTAy
NVoXDTI0MTExMTEyNTAyNVowfTELMAkGA1UEBhMCVVMxEDAOBgNVBAgMB01vbnRh
bmExEDAOBgNVBAcMB0JvemVtYW4xFDASBgNVBAsMC0VuZ2luZWVyaW5nMRMwEQYD
VQQDDAoqbG9jYWxob3N0MR8wHQYJKoZIhvcNAQkBFhBpbmZvQHdvbGZzc2wuY29t
MIIBIjANBgkqhkiG9w0BAQEFAAOCAQ8AMIIBCgKCAQEAwJUI4VdB8nFtt9JFQScB
ZcZFrvK8JDC4lc4vTtb2HIi8fJ/7qGd//lycUXX3isoH5zUvj+G9e8AvfKtkqBf8
yl17uuAh5XIuby6G2JVz2qwbU7lfP9cZDSVP4WNjUYsLZD+tQ7ilHFw0s64AoGPF
9n8LWWh4c6aMGKkCba/DGQEuuBDjxsxAtGmjRjNph27Euxem8+jdrXO8ey8htf1m
UQy9VLPhbV8cvCNz0QkDiRTSELlkwyrQoZZKvOHUGlvHoMDBY3gPRDcwMpaAMiOV
oXe6E9KXc+JdJclqDcM5YKS0sGlCQgnp2Ai8MyCzWCKnquvE4eZhg8XSlt/Z0E+t
1wIDAQABMA0GCSqGSIb3DQEBCwUAA4IBAQAkengywEK/mA2wMThfARgAV+C7v3vM
/F0E1G5czMMdTqMZmQKSz5FPRj5KZXHBOJCa/+gHWajUAw7V7TsPVkYvH9EYjIiq
LMJs2TTt/fQbKjOlE9DV/5kR2TkA8yM8lzEKHSw2V0Loh/GMKS3TXwOmWuL/gRo2
P6DGhAF1DqCaCr4FizRC6Eii3Bn1vJVkN1QOExqz1SCqbiGpdnJTV4t6/hsoUTeA
fXer6KF99YnRaPMkUlsICA+FDL3V5EI3OVxHcx77OY0kj7p/bYgGZht3qHmnvBQZ
5ZUZ+pS5dYYF0VoJ14Mpqy92cBmAi2RapdmS8aBPpi8YDhFcFs/5fiBs
-----END CERTIFICATE-----
