Certificate:
    Data:
        Version: 3 (0x2)
        Serial Number:
            66:46:37:13:3e:b9:a5:e8:a5:d0:27:58:6b:f4:d6:1a:96:7f:93:d6
        Signature Algorithm: sha256WithRSAEncryption
        Issuer: C = US, ST = Montana, L = Bozeman, OU = Engineering, CN = localhost, emailAddress = info@wolfssl.com
        Validity
            Not Before: Dec 18 21:25:31 2024 GMT
            Not After : Sep 14 21:25:31 2027 GMT
        Subject: C = US, ST = Montana, L = Bozeman, OU = Engineering, CN = localhost, emailAddress = info@wolfssl.com
        Subject Public Key Info:
            Public Key Algorithm: rsaEncryption
                Public-Key: (2048 bit)
                Modulus:
                    00:c0:95:08:e1:57:41:f2:71:6d:b7:d2:45:41:27:
                    01:65:c6:45:ae:f2:bc:24:30:b8:95:ce:2f:4e:d6:
                    f6:1c:88:bc:7c:9f:fb:a8:67:7f:fe:5c:9c:51:75:
                    f7:8a:ca:07:e7:35:2f:8f:e1:bd:7b:c0:2f:7c:ab:
                    64:a8:17:fc:ca:5d:7b:ba:e0:21:e5:72:2e:6f:2e:
                    86:d8:95:73:da:ac:1b:53:b9:5f:3f:d7:19:0d:25:
                    4f:e1:63:63:51:8b:0b:64:3f:ad:43:b8:a5:1c:5c:
                    34:b3:ae:00:a0:63:c5:f6:7f:0b:59:68:78:73:a6:
                    8c:18:a9:02:6d:af:c3:19:01:2e:b8:10:e3:c6:cc:
                    40:b4:69:a3:46:33:69:87:6e:c4:bb:17:a6:f3:e8:
                    dd:ad:73:bc:7b:2f:21:b5:fd:66:51:0c:bd:54:b3:
                    e1:6d:5f:1c:bc:23:73:d1:09:03:89:14:d2:10:b9:
                    64:c3:2a:d0:a1:96:4a:bc:e1:d4:1a:5b:c7:a0:c0:
                    c1:63:78:0f:44:37:30:32:96:80:32:23:95:a1:77:
                    ba:13:d2:97:73:e2:5d:25:c9:6a:0d:c3:39:60:a4:
                    b4:b0:69:42:42:09:e9:d8:08:bc:33:20:b3:58:22:
                    a7:aa:eb:c4:e1:e6:61:83:c5:d2:96:df:d9:d0:4f:
                    ad:d7
                Exponent: 65537 (0x10001)
        X509v3 extensions:
            X509v3 Subject Alternative Name: 
                DNS:garbage
            X509v3 Subject Key Identifier: 
                B3:11:32:C9:92:98:84:E2:C9:F8:D0:3B:6E:03:42:CA:1F:0E:8E:3C
    Signature Algorithm: sha256WithRSAEncryption
    Signature Value:
        10:68:f7:84:31:27:7b:2f:1f:0a:fa:c8:38:47:69:e0:dd:01:
        11:d6:1b:be:4f:b3:89:43:25:5c:81:66:ff:85:9d:c4:5a:3c:
        40:14:18:87:de:c0:c2:0f:47:2f:a6:e4:5d:c2:96:a4:24:cf:
        c0:f0:8a:7c:9c:40:5f:81:9d:58:22:b3:81:e2:6c:cb:62:da:
        20:7a:86:e1:82:11:c2:a9:4f:68:a1:69:67:e2:19:c1:d1:ad:
        2c:f2:e0:d2:c4:c4:4a:05:74:68:6c:9b:bf:66:a5:d9:1f:98:
        40:4d:43:6b:c7:a1:16:f6:37:53:b2:c6:73:6f:33:33:da:2e:
        55:5d:e4:cf:4e:64:5e:58:c5:8a:a3:76:41:33:e0:e2:f0:ef:
        62:29:3c:0e:9d:95:4b:93:0c:fa:65:9c:19:6c:9e:2a:03:7a:
        d4:11:33:3c:ec:72:54:9e:2d:d3:af:88:9c:e0:58:b9:a7:a1:
        4e:7a:0d:eb:65:49:cb:58:32:92:25:09:b9:bf:55:52:90:c8:
        18:9a:0f:b9:97:46:a2:1b:1f:77:2d:38:50:cd:72:fe:90:f1:
        93:59:ce:5f:56:8e:a6:f8:34:56:92:47:fe:58:d2:8d:4c:c7:
        bb:b3:d3:8a:70:40:57:ae:b1:03:c4:92:30:e6:a0:5d:16:10:
        41:95:94:ac
-----BEGIN CERTIFICATE-----
MIIDuzCCAqOgAwIBAgIUZkY3Ez65peil0CdYa/TWGpZ/k9YwDQYJKoZIhvcNAQEL
BQAwfDELMAkGA1UEBhMCVVMxEDAOBgNVBAgMB01vbnRhbmExEDAOBgNVBAcMB0Jv
emVtYW4xFDASBgNVBAsMC0VuZ2luZWVyaW5nMRIwEAYDVQQDDAlsb2NhbGhvc3Qx
HzAdBgkqhkiG9w0BCQEWEGluZm9Ad29sZnNzbC5jb20wHhcNMjQxMjE4MjEyNTMx
WhcNMjcwOTE0MjEyNTMxWjB8MQswCQYDVQQGEwJVUzEQMA4GA1UECAwHTW9udGFu
YTEQMA4GA1UEBwwHQm96ZW1hbjEUMBIGA1UECwwLRW5naW5lZXJpbmcxEjAQBgNV
BAMMCWxvY2FsaG9zdDEfMB0GCSqGSIb3DQEJARYQaW5mb0B3b2xmc3NsLmNvbTCC
ASIwDQYJKoZIhvcNAQEBBQADggEPADCCAQoCggEBAMCVCOFXQfJxbbfSRUEnAWXG
Ra7yvCQwuJXOL07W9hyIvHyf+6hnf/5cnFF194rKB+c1L4/hvXvAL3yrZKgX/Mpd
e7rgIeVyLm8uhtiVc9qsG1O5Xz/XGQ0lT+FjY1GLC2Q/rUO4pRxcNLOuAKBjxfZ/
C1loeHOmjBipAm2vwxkBLrgQ48bMQLRpo0YzaYduxLsXpvPo3a1zvHsvIbX9ZlEM
vVSz4W1fHLwjc9EJA4kU0hC5ZMMq0KGWSrzh1Bpbx6DAwWN4D0Q3MDKWgDIjlaF3
uhPSl3PiXSXJag3DOWCktLBpQkIJ6dgIvDMgs1gip6rrxOHmYYPF0pbf2dBPrdcC
AwEAAaM1MDMwEgYDVR0RBAswCYIHZ2FyYmFnZTAdBgNVHQ4EFgQUsxEyyZKYhOLJ
+NA7bgNCyh8OjjwwDQYJKoZIhvcNAQELBQADggEBABBo94QxJ3svHwr6yDhHaeDd
ARHWG75Ps4lDJVyBZv+FncRaPEAUGIfewMIPRy+m5F3ClqQkz8DwinycQF+BnVgi
s4HibMti2iB6huGCEcKpT2ihaWfiGcHRrSzy4NLExEoFdGhsm79mpdkfmEBNQ2vH
oRb2N1OyxnNvMzPaLlVd5M9OZF5YxYqjdkEz4OLw72IpPA6dlUuTDPplnBlsnioD
etQRMzzsclSeLdOviJzgWLmnoU56DetlSctYMpIlCbm/VVKQyBiaD7mXRqIbH3ct
OFDNcv6Q8ZNZzl9Wjqb4NFaSR/5Y0o1Mx7uz04pwQFeusQPEkjDmoF0WEEGVlKw=
-----END CERTIFICATE-----
