Certificate:
    Data:
        Version: 3 (0x2)
        Serial Number:
            78:8e:15:da:c6:d8:82:d8:0f:65:96:64:60:9e:6d:90:71:da:cf:49
        Signature Algorithm: sha256WithRSAEncryption
        Issuer: C=US, ST=Montana, L=Bozeman, OU=Engineering, CN=www.nomatch.com, emailAddress=info@wolfssl.com
        Validity
            Not Before: Nov 13 20:41:28 2025 GMT
            Not After : Aug  9 20:41:28 2028 GMT
        Subject: C=US, ST=Montana, L=Bozeman, OU=Engineering, CN=www.nomatch.com, emailAddress=info@wolfssl.com
        Subject Public Key Info:
            Public Key Algorithm: rsaEncryption
                Public-Key: (2048 bit)
                Modulus:
                    00:c0:95:08:e1:57:41:f2:71:6d:b7:d2:45:41:27:
                    01:65:c6:45:ae:f2:bc:24:30:b8:95:ce:2f:4e:d6:
                    f6:1c:88:bc:7c:9f:fb:a8:67:7f:fe:5c:9c:51:75:
                    f7:8a:ca:07:e7:35:2f:8f:e1:bd:7b:c0:2f:7c:ab:
                    64:a8:17:fc:ca:5d:7b:ba:e0:21:e5:72:2e:6f:2e:
                    86:d8:95:73:da:ac:1b:53:b9:5f:3f:d7:19:0d:25:
                    4f:e1:63:63:51:8b:0b:64:3f:ad:43:b8:a5:1c:5c:
                    34:b3:ae:00:a0:63:c5:f6:7f:0b:59:68:78:73:a6:
                    8c:18:a9:02:6d:af:c3:19:01:2e:b8:10:e3:c6:cc:
                    40:b4:69:a3:46:33:69:87:6e:c4:bb:17:a6:f3:e8:
                    dd:ad:73:bc:7b:2f:21:b5:fd:66:51:0c:bd:54:b3:
                    e1:6d:5f:1c:bc:23:73:d1:09:03:89:14:d2:10:b9:
                    64:c3:2a:d0:a1:96:4a:bc:e1:d4:1a:5b:c7:a0:c0:
                    c1:63:78:0f:44:37:30:32:96:80:32:23:95:a1:77:
                    ba:13:d2:97:73:e2:5d:25:c9:6a:0d:c3:39:60:a4:
                    b4:b0:69:42:42:09:e9:d8:08:bc:33:20:b3:58:22:
                    a7:aa:eb:c4:e1:e6:61:83:c5:d2:96:df:d9:d0:4f:
                    ad:d7
                Exponent: 65537 (0x10001)
        X509v3 extensions:
            X509v3 Subject Alternative Name: 
                DNS:localhost
            X509v3 Subject Key Identifier: 
                B3:11:32:C9:92:98:84:E2:C9:F8:D0:3B:6E:03:42:CA:1F:0E:8E:3C
    Signature Algorithm: sha256WithRSAEncryption
    Signature Value:
        2c:6d:e6:50:9c:7c:79:c9:f0:d8:7b:0e:ca:9c:32:09:44:70:
        b0:2b:07:05:02:3a:18:01:3a:ac:ad:53:4b:65:2f:1a:6f:c1:
        03:e5:86:3b:d8:a0:fe:d8:d8:89:88:3a:d6:e9:72:56:16:3b:
        bd:d8:7e:2c:d6:ea:69:59:47:ad:cd:4a:12:42:25:65:10:eb:
        78:13:85:a2:65:d8:d7:c4:c3:71:80:74:c1:00:bd:b9:4e:be:
        2d:08:f3:a7:c4:43:6f:47:9c:c9:a6:7a:7b:38:4a:23:70:8b:
        61:4e:24:16:23:32:bf:d5:ba:1b:c0:7e:a6:eb:f4:01:f9:5f:
        60:ef:f0:42:fa:13:2d:17:ce:da:f5:da:6f:9c:b0:b6:80:0d:
        da:03:3f:35:95:cd:83:22:11:65:dd:7a:03:68:42:ad:54:97:
        59:71:86:b5:74:88:99:74:1a:2f:28:46:ea:ff:8c:b9:d7:8e:
        4b:dc:15:75:33:f7:d6:cf:29:7e:20:7a:6a:d6:20:d9:14:85:
        df:cb:9a:1b:3b:45:3d:86:85:b8:7e:cc:0c:43:94:88:87:44:
        c7:8c:74:fe:d5:38:45:62:f7:89:78:2c:02:89:fa:3d:1a:1c:
        d5:c8:2c:8a:88:df:27:03:25:4d:ce:26:be:d7:ed:7f:82:eb:
        0b:c4:04:34
-----BEGIN CERTIFICATE-----
MIIDyzCCArOgAwIBAgIUeI4V2sbYgtgPZZZkYJ5tkHHaz0kwDQYJKoZIhvcNAQEL
BQAwgYIxCzAJBgNVBAYTAlVTMRAwDgYDVQQIDAdNb250YW5hMRAwDgYDVQQHDAdC
b3plbWFuMRQwEgYDVQQLDAtFbmdpbmVlcmluZzEYMBYGA1UEAwwPd3d3Lm5vbWF0
Y2guY29tMR8wHQYJKoZIhvcNAQkBFhBpbmZvQHdvbGZzc2wuY29tMB4XDTI1MTEx
MzIwNDEyOFoXDTI4MDgwOTIwNDEyOFowgYIxCzAJBgNVBAYTAlVTMRAwDgYDVQQI
DAdNb250YW5hMRAwDgYDVQQHDAdCb3plbWFuMRQwEgYDVQQLDAtFbmdpbmVlcmlu
ZzEYMBYGA1UEAwwPd3d3Lm5vbWF0Y2guY29tMR8wHQYJKoZIhvcNAQkBFhBpbmZv
QHdvbGZzc2wuY29tMIIBIjANBgkqhkiG9w0BAQEFAAOCAQ8AMIIBCgKCAQEAwJUI
4VdB8nFtt9JFQScBZcZFrvK8JDC4lc4vTtb2HIi8fJ/7qGd//lycUXX3isoH5zUv
j+G9e8AvfKtkqBf8yl17uuAh5XIuby6G2JVz2qwbU7lfP9cZDSVP4WNjUYsLZD+t
Q7ilHFw0s64AoGPF9n8LWWh4c6aMGKkCba/DGQEuuBDjxsxAtGmjRjNph27Euxem
8+jdrXO8ey8htf1mUQy9VLPhbV8cvCNz0QkDiRTSELlkwyrQoZZKvOHUGlvHoMDB
Y3gPRDcwMpaAMiOVoXe6E9KXc+JdJclqDcM5YKS0sGlCQgnp2Ai8MyCzWCKnquvE
4eZhg8XSlt/Z0E+t1wIDAQABozcwNTAUBgNVHREEDTALgglsb2NhbGhvc3QwHQYD
VR0OBBYEFLMRMsmSmITiyfjQO24DQsofDo48MA0GCSqGSIb3DQEBCwUAA4IBAQAs
beZQnHx5yfDYew7KnDIJRHCwKwcFAjoYATqsrVNLZS8ab8ED5YY72KD+2NiJiDrW
6XJWFju92H4s1uppWUetzUoSQiVlEOt4E4WiZdjXxMNxgHTBAL25Tr4tCPOnxENv
R5zJpnp7OEojcIthTiQWIzK/1bobwH6m6/QB+V9g7/BC+hMtF87a9dpvnLC2gA3a
Az81lc2DIhFl3XoDaEKtVJdZcYa1dIiZdBovKEbq/4y5145L3BV1M/fWzyl+IHpq
1iDZFIXfy5obO0U9hoW4fswMQ5SIh0THjHT+1ThFYveJeCwCifo9GhzVyCyKiN8n
AyVNzia+1+1/gusLxAQ0
-----END CERTIFICATE-----
