Certificate:
    Data:
        Version: 3 (0x2)
        Serial Number:
            29:92:30:0a:e4:14:e1:59:32:49:a9:66:fd:11:f5:b2:16:d6:7a:d0
        Signature Algorithm: sha256WithRSAEncryption
        Issuer: C = US, ST = Montana, L = Bozeman, OU = Engineering, CN = localhost, emailAddress = info@wolfssl.com
        Validity
            Not Before: Dec 13 22:19:30 2023 GMT
            Not After : Sep  8 22:19:30 2026 GMT
        Subject: C = US, ST = Montana, L = Bozeman, OU = Engineering, CN = localhost, emailAddress = info@wolfssl.com
        Subject Public Key Info:
            Public Key Algorithm: rsaEncryption
                RSA Public-Key: (2048 bit)
                Modulus:
                    00:c0:95:08:e1:57:41:f2:71:6d:b7:d2:45:41:27:
                    01:65:c6:45:ae:f2:bc:24:30:b8:95:ce:2f:4e:d6:
                    f6:1c:88:bc:7c:9f:fb:a8:67:7f:fe:5c:9c:51:75:
                    f7:8a:ca:07:e7:35:2f:8f:e1:bd:7b:c0:2f:7c:ab:
                    64:a8:17:fc:ca:5d:7b:ba:e0:21:e5:72:2e:6f:2e:
                    86:d8:95:73:da:ac:1b:53:b9:5f:3f:d7:19:0d:25:
                    4f:e1:63:63:51:8b:0b:64:3f:ad:43:b8:a5:1c:5c:
                    34:b3:ae:00:a0:63:c5:f6:7f:0b:59:68:78:73:a6:
                    8c:18:a9:02:6d:af:c3:19:01:2e:b8:10:e3:c6:cc:
                    40:b4:69:a3:46:33:69:87:6e:c4:bb:17:a6:f3:e8:
                    dd:ad:73:bc:7b:2f:21:b5:fd:66:51:0c:bd:54:b3:
                    e1:6d:5f:1c:bc:23:73:d1:09:03:89:14:d2:10:b9:
                    64:c3:2a:d0:a1:96:4a:bc:e1:d4:1a:5b:c7:a0:c0:
                    c1:63:78:0f:44:37:30:32:96:80:32:23:95:a1:77:
                    ba:13:d2:97:73:e2:5d:25:c9:6a:0d:c3:39:60:a4:
                    b4:b0:69:42:42:09:e9:d8:08:bc:33:20:b3:58:22:
                    a7:aa:eb:c4:e1:e6:61:83:c5:d2:96:df:d9:d0:4f:
                    ad:d7
                Exponent: 65537 (0x10001)
        X509v3 extensions:
            X509v3 Subject Alternative Name: 
                DNS:garbage
    Signature Algorithm: sha256WithRSAEncryption
         34:5e:01:46:29:63:4f:93:cf:48:77:45:39:48:68:cf:c6:54:
         94:56:14:6f:17:2d:e1:83:48:8b:91:70:6d:5f:d8:14:fc:a4:
         a9:bc:fa:58:63:ce:57:2f:c5:b6:61:8b:c3:6d:dc:39:83:2e:
         f3:78:d9:2b:b9:ed:f0:ef:c2:82:17:1b:ac:97:2a:c0:3a:9f:
         f9:b7:6b:a6:0e:1c:af:17:be:74:d0:ff:11:ea:48:6d:f6:b8:
         e8:11:db:c9:ca:49:e5:18:d9:51:3d:eb:76:56:b6:ce:da:cd:
         a6:cb:ac:a3:06:5e:b7:b0:f6:2b:ba:dc:0f:c4:12:01:7e:8b:
         c7:e4:ad:59:72:4a:a5:25:7a:bd:ec:1d:f4:89:f8:aa:c7:c8:
         ad:8c:1c:d5:19:55:f9:32:75:f6:04:2c:67:86:d5:e8:f5:be:
         bd:76:0b:bb:bb:8f:7d:1a:70:a2:9c:16:88:ca:de:14:9d:a2:
         0a:23:36:fd:02:bc:6d:ee:f4:7a:41:e2:2d:21:d0:5f:eb:ec:
         4e:4b:71:aa:80:57:63:da:39:2b:ce:37:5a:26:64:ad:6b:bc:
         a6:24:90:b6:e8:b2:4a:19:98:e8:06:17:12:f8:57:74:44:f7:
         b9:16:67:2d:be:66:fb:4d:a6:66:e7:b5:58:f8:9c:51:1d:56:
         fd:ef:bf:6e
-----BEGIN CERTIFICATE-----
MIIDnDCCAoSgAwIBAgIUKZIwCuQU4VkySalm/RH1shbWetAwDQYJKoZIhvcNAQEL
BQAwfDELMAkGA1UEBhMCVVMxEDAOBgNVBAgMB01vbnRhbmExEDAOBgNVBAcMB0Jv
emVtYW4xFDASBgNVBAsMC0VuZ2luZWVyaW5nMRIwEAYDVQQDDAlsb2NhbGhvc3Qx
HzAdBgkqhkiG9w0BCQEWEGluZm9Ad29sZnNzbC5jb20wHhcNMjMxMjEzMjIxOTMw
WhcNMjYwOTA4MjIxOTMwWjB8MQswCQYDVQQGEwJVUzEQMA4GA1UECAwHTW9udGFu
YTEQMA4GA1UEBwwHQm96ZW1hbjEUMBIGA1UECwwLRW5naW5lZXJpbmcxEjAQBgNV
BAMMCWxvY2FsaG9zdDEfMB0GCSqGSIb3DQEJARYQaW5mb0B3b2xmc3NsLmNvbTCC
ASIwDQYJKoZIhvcNAQEBBQADggEPADCCAQoCggEBAMCVCOFXQfJxbbfSRUEnAWXG
Ra7yvCQwuJXOL07W9hyIvHyf+6hnf/5cnFF194rKB+c1L4/hvXvAL3yrZKgX/Mpd
e7rgIeVyLm8uhtiVc9qsG1O5Xz/XGQ0lT+FjY1GLC2Q/rUO4pRxcNLOuAKBjxfZ/
C1loeHOmjBipAm2vwxkBLrgQ48bMQLRpo0YzaYduxLsXpvPo3a1zvHsvIbX9ZlEM
vVSz4W1fHLwjc9EJA4kU0hC5ZMMq0KGWSrzh1Bpbx6DAwWN4D0Q3MDKWgDIjlaF3
uhPSl3PiXSXJag3DOWCktLBpQkIJ6dgIvDMgs1gip6rrxOHmYYPF0pbf2dBPrdcC
AwEAAaMWMBQwEgYDVR0RBAswCYIHZ2FyYmFnZTANBgkqhkiG9w0BAQsFAAOCAQEA
NF4BRiljT5PPSHdFOUhoz8ZUlFYUbxct4YNIi5FwbV/YFPykqbz6WGPOVy/FtmGL
w23cOYMu83jZK7nt8O/CghcbrJcqwDqf+bdrpg4crxe+dND/EepIbfa46BHbycpJ
5RjZUT3rdla2ztrNpsusowZet7D2K7rcD8QSAX6Lx+StWXJKpSV6vewd9In4qsfI
rYwc1RlV+TJ19gQsZ4bV6PW+vXYLu7uPfRpwopwWiMreFJ2iCiM2/QK8be70ekHi
LSHQX+vsTktxqoBXY9o5K843WiZkrWu8piSQtuiyShmY6AYXEvhXdET3uRZnLb5m
+02mZue1WPicUR1W/e+/bg==
-----END CERTIFICATE-----
