Certificate:
    Data:
        Version: 3 (0x2)
        Serial Number:
            57:58:1d:6f:ff:69:c2:43:43:a6:f2:d9:11:c3:8f:71:7f:f6:c3:ee
        Signature Algorithm: sha256WithRSAEncryption
        Issuer: C = US, ST = Montana, L = Bozeman, OU = Engineering, CN = *localhost, emailAddress = info@wolfssl.com
        Validity
            Not Before: Dec 18 23:11:23 2024 GMT
            Not After : Sep 14 23:11:23 2027 GMT
        Subject: C = US, ST = Montana, L = Bozeman, OU = Engineering, CN = *localhost, emailAddress = info@wolfssl.com
        Subject Public Key Info:
            Public Key Algorithm: rsaEncryption
                Public-Key: (2048 bit)
                Modulus:
                    00:c0:95:08:e1:57:41:f2:71:6d:b7:d2:45:41:27:
                    01:65:c6:45:ae:f2:bc:24:30:b8:95:ce:2f:4e:d6:
                    f6:1c:88:bc:7c:9f:fb:a8:67:7f:fe:5c:9c:51:75:
                    f7:8a:ca:07:e7:35:2f:8f:e1:bd:7b:c0:2f:7c:ab:
                    64:a8:17:fc:ca:5d:7b:ba:e0:21:e5:72:2e:6f:2e:
                    86:d8:95:73:da:ac:1b:53:b9:5f:3f:d7:19:0d:25:
                    4f:e1:63:63:51:8b:0b:64:3f:ad:43:b8:a5:1c:5c:
                    34:b3:ae:00:a0:63:c5:f6:7f:0b:59:68:78:73:a6:
                    8c:18:a9:02:6d:af:c3:19:01:2e:b8:10:e3:c6:cc:
                    40:b4:69:a3:46:33:69:87:6e:c4:bb:17:a6:f3:e8:
                    dd:ad:73:bc:7b:2f:21:b5:fd:66:51:0c:bd:54:b3:
                    e1:6d:5f:1c:bc:23:73:d1:09:03:89:14:d2:10:b9:
                    64:c3:2a:d0:a1:96:4a:bc:e1:d4:1a:5b:c7:a0:c0:
                    c1:63:78:0f:44:37:30:32:96:80:32:23:95:a1:77:
                    ba:13:d2:97:73:e2:5d:25:c9:6a:0d:c3:39:60:a4:
                    b4:b0:69:42:42:09:e9:d8:08:bc:33:20:b3:58:22:
                    a7:aa:eb:c4:e1:e6:61:83:c5:d2:96:df:d9:d0:4f:
                    ad:d7
                Exponent: 65537 (0x10001)
        X509v3 extensions:
            X509v3 Subject Key Identifier: 
                B3:11:32:C9:92:98:84:E2:C9:F8:D0:3B:6E:03:42:CA:1F:0E:8E:3C
    Signature Algorithm: sha256WithRSAEncryption
    Signature Value:
        b6:7f:c6:0e:d0:6c:f9:0e:df:5d:71:ca:0c:fe:23:6b:14:f2:
        0e:c1:c2:60:17:cb:c9:f4:0e:39:52:b9:8d:71:71:b1:d9:2d:
        cb:0c:af:17:64:27:63:10:4f:25:96:bc:4e:ec:67:4a:bf:01:
        8a:d7:bd:60:49:f4:41:74:c2:48:3e:ef:4a:2c:e9:c0:bb:5f:
        2b:38:2e:24:b7:40:f0:be:5c:57:23:bf:46:12:a8:47:78:0d:
        2f:76:fc:9d:3b:e3:93:40:25:18:2b:64:df:13:f1:db:26:72:
        3d:8c:c4:b8:e9:dc:60:fc:3a:48:de:58:80:c9:8a:0d:a8:14:
        b2:81:5e:00:b5:a6:0e:a2:c8:06:4e:d5:0a:3b:37:6b:64:d8:
        77:2b:09:0a:44:f4:bd:c8:51:78:29:6d:e1:5d:ae:a3:04:44:
        45:dc:d5:ea:2f:f4:18:46:a0:27:89:cc:4e:68:e0:d5:d4:d9:
        b0:d4:b1:68:fb:dd:d7:9e:9b:2a:3b:08:cf:d3:bc:f4:b9:9c:
        75:3c:70:7c:25:6c:b1:fa:b0:8c:6f:bd:cc:e8:ff:a3:e2:4a:
        f5:d8:b5:3f:b9:ee:72:2a:0c:03:6f:ec:dc:e3:dc:65:85:d0:
        8b:4f:b5:b9:cf:40:87:27:9b:7d:2a:b9:4e:16:31:16:7f:69:
        21:e3:ad:f4
-----BEGIN CERTIFICATE-----
MIIDqTCCApGgAwIBAgIUV1gdb/9pwkNDpvLZEcOPcX/2w+4wDQYJKoZIhvcNAQEL
BQAwfTELMAkGA1UEBhMCVVMxEDAOBgNVBAgMB01vbnRhbmExEDAOBgNVBAcMB0Jv
emVtYW4xFDASBgNVBAsMC0VuZ2luZWVyaW5nMRMwEQYDVQQDDAoqbG9jYWxob3N0
MR8wHQYJKoZIhvcNAQkBFhBpbmZvQHdvbGZzc2wuY29tMB4XDTI0MTIxODIzMTEy
M1oXDTI3MDkxNDIzMTEyM1owfTELMAkGA1UEBhMCVVMxEDAOBgNVBAgMB01vbnRh
bmExEDAOBgNVBAcMB0JvemVtYW4xFDASBgNVBAsMC0VuZ2luZWVyaW5nMRMwEQYD
VQQDDAoqbG9jYWxob3N0MR8wHQYJKoZIhvcNAQkBFhBpbmZvQHdvbGZzc2wuY29t
MIIBIjANBgkqhkiG9w0BAQEFAAOCAQ8AMIIBCgKCAQEAwJUI4VdB8nFtt9JFQScB
ZcZFrvK8JDC4lc4vTtb2HIi8fJ/7qGd//lycUXX3isoH5zUvj+G9e8AvfKtkqBf8
yl17uuAh5XIuby6G2JVz2qwbU7lfP9cZDSVP4WNjUYsLZD+tQ7ilHFw0s64AoGPF
9n8LWWh4c6aMGKkCba/DGQEuuBDjxsxAtGmjRjNph27Euxem8+jdrXO8ey8htf1m
UQy9VLPhbV8cvCNz0QkDiRTSELlkwyrQoZZKvOHUGlvHoMDBY3gPRDcwMpaAMiOV
oXe6E9KXc+JdJclqDcM5YKS0sGlCQgnp2Ai8MyCzWCKnquvE4eZhg8XSlt/Z0E+t
1wIDAQABoyEwHzAdBgNVHQ4EFgQUsxEyyZKYhOLJ+NA7bgNCyh8OjjwwDQYJKoZI
hvcNAQELBQADggEBALZ/xg7QbPkO311xygz+I2sU8g7BwmAXy8n0DjlSuY1xcbHZ
LcsMrxdkJ2MQTyWWvE7sZ0q/AYrXvWBJ9EF0wkg+70os6cC7Xys4LiS3QPC+XFcj
v0YSqEd4DS92/J0745NAJRgrZN8T8dsmcj2MxLjp3GD8OkjeWIDJig2oFLKBXgC1
pg6iyAZO1Qo7N2tk2HcrCQpE9L3IUXgpbeFdrqMEREXc1eov9BhGoCeJzE5o4NXU
2bDUsWj73deemyo7CM/TvPS5nHU8cHwlbLH6sIxvvczo/6PiSvXYtT+57nIqDANv
7Nzj3GWF0ItPtbnPQIcnm30quU4WMRZ/aSHjrfQ=
-----END CERTIFICATE-----
