Certificate:
    Data:
        Version: 3 (0x2)
        Serial Number:
            79:41:0e:38:0a:5f:24:41:24:48:9a:ff:f5:5c:3d:5a:a1:01:4f:18
        Signature Algorithm: sha256WithRSAEncryption
        Issuer: C = US, ST = Montana, L = Bozeman, OU = Engineering, CN = localhost, emailAddress = info@wolfssl.com
        Validity
            Not Before: Dec 20 23:07:25 2021 GMT
            Not After : Sep 15 23:07:25 2024 GMT
        Subject: C = US, ST = Montana, L = Bozeman, OU = Engineering, CN = localhost, emailAddress = info@wolfssl.com
        Subject Public Key Info:
            Public Key Algorithm: rsaEncryption
                RSA Public-Key: (2048 bit)
                Modulus:
                    00:c0:95:08:e1:57:41:f2:71:6d:b7:d2:45:41:27:
                    01:65:c6:45:ae:f2:bc:24:30:b8:95:ce:2f:4e:d6:
                    f6:1c:88:bc:7c:9f:fb:a8:67:7f:fe:5c:9c:51:75:
                    f7:8a:ca:07:e7:35:2f:8f:e1:bd:7b:c0:2f:7c:ab:
                    64:a8:17:fc:ca:5d:7b:ba:e0:21:e5:72:2e:6f:2e:
                    86:d8:95:73:da:ac:1b:53:b9:5f:3f:d7:19:0d:25:
                    4f:e1:63:63:51:8b:0b:64:3f:ad:43:b8:a5:1c:5c:
                    34:b3:ae:00:a0:63:c5:f6:7f:0b:59:68:78:73:a6:
                    8c:18:a9:02:6d:af:c3:19:01:2e:b8:10:e3:c6:cc:
                    40:b4:69:a3:46:33:69:87:6e:c4:bb:17:a6:f3:e8:
                    dd:ad:73:bc:7b:2f:21:b5:fd:66:51:0c:bd:54:b3:
                    e1:6d:5f:1c:bc:23:73:d1:09:03:89:14:d2:10:b9:
                    64:c3:2a:d0:a1:96:4a:bc:e1:d4:1a:5b:c7:a0:c0:
                    c1:63:78:0f:44:37:30:32:96:80:32:23:95:a1:77:
                    ba:13:d2:97:73:e2:5d:25:c9:6a:0d:c3:39:60:a4:
                    b4:b0:69:42:42:09:e9:d8:08:bc:33:20:b3:58:22:
                    a7:aa:eb:c4:e1:e6:61:83:c5:d2:96:df:d9:d0:4f:
                    ad:d7
                Exponent: 65537 (0x10001)
        X509v3 extensions:
            X509v3 Subject Alternative Name: 
                DNS:garbage
    Signature Algorithm: sha256WithRSAEncryption
         93:85:54:0c:c7:ad:3f:ad:83:9d:a3:95:00:66:a1:8c:d8:56:
         ca:07:79:14:2c:e2:20:e2:03:c8:67:2e:6b:47:95:8f:d8:ee:
         e4:c4:33:b0:96:1d:04:52:85:7d:47:d8:a9:89:9b:9f:a3:c9:
         e0:eb:be:e4:d2:89:9a:78:04:49:5a:30:0f:16:3e:b1:82:11:
         33:e1:39:f0:42:a6:71:6f:f9:10:8f:7a:c4:1f:a3:a1:70:a3:
         b8:8e:f8:52:25:e3:e7:11:67:54:6b:01:34:a8:9f:6b:5e:76:
         86:75:a1:08:8b:fe:bd:ae:22:83:4b:cf:21:95:b6:2e:3d:c2:
         f3:2e:a7:d7:16:b9:83:c4:ca:a8:02:65:5e:d2:77:09:a8:f3:
         32:59:b0:94:56:cb:ad:14:08:fb:c0:98:db:25:6b:1b:cb:8b:
         8f:a8:4c:10:12:74:a1:c1:ff:3d:ab:84:a2:cc:f3:f7:6a:f4:
         58:52:0e:89:94:3d:1a:29:91:db:39:4c:95:7d:3d:14:b6:8a:
         58:7a:45:05:8a:1d:95:44:ab:10:03:a9:4a:25:b8:0a:83:24:
         aa:47:da:c9:15:47:ca:5a:1e:ee:f2:1c:68:7f:b1:02:b9:c6:
         af:c1:0f:af:6f:58:49:da:1c:db:7b:3d:7a:4e:80:0f:1f:2f:
         43:b5:68:43
-----BEGIN CERTIFICATE-----
MIIDnDCCAoSgAwIBAgIUeUEOOApfJEEkSJr/9Vw9WqEBTxgwDQYJKoZIhvcNAQEL
BQAwfDELMAkGA1UEBhMCVVMxEDAOBgNVBAgMB01vbnRhbmExEDAOBgNVBAcMB0Jv
emVtYW4xFDASBgNVBAsMC0VuZ2luZWVyaW5nMRIwEAYDVQQDDAlsb2NhbGhvc3Qx
HzAdBgkqhkiG9w0BCQEWEGluZm9Ad29sZnNzbC5jb20wHhcNMjExMjIwMjMwNzI1
WhcNMjQwOTE1MjMwNzI1WjB8MQswCQYDVQQGEwJVUzEQMA4GA1UECAwHTW9udGFu
YTEQMA4GA1UEBwwHQm96ZW1hbjEUMBIGA1UECwwLRW5naW5lZXJpbmcxEjAQBgNV
BAMMCWxvY2FsaG9zdDEfMB0GCSqGSIb3DQEJARYQaW5mb0B3b2xmc3NsLmNvbTCC
ASIwDQYJKoZIhvcNAQEBBQADggEPADCCAQoCggEBAMCVCOFXQfJxbbfSRUEnAWXG
Ra7yvCQwuJXOL07W9hyIvHyf+6hnf/5cnFF194rKB+c1L4/hvXvAL3yrZKgX/Mpd
e7rgIeVyLm8uhtiVc9qsG1O5Xz/XGQ0lT+FjY1GLC2Q/rUO4pRxcNLOuAKBjxfZ/
C1loeHOmjBipAm2vwxkBLrgQ48bMQLRpo0YzaYduxLsXpvPo3a1zvHsvIbX9ZlEM
vVSz4W1fHLwjc9EJA4kU0hC5ZMMq0KGWSrzh1Bpbx6DAwWN4D0Q3MDKWgDIjlaF3
uhPSl3PiXSXJag3DOWCktLBpQkIJ6dgIvDMgs1gip6rrxOHmYYPF0pbf2dBPrdcC
AwEAAaMWMBQwEgYDVR0RBAswCYIHZ2FyYmFnZTANBgkqhkiG9w0BAQsFAAOCAQEA
k4VUDMetP62DnaOVAGahjNhWygd5FCziIOIDyGcua0eVj9ju5MQzsJYdBFKFfUfY
qYmbn6PJ4Ou+5NKJmngESVowDxY+sYIRM+E58EKmcW/5EI96xB+joXCjuI74UiXj
5xFnVGsBNKifa152hnWhCIv+va4ig0vPIZW2Lj3C8y6n1xa5g8TKqAJlXtJ3Cajz
MlmwlFbLrRQI+8CY2yVrG8uLj6hMEBJ0ocH/PauEoszz92r0WFIOiZQ9GimR2zlM
lX09FLaKWHpFBYodlUSrEAOpSiW4CoMkqkfayRVHyloe7vIcaH+xArnGr8EPr29Y
Sdoc23s9ek6ADx8vQ7VoQw==
-----END CERTIFICATE-----
