Certificate:
    Data:
        Version: 1 (0x0)
        Serial Number:
            5d:33:cc:8c:df:3c:dd:3f:1f:fe:83:f6:6b:e5:05:61:81:91:c0:88
        Signature Algorithm: sha256WithRSAEncryption
        Issuer: C = US, ST = Montana, L = Bozeman, OU = Engineering, CN = *localhost, emailAddress = info@wolfssl.com
        Validity
            Not Before: Dec 18 21:25:31 2024 GMT
            Not After : Sep 14 21:25:31 2027 GMT
        Subject: C = US, ST = Montana, L = Bozeman, OU = Engineering, CN = *localhost, emailAddress = info@wolfssl.com
        Subject Public Key Info:
            Public Key Algorithm: rsaEncryption
                Public-Key: (2048 bit)
                Modulus:
                    00:c0:95:08:e1:57:41:f2:71:6d:b7:d2:45:41:27:
                    01:65:c6:45:ae:f2:bc:24:30:b8:95:ce:2f:4e:d6:
                    f6:1c:88:bc:7c:9f:fb:a8:67:7f:fe:5c:9c:51:75:
                    f7:8a:ca:07:e7:35:2f:8f:e1:bd:7b:c0:2f:7c:ab:
                    64:a8:17:fc:ca:5d:7b:ba:e0:21:e5:72:2e:6f:2e:
                    86:d8:95:73:da:ac:1b:53:b9:5f:3f:d7:19:0d:25:
                    4f:e1:63:63:51:8b:0b:64:3f:ad:43:b8:a5:1c:5c:
                    34:b3:ae:00:a0:63:c5:f6:7f:0b:59:68:78:73:a6:
                    8c:18:a9:02:6d:af:c3:19:01:2e:b8:10:e3:c6:cc:
                    40:b4:69:a3:46:33:69:87:6e:c4:bb:17:a6:f3:e8:
                    dd:ad:73:bc:7b:2f:21:b5:fd:66:51:0c:bd:54:b3:
                    e1:6d:5f:1c:bc:23:73:d1:09:03:89:14:d2:10:b9:
                    64:c3:2a:d0:a1:96:4a:bc:e1:d4:1a:5b:c7:a0:c0:
                    c1:63:78:0f:44:37:30:32:96:80:32:23:95:a1:77:
                    ba:13:d2:97:73:e2:5d:25:c9:6a:0d:c3:39:60:a4:
                    b4:b0:69:42:42:09:e9:d8:08:bc:33:20:b3:58:22:
                    a7:aa:eb:c4:e1:e6:61:83:c5:d2:96:df:d9:d0:4f:
                    ad:d7
                Exponent: 65537 (0x10001)
    Signature Algorithm: sha256WithRSAEncryption
    Signature Value:
        7c:ed:99:09:fb:a7:0c:67:f4:31:a2:0c:0f:b9:52:86:fa:b6:
        e3:f5:cf:d6:6f:67:1d:b0:8a:dc:1e:3f:7d:6d:40:f3:bf:e7:
        aa:57:8a:7a:92:e8:03:39:6c:e5:e7:f3:85:44:53:88:71:ed:
        2a:61:c9:df:63:d0:58:13:93:08:c6:46:5c:5e:c5:77:34:b5:
        11:f7:1d:97:d1:a6:76:f4:66:3c:21:9b:0b:94:f3:6b:92:a5:
        d1:47:df:b2:47:1c:72:3d:0c:98:fe:43:5d:3f:cd:43:e9:9f:
        f2:28:41:32:95:c8:4e:58:ac:bb:c7:22:d4:64:91:16:79:41:
        3d:7a:53:c3:cb:ec:6f:3e:90:7c:88:f1:c4:da:c5:66:53:7e:
        9a:cb:bd:ad:42:62:19:92:bb:ac:a4:7d:7a:fd:42:2c:23:2b:
        73:0e:27:2b:d1:aa:86:62:fa:6e:60:80:c2:c3:3b:b3:f3:ba:
        9e:04:db:28:a4:aa:b9:59:4c:e0:4f:b4:00:9e:d5:2d:fc:c6:
        da:24:ad:36:cb:74:ba:e3:62:11:32:d2:1e:b0:36:af:bb:fc:
        6b:f8:dd:a5:f1:e5:14:b0:d2:c4:4d:2a:3b:00:95:d4:63:79:
        5d:62:f1:98:fb:6b:88:fc:bf:70:b3:9f:97:b5:5c:45:22:6a:
        79:40:3b:e7
-----BEGIN CERTIFICATE-----
MIIDgTCCAmkCFF0zzIzfPN0/H/6D9mvlBWGBkcCIMA0GCSqGSIb3DQEBCwUAMH0x
CzAJBgNVBAYTAlVTMRAwDgYDVQQIDAdNb250YW5hMRAwDgYDVQQHDAdCb3plbWFu
MRQwEgYDVQQLDAtFbmdpbmVlcmluZzETMBEGA1UEAwwKKmxvY2FsaG9zdDEfMB0G
CSqGSIb3DQEJARYQaW5mb0B3b2xmc3NsLmNvbTAeFw0yNDEyMTgyMTI1MzFaFw0y
NzA5MTQyMTI1MzFaMH0xCzAJBgNVBAYTAlVTMRAwDgYDVQQIDAdNb250YW5hMRAw
DgYDVQQHDAdCb3plbWFuMRQwEgYDVQQLDAtFbmdpbmVlcmluZzETMBEGA1UEAwwK
KmxvY2FsaG9zdDEfMB0GCSqGSIb3DQEJARYQaW5mb0B3b2xmc3NsLmNvbTCCASIw
DQYJKoZIhvcNAQEBBQADggEPADCCAQoCggEBAMCVCOFXQfJxbbfSRUEnAWXGRa7y
vCQwuJXOL07W9hyIvHyf+6hnf/5cnFF194rKB+c1L4/hvXvAL3yrZKgX/Mpde7rg
IeVyLm8uhtiVc9qsG1O5Xz/XGQ0lT+FjY1GLC2Q/rUO4pRxcNLOuAKBjxfZ/C1lo
eHOmjBipAm2vwxkBLrgQ48bMQLRpo0YzaYduxLsXpvPo3a1zvHsvIbX9ZlEMvVSz
4W1fHLwjc9EJA4kU0hC5ZMMq0KGWSrzh1Bpbx6DAwWN4D0Q3MDKWgDIjlaF3uhPS
l3PiXSXJag3DOWCktLBpQkIJ6dgIvDMgs1gip6rrxOHmYYPF0pbf2dBPrdcCAwEA
ATANBgkqhkiG9w0BAQsFAAOCAQEAfO2ZCfunDGf0MaIMD7lShvq24/XP1m9nHbCK
3B4/fW1A87/nqleKepLoAzls5efzhURTiHHtKmHJ32PQWBOTCMZGXF7FdzS1Efcd
l9GmdvRmPCGbC5Tza5Kl0Uffskcccj0MmP5DXT/NQ+mf8ihBMpXITlisu8ci1GSR
FnlBPXpTw8vsbz6QfIjxxNrFZlN+msu9rUJiGZK7rKR9ev1CLCMrcw4nK9GqhmL6
bmCAwsM7s/O6ngTbKKSquVlM4E+0AJ7VLfzG2iStNst0uuNiETLSHrA2r7v8a/jd
pfHlFLDSxE0qOwCV1GN5XWLxmPtriPy/cLOfl7VcRSJqeUA75w==
-----END CERTIFICATE-----
