Certificate:
    Data:
        Version: 3 (0x2)
        Serial Number:
            2f:dc:cf:8a:1c:ed:ad:f7:a4:ac:5f:24:68:1c:f5:dd:82:c5:59:1e
        Signature Algorithm: sha256WithRSAEncryption
        Issuer: C = US, ST = Montana, L = Bozeman, OU = Engineering, CN = DER:30:0d:82:0b:6c:6f:63:61:6c:68:6f:73:74:00:68, emailAddress = info@wolfssl.com
        Validity
            Not Before: Jun 15 22:02:33 2021 GMT
            Not After : Mar 11 22:02:33 2024 GMT
        Subject: C = US, ST = Montana, L = Bozeman, OU = Engineering, CN = DER:30:0d:82:0b:6c:6f:63:61:6c:68:6f:73:74:00:68, emailAddress = info@wolfssl.com
        Subject Public Key Info:
            Public Key Algorithm: rsaEncryption
                RSA Public-Key: (2048 bit)
                Modulus:
                    00:c0:95:08:e1:57:41:f2:71:6d:b7:d2:45:41:27:
                    01:65:c6:45:ae:f2:bc:24:30:b8:95:ce:2f:4e:d6:
                    f6:1c:88:bc:7c:9f:fb:a8:67:7f:fe:5c:9c:51:75:
                    f7:8a:ca:07:e7:35:2f:8f:e1:bd:7b:c0:2f:7c:ab:
                    64:a8:17:fc:ca:5d:7b:ba:e0:21:e5:72:2e:6f:2e:
                    86:d8:95:73:da:ac:1b:53:b9:5f:3f:d7:19:0d:25:
                    4f:e1:63:63:51:8b:0b:64:3f:ad:43:b8:a5:1c:5c:
                    34:b3:ae:00:a0:63:c5:f6:7f:0b:59:68:78:73:a6:
                    8c:18:a9:02:6d:af:c3:19:01:2e:b8:10:e3:c6:cc:
                    40:b4:69:a3:46:33:69:87:6e:c4:bb:17:a6:f3:e8:
                    dd:ad:73:bc:7b:2f:21:b5:fd:66:51:0c:bd:54:b3:
                    e1:6d:5f:1c:bc:23:73:d1:09:03:89:14:d2:10:b9:
                    64:c3:2a:d0:a1:96:4a:bc:e1:d4:1a:5b:c7:a0:c0:
                    c1:63:78:0f:44:37:30:32:96:80:32:23:95:a1:77:
                    ba:13:d2:97:73:e2:5d:25:c9:6a:0d:c3:39:60:a4:
                    b4:b0:69:42:42:09:e9:d8:08:bc:33:20:b3:58:22:
                    a7:aa:eb:c4:e1:e6:61:83:c5:d2:96:df:d9:d0:4f:
                    ad:d7
                Exponent: 65537 (0x10001)
    Signature Algorithm: sha256WithRSAEncryption
         ae:86:0e:c4:71:4f:75:f5:12:19:d8:60:b4:80:f8:e2:23:43:
         cb:7f:38:16:97:b6:1e:57:58:d1:41:6b:7e:8b:4e:9a:10:3f:
         24:fa:89:23:ba:76:28:ae:4a:d6:d9:35:52:c9:60:0b:70:5b:
         fa:79:6d:0c:36:fb:cd:7e:16:8c:e4:7a:5b:6d:d2:c2:28:86:
         d7:ea:b2:e1:d9:08:5c:a6:49:12:8c:8d:0c:1a:f5:a9:ce:35:
         b4:05:d2:16:90:f1:42:0b:7f:35:40:ad:0e:77:f0:5e:aa:9c:
         14:c9:2d:55:26:94:44:4a:23:d7:92:6f:f3:75:e4:96:5c:ee:
         0b:25:39:a4:67:3c:58:f3:32:d9:12:c7:0f:18:89:4f:e6:42:
         ba:22:1e:3d:c8:6a:2d:dc:cc:94:c8:bf:5f:6e:1d:35:cc:2d:
         60:78:d5:a9:2a:52:28:65:c5:17:0f:bb:47:f7:0a:17:a1:dc:
         4b:fa:a6:d9:b7:17:37:b6:d9:94:fd:3c:f0:a6:3d:c1:51:67:
         11:c6:53:ce:db:e3:d7:fe:d3:d6:73:63:15:48:02:35:d1:df:
         e8:e0:14:c2:f8:52:2c:a7:ff:15:8c:86:f2:4a:de:a3:61:b4:
         ce:46:29:1e:3d:74:92:a3:f8:39:fc:d5:5c:12:01:d0:b9:46:
         9f:b6:18:0d
-----BEGIN CERTIFICATE-----
MIID1DCCArygAwIBAgIUL9zPihztrfekrF8kaBz13YLFWR4wDQYJKoZIhvcNAQEL
BQAwgaMxCzAJBgNVBAYTAlVTMRAwDgYDVQQIDAdNb250YW5hMRAwDgYDVQQHDAdC
b3plbWFuMRQwEgYDVQQLDAtFbmdpbmVlcmluZzE5MDcGA1UEAwwwREVSOjMwOjBk
OjgyOjBiOjZjOjZmOjYzOjYxOjZjOjY4OjZmOjczOjc0OjAwOjY4MR8wHQYJKoZI
hvcNAQkBFhBpbmZvQHdvbGZzc2wuY29tMB4XDTIxMDYxNTIyMDIzM1oXDTI0MDMx
MTIyMDIzM1owgaMxCzAJBgNVBAYTAlVTMRAwDgYDVQQIDAdNb250YW5hMRAwDgYD
VQQHDAdCb3plbWFuMRQwEgYDVQQLDAtFbmdpbmVlcmluZzE5MDcGA1UEAwwwREVS
OjMwOjBkOjgyOjBiOjZjOjZmOjYzOjYxOjZjOjY4OjZmOjczOjc0OjAwOjY4MR8w
HQYJKoZIhvcNAQkBFhBpbmZvQHdvbGZzc2wuY29tMIIBIjANBgkqhkiG9w0BAQEF
AAOCAQ8AMIIBCgKCAQEAwJUI4VdB8nFtt9JFQScBZcZFrvK8JDC4lc4vTtb2HIi8
fJ/7qGd//lycUXX3isoH5zUvj+G9e8AvfKtkqBf8yl17uuAh5XIuby6G2JVz2qwb
U7lfP9cZDSVP4WNjUYsLZD+tQ7ilHFw0s64AoGPF9n8LWWh4c6aMGKkCba/DGQEu
uBDjxsxAtGmjRjNph27Euxem8+jdrXO8ey8htf1mUQy9VLPhbV8cvCNz0QkDiRTS
ELlkwyrQoZZKvOHUGlvHoMDBY3gPRDcwMpaAMiOVoXe6E9KXc+JdJclqDcM5YKS0
sGlCQgnp2Ai8MyCzWCKnquvE4eZhg8XSlt/Z0E+t1wIDAQABMA0GCSqGSIb3DQEB
CwUAA4IBAQCuhg7EcU919RIZ2GC0gPjiI0PLfzgWl7YeV1jRQWt+i06aED8k+okj
unYorkrW2TVSyWALcFv6eW0MNvvNfhaM5HpbbdLCKIbX6rLh2QhcpkkSjI0MGvWp
zjW0BdIWkPFCC381QK0Od/BeqpwUyS1VJpRESiPXkm/zdeSWXO4LJTmkZzxY8zLZ
EscPGIlP5kK6Ih49yGot3MyUyL9fbh01zC1geNWpKlIoZcUXD7tH9woXodxL+qbZ
txc3ttmU/Tzwpj3BUWcRxlPO2+PX/tPWc2MVSAI10d/o4BTC+FIsp/8VjIbySt6j
YbTORikePXSSo/g5/NVcEgHQuUafthgN
-----END CERTIFICATE-----
