Certificate:
    Data:
        Version: 3 (0x2)
        Serial Number:
            04:23:81:c6:8c:16:e3:d7:79:1a:47:63:03:7a:c1:7c:bb:47:9e:c3
        Signature Algorithm: sha256WithRSAEncryption
        Issuer: C = US, ST = Montana, L = Bozeman, OU = Engineering, CN = www.nomatch.com, emailAddress = info@wolfssl.com
        Validity
            Not Before: Feb 15 12:50:25 2022 GMT
            Not After : Nov 11 12:50:25 2024 GMT
        Subject: C = US, ST = Montana, L = Bozeman, OU = Engineering, CN = www.nomatch.com, emailAddress = info@wolfssl.com
        Subject Public Key Info:
            Public Key Algorithm: rsaEncryption
                RSA Public-Key: (2048 bit)
                Modulus:
                    00:c0:95:08:e1:57:41:f2:71:6d:b7:d2:45:41:27:
                    01:65:c6:45:ae:f2:bc:24:30:b8:95:ce:2f:4e:d6:
                    f6:1c:88:bc:7c:9f:fb:a8:67:7f:fe:5c:9c:51:75:
                    f7:8a:ca:07:e7:35:2f:8f:e1:bd:7b:c0:2f:7c:ab:
                    64:a8:17:fc:ca:5d:7b:ba:e0:21:e5:72:2e:6f:2e:
                    86:d8:95:73:da:ac:1b:53:b9:5f:3f:d7:19:0d:25:
                    4f:e1:63:63:51:8b:0b:64:3f:ad:43:b8:a5:1c:5c:
                    34:b3:ae:00:a0:63:c5:f6:7f:0b:59:68:78:73:a6:
                    8c:18:a9:02:6d:af:c3:19:01:2e:b8:10:e3:c6:cc:
                    40:b4:69:a3:46:33:69:87:6e:c4:bb:17:a6:f3:e8:
                    dd:ad:73:bc:7b:2f:21:b5:fd:66:51:0c:bd:54:b3:
                    e1:6d:5f:1c:bc:23:73:d1:09:03:89:14:d2:10:b9:
                    64:c3:2a:d0:a1:96:4a:bc:e1:d4:1a:5b:c7:a0:c0:
                    c1:63:78:0f:44:37:30:32:96:80:32:23:95:a1:77:
                    ba:13:d2:97:73:e2:5d:25:c9:6a:0d:c3:39:60:a4:
                    b4:b0:69:42:42:09:e9:d8:08:bc:33:20:b3:58:22:
                    a7:aa:eb:c4:e1:e6:61:83:c5:d2:96:df:d9:d0:4f:
                    ad:d7
                Exponent: 65537 (0x10001)
        X509v3 extensions:
            X509v3 Subject Alternative Name: 
                DNS:www.nomatch.com
    Signature Algorithm: sha256WithRSAEncryption
         9a:f5:41:40:3e:7d:a5:c0:3c:0b:9e:38:fa:d4:fc:fc:d6:c8:
         03:21:e4:ca:55:bf:70:7b:9e:e6:bc:0a:99:a3:48:25:34:23:
         3b:6a:0e:57:00:7f:4a:1d:fa:3d:46:15:1b:0a:ec:ed:d9:b8:
         c0:07:22:b7:9c:8d:13:c2:1d:5f:02:0a:73:6a:79:e6:c0:6b:
         7c:76:1e:76:e0:5a:ca:9e:ad:1f:b1:84:1a:5e:47:48:8f:02:
         0c:66:39:74:42:1c:60:70:91:86:c0:fa:9d:c3:0e:5d:61:9b:
         b0:6a:d4:93:57:d5:a2:e3:c6:aa:c2:4e:d2:36:37:4c:1a:81:
         45:b2:fd:da:9d:4b:e4:7e:b1:67:2e:f2:82:89:28:76:fa:97:
         bd:6f:86:04:21:ee:8f:2d:c9:b2:b7:03:9e:0c:7d:5f:33:42:
         bf:a2:76:bd:97:3d:97:4b:12:62:c3:54:3b:33:b7:4d:5b:c5:
         20:97:a2:62:c7:bf:37:17:9a:f5:4f:bb:07:0f:4d:e3:b3:d7:
         2c:d4:f9:af:a4:d7:14:27:db:2e:36:3a:68:47:8c:2c:ce:5e:
         22:0f:7f:3a:98:42:f9:2d:78:77:e7:9a:40:8e:b9:da:39:78:
         6f:04:75:41:99:1b:05:9e:52:c4:0a:cf:02:9c:70:e6:9d:1e:
         13:b6:14:fd
-----BEGIN CERTIFICATE-----
MIIDsjCCApqgAwIBAgIUBCOBxowW49d5GkdjA3rBfLtHnsMwDQYJKoZIhvcNAQEL
BQAwgYIxCzAJBgNVBAYTAlVTMRAwDgYDVQQIDAdNb250YW5hMRAwDgYDVQQHDAdC
b3plbWFuMRQwEgYDVQQLDAtFbmdpbmVlcmluZzEYMBYGA1UEAwwPd3d3Lm5vbWF0
Y2guY29tMR8wHQYJKoZIhvcNAQkBFhBpbmZvQHdvbGZzc2wuY29tMB4XDTIyMDIx
NTEyNTAyNVoXDTI0MTExMTEyNTAyNVowgYIxCzAJBgNVBAYTAlVTMRAwDgYDVQQI
DAdNb250YW5hMRAwDgYDVQQHDAdCb3plbWFuMRQwEgYDVQQLDAtFbmdpbmVlcmlu
ZzEYMBYGA1UEAwwPd3d3Lm5vbWF0Y2guY29tMR8wHQYJKoZIhvcNAQkBFhBpbmZv
QHdvbGZzc2wuY29tMIIBIjANBgkqhkiG9w0BAQEFAAOCAQ8AMIIBCgKCAQEAwJUI
4VdB8nFtt9JFQScBZcZFrvK8JDC4lc4vTtb2HIi8fJ/7qGd//lycUXX3isoH5zUv
j+G9e8AvfKtkqBf8yl17uuAh5XIuby6G2JVz2qwbU7lfP9cZDSVP4WNjUYsLZD+t
Q7ilHFw0s64AoGPF9n8LWWh4c6aMGKkCba/DGQEuuBDjxsxAtGmjRjNph27Euxem
8+jdrXO8ey8htf1mUQy9VLPhbV8cvCNz0QkDiRTSELlkwyrQoZZKvOHUGlvHoMDB
Y3gPRDcwMpaAMiOVoXe6E9KXc+JdJclqDcM5YKS0sGlCQgnp2Ai8MyCzWCKnquvE
4eZhg8XSlt/Z0E+t1wIDAQABox4wHDAaBgNVHREEEzARgg93d3cubm9tYXRjaC5j
b20wDQYJKoZIhvcNAQELBQADggEBAJr1QUA+faXAPAueOPrU/PzWyAMh5MpVv3B7
nua8CpmjSCU0IztqDlcAf0od+j1GFRsK7O3ZuMAHIrecjRPCHV8CCnNqeebAa3x2
HnbgWsqerR+xhBpeR0iPAgxmOXRCHGBwkYbA+p3DDl1hm7Bq1JNX1aLjxqrCTtI2
N0wagUWy/dqdS+R+sWcu8oKJKHb6l71vhgQh7o8tybK3A54MfV8zQr+idr2XPZdL
EmLDVDszt01bxSCXomLHvzcXmvVPuwcPTeOz1yzU+a+k1xQn2y42OmhHjCzOXiIP
fzqYQvkteHfnmkCOudo5eG8EdUGZGwWeUsQKzwKccOadHhO2FP0=
-----END CERTIFICATE-----
