Certificate:
    Data:
        Version: 3 (0x2)
        Serial Number:
            1a:0b:b9:ff:dd:30:a7:71:35:cf:f9:bd:94:96:f6:90:28:a6:db:fd
        Signature Algorithm: sha256WithRSAEncryption
        Issuer: C = US, ST = Montana, L = Bozeman, OU = Engineering, CN = www.nomatch.com, emailAddress = info@wolfssl.com
        Validity
            Not Before: Sep 26 17:22:43 2023 GMT
            Not After : Jun 22 17:22:43 2026 GMT
        Subject: C = US, ST = Montana, L = Bozeman, OU = Engineering, CN = www.nomatch.com, emailAddress = info@wolfssl.com
        Subject Public Key Info:
            Public Key Algorithm: rsaEncryption
                Public-Key: (2048 bit)
                Modulus:
                    00:c0:95:08:e1:57:41:f2:71:6d:b7:d2:45:41:27:
                    01:65:c6:45:ae:f2:bc:24:30:b8:95:ce:2f:4e:d6:
                    f6:1c:88:bc:7c:9f:fb:a8:67:7f:fe:5c:9c:51:75:
                    f7:8a:ca:07:e7:35:2f:8f:e1:bd:7b:c0:2f:7c:ab:
                    64:a8:17:fc:ca:5d:7b:ba:e0:21:e5:72:2e:6f:2e:
                    86:d8:95:73:da:ac:1b:53:b9:5f:3f:d7:19:0d:25:
                    4f:e1:63:63:51:8b:0b:64:3f:ad:43:b8:a5:1c:5c:
                    34:b3:ae:00:a0:63:c5:f6:7f:0b:59:68:78:73:a6:
                    8c:18:a9:02:6d:af:c3:19:01:2e:b8:10:e3:c6:cc:
                    40:b4:69:a3:46:33:69:87:6e:c4:bb:17:a6:f3:e8:
                    dd:ad:73:bc:7b:2f:21:b5:fd:66:51:0c:bd:54:b3:
                    e1:6d:5f:1c:bc:23:73:d1:09:03:89:14:d2:10:b9:
                    64:c3:2a:d0:a1:96:4a:bc:e1:d4:1a:5b:c7:a0:c0:
                    c1:63:78:0f:44:37:30:32:96:80:32:23:95:a1:77:
                    ba:13:d2:97:73:e2:5d:25:c9:6a:0d:c3:39:60:a4:
                    b4:b0:69:42:42:09:e9:d8:08:bc:33:20:b3:58:22:
                    a7:aa:eb:c4:e1:e6:61:83:c5:d2:96:df:d9:d0:4f:
                    ad:d7
                Exponent: 65537 (0x10001)
        X509v3 extensions:
            X509v3 Subject Alternative Name: 
                DNS:localhost
            X509v3 Subject Key Identifier: 
                B3:11:32:C9:92:98:84:E2:C9:F8:D0:3B:6E:03:42:CA:1F:0E:8E:3C
    Signature Algorithm: sha256WithRSAEncryption
    Signature Value:
        83:90:bb:a1:91:20:5c:2c:88:e1:4d:3d:f7:8a:2e:0e:21:5d:
        08:6c:b7:85:ec:81:ef:66:f2:97:a7:b4:34:b4:d8:48:25:2c:
        0d:79:a9:a7:e5:79:be:db:17:b5:57:47:44:89:81:70:c7:8d:
        25:4a:77:8c:05:9e:6f:bd:30:fd:03:1a:3b:63:e5:14:da:8e:
        d6:c8:32:25:31:34:67:9e:24:54:65:d1:96:14:2d:4a:79:69:
        2f:19:f8:96:c0:db:a6:5c:45:a9:ff:87:79:cd:f1:44:10:17:
        64:99:8f:e3:0f:c4:02:2a:19:4f:93:fa:11:94:6b:27:e9:6f:
        ca:9b:e2:b1:a4:2f:9b:9f:44:ec:70:10:7a:fc:63:2f:ee:5a:
        ec:2a:08:d0:15:e3:1a:d2:30:64:b5:30:e4:c0:f9:95:23:33:
        3e:ab:97:d8:19:d5:1f:c7:eb:d5:77:a1:48:bb:2f:d2:ff:30:
        3b:83:9e:f0:7f:ef:63:2d:9b:52:73:92:df:fa:d1:95:11:bf:
        80:de:1b:f0:d7:df:46:38:b0:e1:d6:5a:08:fd:a5:65:81:06:
        34:c0:dc:2d:79:21:32:90:8d:01:d7:f1:cb:43:51:88:a9:72:
        f3:5c:0b:e9:4b:43:5d:ac:0f:f2:88:4c:5d:d7:23:fa:c4:b5:
        ee:36:8a:e5
-----BEGIN CERTIFICATE-----
MIIDyzCCArOgAwIBAgIUGgu5/90wp3E1z/m9lJb2kCim2/0wDQYJKoZIhvcNAQEL
BQAwgYIxCzAJBgNVBAYTAlVTMRAwDgYDVQQIDAdNb250YW5hMRAwDgYDVQQHDAdC
b3plbWFuMRQwEgYDVQQLDAtFbmdpbmVlcmluZzEYMBYGA1UEAwwPd3d3Lm5vbWF0
Y2guY29tMR8wHQYJKoZIhvcNAQkBFhBpbmZvQHdvbGZzc2wuY29tMB4XDTIzMDky
NjE3MjI0M1oXDTI2MDYyMjE3MjI0M1owgYIxCzAJBgNVBAYTAlVTMRAwDgYDVQQI
DAdNb250YW5hMRAwDgYDVQQHDAdCb3plbWFuMRQwEgYDVQQLDAtFbmdpbmVlcmlu
ZzEYMBYGA1UEAwwPd3d3Lm5vbWF0Y2guY29tMR8wHQYJKoZIhvcNAQkBFhBpbmZv
QHdvbGZzc2wuY29tMIIBIjANBgkqhkiG9w0BAQEFAAOCAQ8AMIIBCgKCAQEAwJUI
4VdB8nFtt9JFQScBZcZFrvK8JDC4lc4vTtb2HIi8fJ/7qGd//lycUXX3isoH5zUv
j+G9e8AvfKtkqBf8yl17uuAh5XIuby6G2JVz2qwbU7lfP9cZDSVP4WNjUYsLZD+t
Q7ilHFw0s64AoGPF9n8LWWh4c6aMGKkCba/DGQEuuBDjxsxAtGmjRjNph27Euxem
8+jdrXO8ey8htf1mUQy9VLPhbV8cvCNz0QkDiRTSELlkwyrQoZZKvOHUGlvHoMDB
Y3gPRDcwMpaAMiOVoXe6E9KXc+JdJclqDcM5YKS0sGlCQgnp2Ai8MyCzWCKnquvE
4eZhg8XSlt/Z0E+t1wIDAQABozcwNTAUBgNVHREEDTALgglsb2NhbGhvc3QwHQYD
VR0OBBYEFLMRMsmSmITiyfjQO24DQsofDo48MA0GCSqGSIb3DQEBCwUAA4IBAQCD
kLuhkSBcLIjhTT33ii4OIV0IbLeF7IHvZvKXp7Q0tNhIJSwNeamn5Xm+2xe1V0dE
iYFwx40lSneMBZ5vvTD9Axo7Y+UU2o7WyDIlMTRnniRUZdGWFC1KeWkvGfiWwNum
XEWp/4d5zfFEEBdkmY/jD8QCKhlPk/oRlGsn6W/Km+KxpC+bn0TscBB6/GMv7lrs
KgjQFeMa0jBktTDkwPmVIzM+q5fYGdUfx+vVd6FIuy/S/zA7g57wf+9jLZtSc5Lf
+tGVEb+A3hvw199GOLDh1loI/aVlgQY0wNwteSEykI0B1/HLQ1GIqXLzXAvpS0Nd
rA/yiExd1yP6xLXuNorl
-----END CERTIFICATE-----
