Certificate:
    Data:
        Version: 3 (0x2)
        Serial Number:
            7c:8e:3e:2b:1c:d9:dc:8c:61:59:63:e6:86:64:11:59:c6:76:5d:46
        Signature Algorithm: sha256WithRSAEncryption
        Issuer: C = US, ST = Montana, L = Bozeman, OU = Engineering, CN = *localhost, emailAddress = info@wolfssl.com
        Validity
            Not Before: Dec 20 23:07:25 2021 GMT
            Not After : Sep 15 23:07:25 2024 GMT
        Subject: C = US, ST = Montana, L = Bozeman, OU = Engineering, CN = *localhost, emailAddress = info@wolfssl.com
        Subject Public Key Info:
            Public Key Algorithm: rsaEncryption
                RSA Public-Key: (2048 bit)
                Modulus:
                    00:c0:95:08:e1:57:41:f2:71:6d:b7:d2:45:41:27:
                    01:65:c6:45:ae:f2:bc:24:30:b8:95:ce:2f:4e:d6:
                    f6:1c:88:bc:7c:9f:fb:a8:67:7f:fe:5c:9c:51:75:
                    f7:8a:ca:07:e7:35:2f:8f:e1:bd:7b:c0:2f:7c:ab:
                    64:a8:17:fc:ca:5d:7b:ba:e0:21:e5:72:2e:6f:2e:
                    86:d8:95:73:da:ac:1b:53:b9:5f:3f:d7:19:0d:25:
                    4f:e1:63:63:51:8b:0b:64:3f:ad:43:b8:a5:1c:5c:
                    34:b3:ae:00:a0:63:c5:f6:7f:0b:59:68:78:73:a6:
                    8c:18:a9:02:6d:af:c3:19:01:2e:b8:10:e3:c6:cc:
                    40:b4:69:a3:46:33:69:87:6e:c4:bb:17:a6:f3:e8:
                    dd:ad:73:bc:7b:2f:21:b5:fd:66:51:0c:bd:54:b3:
                    e1:6d:5f:1c:bc:23:73:d1:09:03:89:14:d2:10:b9:
                    64:c3:2a:d0:a1:96:4a:bc:e1:d4:1a:5b:c7:a0:c0:
                    c1:63:78:0f:44:37:30:32:96:80:32:23:95:a1:77:
                    ba:13:d2:97:73:e2:5d:25:c9:6a:0d:c3:39:60:a4:
                    b4:b0:69:42:42:09:e9:d8:08:bc:33:20:b3:58:22:
                    a7:aa:eb:c4:e1:e6:61:83:c5:d2:96:df:d9:d0:4f:
                    ad:d7
                Exponent: 65537 (0x10001)
    Signature Algorithm: sha256WithRSAEncryption
         bc:c3:20:df:70:21:0a:a0:c4:a2:dd:2e:0c:40:d9:fb:c9:14:
         9f:9f:90:65:64:38:b2:c6:71:53:7b:e5:00:6f:b9:74:ee:0f:
         93:c9:e1:bf:d9:e4:ea:77:15:35:ba:35:08:7b:b1:cf:ec:09:
         e2:ff:b8:8f:a0:03:1c:42:18:66:a5:84:63:29:d3:f8:80:12:
         d3:3b:31:8d:85:73:ac:08:f8:5c:ee:0f:7f:6a:71:3d:3a:cc:
         9f:53:b2:27:36:0a:d1:6f:eb:86:f4:fd:cd:ec:81:25:47:4a:
         85:ca:d8:fa:32:fa:60:a0:1d:c6:68:77:39:0e:96:6e:6b:04:
         23:84:41:fc:a9:11:26:74:1e:5b:8b:cf:38:27:4a:03:aa:2f:
         01:36:cd:bd:4a:2e:67:67:c6:3c:fc:35:c4:58:47:b4:56:89:
         f1:e2:2c:d4:d0:af:26:9c:9c:a1:c0:8c:de:eb:cc:12:f9:cf:
         09:c5:0b:3d:a8:2f:74:ca:5d:d9:2c:a8:e2:05:f5:f1:43:42:
         92:72:68:96:fc:c1:14:83:ec:e6:85:b6:31:32:0c:5f:8b:36:
         8b:78:ad:e0:e3:ed:ba:62:4c:1c:20:c4:4e:5d:77:dc:73:89:
         c3:b9:5a:7b:60:30:fd:ca:c1:16:c8:46:df:ad:b6:59:0a:f3:
         98:bc:fb:9c
-----BEGIN CERTIFICATE-----
MIIDhjCCAm6gAwIBAgIUfI4+KxzZ3IxhWWPmhmQRWcZ2XUYwDQYJKoZIhvcNAQEL
BQAwfTELMAkGA1UEBhMCVVMxEDAOBgNVBAgMB01vbnRhbmExEDAOBgNVBAcMB0Jv
emVtYW4xFDASBgNVBAsMC0VuZ2luZWVyaW5nMRMwEQYDVQQDDAoqbG9jYWxob3N0
MR8wHQYJKoZIhvcNAQkBFhBpbmZvQHdvbGZzc2wuY29tMB4XDTIxMTIyMDIzMDcy
NVoXDTI0MDkxNTIzMDcyNVowfTELMAkGA1UEBhMCVVMxEDAOBgNVBAgMB01vbnRh
bmExEDAOBgNVBAcMB0JvemVtYW4xFDASBgNVBAsMC0VuZ2luZWVyaW5nMRMwEQYD
VQQDDAoqbG9jYWxob3N0MR8wHQYJKoZIhvcNAQkBFhBpbmZvQHdvbGZzc2wuY29t
MIIBIjANBgkqhkiG9w0BAQEFAAOCAQ8AMIIBCgKCAQEAwJUI4VdB8nFtt9JFQScB
ZcZFrvK8JDC4lc4vTtb2HIi8fJ/7qGd//lycUXX3isoH5zUvj+G9e8AvfKtkqBf8
yl17uuAh5XIuby6G2JVz2qwbU7lfP9cZDSVP4WNjUYsLZD+tQ7ilHFw0s64AoGPF
9n8LWWh4c6aMGKkCba/DGQEuuBDjxsxAtGmjRjNph27Euxem8+jdrXO8ey8htf1m
UQy9VLPhbV8cvCNz0QkDiRTSELlkwyrQoZZKvOHUGlvHoMDBY3gPRDcwMpaAMiOV
oXe6E9KXc+JdJclqDcM5YKS0sGlCQgnp2Ai8MyCzWCKnquvE4eZhg8XSlt/Z0E+t
1wIDAQABMA0GCSqGSIb3DQEBCwUAA4IBAQC8wyDfcCEKoMSi3S4MQNn7yRSfn5Bl
ZDiyxnFTe+UAb7l07g+TyeG/2eTqdxU1ujUIe7HP7Ani/7iPoAMcQhhmpYRjKdP4
gBLTOzGNhXOsCPhc7g9/anE9OsyfU7InNgrRb+uG9P3N7IElR0qFytj6MvpgoB3G
aHc5DpZuawQjhEH8qREmdB5bi884J0oDqi8BNs29Si5nZ8Y8/DXEWEe0Vonx4izU
0K8mnJyhwIze68wS+c8JxQs9qC90yl3ZLKjiBfXxQ0KScmiW/MEUg+zmhbYxMgxf
izaLeK3g4+26YkwcIMROXXfcc4nDuVp7YDD9ysEWyEbfrbZZCvOYvPuc
-----END CERTIFICATE-----
