Certificate:
    Data:
        Version: 3 (0x2)
        Serial Number:
            11:4c:a8:ce:f8:a7:2e:27:82:b2:60:85:a5:c2:bf:09:a2:23:e9:a4
        Signature Algorithm: sha256WithRSAEncryption
        Issuer: C=US, ST=Montana, L=Bozeman, OU=Engineering, CN=*localhost, emailAddress=info@wolfssl.com
        Validity
            Not Before: Nov 13 20:41:29 2025 GMT
            Not After : Aug  9 20:41:29 2028 GMT
        Subject: C=US, ST=Montana, L=Bozeman, OU=Engineering, CN=*localhost, emailAddress=info@wolfssl.com
        Subject Public Key Info:
            Public Key Algorithm: rsaEncryption
                Public-Key: (2048 bit)
                Modulus:
                    00:c0:95:08:e1:57:41:f2:71:6d:b7:d2:45:41:27:
                    01:65:c6:45:ae:f2:bc:24:30:b8:95:ce:2f:4e:d6:
                    f6:1c:88:bc:7c:9f:fb:a8:67:7f:fe:5c:9c:51:75:
                    f7:8a:ca:07:e7:35:2f:8f:e1:bd:7b:c0:2f:7c:ab:
                    64:a8:17:fc:ca:5d:7b:ba:e0:21:e5:72:2e:6f:2e:
                    86:d8:95:73:da:ac:1b:53:b9:5f:3f:d7:19:0d:25:
                    4f:e1:63:63:51:8b:0b:64:3f:ad:43:b8:a5:1c:5c:
                    34:b3:ae:00:a0:63:c5:f6:7f:0b:59:68:78:73:a6:
                    8c:18:a9:02:6d:af:c3:19:01:2e:b8:10:e3:c6:cc:
                    40:b4:69:a3:46:33:69:87:6e:c4:bb:17:a6:f3:e8:
                    dd:ad:73:bc:7b:2f:21:b5:fd:66:51:0c:bd:54:b3:
                    e1:6d:5f:1c:bc:23:73:d1:09:03:89:14:d2:10:b9:
                    64:c3:2a:d0:a1:96:4a:bc:e1:d4:1a:5b:c7:a0:c0:
                    c1:63:78:0f:44:37:30:32:96:80:32:23:95:a1:77:
                    ba:13:d2:97:73:e2:5d:25:c9:6a:0d:c3:39:60:a4:
                    b4:b0:69:42:42:09:e9:d8:08:bc:33:20:b3:58:22:
                    a7:aa:eb:c4:e1:e6:61:83:c5:d2:96:df:d9:d0:4f:
                    ad:d7
                Exponent: 65537 (0x10001)
        X509v3 extensions:
            X509v3 Subject Key Identifier: 
                B3:11:32:C9:92:98:84:E2:C9:F8:D0:3B:6E:03:42:CA:1F:0E:8E:3C
    Signature Algorithm: sha256WithRSAEncryption
    Signature Value:
        4a:47:47:f0:f6:8e:ed:e1:65:15:68:43:d7:64:b5:9f:8a:8d:
        8a:4a:da:6f:68:22:44:9d:1e:77:33:be:60:df:af:e1:14:24:
        55:47:82:c3:b4:9c:2b:0d:69:64:d0:c9:d0:ef:19:a8:c0:54:
        3d:39:6b:69:6c:09:9d:5b:3c:7d:f6:18:22:6a:68:16:bb:dc:
        b0:01:ab:ed:94:e7:17:4c:8e:52:13:0f:dc:bc:b3:9f:9e:87:
        36:01:e5:e9:71:d5:19:5e:47:7c:b5:9d:42:72:67:17:26:31:
        40:54:f8:dd:1e:f9:76:2b:e5:88:cd:5f:07:8f:94:cb:c7:2a:
        0b:0b:69:4d:b6:6b:27:07:0e:55:a2:56:f9:db:57:95:c6:28:
        50:8b:bc:28:85:9b:b7:41:d7:fe:e3:1d:33:84:91:aa:55:e1:
        f8:09:11:29:f1:0f:92:ae:d9:c9:5f:a3:98:5b:2a:09:93:45:
        09:92:cb:58:e7:6e:e1:2a:2d:e7:70:17:f7:e5:14:0e:b8:89:
        83:c3:ce:16:41:7a:0f:bb:99:ec:f5:b7:3b:c0:39:8a:74:00:
        b6:8f:dd:28:d4:85:c3:af:a4:fb:a3:b3:7d:e0:ea:66:c6:8f:
        4d:e2:a6:a0:f0:1a:de:5f:b1:bd:cb:28:8c:c0:9a:71:84:3a:
        d1:0f:c4:d1
-----BEGIN CERTIFICATE-----
MIIDqTCCApGgAwIBAgIUEUyozvinLieCsmCFpcK/CaIj6aQwDQYJKoZIhvcNAQEL
BQAwfTELMAkGA1UEBhMCVVMxEDAOBgNVBAgMB01vbnRhbmExEDAOBgNVBAcMB0Jv
emVtYW4xFDASBgNVBAsMC0VuZ2luZWVyaW5nMRMwEQYDVQQDDAoqbG9jYWxob3N0
MR8wHQYJKoZIhvcNAQkBFhBpbmZvQHdvbGZzc2wuY29tMB4XDTI1MTExMzIwNDEy
OVoXDTI4MDgwOTIwNDEyOVowfTELMAkGA1UEBhMCVVMxEDAOBgNVBAgMB01vbnRh
bmExEDAOBgNVBAcMB0JvemVtYW4xFDASBgNVBAsMC0VuZ2luZWVyaW5nMRMwEQYD
VQQDDAoqbG9jYWxob3N0MR8wHQYJKoZIhvcNAQkBFhBpbmZvQHdvbGZzc2wuY29t
MIIBIjANBgkqhkiG9w0BAQEFAAOCAQ8AMIIBCgKCAQEAwJUI4VdB8nFtt9JFQScB
ZcZFrvK8JDC4lc4vTtb2HIi8fJ/7qGd//lycUXX3isoH5zUvj+G9e8AvfKtkqBf8
yl17uuAh5XIuby6G2JVz2qwbU7lfP9cZDSVP4WNjUYsLZD+tQ7ilHFw0s64AoGPF
9n8LWWh4c6aMGKkCba/DGQEuuBDjxsxAtGmjRjNph27Euxem8+jdrXO8ey8htf1m
UQy9VLPhbV8cvCNz0QkDiRTSELlkwyrQoZZKvOHUGlvHoMDBY3gPRDcwMpaAMiOV
oXe6E9KXc+JdJclqDcM5YKS0sGlCQgnp2Ai8MyCzWCKnquvE4eZhg8XSlt/Z0E+t
1wIDAQABoyEwHzAdBgNVHQ4EFgQUsxEyyZKYhOLJ+NA7bgNCyh8OjjwwDQYJKoZI
hvcNAQELBQADggEBAEpHR/D2ju3hZRVoQ9dktZ+KjYpK2m9oIkSdHnczvmDfr+EU
JFVHgsO0nCsNaWTQydDvGajAVD05a2lsCZ1bPH32GCJqaBa73LABq+2U5xdMjlIT
D9y8s5+ehzYB5elx1RleR3y1nUJyZxcmMUBU+N0e+XYr5YjNXwePlMvHKgsLaU22
aycHDlWiVvnbV5XGKFCLvCiFm7dB1/7jHTOEkapV4fgJESnxD5Ku2clfo5hbKgmT
RQmSy1jnbuEqLedwF/flFA64iYPDzhZBeg+7mez1tzvAOYp0ALaP3SjUhcOvpPuj
s33g6mbGj03ipqDwGt5fsb3LKIzAmnGEOtEPxNE=
-----END CERTIFICATE-----
