Certificate:
    Data:
        Version: 3 (0x2)
        Serial Number:
            6d:8b:3a:c3:b7:18:15:6d:43:02:95:5f:94:12:5d:7d:d1:35:ac:74
        Signature Algorithm: sha256WithRSAEncryption
        Issuer: C = US, ST = Montana, L = Bozeman, OU = Engineering, CN = www.nomatch.com, emailAddress = info@wolfssl.com
        Validity
            Not Before: Jun 15 22:02:33 2021 GMT
            Not After : Mar 11 22:02:33 2024 GMT
        Subject: C = US, ST = Montana, L = Bozeman, OU = Engineering, CN = www.nomatch.com, emailAddress = info@wolfssl.com
        Subject Public Key Info:
            Public Key Algorithm: rsaEncryption
                RSA Public-Key: (2048 bit)
                Modulus:
                    00:c0:95:08:e1:57:41:f2:71:6d:b7:d2:45:41:27:
                    01:65:c6:45:ae:f2:bc:24:30:b8:95:ce:2f:4e:d6:
                    f6:1c:88:bc:7c:9f:fb:a8:67:7f:fe:5c:9c:51:75:
                    f7:8a:ca:07:e7:35:2f:8f:e1:bd:7b:c0:2f:7c:ab:
                    64:a8:17:fc:ca:5d:7b:ba:e0:21:e5:72:2e:6f:2e:
                    86:d8:95:73:da:ac:1b:53:b9:5f:3f:d7:19:0d:25:
                    4f:e1:63:63:51:8b:0b:64:3f:ad:43:b8:a5:1c:5c:
                    34:b3:ae:00:a0:63:c5:f6:7f:0b:59:68:78:73:a6:
                    8c:18:a9:02:6d:af:c3:19:01:2e:b8:10:e3:c6:cc:
                    40:b4:69:a3:46:33:69:87:6e:c4:bb:17:a6:f3:e8:
                    dd:ad:73:bc:7b:2f:21:b5:fd:66:51:0c:bd:54:b3:
                    e1:6d:5f:1c:bc:23:73:d1:09:03:89:14:d2:10:b9:
                    64:c3:2a:d0:a1:96:4a:bc:e1:d4:1a:5b:c7:a0:c0:
                    c1:63:78:0f:44:37:30:32:96:80:32:23:95:a1:77:
                    ba:13:d2:97:73:e2:5d:25:c9:6a:0d:c3:39:60:a4:
                    b4:b0:69:42:42:09:e9:d8:08:bc:33:20:b3:58:22:
                    a7:aa:eb:c4:e1:e6:61:83:c5:d2:96:df:d9:d0:4f:
                    ad:d7
                Exponent: 65537 (0x10001)
        X509v3 extensions:
            X509v3 Subject Alternative Name: 
                DNS:www.nomatch.com
    Signature Algorithm: sha256WithRSAEncryption
         4f:8b:ef:6c:a6:c6:2c:af:b4:a7:c9:ed:4c:e1:8c:d0:83:40:
         b1:ee:72:ba:f7:92:bb:4f:b6:e6:a3:3e:99:8c:af:8c:12:15:
         c0:51:4c:46:a8:96:2a:72:a1:35:60:4f:e2:e2:e1:69:e2:f3:
         c7:c7:b1:bb:01:54:3c:a8:5d:ac:76:1a:40:4e:8d:2a:68:6d:
         58:70:ce:61:87:f5:3d:e6:21:03:85:8b:82:e5:6a:a1:c3:75:
         06:7d:16:b0:38:71:de:5c:1e:b9:23:0b:09:8e:7a:d7:43:bf:
         76:57:05:01:54:e2:b0:87:82:05:16:9b:ac:4c:98:ef:4f:76:
         3a:e2:9d:b6:54:a4:f3:e8:f9:1f:11:65:2a:9d:65:a3:f6:80:
         48:d0:f1:11:f3:86:a9:ce:8c:f9:33:19:ba:12:d7:7f:2d:48:
         97:c5:12:c7:7f:fb:9a:41:41:05:84:7a:ec:4b:ca:fb:da:0e:
         2d:7f:6b:3b:4b:22:0c:4d:92:7b:8a:3e:2b:99:7b:81:6c:2d:
         2b:b2:68:36:99:1d:96:54:4d:86:79:80:df:3f:1e:c1:18:e2:
         fd:ed:ab:b3:e9:27:32:f6:d1:64:b5:a6:34:ab:20:99:d0:10:
         2b:4b:54:e5:c0:dd:ad:ac:5c:31:44:c5:e9:d2:c9:b8:4d:aa:
         f0:7f:c3:e2
-----BEGIN CERTIFICATE-----
MIIDsjCCApqgAwIBAgIUbYs6w7cYFW1DApVflBJdfdE1rHQwDQYJKoZIhvcNAQEL
BQAwgYIxCzAJBgNVBAYTAlVTMRAwDgYDVQQIDAdNb250YW5hMRAwDgYDVQQHDAdC
b3plbWFuMRQwEgYDVQQLDAtFbmdpbmVlcmluZzEYMBYGA1UEAwwPd3d3Lm5vbWF0
Y2guY29tMR8wHQYJKoZIhvcNAQkBFhBpbmZvQHdvbGZzc2wuY29tMB4XDTIxMDYx
NTIyMDIzM1oXDTI0MDMxMTIyMDIzM1owgYIxCzAJBgNVBAYTAlVTMRAwDgYDVQQI
DAdNb250YW5hMRAwDgYDVQQHDAdCb3plbWFuMRQwEgYDVQQLDAtFbmdpbmVlcmlu
ZzEYMBYGA1UEAwwPd3d3Lm5vbWF0Y2guY29tMR8wHQYJKoZIhvcNAQkBFhBpbmZv
QHdvbGZzc2wuY29tMIIBIjANBgkqhkiG9w0BAQEFAAOCAQ8AMIIBCgKCAQEAwJUI
4VdB8nFtt9JFQScBZcZFrvK8JDC4lc4vTtb2HIi8fJ/7qGd//lycUXX3isoH5zUv
j+G9e8AvfKtkqBf8yl17uuAh5XIuby6G2JVz2qwbU7lfP9cZDSVP4WNjUYsLZD+t
Q7ilHFw0s64AoGPF9n8LWWh4c6aMGKkCba/DGQEuuBDjxsxAtGmjRjNph27Euxem
8+jdrXO8ey8htf1mUQy9VLPhbV8cvCNz0QkDiRTSELlkwyrQoZZKvOHUGlvHoMDB
Y3gPRDcwMpaAMiOVoXe6E9KXc+JdJclqDcM5YKS0sGlCQgnp2Ai8MyCzWCKnquvE
4eZhg8XSlt/Z0E+t1wIDAQABox4wHDAaBgNVHREEEzARgg93d3cubm9tYXRjaC5j
b20wDQYJKoZIhvcNAQELBQADggEBAE+L72ymxiyvtKfJ7UzhjNCDQLHucrr3krtP
tuajPpmMr4wSFcBRTEaolipyoTVgT+Li4Wni88fHsbsBVDyoXax2GkBOjSpobVhw
zmGH9T3mIQOFi4LlaqHDdQZ9FrA4cd5cHrkjCwmOetdDv3ZXBQFU4rCHggUWm6xM
mO9PdjrinbZUpPPo+R8RZSqdZaP2gEjQ8RHzhqnOjPkzGboS138tSJfFEsd/+5pB
QQWEeuxLyvvaDi1/aztLIgxNknuKPiuZe4FsLSuyaDaZHZZUTYZ5gN8/HsEY4v3t
q7PpJzL20WS1pjSrIJnQECtLVOXA3a2sXDFExenSybhNqvB/w+I=
-----END CERTIFICATE-----
