Certificate:
    Data:
        Version: 3 (0x2)
        Serial Number:
            32:70:6e:5f:3a:4b:a4:f1:68:7f:40:58:7b:f4:de:25:f8:da:7a:cf
        Signature Algorithm: sha256WithRSAEncryption
        Issuer: C = US, ST = Montana, L = Bozeman, OU = Engineering, CN = www.nomatch.com, emailAddress = info@wolfssl.com
        Validity
            Not Before: Dec 13 22:19:29 2023 GMT
            Not After : Sep  8 22:19:29 2026 GMT
        Subject: C = US, ST = Montana, L = Bozeman, OU = Engineering, CN = www.nomatch.com, emailAddress = info@wolfssl.com
        Subject Public Key Info:
            Public Key Algorithm: rsaEncryption
                RSA Public-Key: (2048 bit)
                Modulus:
                    00:c0:95:08:e1:57:41:f2:71:6d:b7:d2:45:41:27:
                    01:65:c6:45:ae:f2:bc:24:30:b8:95:ce:2f:4e:d6:
                    f6:1c:88:bc:7c:9f:fb:a8:67:7f:fe:5c:9c:51:75:
                    f7:8a:ca:07:e7:35:2f:8f:e1:bd:7b:c0:2f:7c:ab:
                    64:a8:17:fc:ca:5d:7b:ba:e0:21:e5:72:2e:6f:2e:
                    86:d8:95:73:da:ac:1b:53:b9:5f:3f:d7:19:0d:25:
                    4f:e1:63:63:51:8b:0b:64:3f:ad:43:b8:a5:1c:5c:
                    34:b3:ae:00:a0:63:c5:f6:7f:0b:59:68:78:73:a6:
                    8c:18:a9:02:6d:af:c3:19:01:2e:b8:10:e3:c6:cc:
                    40:b4:69:a3:46:33:69:87:6e:c4:bb:17:a6:f3:e8:
                    dd:ad:73:bc:7b:2f:21:b5:fd:66:51:0c:bd:54:b3:
                    e1:6d:5f:1c:bc:23:73:d1:09:03:89:14:d2:10:b9:
                    64:c3:2a:d0:a1:96:4a:bc:e1:d4:1a:5b:c7:a0:c0:
                    c1:63:78:0f:44:37:30:32:96:80:32:23:95:a1:77:
                    ba:13:d2:97:73:e2:5d:25:c9:6a:0d:c3:39:60:a4:
                    b4:b0:69:42:42:09:e9:d8:08:bc:33:20:b3:58:22:
                    a7:aa:eb:c4:e1:e6:61:83:c5:d2:96:df:d9:d0:4f:
                    ad:d7
                Exponent: 65537 (0x10001)
        X509v3 extensions:
            X509v3 Subject Alternative Name: 
                DNS:localhost
    Signature Algorithm: sha256WithRSAEncryption
         1a:fb:18:e0:cc:2f:fe:92:34:87:01:35:a1:e3:9f:8b:c5:5a:
         22:f6:9a:2f:19:08:99:1d:0d:e7:23:84:23:28:dd:ff:13:39:
         ca:73:1e:e0:c5:22:21:ab:b3:0e:74:a3:e6:c9:7b:a2:50:6c:
         35:c1:2f:30:eb:90:c5:36:4a:95:3c:43:c5:e4:fc:80:08:ce:
         69:2a:3f:50:66:8f:81:71:24:61:68:d3:34:69:b8:d7:11:27:
         b8:53:21:5f:19:6f:cc:66:e4:fd:07:95:7f:e1:d3:d4:91:2b:
         6f:d0:01:dc:5c:0c:72:10:2b:da:a7:2c:9d:eb:e3:e2:86:84:
         ab:b5:73:01:00:02:84:29:90:10:c0:13:70:d7:d8:da:da:ac:
         dc:75:8e:a8:ef:a3:c4:cf:aa:c2:83:66:8f:f9:0d:23:0d:9a:
         1b:b2:d3:04:3d:91:1e:f1:9a:5f:15:85:94:af:89:8b:d7:6d:
         cf:f8:06:e1:e8:30:b6:ef:6d:fc:33:19:a1:91:af:fc:f3:bf:
         0d:ae:97:ec:c3:ea:1e:17:76:3b:e4:57:c1:bd:27:16:58:03:
         95:02:6f:c8:fa:7e:0b:7b:a8:d4:e7:38:11:b3:a8:6f:ce:6e:
         6f:9f:68:c2:c6:93:06:00:49:0a:76:43:2c:8d:b0:49:9f:02:
         fb:e2:6a:39
-----BEGIN CERTIFICATE-----
MIIDrDCCApSgAwIBAgIUMnBuXzpLpPFof0BYe/TeJfjaes8wDQYJKoZIhvcNAQEL
BQAwgYIxCzAJBgNVBAYTAlVTMRAwDgYDVQQIDAdNb250YW5hMRAwDgYDVQQHDAdC
b3plbWFuMRQwEgYDVQQLDAtFbmdpbmVlcmluZzEYMBYGA1UEAwwPd3d3Lm5vbWF0
Y2guY29tMR8wHQYJKoZIhvcNAQkBFhBpbmZvQHdvbGZzc2wuY29tMB4XDTIzMTIx
MzIyMTkyOVoXDTI2MDkwODIyMTkyOVowgYIxCzAJBgNVBAYTAlVTMRAwDgYDVQQI
DAdNb250YW5hMRAwDgYDVQQHDAdCb3plbWFuMRQwEgYDVQQLDAtFbmdpbmVlcmlu
ZzEYMBYGA1UEAwwPd3d3Lm5vbWF0Y2guY29tMR8wHQYJKoZIhvcNAQkBFhBpbmZv
QHdvbGZzc2wuY29tMIIBIjANBgkqhkiG9w0BAQEFAAOCAQ8AMIIBCgKCAQEAwJUI
4VdB8nFtt9JFQScBZcZFrvK8JDC4lc4vTtb2HIi8fJ/7qGd//lycUXX3isoH5zUv
j+G9e8AvfKtkqBf8yl17uuAh5XIuby6G2JVz2qwbU7lfP9cZDSVP4WNjUYsLZD+t
Q7ilHFw0s64AoGPF9n8LWWh4c6aMGKkCba/DGQEuuBDjxsxAtGmjRjNph27Euxem
8+jdrXO8ey8htf1mUQy9VLPhbV8cvCNz0QkDiRTSELlkwyrQoZZKvOHUGlvHoMDB
Y3gPRDcwMpaAMiOVoXe6E9KXc+JdJclqDcM5YKS0sGlCQgnp2Ai8MyCzWCKnquvE
4eZhg8XSlt/Z0E+t1wIDAQABoxgwFjAUBgNVHREEDTALgglsb2NhbGhvc3QwDQYJ
KoZIhvcNAQELBQADggEBABr7GODML/6SNIcBNaHjn4vFWiL2mi8ZCJkdDecjhCMo
3f8TOcpzHuDFIiGrsw50o+bJe6JQbDXBLzDrkMU2SpU8Q8Xk/IAIzmkqP1Bmj4Fx
JGFo0zRpuNcRJ7hTIV8Zb8xm5P0HlX/h09SRK2/QAdxcDHIQK9qnLJ3r4+KGhKu1
cwEAAoQpkBDAE3DX2NrarNx1jqjvo8TPqsKDZo/5DSMNmhuy0wQ9kR7xml8VhZSv
iYvXbc/4BuHoMLbvbfwzGaGRr/zzvw2ul+zD6h4XdjvkV8G9JxZYA5UCb8j6fgt7
qNTnOBGzqG/Obm+faMLGkwYASQp2QyyNsEmfAvviajk=
-----END CERTIFICATE-----
