Certificate:
    Data:
        Version: 3 (0x2)
        Serial Number: 12504341600548822697 (0xad88586f52da1ea9)
    Signature Algorithm: sha1WithRSAEncryption
        Issuer: C=US, ST=Montana, L=Bozeman, OU=Engineering, CN=DER:30:0d:82:0b:6c:6f:63:61:6c:68:6f:73:74:00:68/emailAddress=info@wolfssl.com
        Validity
            Not Before: Jun 12 21:08:33 2018 GMT
            Not After : Mar  8 21:08:33 2021 GMT
        Subject: C=US, ST=Montana, L=Bozeman, OU=Engineering, CN=DER:30:0d:82:0b:6c:6f:63:61:6c:68:6f:73:74:00:68/emailAddress=info@wolfssl.com
        Subject Public Key Info:
            Public Key Algorithm: rsaEncryption
                Public-Key: (2048 bit)
                Modulus:
                    00:c0:95:08:e1:57:41:f2:71:6d:b7:d2:45:41:27:
                    01:65:c6:45:ae:f2:bc:24:30:b8:95:ce:2f:4e:d6:
                    f6:1c:88:bc:7c:9f:fb:a8:67:7f:fe:5c:9c:51:75:
                    f7:8a:ca:07:e7:35:2f:8f:e1:bd:7b:c0:2f:7c:ab:
                    64:a8:17:fc:ca:5d:7b:ba:e0:21:e5:72:2e:6f:2e:
                    86:d8:95:73:da:ac:1b:53:b9:5f:3f:d7:19:0d:25:
                    4f:e1:63:63:51:8b:0b:64:3f:ad:43:b8:a5:1c:5c:
                    34:b3:ae:00:a0:63:c5:f6:7f:0b:59:68:78:73:a6:
                    8c:18:a9:02:6d:af:c3:19:01:2e:b8:10:e3:c6:cc:
                    40:b4:69:a3:46:33:69:87:6e:c4:bb:17:a6:f3:e8:
                    dd:ad:73:bc:7b:2f:21:b5:fd:66:51:0c:bd:54:b3:
                    e1:6d:5f:1c:bc:23:73:d1:09:03:89:14:d2:10:b9:
                    64:c3:2a:d0:a1:96:4a:bc:e1:d4:1a:5b:c7:a0:c0:
                    c1:63:78:0f:44:37:30:32:96:80:32:23:95:a1:77:
                    ba:13:d2:97:73:e2:5d:25:c9:6a:0d:c3:39:60:a4:
                    b4:b0:69:42:42:09:e9:d8:08:bc:33:20:b3:58:22:
                    a7:aa:eb:c4:e1:e6:61:83:c5:d2:96:df:d9:d0:4f:
                    ad:d7
                Exponent: 65537 (0x10001)
    Signature Algorithm: sha1WithRSAEncryption
         2d:66:45:43:2b:7b:10:1e:9a:2d:65:ee:ff:55:c6:44:71:7f:
         db:b8:42:ef:e7:e8:d6:ee:b9:7d:58:7d:e6:a9:c9:8b:9d:56:
         89:0d:7f:b2:e7:e8:48:00:ad:81:aa:e2:97:2b:c5:0d:78:bc:
         3f:b3:ae:67:4a:af:fe:b5:90:5d:97:f6:d5:dd:d9:5c:69:65:
         6c:3b:32:7c:5a:76:16:d9:86:08:24:47:1b:fd:16:4c:5a:72:
         56:17:85:1e:aa:e4:4c:28:aa:91:28:e5:ed:95:28:5f:6b:63:
         a8:e7:7e:2d:0c:20:e2:7e:0e:57:ab:6d:e7:e4:fc:13:3b:d7:
         bb:df:cd:89:55:56:80:b7:45:0c:74:f6:ae:c3:91:b0:10:69:
         3f:13:ff:7e:43:3d:1e:c3:3b:02:ee:ab:27:64:12:bd:b6:70:
         99:c0:d3:6b:22:b8:f5:3c:6b:3f:ab:a0:fd:ba:cc:50:e5:8a:
         67:b3:ec:8b:15:79:bd:db:e3:64:1a:1d:bb:d5:cb:55:8f:40:
         7f:01:ba:e2:32:dc:87:fa:3c:80:dd:37:7f:de:5b:ca:aa:1d:
         63:46:ec:22:c6:4c:1b:bf:74:50:c4:1a:21:b6:7a:ac:3f:55:
         c8:bf:ae:69:80:2f:2d:2b:93:aa:0a:67:97:3c:c6:5b:7a:35:
         e7:19:51:bd
-----BEGIN CERTIFICATE-----
MIIDyTCCArGgAwIBAgIJAK2IWG9S2h6pMA0GCSqGSIb3DQEBBQUAMIGjMQswCQYD
VQQGEwJVUzEQMA4GA1UECAwHTW9udGFuYTEQMA4GA1UEBwwHQm96ZW1hbjEUMBIG
A1UECwwLRW5naW5lZXJpbmcxOTA3BgNVBAMMMERFUjozMDowZDo4MjowYjo2Yzo2
Zjo2Mzo2MTo2Yzo2ODo2Zjo3Mzo3NDowMDo2ODEfMB0GCSqGSIb3DQEJARYQaW5m
b0B3b2xmc3NsLmNvbTAeFw0xODA2MTIyMTA4MzNaFw0yMTAzMDgyMTA4MzNaMIGj
MQswCQYDVQQGEwJVUzEQMA4GA1UECAwHTW9udGFuYTEQMA4GA1UEBwwHQm96ZW1h
bjEUMBIGA1UECwwLRW5naW5lZXJpbmcxOTA3BgNVBAMMMERFUjozMDowZDo4Mjow
Yjo2Yzo2Zjo2Mzo2MTo2Yzo2ODo2Zjo3Mzo3NDowMDo2ODEfMB0GCSqGSIb3DQEJ
ARYQaW5mb0B3b2xmc3NsLmNvbTCCASIwDQYJKoZIhvcNAQEBBQADggEPADCCAQoC
ggEBAMCVCOFXQfJxbbfSRUEnAWXGRa7yvCQwuJXOL07W9hyIvHyf+6hnf/5cnFF1
94rKB+c1L4/hvXvAL3yrZKgX/Mpde7rgIeVyLm8uhtiVc9qsG1O5Xz/XGQ0lT+Fj
Y1GLC2Q/rUO4pRxcNLOuAKBjxfZ/C1loeHOmjBipAm2vwxkBLrgQ48bMQLRpo0Yz
aYduxLsXpvPo3a1zvHsvIbX9ZlEMvVSz4W1fHLwjc9EJA4kU0hC5ZMMq0KGWSrzh
1Bpbx6DAwWN4D0Q3MDKWgDIjlaF3uhPSl3PiXSXJag3DOWCktLBpQkIJ6dgIvDMg
s1gip6rrxOHmYYPF0pbf2dBPrdcCAwEAATANBgkqhkiG9w0BAQUFAAOCAQEALWZF
Qyt7EB6aLWXu/1XGRHF/27hC7+fo1u65fVh95qnJi51WiQ1/sufoSACtgarilyvF
DXi8P7OuZ0qv/rWQXZf21d3ZXGllbDsyfFp2FtmGCCRHG/0WTFpyVheFHqrkTCiq
kSjl7ZUoX2tjqOd+LQwg4n4OV6tt5+T8EzvXu9/NiVVWgLdFDHT2rsORsBBpPxP/
fkM9HsM7Au6rJ2QSvbZwmcDTayK49TxrP6ug/brMUOWKZ7PsixV5vdvjZBodu9XL
VY9AfwG64jLch/o8gN03f95byqodY0bsIsZMG790UMQaIbZ6rD9VyL+uaYAvLSuT
qgpnlzzGW3o15xlRvQ==
-----END CERTIFICATE-----
