Certificate:
    Data:
        Version: 1 (0x0)
        Serial Number:
            08:81:6e:9b:5f:a5:ed:82:bc:3f:39:64:b7:e6:6e:26:e8:c5:51:83
        Signature Algorithm: sha256WithRSAEncryption
        Issuer: C = US, ST = Montana, L = Bozeman, OU = Engineering, CN = www.nomatch.com, emailAddress = info@wolfssl.com
        Validity
            Not Before: Sep 26 17:22:43 2023 GMT
            Not After : Jun 22 17:22:43 2026 GMT
        Subject: C = US, ST = Montana, L = Bozeman, OU = Engineering, CN = www.nomatch.com, emailAddress = info@wolfssl.com
        Subject Public Key Info:
            Public Key Algorithm: rsaEncryption
                Public-Key: (2048 bit)
                Modulus:
                    00:c0:95:08:e1:57:41:f2:71:6d:b7:d2:45:41:27:
                    01:65:c6:45:ae:f2:bc:24:30:b8:95:ce:2f:4e:d6:
                    f6:1c:88:bc:7c:9f:fb:a8:67:7f:fe:5c:9c:51:75:
                    f7:8a:ca:07:e7:35:2f:8f:e1:bd:7b:c0:2f:7c:ab:
                    64:a8:17:fc:ca:5d:7b:ba:e0:21:e5:72:2e:6f:2e:
                    86:d8:95:73:da:ac:1b:53:b9:5f:3f:d7:19:0d:25:
                    4f:e1:63:63:51:8b:0b:64:3f:ad:43:b8:a5:1c:5c:
                    34:b3:ae:00:a0:63:c5:f6:7f:0b:59:68:78:73:a6:
                    8c:18:a9:02:6d:af:c3:19:01:2e:b8:10:e3:c6:cc:
                    40:b4:69:a3:46:33:69:87:6e:c4:bb:17:a6:f3:e8:
                    dd:ad:73:bc:7b:2f:21:b5:fd:66:51:0c:bd:54:b3:
                    e1:6d:5f:1c:bc:23:73:d1:09:03:89:14:d2:10:b9:
                    64:c3:2a:d0:a1:96:4a:bc:e1:d4:1a:5b:c7:a0:c0:
                    c1:63:78:0f:44:37:30:32:96:80:32:23:95:a1:77:
                    ba:13:d2:97:73:e2:5d:25:c9:6a:0d:c3:39:60:a4:
                    b4:b0:69:42:42:09:e9:d8:08:bc:33:20:b3:58:22:
                    a7:aa:eb:c4:e1:e6:61:83:c5:d2:96:df:d9:d0:4f:
                    ad:d7
                Exponent: 65537 (0x10001)
    Signature Algorithm: sha256WithRSAEncryption
    Signature Value:
        3d:a4:91:e8:20:7d:79:cf:09:bf:c0:e0:76:0e:fd:f6:ba:64:
        87:28:d8:82:3c:dd:39:5e:ac:26:2a:cf:f4:57:ad:7d:5b:89:
        c8:dd:32:9b:dc:74:69:54:6c:d4:3a:60:a5:39:f7:c9:45:8f:
        f9:1a:0b:13:8d:ed:74:35:fc:f2:de:37:33:28:65:2e:05:bf:
        a8:5e:5b:88:18:8f:ff:3a:b4:35:96:b2:0e:59:e4:bd:27:c1:
        e9:f0:65:14:65:ae:72:98:f7:4b:93:ec:7d:2d:01:da:93:6b:
        11:2f:19:c8:08:e2:5b:22:41:bc:bb:95:9b:09:6e:1d:9b:a1:
        0e:f2:cf:97:64:92:84:a1:7a:a9:c4:e0:a8:0a:4b:2d:26:05:
        2a:56:8e:77:20:03:f3:20:54:f4:35:8b:c9:27:7e:df:08:09:
        13:0c:d1:ac:21:00:6d:11:1d:77:8f:f6:1b:be:73:50:af:43:
        8e:d3:e1:8c:c1:53:b7:44:ca:bf:b9:b6:6d:70:78:31:3a:2a:
        2c:6e:d2:3d:ed:0d:91:37:99:f8:f5:5b:86:6d:48:02:8a:35:
        83:c2:9c:b0:e0:d3:f5:5f:b3:24:45:cf:af:ba:85:30:a4:cf:
        f7:f7:df:fb:6d:45:93:c2:8d:85:e1:85:ad:ad:94:fa:77:94:
        a2:a8:99:b8
-----BEGIN CERTIFICATE-----
MIIDjTCCAnUCFAiBbptfpe2CvD85ZLfmbiboxVGDMA0GCSqGSIb3DQEBCwUAMIGC
MQswCQYDVQQGEwJVUzEQMA4GA1UECAwHTW9udGFuYTEQMA4GA1UEBwwHQm96ZW1h
bjEUMBIGA1UECwwLRW5naW5lZXJpbmcxGDAWBgNVBAMMD3d3dy5ub21hdGNoLmNv
bTEfMB0GCSqGSIb3DQEJARYQaW5mb0B3b2xmc3NsLmNvbTAeFw0yMzA5MjYxNzIy
NDNaFw0yNjA2MjIxNzIyNDNaMIGCMQswCQYDVQQGEwJVUzEQMA4GA1UECAwHTW9u
dGFuYTEQMA4GA1UEBwwHQm96ZW1hbjEUMBIGA1UECwwLRW5naW5lZXJpbmcxGDAW
BgNVBAMMD3d3dy5ub21hdGNoLmNvbTEfMB0GCSqGSIb3DQEJARYQaW5mb0B3b2xm
c3NsLmNvbTCCASIwDQYJKoZIhvcNAQEBBQADggEPADCCAQoCggEBAMCVCOFXQfJx
bbfSRUEnAWXGRa7yvCQwuJXOL07W9hyIvHyf+6hnf/5cnFF194rKB+c1L4/hvXvA
L3yrZKgX/Mpde7rgIeVyLm8uhtiVc9qsG1O5Xz/XGQ0lT+FjY1GLC2Q/rUO4pRxc
NLOuAKBjxfZ/C1loeHOmjBipAm2vwxkBLrgQ48bMQLRpo0YzaYduxLsXpvPo3a1z
vHsvIbX9ZlEMvVSz4W1fHLwjc9EJA4kU0hC5ZMMq0KGWSrzh1Bpbx6DAwWN4D0Q3
MDKWgDIjlaF3uhPSl3PiXSXJag3DOWCktLBpQkIJ6dgIvDMgs1gip6rrxOHmYYPF
0pbf2dBPrdcCAwEAATANBgkqhkiG9w0BAQsFAAOCAQEAPaSR6CB9ec8Jv8Dgdg79
9rpkhyjYgjzdOV6sJirP9FetfVuJyN0ym9x0aVRs1DpgpTn3yUWP+RoLE43tdDX8
8t43MyhlLgW/qF5biBiP/zq0NZayDlnkvSfB6fBlFGWucpj3S5PsfS0B2pNrES8Z
yAjiWyJBvLuVmwluHZuhDvLPl2SShKF6qcTgqApLLSYFKlaOdyAD8yBU9DWLySd+
3wgJEwzRrCEAbREdd4/2G75zUK9DjtPhjMFTt0TKv7m2bXB4MToqLG7SPe0NkTeZ
+PVbhm1IAoo1g8KcsODT9V+zJEXPr7qFMKTP9/ff+21Fk8KNheGFra2U+neUoqiZ
uA==
-----END CERTIFICATE-----
