Certificate:
    Data:
        Version: 3 (0x2)
        Serial Number:
            24:cb:51:55:1d:90:15:77:b5:32:b7:bf:a3:49:33:10:da:e0:c0:eb
        Signature Algorithm: sha256WithRSAEncryption
        Issuer: C = US, ST = Montana, L = Bozeman, OU = Engineering, CN = localhost, emailAddress = info@wolfssl.com
        Validity
            Not Before: Dec 18 21:25:31 2024 GMT
            Not After : Sep 14 21:25:31 2027 GMT
        Subject: C = US, ST = Montana, L = Bozeman, OU = Engineering, CN = localhost, emailAddress = info@wolfssl.com
        Subject Public Key Info:
            Public Key Algorithm: rsaEncryption
                Public-Key: (2048 bit)
                Modulus:
                    00:c0:95:08:e1:57:41:f2:71:6d:b7:d2:45:41:27:
                    01:65:c6:45:ae:f2:bc:24:30:b8:95:ce:2f:4e:d6:
                    f6:1c:88:bc:7c:9f:fb:a8:67:7f:fe:5c:9c:51:75:
                    f7:8a:ca:07:e7:35:2f:8f:e1:bd:7b:c0:2f:7c:ab:
                    64:a8:17:fc:ca:5d:7b:ba:e0:21:e5:72:2e:6f:2e:
                    86:d8:95:73:da:ac:1b:53:b9:5f:3f:d7:19:0d:25:
                    4f:e1:63:63:51:8b:0b:64:3f:ad:43:b8:a5:1c:5c:
                    34:b3:ae:00:a0:63:c5:f6:7f:0b:59:68:78:73:a6:
                    8c:18:a9:02:6d:af:c3:19:01:2e:b8:10:e3:c6:cc:
                    40:b4:69:a3:46:33:69:87:6e:c4:bb:17:a6:f3:e8:
                    dd:ad:73:bc:7b:2f:21:b5:fd:66:51:0c:bd:54:b3:
                    e1:6d:5f:1c:bc:23:73:d1:09:03:89:14:d2:10:b9:
                    64:c3:2a:d0:a1:96:4a:bc:e1:d4:1a:5b:c7:a0:c0:
                    c1:63:78:0f:44:37:30:32:96:80:32:23:95:a1:77:
                    ba:13:d2:97:73:e2:5d:25:c9:6a:0d:c3:39:60:a4:
                    b4:b0:69:42:42:09:e9:d8:08:bc:33:20:b3:58:22:
                    a7:aa:eb:c4:e1:e6:61:83:c5:d2:96:df:d9:d0:4f:
                    ad:d7
                Exponent: 65537 (0x10001)
        X509v3 extensions:
            X509v3 Subject Alternative Name: 
                DNS:localhost
            X509v3 Subject Key Identifier: 
                B3:11:32:C9:92:98:84:E2:C9:F8:D0:3B:6E:03:42:CA:1F:0E:8E:3C
    Signature Algorithm: sha256WithRSAEncryption
    Signature Value:
        bf:66:23:d9:47:91:2d:de:23:99:2d:55:5c:52:0e:b1:54:fa:
        40:b1:7d:f7:ec:e2:26:0d:99:dd:b9:e0:d4:8a:d9:9a:b0:38:
        10:e5:fa:4b:6b:7f:b7:2c:d8:24:bb:df:99:b9:e5:3c:19:e9:
        bb:07:7d:35:4f:b2:eb:a3:09:83:4b:b0:24:73:61:07:f5:61:
        1c:17:0b:7b:80:7f:c6:6f:2c:e0:7d:87:ef:d5:25:df:fb:12:
        2b:50:17:e1:e5:b0:3e:51:c8:16:5c:f1:79:d0:c3:0b:a4:38:
        a8:fb:e1:57:82:88:c0:ce:90:99:48:b6:45:d1:c7:a2:d8:09:
        e4:0b:27:a2:88:85:c2:c3:0c:a3:02:6f:d6:24:49:6a:36:a7:
        9a:01:df:7f:14:75:85:11:ce:6d:83:24:b4:45:1b:d8:ce:18:
        c5:a1:8a:0b:93:dc:24:c5:68:55:45:09:85:45:7d:d4:55:13:
        a6:61:2d:c3:e8:4d:49:ee:fb:ac:97:8b:6a:7a:9a:76:ee:12:
        83:3d:f5:f8:a3:97:3e:7e:63:55:dd:f1:10:72:f0:64:e8:e7:
        46:d9:02:8b:f8:a3:41:b9:f1:80:c5:80:56:b9:16:f6:20:47:
        dc:15:03:c4:64:34:49:a2:20:05:05:cd:68:84:75:a2:8f:1a:
        b1:6e:bc:ce
-----BEGIN CERTIFICATE-----
MIIDvTCCAqWgAwIBAgIUJMtRVR2QFXe1Mre/o0kzENrgwOswDQYJKoZIhvcNAQEL
BQAwfDELMAkGA1UEBhMCVVMxEDAOBgNVBAgMB01vbnRhbmExEDAOBgNVBAcMB0Jv
emVtYW4xFDASBgNVBAsMC0VuZ2luZWVyaW5nMRIwEAYDVQQDDAlsb2NhbGhvc3Qx
HzAdBgkqhkiG9w0BCQEWEGluZm9Ad29sZnNzbC5jb20wHhcNMjQxMjE4MjEyNTMx
WhcNMjcwOTE0MjEyNTMxWjB8MQswCQYDVQQGEwJVUzEQMA4GA1UECAwHTW9udGFu
YTEQMA4GA1UEBwwHQm96ZW1hbjEUMBIGA1UECwwLRW5naW5lZXJpbmcxEjAQBgNV
BAMMCWxvY2FsaG9zdDEfMB0GCSqGSIb3DQEJARYQaW5mb0B3b2xmc3NsLmNvbTCC
ASIwDQYJKoZIhvcNAQEBBQADggEPADCCAQoCggEBAMCVCOFXQfJxbbfSRUEnAWXG
Ra7yvCQwuJXOL07W9hyIvHyf+6hnf/5cnFF194rKB+c1L4/hvXvAL3yrZKgX/Mpd
e7rgIeVyLm8uhtiVc9qsG1O5Xz/XGQ0lT+FjY1GLC2Q/rUO4pRxcNLOuAKBjxfZ/
C1loeHOmjBipAm2vwxkBLrgQ48bMQLRpo0YzaYduxLsXpvPo3a1zvHsvIbX9ZlEM
vVSz4W1fHLwjc9EJA4kU0hC5ZMMq0KGWSrzh1Bpbx6DAwWN4D0Q3MDKWgDIjlaF3
uhPSl3PiXSXJag3DOWCktLBpQkIJ6dgIvDMgs1gip6rrxOHmYYPF0pbf2dBPrdcC
AwEAAaM3MDUwFAYDVR0RBA0wC4IJbG9jYWxob3N0MB0GA1UdDgQWBBSzETLJkpiE
4sn40DtuA0LKHw6OPDANBgkqhkiG9w0BAQsFAAOCAQEAv2Yj2UeRLd4jmS1VXFIO
sVT6QLF99+ziJg2Z3bng1IrZmrA4EOX6S2t/tyzYJLvfmbnlPBnpuwd9NU+y66MJ
g0uwJHNhB/VhHBcLe4B/xm8s4H2H79Ul3/sSK1AX4eWwPlHIFlzxedDDC6Q4qPvh
V4KIwM6QmUi2RdHHotgJ5AsnooiFwsMMowJv1iRJajanmgHffxR1hRHObYMktEUb
2M4YxaGKC5PcJMVoVUUJhUV91FUTpmEtw+hNSe77rJeLanqadu4Sgz31+KOXPn5j
Vd3xEHLwZOjnRtkCi/ijQbnxgMWAVrkW9iBH3BUDxGQ0SaIgBQXNaIR1oo8asW68
zg==
-----END CERTIFICATE-----
