Certificate:
    Data:
        Version: 3 (0x2)
        Serial Number:
            2e:ec:3d:cb:75:f8:c8:d1:48:8f:c3:b8:7f:0c:d9:ec:1c:e4:77:3c
        Signature Algorithm: sha256WithRSAEncryption
        Issuer: C = US, ST = Montana, L = Bozeman, OU = Engineering, CN = www.nomatch.com, emailAddress = info@wolfssl.com
        Validity
            Not Before: Dec 18 21:25:31 2024 GMT
            Not After : Sep 14 21:25:31 2027 GMT
        Subject: C = US, ST = Montana, L = Bozeman, OU = Engineering, CN = www.nomatch.com, emailAddress = info@wolfssl.com
        Subject Public Key Info:
            Public Key Algorithm: rsaEncryption
                Public-Key: (2048 bit)
                Modulus:
                    00:c0:95:08:e1:57:41:f2:71:6d:b7:d2:45:41:27:
                    01:65:c6:45:ae:f2:bc:24:30:b8:95:ce:2f:4e:d6:
                    f6:1c:88:bc:7c:9f:fb:a8:67:7f:fe:5c:9c:51:75:
                    f7:8a:ca:07:e7:35:2f:8f:e1:bd:7b:c0:2f:7c:ab:
                    64:a8:17:fc:ca:5d:7b:ba:e0:21:e5:72:2e:6f:2e:
                    86:d8:95:73:da:ac:1b:53:b9:5f:3f:d7:19:0d:25:
                    4f:e1:63:63:51:8b:0b:64:3f:ad:43:b8:a5:1c:5c:
                    34:b3:ae:00:a0:63:c5:f6:7f:0b:59:68:78:73:a6:
                    8c:18:a9:02:6d:af:c3:19:01:2e:b8:10:e3:c6:cc:
                    40:b4:69:a3:46:33:69:87:6e:c4:bb:17:a6:f3:e8:
                    dd:ad:73:bc:7b:2f:21:b5:fd:66:51:0c:bd:54:b3:
                    e1:6d:5f:1c:bc:23:73:d1:09:03:89:14:d2:10:b9:
                    64:c3:2a:d0:a1:96:4a:bc:e1:d4:1a:5b:c7:a0:c0:
                    c1:63:78:0f:44:37:30:32:96:80:32:23:95:a1:77:
                    ba:13:d2:97:73:e2:5d:25:c9:6a:0d:c3:39:60:a4:
                    b4:b0:69:42:42:09:e9:d8:08:bc:33:20:b3:58:22:
                    a7:aa:eb:c4:e1:e6:61:83:c5:d2:96:df:d9:d0:4f:
                    ad:d7
                Exponent: 65537 (0x10001)
        X509v3 extensions:
            X509v3 Subject Alternative Name: 
                0..localhost.h
            X509v3 Subject Key Identifier: 
                B3:11:32:C9:92:98:84:E2:C9:F8:D0:3B:6E:03:42:CA:1F:0E:8E:3C
    Signature Algorithm: sha256WithRSAEncryption
    Signature Value:
        67:9d:5e:c0:46:4f:57:f0:29:7f:6d:0c:df:9e:7a:51:a0:28:
        79:03:b2:e8:39:3f:03:9e:d8:73:dd:56:78:bd:66:1d:c0:7b:
        63:b5:da:06:86:4e:7e:94:cd:55:84:2d:14:28:9e:e2:48:5b:
        1a:ac:b3:a4:78:56:57:08:44:c2:c6:1f:e1:6c:f9:6a:3c:cc:
        d0:5e:63:7e:4e:8b:95:17:48:c1:80:73:2b:d4:91:aa:39:1e:
        97:9f:20:ad:50:3a:51:66:c3:67:da:5a:3e:7e:7b:20:21:b3:
        09:d5:4f:42:50:28:a4:17:20:e1:62:55:3e:dd:a6:fb:38:1e:
        32:46:54:0e:ad:20:a5:1f:32:38:6a:82:13:b4:6b:ec:79:99:
        46:05:54:e2:db:c4:c4:a3:41:ed:62:c8:3e:28:ec:14:fc:b2:
        33:b6:a7:ae:db:c7:b3:51:ba:24:1e:dd:1b:de:e3:a0:f0:af:
        66:29:00:3a:0d:b5:2e:45:15:fc:0f:14:36:06:34:ad:20:e3:
        9b:de:91:63:fe:ba:98:61:87:37:65:17:90:12:2d:b0:0f:23:
        1c:91:c9:98:ea:e8:0d:c6:85:c1:cb:d9:e8:c1:ff:cb:0b:34:
        3b:0a:16:7b:c8:87:3f:3c:a8:5f:fe:9e:af:71:88:5d:cd:6c:
        af:29:8b:ad
-----BEGIN CERTIFICATE-----
MIIDzTCCArWgAwIBAgIULuw9y3X4yNFIj8O4fwzZ7BzkdzwwDQYJKoZIhvcNAQEL
BQAwgYIxCzAJBgNVBAYTAlVTMRAwDgYDVQQIDAdNb250YW5hMRAwDgYDVQQHDAdC
b3plbWFuMRQwEgYDVQQLDAtFbmdpbmVlcmluZzEYMBYGA1UEAwwPd3d3Lm5vbWF0
Y2guY29tMR8wHQYJKoZIhvcNAQkBFhBpbmZvQHdvbGZzc2wuY29tMB4XDTI0MTIx
ODIxMjUzMVoXDTI3MDkxNDIxMjUzMVowgYIxCzAJBgNVBAYTAlVTMRAwDgYDVQQI
DAdNb250YW5hMRAwDgYDVQQHDAdCb3plbWFuMRQwEgYDVQQLDAtFbmdpbmVlcmlu
ZzEYMBYGA1UEAwwPd3d3Lm5vbWF0Y2guY29tMR8wHQYJKoZIhvcNAQkBFhBpbmZv
QHdvbGZzc2wuY29tMIIBIjANBgkqhkiG9w0BAQEFAAOCAQ8AMIIBCgKCAQEAwJUI
4VdB8nFtt9JFQScBZcZFrvK8JDC4lc4vTtb2HIi8fJ/7qGd//lycUXX3isoH5zUv
j+G9e8AvfKtkqBf8yl17uuAh5XIuby6G2JVz2qwbU7lfP9cZDSVP4WNjUYsLZD+t
Q7ilHFw0s64AoGPF9n8LWWh4c6aMGKkCba/DGQEuuBDjxsxAtGmjRjNph27Euxem
8+jdrXO8ey8htf1mUQy9VLPhbV8cvCNz0QkDiRTSELlkwyrQoZZKvOHUGlvHoMDB
Y3gPRDcwMpaAMiOVoXe6E9KXc+JdJclqDcM5YKS0sGlCQgnp2Ai8MyCzWCKnquvE
4eZhg8XSlt/Z0E+t1wIDAQABozkwNzAWBgNVHREEDzANggtsb2NhbGhvc3QAaDAd
BgNVHQ4EFgQUsxEyyZKYhOLJ+NA7bgNCyh8OjjwwDQYJKoZIhvcNAQELBQADggEB
AGedXsBGT1fwKX9tDN+eelGgKHkDsug5PwOe2HPdVni9Zh3Ae2O12gaGTn6UzVWE
LRQonuJIWxqss6R4VlcIRMLGH+Fs+Wo8zNBeY35Oi5UXSMGAcyvUkao5HpefIK1Q
OlFmw2faWj5+eyAhswnVT0JQKKQXIOFiVT7dpvs4HjJGVA6tIKUfMjhqghO0a+x5
mUYFVOLbxMSjQe1iyD4o7BT8sjO2p67bx7NRuiQe3Rve46Dwr2YpADoNtS5FFfwP
FDYGNK0g45vekWP+uphhhzdlF5ASLbAPIxyRyZjq6A3GhcHL2ejB/8sLNDsKFnvI
hz88qF/+nq9xiF3NbK8pi60=
-----END CERTIFICATE-----
