Certificate:
    Data:
        Version: 3 (0x2)
        Serial Number: 16413372648738711447 (0xe3c80376562ee797)
    Signature Algorithm: sha1WithRSAEncryption
        Issuer: C=US, ST=Montana, L=Bozeman, OU=Engineering, CN=www.nomatch.com/emailAddress=info@wolfssl.com
        Validity
            Not Before: Jun 12 21:08:33 2018 GMT
            Not After : Mar  8 21:08:33 2021 GMT
        Subject: C=US, ST=Montana, L=Bozeman, OU=Engineering, CN=www.nomatch.com/emailAddress=info@wolfssl.com
        Subject Public Key Info:
            Public Key Algorithm: rsaEncryption
                Public-Key: (2048 bit)
                Modulus:
                    00:c0:95:08:e1:57:41:f2:71:6d:b7:d2:45:41:27:
                    01:65:c6:45:ae:f2:bc:24:30:b8:95:ce:2f:4e:d6:
                    f6:1c:88:bc:7c:9f:fb:a8:67:7f:fe:5c:9c:51:75:
                    f7:8a:ca:07:e7:35:2f:8f:e1:bd:7b:c0:2f:7c:ab:
                    64:a8:17:fc:ca:5d:7b:ba:e0:21:e5:72:2e:6f:2e:
                    86:d8:95:73:da:ac:1b:53:b9:5f:3f:d7:19:0d:25:
                    4f:e1:63:63:51:8b:0b:64:3f:ad:43:b8:a5:1c:5c:
                    34:b3:ae:00:a0:63:c5:f6:7f:0b:59:68:78:73:a6:
                    8c:18:a9:02:6d:af:c3:19:01:2e:b8:10:e3:c6:cc:
                    40:b4:69:a3:46:33:69:87:6e:c4:bb:17:a6:f3:e8:
                    dd:ad:73:bc:7b:2f:21:b5:fd:66:51:0c:bd:54:b3:
                    e1:6d:5f:1c:bc:23:73:d1:09:03:89:14:d2:10:b9:
                    64:c3:2a:d0:a1:96:4a:bc:e1:d4:1a:5b:c7:a0:c0:
                    c1:63:78:0f:44:37:30:32:96:80:32:23:95:a1:77:
                    ba:13:d2:97:73:e2:5d:25:c9:6a:0d:c3:39:60:a4:
                    b4:b0:69:42:42:09:e9:d8:08:bc:33:20:b3:58:22:
                    a7:aa:eb:c4:e1:e6:61:83:c5:d2:96:df:d9:d0:4f:
                    ad:d7
                Exponent: 65537 (0x10001)
        X509v3 extensions:
            X509v3 Subject Alternative Name: 
                DNS:localhost
    Signature Algorithm: sha1WithRSAEncryption
         2e:5d:bf:5a:4a:16:d7:4e:d1:9d:18:07:6c:9a:b5:c3:9c:1c:
         a3:75:7b:6c:91:ab:81:d8:f3:39:b9:81:22:5a:ae:ac:6f:47:
         7a:5b:79:6c:17:a7:32:7f:ae:8b:60:1c:e9:2e:fc:2d:be:42:
         e8:60:a7:d9:49:d4:71:2a:32:86:0f:14:b1:47:21:97:7a:0f:
         89:e8:60:68:2b:22:22:95:ff:34:4e:42:7c:01:d5:6f:84:58:
         57:bc:1b:85:f1:bb:a9:88:f7:d1:73:3f:b9:5e:fc:f7:28:be:
         92:34:29:68:08:17:64:8d:3e:da:7a:b5:37:eb:e1:7a:fa:7a:
         bf:d7:52:97:c6:75:3b:a1:6b:6d:8c:20:ff:38:14:24:e5:69:
         39:69:a8:28:91:26:43:12:e9:1b:90:01:e4:e3:1d:dc:b4:05:
         c7:6e:00:27:d0:21:da:0a:2c:a6:82:c0:72:d6:4d:e2:9c:9b:
         12:ea:b6:cf:20:e1:e1:0f:44:52:6c:e8:8f:7f:a6:40:28:27:
         68:c5:46:b9:f5:3e:ee:0e:e5:16:92:e7:b0:e6:2f:2c:fc:77:
         20:98:89:0d:53:c4:92:7b:cd:10:a6:15:74:4a:f8:ac:76:c2:
         7d:7f:85:b2:d5:2c:01:9b:44:a0:aa:07:29:73:2e:5b:bd:c2:
         c0:f5:e5:c1
-----BEGIN CERTIFICATE-----
MIIDozCCAougAwIBAgIJAOPIA3ZWLueXMA0GCSqGSIb3DQEBBQUAMIGCMQswCQYD
VQQGEwJVUzEQMA4GA1UECAwHTW9udGFuYTEQMA4GA1UEBwwHQm96ZW1hbjEUMBIG
A1UECwwLRW5naW5lZXJpbmcxGDAWBgNVBAMMD3d3dy5ub21hdGNoLmNvbTEfMB0G
CSqGSIb3DQEJARYQaW5mb0B3b2xmc3NsLmNvbTAeFw0xODA2MTIyMTA4MzNaFw0y
MTAzMDgyMTA4MzNaMIGCMQswCQYDVQQGEwJVUzEQMA4GA1UECAwHTW9udGFuYTEQ
MA4GA1UEBwwHQm96ZW1hbjEUMBIGA1UECwwLRW5naW5lZXJpbmcxGDAWBgNVBAMM
D3d3dy5ub21hdGNoLmNvbTEfMB0GCSqGSIb3DQEJARYQaW5mb0B3b2xmc3NsLmNv
bTCCASIwDQYJKoZIhvcNAQEBBQADggEPADCCAQoCggEBAMCVCOFXQfJxbbfSRUEn
AWXGRa7yvCQwuJXOL07W9hyIvHyf+6hnf/5cnFF194rKB+c1L4/hvXvAL3yrZKgX
/Mpde7rgIeVyLm8uhtiVc9qsG1O5Xz/XGQ0lT+FjY1GLC2Q/rUO4pRxcNLOuAKBj
xfZ/C1loeHOmjBipAm2vwxkBLrgQ48bMQLRpo0YzaYduxLsXpvPo3a1zvHsvIbX9
ZlEMvVSz4W1fHLwjc9EJA4kU0hC5ZMMq0KGWSrzh1Bpbx6DAwWN4D0Q3MDKWgDIj
laF3uhPSl3PiXSXJag3DOWCktLBpQkIJ6dgIvDMgs1gip6rrxOHmYYPF0pbf2dBP
rdcCAwEAAaMaMBgwFgYDVR0RBA8wDYILbG9jYWxob3N0AGgwDQYJKoZIhvcNAQEF
BQADggEBAC5dv1pKFtdO0Z0YB2yatcOcHKN1e2yRq4HY8zm5gSJarqxvR3pbeWwX
pzJ/rotgHOku/C2+Quhgp9lJ1HEqMoYPFLFHIZd6D4noYGgrIiKV/zROQnwB1W+E
WFe8G4Xxu6mI99FzP7le/PcovpI0KWgIF2SNPtp6tTfr4Xr6er/XUpfGdTuha22M
IP84FCTlaTlpqCiRJkMS6RuQAeTjHdy0BcduACfQIdoKLKaCwHLWTeKcmxLqts8g
4eEPRFJs6I9/pkAoJ2jFRrn1Pu4O5RaS57DmLyz8dyCYiQ1TxJJ7zRCmFXRK+Kx2
wn1/hbLVLAGbRKCqBylzLlu9wsD15cE=
-----END CERTIFICATE-----
