Certificate:
    Data:
        Version: 3 (0x2)
        Serial Number:
            32:31:fc:d6:4a:77:2b:3b:c9:07:02:ae:b4:e7:b7:d3:a4:61:56:2b
        Signature Algorithm: sha256WithRSAEncryption
        Issuer: C = US, ST = Montana, L = Bozeman, OU = Engineering, CN = localhost, emailAddress = info@wolfssl.com
        Validity
            Not Before: Dec 13 22:19:29 2023 GMT
            Not After : Sep  8 22:19:29 2026 GMT
        Subject: C = US, ST = Montana, L = Bozeman, OU = Engineering, CN = localhost, emailAddress = info@wolfssl.com
        Subject Public Key Info:
            Public Key Algorithm: rsaEncryption
                RSA Public-Key: (2048 bit)
                Modulus:
                    00:c0:95:08:e1:57:41:f2:71:6d:b7:d2:45:41:27:
                    01:65:c6:45:ae:f2:bc:24:30:b8:95:ce:2f:4e:d6:
                    f6:1c:88:bc:7c:9f:fb:a8:67:7f:fe:5c:9c:51:75:
                    f7:8a:ca:07:e7:35:2f:8f:e1:bd:7b:c0:2f:7c:ab:
                    64:a8:17:fc:ca:5d:7b:ba:e0:21:e5:72:2e:6f:2e:
                    86:d8:95:73:da:ac:1b:53:b9:5f:3f:d7:19:0d:25:
                    4f:e1:63:63:51:8b:0b:64:3f:ad:43:b8:a5:1c:5c:
                    34:b3:ae:00:a0:63:c5:f6:7f:0b:59:68:78:73:a6:
                    8c:18:a9:02:6d:af:c3:19:01:2e:b8:10:e3:c6:cc:
                    40:b4:69:a3:46:33:69:87:6e:c4:bb:17:a6:f3:e8:
                    dd:ad:73:bc:7b:2f:21:b5:fd:66:51:0c:bd:54:b3:
                    e1:6d:5f:1c:bc:23:73:d1:09:03:89:14:d2:10:b9:
                    64:c3:2a:d0:a1:96:4a:bc:e1:d4:1a:5b:c7:a0:c0:
                    c1:63:78:0f:44:37:30:32:96:80:32:23:95:a1:77:
                    ba:13:d2:97:73:e2:5d:25:c9:6a:0d:c3:39:60:a4:
                    b4:b0:69:42:42:09:e9:d8:08:bc:33:20:b3:58:22:
                    a7:aa:eb:c4:e1:e6:61:83:c5:d2:96:df:d9:d0:4f:
                    ad:d7
                Exponent: 65537 (0x10001)
        X509v3 extensions:
            X509v3 Subject Alternative Name: 
                DNS:localhost
    Signature Algorithm: sha256WithRSAEncryption
         af:7a:bb:f0:b6:1e:12:8a:60:ec:c8:91:34:a3:d3:80:92:f3:
         bc:c7:37:e9:96:75:a8:67:a0:94:b9:2a:df:81:02:23:28:6a:
         72:de:81:03:33:88:1b:60:75:16:77:dc:72:40:3e:d9:d8:ab:
         6f:3e:99:7a:7c:db:37:13:40:b6:4d:82:47:7c:75:7a:6f:9d:
         ca:89:54:8c:17:15:9a:80:9a:7c:b5:e3:4b:7e:74:fd:2f:28:
         98:79:f5:56:96:d6:5c:9c:b4:94:62:32:d2:31:1b:53:5c:71:
         be:45:37:69:9f:e4:07:87:fa:d7:a7:63:bc:5c:8a:5c:71:9c:
         31:25:d8:93:ae:cf:db:98:50:e5:52:58:de:44:f7:4f:7e:4a:
         a9:9c:ac:0a:84:03:ba:c4:46:e4:83:00:e6:dd:a5:33:43:e9:
         5d:ea:fc:89:85:10:57:d0:0e:5e:43:13:72:60:ec:bb:5c:e9:
         c3:ca:52:2d:06:e6:5b:d5:fd:e9:30:e0:da:80:78:b2:a1:a7:
         84:ed:c0:e4:f9:f7:6d:94:a5:aa:6b:84:b1:7e:85:45:12:4c:
         8d:52:91:5d:d1:e6:d7:32:0a:97:22:59:80:db:9d:de:68:90:
         bd:a7:d0:9c:11:60:86:8c:89:8a:e1:19:75:09:e8:78:bb:23:
         47:68:23:3c
-----BEGIN CERTIFICATE-----
MIIDnjCCAoagAwIBAgIUMjH81kp3KzvJBwKutOe306RhViswDQYJKoZIhvcNAQEL
BQAwfDELMAkGA1UEBhMCVVMxEDAOBgNVBAgMB01vbnRhbmExEDAOBgNVBAcMB0Jv
emVtYW4xFDASBgNVBAsMC0VuZ2luZWVyaW5nMRIwEAYDVQQDDAlsb2NhbGhvc3Qx
HzAdBgkqhkiG9w0BCQEWEGluZm9Ad29sZnNzbC5jb20wHhcNMjMxMjEzMjIxOTI5
WhcNMjYwOTA4MjIxOTI5WjB8MQswCQYDVQQGEwJVUzEQMA4GA1UECAwHTW9udGFu
YTEQMA4GA1UEBwwHQm96ZW1hbjEUMBIGA1UECwwLRW5naW5lZXJpbmcxEjAQBgNV
BAMMCWxvY2FsaG9zdDEfMB0GCSqGSIb3DQEJARYQaW5mb0B3b2xmc3NsLmNvbTCC
ASIwDQYJKoZIhvcNAQEBBQADggEPADCCAQoCggEBAMCVCOFXQfJxbbfSRUEnAWXG
Ra7yvCQwuJXOL07W9hyIvHyf+6hnf/5cnFF194rKB+c1L4/hvXvAL3yrZKgX/Mpd
e7rgIeVyLm8uhtiVc9qsG1O5Xz/XGQ0lT+FjY1GLC2Q/rUO4pRxcNLOuAKBjxfZ/
C1loeHOmjBipAm2vwxkBLrgQ48bMQLRpo0YzaYduxLsXpvPo3a1zvHsvIbX9ZlEM
vVSz4W1fHLwjc9EJA4kU0hC5ZMMq0KGWSrzh1Bpbx6DAwWN4D0Q3MDKWgDIjlaF3
uhPSl3PiXSXJag3DOWCktLBpQkIJ6dgIvDMgs1gip6rrxOHmYYPF0pbf2dBPrdcC
AwEAAaMYMBYwFAYDVR0RBA0wC4IJbG9jYWxob3N0MA0GCSqGSIb3DQEBCwUAA4IB
AQCvervwth4SimDsyJE0o9OAkvO8xzfplnWoZ6CUuSrfgQIjKGpy3oEDM4gbYHUW
d9xyQD7Z2KtvPpl6fNs3E0C2TYJHfHV6b53KiVSMFxWagJp8teNLfnT9LyiYefVW
ltZcnLSUYjLSMRtTXHG+RTdpn+QHh/rXp2O8XIpccZwxJdiTrs/bmFDlUljeRPdP
fkqpnKwKhAO6xEbkgwDm3aUzQ+ld6vyJhRBX0A5eQxNyYOy7XOnDylItBuZb1f3p
MODagHiyoaeE7cDk+fdtlKWqa4SxfoVFEkyNUpFd0ebXMgqXIlmA253eaJC9p9Cc
EWCGjImK4Rl1Ceh4uyNHaCM8
-----END CERTIFICATE-----
