Certificate:
    Data:
        Version: 3 (0x2)
        Serial Number:
            7f:cb:3b:dc:1c:06:6f:80:88:7d:16:f3:61:40:65:f2:d3:75:b0:08
        Signature Algorithm: sha256WithRSAEncryption
        Issuer: C = US, ST = Montana, L = Bozeman, OU = Engineering, CN = www.nomatch.com, emailAddress = info@wolfssl.com
        Validity
            Not Before: Feb 15 12:50:25 2022 GMT
            Not After : Nov 11 12:50:25 2024 GMT
        Subject: C = US, ST = Montana, L = Bozeman, OU = Engineering, CN = www.nomatch.com, emailAddress = info@wolfssl.com
        Subject Public Key Info:
            Public Key Algorithm: rsaEncryption
                RSA Public-Key: (2048 bit)
                Modulus:
                    00:c0:95:08:e1:57:41:f2:71:6d:b7:d2:45:41:27:
                    01:65:c6:45:ae:f2:bc:24:30:b8:95:ce:2f:4e:d6:
                    f6:1c:88:bc:7c:9f:fb:a8:67:7f:fe:5c:9c:51:75:
                    f7:8a:ca:07:e7:35:2f:8f:e1:bd:7b:c0:2f:7c:ab:
                    64:a8:17:fc:ca:5d:7b:ba:e0:21:e5:72:2e:6f:2e:
                    86:d8:95:73:da:ac:1b:53:b9:5f:3f:d7:19:0d:25:
                    4f:e1:63:63:51:8b:0b:64:3f:ad:43:b8:a5:1c:5c:
                    34:b3:ae:00:a0:63:c5:f6:7f:0b:59:68:78:73:a6:
                    8c:18:a9:02:6d:af:c3:19:01:2e:b8:10:e3:c6:cc:
                    40:b4:69:a3:46:33:69:87:6e:c4:bb:17:a6:f3:e8:
                    dd:ad:73:bc:7b:2f:21:b5:fd:66:51:0c:bd:54:b3:
                    e1:6d:5f:1c:bc:23:73:d1:09:03:89:14:d2:10:b9:
                    64:c3:2a:d0:a1:96:4a:bc:e1:d4:1a:5b:c7:a0:c0:
                    c1:63:78:0f:44:37:30:32:96:80:32:23:95:a1:77:
                    ba:13:d2:97:73:e2:5d:25:c9:6a:0d:c3:39:60:a4:
                    b4:b0:69:42:42:09:e9:d8:08:bc:33:20:b3:58:22:
                    a7:aa:eb:c4:e1:e6:61:83:c5:d2:96:df:d9:d0:4f:
                    ad:d7
                Exponent: 65537 (0x10001)
        X509v3 extensions:
            X509v3 Subject Alternative Name: 
                DNS:DER:30:0d:82:0b:6c:6f:63:61:6c:68:6f:73:74:00:68
    Signature Algorithm: sha256WithRSAEncryption
         0e:5c:0e:b5:33:15:0f:86:23:f2:3e:5b:e8:ae:ae:cb:17:b4:
         7a:3b:f0:eb:df:75:70:f8:82:ab:d9:2f:3b:27:46:20:38:71:
         eb:4a:b1:f6:19:26:b7:1e:82:f6:bd:f1:f8:6a:a8:6f:1e:81:
         81:5c:ab:23:fb:58:59:91:67:6b:fb:e9:c4:71:61:a0:73:dd:
         a1:73:07:37:da:31:d8:00:7c:8f:86:c7:e8:73:80:d7:d3:b7:
         38:65:aa:4d:8f:25:0d:b0:2d:bf:17:77:9d:70:9d:f9:8a:ec:
         df:ee:e5:67:f5:60:30:ff:9d:1a:bf:d4:fd:b3:b8:eb:57:28:
         34:44:ea:5c:3b:30:13:0b:ef:6d:2b:15:9e:fb:f7:d6:60:f1:
         a5:11:c6:93:46:9c:53:fb:5c:6f:fb:cd:33:3d:2e:cb:44:b3:
         21:5c:de:4f:05:a8:89:75:ab:0a:57:e6:6d:03:ee:79:80:dc:
         cc:8c:06:e3:42:09:18:5e:a4:e8:55:79:15:75:88:9c:1e:0d:
         e4:a3:83:83:bb:24:3c:2c:6b:62:84:58:9d:7f:b6:28:48:90:
         e1:d5:14:e5:46:a0:44:35:ae:01:22:69:35:4f:74:46:a3:0b:
         80:5a:e9:fd:1d:db:c0:ef:cd:b0:47:59:a4:82:d0:43:3d:50:
         6d:52:7e:4c
-----BEGIN CERTIFICATE-----
MIID0zCCArugAwIBAgIUf8s73BwGb4CIfRbzYUBl8tN1sAgwDQYJKoZIhvcNAQEL
BQAwgYIxCzAJBgNVBAYTAlVTMRAwDgYDVQQIDAdNb250YW5hMRAwDgYDVQQHDAdC
b3plbWFuMRQwEgYDVQQLDAtFbmdpbmVlcmluZzEYMBYGA1UEAwwPd3d3Lm5vbWF0
Y2guY29tMR8wHQYJKoZIhvcNAQkBFhBpbmZvQHdvbGZzc2wuY29tMB4XDTIyMDIx
NTEyNTAyNVoXDTI0MTExMTEyNTAyNVowgYIxCzAJBgNVBAYTAlVTMRAwDgYDVQQI
DAdNb250YW5hMRAwDgYDVQQHDAdCb3plbWFuMRQwEgYDVQQLDAtFbmdpbmVlcmlu
ZzEYMBYGA1UEAwwPd3d3Lm5vbWF0Y2guY29tMR8wHQYJKoZIhvcNAQkBFhBpbmZv
QHdvbGZzc2wuY29tMIIBIjANBgkqhkiG9w0BAQEFAAOCAQ8AMIIBCgKCAQEAwJUI
4VdB8nFtt9JFQScBZcZFrvK8JDC4lc4vTtb2HIi8fJ/7qGd//lycUXX3isoH5zUv
j+G9e8AvfKtkqBf8yl17uuAh5XIuby6G2JVz2qwbU7lfP9cZDSVP4WNjUYsLZD+t
Q7ilHFw0s64AoGPF9n8LWWh4c6aMGKkCba/DGQEuuBDjxsxAtGmjRjNph27Euxem
8+jdrXO8ey8htf1mUQy9VLPhbV8cvCNz0QkDiRTSELlkwyrQoZZKvOHUGlvHoMDB
Y3gPRDcwMpaAMiOVoXe6E9KXc+JdJclqDcM5YKS0sGlCQgnp2Ai8MyCzWCKnquvE
4eZhg8XSlt/Z0E+t1wIDAQABoz8wPTA7BgNVHREENDAygjBERVI6MzA6MGQ6ODI6
MGI6NmM6NmY6NjM6NjE6NmM6Njg6NmY6NzM6NzQ6MDA6NjgwDQYJKoZIhvcNAQEL
BQADggEBAA5cDrUzFQ+GI/I+W+iurssXtHo78OvfdXD4gqvZLzsnRiA4cetKsfYZ
Jrcegva98fhqqG8egYFcqyP7WFmRZ2v76cRxYaBz3aFzBzfaMdgAfI+Gx+hzgNfT
tzhlqk2PJQ2wLb8Xd51wnfmK7N/u5Wf1YDD/nRq/1P2zuOtXKDRE6lw7MBML720r
FZ7799Zg8aURxpNGnFP7XG/7zTM9LstEsyFc3k8FqIl1qwpX5m0D7nmA3MyMBuNC
CRhepOhVeRV1iJweDeSjg4O7JDwsa2KEWJ1/tihIkOHVFOVGoEQ1rgEiaTVPdEaj
C4Ba6f0d28DvzbBHWaSC0EM9UG1Sfkw=
-----END CERTIFICATE-----
