Certificate:
    Data:
        Version: 3 (0x2)
        Serial Number:
            6e:84:e3:cd:c9:a4:bf:b7:e3:49:7e:d0:d6:4c:c1:48:61:3b:d6:53
        Signature Algorithm: sha256WithRSAEncryption
        Issuer: C = US, ST = Montana, L = Bozeman, OU = Engineering, CN = www.nomatch.com, emailAddress = info@wolfssl.com
        Validity
            Not Before: Sep 26 17:22:43 2023 GMT
            Not After : Jun 22 17:22:43 2026 GMT
        Subject: C = US, ST = Montana, L = Bozeman, OU = Engineering, CN = www.nomatch.com, emailAddress = info@wolfssl.com
        Subject Public Key Info:
            Public Key Algorithm: rsaEncryption
                Public-Key: (2048 bit)
                Modulus:
                    00:c0:95:08:e1:57:41:f2:71:6d:b7:d2:45:41:27:
                    01:65:c6:45:ae:f2:bc:24:30:b8:95:ce:2f:4e:d6:
                    f6:1c:88:bc:7c:9f:fb:a8:67:7f:fe:5c:9c:51:75:
                    f7:8a:ca:07:e7:35:2f:8f:e1:bd:7b:c0:2f:7c:ab:
                    64:a8:17:fc:ca:5d:7b:ba:e0:21:e5:72:2e:6f:2e:
                    86:d8:95:73:da:ac:1b:53:b9:5f:3f:d7:19:0d:25:
                    4f:e1:63:63:51:8b:0b:64:3f:ad:43:b8:a5:1c:5c:
                    34:b3:ae:00:a0:63:c5:f6:7f:0b:59:68:78:73:a6:
                    8c:18:a9:02:6d:af:c3:19:01:2e:b8:10:e3:c6:cc:
                    40:b4:69:a3:46:33:69:87:6e:c4:bb:17:a6:f3:e8:
                    dd:ad:73:bc:7b:2f:21:b5:fd:66:51:0c:bd:54:b3:
                    e1:6d:5f:1c:bc:23:73:d1:09:03:89:14:d2:10:b9:
                    64:c3:2a:d0:a1:96:4a:bc:e1:d4:1a:5b:c7:a0:c0:
                    c1:63:78:0f:44:37:30:32:96:80:32:23:95:a1:77:
                    ba:13:d2:97:73:e2:5d:25:c9:6a:0d:c3:39:60:a4:
                    b4:b0:69:42:42:09:e9:d8:08:bc:33:20:b3:58:22:
                    a7:aa:eb:c4:e1:e6:61:83:c5:d2:96:df:d9:d0:4f:
                    ad:d7
                Exponent: 65537 (0x10001)
        X509v3 extensions:
            X509v3 Subject Alternative Name: 
                DNS:*localhost
            X509v3 Subject Key Identifier: 
                B3:11:32:C9:92:98:84:E2:C9:F8:D0:3B:6E:03:42:CA:1F:0E:8E:3C
    Signature Algorithm: sha256WithRSAEncryption
    Signature Value:
        2e:b0:28:8d:e3:b1:a0:43:27:8c:48:fa:78:25:a3:44:73:8d:
        d5:69:c2:c5:f4:e9:96:1b:5f:46:45:36:a6:85:8b:fc:14:b1:
        0d:29:27:4d:48:00:53:96:9d:4c:59:9f:b3:4a:c7:b2:d0:bf:
        4b:b6:67:e4:a8:18:cf:44:54:a3:46:34:6f:ca:33:6c:00:45:
        36:e4:88:92:a3:16:1f:cb:1d:e3:89:21:6a:34:06:52:97:51:
        38:07:f0:ac:d1:34:c6:db:29:be:95:9f:b3:bc:8d:67:62:c5:
        3a:e1:b3:96:9b:b8:ec:24:75:93:d0:5a:a8:d3:7d:fb:33:c9:
        ac:b5:36:ac:47:91:c1:d3:dc:58:f4:53:0d:0f:61:62:93:be:
        35:57:0b:98:d7:54:d9:15:02:d2:a1:94:ba:02:86:1c:27:35:
        22:52:2d:d6:aa:81:f0:34:8d:b4:73:b3:04:87:39:d1:b3:45:
        ba:d6:b8:d2:a3:ac:a5:2b:67:8d:8f:ab:b9:6e:30:2e:4d:dd:
        25:15:02:6e:3c:52:a7:f6:a6:6f:de:40:e2:b6:55:14:5e:f1:
        83:83:95:4a:f1:3e:55:33:d2:0f:93:ef:d6:1a:04:2f:83:04:
        b9:c8:e5:7d:a4:c2:40:a8:91:15:c6:14:f8:97:9d:ff:06:1f:
        3d:61:b5:1f
-----BEGIN CERTIFICATE-----
MIIDzDCCArSgAwIBAgIUboTjzcmkv7fjSX7Q1kzBSGE71lMwDQYJKoZIhvcNAQEL
BQAwgYIxCzAJBgNVBAYTAlVTMRAwDgYDVQQIDAdNb250YW5hMRAwDgYDVQQHDAdC
b3plbWFuMRQwEgYDVQQLDAtFbmdpbmVlcmluZzEYMBYGA1UEAwwPd3d3Lm5vbWF0
Y2guY29tMR8wHQYJKoZIhvcNAQkBFhBpbmZvQHdvbGZzc2wuY29tMB4XDTIzMDky
NjE3MjI0M1oXDTI2MDYyMjE3MjI0M1owgYIxCzAJBgNVBAYTAlVTMRAwDgYDVQQI
DAdNb250YW5hMRAwDgYDVQQHDAdCb3plbWFuMRQwEgYDVQQLDAtFbmdpbmVlcmlu
ZzEYMBYGA1UEAwwPd3d3Lm5vbWF0Y2guY29tMR8wHQYJKoZIhvcNAQkBFhBpbmZv
QHdvbGZzc2wuY29tMIIBIjANBgkqhkiG9w0BAQEFAAOCAQ8AMIIBCgKCAQEAwJUI
4VdB8nFtt9JFQScBZcZFrvK8JDC4lc4vTtb2HIi8fJ/7qGd//lycUXX3isoH5zUv
j+G9e8AvfKtkqBf8yl17uuAh5XIuby6G2JVz2qwbU7lfP9cZDSVP4WNjUYsLZD+t
Q7ilHFw0s64AoGPF9n8LWWh4c6aMGKkCba/DGQEuuBDjxsxAtGmjRjNph27Euxem
8+jdrXO8ey8htf1mUQy9VLPhbV8cvCNz0QkDiRTSELlkwyrQoZZKvOHUGlvHoMDB
Y3gPRDcwMpaAMiOVoXe6E9KXc+JdJclqDcM5YKS0sGlCQgnp2Ai8MyCzWCKnquvE
4eZhg8XSlt/Z0E+t1wIDAQABozgwNjAVBgNVHREEDjAMggoqbG9jYWxob3N0MB0G
A1UdDgQWBBSzETLJkpiE4sn40DtuA0LKHw6OPDANBgkqhkiG9w0BAQsFAAOCAQEA
LrAojeOxoEMnjEj6eCWjRHON1WnCxfTplhtfRkU2poWL/BSxDSknTUgAU5adTFmf
s0rHstC/S7Zn5KgYz0RUo0Y0b8ozbABFNuSIkqMWH8sd44khajQGUpdROAfwrNE0
xtspvpWfs7yNZ2LFOuGzlpu47CR1k9BaqNN9+zPJrLU2rEeRwdPcWPRTDQ9hYpO+
NVcLmNdU2RUC0qGUugKGHCc1IlIt1qqB8DSNtHOzBIc50bNFuta40qOspStnjY+r
uW4wLk3dJRUCbjxSp/amb95A4rZVFF7xg4OVSvE+VTPSD5Pv1hoEL4MEucjlfaTC
QKiRFcYU+Jed/wYfPWG1Hw==
-----END CERTIFICATE-----
