Certificate:
    Data:
        Version: 3 (0x2)
        Serial Number:
            42:82:bd:f1:a2:49:28:42:27:94:65:7f:2a:e0:6a:3e:18:e4:6d:d1
        Signature Algorithm: sha256WithRSAEncryption
        Issuer: C=US, ST=Montana, L=Bozeman, OU=Engineering, CN=localhost, emailAddress=info@wolfssl.com
        Validity
            Not Before: Nov 13 20:41:27 2025 GMT
            Not After : Aug  9 20:41:27 2028 GMT
        Subject: C=US, ST=Montana, L=Bozeman, OU=Engineering, CN=localhost, emailAddress=info@wolfssl.com
        Subject Public Key Info:
            Public Key Algorithm: rsaEncryption
                Public-Key: (2048 bit)
                Modulus:
                    00:c0:95:08:e1:57:41:f2:71:6d:b7:d2:45:41:27:
                    01:65:c6:45:ae:f2:bc:24:30:b8:95:ce:2f:4e:d6:
                    f6:1c:88:bc:7c:9f:fb:a8:67:7f:fe:5c:9c:51:75:
                    f7:8a:ca:07:e7:35:2f:8f:e1:bd:7b:c0:2f:7c:ab:
                    64:a8:17:fc:ca:5d:7b:ba:e0:21:e5:72:2e:6f:2e:
                    86:d8:95:73:da:ac:1b:53:b9:5f:3f:d7:19:0d:25:
                    4f:e1:63:63:51:8b:0b:64:3f:ad:43:b8:a5:1c:5c:
                    34:b3:ae:00:a0:63:c5:f6:7f:0b:59:68:78:73:a6:
                    8c:18:a9:02:6d:af:c3:19:01:2e:b8:10:e3:c6:cc:
                    40:b4:69:a3:46:33:69:87:6e:c4:bb:17:a6:f3:e8:
                    dd:ad:73:bc:7b:2f:21:b5:fd:66:51:0c:bd:54:b3:
                    e1:6d:5f:1c:bc:23:73:d1:09:03:89:14:d2:10:b9:
                    64:c3:2a:d0:a1:96:4a:bc:e1:d4:1a:5b:c7:a0:c0:
                    c1:63:78:0f:44:37:30:32:96:80:32:23:95:a1:77:
                    ba:13:d2:97:73:e2:5d:25:c9:6a:0d:c3:39:60:a4:
                    b4:b0:69:42:42:09:e9:d8:08:bc:33:20:b3:58:22:
                    a7:aa:eb:c4:e1:e6:61:83:c5:d2:96:df:d9:d0:4f:
                    ad:d7
                Exponent: 65537 (0x10001)
        X509v3 extensions:
            X509v3 Subject Key Identifier: 
                B3:11:32:C9:92:98:84:E2:C9:F8:D0:3B:6E:03:42:CA:1F:0E:8E:3C
    Signature Algorithm: sha256WithRSAEncryption
    Signature Value:
        a1:03:8f:c0:51:fa:a2:7c:78:0a:af:68:e3:04:e5:0c:f4:af:
        02:64:62:e7:2b:8a:96:1d:2c:c3:1a:f1:11:6f:ad:f8:aa:4e:
        25:37:ac:e3:f6:93:24:6f:c9:65:6f:62:63:0c:9d:cd:16:19:
        4b:1a:a8:a2:32:65:fe:2a:87:08:85:a0:b5:fa:71:4d:60:91:
        39:e7:30:80:e8:75:17:bf:31:50:5b:be:b2:65:3d:5c:ce:39:
        f5:ab:90:b1:38:85:74:53:70:f3:75:90:c1:a3:c3:8f:67:7d:
        05:25:5f:f6:04:3e:9a:18:15:29:7d:9f:90:75:1d:7b:c0:5b:
        cb:48:21:c7:7c:1c:ec:12:82:08:19:15:bb:65:7a:40:e7:a9:
        4f:e7:84:b6:1b:2b:88:03:e2:23:ef:cf:77:59:95:fc:00:bb:
        09:41:b3:d1:77:fd:9d:fa:47:8b:23:22:dc:44:a8:b6:db:dc:
        fa:1c:55:31:da:90:16:26:3d:89:34:21:5c:3e:b6:31:5d:d3:
        85:9d:c1:dd:ec:cb:0a:d9:2e:2e:6c:7f:e6:8d:09:c9:a9:c6:
        a9:e6:10:e4:22:b3:90:4f:bb:10:5d:ef:c2:1b:8b:84:6b:4e:
        08:8d:17:e9:df:46:2c:21:ac:13:79:04:2e:6b:b7:d5:da:67:
        e5:3d:93:15
-----BEGIN CERTIFICATE-----
MIIDpzCCAo+gAwIBAgIUQoK98aJJKEInlGV/KuBqPhjkbdEwDQYJKoZIhvcNAQEL
BQAwfDELMAkGA1UEBhMCVVMxEDAOBgNVBAgMB01vbnRhbmExEDAOBgNVBAcMB0Jv
emVtYW4xFDASBgNVBAsMC0VuZ2luZWVyaW5nMRIwEAYDVQQDDAlsb2NhbGhvc3Qx
HzAdBgkqhkiG9w0BCQEWEGluZm9Ad29sZnNzbC5jb20wHhcNMjUxMTEzMjA0MTI3
WhcNMjgwODA5MjA0MTI3WjB8MQswCQYDVQQGEwJVUzEQMA4GA1UECAwHTW9udGFu
YTEQMA4GA1UEBwwHQm96ZW1hbjEUMBIGA1UECwwLRW5naW5lZXJpbmcxEjAQBgNV
BAMMCWxvY2FsaG9zdDEfMB0GCSqGSIb3DQEJARYQaW5mb0B3b2xmc3NsLmNvbTCC
ASIwDQYJKoZIhvcNAQEBBQADggEPADCCAQoCggEBAMCVCOFXQfJxbbfSRUEnAWXG
Ra7yvCQwuJXOL07W9hyIvHyf+6hnf/5cnFF194rKB+c1L4/hvXvAL3yrZKgX/Mpd
e7rgIeVyLm8uhtiVc9qsG1O5Xz/XGQ0lT+FjY1GLC2Q/rUO4pRxcNLOuAKBjxfZ/
C1loeHOmjBipAm2vwxkBLrgQ48bMQLRpo0YzaYduxLsXpvPo3a1zvHsvIbX9ZlEM
vVSz4W1fHLwjc9EJA4kU0hC5ZMMq0KGWSrzh1Bpbx6DAwWN4D0Q3MDKWgDIjlaF3
uhPSl3PiXSXJag3DOWCktLBpQkIJ6dgIvDMgs1gip6rrxOHmYYPF0pbf2dBPrdcC
AwEAAaMhMB8wHQYDVR0OBBYEFLMRMsmSmITiyfjQO24DQsofDo48MA0GCSqGSIb3
DQEBCwUAA4IBAQChA4/AUfqifHgKr2jjBOUM9K8CZGLnK4qWHSzDGvERb634qk4l
N6zj9pMkb8llb2JjDJ3NFhlLGqiiMmX+KocIhaC1+nFNYJE55zCA6HUXvzFQW76y
ZT1czjn1q5CxOIV0U3DzdZDBo8OPZ30FJV/2BD6aGBUpfZ+QdR17wFvLSCHHfBzs
EoIIGRW7ZXpA56lP54S2GyuIA+Ij7893WZX8ALsJQbPRd/2d+keLIyLcRKi229z6
HFUx2pAWJj2JNCFcPrYxXdOFncHd7MsK2S4ubH/mjQnJqcap5hDkIrOQT7sQXe/C
G4uEa04IjRfp30YsIawTeQQua7fV2mflPZMV
-----END CERTIFICATE-----
