Certificate:
    Data:
        Version: 3 (0x2)
        Serial Number:
            75:22:90:0d:08:a5:3e:6e:bf:60:32:1c:04:00:0c:2c:9b:96:b5:b5
        Signature Algorithm: sha256WithRSAEncryption
        Issuer: C=US, ST=Montana, L=Bozeman, OU=Engineering, CN=localhost, emailAddress=facts@wolfssl.com
        Validity
            Not Before: Jun 11 21:44:34 2026 GMT
            Not After : Mar  7 21:44:34 2029 GMT
        Subject: C=US, ST=Montana, L=Bozeman, OU=Engineering, CN=localhost, emailAddress=facts@wolfssl.com
        Subject Public Key Info:
            Public Key Algorithm: rsaEncryption
                Public-Key: (2048 bit)
                Modulus:
                    00:c0:95:08:e1:57:41:f2:71:6d:b7:d2:45:41:27:
                    01:65:c6:45:ae:f2:bc:24:30:b8:95:ce:2f:4e:d6:
                    f6:1c:88:bc:7c:9f:fb:a8:67:7f:fe:5c:9c:51:75:
                    f7:8a:ca:07:e7:35:2f:8f:e1:bd:7b:c0:2f:7c:ab:
                    64:a8:17:fc:ca:5d:7b:ba:e0:21:e5:72:2e:6f:2e:
                    86:d8:95:73:da:ac:1b:53:b9:5f:3f:d7:19:0d:25:
                    4f:e1:63:63:51:8b:0b:64:3f:ad:43:b8:a5:1c:5c:
                    34:b3:ae:00:a0:63:c5:f6:7f:0b:59:68:78:73:a6:
                    8c:18:a9:02:6d:af:c3:19:01:2e:b8:10:e3:c6:cc:
                    40:b4:69:a3:46:33:69:87:6e:c4:bb:17:a6:f3:e8:
                    dd:ad:73:bc:7b:2f:21:b5:fd:66:51:0c:bd:54:b3:
                    e1:6d:5f:1c:bc:23:73:d1:09:03:89:14:d2:10:b9:
                    64:c3:2a:d0:a1:96:4a:bc:e1:d4:1a:5b:c7:a0:c0:
                    c1:63:78:0f:44:37:30:32:96:80:32:23:95:a1:77:
                    ba:13:d2:97:73:e2:5d:25:c9:6a:0d:c3:39:60:a4:
                    b4:b0:69:42:42:09:e9:d8:08:bc:33:20:b3:58:22:
                    a7:aa:eb:c4:e1:e6:61:83:c5:d2:96:df:d9:d0:4f:
                    ad:d7
                Exponent: 65537 (0x10001)
        X509v3 extensions:
            X509v3 Subject Alternative Name: 
                DNS:localhost
            X509v3 Subject Key Identifier: 
                B3:11:32:C9:92:98:84:E2:C9:F8:D0:3B:6E:03:42:CA:1F:0E:8E:3C
    Signature Algorithm: sha256WithRSAEncryption
    Signature Value:
        02:df:ae:9d:d6:b7:db:e7:fd:fc:38:f0:56:de:1f:e9:b8:ff:
        d6:38:30:06:13:88:0a:15:57:f9:f6:2a:88:9a:b9:a4:97:88:
        56:3d:51:ce:87:50:06:6c:ee:a1:bd:8c:ab:42:d4:b1:92:f3:
        5f:69:e5:8f:87:10:a4:b0:ee:0d:05:6a:ce:b4:4b:cb:22:87:
        4f:c2:ed:2f:49:24:fd:6c:f0:55:0f:47:dc:57:9e:b1:f1:6b:
        79:83:15:92:9d:82:36:f6:26:10:c3:38:7e:12:f7:13:dc:27:
        0d:eb:0c:e2:de:ce:dc:4e:d5:1f:ff:bc:2f:0a:33:67:44:8f:
        c8:85:74:1b:d4:5e:2c:73:2a:43:07:e8:11:83:34:73:f2:dc:
        35:27:83:4c:ee:4a:ea:31:69:19:39:be:e4:a3:21:e6:b0:77:
        04:0a:fd:56:e6:fa:d4:26:40:bd:a9:7a:d2:50:48:13:da:d8:
        1c:d9:6e:06:2b:97:f8:4d:82:49:bd:8b:1f:9f:97:61:8d:88:
        eb:e5:52:ef:08:02:1e:c1:6a:56:8d:0d:34:87:db:9c:ea:c1:
        68:1a:f7:39:4c:49:99:72:6a:bf:bd:cc:3b:6e:d0:d7:49:40:
        43:a4:b4:81:9a:2a:63:04:d3:38:9e:19:86:9f:97:fb:a4:58:
        75:9c:a4:01
-----BEGIN CERTIFICATE-----
MIIDvzCCAqegAwIBAgIUdSKQDQilPm6/YDIcBAAMLJuWtbUwDQYJKoZIhvcNAQEL
BQAwfTELMAkGA1UEBhMCVVMxEDAOBgNVBAgMB01vbnRhbmExEDAOBgNVBAcMB0Jv
emVtYW4xFDASBgNVBAsMC0VuZ2luZWVyaW5nMRIwEAYDVQQDDAlsb2NhbGhvc3Qx
IDAeBgkqhkiG9w0BCQEWEWZhY3RzQHdvbGZzc2wuY29tMB4XDTI2MDYxMTIxNDQz
NFoXDTI5MDMwNzIxNDQzNFowfTELMAkGA1UEBhMCVVMxEDAOBgNVBAgMB01vbnRh
bmExEDAOBgNVBAcMB0JvemVtYW4xFDASBgNVBAsMC0VuZ2luZWVyaW5nMRIwEAYD
VQQDDAlsb2NhbGhvc3QxIDAeBgkqhkiG9w0BCQEWEWZhY3RzQHdvbGZzc2wuY29t
MIIBIjANBgkqhkiG9w0BAQEFAAOCAQ8AMIIBCgKCAQEAwJUI4VdB8nFtt9JFQScB
ZcZFrvK8JDC4lc4vTtb2HIi8fJ/7qGd//lycUXX3isoH5zUvj+G9e8AvfKtkqBf8
yl17uuAh5XIuby6G2JVz2qwbU7lfP9cZDSVP4WNjUYsLZD+tQ7ilHFw0s64AoGPF
9n8LWWh4c6aMGKkCba/DGQEuuBDjxsxAtGmjRjNph27Euxem8+jdrXO8ey8htf1m
UQy9VLPhbV8cvCNz0QkDiRTSELlkwyrQoZZKvOHUGlvHoMDBY3gPRDcwMpaAMiOV
oXe6E9KXc+JdJclqDcM5YKS0sGlCQgnp2Ai8MyCzWCKnquvE4eZhg8XSlt/Z0E+t
1wIDAQABozcwNTAUBgNVHREEDTALgglsb2NhbGhvc3QwHQYDVR0OBBYEFLMRMsmS
mITiyfjQO24DQsofDo48MA0GCSqGSIb3DQEBCwUAA4IBAQAC366d1rfb5/38OPBW
3h/puP/WODAGE4gKFVf59iqImrmkl4hWPVHOh1AGbO6hvYyrQtSxkvNfaeWPhxCk
sO4NBWrOtEvLIodPwu0vSST9bPBVD0fcV56x8Wt5gxWSnYI29iYQwzh+EvcT3CcN
6wzi3s7cTtUf/7wvCjNnRI/IhXQb1F4scypDB+gRgzRz8tw1J4NM7krqMWkZOb7k
oyHmsHcECv1W5vrUJkC9qXrSUEgT2tgc2W4GK5f4TYJJvYsfn5dhjYjr5VLvCAIe
wWpWjQ00h9uc6sFoGvc5TEmZcmq/vcw7btDXSUBDpLSBmipjBNM4nhmGn5f7pFh1
nKQB
-----END CERTIFICATE-----
