Certificate:
    Data:
        Version: 3 (0x2)
        Serial Number: 1 (0x1)
        Signature Algorithm: sha256WithRSAEncryption
        Issuer: C = US, ST = Montana, L = Bozeman, O = Sawtooth, OU = Consulting, CN = www.wolfssl.com, emailAddress = info@wolfssl.com
        Validity
            Not Before: Dec 20 23:07:25 2021 GMT
            Not After : Sep 15 23:07:25 2024 GMT
        Subject: C = US, ST = Montana, L = Bozeman, O = wolfSSL, OU = Support, CN = www.wolfssl.com, emailAddress = info@wolfssl.com
        Subject Public Key Info:
            Public Key Algorithm: rsaEncryption
                RSA Public-Key: (2048 bit)
                Modulus:
                    00:c0:95:08:e1:57:41:f2:71:6d:b7:d2:45:41:27:
                    01:65:c6:45:ae:f2:bc:24:30:b8:95:ce:2f:4e:d6:
                    f6:1c:88:bc:7c:9f:fb:a8:67:7f:fe:5c:9c:51:75:
                    f7:8a:ca:07:e7:35:2f:8f:e1:bd:7b:c0:2f:7c:ab:
                    64:a8:17:fc:ca:5d:7b:ba:e0:21:e5:72:2e:6f:2e:
                    86:d8:95:73:da:ac:1b:53:b9:5f:3f:d7:19:0d:25:
                    4f:e1:63:63:51:8b:0b:64:3f:ad:43:b8:a5:1c:5c:
                    34:b3:ae:00:a0:63:c5:f6:7f:0b:59:68:78:73:a6:
                    8c:18:a9:02:6d:af:c3:19:01:2e:b8:10:e3:c6:cc:
                    40:b4:69:a3:46:33:69:87:6e:c4:bb:17:a6:f3:e8:
                    dd:ad:73:bc:7b:2f:21:b5:fd:66:51:0c:bd:54:b3:
                    e1:6d:5f:1c:bc:23:73:d1:09:03:89:14:d2:10:b9:
                    64:c3:2a:d0:a1:96:4a:bc:e1:d4:1a:5b:c7:a0:c0:
                    c1:63:78:0f:44:37:30:32:96:80:32:23:95:a1:77:
                    ba:13:d2:97:73:e2:5d:25:c9:6a:0d:c3:39:60:a4:
                    b4:b0:69:42:42:09:e9:d8:08:bc:33:20:b3:58:22:
                    a7:aa:eb:c4:e1:e6:61:83:c5:d2:96:df:d9:d0:4f:
                    ad:d7
                Exponent: 65537 (0x10001)
        X509v3 extensions:
            X509v3 Subject Key Identifier: 
                B3:11:32:C9:92:98:84:E2:C9:F8:D0:3B:6E:03:42:CA:1F:0E:8E:3C
            X509v3 Authority Key Identifier: 
                keyid:27:8E:67:11:74:C3:26:1D:3F:ED:33:63:B3:A4:D8:1D:30:E5:E8:D5
                DirName:/C=US/ST=Montana/L=Bozeman/O=Sawtooth/OU=Consulting/CN=www.wolfssl.com/emailAddress=info@wolfssl.com
                serial:7D:94:70:88:BA:07:42:8D:AA:AF:4F:BE:C2:1A:48:F0:D1:40:E6:42

            X509v3 Basic Constraints: 
                CA:TRUE
            X509v3 Subject Alternative Name: 
                DNS:example.com, IP Address:127.0.0.1
            X509v3 Extended Key Usage: 
                TLS Web Server Authentication, TLS Web Client Authentication
    Signature Algorithm: sha256WithRSAEncryption
         73:59:6f:55:94:e1:38:e7:20:5a:11:46:47:a8:29:11:17:06:
         19:16:78:22:af:54:f8:d9:32:61:26:3f:39:ab:a4:df:ef:ae:
         d0:0b:cc:2b:af:95:70:90:97:53:cc:19:6d:f2:4d:4c:fa:e4:
         9d:7c:54:e0:5b:3b:1f:1e:52:46:7f:d9:ba:a0:90:ba:6d:df:
         3d:67:f0:9f:52:44:c3:e1:66:36:dc:61:58:11:ba:4c:0c:c2:
         29:da:f7:13:45:60:b2:11:79:91:ed:7c:9f:b7:7f:5c:e2:29:
         c6:1e:bf:78:da:bf:d1:bd:9c:f7:4e:23:e0:c3:ef:6f:b6:67:
         7c:d7:4c:02:d5:bd:67:ee:7e:0c:e3:89:db:79:61:1e:d0:5f:
         f5:e8:66:48:3a:55:54:d5:16:12:30:00:c9:86:75:e0:c9:ff:
         38:74:ce:c8:c7:fd:ef:96:d8:55:96:71:35:62:db:34:c5:2f:
         07:84:8a:aa:1b:1e:77:50:0a:20:3b:21:4b:06:14:af:78:11:
         a2:41:c6:5d:0c:70:e0:52:b4:9e:4c:86:ab:5b:a3:e0:8f:a2:
         c2:1a:69:70:80:3b:bd:50:23:26:72:4f:fa:fd:df:ed:85:32:
         2c:e4:ab:3e:f3:a6:d0:1d:db:33:6b:69:8d:99:b9:b4:34:4b:
         79:a8:16:68
-----BEGIN CERTIFICATE-----
MIIE6DCCA9CgAwIBAgIBATANBgkqhkiG9w0BAQsFADCBlDELMAkGA1UEBhMCVVMx
EDAOBgNVBAgMB01vbnRhbmExEDAOBgNVBAcMB0JvemVtYW4xETAPBgNVBAoMCFNh
d3Rvb3RoMRMwEQYDVQQLDApDb25zdWx0aW5nMRgwFgYDVQQDDA93d3cud29sZnNz
bC5jb20xHzAdBgkqhkiG9w0BCQEWEGluZm9Ad29sZnNzbC5jb20wHhcNMjExMjIw
MjMwNzI1WhcNMjQwOTE1MjMwNzI1WjCBkDELMAkGA1UEBhMCVVMxEDAOBgNVBAgM
B01vbnRhbmExEDAOBgNVBAcMB0JvemVtYW4xEDAOBgNVBAoMB3dvbGZTU0wxEDAO
BgNVBAsMB1N1cHBvcnQxGDAWBgNVBAMMD3d3dy53b2xmc3NsLmNvbTEfMB0GCSqG
SIb3DQEJARYQaW5mb0B3b2xmc3NsLmNvbTCCASIwDQYJKoZIhvcNAQEBBQADggEP
ADCCAQoCggEBAMCVCOFXQfJxbbfSRUEnAWXGRa7yvCQwuJXOL07W9hyIvHyf+6hn
f/5cnFF194rKB+c1L4/hvXvAL3yrZKgX/Mpde7rgIeVyLm8uhtiVc9qsG1O5Xz/X
GQ0lT+FjY1GLC2Q/rUO4pRxcNLOuAKBjxfZ/C1loeHOmjBipAm2vwxkBLrgQ48bM
QLRpo0YzaYduxLsXpvPo3a1zvHsvIbX9ZlEMvVSz4W1fHLwjc9EJA4kU0hC5ZMMq
0KGWSrzh1Bpbx6DAwWN4D0Q3MDKWgDIjlaF3uhPSl3PiXSXJag3DOWCktLBpQkIJ
6dgIvDMgs1gip6rrxOHmYYPF0pbf2dBPrdcCAwEAAaOCAUUwggFBMB0GA1UdDgQW
BBSzETLJkpiE4sn40DtuA0LKHw6OPDCB1AYDVR0jBIHMMIHJgBQnjmcRdMMmHT/t
M2OzpNgdMOXo1aGBmqSBlzCBlDELMAkGA1UEBhMCVVMxEDAOBgNVBAgMB01vbnRh
bmExEDAOBgNVBAcMB0JvemVtYW4xETAPBgNVBAoMCFNhd3Rvb3RoMRMwEQYDVQQL
DApDb25zdWx0aW5nMRgwFgYDVQQDDA93d3cud29sZnNzbC5jb20xHzAdBgkqhkiG
9w0BCQEWEGluZm9Ad29sZnNzbC5jb22CFH2UcIi6B0KNqq9PvsIaSPDRQOZCMAwG
A1UdEwQFMAMBAf8wHAYDVR0RBBUwE4ILZXhhbXBsZS5jb22HBH8AAAEwHQYDVR0l
BBYwFAYIKwYBBQUHAwEGCCsGAQUFBwMCMA0GCSqGSIb3DQEBCwUAA4IBAQBzWW9V
lOE45yBaEUZHqCkRFwYZFngir1T42TJhJj85q6Tf767QC8wrr5VwkJdTzBlt8k1M
+uSdfFTgWzsfHlJGf9m6oJC6bd89Z/CfUkTD4WY23GFYEbpMDMIp2vcTRWCyEXmR
7Xyft39c4inGHr942r/RvZz3TiPgw+9vtmd810wC1b1n7n4M44nbeWEe0F/16GZI
OlVU1RYSMADJhnXgyf84dM7Ix/3vlthVlnE1Yts0xS8HhIqqGx53UAogOyFLBhSv
eBGiQcZdDHDgUrSeTIarW6Pgj6LCGmlwgDu9UCMmck/6/d/thTIs5Ks+86bQHdsz
a2mNmbm0NEt5qBZo
-----END CERTIFICATE-----
Certificate:
    Data:
        Version: 3 (0x2)
        Serial Number:
            7d:94:70:88:ba:07:42:8d:aa:af:4f:be:c2:1a:48:f0:d1:40:e6:42
        Signature Algorithm: sha256WithRSAEncryption
        Issuer: C = US, ST = Montana, L = Bozeman, O = Sawtooth, OU = Consulting, CN = www.wolfssl.com, emailAddress = info@wolfssl.com
        Validity
            Not Before: Dec 20 23:07:24 2021 GMT
            Not After : Sep 15 23:07:24 2024 GMT
        Subject: C = US, ST = Montana, L = Bozeman, O = Sawtooth, OU = Consulting, CN = www.wolfssl.com, emailAddress = info@wolfssl.com
        Subject Public Key Info:
            Public Key Algorithm: rsaEncryption
                RSA Public-Key: (2048 bit)
                Modulus:
                    00:bf:0c:ca:2d:14:b2:1e:84:42:5b:cd:38:1f:4a:
                    f2:4d:75:10:f1:b6:35:9f:df:ca:7d:03:98:d3:ac:
                    de:03:66:ee:2a:f1:d8:b0:7d:6e:07:54:0b:10:98:
                    21:4d:80:cb:12:20:e7:cc:4f:de:45:7d:c9:72:77:
                    32:ea:ca:90:bb:69:52:10:03:2f:a8:f3:95:c5:f1:
                    8b:62:56:1b:ef:67:6f:a4:10:41:95:ad:0a:9b:e3:
                    a5:c0:b0:d2:70:76:50:30:5b:a8:e8:08:2c:7c:ed:
                    a7:a2:7a:8d:38:29:1c:ac:c7:ed:f2:7c:95:b0:95:
                    82:7d:49:5c:38:cd:77:25:ef:bd:80:75:53:94:3c:
                    3d:ca:63:5b:9f:15:b5:d3:1d:13:2f:19:d1:3c:db:
                    76:3a:cc:b8:7d:c9:e5:c2:d7:da:40:6f:d8:21:dc:
                    73:1b:42:2d:53:9c:fe:1a:fc:7d:ab:7a:36:3f:98:
                    de:84:7c:05:67:ce:6a:14:38:87:a9:f1:8c:b5:68:
                    cb:68:7f:71:20:2b:f5:a0:63:f5:56:2f:a3:26:d2:
                    b7:6f:b1:5a:17:d7:38:99:08:fe:93:58:6f:fe:c3:
                    13:49:08:16:0b:a7:4d:67:00:52:31:67:23:4e:98:
                    ed:51:45:1d:b9:04:d9:0b:ec:d8:28:b3:4b:bd:ed:
                    36:79
                Exponent: 65537 (0x10001)
        X509v3 extensions:
            X509v3 Subject Key Identifier: 
                27:8E:67:11:74:C3:26:1D:3F:ED:33:63:B3:A4:D8:1D:30:E5:E8:D5
            X509v3 Authority Key Identifier: 
                keyid:27:8E:67:11:74:C3:26:1D:3F:ED:33:63:B3:A4:D8:1D:30:E5:E8:D5
                DirName:/C=US/ST=Montana/L=Bozeman/O=Sawtooth/OU=Consulting/CN=www.wolfssl.com/emailAddress=info@wolfssl.com
                serial:7D:94:70:88:BA:07:42:8D:AA:AF:4F:BE:C2:1A:48:F0:D1:40:E6:42

            X509v3 Basic Constraints: 
                CA:TRUE
            X509v3 Subject Alternative Name: 
                DNS:example.com, IP Address:127.0.0.1
            X509v3 Extended Key Usage: 
                TLS Web Server Authentication, TLS Web Client Authentication
    Signature Algorithm: sha256WithRSAEncryption
         b0:71:bb:ba:45:5a:80:25:02:a4:7e:88:0b:a9:7b:fd:b0:bb:
         f6:46:b5:ba:f4:c7:e3:61:20:8c:03:15:66:f5:e4:54:82:ef:
         13:80:97:22:67:c1:d1:88:5d:e2:2d:57:f6:e0:9f:69:d6:b1:
         5c:b6:e8:e0:98:89:c8:14:12:d6:b6:89:8d:6c:b9:a0:59:4f:
         92:ee:11:53:6b:7d:93:4a:69:0a:85:d9:d5:d2:62:e8:c9:b5:
         c6:4e:17:f5:0a:e8:f3:2d:86:61:0b:eb:c4:c4:c6:67:75:ed:
         9a:9f:53:a0:71:1e:a0:90:0d:f9:03:b4:bc:86:19:6e:f0:3b:
         4f:e8:ed:68:f6:e7:23:43:3b:36:83:83:4b:46:a0:9a:01:d0:
         c7:85:bb:7d:94:a0:21:3d:7e:3c:6a:3d:81:db:41:7b:46:d8:
         15:62:d5:8f:4d:3d:c0:db:9a:c5:81:a8:ac:da:87:99:c7:dd:
         b9:f1:14:af:d1:93:e3:f3:42:d7:a2:04:51:21:54:29:c3:45:
         f6:be:5c:fa:cd:db:bf:2f:79:81:42:e5:8f:47:0b:d4:54:01:
         b5:c2:4a:46:d6:a8:31:2e:64:80:3f:48:61:91:29:f3:aa:43:
         5c:69:6e:f1:01:b9:df:63:71:3d:b9:5a:fb:36:c0:11:a2:c3:
         30:9d:95:c3
-----BEGIN CERTIFICATE-----
MIIE/zCCA+egAwIBAgIUfZRwiLoHQo2qr0++whpI8NFA5kIwDQYJKoZIhvcNAQEL
BQAwgZQxCzAJBgNVBAYTAlVTMRAwDgYDVQQIDAdNb250YW5hMRAwDgYDVQQHDAdC
b3plbWFuMREwDwYDVQQKDAhTYXd0b290aDETMBEGA1UECwwKQ29uc3VsdGluZzEY
MBYGA1UEAwwPd3d3LndvbGZzc2wuY29tMR8wHQYJKoZIhvcNAQkBFhBpbmZvQHdv
bGZzc2wuY29tMB4XDTIxMTIyMDIzMDcyNFoXDTI0MDkxNTIzMDcyNFowgZQxCzAJ
BgNVBAYTAlVTMRAwDgYDVQQIDAdNb250YW5hMRAwDgYDVQQHDAdCb3plbWFuMREw
DwYDVQQKDAhTYXd0b290aDETMBEGA1UECwwKQ29uc3VsdGluZzEYMBYGA1UEAwwP
d3d3LndvbGZzc2wuY29tMR8wHQYJKoZIhvcNAQkBFhBpbmZvQHdvbGZzc2wuY29t
MIIBIjANBgkqhkiG9w0BAQEFAAOCAQ8AMIIBCgKCAQEAvwzKLRSyHoRCW804H0ry
TXUQ8bY1n9/KfQOY06zeA2buKvHYsH1uB1QLEJghTYDLEiDnzE/eRX3Jcncy6sqQ
u2lSEAMvqPOVxfGLYlYb72dvpBBBla0Km+OlwLDScHZQMFuo6AgsfO2nonqNOCkc
rMft8nyVsJWCfUlcOM13Je+9gHVTlDw9ymNbnxW10x0TLxnRPNt2Osy4fcnlwtfa
QG/YIdxzG0ItU5z+Gvx9q3o2P5jehHwFZ85qFDiHqfGMtWjLaH9xICv1oGP1Vi+j
JtK3b7FaF9c4mQj+k1hv/sMTSQgWC6dNZwBSMWcjTpjtUUUduQTZC+zYKLNLve02
eQIDAQABo4IBRTCCAUEwHQYDVR0OBBYEFCeOZxF0wyYdP+0zY7Ok2B0w5ejVMIHU
BgNVHSMEgcwwgcmAFCeOZxF0wyYdP+0zY7Ok2B0w5ejVoYGapIGXMIGUMQswCQYD
VQQGEwJVUzEQMA4GA1UECAwHTW9udGFuYTEQMA4GA1UEBwwHQm96ZW1hbjERMA8G
A1UECgwIU2F3dG9vdGgxEzARBgNVBAsMCkNvbnN1bHRpbmcxGDAWBgNVBAMMD3d3
dy53b2xmc3NsLmNvbTEfMB0GCSqGSIb3DQEJARYQaW5mb0B3b2xmc3NsLmNvbYIU
fZRwiLoHQo2qr0++whpI8NFA5kIwDAYDVR0TBAUwAwEB/zAcBgNVHREEFTATggtl
eGFtcGxlLmNvbYcEfwAAATAdBgNVHSUEFjAUBggrBgEFBQcDAQYIKwYBBQUHAwIw
DQYJKoZIhvcNAQELBQADggEBALBxu7pFWoAlAqR+iAupe/2wu/ZGtbr0x+NhIIwD
FWb15FSC7xOAlyJnwdGIXeItV/bgn2nWsVy26OCYicgUEta2iY1suaBZT5LuEVNr
fZNKaQqF2dXSYujJtcZOF/UK6PMthmEL68TExmd17ZqfU6BxHqCQDfkDtLyGGW7w
O0/o7Wj25yNDOzaDg0tGoJoB0MeFu32UoCE9fjxqPYHbQXtG2BVi1Y9NPcDbmsWB
qKzah5nH3bnxFK/Rk+PzQteiBFEhVCnDRfa+XPrN278veYFC5Y9HC9RUAbXCSkbW
qDEuZIA/SGGRKfOqQ1xpbvEBud9jcT25Wvs2wBGiwzCdxcM=
-----END CERTIFICATE-----
