Certificate:
    Data:
        Version: 3 (0x2)
        Serial Number:
            2b:22:92:46:85:ca:d3:ed:89:7f:05:a3:f1:3a:5d:e3:ff:3f:54:e8
        Signature Algorithm: sha256WithRSAEncryption
        Issuer: C=US, ST=Montana, L=Bozeman, OU=Engineering, CN=DER:30:0d:82:0b:6c:6f:63:61:6c:68:6f:73:74:00:68, emailAddress=facts@wolfssl.com
        Validity
            Not Before: Jun 11 21:44:33 2026 GMT
            Not After : Mar  7 21:44:33 2029 GMT
        Subject: C=US, ST=Montana, L=Bozeman, OU=Engineering, CN=DER:30:0d:82:0b:6c:6f:63:61:6c:68:6f:73:74:00:68, emailAddress=facts@wolfssl.com
        Subject Public Key Info:
            Public Key Algorithm: rsaEncryption
                Public-Key: (2048 bit)
                Modulus:
                    00:c0:95:08:e1:57:41:f2:71:6d:b7:d2:45:41:27:
                    01:65:c6:45:ae:f2:bc:24:30:b8:95:ce:2f:4e:d6:
                    f6:1c:88:bc:7c:9f:fb:a8:67:7f:fe:5c:9c:51:75:
                    f7:8a:ca:07:e7:35:2f:8f:e1:bd:7b:c0:2f:7c:ab:
                    64:a8:17:fc:ca:5d:7b:ba:e0:21:e5:72:2e:6f:2e:
                    86:d8:95:73:da:ac:1b:53:b9:5f:3f:d7:19:0d:25:
                    4f:e1:63:63:51:8b:0b:64:3f:ad:43:b8:a5:1c:5c:
                    34:b3:ae:00:a0:63:c5:f6:7f:0b:59:68:78:73:a6:
                    8c:18:a9:02:6d:af:c3:19:01:2e:b8:10:e3:c6:cc:
                    40:b4:69:a3:46:33:69:87:6e:c4:bb:17:a6:f3:e8:
                    dd:ad:73:bc:7b:2f:21:b5:fd:66:51:0c:bd:54:b3:
                    e1:6d:5f:1c:bc:23:73:d1:09:03:89:14:d2:10:b9:
                    64:c3:2a:d0:a1:96:4a:bc:e1:d4:1a:5b:c7:a0:c0:
                    c1:63:78:0f:44:37:30:32:96:80:32:23:95:a1:77:
                    ba:13:d2:97:73:e2:5d:25:c9:6a:0d:c3:39:60:a4:
                    b4:b0:69:42:42:09:e9:d8:08:bc:33:20:b3:58:22:
                    a7:aa:eb:c4:e1:e6:61:83:c5:d2:96:df:d9:d0:4f:
                    ad:d7
                Exponent: 65537 (0x10001)
        X509v3 extensions:
            X509v3 Subject Key Identifier: 
                B3:11:32:C9:92:98:84:E2:C9:F8:D0:3B:6E:03:42:CA:1F:0E:8E:3C
    Signature Algorithm: sha256WithRSAEncryption
    Signature Value:
        b9:c0:19:91:d5:ad:50:d1:20:60:11:31:61:f9:fb:97:8a:4c:
        b5:41:c5:ef:03:10:1d:b6:a5:6f:15:a5:fb:5b:34:3d:51:2b:
        3c:0f:62:3f:73:ee:54:82:b6:9c:30:d7:e1:7a:9f:48:e2:6b:
        fb:27:ee:16:59:ac:69:08:7b:91:dd:0b:45:dc:ee:d6:83:c3:
        88:18:cc:c7:1e:32:f4:49:03:00:9f:49:39:e8:a0:f0:30:9a:
        29:e4:e0:33:eb:bc:23:64:ad:62:2d:fc:e9:3b:c6:66:d5:ee:
        44:ba:a3:69:d1:4f:03:c9:72:07:6e:bf:8b:f1:c8:8a:71:6d:
        47:43:04:32:a6:2e:82:8f:6a:67:7f:da:08:43:2b:65:09:bc:
        cf:68:ae:54:a8:80:19:ec:d6:d2:0f:f4:27:99:f3:57:18:fc:
        ba:1a:ae:f6:18:7f:47:50:01:9e:3c:f0:5e:80:44:a5:de:7c:
        cb:b2:35:89:57:d7:91:5d:6e:da:99:78:ca:13:0d:a4:13:7e:
        58:51:8f:dd:2b:c4:4b:4f:4d:f1:45:d8:aa:e8:b0:8f:fd:7f:
        62:ab:8a:27:39:ca:9b:28:39:87:2f:36:05:03:80:21:3e:fa:
        7e:70:4f:11:0f:60:f9:af:05:15:8b:a1:76:45:bf:7a:eb:19:
        a5:e1:dc:35
-----BEGIN CERTIFICATE-----
MIID+TCCAuGgAwIBAgIUKyKSRoXK0+2JfwWj8Tpd4/8/VOgwDQYJKoZIhvcNAQEL
BQAwgaQxCzAJBgNVBAYTAlVTMRAwDgYDVQQIDAdNb250YW5hMRAwDgYDVQQHDAdC
b3plbWFuMRQwEgYDVQQLDAtFbmdpbmVlcmluZzE5MDcGA1UEAwwwREVSOjMwOjBk
OjgyOjBiOjZjOjZmOjYzOjYxOjZjOjY4OjZmOjczOjc0OjAwOjY4MSAwHgYJKoZI
hvcNAQkBFhFmYWN0c0B3b2xmc3NsLmNvbTAeFw0yNjA2MTEyMTQ0MzNaFw0yOTAz
MDcyMTQ0MzNaMIGkMQswCQYDVQQGEwJVUzEQMA4GA1UECAwHTW9udGFuYTEQMA4G
A1UEBwwHQm96ZW1hbjEUMBIGA1UECwwLRW5naW5lZXJpbmcxOTA3BgNVBAMMMERF
UjozMDowZDo4MjowYjo2Yzo2Zjo2Mzo2MTo2Yzo2ODo2Zjo3Mzo3NDowMDo2ODEg
MB4GCSqGSIb3DQEJARYRZmFjdHNAd29sZnNzbC5jb20wggEiMA0GCSqGSIb3DQEB
AQUAA4IBDwAwggEKAoIBAQDAlQjhV0HycW230kVBJwFlxkWu8rwkMLiVzi9O1vYc
iLx8n/uoZ3/+XJxRdfeKygfnNS+P4b17wC98q2SoF/zKXXu64CHlci5vLobYlXPa
rBtTuV8/1xkNJU/hY2NRiwtkP61DuKUcXDSzrgCgY8X2fwtZaHhzpowYqQJtr8MZ
AS64EOPGzEC0aaNGM2mHbsS7F6bz6N2tc7x7LyG1/WZRDL1Us+FtXxy8I3PRCQOJ
FNIQuWTDKtChlkq84dQaW8egwMFjeA9ENzAyloAyI5Whd7oT0pdz4l0lyWoNwzlg
pLSwaUJCCenYCLwzILNYIqeq68Th5mGDxdKW39nQT63XAgMBAAGjITAfMB0GA1Ud
DgQWBBSzETLJkpiE4sn40DtuA0LKHw6OPDANBgkqhkiG9w0BAQsFAAOCAQEAucAZ
kdWtUNEgYBExYfn7l4pMtUHF7wMQHbalbxWl+1s0PVErPA9iP3PuVIK2nDDX4Xqf
SOJr+yfuFlmsaQh7kd0LRdzu1oPDiBjMxx4y9EkDAJ9JOeig8DCaKeTgM+u8I2St
Yi386TvGZtXuRLqjadFPA8lyB26/i/HIinFtR0MEMqYugo9qZ3/aCEMrZQm8z2iu
VKiAGezW0g/0J5nzVxj8uhqu9hh/R1ABnjzwXoBEpd58y7I1iVfXkV1u2pl4yhMN
pBN+WFGP3SvES09N8UXYquiwj/1/YquKJznKmyg5hy82BQOAIT76fnBPEQ9g+a8F
FYuhdkW/eusZpeHcNQ==
-----END CERTIFICATE-----
