Certificate:
    Data:
        Version: 3 (0x2)
        Serial Number:
            22:0f:95:6c:4d:29:a8:eb:a8:48:f9:16:e0:f7:9f:52:2c:3d:8c:74
        Signature Algorithm: sha256WithRSAEncryption
        Issuer: C = US, ST = Montana, L = Bozeman, OU = Engineering, CN = www.nomatch.com, emailAddress = info@wolfssl.com
        Validity
            Not Before: Jun 15 22:02:33 2021 GMT
            Not After : Mar 11 22:02:33 2024 GMT
        Subject: C = US, ST = Montana, L = Bozeman, OU = Engineering, CN = www.nomatch.com, emailAddress = info@wolfssl.com
        Subject Public Key Info:
            Public Key Algorithm: rsaEncryption
                RSA Public-Key: (2048 bit)
                Modulus:
                    00:c0:95:08:e1:57:41:f2:71:6d:b7:d2:45:41:27:
                    01:65:c6:45:ae:f2:bc:24:30:b8:95:ce:2f:4e:d6:
                    f6:1c:88:bc:7c:9f:fb:a8:67:7f:fe:5c:9c:51:75:
                    f7:8a:ca:07:e7:35:2f:8f:e1:bd:7b:c0:2f:7c:ab:
                    64:a8:17:fc:ca:5d:7b:ba:e0:21:e5:72:2e:6f:2e:
                    86:d8:95:73:da:ac:1b:53:b9:5f:3f:d7:19:0d:25:
                    4f:e1:63:63:51:8b:0b:64:3f:ad:43:b8:a5:1c:5c:
                    34:b3:ae:00:a0:63:c5:f6:7f:0b:59:68:78:73:a6:
                    8c:18:a9:02:6d:af:c3:19:01:2e:b8:10:e3:c6:cc:
                    40:b4:69:a3:46:33:69:87:6e:c4:bb:17:a6:f3:e8:
                    dd:ad:73:bc:7b:2f:21:b5:fd:66:51:0c:bd:54:b3:
                    e1:6d:5f:1c:bc:23:73:d1:09:03:89:14:d2:10:b9:
                    64:c3:2a:d0:a1:96:4a:bc:e1:d4:1a:5b:c7:a0:c0:
                    c1:63:78:0f:44:37:30:32:96:80:32:23:95:a1:77:
                    ba:13:d2:97:73:e2:5d:25:c9:6a:0d:c3:39:60:a4:
                    b4:b0:69:42:42:09:e9:d8:08:bc:33:20:b3:58:22:
                    a7:aa:eb:c4:e1:e6:61:83:c5:d2:96:df:d9:d0:4f:
                    ad:d7
                Exponent: 65537 (0x10001)
        X509v3 extensions:
            X509v3 Subject Alternative Name: 
                DNS:localhost
    Signature Algorithm: sha256WithRSAEncryption
         b3:56:1e:6c:00:74:10:74:01:e6:44:8f:61:f3:db:cb:57:3a:
         e9:20:d7:09:ad:85:29:1f:dd:6e:2c:98:21:7b:46:51:10:56:
         38:10:9b:7b:ad:f4:8c:6c:29:78:13:33:33:c3:17:7d:a6:d3:
         45:1c:25:cf:dd:4b:4e:9e:19:62:86:6b:f8:6b:40:ec:96:09:
         0f:6a:a5:2c:79:3b:1d:b5:87:78:f2:6c:31:1d:01:1e:1e:c1:
         29:14:fe:85:e2:0f:bc:4c:bb:2d:93:be:41:b3:46:4f:ea:a4:
         9d:35:bb:f4:fc:0c:9b:c4:ae:1d:94:76:7c:cc:7c:22:13:2c:
         87:cf:ea:89:3f:de:c1:26:02:6f:68:58:47:df:94:e7:7e:56:
         a8:9c:5e:99:15:d4:c2:d3:2e:a8:9f:d5:61:1c:7d:46:a7:57:
         70:58:31:b7:aa:60:ae:5c:1d:4a:07:54:02:77:a7:f9:a8:b2:
         8a:ca:6a:14:bf:83:e1:2f:e5:28:bf:d7:de:e7:fb:47:bc:f2:
         84:78:11:f9:41:bf:33:d6:c8:17:1a:da:ff:eb:fd:32:75:cd:
         08:47:78:0c:26:16:2e:dc:75:db:e8:44:f8:10:87:b1:94:16:
         eb:c3:29:3d:fb:ae:46:5e:9a:42:4d:40:03:c1:58:50:67:ff:
         e6:77:9c:9a
-----BEGIN CERTIFICATE-----
MIIDrDCCApSgAwIBAgIUIg+VbE0pqOuoSPkW4PefUiw9jHQwDQYJKoZIhvcNAQEL
BQAwgYIxCzAJBgNVBAYTAlVTMRAwDgYDVQQIDAdNb250YW5hMRAwDgYDVQQHDAdC
b3plbWFuMRQwEgYDVQQLDAtFbmdpbmVlcmluZzEYMBYGA1UEAwwPd3d3Lm5vbWF0
Y2guY29tMR8wHQYJKoZIhvcNAQkBFhBpbmZvQHdvbGZzc2wuY29tMB4XDTIxMDYx
NTIyMDIzM1oXDTI0MDMxMTIyMDIzM1owgYIxCzAJBgNVBAYTAlVTMRAwDgYDVQQI
DAdNb250YW5hMRAwDgYDVQQHDAdCb3plbWFuMRQwEgYDVQQLDAtFbmdpbmVlcmlu
ZzEYMBYGA1UEAwwPd3d3Lm5vbWF0Y2guY29tMR8wHQYJKoZIhvcNAQkBFhBpbmZv
QHdvbGZzc2wuY29tMIIBIjANBgkqhkiG9w0BAQEFAAOCAQ8AMIIBCgKCAQEAwJUI
4VdB8nFtt9JFQScBZcZFrvK8JDC4lc4vTtb2HIi8fJ/7qGd//lycUXX3isoH5zUv
j+G9e8AvfKtkqBf8yl17uuAh5XIuby6G2JVz2qwbU7lfP9cZDSVP4WNjUYsLZD+t
Q7ilHFw0s64AoGPF9n8LWWh4c6aMGKkCba/DGQEuuBDjxsxAtGmjRjNph27Euxem
8+jdrXO8ey8htf1mUQy9VLPhbV8cvCNz0QkDiRTSELlkwyrQoZZKvOHUGlvHoMDB
Y3gPRDcwMpaAMiOVoXe6E9KXc+JdJclqDcM5YKS0sGlCQgnp2Ai8MyCzWCKnquvE
4eZhg8XSlt/Z0E+t1wIDAQABoxgwFjAUBgNVHREEDTALgglsb2NhbGhvc3QwDQYJ
KoZIhvcNAQELBQADggEBALNWHmwAdBB0AeZEj2Hz28tXOukg1wmthSkf3W4smCF7
RlEQVjgQm3ut9IxsKXgTMzPDF32m00UcJc/dS06eGWKGa/hrQOyWCQ9qpSx5Ox21
h3jybDEdAR4ewSkU/oXiD7xMuy2TvkGzRk/qpJ01u/T8DJvErh2UdnzMfCITLIfP
6ok/3sEmAm9oWEfflOd+VqicXpkV1MLTLqif1WEcfUanV3BYMbeqYK5cHUoHVAJ3
p/mosorKahS/g+Ev5Si/197n+0e88oR4EflBvzPWyBca2v/r/TJ1zQhHeAwmFi7c
ddvoRPgQh7GUFuvDKT37rkZemkJNQAPBWFBn/+Z3nJo=
-----END CERTIFICATE-----
