Certificate:
    Data:
        Version: 3 (0x2)
        Serial Number:
            71:a9:03:7e:a9:c5:45:28:67:c8:de:a2:78:01:ee:a0:ac:f9:e7:2a
        Signature Algorithm: sha256WithRSAEncryption
        Issuer: C = US, ST = Montana, L = Bozeman, OU = Engineering, CN = www.nomatch.com, emailAddress = info@wolfssl.com
        Validity
            Not Before: Dec 20 23:07:25 2021 GMT
            Not After : Sep 15 23:07:25 2024 GMT
        Subject: C = US, ST = Montana, L = Bozeman, OU = Engineering, CN = www.nomatch.com, emailAddress = info@wolfssl.com
        Subject Public Key Info:
            Public Key Algorithm: rsaEncryption
                RSA Public-Key: (2048 bit)
                Modulus:
                    00:c0:95:08:e1:57:41:f2:71:6d:b7:d2:45:41:27:
                    01:65:c6:45:ae:f2:bc:24:30:b8:95:ce:2f:4e:d6:
                    f6:1c:88:bc:7c:9f:fb:a8:67:7f:fe:5c:9c:51:75:
                    f7:8a:ca:07:e7:35:2f:8f:e1:bd:7b:c0:2f:7c:ab:
                    64:a8:17:fc:ca:5d:7b:ba:e0:21:e5:72:2e:6f:2e:
                    86:d8:95:73:da:ac:1b:53:b9:5f:3f:d7:19:0d:25:
                    4f:e1:63:63:51:8b:0b:64:3f:ad:43:b8:a5:1c:5c:
                    34:b3:ae:00:a0:63:c5:f6:7f:0b:59:68:78:73:a6:
                    8c:18:a9:02:6d:af:c3:19:01:2e:b8:10:e3:c6:cc:
                    40:b4:69:a3:46:33:69:87:6e:c4:bb:17:a6:f3:e8:
                    dd:ad:73:bc:7b:2f:21:b5:fd:66:51:0c:bd:54:b3:
                    e1:6d:5f:1c:bc:23:73:d1:09:03:89:14:d2:10:b9:
                    64:c3:2a:d0:a1:96:4a:bc:e1:d4:1a:5b:c7:a0:c0:
                    c1:63:78:0f:44:37:30:32:96:80:32:23:95:a1:77:
                    ba:13:d2:97:73:e2:5d:25:c9:6a:0d:c3:39:60:a4:
                    b4:b0:69:42:42:09:e9:d8:08:bc:33:20:b3:58:22:
                    a7:aa:eb:c4:e1:e6:61:83:c5:d2:96:df:d9:d0:4f:
                    ad:d7
                Exponent: 65537 (0x10001)
        X509v3 extensions:
            X509v3 Subject Alternative Name: 
                DNS:localhost
    Signature Algorithm: sha256WithRSAEncryption
         ac:1e:a6:79:4b:28:cb:c3:70:f7:66:ab:fb:44:9e:ca:20:b2:
         43:61:93:cf:23:d6:2c:ec:f1:bf:01:1f:0f:f6:4e:08:00:50:
         3c:b0:86:4c:29:7b:6f:f2:2c:e2:9f:47:97:4e:d7:1a:9e:02:
         cb:cd:fa:d1:67:31:f0:99:10:82:d9:e6:53:4a:d6:71:07:10:
         aa:f3:98:15:81:59:5a:2b:41:7f:79:fd:ae:bf:0f:4d:aa:c2:
         68:36:5d:21:d4:25:e6:40:ff:b1:df:dd:eb:bb:ec:0a:04:2c:
         2f:1a:08:39:6f:85:c7:53:39:35:36:13:4c:23:7b:24:d1:f3:
         0b:88:8b:11:94:4c:ad:66:26:6e:d8:30:81:f2:c0:3e:fe:30:
         ab:45:b9:10:88:d4:19:b1:a6:9d:5e:c1:3f:b0:8b:eb:44:fd:
         ae:f0:46:44:23:04:f6:59:02:f4:66:47:15:07:7a:ed:41:a2:
         11:46:87:78:06:5a:79:ef:58:68:8c:ae:81:34:c6:96:d5:64:
         c8:45:31:a0:e9:0c:92:1e:90:67:c8:66:a4:df:70:7b:5d:ee:
         b4:25:dc:8e:de:21:77:28:c9:c8:df:45:2c:6c:59:e8:5d:6f:
         95:a6:b6:58:df:57:65:6b:5f:f3:f5:6e:e7:ad:71:04:c6:63:
         fd:61:02:65
-----BEGIN CERTIFICATE-----
MIIDrDCCApSgAwIBAgIUcakDfqnFRShnyN6ieAHuoKz55yowDQYJKoZIhvcNAQEL
BQAwgYIxCzAJBgNVBAYTAlVTMRAwDgYDVQQIDAdNb250YW5hMRAwDgYDVQQHDAdC
b3plbWFuMRQwEgYDVQQLDAtFbmdpbmVlcmluZzEYMBYGA1UEAwwPd3d3Lm5vbWF0
Y2guY29tMR8wHQYJKoZIhvcNAQkBFhBpbmZvQHdvbGZzc2wuY29tMB4XDTIxMTIy
MDIzMDcyNVoXDTI0MDkxNTIzMDcyNVowgYIxCzAJBgNVBAYTAlVTMRAwDgYDVQQI
DAdNb250YW5hMRAwDgYDVQQHDAdCb3plbWFuMRQwEgYDVQQLDAtFbmdpbmVlcmlu
ZzEYMBYGA1UEAwwPd3d3Lm5vbWF0Y2guY29tMR8wHQYJKoZIhvcNAQkBFhBpbmZv
QHdvbGZzc2wuY29tMIIBIjANBgkqhkiG9w0BAQEFAAOCAQ8AMIIBCgKCAQEAwJUI
4VdB8nFtt9JFQScBZcZFrvK8JDC4lc4vTtb2HIi8fJ/7qGd//lycUXX3isoH5zUv
j+G9e8AvfKtkqBf8yl17uuAh5XIuby6G2JVz2qwbU7lfP9cZDSVP4WNjUYsLZD+t
Q7ilHFw0s64AoGPF9n8LWWh4c6aMGKkCba/DGQEuuBDjxsxAtGmjRjNph27Euxem
8+jdrXO8ey8htf1mUQy9VLPhbV8cvCNz0QkDiRTSELlkwyrQoZZKvOHUGlvHoMDB
Y3gPRDcwMpaAMiOVoXe6E9KXc+JdJclqDcM5YKS0sGlCQgnp2Ai8MyCzWCKnquvE
4eZhg8XSlt/Z0E+t1wIDAQABoxgwFjAUBgNVHREEDTALgglsb2NhbGhvc3QwDQYJ
KoZIhvcNAQELBQADggEBAKwepnlLKMvDcPdmq/tEnsogskNhk88j1izs8b8BHw/2
TggAUDywhkwpe2/yLOKfR5dO1xqeAsvN+tFnMfCZEILZ5lNK1nEHEKrzmBWBWVor
QX95/a6/D02qwmg2XSHUJeZA/7Hf3eu77AoELC8aCDlvhcdTOTU2E0wjeyTR8wuI
ixGUTK1mJm7YMIHywD7+MKtFuRCI1Bmxpp1ewT+wi+tE/a7wRkQjBPZZAvRmRxUH
eu1BohFGh3gGWnnvWGiMroE0xpbVZMhFMaDpDJIekGfIZqTfcHtd7rQl3I7eIXco
ycjfRSxsWehdb5WmtljfV2VrX/P1buetcQTGY/1hAmU=
-----END CERTIFICATE-----
