Certificate:
    Data:
        Version: 3 (0x2)
        Serial Number: 2 (0x2)
        Signature Algorithm: sha256WithRSAEncryption
        Issuer: C = US, ST = Montana, L = Bozeman, O = Sawtooth, OU = Consulting, CN = www.wolfssl.com, emailAddress = info@wolfssl.com
        Validity
            Not Before: Jun 19 13:23:41 2020 GMT
            Not After : Mar 16 13:23:41 2023 GMT
        Subject: C = US, ST = Montana, L = Bozeman, O = wolfSSL, OU = testing duplicate policy, CN = www.wolfssl.com, emailAddress = info@wolfssl.com
        Subject Public Key Info:
            Public Key Algorithm: rsaEncryption
                RSA Public-Key: (2048 bit)
                Modulus:
                    00:c0:95:08:e1:57:41:f2:71:6d:b7:d2:45:41:27:
                    01:65:c6:45:ae:f2:bc:24:30:b8:95:ce:2f:4e:d6:
                    f6:1c:88:bc:7c:9f:fb:a8:67:7f:fe:5c:9c:51:75:
                    f7:8a:ca:07:e7:35:2f:8f:e1:bd:7b:c0:2f:7c:ab:
                    64:a8:17:fc:ca:5d:7b:ba:e0:21:e5:72:2e:6f:2e:
                    86:d8:95:73:da:ac:1b:53:b9:5f:3f:d7:19:0d:25:
                    4f:e1:63:63:51:8b:0b:64:3f:ad:43:b8:a5:1c:5c:
                    34:b3:ae:00:a0:63:c5:f6:7f:0b:59:68:78:73:a6:
                    8c:18:a9:02:6d:af:c3:19:01:2e:b8:10:e3:c6:cc:
                    40:b4:69:a3:46:33:69:87:6e:c4:bb:17:a6:f3:e8:
                    dd:ad:73:bc:7b:2f:21:b5:fd:66:51:0c:bd:54:b3:
                    e1:6d:5f:1c:bc:23:73:d1:09:03:89:14:d2:10:b9:
                    64:c3:2a:d0:a1:96:4a:bc:e1:d4:1a:5b:c7:a0:c0:
                    c1:63:78:0f:44:37:30:32:96:80:32:23:95:a1:77:
                    ba:13:d2:97:73:e2:5d:25:c9:6a:0d:c3:39:60:a4:
                    b4:b0:69:42:42:09:e9:d8:08:bc:33:20:b3:58:22:
                    a7:aa:eb:c4:e1:e6:61:83:c5:d2:96:df:d9:d0:4f:
                    ad:d7
                Exponent: 65537 (0x10001)
        X509v3 extensions:
            X509v3 Subject Key Identifier: 
                B3:11:32:C9:92:98:84:E2:C9:F8:D0:3B:6E:03:42:CA:1F:0E:8E:3C
            X509v3 Authority Key Identifier: 
                keyid:27:8E:67:11:74:C3:26:1D:3F:ED:33:63:B3:A4:D8:1D:30:E5:E8:D5
                DirName:/C=US/ST=Montana/L=Bozeman/O=Sawtooth/OU=Consulting/CN=www.wolfssl.com/emailAddress=info@wolfssl.com
                serial:5E:BA:A4:F4:B1:F7:48:25:E3:5F:9B:DA:A1:13:ED:D5:2B:03:67:15

            X509v3 Basic Constraints: 
                CA:FALSE
            X509v3 Certificate Policies: 
                Policy: 1.2.3.4
                Policy: 1.2.3.4
                  CPS: www.wolfssl.com
                  User Notice:
                    Explicit Text: Test of duplicate OIDs with different qualifiers

    Signature Algorithm: sha256WithRSAEncryption
         3f:d6:75:ae:f0:d6:16:76:48:d0:f7:8c:26:81:ee:28:a5:fa:
         b9:69:68:07:6f:58:58:0a:8d:cb:5b:1a:52:d8:be:c0:90:79:
         2c:9d:5a:69:d4:1f:5d:51:03:25:e9:52:0d:6b:1f:ad:41:91:
         2b:b1:fa:a9:be:5b:a1:71:ee:ac:8a:ab:28:77:1b:10:29:8f:
         fd:4c:ee:19:54:00:84:e2:dc:f6:36:28:f8:9e:e0:30:e2:04:
         6f:25:11:1c:37:62:04:25:59:33:23:aa:72:5c:46:bf:08:00:
         87:bb:fc:48:11:72:f5:37:10:9f:b2:37:c7:a9:88:58:82:9f:
         f8:aa:5f:2d:83:19:63:ca:f6:bd:35:62:e7:02:82:14:21:6f:
         dd:cf:53:87:ca:99:7a:3a:fd:23:fa:c4:d2:96:fb:40:4e:63:
         40:44:ce:0d:b1:50:13:15:c7:78:79:27:00:d9:9c:c5:2e:6b:
         b3:8e:3d:6e:6b:bc:d9:92:e9:44:3e:24:2c:6b:f9:07:0e:83:
         f5:29:21:94:46:ab:3c:ec:cb:e9:9c:d5:86:81:0f:33:de:72:
         bf:8b:4d:76:33:bc:97:5f:09:ba:e6:94:dc:08:54:55:90:f3:
         7c:39:96:c0:53:6e:40:e6:18:79:78:6b:26:7d:28:55:00:72:
         7e:41:d7:f1
-----BEGIN CERTIFICATE-----
MIIFMTCCBBmgAwIBAgIBAjANBgkqhkiG9w0BAQsFADCBlDELMAkGA1UEBhMCVVMx
EDAOBgNVBAgMB01vbnRhbmExEDAOBgNVBAcMB0JvemVtYW4xETAPBgNVBAoMCFNh
d3Rvb3RoMRMwEQYDVQQLDApDb25zdWx0aW5nMRgwFgYDVQQDDA93d3cud29sZnNz
bC5jb20xHzAdBgkqhkiG9w0BCQEWEGluZm9Ad29sZnNzbC5jb20wHhcNMjAwNjE5
MTMyMzQxWhcNMjMwMzE2MTMyMzQxWjCBoTELMAkGA1UEBhMCVVMxEDAOBgNVBAgM
B01vbnRhbmExEDAOBgNVBAcMB0JvemVtYW4xEDAOBgNVBAoMB3dvbGZTU0wxITAf
BgNVBAsMGHRlc3RpbmcgZHVwbGljYXRlIHBvbGljeTEYMBYGA1UEAwwPd3d3Lndv
bGZzc2wuY29tMR8wHQYJKoZIhvcNAQkBFhBpbmZvQHdvbGZzc2wuY29tMIIBIjAN
BgkqhkiG9w0BAQEFAAOCAQ8AMIIBCgKCAQEAwJUI4VdB8nFtt9JFQScBZcZFrvK8
JDC4lc4vTtb2HIi8fJ/7qGd//lycUXX3isoH5zUvj+G9e8AvfKtkqBf8yl17uuAh
5XIuby6G2JVz2qwbU7lfP9cZDSVP4WNjUYsLZD+tQ7ilHFw0s64AoGPF9n8LWWh4
c6aMGKkCba/DGQEuuBDjxsxAtGmjRjNph27Euxem8+jdrXO8ey8htf1mUQy9VLPh
bV8cvCNz0QkDiRTSELlkwyrQoZZKvOHUGlvHoMDBY3gPRDcwMpaAMiOVoXe6E9KX
c+JdJclqDcM5YKS0sGlCQgnp2Ai8MyCzWCKnquvE4eZhg8XSlt/Z0E+t1wIDAQAB
o4IBfTCCAXkwHQYDVR0OBBYEFLMRMsmSmITiyfjQO24DQsofDo48MIHUBgNVHSME
gcwwgcmAFCeOZxF0wyYdP+0zY7Ok2B0w5ejVoYGapIGXMIGUMQswCQYDVQQGEwJV
UzEQMA4GA1UECAwHTW9udGFuYTEQMA4GA1UEBwwHQm96ZW1hbjERMA8GA1UECgwI
U2F3dG9vdGgxEzARBgNVBAsMCkNvbnN1bHRpbmcxGDAWBgNVBAMMD3d3dy53b2xm
c3NsLmNvbTEfMB0GCSqGSIb3DQEJARYQaW5mb0B3b2xmc3NsLmNvbYIUXrqk9LH3
SCXjX5vaoRPt1SsDZxUwCQYDVR0TBAIwADB2BgNVHSAEbzBtMAUGAyoDBDBkBgMq
AwQwXTAbBggrBgEFBQcCARYPd3d3LndvbGZzc2wuY29tMD4GCCsGAQUFBwICMDIa
MFRlc3Qgb2YgZHVwbGljYXRlIE9JRHMgd2l0aCBkaWZmZXJlbnQgcXVhbGlmaWVy
czANBgkqhkiG9w0BAQsFAAOCAQEAP9Z1rvDWFnZI0PeMJoHuKKX6uWloB29YWAqN
y1saUti+wJB5LJ1aadQfXVEDJelSDWsfrUGRK7H6qb5boXHurIqrKHcbECmP/Uzu
GVQAhOLc9jYo+J7gMOIEbyURHDdiBCVZMyOqclxGvwgAh7v8SBFy9TcQn7I3x6mI
WIKf+KpfLYMZY8r2vTVi5wKCFCFv3c9Th8qZejr9I/rE0pb7QE5jQETODbFQExXH
eHknANmcxS5rs449bmu82ZLpRD4kLGv5Bw6D9SkhlEarPOzL6ZzVhoEPM95yv4tN
djO8l18JuuaU3AhUVZDzfDmWwFNuQOYYeXhrJn0oVQByfkHX8Q==
-----END CERTIFICATE-----
Certificate:
    Data:
        Version: 3 (0x2)
        Serial Number:
            5e:ba:a4:f4:b1:f7:48:25:e3:5f:9b:da:a1:13:ed:d5:2b:03:67:15
        Signature Algorithm: sha256WithRSAEncryption
        Issuer: C = US, ST = Montana, L = Bozeman, O = Sawtooth, OU = Consulting, CN = www.wolfssl.com, emailAddress = info@wolfssl.com
        Validity
            Not Before: Jun 19 13:23:41 2020 GMT
            Not After : Mar 16 13:23:41 2023 GMT
        Subject: C = US, ST = Montana, L = Bozeman, O = Sawtooth, OU = Consulting, CN = www.wolfssl.com, emailAddress = info@wolfssl.com
        Subject Public Key Info:
            Public Key Algorithm: rsaEncryption
                RSA Public-Key: (2048 bit)
                Modulus:
                    00:bf:0c:ca:2d:14:b2:1e:84:42:5b:cd:38:1f:4a:
                    f2:4d:75:10:f1:b6:35:9f:df:ca:7d:03:98:d3:ac:
                    de:03:66:ee:2a:f1:d8:b0:7d:6e:07:54:0b:10:98:
                    21:4d:80:cb:12:20:e7:cc:4f:de:45:7d:c9:72:77:
                    32:ea:ca:90:bb:69:52:10:03:2f:a8:f3:95:c5:f1:
                    8b:62:56:1b:ef:67:6f:a4:10:41:95:ad:0a:9b:e3:
                    a5:c0:b0:d2:70:76:50:30:5b:a8:e8:08:2c:7c:ed:
                    a7:a2:7a:8d:38:29:1c:ac:c7:ed:f2:7c:95:b0:95:
                    82:7d:49:5c:38:cd:77:25:ef:bd:80:75:53:94:3c:
                    3d:ca:63:5b:9f:15:b5:d3:1d:13:2f:19:d1:3c:db:
                    76:3a:cc:b8:7d:c9:e5:c2:d7:da:40:6f:d8:21:dc:
                    73:1b:42:2d:53:9c:fe:1a:fc:7d:ab:7a:36:3f:98:
                    de:84:7c:05:67:ce:6a:14:38:87:a9:f1:8c:b5:68:
                    cb:68:7f:71:20:2b:f5:a0:63:f5:56:2f:a3:26:d2:
                    b7:6f:b1:5a:17:d7:38:99:08:fe:93:58:6f:fe:c3:
                    13:49:08:16:0b:a7:4d:67:00:52:31:67:23:4e:98:
                    ed:51:45:1d:b9:04:d9:0b:ec:d8:28:b3:4b:bd:ed:
                    36:79
                Exponent: 65537 (0x10001)
        X509v3 extensions:
            X509v3 Subject Key Identifier: 
                27:8E:67:11:74:C3:26:1D:3F:ED:33:63:B3:A4:D8:1D:30:E5:E8:D5
            X509v3 Authority Key Identifier: 
                keyid:27:8E:67:11:74:C3:26:1D:3F:ED:33:63:B3:A4:D8:1D:30:E5:E8:D5
                DirName:/C=US/ST=Montana/L=Bozeman/O=Sawtooth/OU=Consulting/CN=www.wolfssl.com/emailAddress=info@wolfssl.com
                serial:5E:BA:A4:F4:B1:F7:48:25:E3:5F:9B:DA:A1:13:ED:D5:2B:03:67:15

            X509v3 Basic Constraints: 
                CA:TRUE
            X509v3 Subject Alternative Name: 
                DNS:example.com, IP Address:127.0.0.1
            X509v3 Extended Key Usage: 
                TLS Web Server Authentication, TLS Web Client Authentication
    Signature Algorithm: sha256WithRSAEncryption
         b9:ed:94:3e:00:73:2d:a5:d1:04:b3:fb:dc:f0:b7:0d:3d:ad:
         96:74:4c:92:67:ad:6d:7c:e2:99:6a:33:ca:b2:0f:04:5a:a5:
         67:f8:e3:0b:3d:f5:d0:5b:1e:20:52:12:92:28:ea:31:a3:51:
         9e:8b:d2:39:e4:25:ea:61:61:41:16:2d:54:50:d3:fb:d0:34:
         00:10:f1:7b:bc:f0:08:a7:f5:27:5e:7e:40:9d:99:b0:d3:31:
         11:c3:9d:a9:51:a0:17:cf:83:2c:55:84:e0:d5:92:a0:05:3a:
         9f:b8:75:f8:1b:e5:f7:a4:6c:e9:aa:25:8b:19:93:46:1f:3f:
         33:af:47:29:cf:7b:8b:59:27:eb:d7:4f:cb:33:19:fa:5f:ee:
         d8:13:e9:0c:07:ad:3b:c0:7f:10:d7:e4:ed:e8:db:16:e1:1f:
         a4:7f:16:3c:bd:d7:11:f2:d4:3a:a9:9b:95:e1:39:51:99:eb:
         5b:65:46:ef:63:84:73:95:23:b8:bf:b5:f6:4d:12:71:f7:ff:
         33:aa:4a:8c:65:73:73:89:69:df:a6:dc:a4:91:ff:ae:c7:28:
         93:b5:1a:de:a9:8f:2b:30:85:83:8b:99:82:ca:b3:7c:11:10:
         88:9d:8e:6c:2c:f3:05:6f:cb:80:85:16:b7:ed:e4:68:fb:b6:
         b6:31:8a:7d
-----BEGIN CERTIFICATE-----
MIIE/zCCA+egAwIBAgIUXrqk9LH3SCXjX5vaoRPt1SsDZxUwDQYJKoZIhvcNAQEL
BQAwgZQxCzAJBgNVBAYTAlVTMRAwDgYDVQQIDAdNb250YW5hMRAwDgYDVQQHDAdC
b3plbWFuMREwDwYDVQQKDAhTYXd0b290aDETMBEGA1UECwwKQ29uc3VsdGluZzEY
MBYGA1UEAwwPd3d3LndvbGZzc2wuY29tMR8wHQYJKoZIhvcNAQkBFhBpbmZvQHdv
bGZzc2wuY29tMB4XDTIwMDYxOTEzMjM0MVoXDTIzMDMxNjEzMjM0MVowgZQxCzAJ
BgNVBAYTAlVTMRAwDgYDVQQIDAdNb250YW5hMRAwDgYDVQQHDAdCb3plbWFuMREw
DwYDVQQKDAhTYXd0b290aDETMBEGA1UECwwKQ29uc3VsdGluZzEYMBYGA1UEAwwP
d3d3LndvbGZzc2wuY29tMR8wHQYJKoZIhvcNAQkBFhBpbmZvQHdvbGZzc2wuY29t
MIIBIjANBgkqhkiG9w0BAQEFAAOCAQ8AMIIBCgKCAQEAvwzKLRSyHoRCW804H0ry
TXUQ8bY1n9/KfQOY06zeA2buKvHYsH1uB1QLEJghTYDLEiDnzE/eRX3Jcncy6sqQ
u2lSEAMvqPOVxfGLYlYb72dvpBBBla0Km+OlwLDScHZQMFuo6AgsfO2nonqNOCkc
rMft8nyVsJWCfUlcOM13Je+9gHVTlDw9ymNbnxW10x0TLxnRPNt2Osy4fcnlwtfa
QG/YIdxzG0ItU5z+Gvx9q3o2P5jehHwFZ85qFDiHqfGMtWjLaH9xICv1oGP1Vi+j
JtK3b7FaF9c4mQj+k1hv/sMTSQgWC6dNZwBSMWcjTpjtUUUduQTZC+zYKLNLve02
eQIDAQABo4IBRTCCAUEwHQYDVR0OBBYEFCeOZxF0wyYdP+0zY7Ok2B0w5ejVMIHU
BgNVHSMEgcwwgcmAFCeOZxF0wyYdP+0zY7Ok2B0w5ejVoYGapIGXMIGUMQswCQYD
VQQGEwJVUzEQMA4GA1UECAwHTW9udGFuYTEQMA4GA1UEBwwHQm96ZW1hbjERMA8G
A1UECgwIU2F3dG9vdGgxEzARBgNVBAsMCkNvbnN1bHRpbmcxGDAWBgNVBAMMD3d3
dy53b2xmc3NsLmNvbTEfMB0GCSqGSIb3DQEJARYQaW5mb0B3b2xmc3NsLmNvbYIU
Xrqk9LH3SCXjX5vaoRPt1SsDZxUwDAYDVR0TBAUwAwEB/zAcBgNVHREEFTATggtl
eGFtcGxlLmNvbYcEfwAAATAdBgNVHSUEFjAUBggrBgEFBQcDAQYIKwYBBQUHAwIw
DQYJKoZIhvcNAQELBQADggEBALntlD4Acy2l0QSz+9zwtw09rZZ0TJJnrW184plq
M8qyDwRapWf44ws99dBbHiBSEpIo6jGjUZ6L0jnkJephYUEWLVRQ0/vQNAAQ8Xu8
8Ain9SdefkCdmbDTMRHDnalRoBfPgyxVhODVkqAFOp+4dfgb5fekbOmqJYsZk0Yf
PzOvRynPe4tZJ+vXT8szGfpf7tgT6QwHrTvAfxDX5O3o2xbhH6R/Fjy91xHy1Dqp
m5XhOVGZ61tlRu9jhHOVI7i/tfZNEnH3/zOqSoxlc3OJad+m3KSR/67HKJO1Gt6p
jyswhYOLmYLKs3wREIidjmws8wVvy4CFFrft5Gj7trYxin0=
-----END CERTIFICATE-----
