Certificate:
    Data:
        Version: 3 (0x2)
        Serial Number:
            26:94:27:18:12:1d:80:0a:63:2a:be:1a:73:ac:ec:01:c0:70:18:fc
        Signature Algorithm: sha256WithRSAEncryption
        Issuer: C = US, ST = Montana, L = Bozeman, OU = Engineering, CN = www.nomatch.com, emailAddress = info@wolfssl.com
        Validity
            Not Before: Dec 18 21:25:31 2024 GMT
            Not After : Sep 14 21:25:31 2027 GMT
        Subject: C = US, ST = Montana, L = Bozeman, OU = Engineering, CN = www.nomatch.com, emailAddress = info@wolfssl.com
        Subject Public Key Info:
            Public Key Algorithm: rsaEncryption
                Public-Key: (2048 bit)
                Modulus:
                    00:c0:95:08:e1:57:41:f2:71:6d:b7:d2:45:41:27:
                    01:65:c6:45:ae:f2:bc:24:30:b8:95:ce:2f:4e:d6:
                    f6:1c:88:bc:7c:9f:fb:a8:67:7f:fe:5c:9c:51:75:
                    f7:8a:ca:07:e7:35:2f:8f:e1:bd:7b:c0:2f:7c:ab:
                    64:a8:17:fc:ca:5d:7b:ba:e0:21:e5:72:2e:6f:2e:
                    86:d8:95:73:da:ac:1b:53:b9:5f:3f:d7:19:0d:25:
                    4f:e1:63:63:51:8b:0b:64:3f:ad:43:b8:a5:1c:5c:
                    34:b3:ae:00:a0:63:c5:f6:7f:0b:59:68:78:73:a6:
                    8c:18:a9:02:6d:af:c3:19:01:2e:b8:10:e3:c6:cc:
                    40:b4:69:a3:46:33:69:87:6e:c4:bb:17:a6:f3:e8:
                    dd:ad:73:bc:7b:2f:21:b5:fd:66:51:0c:bd:54:b3:
                    e1:6d:5f:1c:bc:23:73:d1:09:03:89:14:d2:10:b9:
                    64:c3:2a:d0:a1:96:4a:bc:e1:d4:1a:5b:c7:a0:c0:
                    c1:63:78:0f:44:37:30:32:96:80:32:23:95:a1:77:
                    ba:13:d2:97:73:e2:5d:25:c9:6a:0d:c3:39:60:a4:
                    b4:b0:69:42:42:09:e9:d8:08:bc:33:20:b3:58:22:
                    a7:aa:eb:c4:e1:e6:61:83:c5:d2:96:df:d9:d0:4f:
                    ad:d7
                Exponent: 65537 (0x10001)
        X509v3 extensions:
            X509v3 Subject Alternative Name: 
                DNS:localhost
            X509v3 Subject Key Identifier: 
                B3:11:32:C9:92:98:84:E2:C9:F8:D0:3B:6E:03:42:CA:1F:0E:8E:3C
    Signature Algorithm: sha256WithRSAEncryption
    Signature Value:
        34:f8:7f:75:98:f3:6f:2b:bb:41:52:0d:20:52:5a:10:30:ae:
        08:37:0e:5c:0f:8d:c0:82:c2:94:23:5b:4e:f7:1e:91:c9:fe:
        93:a3:2d:9c:89:e0:cc:ec:dd:10:6b:6b:87:1f:5c:bc:b2:b7:
        9a:5c:f2:74:fa:a1:14:4c:59:6b:ed:cc:af:db:d5:88:35:27:
        26:85:b1:ed:44:dd:70:63:77:f6:55:f5:a0:78:ed:d8:ee:98:
        16:c9:d8:4c:97:0d:7b:e2:d3:0c:38:4d:98:69:0c:da:b5:5e:
        f0:98:ee:85:f5:95:68:df:00:ca:16:b0:bf:99:6b:f8:03:f7:
        ce:83:bb:1a:19:30:10:6c:23:4d:97:bb:09:a8:86:bb:c9:3f:
        12:fd:77:64:58:a4:6f:42:db:2c:0c:60:91:78:fd:f4:01:6f:
        46:3e:52:3c:f0:93:b2:68:33:86:1f:f7:d2:24:fc:81:6f:66:
        3b:73:b4:00:5a:23:8a:c6:91:de:54:f9:bd:48:17:63:c4:d2:
        ee:bb:4b:15:9a:01:db:4a:66:30:0b:28:38:3c:84:52:9e:94:
        15:85:d5:eb:45:df:07:19:c7:cc:23:8d:51:aa:c4:73:8b:86:
        55:5e:ab:9c:d5:79:0d:d3:b8:68:94:d7:df:85:db:eb:f4:37:
        48:b3:4f:e7
-----BEGIN CERTIFICATE-----
MIIDyzCCArOgAwIBAgIUJpQnGBIdgApjKr4ac6zsAcBwGPwwDQYJKoZIhvcNAQEL
BQAwgYIxCzAJBgNVBAYTAlVTMRAwDgYDVQQIDAdNb250YW5hMRAwDgYDVQQHDAdC
b3plbWFuMRQwEgYDVQQLDAtFbmdpbmVlcmluZzEYMBYGA1UEAwwPd3d3Lm5vbWF0
Y2guY29tMR8wHQYJKoZIhvcNAQkBFhBpbmZvQHdvbGZzc2wuY29tMB4XDTI0MTIx
ODIxMjUzMVoXDTI3MDkxNDIxMjUzMVowgYIxCzAJBgNVBAYTAlVTMRAwDgYDVQQI
DAdNb250YW5hMRAwDgYDVQQHDAdCb3plbWFuMRQwEgYDVQQLDAtFbmdpbmVlcmlu
ZzEYMBYGA1UEAwwPd3d3Lm5vbWF0Y2guY29tMR8wHQYJKoZIhvcNAQkBFhBpbmZv
QHdvbGZzc2wuY29tMIIBIjANBgkqhkiG9w0BAQEFAAOCAQ8AMIIBCgKCAQEAwJUI
4VdB8nFtt9JFQScBZcZFrvK8JDC4lc4vTtb2HIi8fJ/7qGd//lycUXX3isoH5zUv
j+G9e8AvfKtkqBf8yl17uuAh5XIuby6G2JVz2qwbU7lfP9cZDSVP4WNjUYsLZD+t
Q7ilHFw0s64AoGPF9n8LWWh4c6aMGKkCba/DGQEuuBDjxsxAtGmjRjNph27Euxem
8+jdrXO8ey8htf1mUQy9VLPhbV8cvCNz0QkDiRTSELlkwyrQoZZKvOHUGlvHoMDB
Y3gPRDcwMpaAMiOVoXe6E9KXc+JdJclqDcM5YKS0sGlCQgnp2Ai8MyCzWCKnquvE
4eZhg8XSlt/Z0E+t1wIDAQABozcwNTAUBgNVHREEDTALgglsb2NhbGhvc3QwHQYD
VR0OBBYEFLMRMsmSmITiyfjQO24DQsofDo48MA0GCSqGSIb3DQEBCwUAA4IBAQA0
+H91mPNvK7tBUg0gUloQMK4INw5cD43AgsKUI1tO9x6Ryf6Toy2cieDM7N0Qa2uH
H1y8sreaXPJ0+qEUTFlr7cyv29WINScmhbHtRN1wY3f2VfWgeO3Y7pgWydhMlw17
4tMMOE2YaQzatV7wmO6F9ZVo3wDKFrC/mWv4A/fOg7saGTAQbCNNl7sJqIa7yT8S
/XdkWKRvQtssDGCReP30AW9GPlI88JOyaDOGH/fSJPyBb2Y7c7QAWiOKxpHeVPm9
SBdjxNLuu0sVmgHbSmYwCyg4PIRSnpQVhdXrRd8HGcfMI41RqsRzi4ZVXquc1XkN
07holNffhdvr9DdIs0/n
-----END CERTIFICATE-----
