Certificate:
    Data:
        Version: 3 (0x2)
        Serial Number:
            2a:28:73:f4:22:96:4c:a2:52:a0:5f:54:72:35:38:8c:f7:49:98:9b
        Signature Algorithm: sha256WithRSAEncryption
        Issuer: C = US, ST = Montana, L = Bozeman, OU = Engineering, CN = www.nomatch.com, emailAddress = info@wolfssl.com
        Validity
            Not Before: Dec 18 23:11:23 2024 GMT
            Not After : Sep 14 23:11:23 2027 GMT
        Subject: C = US, ST = Montana, L = Bozeman, OU = Engineering, CN = www.nomatch.com, emailAddress = info@wolfssl.com
        Subject Public Key Info:
            Public Key Algorithm: rsaEncryption
                Public-Key: (2048 bit)
                Modulus:
                    00:c0:95:08:e1:57:41:f2:71:6d:b7:d2:45:41:27:
                    01:65:c6:45:ae:f2:bc:24:30:b8:95:ce:2f:4e:d6:
                    f6:1c:88:bc:7c:9f:fb:a8:67:7f:fe:5c:9c:51:75:
                    f7:8a:ca:07:e7:35:2f:8f:e1:bd:7b:c0:2f:7c:ab:
                    64:a8:17:fc:ca:5d:7b:ba:e0:21:e5:72:2e:6f:2e:
                    86:d8:95:73:da:ac:1b:53:b9:5f:3f:d7:19:0d:25:
                    4f:e1:63:63:51:8b:0b:64:3f:ad:43:b8:a5:1c:5c:
                    34:b3:ae:00:a0:63:c5:f6:7f:0b:59:68:78:73:a6:
                    8c:18:a9:02:6d:af:c3:19:01:2e:b8:10:e3:c6:cc:
                    40:b4:69:a3:46:33:69:87:6e:c4:bb:17:a6:f3:e8:
                    dd:ad:73:bc:7b:2f:21:b5:fd:66:51:0c:bd:54:b3:
                    e1:6d:5f:1c:bc:23:73:d1:09:03:89:14:d2:10:b9:
                    64:c3:2a:d0:a1:96:4a:bc:e1:d4:1a:5b:c7:a0:c0:
                    c1:63:78:0f:44:37:30:32:96:80:32:23:95:a1:77:
                    ba:13:d2:97:73:e2:5d:25:c9:6a:0d:c3:39:60:a4:
                    b4:b0:69:42:42:09:e9:d8:08:bc:33:20:b3:58:22:
                    a7:aa:eb:c4:e1:e6:61:83:c5:d2:96:df:d9:d0:4f:
                    ad:d7
                Exponent: 65537 (0x10001)
        X509v3 extensions:
            X509v3 Subject Alternative Name: 
                DNS:www.nomatch.com
            X509v3 Subject Key Identifier: 
                B3:11:32:C9:92:98:84:E2:C9:F8:D0:3B:6E:03:42:CA:1F:0E:8E:3C
    Signature Algorithm: sha256WithRSAEncryption
    Signature Value:
        a0:80:d8:92:67:d6:c0:f0:21:39:cd:e9:66:56:bd:ce:76:95:
        41:99:ca:4f:ed:5a:1f:c4:74:87:27:67:56:a6:15:39:65:2d:
        1c:d7:04:99:2c:05:cf:b0:73:8a:19:63:5c:17:f6:07:e0:fd:
        6d:35:bf:1e:99:7e:3b:7a:32:36:9f:df:cd:c0:1b:cb:95:57:
        bb:d0:3a:5a:7b:ec:d5:1c:fc:72:64:05:c9:ae:1a:f3:77:1a:
        04:c7:c5:b8:a8:d2:9e:8f:6c:40:50:af:d1:2a:07:23:5a:eb:
        50:29:e7:48:27:9d:f5:d3:6c:1e:c8:21:e1:04:0c:0c:0e:95:
        67:8c:9d:8c:c4:a5:be:50:fc:d6:76:12:cf:6d:fb:32:45:f5:
        75:97:50:21:cd:57:c3:9c:20:18:38:a1:92:9e:2e:36:02:10:
        c2:c3:a5:52:32:7e:d1:b6:98:86:d2:5b:63:b7:ef:0f:12:c4:
        96:92:a7:ca:41:42:c0:dd:24:f5:e1:9f:68:bc:fc:ae:23:98:
        0e:93:7b:52:ad:ff:e4:f4:45:af:9f:7b:5d:db:0b:60:fa:56:
        62:3d:71:a2:52:59:51:87:4a:55:f6:bb:fb:04:bd:e1:3b:48:
        a4:20:37:40:03:f6:56:6e:22:af:c9:89:3a:a7:d0:b4:80:e9:
        4b:9c:e0:84
-----BEGIN CERTIFICATE-----
MIID0TCCArmgAwIBAgIUKihz9CKWTKJSoF9UcjU4jPdJmJswDQYJKoZIhvcNAQEL
BQAwgYIxCzAJBgNVBAYTAlVTMRAwDgYDVQQIDAdNb250YW5hMRAwDgYDVQQHDAdC
b3plbWFuMRQwEgYDVQQLDAtFbmdpbmVlcmluZzEYMBYGA1UEAwwPd3d3Lm5vbWF0
Y2guY29tMR8wHQYJKoZIhvcNAQkBFhBpbmZvQHdvbGZzc2wuY29tMB4XDTI0MTIx
ODIzMTEyM1oXDTI3MDkxNDIzMTEyM1owgYIxCzAJBgNVBAYTAlVTMRAwDgYDVQQI
DAdNb250YW5hMRAwDgYDVQQHDAdCb3plbWFuMRQwEgYDVQQLDAtFbmdpbmVlcmlu
ZzEYMBYGA1UEAwwPd3d3Lm5vbWF0Y2guY29tMR8wHQYJKoZIhvcNAQkBFhBpbmZv
QHdvbGZzc2wuY29tMIIBIjANBgkqhkiG9w0BAQEFAAOCAQ8AMIIBCgKCAQEAwJUI
4VdB8nFtt9JFQScBZcZFrvK8JDC4lc4vTtb2HIi8fJ/7qGd//lycUXX3isoH5zUv
j+G9e8AvfKtkqBf8yl17uuAh5XIuby6G2JVz2qwbU7lfP9cZDSVP4WNjUYsLZD+t
Q7ilHFw0s64AoGPF9n8LWWh4c6aMGKkCba/DGQEuuBDjxsxAtGmjRjNph27Euxem
8+jdrXO8ey8htf1mUQy9VLPhbV8cvCNz0QkDiRTSELlkwyrQoZZKvOHUGlvHoMDB
Y3gPRDcwMpaAMiOVoXe6E9KXc+JdJclqDcM5YKS0sGlCQgnp2Ai8MyCzWCKnquvE
4eZhg8XSlt/Z0E+t1wIDAQABoz0wOzAaBgNVHREEEzARgg93d3cubm9tYXRjaC5j
b20wHQYDVR0OBBYEFLMRMsmSmITiyfjQO24DQsofDo48MA0GCSqGSIb3DQEBCwUA
A4IBAQCggNiSZ9bA8CE5zelmVr3OdpVBmcpP7VofxHSHJ2dWphU5ZS0c1wSZLAXP
sHOKGWNcF/YH4P1tNb8emX47ejI2n9/NwBvLlVe70Dpae+zVHPxyZAXJrhrzdxoE
x8W4qNKej2xAUK/RKgcjWutQKedIJ53102weyCHhBAwMDpVnjJ2MxKW+UPzWdhLP
bfsyRfV1l1AhzVfDnCAYOKGSni42AhDCw6VSMn7RtpiG0ltjt+8PEsSWkqfKQULA
3ST14Z9ovPyuI5gOk3tSrf/k9EWvn3td2wtg+lZiPXGiUllRh0pV9rv7BL3hO0ik
IDdAA/ZWbiKvyYk6p9C0gOlLnOCE
-----END CERTIFICATE-----
