Certificate:
    Data:
        Version: 3 (0x2)
        Serial Number:
            2e:f2:01:15:bc:ba:a6:74:6e:b4:49:8e:f3:09:8c:9c:ca:3e:fe:32
        Signature Algorithm: sha256WithRSAEncryption
        Issuer: C = US, ST = Montana, L = Bozeman, OU = Engineering, CN = *localhost, emailAddress = info@wolfssl.com
        Validity
            Not Before: Dec 13 22:19:29 2023 GMT
            Not After : Sep  8 22:19:29 2026 GMT
        Subject: C = US, ST = Montana, L = Bozeman, OU = Engineering, CN = *localhost, emailAddress = info@wolfssl.com
        Subject Public Key Info:
            Public Key Algorithm: rsaEncryption
                RSA Public-Key: (2048 bit)
                Modulus:
                    00:c0:95:08:e1:57:41:f2:71:6d:b7:d2:45:41:27:
                    01:65:c6:45:ae:f2:bc:24:30:b8:95:ce:2f:4e:d6:
                    f6:1c:88:bc:7c:9f:fb:a8:67:7f:fe:5c:9c:51:75:
                    f7:8a:ca:07:e7:35:2f:8f:e1:bd:7b:c0:2f:7c:ab:
                    64:a8:17:fc:ca:5d:7b:ba:e0:21:e5:72:2e:6f:2e:
                    86:d8:95:73:da:ac:1b:53:b9:5f:3f:d7:19:0d:25:
                    4f:e1:63:63:51:8b:0b:64:3f:ad:43:b8:a5:1c:5c:
                    34:b3:ae:00:a0:63:c5:f6:7f:0b:59:68:78:73:a6:
                    8c:18:a9:02:6d:af:c3:19:01:2e:b8:10:e3:c6:cc:
                    40:b4:69:a3:46:33:69:87:6e:c4:bb:17:a6:f3:e8:
                    dd:ad:73:bc:7b:2f:21:b5:fd:66:51:0c:bd:54:b3:
                    e1:6d:5f:1c:bc:23:73:d1:09:03:89:14:d2:10:b9:
                    64:c3:2a:d0:a1:96:4a:bc:e1:d4:1a:5b:c7:a0:c0:
                    c1:63:78:0f:44:37:30:32:96:80:32:23:95:a1:77:
                    ba:13:d2:97:73:e2:5d:25:c9:6a:0d:c3:39:60:a4:
                    b4:b0:69:42:42:09:e9:d8:08:bc:33:20:b3:58:22:
                    a7:aa:eb:c4:e1:e6:61:83:c5:d2:96:df:d9:d0:4f:
                    ad:d7
                Exponent: 65537 (0x10001)
    Signature Algorithm: sha256WithRSAEncryption
         96:b2:8f:e5:31:57:57:6a:f2:48:1e:97:9a:71:75:10:22:a1:
         38:2c:9e:4f:d7:2f:7c:5d:e7:9f:19:8f:9c:00:b3:74:7e:10:
         69:7b:a5:71:2f:36:a2:79:02:51:4d:bb:e1:78:01:77:f6:13:
         85:84:46:ac:96:88:5b:47:4d:dd:d2:fd:5e:e4:49:3a:64:0b:
         67:af:95:3e:bf:40:4d:0f:a0:28:61:37:6b:41:b9:ad:dc:8c:
         f4:0c:8b:b5:49:20:19:e2:7f:0b:63:e5:fc:06:6d:16:4f:ba:
         b6:1a:3c:d4:4f:b3:a4:bd:c0:96:f5:a8:7f:01:85:a3:4a:ab:
         c3:73:77:68:55:1b:26:84:60:2f:72:af:d1:c4:55:4a:a8:3d:
         ce:fc:3e:b3:55:37:aa:df:0f:07:6c:5f:2b:0f:05:7f:bc:df:
         62:b3:68:f5:c2:0c:48:f8:b6:41:c5:e0:ac:7d:a4:50:f2:bc:
         61:0a:1c:5b:c5:b8:31:b1:ea:95:3f:6a:23:88:b3:74:7b:9f:
         1d:7c:11:23:f3:89:8b:71:a5:fa:e6:39:2c:10:af:8e:e9:8e:
         c6:25:ca:76:db:d9:95:40:e5:15:f3:67:d6:67:3b:9e:42:9e:
         ec:c2:cb:3a:c1:f8:bc:eb:b5:24:6d:ef:f6:00:ba:70:75:a4:
         32:7d:d0:33
-----BEGIN CERTIFICATE-----
MIIDhjCCAm6gAwIBAgIULvIBFby6pnRutEmO8wmMnMo+/jIwDQYJKoZIhvcNAQEL
BQAwfTELMAkGA1UEBhMCVVMxEDAOBgNVBAgMB01vbnRhbmExEDAOBgNVBAcMB0Jv
emVtYW4xFDASBgNVBAsMC0VuZ2luZWVyaW5nMRMwEQYDVQQDDAoqbG9jYWxob3N0
MR8wHQYJKoZIhvcNAQkBFhBpbmZvQHdvbGZzc2wuY29tMB4XDTIzMTIxMzIyMTky
OVoXDTI2MDkwODIyMTkyOVowfTELMAkGA1UEBhMCVVMxEDAOBgNVBAgMB01vbnRh
bmExEDAOBgNVBAcMB0JvemVtYW4xFDASBgNVBAsMC0VuZ2luZWVyaW5nMRMwEQYD
VQQDDAoqbG9jYWxob3N0MR8wHQYJKoZIhvcNAQkBFhBpbmZvQHdvbGZzc2wuY29t
MIIBIjANBgkqhkiG9w0BAQEFAAOCAQ8AMIIBCgKCAQEAwJUI4VdB8nFtt9JFQScB
ZcZFrvK8JDC4lc4vTtb2HIi8fJ/7qGd//lycUXX3isoH5zUvj+G9e8AvfKtkqBf8
yl17uuAh5XIuby6G2JVz2qwbU7lfP9cZDSVP4WNjUYsLZD+tQ7ilHFw0s64AoGPF
9n8LWWh4c6aMGKkCba/DGQEuuBDjxsxAtGmjRjNph27Euxem8+jdrXO8ey8htf1m
UQy9VLPhbV8cvCNz0QkDiRTSELlkwyrQoZZKvOHUGlvHoMDBY3gPRDcwMpaAMiOV
oXe6E9KXc+JdJclqDcM5YKS0sGlCQgnp2Ai8MyCzWCKnquvE4eZhg8XSlt/Z0E+t
1wIDAQABMA0GCSqGSIb3DQEBCwUAA4IBAQCWso/lMVdXavJIHpeacXUQIqE4LJ5P
1y98XeefGY+cALN0fhBpe6VxLzaieQJRTbvheAF39hOFhEaslohbR03d0v1e5Ek6
ZAtnr5U+v0BND6AoYTdrQbmt3Iz0DIu1SSAZ4n8LY+X8Bm0WT7q2GjzUT7OkvcCW
9ah/AYWjSqvDc3doVRsmhGAvcq/RxFVKqD3O/D6zVTeq3w8HbF8rDwV/vN9is2j1
wgxI+LZBxeCsfaRQ8rxhChxbxbgxseqVP2ojiLN0e58dfBEj84mLcaX65jksEK+O
6Y7GJcp229mVQOUV82fWZzueQp7swss6wfi867Ukbe/2ALpwdaQyfdAz
-----END CERTIFICATE-----
