Certificate:
    Data:
        Version: 3 (0x2)
        Serial Number:
            21:0e:4e:8a:39:de:07:ee:c4:06:ef:e7:28:81:47:e7:2b:13:42:52
        Signature Algorithm: sha256WithRSAEncryption
        Issuer: C=US, ST=Montana, L=Bozeman, OU=Engineering, CN=localhost, emailAddress=info@wolfssl.com
        Validity
            Not Before: Nov 13 20:41:32 2025 GMT
            Not After : Aug  9 20:41:32 2028 GMT
        Subject: C=US, ST=Montana, L=Bozeman, OU=Engineering, CN=localhost, emailAddress=info@wolfssl.com
        Subject Public Key Info:
            Public Key Algorithm: rsaEncryption
                Public-Key: (2048 bit)
                Modulus:
                    00:c0:95:08:e1:57:41:f2:71:6d:b7:d2:45:41:27:
                    01:65:c6:45:ae:f2:bc:24:30:b8:95:ce:2f:4e:d6:
                    f6:1c:88:bc:7c:9f:fb:a8:67:7f:fe:5c:9c:51:75:
                    f7:8a:ca:07:e7:35:2f:8f:e1:bd:7b:c0:2f:7c:ab:
                    64:a8:17:fc:ca:5d:7b:ba:e0:21:e5:72:2e:6f:2e:
                    86:d8:95:73:da:ac:1b:53:b9:5f:3f:d7:19:0d:25:
                    4f:e1:63:63:51:8b:0b:64:3f:ad:43:b8:a5:1c:5c:
                    34:b3:ae:00:a0:63:c5:f6:7f:0b:59:68:78:73:a6:
                    8c:18:a9:02:6d:af:c3:19:01:2e:b8:10:e3:c6:cc:
                    40:b4:69:a3:46:33:69:87:6e:c4:bb:17:a6:f3:e8:
                    dd:ad:73:bc:7b:2f:21:b5:fd:66:51:0c:bd:54:b3:
                    e1:6d:5f:1c:bc:23:73:d1:09:03:89:14:d2:10:b9:
                    64:c3:2a:d0:a1:96:4a:bc:e1:d4:1a:5b:c7:a0:c0:
                    c1:63:78:0f:44:37:30:32:96:80:32:23:95:a1:77:
                    ba:13:d2:97:73:e2:5d:25:c9:6a:0d:c3:39:60:a4:
                    b4:b0:69:42:42:09:e9:d8:08:bc:33:20:b3:58:22:
                    a7:aa:eb:c4:e1:e6:61:83:c5:d2:96:df:d9:d0:4f:
                    ad:d7
                Exponent: 65537 (0x10001)
        X509v3 extensions:
            X509v3 Subject Alternative Name: 
                DNS:localhost
            X509v3 Subject Key Identifier: 
                B3:11:32:C9:92:98:84:E2:C9:F8:D0:3B:6E:03:42:CA:1F:0E:8E:3C
    Signature Algorithm: sha256WithRSAEncryption
    Signature Value:
        a6:97:75:8b:75:a5:53:95:c2:cf:d5:0f:68:b6:29:bb:70:89:
        84:24:52:1a:7e:b1:3e:b1:c6:0a:ab:41:0a:93:db:d3:b5:ce:
        ab:e9:1b:f3:ed:4f:e9:23:30:29:e9:65:7a:b2:c0:2b:bc:de:
        31:ca:06:90:42:3c:ba:09:e7:b7:f8:c8:1c:22:81:14:b7:f0:
        1e:3b:d8:03:4c:6e:0e:40:f4:a2:dd:57:69:fb:4b:b9:5e:67:
        5d:8e:b6:d4:d5:91:b1:12:d8:1a:8c:3c:2b:06:b0:91:b2:53:
        84:49:ca:b3:ad:0b:d1:8d:03:91:14:c8:58:1c:9b:30:5c:8d:
        a0:20:6d:04:14:95:e8:b3:fe:69:9a:b1:22:44:d6:14:e6:a2:
        89:28:25:0e:f0:23:fd:af:44:d7:57:6e:8f:32:a5:41:5b:98:
        cb:d6:9f:b6:20:17:fa:f6:ef:75:86:c4:f9:10:95:55:27:ba:
        bc:e9:78:d1:c6:4b:e3:3b:9b:22:97:71:0e:86:f8:ac:10:68:
        19:a7:ad:e2:62:11:f0:13:0b:77:c5:09:b1:2d:ec:43:34:59:
        54:13:bc:48:bb:1a:3e:59:7e:d6:38:98:c6:90:5a:58:46:c3:
        06:24:62:c2:e0:c2:84:4a:f7:4b:e9:22:36:a1:eb:10:40:cf:
        48:5b:5b:5f
-----BEGIN CERTIFICATE-----
MIIDvTCCAqWgAwIBAgIUIQ5OijneB+7EBu/nKIFH5ysTQlIwDQYJKoZIhvcNAQEL
BQAwfDELMAkGA1UEBhMCVVMxEDAOBgNVBAgMB01vbnRhbmExEDAOBgNVBAcMB0Jv
emVtYW4xFDASBgNVBAsMC0VuZ2luZWVyaW5nMRIwEAYDVQQDDAlsb2NhbGhvc3Qx
HzAdBgkqhkiG9w0BCQEWEGluZm9Ad29sZnNzbC5jb20wHhcNMjUxMTEzMjA0MTMy
WhcNMjgwODA5MjA0MTMyWjB8MQswCQYDVQQGEwJVUzEQMA4GA1UECAwHTW9udGFu
YTEQMA4GA1UEBwwHQm96ZW1hbjEUMBIGA1UECwwLRW5naW5lZXJpbmcxEjAQBgNV
BAMMCWxvY2FsaG9zdDEfMB0GCSqGSIb3DQEJARYQaW5mb0B3b2xmc3NsLmNvbTCC
ASIwDQYJKoZIhvcNAQEBBQADggEPADCCAQoCggEBAMCVCOFXQfJxbbfSRUEnAWXG
Ra7yvCQwuJXOL07W9hyIvHyf+6hnf/5cnFF194rKB+c1L4/hvXvAL3yrZKgX/Mpd
e7rgIeVyLm8uhtiVc9qsG1O5Xz/XGQ0lT+FjY1GLC2Q/rUO4pRxcNLOuAKBjxfZ/
C1loeHOmjBipAm2vwxkBLrgQ48bMQLRpo0YzaYduxLsXpvPo3a1zvHsvIbX9ZlEM
vVSz4W1fHLwjc9EJA4kU0hC5ZMMq0KGWSrzh1Bpbx6DAwWN4D0Q3MDKWgDIjlaF3
uhPSl3PiXSXJag3DOWCktLBpQkIJ6dgIvDMgs1gip6rrxOHmYYPF0pbf2dBPrdcC
AwEAAaM3MDUwFAYDVR0RBA0wC4IJbG9jYWxob3N0MB0GA1UdDgQWBBSzETLJkpiE
4sn40DtuA0LKHw6OPDANBgkqhkiG9w0BAQsFAAOCAQEAppd1i3WlU5XCz9UPaLYp
u3CJhCRSGn6xPrHGCqtBCpPb07XOq+kb8+1P6SMwKellerLAK7zeMcoGkEI8ugnn
t/jIHCKBFLfwHjvYA0xuDkD0ot1XaftLuV5nXY621NWRsRLYGow8KwawkbJThEnK
s60L0Y0DkRTIWBybMFyNoCBtBBSV6LP+aZqxIkTWFOaiiSglDvAj/a9E11dujzKl
QVuYy9aftiAX+vbvdYbE+RCVVSe6vOl40cZL4zubIpdxDob4rBBoGaet4mIR8BML
d8UJsS3sQzRZVBO8SLsaPll+1jiYxpBaWEbDBiRiwuDChEr3S+kiNqHrEEDPSFtb
Xw==
-----END CERTIFICATE-----
