Certificate:
    Data:
        Version: 3 (0x2)
        Serial Number: 2 (0x2)
        Signature Algorithm: sha256WithRSAEncryption
        Issuer: C = US, ST = Montana, L = Bozeman, O = Sawtooth, OU = Consulting, CN = www.wolfssl.com, emailAddress = info@wolfssl.com
        Validity
            Not Before: Dec 20 23:07:25 2021 GMT
            Not After : Sep 15 23:07:25 2024 GMT
        Subject: C = US, ST = Montana, L = Bozeman, O = wolfSSL, OU = testing duplicate policy, CN = www.wolfssl.com, emailAddress = info@wolfssl.com
        Subject Public Key Info:
            Public Key Algorithm: rsaEncryption
                RSA Public-Key: (2048 bit)
                Modulus:
                    00:c0:95:08:e1:57:41:f2:71:6d:b7:d2:45:41:27:
                    01:65:c6:45:ae:f2:bc:24:30:b8:95:ce:2f:4e:d6:
                    f6:1c:88:bc:7c:9f:fb:a8:67:7f:fe:5c:9c:51:75:
                    f7:8a:ca:07:e7:35:2f:8f:e1:bd:7b:c0:2f:7c:ab:
                    64:a8:17:fc:ca:5d:7b:ba:e0:21:e5:72:2e:6f:2e:
                    86:d8:95:73:da:ac:1b:53:b9:5f:3f:d7:19:0d:25:
                    4f:e1:63:63:51:8b:0b:64:3f:ad:43:b8:a5:1c:5c:
                    34:b3:ae:00:a0:63:c5:f6:7f:0b:59:68:78:73:a6:
                    8c:18:a9:02:6d:af:c3:19:01:2e:b8:10:e3:c6:cc:
                    40:b4:69:a3:46:33:69:87:6e:c4:bb:17:a6:f3:e8:
                    dd:ad:73:bc:7b:2f:21:b5:fd:66:51:0c:bd:54:b3:
                    e1:6d:5f:1c:bc:23:73:d1:09:03:89:14:d2:10:b9:
                    64:c3:2a:d0:a1:96:4a:bc:e1:d4:1a:5b:c7:a0:c0:
                    c1:63:78:0f:44:37:30:32:96:80:32:23:95:a1:77:
                    ba:13:d2:97:73:e2:5d:25:c9:6a:0d:c3:39:60:a4:
                    b4:b0:69:42:42:09:e9:d8:08:bc:33:20:b3:58:22:
                    a7:aa:eb:c4:e1:e6:61:83:c5:d2:96:df:d9:d0:4f:
                    ad:d7
                Exponent: 65537 (0x10001)
        X509v3 extensions:
            X509v3 Subject Key Identifier: 
                B3:11:32:C9:92:98:84:E2:C9:F8:D0:3B:6E:03:42:CA:1F:0E:8E:3C
            X509v3 Authority Key Identifier: 
                keyid:27:8E:67:11:74:C3:26:1D:3F:ED:33:63:B3:A4:D8:1D:30:E5:E8:D5
                DirName:/C=US/ST=Montana/L=Bozeman/O=Sawtooth/OU=Consulting/CN=www.wolfssl.com/emailAddress=info@wolfssl.com
                serial:7D:94:70:88:BA:07:42:8D:AA:AF:4F:BE:C2:1A:48:F0:D1:40:E6:42

            X509v3 Basic Constraints: 
                CA:FALSE
            X509v3 Certificate Policies: 
                Policy: 1.2.3.4
                Policy: 1.2.3.4
                  CPS: www.wolfssl.com
                  User Notice:
                    Explicit Text: Test of duplicate OIDs with different qualifiers

    Signature Algorithm: sha256WithRSAEncryption
         2a:bd:46:4a:5f:f0:63:9c:49:90:7e:04:c9:aa:c5:1e:07:5c:
         62:7a:33:cb:39:92:bc:dd:f6:1b:52:fc:d0:31:82:89:10:d0:
         3a:c4:54:3a:79:ae:a7:e1:f1:d4:93:20:41:27:cc:2c:41:74:
         7d:f8:35:e4:98:a2:52:c0:11:1f:68:4a:f0:b0:6d:94:7c:a5:
         a9:5e:62:82:37:9f:5a:d2:72:58:d1:dd:dc:18:fd:63:f5:4a:
         f8:d1:b7:56:63:9d:2c:df:0b:ae:00:b4:52:aa:6f:84:f2:ed:
         25:35:39:b4:60:85:91:c1:80:87:a2:3d:34:be:80:b7:5a:ac:
         db:5e:99:3e:88:98:a4:07:a8:86:0d:61:81:c6:3d:1e:78:2c:
         40:b2:e2:d5:c4:b5:78:ac:ef:2c:86:f5:98:87:32:f6:f3:6f:
         09:a4:a4:7c:20:db:c6:1b:3c:97:ff:5f:62:54:3e:24:80:63:
         89:e4:0f:43:68:05:c7:d2:b4:bd:d2:b2:a0:3e:37:ae:43:34:
         c1:21:c7:f3:36:9d:04:44:be:45:d0:7c:47:a1:6c:f4:e8:64:
         8b:24:ff:18:9d:c2:77:79:de:2c:1e:0f:da:3f:25:8f:4c:87:
         f3:db:dc:d4:ae:7d:25:cd:f2:73:b8:0f:35:6c:64:43:9a:7d:
         d4:53:a5:0c
-----BEGIN CERTIFICATE-----
MIIFMTCCBBmgAwIBAgIBAjANBgkqhkiG9w0BAQsFADCBlDELMAkGA1UEBhMCVVMx
EDAOBgNVBAgMB01vbnRhbmExEDAOBgNVBAcMB0JvemVtYW4xETAPBgNVBAoMCFNh
d3Rvb3RoMRMwEQYDVQQLDApDb25zdWx0aW5nMRgwFgYDVQQDDA93d3cud29sZnNz
bC5jb20xHzAdBgkqhkiG9w0BCQEWEGluZm9Ad29sZnNzbC5jb20wHhcNMjExMjIw
MjMwNzI1WhcNMjQwOTE1MjMwNzI1WjCBoTELMAkGA1UEBhMCVVMxEDAOBgNVBAgM
B01vbnRhbmExEDAOBgNVBAcMB0JvemVtYW4xEDAOBgNVBAoMB3dvbGZTU0wxITAf
BgNVBAsMGHRlc3RpbmcgZHVwbGljYXRlIHBvbGljeTEYMBYGA1UEAwwPd3d3Lndv
bGZzc2wuY29tMR8wHQYJKoZIhvcNAQkBFhBpbmZvQHdvbGZzc2wuY29tMIIBIjAN
BgkqhkiG9w0BAQEFAAOCAQ8AMIIBCgKCAQEAwJUI4VdB8nFtt9JFQScBZcZFrvK8
JDC4lc4vTtb2HIi8fJ/7qGd//lycUXX3isoH5zUvj+G9e8AvfKtkqBf8yl17uuAh
5XIuby6G2JVz2qwbU7lfP9cZDSVP4WNjUYsLZD+tQ7ilHFw0s64AoGPF9n8LWWh4
c6aMGKkCba/DGQEuuBDjxsxAtGmjRjNph27Euxem8+jdrXO8ey8htf1mUQy9VLPh
bV8cvCNz0QkDiRTSELlkwyrQoZZKvOHUGlvHoMDBY3gPRDcwMpaAMiOVoXe6E9KX
c+JdJclqDcM5YKS0sGlCQgnp2Ai8MyCzWCKnquvE4eZhg8XSlt/Z0E+t1wIDAQAB
o4IBfTCCAXkwHQYDVR0OBBYEFLMRMsmSmITiyfjQO24DQsofDo48MIHUBgNVHSME
gcwwgcmAFCeOZxF0wyYdP+0zY7Ok2B0w5ejVoYGapIGXMIGUMQswCQYDVQQGEwJV
UzEQMA4GA1UECAwHTW9udGFuYTEQMA4GA1UEBwwHQm96ZW1hbjERMA8GA1UECgwI
U2F3dG9vdGgxEzARBgNVBAsMCkNvbnN1bHRpbmcxGDAWBgNVBAMMD3d3dy53b2xm
c3NsLmNvbTEfMB0GCSqGSIb3DQEJARYQaW5mb0B3b2xmc3NsLmNvbYIUfZRwiLoH
Qo2qr0++whpI8NFA5kIwCQYDVR0TBAIwADB2BgNVHSAEbzBtMAUGAyoDBDBkBgMq
AwQwXTAbBggrBgEFBQcCARYPd3d3LndvbGZzc2wuY29tMD4GCCsGAQUFBwICMDIa
MFRlc3Qgb2YgZHVwbGljYXRlIE9JRHMgd2l0aCBkaWZmZXJlbnQgcXVhbGlmaWVy
czANBgkqhkiG9w0BAQsFAAOCAQEAKr1GSl/wY5xJkH4EyarFHgdcYnozyzmSvN32
G1L80DGCiRDQOsRUOnmup+Hx1JMgQSfMLEF0ffg15JiiUsARH2hK8LBtlHylqV5i
gjefWtJyWNHd3Bj9Y/VK+NG3VmOdLN8LrgC0UqpvhPLtJTU5tGCFkcGAh6I9NL6A
t1qs216ZPoiYpAeohg1hgcY9HngsQLLi1cS1eKzvLIb1mIcy9vNvCaSkfCDbxhs8
l/9fYlQ+JIBjieQPQ2gFx9K0vdKyoD43rkM0wSHH8zadBES+RdB8R6Fs9OhkiyT/
GJ3Cd3neLB4P2j8lj0yH89vc1K59Jc3yc7gPNWxkQ5p91FOlDA==
-----END CERTIFICATE-----
Certificate:
    Data:
        Version: 3 (0x2)
        Serial Number:
            7d:94:70:88:ba:07:42:8d:aa:af:4f:be:c2:1a:48:f0:d1:40:e6:42
        Signature Algorithm: sha256WithRSAEncryption
        Issuer: C = US, ST = Montana, L = Bozeman, O = Sawtooth, OU = Consulting, CN = www.wolfssl.com, emailAddress = info@wolfssl.com
        Validity
            Not Before: Dec 20 23:07:24 2021 GMT
            Not After : Sep 15 23:07:24 2024 GMT
        Subject: C = US, ST = Montana, L = Bozeman, O = Sawtooth, OU = Consulting, CN = www.wolfssl.com, emailAddress = info@wolfssl.com
        Subject Public Key Info:
            Public Key Algorithm: rsaEncryption
                RSA Public-Key: (2048 bit)
                Modulus:
                    00:bf:0c:ca:2d:14:b2:1e:84:42:5b:cd:38:1f:4a:
                    f2:4d:75:10:f1:b6:35:9f:df:ca:7d:03:98:d3:ac:
                    de:03:66:ee:2a:f1:d8:b0:7d:6e:07:54:0b:10:98:
                    21:4d:80:cb:12:20:e7:cc:4f:de:45:7d:c9:72:77:
                    32:ea:ca:90:bb:69:52:10:03:2f:a8:f3:95:c5:f1:
                    8b:62:56:1b:ef:67:6f:a4:10:41:95:ad:0a:9b:e3:
                    a5:c0:b0:d2:70:76:50:30:5b:a8:e8:08:2c:7c:ed:
                    a7:a2:7a:8d:38:29:1c:ac:c7:ed:f2:7c:95:b0:95:
                    82:7d:49:5c:38:cd:77:25:ef:bd:80:75:53:94:3c:
                    3d:ca:63:5b:9f:15:b5:d3:1d:13:2f:19:d1:3c:db:
                    76:3a:cc:b8:7d:c9:e5:c2:d7:da:40:6f:d8:21:dc:
                    73:1b:42:2d:53:9c:fe:1a:fc:7d:ab:7a:36:3f:98:
                    de:84:7c:05:67:ce:6a:14:38:87:a9:f1:8c:b5:68:
                    cb:68:7f:71:20:2b:f5:a0:63:f5:56:2f:a3:26:d2:
                    b7:6f:b1:5a:17:d7:38:99:08:fe:93:58:6f:fe:c3:
                    13:49:08:16:0b:a7:4d:67:00:52:31:67:23:4e:98:
                    ed:51:45:1d:b9:04:d9:0b:ec:d8:28:b3:4b:bd:ed:
                    36:79
                Exponent: 65537 (0x10001)
        X509v3 extensions:
            X509v3 Subject Key Identifier: 
                27:8E:67:11:74:C3:26:1D:3F:ED:33:63:B3:A4:D8:1D:30:E5:E8:D5
            X509v3 Authority Key Identifier: 
                keyid:27:8E:67:11:74:C3:26:1D:3F:ED:33:63:B3:A4:D8:1D:30:E5:E8:D5
                DirName:/C=US/ST=Montana/L=Bozeman/O=Sawtooth/OU=Consulting/CN=www.wolfssl.com/emailAddress=info@wolfssl.com
                serial:7D:94:70:88:BA:07:42:8D:AA:AF:4F:BE:C2:1A:48:F0:D1:40:E6:42

            X509v3 Basic Constraints: 
                CA:TRUE
            X509v3 Subject Alternative Name: 
                DNS:example.com, IP Address:127.0.0.1
            X509v3 Extended Key Usage: 
                TLS Web Server Authentication, TLS Web Client Authentication
    Signature Algorithm: sha256WithRSAEncryption
         b0:71:bb:ba:45:5a:80:25:02:a4:7e:88:0b:a9:7b:fd:b0:bb:
         f6:46:b5:ba:f4:c7:e3:61:20:8c:03:15:66:f5:e4:54:82:ef:
         13:80:97:22:67:c1:d1:88:5d:e2:2d:57:f6:e0:9f:69:d6:b1:
         5c:b6:e8:e0:98:89:c8:14:12:d6:b6:89:8d:6c:b9:a0:59:4f:
         92:ee:11:53:6b:7d:93:4a:69:0a:85:d9:d5:d2:62:e8:c9:b5:
         c6:4e:17:f5:0a:e8:f3:2d:86:61:0b:eb:c4:c4:c6:67:75:ed:
         9a:9f:53:a0:71:1e:a0:90:0d:f9:03:b4:bc:86:19:6e:f0:3b:
         4f:e8:ed:68:f6:e7:23:43:3b:36:83:83:4b:46:a0:9a:01:d0:
         c7:85:bb:7d:94:a0:21:3d:7e:3c:6a:3d:81:db:41:7b:46:d8:
         15:62:d5:8f:4d:3d:c0:db:9a:c5:81:a8:ac:da:87:99:c7:dd:
         b9:f1:14:af:d1:93:e3:f3:42:d7:a2:04:51:21:54:29:c3:45:
         f6:be:5c:fa:cd:db:bf:2f:79:81:42:e5:8f:47:0b:d4:54:01:
         b5:c2:4a:46:d6:a8:31:2e:64:80:3f:48:61:91:29:f3:aa:43:
         5c:69:6e:f1:01:b9:df:63:71:3d:b9:5a:fb:36:c0:11:a2:c3:
         30:9d:95:c3
-----BEGIN CERTIFICATE-----
MIIE/zCCA+egAwIBAgIUfZRwiLoHQo2qr0++whpI8NFA5kIwDQYJKoZIhvcNAQEL
BQAwgZQxCzAJBgNVBAYTAlVTMRAwDgYDVQQIDAdNb250YW5hMRAwDgYDVQQHDAdC
b3plbWFuMREwDwYDVQQKDAhTYXd0b290aDETMBEGA1UECwwKQ29uc3VsdGluZzEY
MBYGA1UEAwwPd3d3LndvbGZzc2wuY29tMR8wHQYJKoZIhvcNAQkBFhBpbmZvQHdv
bGZzc2wuY29tMB4XDTIxMTIyMDIzMDcyNFoXDTI0MDkxNTIzMDcyNFowgZQxCzAJ
BgNVBAYTAlVTMRAwDgYDVQQIDAdNb250YW5hMRAwDgYDVQQHDAdCb3plbWFuMREw
DwYDVQQKDAhTYXd0b290aDETMBEGA1UECwwKQ29uc3VsdGluZzEYMBYGA1UEAwwP
d3d3LndvbGZzc2wuY29tMR8wHQYJKoZIhvcNAQkBFhBpbmZvQHdvbGZzc2wuY29t
MIIBIjANBgkqhkiG9w0BAQEFAAOCAQ8AMIIBCgKCAQEAvwzKLRSyHoRCW804H0ry
TXUQ8bY1n9/KfQOY06zeA2buKvHYsH1uB1QLEJghTYDLEiDnzE/eRX3Jcncy6sqQ
u2lSEAMvqPOVxfGLYlYb72dvpBBBla0Km+OlwLDScHZQMFuo6AgsfO2nonqNOCkc
rMft8nyVsJWCfUlcOM13Je+9gHVTlDw9ymNbnxW10x0TLxnRPNt2Osy4fcnlwtfa
QG/YIdxzG0ItU5z+Gvx9q3o2P5jehHwFZ85qFDiHqfGMtWjLaH9xICv1oGP1Vi+j
JtK3b7FaF9c4mQj+k1hv/sMTSQgWC6dNZwBSMWcjTpjtUUUduQTZC+zYKLNLve02
eQIDAQABo4IBRTCCAUEwHQYDVR0OBBYEFCeOZxF0wyYdP+0zY7Ok2B0w5ejVMIHU
BgNVHSMEgcwwgcmAFCeOZxF0wyYdP+0zY7Ok2B0w5ejVoYGapIGXMIGUMQswCQYD
VQQGEwJVUzEQMA4GA1UECAwHTW9udGFuYTEQMA4GA1UEBwwHQm96ZW1hbjERMA8G
A1UECgwIU2F3dG9vdGgxEzARBgNVBAsMCkNvbnN1bHRpbmcxGDAWBgNVBAMMD3d3
dy53b2xmc3NsLmNvbTEfMB0GCSqGSIb3DQEJARYQaW5mb0B3b2xmc3NsLmNvbYIU
fZRwiLoHQo2qr0++whpI8NFA5kIwDAYDVR0TBAUwAwEB/zAcBgNVHREEFTATggtl
eGFtcGxlLmNvbYcEfwAAATAdBgNVHSUEFjAUBggrBgEFBQcDAQYIKwYBBQUHAwIw
DQYJKoZIhvcNAQELBQADggEBALBxu7pFWoAlAqR+iAupe/2wu/ZGtbr0x+NhIIwD
FWb15FSC7xOAlyJnwdGIXeItV/bgn2nWsVy26OCYicgUEta2iY1suaBZT5LuEVNr
fZNKaQqF2dXSYujJtcZOF/UK6PMthmEL68TExmd17ZqfU6BxHqCQDfkDtLyGGW7w
O0/o7Wj25yNDOzaDg0tGoJoB0MeFu32UoCE9fjxqPYHbQXtG2BVi1Y9NPcDbmsWB
qKzah5nH3bnxFK/Rk+PzQteiBFEhVCnDRfa+XPrN278veYFC5Y9HC9RUAbXCSkbW
qDEuZIA/SGGRKfOqQ1xpbvEBud9jcT25Wvs2wBGiwzCdlcM=
-----END CERTIFICATE-----
