Certificate:
    Data:
        Version: 3 (0x2)
        Serial Number:
            7d:7e:04:a2:9a:54:cf:b4:eb:a5:c2:da:a1:23:f2:2a:3a:f2:cb:12
        Signature Algorithm: sha256WithRSAEncryption
        Issuer: C = US, ST = Montana, L = Bozeman, OU = Engineering, CN = www.nomatch.com, emailAddress = info@wolfssl.com
        Validity
            Not Before: Dec 20 23:07:25 2021 GMT
            Not After : Sep 15 23:07:25 2024 GMT
        Subject: C = US, ST = Montana, L = Bozeman, OU = Engineering, CN = www.nomatch.com, emailAddress = info@wolfssl.com
        Subject Public Key Info:
            Public Key Algorithm: rsaEncryption
                RSA Public-Key: (2048 bit)
                Modulus:
                    00:c0:95:08:e1:57:41:f2:71:6d:b7:d2:45:41:27:
                    01:65:c6:45:ae:f2:bc:24:30:b8:95:ce:2f:4e:d6:
                    f6:1c:88:bc:7c:9f:fb:a8:67:7f:fe:5c:9c:51:75:
                    f7:8a:ca:07:e7:35:2f:8f:e1:bd:7b:c0:2f:7c:ab:
                    64:a8:17:fc:ca:5d:7b:ba:e0:21:e5:72:2e:6f:2e:
                    86:d8:95:73:da:ac:1b:53:b9:5f:3f:d7:19:0d:25:
                    4f:e1:63:63:51:8b:0b:64:3f:ad:43:b8:a5:1c:5c:
                    34:b3:ae:00:a0:63:c5:f6:7f:0b:59:68:78:73:a6:
                    8c:18:a9:02:6d:af:c3:19:01:2e:b8:10:e3:c6:cc:
                    40:b4:69:a3:46:33:69:87:6e:c4:bb:17:a6:f3:e8:
                    dd:ad:73:bc:7b:2f:21:b5:fd:66:51:0c:bd:54:b3:
                    e1:6d:5f:1c:bc:23:73:d1:09:03:89:14:d2:10:b9:
                    64:c3:2a:d0:a1:96:4a:bc:e1:d4:1a:5b:c7:a0:c0:
                    c1:63:78:0f:44:37:30:32:96:80:32:23:95:a1:77:
                    ba:13:d2:97:73:e2:5d:25:c9:6a:0d:c3:39:60:a4:
                    b4:b0:69:42:42:09:e9:d8:08:bc:33:20:b3:58:22:
                    a7:aa:eb:c4:e1:e6:61:83:c5:d2:96:df:d9:d0:4f:
                    ad:d7
                Exponent: 65537 (0x10001)
        X509v3 extensions:
            X509v3 Subject Alternative Name: 
                DNS:DER:30:0d:82:0b:6c:6f:63:61:6c:68:6f:73:74:00:68
    Signature Algorithm: sha256WithRSAEncryption
         09:42:2d:4f:4f:37:f8:c9:15:e0:99:bf:46:ad:6a:86:5c:30:
         4d:4e:40:13:3b:23:89:d9:56:0a:34:88:ba:c8:87:d9:04:81:
         7a:f7:d8:59:6c:c7:fa:e5:48:52:6d:4d:f0:4a:e6:77:ac:44:
         1c:82:12:ad:2b:ca:68:27:85:f8:07:34:85:02:28:91:97:45:
         a0:ec:e9:ba:4a:35:1e:c6:c7:45:8c:00:d8:d5:80:89:ce:f4:
         2d:4f:68:1a:10:dc:8b:5a:a3:5f:73:17:c3:44:1b:74:d2:a2:
         ef:bb:1f:65:f9:56:50:ac:1e:44:1d:26:55:b9:ef:3c:e3:c6:
         63:16:15:14:8f:7c:48:39:c6:d5:d3:41:48:90:7a:34:31:7f:
         cd:6b:db:20:a6:72:1d:bd:46:da:b7:29:f5:cd:4f:77:67:85:
         01:c2:2c:40:1e:e6:59:4c:a9:f3:1c:79:72:15:6f:12:4b:95:
         c0:2d:5e:df:91:6c:5c:cb:76:86:04:b8:65:74:40:dd:af:1c:
         49:b1:57:c5:31:f5:d3:7e:36:ea:bb:a4:fb:2c:08:ab:fe:fc:
         0e:fb:d0:89:3c:6d:4b:01:60:e1:f3:47:9d:f2:49:6c:e2:61:
         a0:ec:73:81:38:ef:48:86:6e:e9:ac:bf:4e:cb:7a:f7:f4:a4:
         54:0c:24:8a
-----BEGIN CERTIFICATE-----
MIID0zCCArugAwIBAgIUfX4EoppUz7TrpcLaoSPyKjryyxIwDQYJKoZIhvcNAQEL
BQAwgYIxCzAJBgNVBAYTAlVTMRAwDgYDVQQIDAdNb250YW5hMRAwDgYDVQQHDAdC
b3plbWFuMRQwEgYDVQQLDAtFbmdpbmVlcmluZzEYMBYGA1UEAwwPd3d3Lm5vbWF0
Y2guY29tMR8wHQYJKoZIhvcNAQkBFhBpbmZvQHdvbGZzc2wuY29tMB4XDTIxMTIy
MDIzMDcyNVoXDTI0MDkxNTIzMDcyNVowgYIxCzAJBgNVBAYTAlVTMRAwDgYDVQQI
DAdNb250YW5hMRAwDgYDVQQHDAdCb3plbWFuMRQwEgYDVQQLDAtFbmdpbmVlcmlu
ZzEYMBYGA1UEAwwPd3d3Lm5vbWF0Y2guY29tMR8wHQYJKoZIhvcNAQkBFhBpbmZv
QHdvbGZzc2wuY29tMIIBIjANBgkqhkiG9w0BAQEFAAOCAQ8AMIIBCgKCAQEAwJUI
4VdB8nFtt9JFQScBZcZFrvK8JDC4lc4vTtb2HIi8fJ/7qGd//lycUXX3isoH5zUv
j+G9e8AvfKtkqBf8yl17uuAh5XIuby6G2JVz2qwbU7lfP9cZDSVP4WNjUYsLZD+t
Q7ilHFw0s64AoGPF9n8LWWh4c6aMGKkCba/DGQEuuBDjxsxAtGmjRjNph27Euxem
8+jdrXO8ey8htf1mUQy9VLPhbV8cvCNz0QkDiRTSELlkwyrQoZZKvOHUGlvHoMDB
Y3gPRDcwMpaAMiOVoXe6E9KXc+JdJclqDcM5YKS0sGlCQgnp2Ai8MyCzWCKnquvE
4eZhg8XSlt/Z0E+t1wIDAQABoz8wPTA7BgNVHREENDAygjBERVI6MzA6MGQ6ODI6
MGI6NmM6NmY6NjM6NjE6NmM6Njg6NmY6NzM6NzQ6MDA6NjgwDQYJKoZIhvcNAQEL
BQADggEBAAlCLU9PN/jJFeCZv0ataoZcME1OQBM7I4nZVgo0iLrIh9kEgXr32Fls
x/rlSFJtTfBK5nesRByCEq0rymgnhfgHNIUCKJGXRaDs6bpKNR7Gx0WMANjVgInO
9C1PaBoQ3Itao19zF8NEG3TSou+7H2X5VlCsHkQdJlW57zzjxmMWFRSPfEg5xtXT
QUiQejQxf81r2yCmch29Rtq3KfXNT3dnhQHCLEAe5llMqfMceXIVbxJLlcAtXt+R
bFzLdoYEuGV0QN2vHEmxV8Ux9dN+Nuq7pPssCKv+/A770Ik8bUsBYOHzR53ySWzi
YaDsc4E470iGbumsv07Levf0pFQMJIo=
-----END CERTIFICATE-----
