Certificate:
    Data:
        Version: 1 (0x0)
        Serial Number:
            33:16:9a:42:80:de:79:6e:23:d1:12:d8:e9:fe:00:43:ab:92:e6:cf
        Signature Algorithm: sha256WithRSAEncryption
        Issuer: C = US, ST = Montana, L = Bozeman, OU = Engineering, CN = www.nomatch.com, emailAddress = info@wolfssl.com
        Validity
            Not Before: Dec 18 21:25:31 2024 GMT
            Not After : Sep 14 21:25:31 2027 GMT
        Subject: C = US, ST = Montana, L = Bozeman, OU = Engineering, CN = www.nomatch.com, emailAddress = info@wolfssl.com
        Subject Public Key Info:
            Public Key Algorithm: rsaEncryption
                Public-Key: (2048 bit)
                Modulus:
                    00:c0:95:08:e1:57:41:f2:71:6d:b7:d2:45:41:27:
                    01:65:c6:45:ae:f2:bc:24:30:b8:95:ce:2f:4e:d6:
                    f6:1c:88:bc:7c:9f:fb:a8:67:7f:fe:5c:9c:51:75:
                    f7:8a:ca:07:e7:35:2f:8f:e1:bd:7b:c0:2f:7c:ab:
                    64:a8:17:fc:ca:5d:7b:ba:e0:21:e5:72:2e:6f:2e:
                    86:d8:95:73:da:ac:1b:53:b9:5f:3f:d7:19:0d:25:
                    4f:e1:63:63:51:8b:0b:64:3f:ad:43:b8:a5:1c:5c:
                    34:b3:ae:00:a0:63:c5:f6:7f:0b:59:68:78:73:a6:
                    8c:18:a9:02:6d:af:c3:19:01:2e:b8:10:e3:c6:cc:
                    40:b4:69:a3:46:33:69:87:6e:c4:bb:17:a6:f3:e8:
                    dd:ad:73:bc:7b:2f:21:b5:fd:66:51:0c:bd:54:b3:
                    e1:6d:5f:1c:bc:23:73:d1:09:03:89:14:d2:10:b9:
                    64:c3:2a:d0:a1:96:4a:bc:e1:d4:1a:5b:c7:a0:c0:
                    c1:63:78:0f:44:37:30:32:96:80:32:23:95:a1:77:
                    ba:13:d2:97:73:e2:5d:25:c9:6a:0d:c3:39:60:a4:
                    b4:b0:69:42:42:09:e9:d8:08:bc:33:20:b3:58:22:
                    a7:aa:eb:c4:e1:e6:61:83:c5:d2:96:df:d9:d0:4f:
                    ad:d7
                Exponent: 65537 (0x10001)
    Signature Algorithm: sha256WithRSAEncryption
    Signature Value:
        5e:8f:7a:54:28:81:13:f7:91:2c:37:9a:b1:c5:52:6c:05:b7:
        42:87:c6:92:10:4e:04:6f:6a:79:aa:46:07:2c:6b:2b:f6:03:
        b5:80:ce:ed:77:d7:7a:6b:96:b7:b5:12:61:5e:f8:46:79:49:
        b6:2e:95:7f:69:6c:b5:59:f0:1e:ee:9b:75:45:eb:02:e3:d9:
        07:da:02:50:b2:36:f0:65:4d:df:6c:b7:a0:70:be:4d:f5:69:
        fc:a9:c4:7f:b1:4f:7d:c1:34:4c:a2:6c:04:eb:20:0b:6a:c9:
        52:77:20:57:26:9c:cc:3b:c2:02:d1:5e:e5:d2:6c:c3:33:c8:
        84:3a:6d:99:e3:4e:c6:7d:fe:e1:cc:97:2a:9e:ea:6f:6e:6d:
        b1:ef:5a:bd:fb:14:b8:2e:19:a7:b6:6b:7d:23:38:48:fb:ce:
        67:88:bc:1c:f2:b7:e2:d2:bb:4d:2b:9a:5c:56:c9:80:20:16:
        0c:e5:0f:b2:4d:9e:59:6a:9f:88:21:92:68:96:7c:49:91:c3:
        10:67:7f:72:cc:37:a4:8f:c7:b2:ce:12:a1:1c:7c:b4:98:cc:
        b4:81:8e:7a:d6:91:01:ee:99:54:94:29:e3:fb:03:bc:34:7a:
        6c:77:1a:cd:a4:0f:6c:ed:9d:9b:8a:1f:76:1f:be:f8:09:7f:
        d4:be:a2:67
-----BEGIN CERTIFICATE-----
MIIDjTCCAnUCFDMWmkKA3nluI9ES2On+AEOrkubPMA0GCSqGSIb3DQEBCwUAMIGC
MQswCQYDVQQGEwJVUzEQMA4GA1UECAwHTW9udGFuYTEQMA4GA1UEBwwHQm96ZW1h
bjEUMBIGA1UECwwLRW5naW5lZXJpbmcxGDAWBgNVBAMMD3d3dy5ub21hdGNoLmNv
bTEfMB0GCSqGSIb3DQEJARYQaW5mb0B3b2xmc3NsLmNvbTAeFw0yNDEyMTgyMTI1
MzFaFw0yNzA5MTQyMTI1MzFaMIGCMQswCQYDVQQGEwJVUzEQMA4GA1UECAwHTW9u
dGFuYTEQMA4GA1UEBwwHQm96ZW1hbjEUMBIGA1UECwwLRW5naW5lZXJpbmcxGDAW
BgNVBAMMD3d3dy5ub21hdGNoLmNvbTEfMB0GCSqGSIb3DQEJARYQaW5mb0B3b2xm
c3NsLmNvbTCCASIwDQYJKoZIhvcNAQEBBQADggEPADCCAQoCggEBAMCVCOFXQfJx
bbfSRUEnAWXGRa7yvCQwuJXOL07W9hyIvHyf+6hnf/5cnFF194rKB+c1L4/hvXvA
L3yrZKgX/Mpde7rgIeVyLm8uhtiVc9qsG1O5Xz/XGQ0lT+FjY1GLC2Q/rUO4pRxc
NLOuAKBjxfZ/C1loeHOmjBipAm2vwxkBLrgQ48bMQLRpo0YzaYduxLsXpvPo3a1z
vHsvIbX9ZlEMvVSz4W1fHLwjc9EJA4kU0hC5ZMMq0KGWSrzh1Bpbx6DAwWN4D0Q3
MDKWgDIjlaF3uhPSl3PiXSXJag3DOWCktLBpQkIJ6dgIvDMgs1gip6rrxOHmYYPF
0pbf2dBPrdcCAwEAATANBgkqhkiG9w0BAQsFAAOCAQEAXo96VCiBE/eRLDeascVS
bAW3QofGkhBOBG9qeapGByxrK/YDtYDO7XfXemuWt7USYV74RnlJti6Vf2lstVnw
Hu6bdUXrAuPZB9oCULI28GVN32y3oHC+TfVp/KnEf7FPfcE0TKJsBOsgC2rJUncg
VyaczDvCAtFe5dJswzPIhDptmeNOxn3+4cyXKp7qb25tse9avfsUuC4Zp7ZrfSM4
SPvOZ4i8HPK34tK7TSuaXFbJgCAWDOUPsk2eWWqfiCGSaJZ8SZHDEGd/csw3pI/H
ss4SoRx8tJjMtIGOetaRAe6ZVJQp4/sDvDR6bHcazaQPbO2dm4ofdh+++Al/1L6i
Zw==
-----END CERTIFICATE-----
