Certificate:
    Data:
        Version: 3 (0x2)
        Serial Number:
            41:b0:06:e3:85:23:f1:06:45:fc:5f:34:d0:13:f3:d6:40:04:56:e2
        Signature Algorithm: sha256WithRSAEncryption
        Issuer: C=US, ST=Montana, L=Bozeman, OU=Engineering, CN=www.nomatch.com, emailAddress=info@wolfssl.com
        Validity
            Not Before: Nov 13 20:41:31 2025 GMT
            Not After : Aug  9 20:41:31 2028 GMT
        Subject: C=US, ST=Montana, L=Bozeman, OU=Engineering, CN=www.nomatch.com, emailAddress=info@wolfssl.com
        Subject Public Key Info:
            Public Key Algorithm: rsaEncryption
                Public-Key: (2048 bit)
                Modulus:
                    00:c0:95:08:e1:57:41:f2:71:6d:b7:d2:45:41:27:
                    01:65:c6:45:ae:f2:bc:24:30:b8:95:ce:2f:4e:d6:
                    f6:1c:88:bc:7c:9f:fb:a8:67:7f:fe:5c:9c:51:75:
                    f7:8a:ca:07:e7:35:2f:8f:e1:bd:7b:c0:2f:7c:ab:
                    64:a8:17:fc:ca:5d:7b:ba:e0:21:e5:72:2e:6f:2e:
                    86:d8:95:73:da:ac:1b:53:b9:5f:3f:d7:19:0d:25:
                    4f:e1:63:63:51:8b:0b:64:3f:ad:43:b8:a5:1c:5c:
                    34:b3:ae:00:a0:63:c5:f6:7f:0b:59:68:78:73:a6:
                    8c:18:a9:02:6d:af:c3:19:01:2e:b8:10:e3:c6:cc:
                    40:b4:69:a3:46:33:69:87:6e:c4:bb:17:a6:f3:e8:
                    dd:ad:73:bc:7b:2f:21:b5:fd:66:51:0c:bd:54:b3:
                    e1:6d:5f:1c:bc:23:73:d1:09:03:89:14:d2:10:b9:
                    64:c3:2a:d0:a1:96:4a:bc:e1:d4:1a:5b:c7:a0:c0:
                    c1:63:78:0f:44:37:30:32:96:80:32:23:95:a1:77:
                    ba:13:d2:97:73:e2:5d:25:c9:6a:0d:c3:39:60:a4:
                    b4:b0:69:42:42:09:e9:d8:08:bc:33:20:b3:58:22:
                    a7:aa:eb:c4:e1:e6:61:83:c5:d2:96:df:d9:d0:4f:
                    ad:d7
                Exponent: 65537 (0x10001)
        X509v3 extensions:
            X509v3 Subject Alternative Name: 
                0..localhost.h
            X509v3 Subject Key Identifier: 
                B3:11:32:C9:92:98:84:E2:C9:F8:D0:3B:6E:03:42:CA:1F:0E:8E:3C
    Signature Algorithm: sha256WithRSAEncryption
    Signature Value:
        8e:cd:35:5a:f6:be:2f:6e:c9:82:05:ec:fe:4e:b0:9e:d3:31:
        bd:48:9e:7d:59:55:95:d3:30:80:a9:86:71:d6:c7:5d:9c:ad:
        0f:0e:36:0a:cb:14:02:3f:81:26:68:a7:ea:30:f0:2b:59:30:
        e0:2e:28:97:c6:87:c4:30:84:e6:97:69:e2:ed:d9:0f:49:01:
        07:c2:bf:63:aa:d6:7f:40:c2:6b:1f:86:3b:6e:2b:15:fc:a2:
        d8:88:5f:33:65:e8:c9:c0:4c:f0:60:de:89:2f:1d:84:f1:81:
        b7:58:8a:95:11:1f:db:7a:b7:c7:6c:a1:ce:c6:a4:d0:76:26:
        06:b0:48:66:45:27:8a:34:0d:b9:aa:17:3a:cd:a0:8d:10:0b:
        38:1f:41:d1:3c:f6:63:66:5f:58:f7:6d:d4:6b:aa:c4:a5:06:
        1b:c3:3e:45:a5:0e:07:06:3b:82:eb:78:51:63:af:a6:64:95:
        ad:c2:dd:68:ac:00:09:05:ef:cb:06:03:5e:0d:f5:08:09:25:
        61:76:fd:bc:ca:02:94:7a:73:35:ae:a9:c2:21:13:c1:43:96:
        1a:a9:ed:f8:6b:64:10:84:39:2c:c2:5b:99:5f:8f:88:7e:43:
        68:ad:e7:45:9f:69:9e:60:f0:2e:8c:66:9c:0d:7e:a3:0a:07:
        6a:ee:fc:92
-----BEGIN CERTIFICATE-----
MIIDzTCCArWgAwIBAgIUQbAG44Uj8QZF/F800BPz1kAEVuIwDQYJKoZIhvcNAQEL
BQAwgYIxCzAJBgNVBAYTAlVTMRAwDgYDVQQIDAdNb250YW5hMRAwDgYDVQQHDAdC
b3plbWFuMRQwEgYDVQQLDAtFbmdpbmVlcmluZzEYMBYGA1UEAwwPd3d3Lm5vbWF0
Y2guY29tMR8wHQYJKoZIhvcNAQkBFhBpbmZvQHdvbGZzc2wuY29tMB4XDTI1MTEx
MzIwNDEzMVoXDTI4MDgwOTIwNDEzMVowgYIxCzAJBgNVBAYTAlVTMRAwDgYDVQQI
DAdNb250YW5hMRAwDgYDVQQHDAdCb3plbWFuMRQwEgYDVQQLDAtFbmdpbmVlcmlu
ZzEYMBYGA1UEAwwPd3d3Lm5vbWF0Y2guY29tMR8wHQYJKoZIhvcNAQkBFhBpbmZv
QHdvbGZzc2wuY29tMIIBIjANBgkqhkiG9w0BAQEFAAOCAQ8AMIIBCgKCAQEAwJUI
4VdB8nFtt9JFQScBZcZFrvK8JDC4lc4vTtb2HIi8fJ/7qGd//lycUXX3isoH5zUv
j+G9e8AvfKtkqBf8yl17uuAh5XIuby6G2JVz2qwbU7lfP9cZDSVP4WNjUYsLZD+t
Q7ilHFw0s64AoGPF9n8LWWh4c6aMGKkCba/DGQEuuBDjxsxAtGmjRjNph27Euxem
8+jdrXO8ey8htf1mUQy9VLPhbV8cvCNz0QkDiRTSELlkwyrQoZZKvOHUGlvHoMDB
Y3gPRDcwMpaAMiOVoXe6E9KXc+JdJclqDcM5YKS0sGlCQgnp2Ai8MyCzWCKnquvE
4eZhg8XSlt/Z0E+t1wIDAQABozkwNzAWBgNVHREEDzANggtsb2NhbGhvc3QAaDAd
BgNVHQ4EFgQUsxEyyZKYhOLJ+NA7bgNCyh8OjjwwDQYJKoZIhvcNAQELBQADggEB
AI7NNVr2vi9uyYIF7P5OsJ7TMb1Inn1ZVZXTMICphnHWx12crQ8ONgrLFAI/gSZo
p+ow8CtZMOAuKJfGh8QwhOaXaeLt2Q9JAQfCv2Oq1n9AwmsfhjtuKxX8otiIXzNl
6MnATPBg3okvHYTxgbdYipURH9t6t8dsoc7GpNB2JgawSGZFJ4o0DbmqFzrNoI0Q
CzgfQdE89mNmX1j3bdRrqsSlBhvDPkWlDgcGO4LreFFjr6Zkla3C3WisAAkF78sG
A14N9QgJJWF2/bzKApR6czWuqcIhE8FDlhqp7fhrZBCEOSzCW5lfj4h+Q2it50Wf
aZ5g8C6MZpwNfqMKB2ru/JI=
-----END CERTIFICATE-----
