Certificate:
    Data:
        Version: 1 (0x0)
        Serial Number:
            1a:60:e0:55:a0:9a:72:86:a7:db:c4:40:20:f2:8f:dd:50:72:9e:dc
        Signature Algorithm: sha256WithRSAEncryption
        Issuer: C = US, ST = Montana, L = Bozeman, OU = Engineering, CN = *localhost, emailAddress = info@wolfssl.com
        Validity
            Not Before: Sep 26 17:22:43 2023 GMT
            Not After : Jun 22 17:22:43 2026 GMT
        Subject: C = US, ST = Montana, L = Bozeman, OU = Engineering, CN = *localhost, emailAddress = info@wolfssl.com
        Subject Public Key Info:
            Public Key Algorithm: rsaEncryption
                Public-Key: (2048 bit)
                Modulus:
                    00:c0:95:08:e1:57:41:f2:71:6d:b7:d2:45:41:27:
                    01:65:c6:45:ae:f2:bc:24:30:b8:95:ce:2f:4e:d6:
                    f6:1c:88:bc:7c:9f:fb:a8:67:7f:fe:5c:9c:51:75:
                    f7:8a:ca:07:e7:35:2f:8f:e1:bd:7b:c0:2f:7c:ab:
                    64:a8:17:fc:ca:5d:7b:ba:e0:21:e5:72:2e:6f:2e:
                    86:d8:95:73:da:ac:1b:53:b9:5f:3f:d7:19:0d:25:
                    4f:e1:63:63:51:8b:0b:64:3f:ad:43:b8:a5:1c:5c:
                    34:b3:ae:00:a0:63:c5:f6:7f:0b:59:68:78:73:a6:
                    8c:18:a9:02:6d:af:c3:19:01:2e:b8:10:e3:c6:cc:
                    40:b4:69:a3:46:33:69:87:6e:c4:bb:17:a6:f3:e8:
                    dd:ad:73:bc:7b:2f:21:b5:fd:66:51:0c:bd:54:b3:
                    e1:6d:5f:1c:bc:23:73:d1:09:03:89:14:d2:10:b9:
                    64:c3:2a:d0:a1:96:4a:bc:e1:d4:1a:5b:c7:a0:c0:
                    c1:63:78:0f:44:37:30:32:96:80:32:23:95:a1:77:
                    ba:13:d2:97:73:e2:5d:25:c9:6a:0d:c3:39:60:a4:
                    b4:b0:69:42:42:09:e9:d8:08:bc:33:20:b3:58:22:
                    a7:aa:eb:c4:e1:e6:61:83:c5:d2:96:df:d9:d0:4f:
                    ad:d7
                Exponent: 65537 (0x10001)
    Signature Algorithm: sha256WithRSAEncryption
    Signature Value:
        7a:36:b4:3d:3c:c9:d9:cb:20:75:c6:d3:aa:d6:c4:d9:85:68:
        fa:05:80:95:67:09:7e:d5:79:5e:d8:bc:df:3c:b7:73:12:dd:
        af:4e:f2:c8:b7:eb:01:4a:26:9b:62:00:c6:8d:00:99:9e:10:
        32:ac:73:21:42:c1:a3:b1:14:46:6b:88:5b:ea:ef:a5:e1:b8:
        a3:ce:70:16:2c:1c:ad:16:34:42:93:c3:7f:61:94:c9:46:eb:
        5e:d1:a0:26:c7:8d:0a:0d:c9:86:54:f4:6d:cf:01:6e:aa:18:
        2a:82:f1:67:c8:b4:2f:e4:22:da:3e:5c:8e:85:7c:b9:89:85:
        c3:0b:98:33:0c:a3:ef:ee:6c:90:9b:18:e2:db:99:92:d1:9a:
        37:09:63:f9:0e:b5:f8:c5:ba:37:e1:35:5a:85:93:b5:c2:ce:
        40:07:99:df:ce:9a:a1:51:7d:90:b5:b9:f1:5a:36:69:1c:12:
        5b:26:2f:1f:87:c7:af:45:49:a2:07:a1:84:2b:55:44:19:34:
        1c:5b:32:e1:1c:5d:4a:6c:4a:eb:c2:66:57:7d:68:ac:16:3f:
        ef:81:2b:d5:08:54:8c:c2:aa:ec:fb:41:5f:84:de:6e:0e:60:
        34:6f:70:07:6a:75:60:86:b5:72:33:54:2e:08:4e:f1:68:bc:
        36:f5:06:2c
-----BEGIN CERTIFICATE-----
MIIDgTCCAmkCFBpg4FWgmnKGp9vEQCDyj91Qcp7cMA0GCSqGSIb3DQEBCwUAMH0x
CzAJBgNVBAYTAlVTMRAwDgYDVQQIDAdNb250YW5hMRAwDgYDVQQHDAdCb3plbWFu
MRQwEgYDVQQLDAtFbmdpbmVlcmluZzETMBEGA1UEAwwKKmxvY2FsaG9zdDEfMB0G
CSqGSIb3DQEJARYQaW5mb0B3b2xmc3NsLmNvbTAeFw0yMzA5MjYxNzIyNDNaFw0y
NjA2MjIxNzIyNDNaMH0xCzAJBgNVBAYTAlVTMRAwDgYDVQQIDAdNb250YW5hMRAw
DgYDVQQHDAdCb3plbWFuMRQwEgYDVQQLDAtFbmdpbmVlcmluZzETMBEGA1UEAwwK
KmxvY2FsaG9zdDEfMB0GCSqGSIb3DQEJARYQaW5mb0B3b2xmc3NsLmNvbTCCASIw
DQYJKoZIhvcNAQEBBQADggEPADCCAQoCggEBAMCVCOFXQfJxbbfSRUEnAWXGRa7y
vCQwuJXOL07W9hyIvHyf+6hnf/5cnFF194rKB+c1L4/hvXvAL3yrZKgX/Mpde7rg
IeVyLm8uhtiVc9qsG1O5Xz/XGQ0lT+FjY1GLC2Q/rUO4pRxcNLOuAKBjxfZ/C1lo
eHOmjBipAm2vwxkBLrgQ48bMQLRpo0YzaYduxLsXpvPo3a1zvHsvIbX9ZlEMvVSz
4W1fHLwjc9EJA4kU0hC5ZMMq0KGWSrzh1Bpbx6DAwWN4D0Q3MDKWgDIjlaF3uhPS
l3PiXSXJag3DOWCktLBpQkIJ6dgIvDMgs1gip6rrxOHmYYPF0pbf2dBPrdcCAwEA
ATANBgkqhkiG9w0BAQsFAAOCAQEAeja0PTzJ2csgdcbTqtbE2YVo+gWAlWcJftV5
Xti83zy3cxLdr07yyLfrAUomm2IAxo0AmZ4QMqxzIULBo7EURmuIW+rvpeG4o85w
FiwcrRY0QpPDf2GUyUbrXtGgJseNCg3JhlT0bc8BbqoYKoLxZ8i0L+Qi2j5cjoV8
uYmFwwuYMwyj7+5skJsY4tuZktGaNwlj+Q61+MW6N+E1WoWTtcLOQAeZ386aoVF9
kLW58Vo2aRwSWyYvH4fHr0VJogehhCtVRBk0HFsy4RxdSmxK68JmV31orBY/74Er
1QhUjMKq7PtBX4Tebg5gNG9wB2p1YIa1cjNULghO8Wi8NvUGLA==
-----END CERTIFICATE-----
