Certificate:
    Data:
        Version: 3 (0x2)
        Serial Number: 11791884614682041113 (0xa3a53094ba845b19)
    Signature Algorithm: sha1WithRSAEncryption
        Issuer: C=US, ST=Montana, L=Bozeman, OU=Engineering, CN=*localhost/emailAddress=info@wolfssl.com
        Validity
            Not Before: Jun 12 21:08:33 2018 GMT
            Not After : Mar  8 21:08:33 2021 GMT
        Subject: C=US, ST=Montana, L=Bozeman, OU=Engineering, CN=*localhost/emailAddress=info@wolfssl.com
        Subject Public Key Info:
            Public Key Algorithm: rsaEncryption
                Public-Key: (2048 bit)
                Modulus:
                    00:c0:95:08:e1:57:41:f2:71:6d:b7:d2:45:41:27:
                    01:65:c6:45:ae:f2:bc:24:30:b8:95:ce:2f:4e:d6:
                    f6:1c:88:bc:7c:9f:fb:a8:67:7f:fe:5c:9c:51:75:
                    f7:8a:ca:07:e7:35:2f:8f:e1:bd:7b:c0:2f:7c:ab:
                    64:a8:17:fc:ca:5d:7b:ba:e0:21:e5:72:2e:6f:2e:
                    86:d8:95:73:da:ac:1b:53:b9:5f:3f:d7:19:0d:25:
                    4f:e1:63:63:51:8b:0b:64:3f:ad:43:b8:a5:1c:5c:
                    34:b3:ae:00:a0:63:c5:f6:7f:0b:59:68:78:73:a6:
                    8c:18:a9:02:6d:af:c3:19:01:2e:b8:10:e3:c6:cc:
                    40:b4:69:a3:46:33:69:87:6e:c4:bb:17:a6:f3:e8:
                    dd:ad:73:bc:7b:2f:21:b5:fd:66:51:0c:bd:54:b3:
                    e1:6d:5f:1c:bc:23:73:d1:09:03:89:14:d2:10:b9:
                    64:c3:2a:d0:a1:96:4a:bc:e1:d4:1a:5b:c7:a0:c0:
                    c1:63:78:0f:44:37:30:32:96:80:32:23:95:a1:77:
                    ba:13:d2:97:73:e2:5d:25:c9:6a:0d:c3:39:60:a4:
                    b4:b0:69:42:42:09:e9:d8:08:bc:33:20:b3:58:22:
                    a7:aa:eb:c4:e1:e6:61:83:c5:d2:96:df:d9:d0:4f:
                    ad:d7
                Exponent: 65537 (0x10001)
    Signature Algorithm: sha1WithRSAEncryption
         aa:98:5b:71:d5:fb:0d:0c:f4:a2:8d:df:6c:0f:ae:93:a5:04:
         86:4e:ca:37:0b:89:fb:d5:c0:fa:b2:d2:dd:34:9b:01:c9:6d:
         35:3e:e3:31:b4:82:0b:1c:32:56:ab:61:d6:5d:c3:05:6d:89:
         51:fc:03:c3:a2:75:35:07:76:63:f1:65:24:d3:dd:c3:cf:46:
         06:65:e4:1c:8d:07:c7:be:68:93:f3:d6:eb:ab:ca:99:ad:8d:
         bd:20:98:77:56:d6:f1:17:0e:77:6e:2f:9e:f3:54:c3:c3:4c:
         6d:ea:2f:e3:08:04:18:af:23:1d:be:57:1b:e3:6d:d4:d3:60:
         1e:64:83:1d:33:08:24:0b:60:3e:f4:a0:08:31:2e:0d:13:7a:
         f5:a3:cc:59:0e:f4:7e:72:a4:19:f2:b7:c4:fc:51:f5:fa:68:
         3f:d7:a6:79:a1:a9:46:d9:52:c2:d9:92:cb:04:6a:a6:d5:73:
         24:6f:7b:5e:9d:97:70:38:a3:82:d6:c5:d8:8b:cc:26:03:72:
         b5:72:a5:30:ca:ad:d4:25:b1:59:84:fd:ed:43:cb:b2:80:ec:
         5d:cc:33:6a:a1:49:f6:8e:3e:ab:17:fc:74:c5:ce:d6:2e:05:
         bf:a1:26:11:2c:4b:13:d1:15:0f:76:92:a2:d1:28:26:ad:1b:
         65:20:3b:38
-----BEGIN CERTIFICATE-----
MIIDezCCAmOgAwIBAgIJAKOlMJS6hFsZMA0GCSqGSIb3DQEBBQUAMH0xCzAJBgNV
BAYTAlVTMRAwDgYDVQQIDAdNb250YW5hMRAwDgYDVQQHDAdCb3plbWFuMRQwEgYD
VQQLDAtFbmdpbmVlcmluZzETMBEGA1UEAwwKKmxvY2FsaG9zdDEfMB0GCSqGSIb3
DQEJARYQaW5mb0B3b2xmc3NsLmNvbTAeFw0xODA2MTIyMTA4MzNaFw0yMTAzMDgy
MTA4MzNaMH0xCzAJBgNVBAYTAlVTMRAwDgYDVQQIDAdNb250YW5hMRAwDgYDVQQH
DAdCb3plbWFuMRQwEgYDVQQLDAtFbmdpbmVlcmluZzETMBEGA1UEAwwKKmxvY2Fs
aG9zdDEfMB0GCSqGSIb3DQEJARYQaW5mb0B3b2xmc3NsLmNvbTCCASIwDQYJKoZI
hvcNAQEBBQADggEPADCCAQoCggEBAMCVCOFXQfJxbbfSRUEnAWXGRa7yvCQwuJXO
L07W9hyIvHyf+6hnf/5cnFF194rKB+c1L4/hvXvAL3yrZKgX/Mpde7rgIeVyLm8u
htiVc9qsG1O5Xz/XGQ0lT+FjY1GLC2Q/rUO4pRxcNLOuAKBjxfZ/C1loeHOmjBip
Am2vwxkBLrgQ48bMQLRpo0YzaYduxLsXpvPo3a1zvHsvIbX9ZlEMvVSz4W1fHLwj
c9EJA4kU0hC5ZMMq0KGWSrzh1Bpbx6DAwWN4D0Q3MDKWgDIjlaF3uhPSl3PiXSXJ
ag3DOWCktLBpQkIJ6dgIvDMgs1gip6rrxOHmYYPF0pbf2dBPrdcCAwEAATANBgkq
hkiG9w0BAQUFAAOCAQEAqphbcdX7DQz0oo3fbA+uk6UEhk7KNwuJ+9XA+rLS3TSb
AcltNT7jMbSCCxwyVqth1l3DBW2JUfwDw6J1NQd2Y/FlJNPdw89GBmXkHI0Hx75o
k/PW66vKma2NvSCYd1bW8RcOd24vnvNUw8NMbeov4wgEGK8jHb5XG+Nt1NNgHmSD
HTMIJAtgPvSgCDEuDRN69aPMWQ70fnKkGfK3xPxR9fpoP9emeaGpRtlSwtmSywRq
ptVzJG97Xp2XcDijgtbF2IvMJgNytXKlMMqt1CWxWYT97UPLsoDsXcwzaqFJ9o4+
qxf8dMXO1i4Fv6EmESxLE9EVD3aSotEoJq0bZSA7OA==
-----END CERTIFICATE-----
