Certificate:
    Data:
        Version: 3 (0x2)
        Serial Number:
            32:e8:d2:2e:a8:e9:02:5f:c7:a2:af:c4:97:b7:20:04:de:39:47:e8
        Signature Algorithm: sha256WithRSAEncryption
        Issuer: C = US, ST = Montana, L = Bozeman, OU = Engineering, CN = DER:30:0d:82:0b:6c:6f:63:61:6c:68:6f:73:74:00:68, emailAddress = info@wolfssl.com
        Validity
            Not Before: Feb 15 12:50:25 2022 GMT
            Not After : Nov 11 12:50:25 2024 GMT
        Subject: C = US, ST = Montana, L = Bozeman, OU = Engineering, CN = DER:30:0d:82:0b:6c:6f:63:61:6c:68:6f:73:74:00:68, emailAddress = info@wolfssl.com
        Subject Public Key Info:
            Public Key Algorithm: rsaEncryption
                RSA Public-Key: (2048 bit)
                Modulus:
                    00:c0:95:08:e1:57:41:f2:71:6d:b7:d2:45:41:27:
                    01:65:c6:45:ae:f2:bc:24:30:b8:95:ce:2f:4e:d6:
                    f6:1c:88:bc:7c:9f:fb:a8:67:7f:fe:5c:9c:51:75:
                    f7:8a:ca:07:e7:35:2f:8f:e1:bd:7b:c0:2f:7c:ab:
                    64:a8:17:fc:ca:5d:7b:ba:e0:21:e5:72:2e:6f:2e:
                    86:d8:95:73:da:ac:1b:53:b9:5f:3f:d7:19:0d:25:
                    4f:e1:63:63:51:8b:0b:64:3f:ad:43:b8:a5:1c:5c:
                    34:b3:ae:00:a0:63:c5:f6:7f:0b:59:68:78:73:a6:
                    8c:18:a9:02:6d:af:c3:19:01:2e:b8:10:e3:c6:cc:
                    40:b4:69:a3:46:33:69:87:6e:c4:bb:17:a6:f3:e8:
                    dd:ad:73:bc:7b:2f:21:b5:fd:66:51:0c:bd:54:b3:
                    e1:6d:5f:1c:bc:23:73:d1:09:03:89:14:d2:10:b9:
                    64:c3:2a:d0:a1:96:4a:bc:e1:d4:1a:5b:c7:a0:c0:
                    c1:63:78:0f:44:37:30:32:96:80:32:23:95:a1:77:
                    ba:13:d2:97:73:e2:5d:25:c9:6a:0d:c3:39:60:a4:
                    b4:b0:69:42:42:09:e9:d8:08:bc:33:20:b3:58:22:
                    a7:aa:eb:c4:e1:e6:61:83:c5:d2:96:df:d9:d0:4f:
                    ad:d7
                Exponent: 65537 (0x10001)
    Signature Algorithm: sha256WithRSAEncryption
         b2:76:fc:38:45:17:89:c1:71:bd:d7:43:46:0c:ab:54:14:5d:
         d0:4b:fd:8b:41:5d:9a:e0:fe:59:09:da:27:64:7b:3e:fc:f9:
         7a:84:09:ee:ad:9b:08:52:39:a3:6b:f0:e6:b0:b5:1e:24:bd:
         1d:a9:8e:96:55:87:f7:0f:22:4d:84:22:77:2c:d8:0d:1b:c7:
         25:0c:45:5d:b8:f2:6a:4c:ed:91:37:e0:fb:4b:74:e3:da:c8:
         28:bc:39:29:a8:64:d9:d3:06:1d:6f:82:d0:f4:e6:1c:3d:70:
         b8:30:0f:a4:8e:a4:d6:46:e8:69:68:75:39:f2:b5:d2:a3:f1:
         ab:7c:d8:88:5a:fb:9e:5f:af:60:f1:a0:43:5a:45:0b:6d:23:
         b8:22:f6:74:98:c7:8a:5a:d1:4b:e8:bc:ba:9c:8b:58:a1:4b:
         01:37:c3:10:9e:bb:7f:0a:15:1e:a3:cf:3d:5c:b7:af:9a:b5:
         6a:5e:48:f2:85:7d:f7:8b:12:f4:86:92:f0:49:17:6b:cd:45:
         7a:cc:8c:c2:30:cd:72:dc:44:a9:08:b7:88:fc:96:26:88:04:
         5a:b7:d9:88:8b:2c:4e:88:5f:ee:00:18:50:8d:8d:52:38:8f:
         59:29:c2:15:04:13:06:7a:9f:2c:a6:4e:b6:1e:2a:d2:54:bc:
         be:f9:b0:f0
-----BEGIN CERTIFICATE-----
MIID1DCCArygAwIBAgIUMujSLqjpAl/Hoq/El7cgBN45R+gwDQYJKoZIhvcNAQEL
BQAwgaMxCzAJBgNVBAYTAlVTMRAwDgYDVQQIDAdNb250YW5hMRAwDgYDVQQHDAdC
b3plbWFuMRQwEgYDVQQLDAtFbmdpbmVlcmluZzE5MDcGA1UEAwwwREVSOjMwOjBk
OjgyOjBiOjZjOjZmOjYzOjYxOjZjOjY4OjZmOjczOjc0OjAwOjY4MR8wHQYJKoZI
hvcNAQkBFhBpbmZvQHdvbGZzc2wuY29tMB4XDTIyMDIxNTEyNTAyNVoXDTI0MTEx
MTEyNTAyNVowgaMxCzAJBgNVBAYTAlVTMRAwDgYDVQQIDAdNb250YW5hMRAwDgYD
VQQHDAdCb3plbWFuMRQwEgYDVQQLDAtFbmdpbmVlcmluZzE5MDcGA1UEAwwwREVS
OjMwOjBkOjgyOjBiOjZjOjZmOjYzOjYxOjZjOjY4OjZmOjczOjc0OjAwOjY4MR8w
HQYJKoZIhvcNAQkBFhBpbmZvQHdvbGZzc2wuY29tMIIBIjANBgkqhkiG9w0BAQEF
AAOCAQ8AMIIBCgKCAQEAwJUI4VdB8nFtt9JFQScBZcZFrvK8JDC4lc4vTtb2HIi8
fJ/7qGd//lycUXX3isoH5zUvj+G9e8AvfKtkqBf8yl17uuAh5XIuby6G2JVz2qwb
U7lfP9cZDSVP4WNjUYsLZD+tQ7ilHFw0s64AoGPF9n8LWWh4c6aMGKkCba/DGQEu
uBDjxsxAtGmjRjNph27Euxem8+jdrXO8ey8htf1mUQy9VLPhbV8cvCNz0QkDiRTS
ELlkwyrQoZZKvOHUGlvHoMDBY3gPRDcwMpaAMiOVoXe6E9KXc+JdJclqDcM5YKS0
sGlCQgnp2Ai8MyCzWCKnquvE4eZhg8XSlt/Z0E+t1wIDAQABMA0GCSqGSIb3DQEB
CwUAA4IBAQCydvw4RReJwXG910NGDKtUFF3QS/2LQV2a4P5ZCdonZHs+/Pl6hAnu
rZsIUjmja/DmsLUeJL0dqY6WVYf3DyJNhCJ3LNgNG8clDEVduPJqTO2RN+D7S3Tj
2sgovDkpqGTZ0wYdb4LQ9OYcPXC4MA+kjqTWRuhpaHU58rXSo/GrfNiIWvueX69g
8aBDWkULbSO4IvZ0mMeKWtFL6Ly6nItYoUsBN8MQnrt/ChUeo889XLevmrVqXkjy
hX33ixL0hpLwSRdrzUV6zIzCMM1y3ESpCLeI/JYmiARat9mIiyxOiF/uABhQjY1S
OI9ZKcIVBBMGep8spk62HirSVLy++bDw
-----END CERTIFICATE-----
