Certificate:
    Data:
        Version: 3 (0x2)
        Serial Number:
            5c:20:50:22:e3:71:31:60:7b:88:0f:95:97:3b:b4:ab:74:bb:39:2d
        Signature Algorithm: sha256WithRSAEncryption
        Issuer: C = US, ST = Montana, L = Bozeman, OU = Engineering, CN = www.nomatch.com, emailAddress = info@wolfssl.com
        Validity
            Not Before: Dec 18 21:25:31 2024 GMT
            Not After : Sep 14 21:25:31 2027 GMT
        Subject: C = US, ST = Montana, L = Bozeman, OU = Engineering, CN = www.nomatch.com, emailAddress = info@wolfssl.com
        Subject Public Key Info:
            Public Key Algorithm: rsaEncryption
                Public-Key: (2048 bit)
                Modulus:
                    00:c0:95:08:e1:57:41:f2:71:6d:b7:d2:45:41:27:
                    01:65:c6:45:ae:f2:bc:24:30:b8:95:ce:2f:4e:d6:
                    f6:1c:88:bc:7c:9f:fb:a8:67:7f:fe:5c:9c:51:75:
                    f7:8a:ca:07:e7:35:2f:8f:e1:bd:7b:c0:2f:7c:ab:
                    64:a8:17:fc:ca:5d:7b:ba:e0:21:e5:72:2e:6f:2e:
                    86:d8:95:73:da:ac:1b:53:b9:5f:3f:d7:19:0d:25:
                    4f:e1:63:63:51:8b:0b:64:3f:ad:43:b8:a5:1c:5c:
                    34:b3:ae:00:a0:63:c5:f6:7f:0b:59:68:78:73:a6:
                    8c:18:a9:02:6d:af:c3:19:01:2e:b8:10:e3:c6:cc:
                    40:b4:69:a3:46:33:69:87:6e:c4:bb:17:a6:f3:e8:
                    dd:ad:73:bc:7b:2f:21:b5:fd:66:51:0c:bd:54:b3:
                    e1:6d:5f:1c:bc:23:73:d1:09:03:89:14:d2:10:b9:
                    64:c3:2a:d0:a1:96:4a:bc:e1:d4:1a:5b:c7:a0:c0:
                    c1:63:78:0f:44:37:30:32:96:80:32:23:95:a1:77:
                    ba:13:d2:97:73:e2:5d:25:c9:6a:0d:c3:39:60:a4:
                    b4:b0:69:42:42:09:e9:d8:08:bc:33:20:b3:58:22:
                    a7:aa:eb:c4:e1:e6:61:83:c5:d2:96:df:d9:d0:4f:
                    ad:d7
                Exponent: 65537 (0x10001)
        X509v3 extensions:
            X509v3 Subject Alternative Name: 
                DNS:*localhost
            X509v3 Subject Key Identifier: 
                B3:11:32:C9:92:98:84:E2:C9:F8:D0:3B:6E:03:42:CA:1F:0E:8E:3C
    Signature Algorithm: sha256WithRSAEncryption
    Signature Value:
        bb:6b:d2:c8:df:dd:5e:32:74:9c:8c:99:6c:00:f1:6d:57:b5:
        be:94:84:49:83:2d:65:d2:03:02:fc:15:8d:2a:3a:da:fd:f0:
        d1:8e:0c:98:e8:03:b3:fe:13:93:11:15:36:1e:91:17:56:ac:
        32:c3:ed:f7:a6:46:2e:69:d6:c5:61:70:aa:9a:49:c4:80:7b:
        0f:da:53:9a:37:70:7c:a8:3d:a5:67:a9:f1:49:f2:78:15:2e:
        60:cb:dc:fc:36:40:26:fa:67:0d:58:97:51:4c:34:35:f1:fb:
        61:09:5d:dc:06:f7:fa:36:e0:76:4d:d1:fc:b7:38:70:94:47:
        49:03:3c:81:0e:16:58:04:34:1e:28:ea:96:db:80:a1:ee:f8:
        96:05:78:6d:6b:61:ae:f2:ab:a7:ab:da:71:13:c7:9e:fb:17:
        86:31:58:a2:b4:c6:91:41:d9:0a:00:3a:0d:f7:e7:f0:28:11:
        99:c9:ad:f6:d4:db:2e:7f:72:3f:41:bb:df:bf:f6:d5:33:c5:
        10:27:36:8c:b5:cd:98:da:f6:b3:94:31:91:62:19:2d:8f:3d:
        da:53:5f:29:c5:a5:86:34:7f:03:ba:97:c9:79:83:3e:e3:3e:
        b9:19:8f:2d:29:3c:58:50:d3:a2:45:bd:e3:5b:27:27:c8:ea:
        4b:fc:c5:41
-----BEGIN CERTIFICATE-----
MIIDzDCCArSgAwIBAgIUXCBQIuNxMWB7iA+Vlzu0q3S7OS0wDQYJKoZIhvcNAQEL
BQAwgYIxCzAJBgNVBAYTAlVTMRAwDgYDVQQIDAdNb250YW5hMRAwDgYDVQQHDAdC
b3plbWFuMRQwEgYDVQQLDAtFbmdpbmVlcmluZzEYMBYGA1UEAwwPd3d3Lm5vbWF0
Y2guY29tMR8wHQYJKoZIhvcNAQkBFhBpbmZvQHdvbGZzc2wuY29tMB4XDTI0MTIx
ODIxMjUzMVoXDTI3MDkxNDIxMjUzMVowgYIxCzAJBgNVBAYTAlVTMRAwDgYDVQQI
DAdNb250YW5hMRAwDgYDVQQHDAdCb3plbWFuMRQwEgYDVQQLDAtFbmdpbmVlcmlu
ZzEYMBYGA1UEAwwPd3d3Lm5vbWF0Y2guY29tMR8wHQYJKoZIhvcNAQkBFhBpbmZv
QHdvbGZzc2wuY29tMIIBIjANBgkqhkiG9w0BAQEFAAOCAQ8AMIIBCgKCAQEAwJUI
4VdB8nFtt9JFQScBZcZFrvK8JDC4lc4vTtb2HIi8fJ/7qGd//lycUXX3isoH5zUv
j+G9e8AvfKtkqBf8yl17uuAh5XIuby6G2JVz2qwbU7lfP9cZDSVP4WNjUYsLZD+t
Q7ilHFw0s64AoGPF9n8LWWh4c6aMGKkCba/DGQEuuBDjxsxAtGmjRjNph27Euxem
8+jdrXO8ey8htf1mUQy9VLPhbV8cvCNz0QkDiRTSELlkwyrQoZZKvOHUGlvHoMDB
Y3gPRDcwMpaAMiOVoXe6E9KXc+JdJclqDcM5YKS0sGlCQgnp2Ai8MyCzWCKnquvE
4eZhg8XSlt/Z0E+t1wIDAQABozgwNjAVBgNVHREEDjAMggoqbG9jYWxob3N0MB0G
A1UdDgQWBBSzETLJkpiE4sn40DtuA0LKHw6OPDANBgkqhkiG9w0BAQsFAAOCAQEA
u2vSyN/dXjJ0nIyZbADxbVe1vpSESYMtZdIDAvwVjSo62v3w0Y4MmOgDs/4TkxEV
Nh6RF1asMsPt96ZGLmnWxWFwqppJxIB7D9pTmjdwfKg9pWep8UnyeBUuYMvc/DZA
JvpnDViXUUw0NfH7YQld3Ab3+jbgdk3R/Lc4cJRHSQM8gQ4WWAQ0HijqltuAoe74
lgV4bWthrvKrp6vacRPHnvsXhjFYorTGkUHZCgA6Dffn8CgRmcmt9tTbLn9yP0G7
37/21TPFECc2jLXNmNr2s5QxkWIZLY892lNfKcWlhjR/A7qXyXmDPuM+uRmPLSk8
WFDTokW941snJ8jqS/zFQQ==
-----END CERTIFICATE-----
