Certificate:
    Data:
        Version: 3 (0x2)
        Serial Number:
            63:8b:eb:7c:a5:8c:1a:1f:c0:4d:d2:f3:36:90:e1:89:6b:d8:95:a0
        Signature Algorithm: sha256WithRSAEncryption
        Issuer: C = US, ST = Montana, L = Bozeman, OU = Engineering, CN = www.nomatch.com, emailAddress = info@wolfssl.com
        Validity
            Not Before: Jun 15 22:02:33 2021 GMT
            Not After : Mar 11 22:02:33 2024 GMT
        Subject: C = US, ST = Montana, L = Bozeman, OU = Engineering, CN = www.nomatch.com, emailAddress = info@wolfssl.com
        Subject Public Key Info:
            Public Key Algorithm: rsaEncryption
                RSA Public-Key: (2048 bit)
                Modulus:
                    00:c0:95:08:e1:57:41:f2:71:6d:b7:d2:45:41:27:
                    01:65:c6:45:ae:f2:bc:24:30:b8:95:ce:2f:4e:d6:
                    f6:1c:88:bc:7c:9f:fb:a8:67:7f:fe:5c:9c:51:75:
                    f7:8a:ca:07:e7:35:2f:8f:e1:bd:7b:c0:2f:7c:ab:
                    64:a8:17:fc:ca:5d:7b:ba:e0:21:e5:72:2e:6f:2e:
                    86:d8:95:73:da:ac:1b:53:b9:5f:3f:d7:19:0d:25:
                    4f:e1:63:63:51:8b:0b:64:3f:ad:43:b8:a5:1c:5c:
                    34:b3:ae:00:a0:63:c5:f6:7f:0b:59:68:78:73:a6:
                    8c:18:a9:02:6d:af:c3:19:01:2e:b8:10:e3:c6:cc:
                    40:b4:69:a3:46:33:69:87:6e:c4:bb:17:a6:f3:e8:
                    dd:ad:73:bc:7b:2f:21:b5:fd:66:51:0c:bd:54:b3:
                    e1:6d:5f:1c:bc:23:73:d1:09:03:89:14:d2:10:b9:
                    64:c3:2a:d0:a1:96:4a:bc:e1:d4:1a:5b:c7:a0:c0:
                    c1:63:78:0f:44:37:30:32:96:80:32:23:95:a1:77:
                    ba:13:d2:97:73:e2:5d:25:c9:6a:0d:c3:39:60:a4:
                    b4:b0:69:42:42:09:e9:d8:08:bc:33:20:b3:58:22:
                    a7:aa:eb:c4:e1:e6:61:83:c5:d2:96:df:d9:d0:4f:
                    ad:d7
                Exponent: 65537 (0x10001)
        X509v3 extensions:
            X509v3 Subject Alternative Name: 
                DNS:DER:30:0d:82:0b:6c:6f:63:61:6c:68:6f:73:74:00:68
    Signature Algorithm: sha256WithRSAEncryption
         80:b1:67:53:d5:5d:8d:f0:a1:2a:31:ce:ff:9c:16:01:93:f9:
         10:37:8c:bf:e1:26:b7:13:20:d4:19:df:c5:b8:cd:2d:e3:36:
         37:d3:9e:14:f8:16:35:eb:f3:85:ba:5a:65:3b:ec:19:c8:50:
         51:3a:ff:d8:52:ab:6f:49:6d:12:af:81:45:c1:39:1a:24:67:
         84:04:d4:6e:02:21:6b:10:28:e4:40:85:5b:dd:58:99:4e:d1:
         e9:11:c9:d2:18:c2:4e:7c:e2:14:f8:cf:b4:7a:e0:7f:f6:e3:
         af:d0:8a:de:e0:d4:da:65:35:92:72:17:e4:cc:18:61:8d:fd:
         ef:9c:58:fc:1a:44:10:1b:29:50:82:f8:26:c4:ee:ab:8a:d8:
         a8:bc:67:9e:99:83:37:cb:f0:dc:25:b0:ba:0d:c8:b4:32:d8:
         95:dd:92:76:31:e2:20:0b:65:c0:a7:f2:17:11:3d:db:78:f3:
         21:ea:68:8c:4e:97:2f:5b:b0:d4:e9:48:4a:5d:49:25:bc:20:
         ee:a5:29:f4:29:97:8d:de:56:74:78:28:b5:e3:e3:66:95:aa:
         41:b8:c0:44:88:e3:33:df:32:92:fd:04:a5:da:60:4f:c0:2f:
         44:e8:bd:35:ce:72:d0:77:28:7b:1c:03:5c:03:ad:d8:52:6b:
         d5:a0:ea:34
-----BEGIN CERTIFICATE-----
MIID0zCCArugAwIBAgIUY4vrfKWMGh/ATdLzNpDhiWvYlaAwDQYJKoZIhvcNAQEL
BQAwgYIxCzAJBgNVBAYTAlVTMRAwDgYDVQQIDAdNb250YW5hMRAwDgYDVQQHDAdC
b3plbWFuMRQwEgYDVQQLDAtFbmdpbmVlcmluZzEYMBYGA1UEAwwPd3d3Lm5vbWF0
Y2guY29tMR8wHQYJKoZIhvcNAQkBFhBpbmZvQHdvbGZzc2wuY29tMB4XDTIxMDYx
NTIyMDIzM1oXDTI0MDMxMTIyMDIzM1owgYIxCzAJBgNVBAYTAlVTMRAwDgYDVQQI
DAdNb250YW5hMRAwDgYDVQQHDAdCb3plbWFuMRQwEgYDVQQLDAtFbmdpbmVlcmlu
ZzEYMBYGA1UEAwwPd3d3Lm5vbWF0Y2guY29tMR8wHQYJKoZIhvcNAQkBFhBpbmZv
QHdvbGZzc2wuY29tMIIBIjANBgkqhkiG9w0BAQEFAAOCAQ8AMIIBCgKCAQEAwJUI
4VdB8nFtt9JFQScBZcZFrvK8JDC4lc4vTtb2HIi8fJ/7qGd//lycUXX3isoH5zUv
j+G9e8AvfKtkqBf8yl17uuAh5XIuby6G2JVz2qwbU7lfP9cZDSVP4WNjUYsLZD+t
Q7ilHFw0s64AoGPF9n8LWWh4c6aMGKkCba/DGQEuuBDjxsxAtGmjRjNph27Euxem
8+jdrXO8ey8htf1mUQy9VLPhbV8cvCNz0QkDiRTSELlkwyrQoZZKvOHUGlvHoMDB
Y3gPRDcwMpaAMiOVoXe6E9KXc+JdJclqDcM5YKS0sGlCQgnp2Ai8MyCzWCKnquvE
4eZhg8XSlt/Z0E+t1wIDAQABoz8wPTA7BgNVHREENDAygjBERVI6MzA6MGQ6ODI6
MGI6NmM6NmY6NjM6NjE6NmM6Njg6NmY6NzM6NzQ6MDA6NjgwDQYJKoZIhvcNAQEL
BQADggEBAICxZ1PVXY3woSoxzv+cFgGT+RA3jL/hJrcTINQZ38W4zS3jNjfTnhT4
FjXr84W6WmU77BnIUFE6/9hSq29JbRKvgUXBORokZ4QE1G4CIWsQKORAhVvdWJlO
0ekRydIYwk584hT4z7R64H/246/Qit7g1NplNZJyF+TMGGGN/e+cWPwaRBAbKVCC
+CbE7quK2Ki8Z56ZgzfL8NwlsLoNyLQy2JXdknYx4iALZcCn8hcRPdt48yHqaIxO
ly9bsNTpSEpdSSW8IO6lKfQpl43eVnR4KLXj42aVqkG4wESI4zPfMpL9BKXaYE/A
L0TovTXOctB3KHscA1wDrdhSa9Wg6jQ=
-----END CERTIFICATE-----
