Certificate:
    Data:
        Version: 3 (0x2)
        Serial Number:
            4c:d4:49:58:80:7d:50:06:e0:9e:5c:a6:4a:e1:90:26:53:59:90:89
        Signature Algorithm: sha256WithRSAEncryption
        Issuer: C = US, ST = Montana, L = Bozeman, OU = Engineering, CN = www.nomatch.com, emailAddress = info@wolfssl.com
        Validity
            Not Before: Dec 13 22:19:29 2023 GMT
            Not After : Sep  8 22:19:29 2026 GMT
        Subject: C = US, ST = Montana, L = Bozeman, OU = Engineering, CN = www.nomatch.com, emailAddress = info@wolfssl.com
        Subject Public Key Info:
            Public Key Algorithm: rsaEncryption
                RSA Public-Key: (2048 bit)
                Modulus:
                    00:c0:95:08:e1:57:41:f2:71:6d:b7:d2:45:41:27:
                    01:65:c6:45:ae:f2:bc:24:30:b8:95:ce:2f:4e:d6:
                    f6:1c:88:bc:7c:9f:fb:a8:67:7f:fe:5c:9c:51:75:
                    f7:8a:ca:07:e7:35:2f:8f:e1:bd:7b:c0:2f:7c:ab:
                    64:a8:17:fc:ca:5d:7b:ba:e0:21:e5:72:2e:6f:2e:
                    86:d8:95:73:da:ac:1b:53:b9:5f:3f:d7:19:0d:25:
                    4f:e1:63:63:51:8b:0b:64:3f:ad:43:b8:a5:1c:5c:
                    34:b3:ae:00:a0:63:c5:f6:7f:0b:59:68:78:73:a6:
                    8c:18:a9:02:6d:af:c3:19:01:2e:b8:10:e3:c6:cc:
                    40:b4:69:a3:46:33:69:87:6e:c4:bb:17:a6:f3:e8:
                    dd:ad:73:bc:7b:2f:21:b5:fd:66:51:0c:bd:54:b3:
                    e1:6d:5f:1c:bc:23:73:d1:09:03:89:14:d2:10:b9:
                    64:c3:2a:d0:a1:96:4a:bc:e1:d4:1a:5b:c7:a0:c0:
                    c1:63:78:0f:44:37:30:32:96:80:32:23:95:a1:77:
                    ba:13:d2:97:73:e2:5d:25:c9:6a:0d:c3:39:60:a4:
                    b4:b0:69:42:42:09:e9:d8:08:bc:33:20:b3:58:22:
                    a7:aa:eb:c4:e1:e6:61:83:c5:d2:96:df:d9:d0:4f:
                    ad:d7
                Exponent: 65537 (0x10001)
        X509v3 extensions:
            X509v3 Subject Alternative Name: 
                DNS:*localhost
    Signature Algorithm: sha256WithRSAEncryption
         4d:31:3b:e4:6f:26:b4:33:2f:1a:10:12:34:f8:97:47:79:05:
         74:51:97:1c:22:96:89:b9:b3:63:af:e4:d4:eb:9f:97:e7:b3:
         8f:eb:52:0a:94:39:de:2f:df:4c:9c:15:0b:c0:91:b9:68:95:
         58:a1:78:82:82:4d:e7:81:c4:45:1a:94:d9:16:40:46:27:f3:
         33:08:8c:dd:c0:93:f4:2c:0e:1b:26:d5:fd:2f:8d:39:6f:63:
         63:be:3d:96:c4:3d:d7:25:1b:56:11:53:4e:c2:3c:fb:cb:ed:
         73:ab:87:c5:5f:5b:a6:47:4b:da:7e:84:30:ff:90:0b:b1:d0:
         15:e8:39:3d:0f:4f:de:a9:60:15:e3:44:c4:46:ee:c7:52:ff:
         ee:23:1d:8c:73:53:87:e9:94:82:60:9b:ca:b8:b4:41:5f:3b:
         bd:36:03:54:b2:bf:42:69:bd:49:b7:0f:26:16:ec:03:2c:b9:
         0c:38:15:20:c5:b6:9a:18:f1:30:7e:4a:11:7f:da:44:54:de:
         1e:0d:d1:e5:c9:46:0c:1b:50:6a:4d:61:89:58:61:46:40:2a:
         fe:18:9d:64:90:ea:32:61:85:92:5a:3e:41:43:83:4d:ec:f4:
         98:15:95:f0:79:55:7f:81:59:31:2b:80:a8:ea:60:5c:78:04:
         3d:42:d0:51
-----BEGIN CERTIFICATE-----
MIIDrTCCApWgAwIBAgIUTNRJWIB9UAbgnlymSuGQJlNZkIkwDQYJKoZIhvcNAQEL
BQAwgYIxCzAJBgNVBAYTAlVTMRAwDgYDVQQIDAdNb250YW5hMRAwDgYDVQQHDAdC
b3plbWFuMRQwEgYDVQQLDAtFbmdpbmVlcmluZzEYMBYGA1UEAwwPd3d3Lm5vbWF0
Y2guY29tMR8wHQYJKoZIhvcNAQkBFhBpbmZvQHdvbGZzc2wuY29tMB4XDTIzMTIx
MzIyMTkyOVoXDTI2MDkwODIyMTkyOVowgYIxCzAJBgNVBAYTAlVTMRAwDgYDVQQI
DAdNb250YW5hMRAwDgYDVQQHDAdCb3plbWFuMRQwEgYDVQQLDAtFbmdpbmVlcmlu
ZzEYMBYGA1UEAwwPd3d3Lm5vbWF0Y2guY29tMR8wHQYJKoZIhvcNAQkBFhBpbmZv
QHdvbGZzc2wuY29tMIIBIjANBgkqhkiG9w0BAQEFAAOCAQ8AMIIBCgKCAQEAwJUI
4VdB8nFtt9JFQScBZcZFrvK8JDC4lc4vTtb2HIi8fJ/7qGd//lycUXX3isoH5zUv
j+G9e8AvfKtkqBf8yl17uuAh5XIuby6G2JVz2qwbU7lfP9cZDSVP4WNjUYsLZD+t
Q7ilHFw0s64AoGPF9n8LWWh4c6aMGKkCba/DGQEuuBDjxsxAtGmjRjNph27Euxem
8+jdrXO8ey8htf1mUQy9VLPhbV8cvCNz0QkDiRTSELlkwyrQoZZKvOHUGlvHoMDB
Y3gPRDcwMpaAMiOVoXe6E9KXc+JdJclqDcM5YKS0sGlCQgnp2Ai8MyCzWCKnquvE
4eZhg8XSlt/Z0E+t1wIDAQABoxkwFzAVBgNVHREEDjAMggoqbG9jYWxob3N0MA0G
CSqGSIb3DQEBCwUAA4IBAQBNMTvkbya0My8aEBI0+JdHeQV0UZccIpaJubNjr+TU
65+X57OP61IKlDneL99MnBULwJG5aJVYoXiCgk3ngcRFGpTZFkBGJ/MzCIzdwJP0
LA4bJtX9L405b2Njvj2WxD3XJRtWEVNOwjz7y+1zq4fFX1umR0vafoQw/5ALsdAV
6Dk9D0/eqWAV40TERu7HUv/uIx2Mc1OH6ZSCYJvKuLRBXzu9NgNUsr9Cab1Jtw8m
FuwDLLkMOBUgxbaaGPEwfkoRf9pEVN4eDdHlyUYMG1BqTWGJWGFGQCr+GJ1kkOoy
YYWSWj5BQ4NN7PSYFZXweVV/gVkxK4Co6mBceAQ9QtBR
-----END CERTIFICATE-----
