Certificate:
    Data:
        Version: 3 (0x2)
        Serial Number:
            0d:83:9d:f3:1b:94:7f:ae:98:97:95:14:1f:22:f6:e7:44:ac:02:31
        Signature Algorithm: sha256WithRSAEncryption
        Issuer: C=US, ST=Montana, L=Bozeman, OU=Engineering, CN=www.nomatch.com, emailAddress=facts@wolfssl.com
        Validity
            Not Before: Jun 11 21:44:33 2026 GMT
            Not After : Mar  7 21:44:33 2029 GMT
        Subject: C=US, ST=Montana, L=Bozeman, OU=Engineering, CN=www.nomatch.com, emailAddress=facts@wolfssl.com
        Subject Public Key Info:
            Public Key Algorithm: rsaEncryption
                Public-Key: (2048 bit)
                Modulus:
                    00:c0:95:08:e1:57:41:f2:71:6d:b7:d2:45:41:27:
                    01:65:c6:45:ae:f2:bc:24:30:b8:95:ce:2f:4e:d6:
                    f6:1c:88:bc:7c:9f:fb:a8:67:7f:fe:5c:9c:51:75:
                    f7:8a:ca:07:e7:35:2f:8f:e1:bd:7b:c0:2f:7c:ab:
                    64:a8:17:fc:ca:5d:7b:ba:e0:21:e5:72:2e:6f:2e:
                    86:d8:95:73:da:ac:1b:53:b9:5f:3f:d7:19:0d:25:
                    4f:e1:63:63:51:8b:0b:64:3f:ad:43:b8:a5:1c:5c:
                    34:b3:ae:00:a0:63:c5:f6:7f:0b:59:68:78:73:a6:
                    8c:18:a9:02:6d:af:c3:19:01:2e:b8:10:e3:c6:cc:
                    40:b4:69:a3:46:33:69:87:6e:c4:bb:17:a6:f3:e8:
                    dd:ad:73:bc:7b:2f:21:b5:fd:66:51:0c:bd:54:b3:
                    e1:6d:5f:1c:bc:23:73:d1:09:03:89:14:d2:10:b9:
                    64:c3:2a:d0:a1:96:4a:bc:e1:d4:1a:5b:c7:a0:c0:
                    c1:63:78:0f:44:37:30:32:96:80:32:23:95:a1:77:
                    ba:13:d2:97:73:e2:5d:25:c9:6a:0d:c3:39:60:a4:
                    b4:b0:69:42:42:09:e9:d8:08:bc:33:20:b3:58:22:
                    a7:aa:eb:c4:e1:e6:61:83:c5:d2:96:df:d9:d0:4f:
                    ad:d7
                Exponent: 65537 (0x10001)
        X509v3 extensions:
            X509v3 Subject Alternative Name: 
                DNS:www.nomatch.com
            X509v3 Subject Key Identifier: 
                B3:11:32:C9:92:98:84:E2:C9:F8:D0:3B:6E:03:42:CA:1F:0E:8E:3C
    Signature Algorithm: sha256WithRSAEncryption
    Signature Value:
        61:b3:c7:c0:e1:04:51:e0:dd:63:97:67:92:31:e3:2d:d4:6f:
        08:cc:75:ff:67:85:b7:5e:09:49:81:34:80:7b:32:43:7a:a3:
        31:ff:db:a4:28:0d:72:1d:27:6a:06:21:82:25:d4:cb:1b:89:
        04:7a:5d:04:c8:cf:30:2a:51:81:25:9a:a7:16:07:6b:eb:7a:
        77:28:da:0b:54:26:94:2b:33:e1:60:1f:fd:dc:1c:84:c5:21:
        a9:f5:b9:b2:1a:7f:0c:9d:fe:42:e0:dd:5e:2a:80:6f:27:a2:
        ee:04:c1:6b:77:27:58:96:da:3f:17:43:bc:c1:d3:98:35:5f:
        84:f2:2f:e8:57:fd:19:07:d0:55:0d:d5:60:93:2e:07:f4:14:
        70:8a:33:69:5a:d9:ed:9d:c4:28:a5:d2:40:2c:f6:4f:08:e1:
        c9:af:47:19:e3:45:29:2b:d3:e6:4a:ff:2c:6b:bf:68:fd:41:
        81:44:b2:c5:a3:8a:ab:ab:25:8f:b7:4a:bd:fd:1e:e8:14:86:
        1c:25:63:9f:07:04:00:d5:e0:1c:21:2a:92:ed:06:35:10:c8:
        d4:50:df:40:4b:24:8f:61:78:11:a6:d9:84:48:8c:51:bd:1e:
        d6:3c:7a:ee:30:f7:74:51:d4:d6:c2:7b:b9:0a:7b:8a:56:c4:
        e6:ea:f0:75
-----BEGIN CERTIFICATE-----
MIID0zCCArugAwIBAgIUDYOd8xuUf66Yl5UUHyL250SsAjEwDQYJKoZIhvcNAQEL
BQAwgYMxCzAJBgNVBAYTAlVTMRAwDgYDVQQIDAdNb250YW5hMRAwDgYDVQQHDAdC
b3plbWFuMRQwEgYDVQQLDAtFbmdpbmVlcmluZzEYMBYGA1UEAwwPd3d3Lm5vbWF0
Y2guY29tMSAwHgYJKoZIhvcNAQkBFhFmYWN0c0B3b2xmc3NsLmNvbTAeFw0yNjA2
MTEyMTQ0MzNaFw0yOTAzMDcyMTQ0MzNaMIGDMQswCQYDVQQGEwJVUzEQMA4GA1UE
CAwHTW9udGFuYTEQMA4GA1UEBwwHQm96ZW1hbjEUMBIGA1UECwwLRW5naW5lZXJp
bmcxGDAWBgNVBAMMD3d3dy5ub21hdGNoLmNvbTEgMB4GCSqGSIb3DQEJARYRZmFj
dHNAd29sZnNzbC5jb20wggEiMA0GCSqGSIb3DQEBAQUAA4IBDwAwggEKAoIBAQDA
lQjhV0HycW230kVBJwFlxkWu8rwkMLiVzi9O1vYciLx8n/uoZ3/+XJxRdfeKygfn
NS+P4b17wC98q2SoF/zKXXu64CHlci5vLobYlXParBtTuV8/1xkNJU/hY2NRiwtk
P61DuKUcXDSzrgCgY8X2fwtZaHhzpowYqQJtr8MZAS64EOPGzEC0aaNGM2mHbsS7
F6bz6N2tc7x7LyG1/WZRDL1Us+FtXxy8I3PRCQOJFNIQuWTDKtChlkq84dQaW8eg
wMFjeA9ENzAyloAyI5Whd7oT0pdz4l0lyWoNwzlgpLSwaUJCCenYCLwzILNYIqeq
68Th5mGDxdKW39nQT63XAgMBAAGjPTA7MBoGA1UdEQQTMBGCD3d3dy5ub21hdGNo
LmNvbTAdBgNVHQ4EFgQUsxEyyZKYhOLJ+NA7bgNCyh8OjjwwDQYJKoZIhvcNAQEL
BQADggEBAGGzx8DhBFHg3WOXZ5Ix4y3UbwjMdf9nhbdeCUmBNIB7MkN6ozH/26Qo
DXIdJ2oGIYIl1MsbiQR6XQTIzzAqUYElmqcWB2vrenco2gtUJpQrM+FgH/3cHITF
Ian1ubIafwyd/kLg3V4qgG8nou4EwWt3J1iW2j8XQ7zB05g1X4TyL+hX/RkH0FUN
1WCTLgf0FHCKM2la2e2dxCil0kAs9k8I4cmvRxnjRSkr0+ZK/yxrv2j9QYFEssWj
iqurJY+3Sr39HugUhhwlY58HBADV4BwhKpLtBjUQyNRQ30BLJI9heBGm2YRIjFG9
HtY8eu4w93RR1NbCe7kKe4pWxObq8HU=
-----END CERTIFICATE-----
