Certificate:
    Data:
        Version: 3 (0x2)
        Serial Number:
            28:85:bc:e1:37:c1:3a:5a:8c:08:ec:89:db:e6:34:74:87:dd:c0:19
        Signature Algorithm: sha256WithRSAEncryption
        Issuer: C=US, ST=Montana, L=Bozeman, OU=Engineering, CN=www.nomatch.com, emailAddress=facts@wolfssl.com
        Validity
            Not Before: Jun 11 21:44:33 2026 GMT
            Not After : Mar  7 21:44:33 2029 GMT
        Subject: C=US, ST=Montana, L=Bozeman, OU=Engineering, CN=www.nomatch.com, emailAddress=facts@wolfssl.com
        Subject Public Key Info:
            Public Key Algorithm: rsaEncryption
                Public-Key: (2048 bit)
                Modulus:
                    00:c0:95:08:e1:57:41:f2:71:6d:b7:d2:45:41:27:
                    01:65:c6:45:ae:f2:bc:24:30:b8:95:ce:2f:4e:d6:
                    f6:1c:88:bc:7c:9f:fb:a8:67:7f:fe:5c:9c:51:75:
                    f7:8a:ca:07:e7:35:2f:8f:e1:bd:7b:c0:2f:7c:ab:
                    64:a8:17:fc:ca:5d:7b:ba:e0:21:e5:72:2e:6f:2e:
                    86:d8:95:73:da:ac:1b:53:b9:5f:3f:d7:19:0d:25:
                    4f:e1:63:63:51:8b:0b:64:3f:ad:43:b8:a5:1c:5c:
                    34:b3:ae:00:a0:63:c5:f6:7f:0b:59:68:78:73:a6:
                    8c:18:a9:02:6d:af:c3:19:01:2e:b8:10:e3:c6:cc:
                    40:b4:69:a3:46:33:69:87:6e:c4:bb:17:a6:f3:e8:
                    dd:ad:73:bc:7b:2f:21:b5:fd:66:51:0c:bd:54:b3:
                    e1:6d:5f:1c:bc:23:73:d1:09:03:89:14:d2:10:b9:
                    64:c3:2a:d0:a1:96:4a:bc:e1:d4:1a:5b:c7:a0:c0:
                    c1:63:78:0f:44:37:30:32:96:80:32:23:95:a1:77:
                    ba:13:d2:97:73:e2:5d:25:c9:6a:0d:c3:39:60:a4:
                    b4:b0:69:42:42:09:e9:d8:08:bc:33:20:b3:58:22:
                    a7:aa:eb:c4:e1:e6:61:83:c5:d2:96:df:d9:d0:4f:
                    ad:d7
                Exponent: 65537 (0x10001)
        X509v3 extensions:
            X509v3 Subject Alternative Name: 
                DNS:localhost
            X509v3 Subject Key Identifier: 
                B3:11:32:C9:92:98:84:E2:C9:F8:D0:3B:6E:03:42:CA:1F:0E:8E:3C
    Signature Algorithm: sha256WithRSAEncryption
    Signature Value:
        50:a4:d5:7d:4a:fc:19:7c:45:14:c5:d2:9b:90:20:09:fd:60:
        b2:55:48:85:06:78:82:a0:c0:11:4f:4b:ef:7b:bf:a5:63:14:
        b2:12:fe:dd:b7:33:de:37:9c:66:13:d5:51:b3:d5:3e:bd:73:
        98:45:3d:2a:6c:61:2c:8c:0a:30:03:25:15:97:52:ec:43:47:
        2a:b5:6b:4e:a5:c9:ca:ef:4d:ea:57:58:12:52:a7:39:77:ce:
        fd:55:fe:22:b9:e6:10:38:e1:42:a5:40:81:97:2d:17:f5:d1:
        2d:8e:cf:dd:c0:b6:d4:8e:f6:69:34:ce:ce:70:af:e3:53:12:
        9c:b2:46:78:35:54:3e:bd:75:74:9a:14:c9:01:7f:1f:2b:5a:
        a0:01:b6:86:9f:3b:13:c2:37:77:e8:1f:93:35:e8:d6:83:a1:
        9a:88:2c:ba:ce:6a:58:4d:c9:1b:8d:a4:1b:cf:2b:1b:a4:59:
        48:b8:bd:e1:b9:40:ff:e7:eb:25:11:ba:fe:dd:e4:8c:3c:5d:
        ca:9e:da:94:26:bf:52:05:9f:09:cd:17:78:0e:85:b3:ff:ab:
        3e:1d:85:39:29:89:8c:48:56:76:bd:bb:73:d6:91:be:c5:ad:
        95:7c:e5:16:09:aa:20:eb:e0:9f:ab:36:33:e6:35:fd:b1:a3:
        d1:03:43:26
-----BEGIN CERTIFICATE-----
MIIDzTCCArWgAwIBAgIUKIW84TfBOlqMCOyJ2+Y0dIfdwBkwDQYJKoZIhvcNAQEL
BQAwgYMxCzAJBgNVBAYTAlVTMRAwDgYDVQQIDAdNb250YW5hMRAwDgYDVQQHDAdC
b3plbWFuMRQwEgYDVQQLDAtFbmdpbmVlcmluZzEYMBYGA1UEAwwPd3d3Lm5vbWF0
Y2guY29tMSAwHgYJKoZIhvcNAQkBFhFmYWN0c0B3b2xmc3NsLmNvbTAeFw0yNjA2
MTEyMTQ0MzNaFw0yOTAzMDcyMTQ0MzNaMIGDMQswCQYDVQQGEwJVUzEQMA4GA1UE
CAwHTW9udGFuYTEQMA4GA1UEBwwHQm96ZW1hbjEUMBIGA1UECwwLRW5naW5lZXJp
bmcxGDAWBgNVBAMMD3d3dy5ub21hdGNoLmNvbTEgMB4GCSqGSIb3DQEJARYRZmFj
dHNAd29sZnNzbC5jb20wggEiMA0GCSqGSIb3DQEBAQUAA4IBDwAwggEKAoIBAQDA
lQjhV0HycW230kVBJwFlxkWu8rwkMLiVzi9O1vYciLx8n/uoZ3/+XJxRdfeKygfn
NS+P4b17wC98q2SoF/zKXXu64CHlci5vLobYlXParBtTuV8/1xkNJU/hY2NRiwtk
P61DuKUcXDSzrgCgY8X2fwtZaHhzpowYqQJtr8MZAS64EOPGzEC0aaNGM2mHbsS7
F6bz6N2tc7x7LyG1/WZRDL1Us+FtXxy8I3PRCQOJFNIQuWTDKtChlkq84dQaW8eg
wMFjeA9ENzAyloAyI5Whd7oT0pdz4l0lyWoNwzlgpLSwaUJCCenYCLwzILNYIqeq
68Th5mGDxdKW39nQT63XAgMBAAGjNzA1MBQGA1UdEQQNMAuCCWxvY2FsaG9zdDAd
BgNVHQ4EFgQUsxEyyZKYhOLJ+NA7bgNCyh8OjjwwDQYJKoZIhvcNAQELBQADggEB
AFCk1X1K/Bl8RRTF0puQIAn9YLJVSIUGeIKgwBFPS+97v6VjFLIS/t23M943nGYT
1VGz1T69c5hFPSpsYSyMCjADJRWXUuxDRyq1a06lycrvTepXWBJSpzl3zv1V/iK5
5hA44UKlQIGXLRf10S2Oz93AttSO9mk0zs5wr+NTEpyyRng1VD69dXSaFMkBfx8r
WqABtoafOxPCN3foH5M16NaDoZqILLrOalhNyRuNpBvPKxukWUi4veG5QP/n6yUR
uv7d5Iw8Xcqe2pQmv1IFnwnNF3gOhbP/qz4dhTkpiYxIVna9u3PWkb7FrZV85RYJ
qiDr4J+rNjPmNf2xo9EDQyY=
-----END CERTIFICATE-----
