Certificate:
    Data:
        Version: 3 (0x2)
        Serial Number:
            5e:0c:68:fc:ee:45:c3:c4:93:92:92:1b:f0:6e:45:c8:a0:bd:e7:d2
        Signature Algorithm: sha256WithRSAEncryption
        Issuer: C = US, ST = Montana, L = Bozeman, OU = Engineering, CN = www.nomatch.com, emailAddress = info@wolfssl.com
        Validity
            Not Before: Dec 18 23:11:23 2024 GMT
            Not After : Sep 14 23:11:23 2027 GMT
        Subject: C = US, ST = Montana, L = Bozeman, OU = Engineering, CN = www.nomatch.com, emailAddress = info@wolfssl.com
        Subject Public Key Info:
            Public Key Algorithm: rsaEncryption
                Public-Key: (2048 bit)
                Modulus:
                    00:c0:95:08:e1:57:41:f2:71:6d:b7:d2:45:41:27:
                    01:65:c6:45:ae:f2:bc:24:30:b8:95:ce:2f:4e:d6:
                    f6:1c:88:bc:7c:9f:fb:a8:67:7f:fe:5c:9c:51:75:
                    f7:8a:ca:07:e7:35:2f:8f:e1:bd:7b:c0:2f:7c:ab:
                    64:a8:17:fc:ca:5d:7b:ba:e0:21:e5:72:2e:6f:2e:
                    86:d8:95:73:da:ac:1b:53:b9:5f:3f:d7:19:0d:25:
                    4f:e1:63:63:51:8b:0b:64:3f:ad:43:b8:a5:1c:5c:
                    34:b3:ae:00:a0:63:c5:f6:7f:0b:59:68:78:73:a6:
                    8c:18:a9:02:6d:af:c3:19:01:2e:b8:10:e3:c6:cc:
                    40:b4:69:a3:46:33:69:87:6e:c4:bb:17:a6:f3:e8:
                    dd:ad:73:bc:7b:2f:21:b5:fd:66:51:0c:bd:54:b3:
                    e1:6d:5f:1c:bc:23:73:d1:09:03:89:14:d2:10:b9:
                    64:c3:2a:d0:a1:96:4a:bc:e1:d4:1a:5b:c7:a0:c0:
                    c1:63:78:0f:44:37:30:32:96:80:32:23:95:a1:77:
                    ba:13:d2:97:73:e2:5d:25:c9:6a:0d:c3:39:60:a4:
                    b4:b0:69:42:42:09:e9:d8:08:bc:33:20:b3:58:22:
                    a7:aa:eb:c4:e1:e6:61:83:c5:d2:96:df:d9:d0:4f:
                    ad:d7
                Exponent: 65537 (0x10001)
        X509v3 extensions:
            X509v3 Subject Key Identifier: 
                B3:11:32:C9:92:98:84:E2:C9:F8:D0:3B:6E:03:42:CA:1F:0E:8E:3C
    Signature Algorithm: sha256WithRSAEncryption
    Signature Value:
        81:71:e5:13:96:ab:99:46:c2:9e:8b:7c:b1:1c:96:08:f0:39:
        fd:ad:85:ef:6f:54:60:6c:d4:ec:b4:65:69:3e:37:e3:c3:37:
        ea:22:b8:79:ae:ba:b3:c4:29:8d:87:84:93:f4:74:81:7d:e6:
        1d:2d:ee:37:86:4c:f2:a2:e8:b5:a7:ad:e4:c3:43:fa:9e:ff:
        2b:d8:48:22:05:6c:e3:56:49:47:27:f6:3f:bb:45:5f:a2:25:
        bc:24:3c:c6:16:57:3d:db:98:56:5c:47:a5:f7:ad:ee:0b:94:
        f1:b8:5c:6a:5e:69:fc:a4:2e:b3:24:21:13:2b:0d:25:1b:2a:
        ba:bb:e8:00:d2:80:59:e6:1f:01:f5:62:9d:70:84:04:dd:f2:
        5f:ab:c0:6c:f8:75:37:e1:a4:14:df:ac:9c:ff:63:bd:70:92:
        4a:c1:dd:2e:79:05:40:94:c4:92:2b:33:5d:aa:00:0f:d9:a1:
        aa:48:79:4a:8b:c3:54:c4:cc:63:e6:4d:d6:cd:80:b2:77:6a:
        63:16:6d:3b:47:63:e9:3d:41:e1:d2:d0:41:00:83:20:35:c6:
        7d:36:5f:62:bf:a9:a1:a7:bf:c2:b4:44:9f:3c:f3:33:28:47:
        01:bc:be:fb:4b:9c:81:4a:f8:81:b9:6f:cc:a4:81:95:79:24:
        e7:06:6b:8e
-----BEGIN CERTIFICATE-----
MIIDtTCCAp2gAwIBAgIUXgxo/O5Fw8STkpIb8G5FyKC959IwDQYJKoZIhvcNAQEL
BQAwgYIxCzAJBgNVBAYTAlVTMRAwDgYDVQQIDAdNb250YW5hMRAwDgYDVQQHDAdC
b3plbWFuMRQwEgYDVQQLDAtFbmdpbmVlcmluZzEYMBYGA1UEAwwPd3d3Lm5vbWF0
Y2guY29tMR8wHQYJKoZIhvcNAQkBFhBpbmZvQHdvbGZzc2wuY29tMB4XDTI0MTIx
ODIzMTEyM1oXDTI3MDkxNDIzMTEyM1owgYIxCzAJBgNVBAYTAlVTMRAwDgYDVQQI
DAdNb250YW5hMRAwDgYDVQQHDAdCb3plbWFuMRQwEgYDVQQLDAtFbmdpbmVlcmlu
ZzEYMBYGA1UEAwwPd3d3Lm5vbWF0Y2guY29tMR8wHQYJKoZIhvcNAQkBFhBpbmZv
QHdvbGZzc2wuY29tMIIBIjANBgkqhkiG9w0BAQEFAAOCAQ8AMIIBCgKCAQEAwJUI
4VdB8nFtt9JFQScBZcZFrvK8JDC4lc4vTtb2HIi8fJ/7qGd//lycUXX3isoH5zUv
j+G9e8AvfKtkqBf8yl17uuAh5XIuby6G2JVz2qwbU7lfP9cZDSVP4WNjUYsLZD+t
Q7ilHFw0s64AoGPF9n8LWWh4c6aMGKkCba/DGQEuuBDjxsxAtGmjRjNph27Euxem
8+jdrXO8ey8htf1mUQy9VLPhbV8cvCNz0QkDiRTSELlkwyrQoZZKvOHUGlvHoMDB
Y3gPRDcwMpaAMiOVoXe6E9KXc+JdJclqDcM5YKS0sGlCQgnp2Ai8MyCzWCKnquvE
4eZhg8XSlt/Z0E+t1wIDAQABoyEwHzAdBgNVHQ4EFgQUsxEyyZKYhOLJ+NA7bgNC
yh8OjjwwDQYJKoZIhvcNAQELBQADggEBAIFx5ROWq5lGwp6LfLEclgjwOf2the9v
VGBs1Oy0ZWk+N+PDN+oiuHmuurPEKY2HhJP0dIF95h0t7jeGTPKi6LWnreTDQ/qe
/yvYSCIFbONWSUcn9j+7RV+iJbwkPMYWVz3bmFZcR6X3re4LlPG4XGpeafykLrMk
IRMrDSUbKrq76ADSgFnmHwH1Yp1whATd8l+rwGz4dTfhpBTfrJz/Y71wkkrB3S55
BUCUxJIrM12qAA/ZoapIeUqLw1TEzGPmTdbNgLJ3amMWbTtHY+k9QeHS0EEAgyA1
xn02X2K/qaGnv8K0RJ888zMoRwG8vvtLnIFK+IG5b8ykgZV5JOcGa44=
-----END CERTIFICATE-----
