Certificate:
    Data:
        Version: 3 (0x2)
        Serial Number: 13794671295210680971 (0xbf708474a84f728b)
    Signature Algorithm: sha1WithRSAEncryption
        Issuer: C=US, ST=Montana, L=Bozeman, OU=Engineering, CN=www.nomatch.com/emailAddress=info@wolfssl.com
        Validity
            Not Before: Jun 12 21:08:33 2018 GMT
            Not After : Mar  8 21:08:33 2021 GMT
        Subject: C=US, ST=Montana, L=Bozeman, OU=Engineering, CN=www.nomatch.com/emailAddress=info@wolfssl.com
        Subject Public Key Info:
            Public Key Algorithm: rsaEncryption
                Public-Key: (2048 bit)
                Modulus:
                    00:c0:95:08:e1:57:41:f2:71:6d:b7:d2:45:41:27:
                    01:65:c6:45:ae:f2:bc:24:30:b8:95:ce:2f:4e:d6:
                    f6:1c:88:bc:7c:9f:fb:a8:67:7f:fe:5c:9c:51:75:
                    f7:8a:ca:07:e7:35:2f:8f:e1:bd:7b:c0:2f:7c:ab:
                    64:a8:17:fc:ca:5d:7b:ba:e0:21:e5:72:2e:6f:2e:
                    86:d8:95:73:da:ac:1b:53:b9:5f:3f:d7:19:0d:25:
                    4f:e1:63:63:51:8b:0b:64:3f:ad:43:b8:a5:1c:5c:
                    34:b3:ae:00:a0:63:c5:f6:7f:0b:59:68:78:73:a6:
                    8c:18:a9:02:6d:af:c3:19:01:2e:b8:10:e3:c6:cc:
                    40:b4:69:a3:46:33:69:87:6e:c4:bb:17:a6:f3:e8:
                    dd:ad:73:bc:7b:2f:21:b5:fd:66:51:0c:bd:54:b3:
                    e1:6d:5f:1c:bc:23:73:d1:09:03:89:14:d2:10:b9:
                    64:c3:2a:d0:a1:96:4a:bc:e1:d4:1a:5b:c7:a0:c0:
                    c1:63:78:0f:44:37:30:32:96:80:32:23:95:a1:77:
                    ba:13:d2:97:73:e2:5d:25:c9:6a:0d:c3:39:60:a4:
                    b4:b0:69:42:42:09:e9:d8:08:bc:33:20:b3:58:22:
                    a7:aa:eb:c4:e1:e6:61:83:c5:d2:96:df:d9:d0:4f:
                    ad:d7
                Exponent: 65537 (0x10001)
        X509v3 extensions:
            X509v3 Subject Alternative Name: 
                DNS:www.nomatch.com
    Signature Algorithm: sha1WithRSAEncryption
         67:2e:82:45:b1:42:c6:4d:95:cf:0f:f2:8e:96:0b:dd:77:e6:
         b4:0f:c0:bc:6b:0f:04:ec:de:e1:e2:6b:0a:49:ac:df:13:8c:
         8f:4c:66:b9:48:ac:2b:f4:ae:ca:35:ad:31:a0:ef:f1:4b:8e:
         02:6d:42:ab:4b:8b:55:14:d8:86:df:f7:b6:cc:ce:42:ec:1b:
         49:53:e8:09:d1:33:d1:cf:a7:a4:40:90:c2:1d:6d:59:09:0d:
         95:06:ef:81:e0:89:8f:71:19:50:97:84:a2:69:25:78:d3:f7:
         be:2c:e0:2c:f4:a5:c9:11:d7:fb:bf:b6:de:02:ee:2b:d7:c5:
         55:46:17:7b:d8:9b:49:77:42:ad:43:67:f6:1b:10:a6:fc:ce:
         60:d0:3e:79:3d:b7:ce:63:95:07:af:22:fb:45:6b:9b:da:4e:
         a9:96:75:c2:e8:57:30:65:85:50:b0:b3:aa:0d:38:dc:13:0d:
         2a:fa:fa:76:88:89:a1:07:38:e7:98:55:7d:10:ac:48:da:2a:
         2d:09:98:60:d1:0d:03:80:58:11:1a:aa:dd:2e:3e:88:3b:90:
         b7:a3:a5:38:25:ef:3c:cb:6f:f9:16:fb:c0:6a:ee:29:73:63:
         55:23:5f:a1:30:08:f1:0c:d0:9a:74:c9:09:c7:c0:06:db:2e:
         82:b4:3c:f0
-----BEGIN CERTIFICATE-----
MIIDpzCCAo+gAwIBAgIJAL9whHSoT3KLMA0GCSqGSIb3DQEBBQUAMIGCMQswCQYD
VQQGEwJVUzEQMA4GA1UECAwHTW9udGFuYTEQMA4GA1UEBwwHQm96ZW1hbjEUMBIG
A1UECwwLRW5naW5lZXJpbmcxGDAWBgNVBAMMD3d3dy5ub21hdGNoLmNvbTEfMB0G
CSqGSIb3DQEJARYQaW5mb0B3b2xmc3NsLmNvbTAeFw0xODA2MTIyMTA4MzNaFw0y
MTAzMDgyMTA4MzNaMIGCMQswCQYDVQQGEwJVUzEQMA4GA1UECAwHTW9udGFuYTEQ
MA4GA1UEBwwHQm96ZW1hbjEUMBIGA1UECwwLRW5naW5lZXJpbmcxGDAWBgNVBAMM
D3d3dy5ub21hdGNoLmNvbTEfMB0GCSqGSIb3DQEJARYQaW5mb0B3b2xmc3NsLmNv
bTCCASIwDQYJKoZIhvcNAQEBBQADggEPADCCAQoCggEBAMCVCOFXQfJxbbfSRUEn
AWXGRa7yvCQwuJXOL07W9hyIvHyf+6hnf/5cnFF194rKB+c1L4/hvXvAL3yrZKgX
/Mpde7rgIeVyLm8uhtiVc9qsG1O5Xz/XGQ0lT+FjY1GLC2Q/rUO4pRxcNLOuAKBj
xfZ/C1loeHOmjBipAm2vwxkBLrgQ48bMQLRpo0YzaYduxLsXpvPo3a1zvHsvIbX9
ZlEMvVSz4W1fHLwjc9EJA4kU0hC5ZMMq0KGWSrzh1Bpbx6DAwWN4D0Q3MDKWgDIj
laF3uhPSl3PiXSXJag3DOWCktLBpQkIJ6dgIvDMgs1gip6rrxOHmYYPF0pbf2dBP
rdcCAwEAAaMeMBwwGgYDVR0RBBMwEYIPd3d3Lm5vbWF0Y2guY29tMA0GCSqGSIb3
DQEBBQUAA4IBAQBnLoJFsULGTZXPD/KOlgvdd+a0D8C8aw8E7N7h4msKSazfE4yP
TGa5SKwr9K7KNa0xoO/xS44CbUKrS4tVFNiG3/e2zM5C7BtJU+gJ0TPRz6ekQJDC
HW1ZCQ2VBu+B4ImPcRlQl4SiaSV40/e+LOAs9KXJEdf7v7beAu4r18VVRhd72JtJ
d0KtQ2f2GxCm/M5g0D55PbfOY5UHryL7RWub2k6plnXC6FcwZYVQsLOqDTjcEw0q
+vp2iImhBzjnmFV9EKxI2iotCZhg0Q0DgFgRGqrdLj6IO5C3o6U4Je88y2/5FvvA
au4pc2NVI1+hMAjxDNCadMkJx8AG2y6CtDzw
-----END CERTIFICATE-----
