Certificate:
    Data:
        Version: 3 (0x2)
        Serial Number:
            5f:cb:7b:57:73:63:6d:62:69:9f:72:e0:66:15:00:27:fa:b6:b6:b6
        Signature Algorithm: sha256WithRSAEncryption
        Issuer: C = US, ST = Montana, L = Bozeman, OU = Engineering, CN = localhost, emailAddress = info@wolfssl.com
        Validity
            Not Before: Jun 15 22:02:34 2021 GMT
            Not After : Mar 11 22:02:34 2024 GMT
        Subject: C = US, ST = Montana, L = Bozeman, OU = Engineering, CN = localhost, emailAddress = info@wolfssl.com
        Subject Public Key Info:
            Public Key Algorithm: rsaEncryption
                RSA Public-Key: (2048 bit)
                Modulus:
                    00:c0:95:08:e1:57:41:f2:71:6d:b7:d2:45:41:27:
                    01:65:c6:45:ae:f2:bc:24:30:b8:95:ce:2f:4e:d6:
                    f6:1c:88:bc:7c:9f:fb:a8:67:7f:fe:5c:9c:51:75:
                    f7:8a:ca:07:e7:35:2f:8f:e1:bd:7b:c0:2f:7c:ab:
                    64:a8:17:fc:ca:5d:7b:ba:e0:21:e5:72:2e:6f:2e:
                    86:d8:95:73:da:ac:1b:53:b9:5f:3f:d7:19:0d:25:
                    4f:e1:63:63:51:8b:0b:64:3f:ad:43:b8:a5:1c:5c:
                    34:b3:ae:00:a0:63:c5:f6:7f:0b:59:68:78:73:a6:
                    8c:18:a9:02:6d:af:c3:19:01:2e:b8:10:e3:c6:cc:
                    40:b4:69:a3:46:33:69:87:6e:c4:bb:17:a6:f3:e8:
                    dd:ad:73:bc:7b:2f:21:b5:fd:66:51:0c:bd:54:b3:
                    e1:6d:5f:1c:bc:23:73:d1:09:03:89:14:d2:10:b9:
                    64:c3:2a:d0:a1:96:4a:bc:e1:d4:1a:5b:c7:a0:c0:
                    c1:63:78:0f:44:37:30:32:96:80:32:23:95:a1:77:
                    ba:13:d2:97:73:e2:5d:25:c9:6a:0d:c3:39:60:a4:
                    b4:b0:69:42:42:09:e9:d8:08:bc:33:20:b3:58:22:
                    a7:aa:eb:c4:e1:e6:61:83:c5:d2:96:df:d9:d0:4f:
                    ad:d7
                Exponent: 65537 (0x10001)
        X509v3 extensions:
            X509v3 Subject Alternative Name: 
                DNS:localhost
    Signature Algorithm: sha256WithRSAEncryption
         40:4f:9f:fa:37:67:e7:64:8a:6a:0b:fd:68:ab:39:09:96:ae:
         98:b8:9a:16:ab:30:84:ba:6a:89:0f:e5:fd:d1:a0:3f:f5:8f:
         b8:13:2f:4c:1c:a1:a6:8d:59:f0:ab:61:f2:c8:af:0b:e2:fc:
         b5:14:17:f9:a5:b6:ba:ad:d8:70:01:0b:9a:d4:3e:c2:04:06:
         65:f1:25:4f:de:36:ef:52:3e:a9:27:77:5d:89:5d:7a:7b:ef:
         3d:28:ad:0f:2e:6e:74:4f:67:41:7c:37:17:c9:8a:71:05:10:
         66:11:b0:f6:15:b5:59:0f:29:dc:0c:93:cc:bd:3c:6d:93:40:
         28:a4:59:de:7b:f4:f5:31:1c:0b:b1:db:c8:39:00:70:39:3a:
         3b:31:fc:de:02:e2:00:1e:e1:35:cf:8a:ca:0b:15:ae:ac:63:
         92:d2:33:77:54:0e:56:6f:b7:1b:84:f9:e5:fc:4e:2e:db:26:
         5f:bd:51:a0:bb:d7:23:0b:8f:d7:24:4d:ab:df:74:46:fe:9f:
         17:55:23:0d:a7:9a:ea:56:d7:a7:a9:cd:3e:18:60:14:d2:fd:
         9a:b7:61:4c:0b:6f:60:ac:9c:e9:81:db:e1:13:4f:4b:80:43:
         57:c1:05:86:a6:23:6e:b7:61:ed:76:58:d3:65:dc:6b:eb:92:
         ac:35:fa:0a
-----BEGIN CERTIFICATE-----
MIIDnjCCAoagAwIBAgIUX8t7V3NjbWJpn3LgZhUAJ/q2trYwDQYJKoZIhvcNAQEL
BQAwfDELMAkGA1UEBhMCVVMxEDAOBgNVBAgMB01vbnRhbmExEDAOBgNVBAcMB0Jv
emVtYW4xFDASBgNVBAsMC0VuZ2luZWVyaW5nMRIwEAYDVQQDDAlsb2NhbGhvc3Qx
HzAdBgkqhkiG9w0BCQEWEGluZm9Ad29sZnNzbC5jb20wHhcNMjEwNjE1MjIwMjM0
WhcNMjQwMzExMjIwMjM0WjB8MQswCQYDVQQGEwJVUzEQMA4GA1UECAwHTW9udGFu
YTEQMA4GA1UEBwwHQm96ZW1hbjEUMBIGA1UECwwLRW5naW5lZXJpbmcxEjAQBgNV
BAMMCWxvY2FsaG9zdDEfMB0GCSqGSIb3DQEJARYQaW5mb0B3b2xmc3NsLmNvbTCC
ASIwDQYJKoZIhvcNAQEBBQADggEPADCCAQoCggEBAMCVCOFXQfJxbbfSRUEnAWXG
Ra7yvCQwuJXOL07W9hyIvHyf+6hnf/5cnFF194rKB+c1L4/hvXvAL3yrZKgX/Mpd
e7rgIeVyLm8uhtiVc9qsG1O5Xz/XGQ0lT+FjY1GLC2Q/rUO4pRxcNLOuAKBjxfZ/
C1loeHOmjBipAm2vwxkBLrgQ48bMQLRpo0YzaYduxLsXpvPo3a1zvHsvIbX9ZlEM
vVSz4W1fHLwjc9EJA4kU0hC5ZMMq0KGWSrzh1Bpbx6DAwWN4D0Q3MDKWgDIjlaF3
uhPSl3PiXSXJag3DOWCktLBpQkIJ6dgIvDMgs1gip6rrxOHmYYPF0pbf2dBPrdcC
AwEAAaMYMBYwFAYDVR0RBA0wC4IJbG9jYWxob3N0MA0GCSqGSIb3DQEBCwUAA4IB
AQBAT5/6N2fnZIpqC/1oqzkJlq6YuJoWqzCEumqJD+X90aA/9Y+4Ey9MHKGmjVnw
q2HyyK8L4vy1FBf5pba6rdhwAQua1D7CBAZl8SVP3jbvUj6pJ3ddiV16e+89KK0P
Lm50T2dBfDcXyYpxBRBmEbD2FbVZDyncDJPMvTxtk0AopFnee/T1MRwLsdvIOQBw
OTo7MfzeAuIAHuE1z4rKCxWurGOS0jN3VA5Wb7cbhPnl/E4u2yZfvVGgu9cjC4/X
JE2r33RG/p8XVSMNp5rqVtenqc0+GGAU0v2at2FMC29grJzpgdvhE09LgENXwQWG
piNut2HtdljTZdxr65KsNfoK
-----END CERTIFICATE-----
