Certificate:
    Data:
        Version: 3 (0x2)
        Serial Number:
            51:c8:76:f6:e4:03:7b:88:d2:98:fb:66:35:aa:83:d3:f3:c7:c4:01
        Signature Algorithm: sha256WithRSAEncryption
        Issuer: C = US, ST = Montana, L = Bozeman, OU = Engineering, CN = www.nomatch.com, emailAddress = info@wolfssl.com
        Validity
            Not Before: Jun 15 22:02:33 2021 GMT
            Not After : Mar 11 22:02:33 2024 GMT
        Subject: C = US, ST = Montana, L = Bozeman, OU = Engineering, CN = www.nomatch.com, emailAddress = info@wolfssl.com
        Subject Public Key Info:
            Public Key Algorithm: rsaEncryption
                RSA Public-Key: (2048 bit)
                Modulus:
                    00:c0:95:08:e1:57:41:f2:71:6d:b7:d2:45:41:27:
                    01:65:c6:45:ae:f2:bc:24:30:b8:95:ce:2f:4e:d6:
                    f6:1c:88:bc:7c:9f:fb:a8:67:7f:fe:5c:9c:51:75:
                    f7:8a:ca:07:e7:35:2f:8f:e1:bd:7b:c0:2f:7c:ab:
                    64:a8:17:fc:ca:5d:7b:ba:e0:21:e5:72:2e:6f:2e:
                    86:d8:95:73:da:ac:1b:53:b9:5f:3f:d7:19:0d:25:
                    4f:e1:63:63:51:8b:0b:64:3f:ad:43:b8:a5:1c:5c:
                    34:b3:ae:00:a0:63:c5:f6:7f:0b:59:68:78:73:a6:
                    8c:18:a9:02:6d:af:c3:19:01:2e:b8:10:e3:c6:cc:
                    40:b4:69:a3:46:33:69:87:6e:c4:bb:17:a6:f3:e8:
                    dd:ad:73:bc:7b:2f:21:b5:fd:66:51:0c:bd:54:b3:
                    e1:6d:5f:1c:bc:23:73:d1:09:03:89:14:d2:10:b9:
                    64:c3:2a:d0:a1:96:4a:bc:e1:d4:1a:5b:c7:a0:c0:
                    c1:63:78:0f:44:37:30:32:96:80:32:23:95:a1:77:
                    ba:13:d2:97:73:e2:5d:25:c9:6a:0d:c3:39:60:a4:
                    b4:b0:69:42:42:09:e9:d8:08:bc:33:20:b3:58:22:
                    a7:aa:eb:c4:e1:e6:61:83:c5:d2:96:df:d9:d0:4f:
                    ad:d7
                Exponent: 65537 (0x10001)
        X509v3 extensions:
            X509v3 Subject Alternative Name: 
                DNS:*localhost
    Signature Algorithm: sha256WithRSAEncryption
         bd:57:16:44:c4:39:a1:e6:12:50:8b:f9:2f:53:74:92:b6:42:
         6c:34:2d:9e:82:7b:f3:e5:c5:9b:93:a7:26:a2:3b:2c:eb:99:
         cf:f0:2e:af:de:ac:8a:a7:0c:a5:d6:fb:0c:65:be:4c:ea:39:
         7d:60:4a:d3:1e:fb:48:0d:4c:90:12:1d:41:96:f5:80:be:52:
         e3:57:23:5a:4d:4d:03:6c:82:7c:75:0e:8a:ec:2c:ee:f3:05:
         80:84:7a:58:a2:d6:58:05:31:27:ae:8f:6b:52:c3:93:eb:66:
         23:0b:15:d0:5f:cc:fd:ca:af:f9:94:6b:4d:0d:05:6b:65:22:
         35:d2:0c:ed:bf:82:02:52:bf:28:08:b4:6e:7e:7f:9e:eb:37:
         93:89:b8:1d:4a:17:eb:f7:e3:8c:1f:6f:8a:00:6c:85:57:c3:
         17:86:94:d4:50:fd:a1:74:01:41:92:cc:16:52:5a:8e:fc:30:
         2e:fd:13:3f:0a:a6:fc:89:e1:4c:83:30:b7:82:76:7a:ee:c4:
         57:77:e6:2f:75:27:b8:28:76:f4:9f:db:13:4b:de:9c:6c:ce:
         b7:d9:39:7c:2a:f9:52:59:e2:ba:10:33:86:73:f6:a8:52:f2:
         58:0c:bd:11:e5:fd:b1:3d:ab:10:33:a1:56:84:5e:af:ad:23:
         44:99:30:19
-----BEGIN CERTIFICATE-----
MIIDrTCCApWgAwIBAgIUUch29uQDe4jSmPtmNaqD0/PHxAEwDQYJKoZIhvcNAQEL
BQAwgYIxCzAJBgNVBAYTAlVTMRAwDgYDVQQIDAdNb250YW5hMRAwDgYDVQQHDAdC
b3plbWFuMRQwEgYDVQQLDAtFbmdpbmVlcmluZzEYMBYGA1UEAwwPd3d3Lm5vbWF0
Y2guY29tMR8wHQYJKoZIhvcNAQkBFhBpbmZvQHdvbGZzc2wuY29tMB4XDTIxMDYx
NTIyMDIzM1oXDTI0MDMxMTIyMDIzM1owgYIxCzAJBgNVBAYTAlVTMRAwDgYDVQQI
DAdNb250YW5hMRAwDgYDVQQHDAdCb3plbWFuMRQwEgYDVQQLDAtFbmdpbmVlcmlu
ZzEYMBYGA1UEAwwPd3d3Lm5vbWF0Y2guY29tMR8wHQYJKoZIhvcNAQkBFhBpbmZv
QHdvbGZzc2wuY29tMIIBIjANBgkqhkiG9w0BAQEFAAOCAQ8AMIIBCgKCAQEAwJUI
4VdB8nFtt9JFQScBZcZFrvK8JDC4lc4vTtb2HIi8fJ/7qGd//lycUXX3isoH5zUv
j+G9e8AvfKtkqBf8yl17uuAh5XIuby6G2JVz2qwbU7lfP9cZDSVP4WNjUYsLZD+t
Q7ilHFw0s64AoGPF9n8LWWh4c6aMGKkCba/DGQEuuBDjxsxAtGmjRjNph27Euxem
8+jdrXO8ey8htf1mUQy9VLPhbV8cvCNz0QkDiRTSELlkwyrQoZZKvOHUGlvHoMDB
Y3gPRDcwMpaAMiOVoXe6E9KXc+JdJclqDcM5YKS0sGlCQgnp2Ai8MyCzWCKnquvE
4eZhg8XSlt/Z0E+t1wIDAQABoxkwFzAVBgNVHREEDjAMggoqbG9jYWxob3N0MA0G
CSqGSIb3DQEBCwUAA4IBAQC9VxZExDmh5hJQi/kvU3SStkJsNC2egnvz5cWbk6cm
ojss65nP8C6v3qyKpwyl1vsMZb5M6jl9YErTHvtIDUyQEh1BlvWAvlLjVyNaTU0D
bIJ8dQ6K7Czu8wWAhHpYotZYBTEnro9rUsOT62YjCxXQX8z9yq/5lGtNDQVrZSI1
0gztv4ICUr8oCLRufn+e6zeTibgdShfr9+OMH2+KAGyFV8MXhpTUUP2hdAFBkswW
UlqO/DAu/RM/Cqb8ieFMgzC3gnZ67sRXd+YvdSe4KHb0n9sTS96cbM632Tl8KvlS
WeK6EDOGc/aoUvJYDL0R5f2xPasQM6FWhF6vrSNEmTAZ
-----END CERTIFICATE-----
